(dp0
S'0mel2N9Ws9r4yLQn5QE21Y'
p1
(dp2
S'artistName'
p3
S'Sam Smith'
p4
sS'weeksOnChart'
p5
I5
sS'track_href'
p6
S'https://open.spotify.com/track/0mel2N9Ws9r4yLQn5QE21Y'
p7
sS'songName'
p8
S'Too Good At Goodbyes'
p9
ssS'1Q1Lz8shbr2AXR8zKReTqd'
p10
(dp11
g3
S'Hearts & Colors'
p12
sg5
I4
sg6
S'https://open.spotify.com/track/1Q1Lz8shbr2AXR8zKReTqd'
p13
sg8
S'For The Love'
p14
ssS'0jdny0dhgjUwoIp5GkqEaA'
p15
(dp16
g3
S'Kesha'
p17
sg5
I2
sg6
S'https://open.spotify.com/track/0jdny0dhgjUwoIp5GkqEaA'
p18
sg8
S'Praying'
p19
ssS'60a0Rd6pjrkxjPbaKzXjfq'
p20
(dp21
g3
S'Linkin Park'
p22
sg5
I2
sg6
S'https://open.spotify.com/track/60a0Rd6pjrkxjPbaKzXjfq'
p23
sg8
S'In The End'
p24
ssS'55Da3mW47G3G0KY2A0o36E'
p25
(dp26
g3
S'L.O.C.'
p27
sg5
I8
sg6
S'https://open.spotify.com/track/55Da3mW47G3G0KY2A0o36E'
p28
sg8
S'Husk'
p29
ssS'2rui6bCZAz3yJ7YFQeyWMq'
p30
(dp31
g3
S'Gulddreng'
p32
sg5
I4
sg6
S'https://open.spotify.com/track/2rui6bCZAz3yJ7YFQeyWMq'
p33
sg8
S'Guld Jul'
p34
ssS'58K5nAWRgdHtdUdrQaScGv'
p35
(dp36
g3
S'You Know Who'
p37
sg5
I1
sg6
S'https://open.spotify.com/track/58K5nAWRgdHtdUdrQaScGv'
p38
sg8
S"Finally It's Christmas Again"
p39
ssS'6HUnnBwYZqcED1eQztxMBN'
p40
(dp41
g3
S'Martin Jensen'
p42
sg5
I42
sg6
S'https://open.spotify.com/track/6HUnnBwYZqcED1eQztxMBN'
p43
sg8
S'Solo Dance'
p44
ssS'2dfHh7ECGxfNqZTQno09Vk'
p45
(dp46
g3
S'Ed Sheeran'
p47
sg5
I7
sg6
S'https://open.spotify.com/track/2dfHh7ECGxfNqZTQno09Vk'
p48
sg8
S"Hearts Don't Break Around Here"
p49
ssS'0RYXEibxMami3QuT8kn4Iz'
p50
(dp51
g3
S'Macklemore'
p52
sg5
I1
sg6
S'https://open.spotify.com/track/0RYXEibxMami3QuT8kn4Iz'
p53
sg8
S'Marmalade (feat. Lil Yachty)'
p54
ssS'3QWjljChcOMkRDYSzF33Qr'
p55
(dp56
g3
S'Kiiara'
p57
sg5
I6
sg6
S'https://open.spotify.com/track/3QWjljChcOMkRDYSzF33Qr'
p58
sg8
S'Whippin (feat. Felix Snow)'
p59
ssS'0lLdorYw7lVrJydTINhWdI'
p60
(dp61
g3
S'Michael Bubl\xc3\xa9'
p62
sg5
I1
sg6
S'https://open.spotify.com/track/0lLdorYw7lVrJydTINhWdI'
p63
sg8
S"It's Beginning To Look A Lot Like Christmas"
p64
ssS'1OAh8uOEOvTDqkKFsKksCi'
p65
(dp66
g3
S'DJ Khaled'
p67
sg5
I17
sg6
S'https://open.spotify.com/track/1OAh8uOEOvTDqkKFsKksCi'
p68
sg8
S'Wild Thoughts'
p69
ssS'2aksifNn5ph8igDOkPBA02'
p70
(dp71
g3
S'Rihanna'
p72
sg5
I25
sg6
S'https://open.spotify.com/track/2aksifNn5ph8igDOkPBA02'
p73
sg8
S'Love On The Brain'
p74
ssS'6yf3MxEOScNBTYCHOAIiNQ'
p75
(dp76
g3
S'Jax Jones'
p77
sg5
I1
sg6
S'https://open.spotify.com/track/6yf3MxEOScNBTYCHOAIiNQ'
p78
sg8
S'Instruction (feat. Demi Lovato & Stefflon Don)'
p79
ssS'7c6DueTr5BfxnF4RvtEccH'
p80
(dp81
g3
S'NODE'
p82
sg5
I30
sg6
S'https://open.spotify.com/track/7c6DueTr5BfxnF4RvtEccH'
p83
sg8
S'De Snakker'
p84
ssS'7wGoVu4Dady5GV0Sv4UIsx'
p85
(dp86
g3
S'Post Malone'
p87
sg5
I1
sg6
S'https://open.spotify.com/track/7wGoVu4Dady5GV0Sv4UIsx'
p88
sg8
S'rockstar'
p89
ssS'0V9cosR5jWa4fr2koARmhD'
p90
(dp91
g3
S'ItaloBrothers'
p92
sg5
I5
sg6
S'https://open.spotify.com/track/0V9cosR5jWa4fr2koARmhD'
p93
sg8
S'Summer Air'
p94
ssS'7KcGEssn7BnJdTgildK5y0'
p95
(dp96
g3
S'Nicki Minaj'
p97
sg5
I1
sg6
S'https://open.spotify.com/track/7KcGEssn7BnJdTgildK5y0'
p98
sg8
S'No Frauds'
p99
ssS'1CnPYaKxTVb4LWOtiGOm0m'
p100
(dp101
g3
S'Jon Bellion'
p102
sg5
I17
sg6
S'https://open.spotify.com/track/1CnPYaKxTVb4LWOtiGOm0m'
p103
sg8
S'All Time Low'
p104
ssS'5Ber68jZ7ytegr2UISEdb7'
p105
(dp106
g3
S'Michael Bubl\xc3\xa9'
p107
sg5
I1
sg6
S'https://open.spotify.com/track/5Ber68jZ7ytegr2UISEdb7'
p108
sg8
S'Santa Claus Is Coming To Town'
p109
ssS'5YZvY3moEqYlHL3Z4WjzOt'
p110
(dp111
g3
S'Benal'
p112
sg5
I1
sg6
S'https://open.spotify.com/track/5YZvY3moEqYlHL3Z4WjzOt'
p113
sg8
S'Hvor G\xc3\xa5r Du Hen'
p114
ssS'6pDcXdbHcVIVMZGygJPHdb'
p115
(dp116
g3
S'Omar'
p117
sg5
I3
sg6
S'https://open.spotify.com/track/6pDcXdbHcVIVMZGygJPHdb'
p118
sg8
S'Rockefeller'
p119
ssS'4q8PHoRsPUB52LFylX8Ulz'
p120
(dp121
g3
S'Axwell /\\ Ingrosso'
p122
sg5
I9
sg6
S'https://open.spotify.com/track/4q8PHoRsPUB52LFylX8Ulz'
p123
sg8
S'More Than You Know'
p124
ssS'2FRnf9qhLbvw8fu4IBXx78'
p125
(dp126
g3
S'Wham!'
p127
sg5
I1
sg6
S'https://open.spotify.com/track/2FRnf9qhLbvw8fu4IBXx78'
p128
sg8
S'Last Christmas'
p129
ssS'5WCilecRDzclVGuG5qMwKX'
p130
(dp131
g3
S'Gilli'
p132
sg5
I36
sg6
S'https://open.spotify.com/track/5WCilecRDzclVGuG5qMwKX'
p133
sg8
S"C'est la vie"
p134
ssS'7tr2za8SQg2CI8EDgrdtNl'
p135
(dp136
g3
S'Calvin Harris'
p137
sg5
I29
sg6
S'https://open.spotify.com/track/7tr2za8SQg2CI8EDgrdtNl'
p138
sg8
S'Slide'
p139
ssS'0prNGof3XqfTvNDxHonvdK'
p140
(dp141
g3
S'Alessia Cara'
p142
sg5
I20
sg6
S'https://open.spotify.com/track/0prNGof3XqfTvNDxHonvdK'
p143
sg8
S'Scars To Your Beautiful'
p144
ssS'5zyEUkL2SNiJQ4iQVnhWkk'
p145
(dp146
g3
S'Suspekt'
p147
sg5
I1
sg6
S'https://open.spotify.com/track/5zyEUkL2SNiJQ4iQVnhWkk'
p148
sg8
S'Kinky F\xc3\xa6tter'
p149
ssS'7Mk6Ys0HVyLEkgd0omsXQ3'
p150
(dp151
g3
S'De Nattergale'
p152
sg5
I1
sg6
S'https://open.spotify.com/track/7Mk6Ys0HVyLEkgd0omsXQ3'
p153
sg8
S"It's Hard to Be a Nissemand"
p154
ssS'3AgiRs3oxc2dFh0CPUHXJs'
p155
(dp156
g3
S'Cliff Richard'
p157
sg5
I1
sg6
S'https://open.spotify.com/track/3AgiRs3oxc2dFh0CPUHXJs'
p158
sg8
S'Mistletoe and Wine'
p159
ssS'25khomWgBVamSdKw7hzm3l'
p160
(dp161
g3
S'The Weeknd'
p162
sg5
I2
sg6
S'https://open.spotify.com/track/25khomWgBVamSdKw7hzm3l'
p163
sg8
S'The Hills'
p164
ssS'06FCvd7rrRcF3DdvWH5Isp'
p165
(dp166
g3
S'Kendrick Lamar'
p167
sg5
I2
sg6
S'https://open.spotify.com/track/06FCvd7rrRcF3DdvWH5Isp'
p168
sg8
S'LUST.'
p169
ssS'4pLwZjInHj3SimIyN9SnOz'
p170
(dp171
g3
S'Ariana Grande'
p172
sg5
I14
sg6
S'https://open.spotify.com/track/4pLwZjInHj3SimIyN9SnOz'
p173
sg8
S'Side To Side'
p174
ssS'3E2Zh20GDCR9B1EYjfXWyv'
p175
(dp176
g3
S'AJR'
p177
sg5
I20
sg6
S'https://open.spotify.com/track/3E2Zh20GDCR9B1EYjfXWyv'
p178
sg8
S'Weak'
p179
ssS'2Gl0FzuLxflY6nPifJp5Dr'
p180
(dp181
g3
S'Kygo'
p182
sg5
I24
sg6
S'https://open.spotify.com/track/2Gl0FzuLxflY6nPifJp5Dr'
p183
sg8
S'First Time'
p184
ssS'5g2nzVN1yrsZep2YMmXKZo'
p185
(dp186
g3
S'Danni'
p187
sg5
I1
sg6
S'https://open.spotify.com/track/5g2nzVN1yrsZep2YMmXKZo'
p188
sg8
S"Bar' La V\xc3\xa6r"
p189
ssS'0xl1w2q4VLojeXp4JfazPL'
p190
(dp191
g3
S'Drake'
p192
sg5
I2
sg6
S'https://open.spotify.com/track/0xl1w2q4VLojeXp4JfazPL'
p193
sg8
S'Sacrifices'
p194
ssS'5YCqzqb6yN6TsMOHb4FSVw'
p195
(dp196
g3
S'Kristian Kostov'
p197
sg5
I1
sg6
S'https://open.spotify.com/track/5YCqzqb6yN6TsMOHb4FSVw'
p198
sg8
S'Beautiful Mess'
p199
ssS'4Km5HrUvYTaSUfiSGPJeQR'
p200
(dp201
g3
S'Migos'
p202
sg5
I30
sg6
S'https://open.spotify.com/track/4Km5HrUvYTaSUfiSGPJeQR'
p203
sg8
S'Bad and Boujee (feat. Lil Uzi Vert)'
p204
ssS'3WrG9BpOPQWUus3FjA1Tny'
p205
(dp206
g3
S"Destiny's Child"
p207
sg5
I1
sg6
S'https://open.spotify.com/track/3WrG9BpOPQWUus3FjA1Tny'
p208
sg8
S'8 Days of Christmas - Live'
p209
ssS'7oERRQTUW405H3HFE0Qc51'
p210
(dp211
g3
S'ICEKIID'
p212
sg5
I19
sg6
S'https://open.spotify.com/track/7oERRQTUW405H3HFE0Qc51'
p213
sg8
S'Gulddans'
p214
ssS'2RttW7RAu5nOAfq6YFvApB'
p215
(dp216
g3
S'Ed Sheeran'
p217
sg5
I32
sg6
S'https://open.spotify.com/track/2RttW7RAu5nOAfq6YFvApB'
p218
sg8
S'Happier'
p219
ssS'5LYQSNHZxEA880URXFHg6h'
p220
(dp221
g3
S'Lana Del Rey'
p222
sg5
I2
sg6
S'https://open.spotify.com/track/5LYQSNHZxEA880URXFHg6h'
p223
sg8
S'Lust for Life (with The Weeknd)'
p224
ssS'3EmmCZoqpWOTY1g2GBwJoR'
p225
(dp226
g3
S'Steve Aoki'
p227
sg5
I26
sg6
S'https://open.spotify.com/track/3EmmCZoqpWOTY1g2GBwJoR'
p228
sg8
S'Just Hold On'
p229
ssS'3YQUpKTmtgPJf8u6ooi9KA'
p230
(dp231
g3
S'Elton John'
p232
sg5
I1
sg6
S'https://open.spotify.com/track/3YQUpKTmtgPJf8u6ooi9KA'
p233
sg8
S'Step Into Christmas'
p234
ssS'4L2K7JKseFCBoHMZEAszW0'
p235
(dp236
g3
S'Labrinth'
p237
sg5
I6
sg6
S'https://open.spotify.com/track/4L2K7JKseFCBoHMZEAszW0'
p238
sg8
S'Jealous'
p239
ssS'6tHDfZvR7zoV7IbFyF8BPy'
p240
(dp241
g3
S'Livid'
p242
sg5
I5
sg6
S'https://open.spotify.com/track/6tHDfZvR7zoV7IbFyF8BPy'
p243
sg8
S'Kalash (feat. Sleiman)'
p244
ssS'6YHnhNqq5NFgIvnSdymjzA'
p245
(dp246
g3
S'Hjalmer'
p247
sg5
I8
sg6
S'https://open.spotify.com/track/6YHnhNqq5NFgIvnSdymjzA'
p248
sg8
S'Hvis Du G\xc3\xa5r'
p249
ssS'0gbBzIqrECJOEPvQJIBFs5'
p250
(dp251
g3
S'Lorde'
p252
sg5
I9
sg6
S'https://open.spotify.com/track/0gbBzIqrECJOEPvQJIBFs5'
p253
sg8
S'Green Light'
p254
ssS'2MHiE76HdeJznaQtrLwBug'
p255
(dp256
g3
S'Mads Langer'
p257
sg5
I1
sg6
S'https://open.spotify.com/track/2MHiE76HdeJznaQtrLwBug'
p258
sg8
S'I En Stjerneregn Af Sne'
p259
ssS'3IILlPnW0JkeDnXX1dZcvK'
p260
(dp261
g3
S'Benal'
p262
sg5
I1
sg6
S'https://open.spotify.com/track/3IILlPnW0JkeDnXX1dZcvK'
p263
sg8
S'Babelfisk'
p264
ssS'5LLj8FOkOpBm1zSEchjVlS'
p265
(dp266
g3
S'TooManyLeftHands'
p267
sg5
I6
sg6
S'https://open.spotify.com/track/5LLj8FOkOpBm1zSEchjVlS'
p268
sg8
S'Mad For It'
p269
ssS'5eqK0tbzUPo2SoeZsov04s'
p270
(dp271
g3
S'21 Savage'
p272
sg5
I8
sg6
S'https://open.spotify.com/track/5eqK0tbzUPo2SoeZsov04s'
p273
sg8
S'Bank Account'
p274
ssS'2zDvWg7Z50kDZ46y7rMd4P'
p275
(dp276
g3
S'Ude Af Kontrol'
p277
sg5
I4
sg6
S'https://open.spotify.com/track/2zDvWg7Z50kDZ46y7rMd4P'
p278
sg8
S'Douchebag'
p279
ssS'5tz69p7tJuGPeMGwNTxYuV'
p280
(dp281
g3
S'Logic'
p282
sg5
I23
sg6
S'https://open.spotify.com/track/5tz69p7tJuGPeMGwNTxYuV'
p283
sg8
S'1-800-273-8255'
p284
ssS'4W0vL8xqRLlmS01mTmw4ec'
p285
(dp286
g3
S'Scarlet Pleasure'
p287
sg5
I3
sg6
S'https://open.spotify.com/track/4W0vL8xqRLlmS01mTmw4ec'
p288
sg8
S'Good Together'
p289
ssS'4iYRa2btalAzPZoSYfROqF'
p290
(dp291
g3
S'Kendrick Lamar'
p292
sg5
I2
sg6
S'https://open.spotify.com/track/4iYRa2btalAzPZoSYfROqF'
p293
sg8
S'XXX. FEAT. U2.'
p294
ssS'2bVwmw32wYGg5LTLbWgp7W'
p295
(dp296
g3
S'Vild Smith'
p297
sg5
I2
sg6
S'https://open.spotify.com/track/2bVwmw32wYGg5LTLbWgp7W'
p298
sg8
S'Min Favorit'
p299
ssS'4xlrALxuaCf9yZBHJeTSG6'
p300
(dp301
g3
S'Jonas Blue'
p302
sg5
I9
sg6
S'https://open.spotify.com/track/4xlrALxuaCf9yZBHJeTSG6'
p303
sg8
S'Mama'
p304
ssS'4Jg4Qp4byYVpJ5m5NpiLa9'
p305
(dp306
g3
S'KESI'
p307
sg5
I38
sg6
S'https://open.spotify.com/track/4Jg4Qp4byYVpJ5m5NpiLa9'
p308
sg8
S'God Dag'
p309
ssS'04ODtDqMf5po751CxIkJgc'
p310
(dp311
g3
S'Rasmus Seebach'
p312
sg5
I4
sg6
S'https://open.spotify.com/track/04ODtDqMf5po751CxIkJgc'
p313
sg8
S"Bli' Her Lidt Endnu"
p314
ssS'00vk0sEfb6mr2ehwSw0Uhn'
p315
(dp316
g3
S'Imany'
p317
sg5
I12
sg6
S'https://open.spotify.com/track/00vk0sEfb6mr2ehwSw0Uhn'
p318
sg8
S"Don't Be So Shy - Filatov & Karas Remix"
p319
ssS'6AKPNSWJlVFN5YZkY0ZmaW'
p320
(dp321
g3
S'Citybois'
p322
sg5
I35
sg6
S'https://open.spotify.com/track/6AKPNSWJlVFN5YZkY0ZmaW'
p323
sg8
S'Dum Som Mig'
p324
ssS'0CokSRCu5hZgPxcZBaEzVE'
p325
(dp326
g3
S'Macklemore'
p327
sg5
I3
sg6
S'https://open.spotify.com/track/0CokSRCu5hZgPxcZBaEzVE'
p328
sg8
S'Glorious (feat. Skylar Grey)'
p329
ssS'1hy6kKvsPbv7VTcllCuATC'
p330
(dp331
g3
S'Meghan Trainor'
p332
sg5
I1
sg6
S'https://open.spotify.com/track/1hy6kKvsPbv7VTcllCuATC'
p333
sg8
S"I'll Be Home"
p334
ssS'3pzjHKrQSvXGHQ98dx18HI'
p335
(dp336
g3
S'Justin Bieber'
p337
sg5
I9
sg6
S'https://open.spotify.com/track/3pzjHKrQSvXGHQ98dx18HI'
p338
sg8
S'What Do You Mean?'
p339
ssS'000xQL6tZNLJzIrtIgxqSl'
p340
(dp341
g3
S'ZAYN'
p342
sg5
I22
sg6
S'https://open.spotify.com/track/000xQL6tZNLJzIrtIgxqSl'
p343
sg8
S'Still Got Time'
p344
ssS'52okn5MNA47tk87PeZJLEL'
p345
(dp346
g3
S'NF'
p347
sg5
I1
sg6
S'https://open.spotify.com/track/52okn5MNA47tk87PeZJLEL'
p348
sg8
S'Let You Down'
p349
ssS'0vHFLAbbWuONECX3WCeXk1'
p350
(dp351
g3
S'Sanne Salomonsen'
p352
sg5
I1
sg6
S'https://open.spotify.com/track/0vHFLAbbWuONECX3WCeXk1'
p353
sg8
S'Vi Lover Hinanden'
p354
ssS'1D3ODoXHBLpdxolZRHWV1j'
p355
(dp356
g3
S'Jonas Blue'
p357
sg5
I6
sg6
S'https://open.spotify.com/track/1D3ODoXHBLpdxolZRHWV1j'
p358
sg8
S'By Your Side'
p359
ssS'1CKd1PnqfYx0H12V9MSaIY'
p360
(dp361
g3
S'Zedd'
p362
sg5
I4
sg6
S'https://open.spotify.com/track/1CKd1PnqfYx0H12V9MSaIY'
p363
sg8
S'Get Low (with Liam Payne)'
p364
ssS'5c4tB0saSkNHX5CyDosuF7'
p365
(dp366
g3
S'Burak Yeter'
p367
sg5
I2
sg6
S'https://open.spotify.com/track/5c4tB0saSkNHX5CyDosuF7'
p368
sg8
S'Tuesday'
p369
ssS'0KKkJNfGyhkQ5aFogxQAPU'
p370
(dp371
g3
S'Bruno Mars'
p372
sg5
I28
sg6
S'https://open.spotify.com/track/0KKkJNfGyhkQ5aFogxQAPU'
p373
sg8
S"That's What I Like"
p374
ssS'32h59T8q2SonUPJ006lyXt'
p375
(dp376
g3
S'Christina Aguilera'
p377
sg5
I1
sg6
S'https://open.spotify.com/track/32h59T8q2SonUPJ006lyXt'
p378
sg8
S'This Christmas'
p379
ssS'5Z01UMMf7V1o0MzF86s6WJ'
p380
(dp381
g3
S'Eminem'
p382
sg5
I9
sg6
S'https://open.spotify.com/track/5Z01UMMf7V1o0MzF86s6WJ'
p383
sg8
S'Lose Yourself - Soundtrack Version'
p384
ssS'5CtI0qwDJkDQGwXD1H1cLb'
p385
(dp386
g3
S'Luis Fonsi'
p387
sg5
I26
sg6
S'https://open.spotify.com/track/5CtI0qwDJkDQGwXD1H1cLb'
p388
sg8
S'Despacito - Remix'
p389
ssS'6vJ2wdESTASuCcO7Wax5rc'
p390
(dp391
g3
S'Citybois'
p392
sg5
I1
sg6
S'https://open.spotify.com/track/6vJ2wdESTASuCcO7Wax5rc'
p393
sg8
S'Som Om'
p394
ssS'5o4yGlG0PfeVUa6ClIyOxq'
p395
(dp396
g3
S'Charli XCX'
p397
sg5
I3
sg6
S'https://open.spotify.com/track/5o4yGlG0PfeVUa6ClIyOxq'
p398
sg8
S'Boys'
p399
ssS'4v3wSYlPgxMr62Etr5iW2v'
p400
(dp401
g3
S'Emil Stabil'
p402
sg5
I2
sg6
S'https://open.spotify.com/track/4v3wSYlPgxMr62Etr5iW2v'
p403
sg8
S'+1'
p404
ssS'0Nhu3zSYbEz32IYiobV75e'
p405
(dp406
g3
S'Halsey'
p407
sg5
I10
sg6
S'https://open.spotify.com/track/0Nhu3zSYbEz32IYiobV75e'
p408
sg8
S'Now Or Never'
p409
ssS'0PeHQTWoq25q8TItzVfHYZ'
p410
(dp411
g3
S'Joey Moe'
p412
sg5
I33
sg6
S'https://open.spotify.com/track/0PeHQTWoq25q8TItzVfHYZ'
p413
sg8
S'Smukkest P\xc3\xa5 En S\xc3\xb8ndag'
p414
ssS'3zJw3rugfpVrmBeDDnUYzy'
p415
(dp416
g3
S'John Lennon'
p417
sg5
I1
sg6
S'https://open.spotify.com/track/3zJw3rugfpVrmBeDDnUYzy'
p418
sg8
S'Happy Xmas (War Is Over) - 2010 Digital Remaster'
p419
ssS'1a5Yu5L18qNxVhXx38njON'
p420
(dp421
g3
S'Alok'
p422
sg5
I24
sg6
S'https://open.spotify.com/track/1a5Yu5L18qNxVhXx38njON'
p423
sg8
S'Hear Me Now'
p424
ssS'7afwb3WwFc1whlTPv2OWXL'
p425
(dp426
g3
S'Albert Dyrlund'
p427
sg5
I10
sg6
S'https://open.spotify.com/track/7afwb3WwFc1whlTPv2OWXL'
p428
sg8
S'Hellerup-dreng'
p429
ssS'5apWCP1md7rzD6RTqnOluT'
p430
(dp431
g3
S'Gulddreng'
p432
sg5
I12
sg6
S'https://open.spotify.com/track/5apWCP1md7rzD6RTqnOluT'
p433
sg8
S"Hva' S\xc3\xa5"
p434
ssS'1J9Raj56eqraMTdgkRSGqJ'
p435
(dp436
g3
S'Jimilian'
p437
sg5
I1
sg6
S'https://open.spotify.com/track/1J9Raj56eqraMTdgkRSGqJ'
p438
sg8
S'Sommer Sindssyg'
p439
ssS'5WEqjIUHkwZ5h3DSE7F9bM'
p440
(dp441
g3
S'Avicii'
p442
sg5
I1
sg6
S'https://open.spotify.com/track/5WEqjIUHkwZ5h3DSE7F9bM'
p443
sg8
S'Friend Of Mine (feat. Vargas & Lagola)'
p444
ssS'7vGuf3Y35N4wmASOKLUVVU'
p445
(dp446
g3
S'Marshmello'
p447
sg5
I9
sg6
S'https://open.spotify.com/track/7vGuf3Y35N4wmASOKLUVVU'
p448
sg8
S'Silence'
p449
ssS'2dfqS3MRtbLZSZA1IL8xY5'
p450
(dp451
g3
S'Drake'
p452
sg5
I2
sg6
S'https://open.spotify.com/track/2dfqS3MRtbLZSZA1IL8xY5'
p453
sg8
S'Skepta Interlude'
p454
ssS'1sCxVKWImDZSZKvG0U9B23'
p455
(dp456
g3
S'Selena Gomez'
p457
sg5
I13
sg6
S'https://open.spotify.com/track/1sCxVKWImDZSZKvG0U9B23'
p458
sg8
S'Bad Liar'
p459
ssS'6jmngk8Fwup05JZ6kgXEGX'
p460
(dp461
g3
S'Imagine Dragons'
p462
sg5
I1
sg6
S'https://open.spotify.com/track/6jmngk8Fwup05JZ6kgXEGX'
p463
sg8
S'Walking The Wire'
p464
ssS'3l5etN0PooxQ28Ac1pREpX'
p465
(dp466
g3
S'Gulddreng'
p467
sg5
I33
sg6
S'https://open.spotify.com/track/3l5etN0PooxQ28Ac1pREpX'
p468
sg8
S'Utro'
p469
ssS'2uSLx5uwRIhiA3sJJraNqX'
p470
(dp471
g3
S'Maroon 5'
p472
sg5
I1
sg6
S'https://open.spotify.com/track/2uSLx5uwRIhiA3sJJraNqX'
p473
sg8
S'Help Me Out (with Julia Michaels)'
p474
ssS'0ADG9OgdVTL7fgREP75BrZ'
p475
(dp476
g3
S'Zara Larsson'
p477
sg5
I10
sg6
S'https://open.spotify.com/track/0ADG9OgdVTL7fgREP75BrZ'
p478
sg8
S"Ain't My Fault"
p479
ssS'401Xo6kdmYwDZ5l0RDsjC4'
p480
(dp481
g3
S'MORTEN'
p482
sg5
I4
sg6
S'https://open.spotify.com/track/401Xo6kdmYwDZ5l0RDsjC4'
p483
sg8
S'Keep Me From You (feat. ODA)'
p484
ssS'5VL1HYp25p3scIHjHOtXtq'
p485
(dp486
g3
S'Noah Carter'
p487
sg5
I2
sg6
S'https://open.spotify.com/track/5VL1HYp25p3scIHjHOtXtq'
p488
sg8
S'Smoothies'
p489
ssS'38w2W94Z7yIT2LocSIXaP6'
p490
(dp491
g3
S'Kongsted'
p492
sg5
I1
sg6
S'https://open.spotify.com/track/38w2W94Z7yIT2LocSIXaP6'
p493
sg8
S'Gimme Love'
p494
ssS'4hiUYb2nb6NlfTP9CD38Pe'
p495
(dp496
g3
S'Ti\xc3\xabsto'
p497
sg5
I1
sg6
S'https://open.spotify.com/track/4hiUYb2nb6NlfTP9CD38Pe'
p498
sg8
S'On My Way'
p499
ssS'3TRFq09DUgYj1mug6RRqJW'
p500
(dp501
g3
S'Luke Christopher'
p502
sg5
I3
sg6
S'https://open.spotify.com/track/3TRFq09DUgYj1mug6RRqJW'
p503
sg8
S'Lot to Learn'
p504
ssS'6EISAXyeb6OSmtuXi00Mkj'
p505
(dp506
g3
S'Jimilian'
p507
sg5
I5
sg6
S'https://open.spotify.com/track/6EISAXyeb6OSmtuXi00Mkj'
p508
sg8
S'Livet Er For Kort'
p509
ssS'1rIKgCH4H52lrvDcz50hS8'
p510
(dp511
g3
S'Zara Larsson'
p512
sg5
I1
sg6
S'https://open.spotify.com/track/1rIKgCH4H52lrvDcz50hS8'
p513
sg8
S'Lush Life'
p514
ssS'76gUmNLXGQVOsGhfcshkFP'
p515
(dp516
g3
S'Drake'
p517
sg5
I3
sg6
S'https://open.spotify.com/track/76gUmNLXGQVOsGhfcshkFP'
p518
sg8
S'Madiba Riddim'
p519
ssS'0WZ7cUFAWcHdo4uIvQmPi7'
p520
(dp521
g3
S'Phlake'
p522
sg5
I1
sg6
S'https://open.spotify.com/track/0WZ7cUFAWcHdo4uIvQmPi7'
p523
sg8
S'Gone'
p524
ssS'3EfugazgSddQvzZpkof5I4'
p525
(dp526
g3
S'Anne-Marie'
p527
sg5
I1
sg6
S'https://open.spotify.com/track/3EfugazgSddQvzZpkof5I4'
p528
sg8
S'Ciao Adios'
p529
ssS'0xPaZrF25ltzvz1a2Pm5DQ'
p530
(dp531
g3
S'Michael Bubl\xc3\xa9'
p532
sg5
I1
sg6
S'https://open.spotify.com/track/0xPaZrF25ltzvz1a2Pm5DQ'
p533
sg8
S'All I Want For Christmas Is You'
p534
ssS'1bWALH0h2McuG020ndN23w'
p535
(dp536
g3
S'Bro'
p537
sg5
I1
sg6
S'https://open.spotify.com/track/1bWALH0h2McuG020ndN23w'
p538
sg8
S'Har Du Glemt'
p539
ssS'2eiv9dR3AKgFNIH657dyBI'
p540
(dp541
g3
S'Micky Skeel'
p542
sg5
I7
sg6
S'https://open.spotify.com/track/2eiv9dR3AKgFNIH657dyBI'
p543
sg8
S'Camilla'
p544
ssS'7129iqBafaphfc3WPCGC0L'
p545
(dp546
g3
S'Lukas Graham'
p547
sg5
I39
sg6
S'https://open.spotify.com/track/7129iqBafaphfc3WPCGC0L'
p548
sg8
S'7 Years'
p549
ssS'4WjH9Bzt3kx7z8kl0awxh4'
p550
(dp551
g3
S'Major Lazer'
p552
sg5
I5
sg6
S'https://open.spotify.com/track/4WjH9Bzt3kx7z8kl0awxh4'
p553
sg8
S'Lean On (feat. M\xc3\x98 & DJ Snake)'
p554
ssS'0uzDIwBM4LEzKDTDbQDdeG'
p555
(dp556
g3
S'Cisilia'
p557
sg5
I1
sg6
S'https://open.spotify.com/track/0uzDIwBM4LEzKDTDbQDdeG'
p558
sg8
S'Kold December'
p559
ssS'3f9ZD6YFHwAcYxd1iHbNXK'
p560
(dp561
g3
S'Suspekt'
p562
sg5
I1
sg6
S'https://open.spotify.com/track/3f9ZD6YFHwAcYxd1iHbNXK'
p563
sg8
S'Kriminel'
p564
ssS'43jBqV3j3Xi1g6wO0bhIMd'
p565
(dp566
g3
S'Sage The Gemini'
p567
sg5
I11
sg6
S'https://open.spotify.com/track/43jBqV3j3Xi1g6wO0bhIMd'
p568
sg8
S'Now and Later'
p569
ssS'7oolFzHipTMg2nL7shhdz2'
p570
(dp571
g3
S'Ed Sheeran'
p572
sg5
I7
sg6
S'https://open.spotify.com/track/7oolFzHipTMg2nL7shhdz2'
p573
sg8
S'Eraser'
p574
ssS'3B7udSGy2PfgoCniMSb523'
p575
(dp576
g3
S'Ed Sheeran'
p577
sg5
I41
sg6
S'https://open.spotify.com/track/3B7udSGy2PfgoCniMSb523'
p578
sg8
S'I See Fire'
p579
ssS'3NdDpSvN911VPGivFlV5d0'
p580
(dp581
g3
S'ZAYN'
p582
sg5
I42
sg6
S'https://open.spotify.com/track/3NdDpSvN911VPGivFlV5d0'
p583
sg8
S'I Don\xe2\x80\x99t Wanna Live Forever (Fifty Shades Darker) - From Fifty Shades Darker (Original Motion Picture Soundtrack)'
p584
ssS'4ioNqWWd8Ivz4bLfrn3bBN'
p585
(dp586
g3
S'Craig David'
p587
sg5
I3
sg6
S'https://open.spotify.com/track/4ioNqWWd8Ivz4bLfrn3bBN'
p588
sg8
S'Heartline'
p589
ssS'45OfR7ugJMgbFDuNOVpIq3'
p590
(dp591
g3
S'Matoma'
p592
sg5
I4
sg6
S'https://open.spotify.com/track/45OfR7ugJMgbFDuNOVpIq3'
p593
sg8
S'Party On The West Coast (feat. Snoop Dogg)'
p594
ssS'2LnxvXiv7OvLal0bOgXDp8'
p595
(dp596
g3
S'NOAH'
p597
sg5
I7
sg6
S'https://open.spotify.com/track/2LnxvXiv7OvLal0bOgXDp8'
p598
sg8
S'K\xc3\xa6re Mor'
p599
ssS'37F0uwRSrdzkBiuj0D5UHI'
p600
(dp601
g3
S'The Weeknd'
p602
sg5
I5
sg6
S'https://open.spotify.com/track/37F0uwRSrdzkBiuj0D5UHI'
p603
sg8
S'Reminder'
p604
ssS'5tVmntyj8rlJaFNBiUoWSC'
p605
(dp606
g3
S'Skinz'
p607
sg5
I17
sg6
S'https://open.spotify.com/track/5tVmntyj8rlJaFNBiUoWSC'
p608
sg8
S'I Min Zone'
p609
ssS'4ZLkVrZ8sfgSDL0pqk5YkL'
p610
(dp611
g3
S'Albert Dyrlund'
p612
sg5
I18
sg6
S'https://open.spotify.com/track/4ZLkVrZ8sfgSDL0pqk5YkL'
p613
sg8
S'Ulla'
p614
ssS'6Kc6w3BTFqDTGgB2vasbek'
p615
(dp616
g3
S'Scarlet Pleasure'
p617
sg5
I17
sg6
S'https://open.spotify.com/track/6Kc6w3BTFqDTGgB2vasbek'
p618
sg8
S'Limbo'
p619
ssS'0gb1J5UrTpzaU1s3nupgCd'
p620
(dp621
g3
S'Galantis'
p622
sg5
I2
sg6
S'https://open.spotify.com/track/0gb1J5UrTpzaU1s3nupgCd'
p623
sg8
S'No Money'
p624
ssS'1UZOjK1BwmwWU14Erba9CZ'
p625
(dp626
g3
S'Miley Cyrus'
p627
sg5
I2
sg6
S'https://open.spotify.com/track/1UZOjK1BwmwWU14Erba9CZ'
p628
sg8
S'Malibu'
p629
ssS'2eMwDehkIC1j68U6FA3Eiq'
p630
(dp631
g3
S'Lil Uzi Vert'
p632
sg5
I21
sg6
S'https://open.spotify.com/track/2eMwDehkIC1j68U6FA3Eiq'
p633
sg8
S'XO TOUR Llif3'
p634
ssS'7f4zVC7NpraLjXjFx9DNDt'
p635
(dp636
g3
S'Michael Bubl\xc3\xa9'
p637
sg5
I1
sg6
S'https://open.spotify.com/track/7f4zVC7NpraLjXjFx9DNDt'
p638
sg8
S"The More You Give (The More You'll Have)"
p639
ssS'61ti4XQFbT2sCnntlhA0Ks'
p640
(dp641
g3
S'Suspekt'
p642
sg5
I2
sg6
S'https://open.spotify.com/track/61ti4XQFbT2sCnntlhA0Ks'
p643
sg8
S'Ling\xe2\x80\x99s Sang'
p644
ssS'2JvvlqBlCD1NWyWJ8pBsed'
p645
(dp646
g3
S'Christopher'
p647
sg5
I13
sg6
S'https://open.spotify.com/track/2JvvlqBlCD1NWyWJ8pBsed'
p648
sg8
S'Free Fall'
p649
ssS'5v9N8Rx3QsFvr50cxyQcA3'
p650
(dp651
g3
S'Mura Masa'
p652
sg5
I23
sg6
S'https://open.spotify.com/track/5v9N8Rx3QsFvr50cxyQcA3'
p653
sg8
S'Love$ick'
p654
ssS'7Hz6LLOVxrojLPIHJJ1S0E'
p655
(dp656
g3
S'Sam Smith'
p657
sg5
I1
sg6
S'https://open.spotify.com/track/7Hz6LLOVxrojLPIHJJ1S0E'
p658
sg8
S'Have Yourself A Merry Little Christmas'
p659
ssS'3CRDbSIZ4r5MsZ0YwxuEkn'
p660
(dp661
g3
S'Twenty One Pilots'
p662
sg5
I9
sg6
S'https://open.spotify.com/track/3CRDbSIZ4r5MsZ0YwxuEkn'
p663
sg8
S'Stressed Out'
p664
ssS'0WFJgzULh0odcTPkP62eGY'
p665
(dp666
g3
S'Rasmus Seebach'
p667
sg5
I4
sg6
S'https://open.spotify.com/track/0WFJgzULh0odcTPkP62eGY'
p668
sg8
S'2017'
p669
ssS'5q4N9tT4vSmDqdE9eaN7mN'
p670
(dp671
g3
S'Molo'
p672
sg5
I3
sg6
S'https://open.spotify.com/track/5q4N9tT4vSmDqdE9eaN7mN'
p673
sg8
S'Dedikeret'
p674
ssS'6mICuAdrwEjh6Y6lroV2Kg'
p675
(dp676
g3
S'Shakira'
p677
sg5
I14
sg6
S'https://open.spotify.com/track/6mICuAdrwEjh6Y6lroV2Kg'
p678
sg8
S'Chantaje'
p679
ssS'4hQMx3YltMajYJpJ3PLGgn'
p680
(dp681
g3
S'Mia'
p682
sg5
I3
sg6
S'https://open.spotify.com/track/4hQMx3YltMajYJpJ3PLGgn'
p683
sg8
S'Sick'
p684
ssS'6F609ICg9Spjrw1epsAnpa'
p685
(dp686
g3
S'Drake'
p687
sg5
I5
sg6
S'https://open.spotify.com/track/6F609ICg9Spjrw1epsAnpa'
p688
sg8
S'Controlla'
p689
ssS'4pHxNkqJZYRkGlJrzuvN0y'
p690
(dp691
g3
S'Gulddreng'
p692
sg5
I41
sg6
S'https://open.spotify.com/track/4pHxNkqJZYRkGlJrzuvN0y'
p693
sg8
S'Se Mig Nu'
p694
ssS'32DGGj6KlNuBr6WaqRxpxi'
p695
(dp696
g3
S'Charlie Puth'
p697
sg5
I1
sg6
S'https://open.spotify.com/track/32DGGj6KlNuBr6WaqRxpxi'
p698
sg8
S'How Long'
p699
ssS'6tJyacESTHXa6eCdL9pxrZ'
p700
(dp701
g3
S'Carmon'
p702
sg5
I4
sg6
S'https://open.spotify.com/track/6tJyacESTHXa6eCdL9pxrZ'
p703
sg8
S'Tar Det Hele'
p704
ssS'7gHs73wELdeycvS48JfIos'
p705
(dp706
g3
S'Alan Walker'
p707
sg5
I12
sg6
S'https://open.spotify.com/track/7gHs73wELdeycvS48JfIos'
p708
sg8
S'Faded'
p709
ssS'3uMB82o0qa7erhiZBW9KQC'
p710
(dp711
g3
S'Stormzy'
p712
sg5
I3
sg6
S'https://open.spotify.com/track/3uMB82o0qa7erhiZBW9KQC'
p713
sg8
S'Big For Your Boots'
p714
ssS'5OSH98PlarYwozcSR7lY19'
p715
(dp716
g3
S'KESI'
p717
sg5
I24
sg6
S'https://open.spotify.com/track/5OSH98PlarYwozcSR7lY19'
p718
sg8
S'Mamacita'
p719
ssS'6LUOMjoORvAkdhBYvESO46'
p720
(dp721
g3
S'Sia'
p722
sg5
I6
sg6
S'https://open.spotify.com/track/6LUOMjoORvAkdhBYvESO46'
p723
sg8
S'Move Your Body - Alan Walker Remix'
p724
ssS'00lNx0OcTJrS3MKHcB80HY'
p725
(dp726
g3
S'Jax Jones'
p727
sg5
I32
sg6
S'https://open.spotify.com/track/00lNx0OcTJrS3MKHcB80HY'
p728
sg8
S"You Don't Know Me - Radio Edit"
p729
ssS'6a9Yc4mnNameCjDEdfpXSv'
p730
(dp731
g3
S'Marcus & Martinus'
p732
sg5
I1
sg6
S'https://open.spotify.com/track/6a9Yc4mnNameCjDEdfpXSv'
p733
sg8
S'Dance With You'
p734
ssS'2egeaWWaSd5YpmcYKciElR'
p735
(dp736
g3
S'Fie Laursen'
p737
sg5
I2
sg6
S'https://open.spotify.com/track/2egeaWWaSd5YpmcYKciElR'
p738
sg8
S'Top 10'
p739
ssS'6t2ubAB4iSYOuIpRAOGd4t'
p740
(dp741
g3
S'Flo Rida'
p742
sg5
I6
sg6
S'https://open.spotify.com/track/6t2ubAB4iSYOuIpRAOGd4t'
p743
sg8
S'Cake'
p744
ssS'4nDfc6F2uVcc6wdG7kBzWO'
p745
(dp746
g3
S'Nick Jonas'
p747
sg5
I4
sg6
S'https://open.spotify.com/track/4nDfc6F2uVcc6wdG7kBzWO'
p748
sg8
S'Bom Bidi Bom - From Fifty Shades Darker (Original Motion Picture Soundtrack)'
p749
ssS'0fg8CqpjdojMyXLNzM2PaJ'
p750
(dp751
g3
S'Major Lazer'
p752
sg5
I15
sg6
S'https://open.spotify.com/track/0fg8CqpjdojMyXLNzM2PaJ'
p753
sg8
S'Run Up (feat. PARTYNEXTDOOR & Nicki Minaj)'
p754
ssS'6uFsE1JgZ20EXyU0JQZbUR'
p755
(dp756
g3
S'Taylor Swift'
p757
sg5
I7
sg6
S'https://open.spotify.com/track/6uFsE1JgZ20EXyU0JQZbUR'
p758
sg8
S'Look What You Made Me Do'
p759
ssS'0HkwDCJIbWijtfKg63gQBJ'
p760
(dp761
g3
S'M\xc3\xb6we'
p762
sg5
I1
sg6
S'https://open.spotify.com/track/0HkwDCJIbWijtfKg63gQBJ'
p763
sg8
S'Skyline'
p764
ssS'08DaiDmEo4kKeRk2cujLBG'
p765
(dp766
g3
S'Omar'
p767
sg5
I9
sg6
S'https://open.spotify.com/track/08DaiDmEo4kKeRk2cujLBG'
p768
sg8
S'Bar Sig Til'
p769
ssS'5CPqOpKSk0QcJ3dGdaWcRB'
p770
(dp771
g3
S'The xx'
p772
sg5
I1
sg6
S'https://open.spotify.com/track/5CPqOpKSk0QcJ3dGdaWcRB'
p773
sg8
S'On Hold'
p774
ssS'0RuOWMTZNK6qOjyQhPUaG1'
p775
(dp776
g3
S'Blak'
p777
sg5
I38
sg6
S'https://open.spotify.com/track/0RuOWMTZNK6qOjyQhPUaG1'
p778
sg8
S'Slem Igen - Hedegaard Remix'
p779
ssS'7GX5flRQZVHRAGd6B4TmDO'
p780
(dp781
g3
S'Lil Uzi Vert'
p782
sg5
I7
sg6
S'https://open.spotify.com/track/7GX5flRQZVHRAGd6B4TmDO'
p783
sg8
S'XO TOUR Llif3'
p784
ssS'3Ypl8PEnhoFjQHUKyNcGv8'
p785
(dp786
g3
S'Sivas'
p787
sg5
I16
sg6
S'https://open.spotify.com/track/3Ypl8PEnhoFjQHUKyNcGv8'
p788
sg8
S'Vejen'
p789
ssS'4F7A0DXBrmUAkp32uenhZt'
p790
(dp791
g3
S'The Weeknd'
p792
sg5
I12
sg6
S'https://open.spotify.com/track/4F7A0DXBrmUAkp32uenhZt'
p793
sg8
S'Party Monster'
p794
ssS'5kRPPEWFJIMox5qIkQkiz5'
p795
(dp796
g3
S'Harry Styles'
p797
sg5
I6
sg6
S'https://open.spotify.com/track/5kRPPEWFJIMox5qIkQkiz5'
p798
sg8
S'Sweet Creature'
p799
ssS'70rYp3dhUBTz9Da3OgmlA1'
p800
(dp801
g3
S'Mr. Probz'
p802
sg5
I6
sg6
S'https://open.spotify.com/track/70rYp3dhUBTz9Da3OgmlA1'
p803
sg8
S"Till You're Loved"
p804
ssS'1PkjHpAfaGxZBRfTrYkjbs'
p805
(dp806
g3
S'Era Istrefi'
p807
sg5
I1
sg6
S'https://open.spotify.com/track/1PkjHpAfaGxZBRfTrYkjbs'
p808
sg8
S'Redrum'
p809
ssS'09aaq7feVx9Jykdw0f00QU'
p810
(dp811
g3
S'Phlake'
p812
sg5
I16
sg6
S'https://open.spotify.com/track/09aaq7feVx9Jykdw0f00QU'
p813
sg8
S'Ouch'
p814
ssS'6PJ8FF6UR8FZXfEvpHkIVN'
p815
(dp816
g3
S'Ed Sheeran'
p817
sg5
I11
sg6
S'https://open.spotify.com/track/6PJ8FF6UR8FZXfEvpHkIVN'
p818
sg8
S'How Would You Feel (Paean)'
p819
ssS'61iyAeMVUNu7vIVqedsBFB'
p820
(dp821
g3
S'Ella Eyre'
p822
sg5
I29
sg6
S'https://open.spotify.com/track/61iyAeMVUNu7vIVqedsBFB'
p823
sg8
S"We Don't Have To Take Our Clothes Off"
p824
ssS'4nMlau89VAjmV7agkl7OY3'
p825
(dp826
g3
S'Andy Grammer'
p827
sg5
I13
sg6
S'https://open.spotify.com/track/4nMlau89VAjmV7agkl7OY3'
p828
sg8
S'Fresh Eyes'
p829
ssS'32Psx3vgE9kHZEXsnMuKRi'
p830
(dp831
g3
S'Suspekt'
p832
sg5
I1
sg6
S'https://open.spotify.com/track/32Psx3vgE9kHZEXsnMuKRi'
p833
sg8
S'Langt V\xc3\xa6k Fra Vestegnen'
p834
ssS'3T6BCgeXvB26GokGYOBFY9'
p835
(dp836
g3
S'HEDEGAARD'
p837
sg5
I3
sg6
S'https://open.spotify.com/track/3T6BCgeXvB26GokGYOBFY9'
p838
sg8
S'Go Back'
p839
ssS'7zHAa2ADauy4i1YubAKffk'
p840
(dp841
g3
S'NODE'
p842
sg5
I14
sg6
S'https://open.spotify.com/track/7zHAa2ADauy4i1YubAKffk'
p843
sg8
S'Al Fuego'
p844
ssS'7LSpHN7E9EKZo2YovzqOAV'
p845
(dp846
g3
S'KESI'
p847
sg5
I7
sg6
S'https://open.spotify.com/track/7LSpHN7E9EKZo2YovzqOAV'
p848
sg8
S'F\xc3\xb8lelsen'
p849
ssS'75ZvA4QfFiZvzhj2xkaWAh'
p850
(dp851
g3
S'Post Malone'
p852
sg5
I2
sg6
S'https://open.spotify.com/track/75ZvA4QfFiZvzhj2xkaWAh'
p853
sg8
S'I Fall Apart'
p854
ssS'7BKLCZ1jbUBVqRi2FVlTVw'
p855
(dp856
g3
S'The Chainsmokers'
p857
sg5
I34
sg6
S'https://open.spotify.com/track/7BKLCZ1jbUBVqRi2FVlTVw'
p858
sg8
S'Closer'
p859
ssS'1OZWyPMwub90x2V6TzRIsz'
p860
(dp861
g3
S'Jimilian'
p862
sg5
I25
sg6
S'https://open.spotify.com/track/1OZWyPMwub90x2V6TzRIsz'
p863
sg8
S'Cockblock'
p864
ssS'7hDc8b7IXETo14hHIHdnhd'
p865
(dp866
g3
S'Drake'
p867
sg5
I30
sg6
S'https://open.spotify.com/track/7hDc8b7IXETo14hHIHdnhd'
p868
sg8
S'Passionfruit'
p869
ssS'0tICYNayWWhH9GPeFrfjfD'
p870
(dp871
g3
S'Kungs'
p872
sg5
I1
sg6
S'https://open.spotify.com/track/0tICYNayWWhH9GPeFrfjfD'
p873
sg8
S"This Girl (Kungs Vs. Cookin' On 3 Burners) - Kungs Vs. Cookin' On 3 Burners"
p874
ssS'4gFAq3Y8XhDwtXE72buJsX'
p875
(dp876
g3
S'Jesu Br\xc3\xb8dre'
p877
sg5
I5
sg6
S'https://open.spotify.com/track/4gFAq3Y8XhDwtXE72buJsX'
p878
sg8
S'SPK'
p879
ssS'2LTlO3NuNVN70lp2ZbVswF'
p880
(dp881
g3
S'Kendrick Lamar'
p882
sg5
I2
sg6
S'https://open.spotify.com/track/2LTlO3NuNVN70lp2ZbVswF'
p883
sg8
S'FEEL.'
p884
ssS'5ULRlgiSPSKTaJN1vU9yso'
p885
(dp886
g3
S'Ed Sheeran'
p887
sg5
I2
sg6
S'https://open.spotify.com/track/5ULRlgiSPSKTaJN1vU9yso'
p888
sg8
S'Shape of You - Acoustic'
p889
ssS'74xHDuYJHRvuc7Qns7WSPc'
p890
(dp891
g3
S'Andy Grammer'
p892
sg5
I2
sg6
S'https://open.spotify.com/track/74xHDuYJHRvuc7Qns7WSPc'
p893
sg8
S'Fresh Eyes - Ryan Riback Remix'
p894
ssS'5muBEmdXfpYq8a1VPrNGaK'
p895
(dp896
g3
S'Alphabeat'
p897
sg5
I1
sg6
S'https://open.spotify.com/track/5muBEmdXfpYq8a1VPrNGaK'
p898
sg8
S"X-Mas (Let's Do It Again)"
p899
ssS'0wLNTRg5WPJKxoPbIxPfHl'
p900
(dp901
g3
S'Sleiman'
p902
sg5
I22
sg6
S'https://open.spotify.com/track/0wLNTRg5WPJKxoPbIxPfHl'
p903
sg8
S'Bomaye'
p904
ssS'0XLOf9LhyazPX9Ld8jPiUq'
p905
(dp906
g3
S'Selena Gomez'
p907
sg5
I11
sg6
S'https://open.spotify.com/track/0XLOf9LhyazPX9Ld8jPiUq'
p908
sg8
S'Fetish (feat. Gucci Mane)'
p909
ssS'6tFaynGBZSOJ2jX3i1v6Jk'
p910
(dp911
g3
S'BasedBoys'
p912
sg5
I24
sg6
S'https://open.spotify.com/track/6tFaynGBZSOJ2jX3i1v6Jk'
p913
sg8
S"Det' S\xc3\xa5 Sv\xc3\xa6rt"
p914
ssS'1yxgsra98r3qAtxqiGZPiX'
p915
(dp916
g3
S'Travis Scott'
p917
sg5
I20
sg6
S'https://open.spotify.com/track/1yxgsra98r3qAtxqiGZPiX'
p918
sg8
S'Butterfly Effect'
p919
ssS'2yZax79pOrYuyIFVW2cZY2'
p920
(dp921
g3
S'XXXTENTACION'
p922
sg5
I2
sg6
S'https://open.spotify.com/track/2yZax79pOrYuyIFVW2cZY2'
p923
sg8
S'Carry On'
p924
ssS'2xZgxgWoy06VPVdB2aZJYQ'
p925
(dp926
g3
S'Guldpige'
p927
sg5
I2
sg6
S'https://open.spotify.com/track/2xZgxgWoy06VPVdB2aZJYQ'
p928
sg8
S'Chiller'
p929
ssS'4WrS6vezaPwOafKJmHqMEU'
p930
(dp931
g3
S'Jax Jones'
p932
sg5
I1
sg6
S'https://open.spotify.com/track/4WrS6vezaPwOafKJmHqMEU'
p933
sg8
S"You Don't Know Me - Radio Edit"
p934
ssS'5esXzokC48CYh78iUHJfSc'
p935
(dp936
g3
S'Hjalmer'
p937
sg5
I1
sg6
S'https://open.spotify.com/track/5esXzokC48CYh78iUHJfSc'
p938
sg8
S'Smukkeste Problem'
p939
ssS'0yJv0G7r1PZIl1CY5XhvkR'
p940
(dp941
g3
S'Nathan Goshen'
p942
sg5
I15
sg6
S'https://open.spotify.com/track/0yJv0G7r1PZIl1CY5XhvkR'
p943
sg8
S'Thinking About It (Let It Go) - KVR Remix'
p944
ssS'3nodtPfXcok53E8Uze8gvD'
p945
(dp946
g3
S'Snakehips'
p947
sg5
I1
sg6
S'https://open.spotify.com/track/3nodtPfXcok53E8Uze8gvD'
p948
sg8
S'Either Way'
p949
ssS'7HbMB7Ul0UBK7M8G5I9A0y'
p950
(dp951
g3
S'Ude Af Kontrol'
p952
sg5
I42
sg6
S'https://open.spotify.com/track/7HbMB7Ul0UBK7M8G5I9A0y'
p953
sg8
S'FuckBoi'
p954
ssS'2OALaHcDdKkjYEpAr0Qzab'
p955
(dp956
g3
S'Avicii'
p957
sg5
I9
sg6
S'https://open.spotify.com/track/2OALaHcDdKkjYEpAr0Qzab'
p958
sg8
S'Lonely Together (feat. Rita Ora)'
p959
ssS'7j4sUNVVbPZ6mV4YwP9Yuu'
p960
(dp961
g3
S'Rasmus Seebach'
p962
sg5
I1
sg6
S'https://open.spotify.com/track/7j4sUNVVbPZ6mV4YwP9Yuu'
p963
sg8
S'\xc3\x98de \xc3\x98'
p964
ssS'56lBX2WHqfGuoeZxZvUnVj'
p965
(dp966
g3
S'Imagine Dragons'
p967
sg5
I3
sg6
S'https://open.spotify.com/track/56lBX2WHqfGuoeZxZvUnVj'
p968
sg8
S'Thunder'
p969
ssS'0XfOi87h82i09rQjWYG0Bm'
p970
(dp971
g3
S'Jax Jones'
p972
sg5
I5
sg6
S'https://open.spotify.com/track/0XfOi87h82i09rQjWYG0Bm'
p973
sg8
S'Instruction (feat. Demi Lovato & Stefflon Don)'
p974
ssS'28irpKCCK9nn9DZSik2zEx'
p975
(dp976
g3
S'Drake'
p977
sg5
I2
sg6
S'https://open.spotify.com/track/28irpKCCK9nn9DZSik2zEx'
p978
sg8
S'Glow'
p979
ssS'5JUu0unA8VwhTZ9LkMWUVI'
p980
(dp981
g3
S'Drake'
p982
sg5
I1
sg6
S'https://open.spotify.com/track/5JUu0unA8VwhTZ9LkMWUVI'
p983
sg8
S'Since Way Back'
p984
ssS'4IWAyPf1KMq7JCyGeCjTeH'
p985
(dp986
g3
S'Imagine Dragons'
p987
sg5
I1
sg6
S'https://open.spotify.com/track/4IWAyPf1KMq7JCyGeCjTeH'
p988
sg8
S'Whatever It Takes'
p989
ssS'46P2kfhXGdwp3OJvl3INXu'
p990
(dp991
g3
S'Still Fresh'
p992
sg5
I4
sg6
S'https://open.spotify.com/track/46P2kfhXGdwp3OJvl3INXu'
p993
sg8
S'Mon ami'
p994
ssS'1EeJ9fyxm3HU6SEGmx2rd2'
p995
(dp996
g3
S'Noah Carter'
p997
sg5
I3
sg6
S'https://open.spotify.com/track/1EeJ9fyxm3HU6SEGmx2rd2'
p998
sg8
S'No Favors / 5000'
p999
ssS'4LTUBsLeIn8qcopkFwhwK9'
p1000
(dp1001
g3
S'Drengene Fra Angora'
p1002
sg5
I1
sg6
S'https://open.spotify.com/track/4LTUBsLeIn8qcopkFwhwK9'
p1003
sg8
S'Jul i Angora'
p1004
ssS'1SqnBI3z3vM648PkfhPU1c'
p1005
(dp1006
g3
S'Kongsted'
p1007
sg5
I1
sg6
S'https://open.spotify.com/track/1SqnBI3z3vM648PkfhPU1c'
p1008
sg8
S'Tik Tok'
p1009
ssS'7fwXWKdDNI5IutOMc5OKYw'
p1010
(dp1011
g3
S'J Balvin'
p1012
sg5
I2
sg6
S'https://open.spotify.com/track/7fwXWKdDNI5IutOMc5OKYw'
p1013
sg8
S'Mi Gente (feat. Beyonc\xc3\xa9)'
p1014
ssS'17neFk9NqxqYtMt7VdtTlp'
p1015
(dp1016
g3
S'Carmon'
p1017
sg5
I8
sg6
S'https://open.spotify.com/track/17neFk9NqxqYtMt7VdtTlp'
p1018
sg8
S'Plat Eller Krone'
p1019
ssS'0WCEaydwN65cvwaW8aqptF'
p1020
(dp1021
g3
S'Olivia Holt'
p1022
sg5
I11
sg6
S'https://open.spotify.com/track/0WCEaydwN65cvwaW8aqptF'
p1023
sg8
S'History'
p1024
ssS'5knZBJiKXYS7eKj7YrtAV7'
p1025
(dp1026
g3
S'Kongsted'
p1027
sg5
I9
sg6
S'https://open.spotify.com/track/5knZBJiKXYS7eKj7YrtAV7'
p1028
sg8
S'Say My Name'
p1029
ssS'3A7qX2QjDlPnazUsRk5y0M'
p1030
(dp1031
g3
S'David Guetta'
p1032
sg5
I17
sg6
S'https://open.spotify.com/track/3A7qX2QjDlPnazUsRk5y0M'
p1033
sg8
S'2U (feat. Justin Bieber)'
p1034
ssS'2rZ4bA8rH9ym9IC4gYsRRD'
p1035
(dp1036
g3
S'Fouli'
p1037
sg5
I6
sg6
S'https://open.spotify.com/track/2rZ4bA8rH9ym9IC4gYsRRD'
p1038
sg8
S'De Ved Godt'
p1039
ssS'2bjwRfXMk4uRgOD9IBYl9h'
p1040
(dp1041
g3
S'Drake'
p1042
sg5
I9
sg6
S'https://open.spotify.com/track/2bjwRfXMk4uRgOD9IBYl9h'
p1043
sg8
S'Portland'
p1044
ssS'0FuTx2s3YH1ppmtiM6l0zI'
p1045
(dp1046
g3
S'JP Cooper'
p1047
sg5
I39
sg6
S'https://open.spotify.com/track/0FuTx2s3YH1ppmtiM6l0zI'
p1048
sg8
S'September Song'
p1049
ssS'0Zbbxnx4SGGHoIow4PpISP'
p1050
(dp1051
g3
S'Kygo'
p1052
sg5
I3
sg6
S'https://open.spotify.com/track/0Zbbxnx4SGGHoIow4PpISP'
p1053
sg8
S'Stargazing'
p1054
ssS'1OmcAT5Y8eg5bUPv9qJT4R'
p1055
(dp1056
g3
S'Post Malone'
p1057
sg5
I3
sg6
S'https://open.spotify.com/track/1OmcAT5Y8eg5bUPv9qJT4R'
p1058
sg8
S'rockstar'
p1059
ssS'5GFDrUTLGJix84sNhjCG0g'
p1060
(dp1061
g3
S'Amin\xc3\xa9'
p1062
sg5
I4
sg6
S'https://open.spotify.com/track/5GFDrUTLGJix84sNhjCG0g'
p1063
sg8
S'Caroline'
p1064
ssS'24CtQgpeZMyOw0ZVUuuTNU'
p1065
(dp1066
g3
S'Zara Larsson'
p1067
sg5
I1
sg6
S'https://open.spotify.com/track/24CtQgpeZMyOw0ZVUuuTNU'
p1068
sg8
S'I Would Like - Gorgon City Remix'
p1069
ssS'0azC730Exh71aQlOt9Zj3y'
p1070
(dp1071
g3
S'Calvin Harris'
p1072
sg5
I7
sg6
S'https://open.spotify.com/track/0azC730Exh71aQlOt9Zj3y'
p1073
sg8
S'This Is What You Came For'
p1074
ssS'2jyjhRf6DVbMPU5zxagN2h'
p1075
(dp1076
g3
S'Passenger'
p1077
sg5
I39
sg6
S'https://open.spotify.com/track/2jyjhRf6DVbMPU5zxagN2h'
p1078
sg8
S'Let Her Go'
p1079
ssS'7i2DJ88J7jQ8K7zqFX2fW8'
p1080
(dp1081
g3
S'Halsey'
p1082
sg5
I9
sg6
S'https://open.spotify.com/track/7i2DJ88J7jQ8K7zqFX2fW8'
p1083
sg8
S'Now Or Never'
p1084
ssS'0txbg4oBJi8SwvQ3SFYNlc'
p1085
(dp1086
g3
S'Gulddreng'
p1087
sg5
I7
sg6
S'https://open.spotify.com/track/0txbg4oBJi8SwvQ3SFYNlc'
p1088
sg8
S'Lyvesangen'
p1089
ssS'1fCUkXJijtAGv7XCbk3X2R'
p1090
(dp1091
g3
S'Gulddreng'
p1092
sg5
I17
sg6
S'https://open.spotify.com/track/1fCUkXJijtAGv7XCbk3X2R'
p1093
sg8
S'Censor'
p1094
ssS'5sNESr6pQfIhL3krM8CtZn'
p1095
(dp1096
g3
S'JAY Z'
p1097
sg5
I1
sg6
S'https://open.spotify.com/track/5sNESr6pQfIhL3krM8CtZn'
p1098
sg8
S'Numb / Encore'
p1099
ssS'4mpF85WbMQXxo9RKObQsv8'
p1100
(dp1101
g3
S'Jimilian'
p1102
sg5
I32
sg6
S'https://open.spotify.com/track/4mpF85WbMQXxo9RKObQsv8'
p1103
sg8
S'Giv Mig Noget'
p1104
ssS'68EMU2RD1ECNeOeJ5qAXCV'
p1105
(dp1106
g3
S'Charlie Puth'
p1107
sg5
I21
sg6
S'https://open.spotify.com/track/68EMU2RD1ECNeOeJ5qAXCV'
p1108
sg8
S"We Don't Talk Anymore (feat. Selena Gomez)"
p1109
ssS'1GiK2mPPsfsqPpV19LnlfF'
p1110
(dp1111
g3
S'Rasmus Bjerg'
p1112
sg5
I1
sg6
S'https://open.spotify.com/track/1GiK2mPPsfsqPpV19LnlfF'
p1113
sg8
S'En Rigtig Drengejul'
p1114
ssS'0Clb9aiXWa0dvVff5aN4VN'
p1115
(dp1116
g3
S'Astrid S'
p1117
sg5
I7
sg6
S'https://open.spotify.com/track/0Clb9aiXWa0dvVff5aN4VN'
p1118
sg8
S'Think Before I Talk'
p1119
ssS'7bJ4mu7MHa3rHiNyKjOoSl'
p1120
(dp1121
g3
S'Drake'
p1122
sg5
I1
sg6
S'https://open.spotify.com/track/7bJ4mu7MHa3rHiNyKjOoSl'
p1123
sg8
S'Ice Melts'
p1124
ssS'2dqLk7ezV15LEJEwUmEbXB'
p1125
(dp1126
g3
S'Marian Hill'
p1127
sg5
I6
sg6
S'https://open.spotify.com/track/2dqLk7ezV15LEJEwUmEbXB'
p1128
sg8
S'Down'
p1129
ssS'3E0fq2gqsNbQo5paAuEcmc'
p1130
(dp1131
g3
S'Maria Mena'
p1132
sg5
I1
sg6
S'https://open.spotify.com/track/3E0fq2gqsNbQo5paAuEcmc'
p1133
sg8
S'Home for Christmas'
p1134
ssS'6nCNkAMUW0zmJfcN0dbx92'
p1135
(dp1136
g3
S'Jesu Br\xc3\xb8dre'
p1137
sg5
I22
sg6
S'https://open.spotify.com/track/6nCNkAMUW0zmJfcN0dbx92'
p1138
sg8
S'KranAlarm'
p1139
ssS'6vSwxzO2Qf4BinHSXRwZJe'
p1140
(dp1141
g3
S'Ed Sheeran'
p1142
sg5
I6
sg6
S'https://open.spotify.com/track/6vSwxzO2Qf4BinHSXRwZJe'
p1143
sg8
S'Tenerife Sea'
p1144
ssS'5XiZK7m9PLppgIzJBpw2x5'
p1145
(dp1146
g3
S'Martin Jensen'
p1147
sg5
I4
sg6
S'https://open.spotify.com/track/5XiZK7m9PLppgIzJBpw2x5'
p1148
sg8
S'Wait'
p1149
ssS'1cImYkHOQMFE7AZC9aOk4y'
p1150
(dp1151
g3
S'Bobby Helms'
p1152
sg5
I1
sg6
S'https://open.spotify.com/track/1cImYkHOQMFE7AZC9aOk4y'
p1153
sg8
S'Jingle Bell Rock'
p1154
ssS'2q6tgiA9tpb6DMguABwCWE'
p1155
(dp1156
g3
S'John Legend'
p1157
sg5
I2
sg6
S'https://open.spotify.com/track/2q6tgiA9tpb6DMguABwCWE'
p1158
sg8
S'All of Me'
p1159
ssS'4VuS959DSpr82t3qBqCrWG'
p1160
(dp1161
g3
S'Ed Sheeran'
p1162
sg5
I11
sg6
S'https://open.spotify.com/track/4VuS959DSpr82t3qBqCrWG'
p1163
sg8
S'Supermarket Flowers'
p1164
ssS'2Za1AlJNvksouPPWbXpR2X'
p1165
(dp1166
g3
S'Macklemore'
p1167
sg5
I2
sg6
S'https://open.spotify.com/track/2Za1AlJNvksouPPWbXpR2X'
p1168
sg8
S'Good Old Days (feat. Kesha)'
p1169
ssS'0kCPSftkLQW4TOkVRIx1Er'
p1170
(dp1171
g3
S'Rasmus Seebach'
p1172
sg5
I1
sg6
S'https://open.spotify.com/track/0kCPSftkLQW4TOkVRIx1Er'
p1173
sg8
S"Der' noget i december - Bonus Track"
p1174
ssS'6Ue3KRTpzVAdRbzzHFHXaN'
p1175
(dp1176
g3
S'Carmon'
p1177
sg5
I12
sg6
S'https://open.spotify.com/track/6Ue3KRTpzVAdRbzzHFHXaN'
p1178
sg8
S'Hun Er Varm'
p1179
ssS'5WQ8ISlwGUrkdtxTbajDJ1'
p1180
(dp1181
g3
S'Citybois'
p1182
sg5
I20
sg6
S'https://open.spotify.com/track/5WQ8ISlwGUrkdtxTbajDJ1'
p1183
sg8
S'Pool'
p1184
ssS'0T8dNUoyjJHM2zDgIPK83L'
p1185
(dp1186
g3
S'Phlake'
p1187
sg5
I36
sg6
S'https://open.spotify.com/track/0T8dNUoyjJHM2zDgIPK83L'
p1188
sg8
S'Pregnant'
p1189
ssS'4EpHxjNDcMwSkV9xoJjF47'
p1190
(dp1191
g3
S'Pretty'
p1192
sg5
I5
sg6
S'https://open.spotify.com/track/4EpHxjNDcMwSkV9xoJjF47'
p1193
sg8
S'Habibti'
p1194
ssS'1crSsvtU9wZB15dIQXV2QH'
p1195
(dp1196
g3
S'John Mayer'
p1197
sg5
I2
sg6
S'https://open.spotify.com/track/1crSsvtU9wZB15dIQXV2QH'
p1198
sg8
S'Moving On and Getting Over'
p1199
ssS'0oiCeOPwm4zhwfyIpAE37y'
p1200
(dp1201
g3
S'John Mayer'
p1202
sg5
I2
sg6
S'https://open.spotify.com/track/0oiCeOPwm4zhwfyIpAE37y'
p1203
sg8
S'Love on the Weekend'
p1204
ssS'7pyY1w02QUPj8zUYrRE6iY'
p1205
(dp1206
g3
S'Page Four'
p1207
sg5
I11
sg6
S'https://open.spotify.com/track/7pyY1w02QUPj8zUYrRE6iY'
p1208
sg8
S'Flyve'
p1209
ssS'3lFCbvyrJ7soEgTjIkELMT'
p1210
(dp1211
g3
S'Phlake'
p1212
sg5
I1
sg6
S'https://open.spotify.com/track/3lFCbvyrJ7soEgTjIkELMT'
p1213
sg8
S'Chunks'
p1214
ssS'3ujvqhYl9JWmT7ey4dHW3t'
p1215
(dp1216
g3
S'Edward'
p1217
sg5
I1
sg6
S'https://open.spotify.com/track/3ujvqhYl9JWmT7ey4dHW3t'
p1218
sg8
S'Dans Med Mig'
p1219
ssS'6hd60vdBch6Nm3MCX4UYk8'
p1220
(dp1221
g3
S'Page Four'
p1222
sg5
I13
sg6
S'https://open.spotify.com/track/6hd60vdBch6Nm3MCX4UYk8'
p1223
sg8
S'Bedre End Din Eks'
p1224
ssS'6BnxNdOgaQjW57K8zgR71O'
p1225
(dp1226
g3
S'NOAH'
p1227
sg5
I1
sg6
S'https://open.spotify.com/track/6BnxNdOgaQjW57K8zgR71O'
p1228
sg8
S'Vend Dig Om'
p1229
ssS'6n3HGiq4v35D6eFOSwqYuo'
p1230
(dp1231
g3
S'Drake'
p1232
sg5
I3
sg6
S'https://open.spotify.com/track/6n3HGiq4v35D6eFOSwqYuo'
p1233
sg8
S'Teenage Fever'
p1234
ssS'40aofJhHmg4g8SRjecHmwA'
p1235
(dp1236
g3
S'Phlake'
p1237
sg5
I1
sg6
S'https://open.spotify.com/track/40aofJhHmg4g8SRjecHmwA'
p1238
sg8
S'Gazette'
p1239
ssS'2ntx71h6E1MPYvorPdMA38'
p1240
(dp1241
g3
S'Kongsted'
p1242
sg5
I1
sg6
S'https://open.spotify.com/track/2ntx71h6E1MPYvorPdMA38'
p1243
sg8
S'Wild Child'
p1244
ssS'0YHUITU3w6ws1v8ehT264g'
p1245
(dp1246
g3
S'Little Mix'
p1247
sg5
I7
sg6
S'https://open.spotify.com/track/0YHUITU3w6ws1v8ehT264g'
p1248
sg8
S'Shout Out to My Ex'
p1249
ssS'5yuShbu70mtHXY0yLzCQLQ'
p1250
(dp1251
g3
S'Post Malone'
p1252
sg5
I10
sg6
S'https://open.spotify.com/track/5yuShbu70mtHXY0yLzCQLQ'
p1253
sg8
S'Go Flex'
p1254
ssS'2rt7ngjBKXKufIVz2xmVMd'
p1255
(dp1256
g3
S'Gulddreng'
p1257
sg5
I31
sg6
S'https://open.spotify.com/track/2rt7ngjBKXKufIVz2xmVMd'
p1258
sg8
S'Ked Af Det'
p1259
ssS'20zLJyJPkRodJ4EG9SRnsK'
p1260
(dp1261
g3
S'Bro'
p1262
sg5
I12
sg6
S'https://open.spotify.com/track/20zLJyJPkRodJ4EG9SRnsK'
p1263
sg8
S'Er Nettet Nede?'
p1264
ssS'0e3y2auTf9hpAMlK9l9BWm'
p1265
(dp1266
g3
S'Chili'
p1267
sg5
I1
sg6
S'https://open.spotify.com/track/0e3y2auTf9hpAMlK9l9BWm'
p1268
sg8
S'Plated Gold'
p1269
ssS'3x6zhlUSsVMglqGWa5KNyS'
p1270
(dp1271
g3
S'ZK'
p1272
sg5
I19
sg6
S'https://open.spotify.com/track/3x6zhlUSsVMglqGWa5KNyS'
p1273
sg8
S'Solskin'
p1274
ssS'1fYNJKlLilEEBAKWDKD2vC'
p1275
(dp1276
g3
S'Ukendt Kunstner'
p1277
sg5
I12
sg6
S'https://open.spotify.com/track/1fYNJKlLilEEBAKWDKD2vC'
p1278
sg8
S'Neonlys'
p1279
ssS'2XlHu0HcujBCkWMdIAvrqt'
p1280
(dp1281
g3
S'Drake'
p1282
sg5
I6
sg6
S'https://open.spotify.com/track/2XlHu0HcujBCkWMdIAvrqt'
p1283
sg8
S'Blem'
p1284
ssS'0hO1TYpui6CDdrNb7IFJi0'
p1285
(dp1286
g3
S'Sleiman'
p1287
sg5
I2
sg6
S'https://open.spotify.com/track/0hO1TYpui6CDdrNb7IFJi0'
p1288
sg8
S'For Evigt Ung'
p1289
ssS'5f5r2N4Lp9WoULWPH9zp2W'
p1290
(dp1291
g3
S'Drake'
p1292
sg5
I1
sg6
S'https://open.spotify.com/track/5f5r2N4Lp9WoULWPH9zp2W'
p1293
sg8
S"Can't Have Everything"
p1294
ssS'1UUj1iScVn6wOXiBSyBhLn'
p1295
(dp1296
g3
S'Gilli'
p1297
sg5
I22
sg6
S'https://open.spotify.com/track/1UUj1iScVn6wOXiBSyBhLn'
p1298
sg8
S'Habibi Aiwa'
p1299
ssS'3iwZ8hg0q1kTBB5kjg0nO4'
p1300
(dp1301
g3
S'Slade'
p1302
sg5
I1
sg6
S'https://open.spotify.com/track/3iwZ8hg0q1kTBB5kjg0nO4'
p1303
sg8
S'Merry Xmas Everybody'
p1304
ssS'6vdALpNCw1AYYvFMQLmYpU'
p1305
(dp1306
g3
S'Molo'
p1307
sg5
I16
sg6
S'https://open.spotify.com/track/6vdALpNCw1AYYvFMQLmYpU'
p1308
sg8
S'Udenfor'
p1309
ssS'3up1uPuvL5vkfJ6aOeSRtD'
p1310
(dp1311
g3
S'Ma\xc3\xaetre Gims'
p1312
sg5
I5
sg6
S'https://open.spotify.com/track/3up1uPuvL5vkfJ6aOeSRtD'
p1313
sg8
S'Loin - Pilule Violette'
p1314
ssS'3hRZsdTF5uyGA2uhNqEuhm'
p1315
(dp1316
g3
S'Niall Horan'
p1317
sg5
I4
sg6
S'https://open.spotify.com/track/3hRZsdTF5uyGA2uhNqEuhm'
p1318
sg8
S'Too Much To Ask'
p1319
ssS'6hJRDlsnRK5o53tbhNC9VU'
p1320
(dp1321
g3
S'NODE'
p1322
sg5
I42
sg6
S'https://open.spotify.com/track/6hJRDlsnRK5o53tbhNC9VU'
p1323
sg8
S'Pakker Bar'
p1324
ssS'5hYTyyh2odQKphUbMqc5gN'
p1325
(dp1326
g3
S'Alessia Cara'
p1327
sg5
I37
sg6
S'https://open.spotify.com/track/5hYTyyh2odQKphUbMqc5gN'
p1328
sg8
S"How Far I'll Go - From Moana"
p1329
ssS'1sBhJGPUKrdRycgKxve70v'
p1330
(dp1331
g3
S'Felix Jaehn'
p1332
sg5
I9
sg6
S'https://open.spotify.com/track/1sBhJGPUKrdRycgKxve70v'
p1333
sg8
S'Hot2Touch'
p1334
ssS'72jbDTw1piOOj770jWNeaG'
p1335
(dp1336
g3
S'The Chainsmokers'
p1337
sg5
I35
sg6
S'https://open.spotify.com/track/72jbDTw1piOOj770jWNeaG'
p1338
sg8
S'Paris'
p1339
ssS'2Ce5IyMlVRVvN997ZJjJJA'
p1340
(dp1341
g3
S'Future'
p1342
sg5
I15
sg6
S'https://open.spotify.com/track/2Ce5IyMlVRVvN997ZJjJJA'
p1343
sg8
S'Selfish'
p1344
ssS'4MV2H0Jeh08sv5L5IU7fGn'
p1345
(dp1346
g3
S'Scarlet Pleasure'
p1347
sg5
I28
sg6
S'https://open.spotify.com/track/4MV2H0Jeh08sv5L5IU7fGn'
p1348
sg8
S'Deja Vu'
p1349
ssS'4wIiGnhinrOa2MMoWV7Bbf'
p1350
(dp1351
g3
S'Ude Af Kontrol'
p1352
sg5
I6
sg6
S'https://open.spotify.com/track/4wIiGnhinrOa2MMoWV7Bbf'
p1353
sg8
S'L\xc3\xa6kker Krop Grimt Fj\xc3\xa6s'
p1354
ssS'1y1YFAf9maXPz5IVI50mEh'
p1355
(dp1356
g3
S'PAY'
p1357
sg5
I9
sg6
S'https://open.spotify.com/track/1y1YFAf9maXPz5IVI50mEh'
p1358
sg8
S'Lay Lay'
p1359
ssS'1Wf3CJgTsabbJeqfJ8TTTJ'
p1360
(dp1361
g3
S'ICEKIID'
p1362
sg5
I5
sg6
S'https://open.spotify.com/track/1Wf3CJgTsabbJeqfJ8TTTJ'
p1363
sg8
S'Mansa Musa'
p1364
ssS'6uGjN966pQMwlpS3D3iv8n'
p1365
(dp1366
g3
S'Gilli'
p1367
sg5
I10
sg6
S'https://open.spotify.com/track/6uGjN966pQMwlpS3D3iv8n'
p1368
sg8
S'Adios'
p1369
ssS'1Qcl5gqjdO266n3zToBXOs'
p1370
(dp1371
g3
S'Mads Langer'
p1372
sg5
I2
sg6
S'https://open.spotify.com/track/1Qcl5gqjdO266n3zToBXOs'
p1373
sg8
S'Unusual'
p1374
ssS'1P6tXS8VZkZV8rOw51PA67'
p1375
(dp1376
g3
S'NOAH'
p1377
sg5
I1
sg6
S'https://open.spotify.com/track/1P6tXS8VZkZV8rOw51PA67'
p1378
sg8
S'Tag Mig Tilbage'
p1379
ssS'4QOTOTJsJjgrAf0BgnfaRF'
p1380
(dp1381
g3
S'Mc Einar'
p1382
sg5
I1
sg6
S'https://open.spotify.com/track/4QOTOTJsJjgrAf0BgnfaRF'
p1383
sg8
S"Jul Det' Cool"
p1384
ssS'6YnzBV7YkaXZNCK3tlnCfg'
p1385
(dp1386
g3
S'Boney M.'
p1387
sg5
I1
sg6
S'https://open.spotify.com/track/6YnzBV7YkaXZNCK3tlnCfg'
p1388
sg8
S"Mary's Boy Child / Oh My Lord"
p1389
ssS'6p8NuHm8uCGnn2Dtbtf7zE'
p1390
(dp1391
g3
S'Migos'
p1392
sg5
I4
sg6
S'https://open.spotify.com/track/6p8NuHm8uCGnn2Dtbtf7zE'
p1393
sg8
S'Slippery (feat. Gucci Mane)'
p1394
ssS'2KvHC9z14GSl4YpkNMX384'
p1395
(dp1396
g3
S'Drake'
p1397
sg5
I2
sg6
S'https://open.spotify.com/track/2KvHC9z14GSl4YpkNMX384'
p1398
sg8
S'Do Not Disturb'
p1399
ssS'7AQim7LbvFVZJE3O8TYgf2'
p1400
(dp1401
g3
S'XXXTENTACION'
p1402
sg5
I7
sg6
S'https://open.spotify.com/track/7AQim7LbvFVZJE3O8TYgf2'
p1403
sg8
S'Fuck Love (feat. Trippie Redd)'
p1404
ssS'248OFOZef6ShXv6DGgbnxU'
p1405
(dp1406
g3
S'Khalid'
p1407
sg5
I17
sg6
S'https://open.spotify.com/track/248OFOZef6ShXv6DGgbnxU'
p1408
sg8
S'Saved'
p1409
ssS'59fQzvSv0wPQorW2Bh0pns'
p1410
(dp1411
g3
S'Volbeat'
p1412
sg5
I42
sg6
S'https://open.spotify.com/track/59fQzvSv0wPQorW2Bh0pns'
p1413
sg8
S'For Evigt'
p1414
ssS'0dA2Mk56wEzDgegdC6R17g'
p1415
(dp1416
g3
S'Zedd'
p1417
sg5
I33
sg6
S'https://open.spotify.com/track/0dA2Mk56wEzDgegdC6R17g'
p1418
sg8
S'Stay (with Alessia Cara)'
p1419
ssS'3kGfazcbVvVkuZunzlLgTD'
p1420
(dp1421
g3
S'Sigala'
p1422
sg5
I16
sg6
S'https://open.spotify.com/track/3kGfazcbVvVkuZunzlLgTD'
p1423
sg8
S'Came Here for Love'
p1424
ssS'5ZMT6PlzsSdJznOZHfEtdY'
p1425
(dp1426
g3
S'LIGA'
p1427
sg5
I1
sg6
S'https://open.spotify.com/track/5ZMT6PlzsSdJznOZHfEtdY'
p1428
sg8
S'POP'
p1429
ssS'3Ytr1SUCUi6J3L9dRFx5iH'
p1430
(dp1431
g3
S'Major Lazer'
p1432
sg5
I19
sg6
S'https://open.spotify.com/track/3Ytr1SUCUi6J3L9dRFx5iH'
p1433
sg8
S'Know No Better (feat. Quavo)'
p1434
ssS'6ccwgif7Thhc7lpHkWWhOg'
p1435
(dp1436
g3
S'Morten'
p1437
sg5
I4
sg6
S'https://open.spotify.com/track/6ccwgif7Thhc7lpHkWWhOg'
p1438
sg8
S'The Underdog'
p1439
ssS'2NcIzHF5abrURe1IPldnD0'
p1440
(dp1441
g3
S'Lukas Graham'
p1442
sg5
I12
sg6
S'https://open.spotify.com/track/2NcIzHF5abrURe1IPldnD0'
p1443
sg8
S"You're Not There"
p1444
ssS'18g50kFt5uwVeCzQbrCvAO'
p1445
(dp1446
g3
S'Jessie J'
p1447
sg5
I1
sg6
S'https://open.spotify.com/track/18g50kFt5uwVeCzQbrCvAO'
p1448
sg8
S'Man With The Bag'
p1449
ssS'7nZmah2llfvLDiUjm0kiyz'
p1450
(dp1451
g3
S'Justin Bieber'
p1452
sg5
I8
sg6
S'https://open.spotify.com/track/7nZmah2llfvLDiUjm0kiyz'
p1453
sg8
S'Friends (with BloodPop\xc2\xae)'
p1454
ssS'13HVjjWUZFaWilh2QUJKsP'
p1455
(dp1456
g3
S'James Bay'
p1457
sg5
I42
sg6
S'https://open.spotify.com/track/13HVjjWUZFaWilh2QUJKsP'
p1458
sg8
S'Let It Go'
p1459
ssS'0y9uTzK9cNKSAEHnpeRG8C'
p1460
(dp1461
g3
S'Kendrick Lamar'
p1462
sg5
I1
sg6
S'https://open.spotify.com/track/0y9uTzK9cNKSAEHnpeRG8C'
p1463
sg8
S'DUCKWORTH.'
p1464
ssS'3Blj2l8DvVrpgjmP4RXTH2'
p1465
(dp1466
g3
S'SAVEUS'
p1467
sg5
I2
sg6
S'https://open.spotify.com/track/3Blj2l8DvVrpgjmP4RXTH2'
p1468
sg8
S'Himalaya'
p1469
ssS'6D0b04NJIKfEMg040WioJQ'
p1470
(dp1471
g3
S'Julia Michaels'
p1472
sg5
I2
sg6
S'https://open.spotify.com/track/6D0b04NJIKfEMg040WioJQ'
p1473
sg8
S'Issues'
p1474
ssS'12dodknoFCMP7JWEfEtkqz'
p1475
(dp1476
g3
S'Bastian'
p1477
sg5
I2
sg6
S'https://open.spotify.com/track/12dodknoFCMP7JWEfEtkqz'
p1478
sg8
S'Frikvarter'
p1479
ssS'3Ymp3t5GmFrYglSpUSJyMM'
p1480
(dp1481
g3
S'Christopher'
p1482
sg5
I5
sg6
S'https://open.spotify.com/track/3Ymp3t5GmFrYglSpUSJyMM'
p1483
sg8
S'Naked'
p1484
ssS'24UdVLKROEXdDH32Pj2xVf'
p1485
(dp1486
g3
S'Karl William'
p1487
sg5
I2
sg6
S'https://open.spotify.com/track/24UdVLKROEXdDH32Pj2xVf'
p1488
sg8
S'Blind Igen'
p1489
ssS'216PKuI7xdlzKKFy6kV3AS'
p1490
(dp1491
g3
S'Phlake'
p1492
sg5
I1
sg6
S'https://open.spotify.com/track/216PKuI7xdlzKKFy6kV3AS'
p1493
sg8
S'IKEA episodes'
p1494
ssS'7IK92nof2GT0iFttCGnE6F'
p1495
(dp1496
g3
S'Fouli'
p1497
sg5
I4
sg6
S'https://open.spotify.com/track/7IK92nof2GT0iFttCGnE6F'
p1498
sg8
S'Quatro'
p1499
ssS'4flXUmmCKe1GAAvIoptHq7'
p1500
(dp1501
g3
S'Mohombi'
p1502
sg5
I1
sg6
S'https://open.spotify.com/track/4flXUmmCKe1GAAvIoptHq7'
p1503
sg8
S'Bumpy Ride'
p1504
ssS'7l9CE3wmEGOUYw1j4ETjnL'
p1505
(dp1506
g3
S'Gorillaz'
p1507
sg5
I1
sg6
S'https://open.spotify.com/track/7l9CE3wmEGOUYw1j4ETjnL'
p1508
sg8
S'Saturnz Barz (feat. Popcaan)'
p1509
ssS'5fc6rQgAKiLutfUYWQ6QnJ'
p1510
(dp1511
g3
S'Sia'
p1512
sg5
I5
sg6
S'https://open.spotify.com/track/5fc6rQgAKiLutfUYWQ6QnJ'
p1513
sg8
S'Helium - From Fifty Shades Darker (Original Motion Picture Soundtrack)'
p1514
ssS'7cLaaCXyZEK07QF5KCDdtZ'
p1515
(dp1516
g3
S'Joey Moe'
p1517
sg5
I2
sg6
S'https://open.spotify.com/track/7cLaaCXyZEK07QF5KCDdtZ'
p1518
sg8
S'Almindelig'
p1519
ssS'343YBumqHu19cGoGARUTsd'
p1520
(dp1521
g3
S'Drake'
p1522
sg5
I25
sg6
S'https://open.spotify.com/track/343YBumqHu19cGoGARUTsd'
p1523
sg8
S'Fake Love'
p1524
ssS'3cJ0Fyr8C8blcaAZTYRLMN'
p1525
(dp1526
g3
S'Skinz'
p1527
sg5
I36
sg6
S'https://open.spotify.com/track/3cJ0Fyr8C8blcaAZTYRLMN'
p1528
sg8
S'Jeg Har En Pige'
p1529
ssS'2jW0MuNkctmqajdnoNZvyg'
p1530
(dp1531
g3
S'Thomas Helmig'
p1532
sg5
I1
sg6
S'https://open.spotify.com/track/2jW0MuNkctmqajdnoNZvyg'
p1533
sg8
S'N\xc3\xa5r Sneen Falder'
p1534
ssS'1upPKSQJreAEGrwNiCnKil'
p1535
(dp1536
g3
S'Julie'
p1537
sg5
I1
sg6
S'https://open.spotify.com/track/1upPKSQJreAEGrwNiCnKil'
p1538
sg8
S'Jesus & Josefine'
p1539
ssS'7yO48FWUkqsrdxrwkGcnwl'
p1540
(dp1541
g3
S'David Guetta'
p1542
sg5
I1
sg6
S'https://open.spotify.com/track/7yO48FWUkqsrdxrwkGcnwl'
p1543
sg8
S'Where Them Girls At (feat. Nicki Minaj & Flo Rida) - feat. Nicki Minaj & Flo Rida'
p1544
ssS'4pdPtRcBmOSQDlJ3Fk945m'
p1545
(dp1546
g3
S'DJ Snake'
p1547
sg5
I33
sg6
S'https://open.spotify.com/track/4pdPtRcBmOSQDlJ3Fk945m'
p1548
sg8
S'Let Me Love You'
p1549
ssS'5EnYT6F7wEcdege6mDHEfO'
p1550
(dp1551
g3
S'Drake'
p1552
sg5
I11
sg6
S'https://open.spotify.com/track/5EnYT6F7wEcdege6mDHEfO'
p1553
sg8
S'Signs'
p1554
ssS'4TZ1xAwR0kJNN20H6GW82h'
p1555
(dp1556
g3
S'Lukas Graham'
p1557
sg5
I1
sg6
S'https://open.spotify.com/track/4TZ1xAwR0kJNN20H6GW82h'
p1558
sg8
S'Off to See the World'
p1559
ssS'1VsK3ZmpeWWNECZSzKL3rl'
p1560
(dp1561
g3
S'Blak'
p1562
sg5
I39
sg6
S'https://open.spotify.com/track/1VsK3ZmpeWWNECZSzKL3rl'
p1563
sg8
S'Nede Mette'
p1564
ssS'1OAiWI2oPmglaOiv9fdioU'
p1565
(dp1566
g3
S'Coldplay'
p1567
sg5
I5
sg6
S'https://open.spotify.com/track/1OAiWI2oPmglaOiv9fdioU'
p1568
sg8
S'Hymn For The Weekend - Seeb Remix'
p1569
ssS'3jHCXrZNz8fQEEf4BpWCAj'
p1570
(dp1571
g3
S'Justin Bieber'
p1572
sg5
I2
sg6
S'https://open.spotify.com/track/3jHCXrZNz8fQEEf4BpWCAj'
p1573
sg8
S'Purpose'
p1574
ssS'7LEydI5NfjY6mZfKwYIptZ'
p1575
(dp1576
g3
S'Fifth Harmony'
p1577
sg5
I3
sg6
S'https://open.spotify.com/track/7LEydI5NfjY6mZfKwYIptZ'
p1578
sg8
S'Down'
p1579
ssS'2Na0z2gfN67Rzf0vp74Wi3'
p1580
(dp1581
g3
S'Drake'
p1582
sg5
I1
sg6
S'https://open.spotify.com/track/2Na0z2gfN67Rzf0vp74Wi3'
p1583
sg8
S'Lose You'
p1584
ssS'23e6ly5nFanMQOk4cAwJj2'
p1585
(dp1586
g3
S'Mura Masa'
p1587
sg5
I2
sg6
S'https://open.spotify.com/track/23e6ly5nFanMQOk4cAwJj2'
p1588
sg8
S'Love$ick'
p1589
ssS'48utQXfRC0qPBlCbDkkTrh'
p1590
(dp1591
g3
S'Rasmus Seebach'
p1592
sg5
I1
sg6
S'https://open.spotify.com/track/48utQXfRC0qPBlCbDkkTrh'
p1593
sg8
S'Lille store verden - Bonus Track'
p1594
ssS'1YNX3GbvdmuENbpp6bcrs3'
p1595
(dp1596
g3
S'NODE'
p1597
sg5
I20
sg6
S'https://open.spotify.com/track/1YNX3GbvdmuENbpp6bcrs3'
p1598
sg8
S'Zebah'
p1599
ssS'3SD2PJyQDG5H9Yz95feORS'
p1600
(dp1601
g3
S'Gigis'
p1602
sg5
I29
sg6
S'https://open.spotify.com/track/3SD2PJyQDG5H9Yz95feORS'
p1603
sg8
S'Gertrud'
p1604
ssS'1q4n2h0CnHdJ9SxMuDwf3j'
p1605
(dp1606
g3
S'Future Animals'
p1607
sg5
I2
sg6
S'https://open.spotify.com/track/1q4n2h0CnHdJ9SxMuDwf3j'
p1608
sg8
S'Ask For It'
p1609
ssS'2a1o6ZejUi8U3wzzOtCOYw'
p1610
(dp1611
g3
S'Don Omar'
p1612
sg5
I1
sg6
S'https://open.spotify.com/track/2a1o6ZejUi8U3wzzOtCOYw'
p1613
sg8
S'Danza Kuduro'
p1614
ssS'2lE6CIzmQvcF7Mo3z4k9cr'
p1615
(dp1616
g3
S'M\xc3\x98'
p1617
sg5
I2
sg6
S'https://open.spotify.com/track/2lE6CIzmQvcF7Mo3z4k9cr'
p1618
sg8
S'Nights With You - Cheat Codes Remix'
p1619
ssS'48apt8jBa6xcsmHbtqEjlt'
p1620
(dp1621
g3
S'Suspekt'
p1622
sg5
I1
sg6
S'https://open.spotify.com/track/48apt8jBa6xcsmHbtqEjlt'
p1623
sg8
S'23 kroner / Solfar'
p1624
ssS'5GqBuGhnj9Km3LlOcaN101'
p1625
(dp1626
g3
S'Gilli'
p1627
sg5
I38
sg6
S'https://open.spotify.com/track/5GqBuGhnj9Km3LlOcaN101'
p1628
sg8
S'Tidligt Op'
p1629
ssS'5OOkp4U9P9oL23maHFHL1h'
p1630
(dp1631
g3
S'Desiigner'
p1632
sg5
I8
sg6
S'https://open.spotify.com/track/5OOkp4U9P9oL23maHFHL1h'
p1633
sg8
S'Panda'
p1634
ssS'3j0VmVRcg0ciUNN9KFheTO'
p1635
(dp1636
g3
S'Lord Siva'
p1637
sg5
I15
sg6
S'https://open.spotify.com/track/3j0VmVRcg0ciUNN9KFheTO'
p1638
sg8
S'Lapper'
p1639
ssS'5xV0Czdqefft6sPDqjmFBu'
p1640
(dp1641
g3
S'Mario'
p1642
sg5
I2
sg6
S'https://open.spotify.com/track/5xV0Czdqefft6sPDqjmFBu'
p1643
sg8
S'Let Me Love You'
p1644
ssS'1dtn0EXtmxFmUgHatP3UgH'
p1645
(dp1646
g3
S'Gigis'
p1647
sg5
I1
sg6
S'https://open.spotify.com/track/1dtn0EXtmxFmUgHatP3UgH'
p1648
sg8
S'ABDI MUSTI ALI'
p1649
ssS'0IV3VN0eZxQxjUsHwrhl4d'
p1650
(dp1651
g3
S'Jimilian'
p1652
sg5
I9
sg6
S'https://open.spotify.com/track/0IV3VN0eZxQxjUsHwrhl4d'
p1653
sg8
S'Farvel'
p1654
ssS'0hph5ZLIh4WG69ouwjQnxA'
p1655
(dp1656
g3
S"Gasolin'"
p1657
sg5
I1
sg6
S'https://open.spotify.com/track/0hph5ZLIh4WG69ouwjQnxA'
p1658
sg8
S'Endelig Jul Igen'
p1659
ssS'7y6c07pgjZvtHI9kuMVqk1'
p1660
(dp1661
g3
S'Drake'
p1662
sg5
I4
sg6
S'https://open.spotify.com/track/7y6c07pgjZvtHI9kuMVqk1'
p1663
sg8
S'Get It Together'
p1664
ssS'5Nxu5p2mAwMdpCGMuuSWnz'
p1665
(dp1666
g3
S'Gigis'
p1667
sg5
I1
sg6
S'https://open.spotify.com/track/5Nxu5p2mAwMdpCGMuuSWnz'
p1668
sg8
S'Fl\xc3\xa6k'
p1669
ssS'0wfbD5rAksdXUzRvMfM3x5'
p1670
(dp1671
g3
S'The Chainsmokers'
p1672
sg5
I6
sg6
S'https://open.spotify.com/track/0wfbD5rAksdXUzRvMfM3x5'
p1673
sg8
S'The One'
p1674
ssS'57p8CBvPOxrvyCbn6ttl5r'
p1675
(dp1676
g3
S'Skrillex'
p1677
sg5
I10
sg6
S'https://open.spotify.com/track/57p8CBvPOxrvyCbn6ttl5r'
p1678
sg8
S'Would You Ever'
p1679
ssS'6Nle9hKrkL1wQpwNfEkxjh'
p1680
(dp1681
g3
S'Frank Ocean'
p1682
sg5
I4
sg6
S'https://open.spotify.com/track/6Nle9hKrkL1wQpwNfEkxjh'
p1683
sg8
S'Chanel'
p1684
ssS'79cuOz3SPQTuFrp8WgftAu'
p1685
(dp1686
g3
S'Shawn Mendes'
p1687
sg5
I25
sg6
S'https://open.spotify.com/track/79cuOz3SPQTuFrp8WgftAu'
p1688
sg8
S"There's Nothing Holdin' Me Back"
p1689
ssS'4c2W3VKsOFoIg2SFaO6DY5'
p1690
(dp1691
g3
S'Rita Ora'
p1692
sg5
I20
sg6
S'https://open.spotify.com/track/4c2W3VKsOFoIg2SFaO6DY5'
p1693
sg8
S'Your Song'
p1694
ssS'0lmdsH1MIoLsMymnNpd6HU'
p1695
(dp1696
g3
S'Dante Klein'
p1697
sg5
I11
sg6
S'https://open.spotify.com/track/0lmdsH1MIoLsMymnNpd6HU'
p1698
sg8
S'Let Me Hold You (Turn Me On)'
p1699
ssS'4ARPvK8DHLwt4oX65ZAFMw'
p1700
(dp1701
g3
S'XXXTENTACION'
p1702
sg5
I13
sg6
S'https://open.spotify.com/track/4ARPvK8DHLwt4oX65ZAFMw'
p1703
sg8
S'Look At Me!'
p1704
ssS'2eal8Nsdnp60kq1zPgdBd3'
p1705
(dp1706
g3
S'Scarlet Pleasure'
p1707
sg5
I1
sg6
S'https://open.spotify.com/track/2eal8Nsdnp60kq1zPgdBd3'
p1708
sg8
S'Limbo'
p1709
ssS'6ZX2qXkhaueabbzp6vfabS'
p1710
(dp1711
g3
S'ALMA'
p1712
sg5
I3
sg6
S'https://open.spotify.com/track/6ZX2qXkhaueabbzp6vfabS'
p1713
sg8
S'Phases'
p1714
ssS'5llirO0ywYSbRUjl9jlXqd'
p1715
(dp1716
g3
S'ICEKIID'
p1717
sg5
I1
sg6
S'https://open.spotify.com/track/5llirO0ywYSbRUjl9jlXqd'
p1718
sg8
S'Brandvarm'
p1719
ssS'3UjJP4ludb74a29P5EHEIo'
p1720
(dp1721
g3
S'Sabrina Carpenter'
p1722
sg5
I5
sg6
S'https://open.spotify.com/track/3UjJP4ludb74a29P5EHEIo'
p1723
sg8
S'Thumbs'
p1724
ssS'0XGOJCmUyGbzYMEj1vBP3s'
p1725
(dp1726
g3
S'Jamaika'
p1727
sg5
I18
sg6
S'https://open.spotify.com/track/0XGOJCmUyGbzYMEj1vBP3s'
p1728
sg8
S'Trip Nok'
p1729
ssS'3T9RFgqWQ0KXxdo3AiaBUS'
p1730
(dp1731
g3
S'TopGunn'
p1732
sg5
I22
sg6
S'https://open.spotify.com/track/3T9RFgqWQ0KXxdo3AiaBUS'
p1733
sg8
S'Hyggesang'
p1734
ssS'7h6hAh9bRNXs9BKIdqj0xX'
p1735
(dp1736
g3
S'Basim'
p1737
sg5
I6
sg6
S'https://open.spotify.com/track/7h6hAh9bRNXs9BKIdqj0xX'
p1738
sg8
S'Comme Ci Comme \xc3\x87a'
p1739
ssS'3eR23VReFzcdmS7TYCrhCe'
p1740
(dp1741
g3
S'Kygo'
p1742
sg5
I33
sg6
S'https://open.spotify.com/track/3eR23VReFzcdmS7TYCrhCe'
p1743
sg8
S"It Ain't Me (with Selena Gomez)"
p1744
ssS'6a9vKVMFfNBi741DVSit3H'
p1745
(dp1746
g3
S'Felix Jaehn'
p1747
sg5
I2
sg6
S'https://open.spotify.com/track/6a9vKVMFfNBi741DVSit3H'
p1748
sg8
S'Feel Good'
p1749
ssS'2eAZfqOm4EnOF9VvN50Tyc'
p1750
(dp1751
g3
S'Lil Uzi Vert'
p1752
sg5
I3
sg6
S'https://open.spotify.com/track/2eAZfqOm4EnOF9VvN50Tyc'
p1753
sg8
S'The Way Life Goes'
p1754
ssS'0zMzyHAeMvwq5CRstru1Fp'
p1755
(dp1756
g3
S'Ruth B.'
p1757
sg5
I14
sg6
S'https://open.spotify.com/track/0zMzyHAeMvwq5CRstru1Fp'
p1758
sg8
S'Lost Boy'
p1759
ssS'1OiOO7ttBMg0UbkDkZebJi'
p1760
(dp1761
g3
S'Carmon'
p1762
sg5
I3
sg6
S'https://open.spotify.com/track/1OiOO7ttBMg0UbkDkZebJi'
p1763
sg8
S'Stadig Original'
p1764
ssS'6jA8HL9i4QGzsj6fjoxp8Y'
p1765
(dp1766
g3
S'Martin Garrix'
p1767
sg5
I20
sg6
S'https://open.spotify.com/track/6jA8HL9i4QGzsj6fjoxp8Y'
p1768
sg8
S'There for You'
p1769
ssS'19WjVVgXjdKXfLXoaDPwTM'
p1770
(dp1771
g3
S'Taylor Swift'
p1772
sg5
I3
sg6
S'https://open.spotify.com/track/19WjVVgXjdKXfLXoaDPwTM'
p1773
sg8
S'...Ready For It?'
p1774
ssS'51BNJi722aSpLYgvsGMwf1'
p1775
(dp1776
g3
S'KESI'
p1777
sg5
I14
sg6
S'https://open.spotify.com/track/51BNJi722aSpLYgvsGMwf1'
p1778
sg8
S'Designer'
p1779
ssS'33h8LiJfQlgZ6r4O3an4i4'
p1780
(dp1781
g3
S'Katie Keller'
p1782
sg5
I2
sg6
S'https://open.spotify.com/track/33h8LiJfQlgZ6r4O3an4i4'
p1783
sg8
S'Erstatning'
p1784
ssS'5bZtRlMBU76vHuDOb1GM5u'
p1785
(dp1786
g3
S'Jonas Blue'
p1787
sg5
I2
sg6
S'https://open.spotify.com/track/5bZtRlMBU76vHuDOb1GM5u'
p1788
sg8
S'Perfect Strangers'
p1789
ssS'67EY6aDoIx8czEPS6a2AaI'
p1790
(dp1791
g3
S'The Script'
p1792
sg5
I2
sg6
S'https://open.spotify.com/track/67EY6aDoIx8czEPS6a2AaI'
p1793
sg8
S"The Man Who Can't Be Moved"
p1794
ssS'7HpA7MQUnOJjGfgvb2dW1s'
p1795
(dp1796
g3
S'Danni'
p1797
sg5
I1
sg6
S'https://open.spotify.com/track/7HpA7MQUnOJjGfgvb2dW1s'
p1798
sg8
S'Aldrig For Sent'
p1799
ssS'6TIU9Ehmi6dMzZK73Ym4yj'
p1800
(dp1801
g3
S'Ed Sheeran'
p1802
sg5
I6
sg6
S'https://open.spotify.com/track/6TIU9Ehmi6dMzZK73Ym4yj'
p1803
sg8
S'Save Myself'
p1804
ssS'7taXf5odg9xCAZERYfyOkS'
p1805
(dp1806
g3
S'Jos\xc3\xa9 Feliciano'
p1807
sg5
I1
sg6
S'https://open.spotify.com/track/7taXf5odg9xCAZERYfyOkS'
p1808
sg8
S'Feliz Navidad'
p1809
ssS'3AVnIi6HvEiHGlIj4c6ok2'
p1810
(dp1811
g3
S'Vigiland'
p1812
sg5
I1
sg6
S'https://open.spotify.com/track/3AVnIi6HvEiHGlIj4c6ok2'
p1813
sg8
S'Pong Dance'
p1814
ssS'7jHzO2EPJzt1JgHQ80aRu0'
p1815
(dp1816
g3
S'Astrid S'
p1817
sg5
I5
sg6
S'https://open.spotify.com/track/7jHzO2EPJzt1JgHQ80aRu0'
p1818
sg8
S'Such A Boy'
p1819
ssS'2mfUa8bLs2s5N4VaqJZ4lZ'
p1820
(dp1821
g3
S'Hailee Steinfeld'
p1822
sg5
I17
sg6
S'https://open.spotify.com/track/2mfUa8bLs2s5N4VaqJZ4lZ'
p1823
sg8
S'Most Girls'
p1824
ssS'4aWmUDTfIPGksMNLV2rQP2'
p1825
(dp1826
g3
S'Luis Fonsi'
p1827
sg5
I33
sg6
S'https://open.spotify.com/track/4aWmUDTfIPGksMNLV2rQP2'
p1828
sg8
S'Despacito (Featuring Daddy Yankee)'
p1829
ssS'58zsLZPvfflaiIbNWoA22O'
p1830
(dp1831
g3
S"Rag'n'Bone Man"
p1832
sg5
I27
sg6
S'https://open.spotify.com/track/58zsLZPvfflaiIbNWoA22O'
p1833
sg8
S'Human'
p1834
ssS'5dKyZWlgjWw1oJgLa4GCZD'
p1835
(dp1836
g3
S'Tove Lo'
p1837
sg5
I4
sg6
S'https://open.spotify.com/track/5dKyZWlgjWw1oJgLa4GCZD'
p1838
sg8
S'Cool Girl'
p1839
ssS'60APt5N2NRaKWf5xzJdzyC'
p1840
(dp1841
g3
S'Calvin Harris'
p1842
sg5
I3
sg6
S'https://open.spotify.com/track/60APt5N2NRaKWf5xzJdzyC'
p1843
sg8
S'Heatstroke'
p1844
ssS'1HTtUBEY3tuw2btgwwI2Ja'
p1845
(dp1846
g3
S'Gucci Mane'
p1847
sg5
I6
sg6
S'https://open.spotify.com/track/1HTtUBEY3tuw2btgwwI2Ja'
p1848
sg8
S'I Get The Bag (feat. Migos)'
p1849
ssS'25C5CowdsfXld2jJanbiex'
p1850
(dp1851
g3
S'Demi Lovato'
p1852
sg5
I11
sg6
S'https://open.spotify.com/track/25C5CowdsfXld2jJanbiex'
p1853
sg8
S'Sorry Not Sorry'
p1854
ssS'3cBKLrMRIA9vDT81gWvjNw'
p1855
(dp1856
g3
S'Shaka Loveless'
p1857
sg5
I4
sg6
S'https://open.spotify.com/track/3cBKLrMRIA9vDT81gWvjNw'
p1858
sg8
S'Velkommen Hjem'
p1859
ssS'4tH07pR7ERMXBJXSC5EJg9'
p1860
(dp1861
g3
S'Sleiman'
p1862
sg5
I5
sg6
S'https://open.spotify.com/track/4tH07pR7ERMXBJXSC5EJg9'
p1863
sg8
S'Sicario'
p1864
ssS'7m9OqQk4RVRkw9JJdeAw96'
p1865
(dp1866
g3
S'XXXTENTACION'
p1867
sg5
I7
sg6
S'https://open.spotify.com/track/7m9OqQk4RVRkw9JJdeAw96'
p1868
sg8
S'Jocelyn Flores'
p1869
ssS'3aHIls6TNbw8pPocil0UD0'
p1870
(dp1871
g3
S'Skinz'
p1872
sg5
I1
sg6
S'https://open.spotify.com/track/3aHIls6TNbw8pPocil0UD0'
p1873
sg8
S'Pr\xc3\xa6cis (feat. Wafande)'
p1874
ssS'1n4jwRVXdkK2U34nBDUKKT'
p1875
(dp1876
g3
S'Kendrick Lamar'
p1877
sg5
I1
sg6
S'https://open.spotify.com/track/1n4jwRVXdkK2U34nBDUKKT'
p1878
sg8
S'BLOOD.'
p1879
ssS'1Eck97uRMlprKOOJN9oO1E'
p1880
(dp1881
g3
S'G-Eazy'
p1882
sg5
I17
sg6
S'https://open.spotify.com/track/1Eck97uRMlprKOOJN9oO1E'
p1883
sg8
S'Good Life (with G-Eazy & Kehlani)'
p1884
ssS'6JV2JOEocMgcZxYSZelKcc'
p1885
(dp1886
g3
S'Justin Timberlake'
p1887
sg5
I36
sg6
S'https://open.spotify.com/track/6JV2JOEocMgcZxYSZelKcc'
p1888
sg8
S"CAN'T STOP THE FEELING! (Original Song from DreamWorks Animation's TROLLS)"
p1889
ssS'05KOgYg8PGeJyyWBPi5ja8'
p1890
(dp1891
g3
S'Drake'
p1892
sg5
I3
sg6
S'https://open.spotify.com/track/05KOgYg8PGeJyyWBPi5ja8'
p1893
sg8
S'Free Smoke'
p1894
ssS'6De0lHrwBfPfrhorm9q1Xl'
p1895
(dp1896
g3
S'Danny Ocean'
p1897
sg5
I12
sg6
S'https://open.spotify.com/track/6De0lHrwBfPfrhorm9q1Xl'
p1898
sg8
S'Me Reh\xc3\xbaso'
p1899
ssS'7aV2mflaASUmGhCErm7kBO'
p1900
(dp1901
g3
S'Nevada'
p1902
sg5
I12
sg6
S'https://open.spotify.com/track/7aV2mflaASUmGhCErm7kBO'
p1903
sg8
S'The Mack'
p1904
ssS'0bYg9bo50gSsH3LtXe2SQn'
p1905
(dp1906
g3
S'Mariah Carey'
p1907
sg5
I1
sg6
S'https://open.spotify.com/track/0bYg9bo50gSsH3LtXe2SQn'
p1908
sg8
S'All I Want for Christmas Is You'
p1909
ssS'2TFtVKcnoudj5hPRRhVmCO'
p1910
(dp1911
g3
S'Benny Jamz'
p1912
sg5
I11
sg6
S'https://open.spotify.com/track/2TFtVKcnoudj5hPRRhVmCO'
p1913
sg8
S'Allesammen Alene'
p1914
ssS'4MV8yeKSsls4xev14yDXL6'
p1915
(dp1916
g3
S'TRXD'
p1917
sg5
I1
sg6
S'https://open.spotify.com/track/4MV8yeKSsls4xev14yDXL6'
p1918
sg8
S'Our City'
p1919
ssS'5jl2ASpLH6ch4vkD4xcpyq'
p1920
(dp1921
g3
S'Caroline Castell'
p1922
sg5
I1
sg6
S'https://open.spotify.com/track/5jl2ASpLH6ch4vkD4xcpyq'
p1923
sg8
S'Tidsrejsen'
p1924
ssS'4C7pCR78dvGlDP5RB1Gdhy'
p1925
(dp1926
g3
S'Livid'
p1927
sg5
I1
sg6
S'https://open.spotify.com/track/4C7pCR78dvGlDP5RB1Gdhy'
p1928
sg8
S'P\xc3\xa5 Igen'
p1929
ssS'5Ohxk2dO5COHF1krpoPigN'
p1930
(dp1931
g3
S'Harry Styles'
p1932
sg5
I20
sg6
S'https://open.spotify.com/track/5Ohxk2dO5COHF1krpoPigN'
p1933
sg8
S'Sign of the Times'
p1934
ssS'5w3HxavOSIF2hPogDg92vw'
p1935
(dp1936
g3
S'ADHD'
p1937
sg5
I7
sg6
S'https://open.spotify.com/track/5w3HxavOSIF2hPogDg92vw'
p1938
sg8
S'Bingo (Fredes Far)'
p1939
ssS'1qOLh0tI7trd1zdDKxYZTe'
p1940
(dp1941
g3
S'Hailee Steinfeld'
p1942
sg5
I35
sg6
S'https://open.spotify.com/track/1qOLh0tI7trd1zdDKxYZTe'
p1943
sg8
S'Starving'
p1944
ssS'3nAp4IvdMPPWEH9uuXFFV5'
p1945
(dp1946
g3
S'Kelly Clarkson'
p1947
sg5
I1
sg6
S'https://open.spotify.com/track/3nAp4IvdMPPWEH9uuXFFV5'
p1948
sg8
S'Underneath the Tree'
p1949
ssS'3HVr6jTVwBHBa2flM0eURR'
p1950
(dp1951
g3
S'Macklemore'
p1952
sg5
I10
sg6
S'https://open.spotify.com/track/3HVr6jTVwBHBa2flM0eURR'
p1953
sg8
S'Glorious (feat. Skylar Grey)'
p1954
ssS'7inXu0Eaeg02VsM8kHNvzM'
p1955
(dp1956
g3
S'Frank Sinatra'
p1957
sg5
I1
sg6
S'https://open.spotify.com/track/7inXu0Eaeg02VsM8kHNvzM'
p1958
sg8
S'Let It Snow! Let It Snow! Let It Snow!'
p1959
ssS'0JiVRyTJcJnmlwCZ854K4p'
p1960
(dp1961
g3
S'Alan Walker'
p1962
sg5
I16
sg6
S'https://open.spotify.com/track/0JiVRyTJcJnmlwCZ854K4p'
p1963
sg8
S'Alone'
p1964
ssS'1cG0umU5TKStygKsPFZ9pY'
p1965
(dp1966
g3
S'Robin Schulz'
p1967
sg5
I13
sg6
S'https://open.spotify.com/track/1cG0umU5TKStygKsPFZ9pY'
p1968
sg8
S'Shed a Light'
p1969
ssS'7xHWNBFm6ObGEQPaUxHuKO'
p1970
(dp1971
g3
S'Sia'
p1972
sg5
I9
sg6
S'https://open.spotify.com/track/7xHWNBFm6ObGEQPaUxHuKO'
p1973
sg8
S'The Greatest'
p1974
ssS'3caMfJGFp53NAH2TuigdNj'
p1975
(dp1976
g3
S'Galantis'
p1977
sg5
I16
sg6
S'https://open.spotify.com/track/3caMfJGFp53NAH2TuigdNj'
p1978
sg8
S'Hunter'
p1979
ssS'6EpRaXYhGOB3fj4V2uDkMJ'
p1980
(dp1981
g3
S'Liam Payne'
p1982
sg5
I21
sg6
S'https://open.spotify.com/track/6EpRaXYhGOB3fj4V2uDkMJ'
p1983
sg8
S'Strip That Down'
p1984
ssS'5oGm8Hm6sUQIlGu0X0p6xS'
p1985
(dp1986
g3
S'Timmy Trumpet'
p1987
sg5
I2
sg6
S'https://open.spotify.com/track/5oGm8Hm6sUQIlGu0X0p6xS'
p1988
sg8
S'Oracle'
p1989
ssS'5NafFxaLg9Ep21oTHBw7Zq'
p1990
(dp1991
g3
S'ALMA'
p1992
sg5
I10
sg6
S'https://open.spotify.com/track/5NafFxaLg9Ep21oTHBw7Zq'
p1993
sg8
S'Dye My Hair'
p1994
ssS'0BiGd2FNDQ0eh79ZHfp6tS'
p1995
(dp1996
g3
S'Martin Jensen'
p1997
sg5
I35
sg6
S'https://open.spotify.com/track/0BiGd2FNDQ0eh79ZHfp6tS'
p1998
sg8
S'All I Wanna Do'
p1999
ssS'1wjzFQodRWrPcQ0AnYnvQ9'
p2000
(dp2001
g3
S'Lauv'
p2002
sg5
I19
sg6
S'https://open.spotify.com/track/1wjzFQodRWrPcQ0AnYnvQ9'
p2003
sg8
S'I Like Me Better'
p2004
ssS'263jcrCMb0ttw18hoGQTN4'
p2005
(dp2006
g3
S'KESI'
p2007
sg5
I14
sg6
S'https://open.spotify.com/track/263jcrCMb0ttw18hoGQTN4'
p2008
sg8
S'Op'
p2009
ssS'51PIvodunv6NmX5250zxAh'
p2010
(dp2011
g3
S'Lady Gaga'
p2012
sg5
I8
sg6
S'https://open.spotify.com/track/51PIvodunv6NmX5250zxAh'
p2013
sg8
S'The Cure'
p2014
ssS'7iDa6hUg2VgEL1o1HjmfBn'
p2015
(dp2016
g3
S'Bebe Rexha'
p2017
sg5
I3
sg6
S'https://open.spotify.com/track/7iDa6hUg2VgEL1o1HjmfBn'
p2018
sg8
S'Meant to Be (feat. Florida Georgia Line)'
p2019
ssS'7abpmGpF7PGep2rDU68GBR'
p2020
(dp2021
g3
S'Burak Yeter'
p2022
sg5
I22
sg6
S'https://open.spotify.com/track/7abpmGpF7PGep2rDU68GBR'
p2023
sg8
S'Tuesday'
p2024
ssS'2uFaJJtFpPDc5Pa95XzTvg'
p2025
(dp2026
g3
S'Dean Martin'
p2027
sg5
I1
sg6
S'https://open.spotify.com/track/2uFaJJtFpPDc5Pa95XzTvg'
p2028
sg8
S'Let It Snow! Let It Snow! Let It Snow!'
p2029
ssS'06ZpMjkNdIDKVf3mK29UiC'
p2030
(dp2031
g3
S'Alok'
p2032
sg5
I1
sg6
S'https://open.spotify.com/track/06ZpMjkNdIDKVf3mK29UiC'
p2033
sg8
S'Never Let Me Go'
p2034
ssS'3GPI7hYiqD6enLRobhkBm8'
p2035
(dp2036
g3
S'ItaloBrothers'
p2037
sg5
I18
sg6
S'https://open.spotify.com/track/3GPI7hYiqD6enLRobhkBm8'
p2038
sg8
S'Summer Air'
p2039
ssS'1KqvRRQd3lfM0pAlkGPrgD'
p2040
(dp2041
g3
S'Ed Sheeran'
p2042
sg5
I13
sg6
S'https://open.spotify.com/track/1KqvRRQd3lfM0pAlkGPrgD'
p2043
sg8
S'Shape of You (Major Lazer Remix) [feat. Nyla & Kranium]'
p2044
ssS'2XMTqoHHSH0lvuXrvIEdco'
p2045
(dp2046
g3
S'FRENSHIP'
p2047
sg5
I6
sg6
S'https://open.spotify.com/track/2XMTqoHHSH0lvuXrvIEdco'
p2048
sg8
S'Capsize'
p2049
ssS'5MFzQMkrl1FOOng9tq6R9r'
p2050
(dp2051
g3
S'Maroon 5'
p2052
sg5
I16
sg6
S'https://open.spotify.com/track/5MFzQMkrl1FOOng9tq6R9r'
p2053
sg8
S"Don't Wanna Know"
p2054
ssS'2qXVwjWVZazzHGYqT6FXTZ'
p2055
(dp2056
g3
S'Carmon'
p2057
sg5
I7
sg6
S'https://open.spotify.com/track/2qXVwjWVZazzHGYqT6FXTZ'
p2058
sg8
S'Hele Vejen Hele Livet'
p2059
ssS'7HzMcKpsKOTWzLKsmEoeHR'
p2060
(dp2061
g3
S'Ham VolKan'
p2062
sg5
I10
sg6
S'https://open.spotify.com/track/7HzMcKpsKOTWzLKsmEoeHR'
p2063
sg8
S'For L\xc3\xa6nge'
p2064
ssS'24aJCthiKS0MMGxP6XGt63'
p2065
(dp2066
g3
S'Benal'
p2067
sg5
I1
sg6
S'https://open.spotify.com/track/24aJCthiKS0MMGxP6XGt63'
p2068
sg8
S'Hvis Det Virkelig Er Vigtigt'
p2069
ssS'3FDrI0FLKzrYQiWxPhqV2W'
p2070
(dp2071
g3
S'Calvin Harris'
p2072
sg5
I4
sg6
S'https://open.spotify.com/track/3FDrI0FLKzrYQiWxPhqV2W'
p2073
sg8
S'Rollin'
p2074
ssS'7ysgObkv54IX9rj7GM9Hai'
p2075
(dp2076
g3
S'Eebz'
p2077
sg5
I1
sg6
S'https://open.spotify.com/track/7ysgObkv54IX9rj7GM9Hai'
p2078
sg8
S'Catalonia'
p2079
ssS'0eCkBrobTQFiBVqa1p92KA'
p2080
(dp2081
g3
S'JP Cooper'
p2082
sg5
I2
sg6
S'https://open.spotify.com/track/0eCkBrobTQFiBVqa1p92KA'
p2083
sg8
S'Birthday'
p2084
ssS'6eT7xZZlB2mwyzJ2sUKG6w'
p2085
(dp2086
g3
S'Post Malone'
p2087
sg5
I25
sg6
S'https://open.spotify.com/track/6eT7xZZlB2mwyzJ2sUKG6w'
p2088
sg8
S'White Iverson'
p2089
ssS'5l7xuwTFa8MPhqnNXM7Yz5'
p2090
(dp2091
g3
S'NODE'
p2092
sg5
I2
sg6
S'https://open.spotify.com/track/5l7xuwTFa8MPhqnNXM7Yz5'
p2093
sg8
S'Gi Mig Det Hele'
p2094
ssS'1WP1r7fuvRqZRnUaTi2I1Q'
p2095
(dp2096
g3
S'Shawn Mendes'
p2097
sg5
I7
sg6
S'https://open.spotify.com/track/1WP1r7fuvRqZRnUaTi2I1Q'
p2098
sg8
S'Stitches'
p2099
ssS'3eFJqPe8VUYrABbFjSauuj'
p2100
(dp2101
g3
S''
p2102
sg5
I1
sg6
S'https://open.spotify.com/track/3eFJqPe8VUYrABbFjSauuj'
p2103
sg8
g2102
ssS'1almCHdsfikRPfVB9VrEdT'
p2104
(dp2105
g3
S'Alex & Sierra'
p2106
sg5
I41
sg6
S'https://open.spotify.com/track/1almCHdsfikRPfVB9VrEdT'
p2107
sg8
S'Little Do You Know'
p2108
ssS'4Ww2G8XNWfNSEkZq7PGWJi'
p2109
(dp2110
g3
S'Wafande'
p2111
sg5
I1
sg6
S'https://open.spotify.com/track/4Ww2G8XNWfNSEkZq7PGWJi'
p2112
sg8
S'P\xc3\xa5 Det Beat'
p2113
ssS'4jBGTzZgpXmdKheChTIYZz'
p2114
(dp2115
g3
S'Xander'
p2116
sg5
I1
sg6
S'https://open.spotify.com/track/4jBGTzZgpXmdKheChTIYZz'
p2117
sg8
S'Ring Til Mig'
p2118
ssS'1jYiIOC5d6soxkJP81fxq2'
p2119
(dp2120
g3
S'DJ Khaled'
p2121
sg5
I1
sg6
S'https://open.spotify.com/track/1jYiIOC5d6soxkJP81fxq2'
p2122
sg8
S"I'm the One"
p2123
ssS'0IqKeD8ZSP72KbGYyzEcAs'
p2124
(dp2125
g3
S'Hozier'
p2126
sg5
I8
sg6
S'https://open.spotify.com/track/0IqKeD8ZSP72KbGYyzEcAs'
p2127
sg8
S'Take Me To Church'
p2128
ssS'3B7FO3kJ5kv3mX7yiaB7sT'
p2129
(dp2130
g3
S'Mariah Carey'
p2131
sg5
I1
sg6
S'https://open.spotify.com/track/3B7FO3kJ5kv3mX7yiaB7sT'
p2132
sg8
S'O Holy Night'
p2133
ssS'2N88e30E0fkrzPFxew6fo6'
p2134
(dp2135
g3
S'Phlake'
p2136
sg5
I16
sg6
S'https://open.spotify.com/track/2N88e30E0fkrzPFxew6fo6'
p2137
sg8
S'Chunks'
p2138
ssS'2jTujnt0y344ai1rNOywgr'
p2139
(dp2140
g3
S'Drake'
p2141
sg5
I2
sg6
S'https://open.spotify.com/track/2jTujnt0y344ai1rNOywgr'
p2142
sg8
S'KMT'
p2143
ssS'71QQob1CUAwvN4pfC7jkLM'
p2144
(dp2145
g3
S'Sleiman'
p2146
sg5
I40
sg6
S'https://open.spotify.com/track/71QQob1CUAwvN4pfC7jkLM'
p2147
sg8
S'For Evigt Ung'
p2148
ssS'6HHaM2ejqVrDChGMDFbuaP'
p2149
(dp2150
g3
S'Medina'
p2151
sg5
I11
sg6
S'https://open.spotify.com/track/6HHaM2ejqVrDChGMDFbuaP'
p2152
sg8
S'Elsk Mig'
p2153
ssS'69oJmQ3NnWHQriYQ4L8dKa'
p2154
(dp2155
g3
S'Gilli'
p2156
sg5
I18
sg6
S'https://open.spotify.com/track/69oJmQ3NnWHQriYQ4L8dKa'
p2157
sg8
S'Rica'
p2158
ssS'6gBFPUFcJLzWGx4lenP6h2'
p2159
(dp2160
g3
S'Travis Scott'
p2161
sg5
I38
sg6
S'https://open.spotify.com/track/6gBFPUFcJLzWGx4lenP6h2'
p2162
sg8
S'goosebumps'
p2163
ssS'7zgqtptZvhf8GEmdsM2vp2'
p2164
(dp2165
g3
S'Taylor Swift'
p2166
sg5
I1
sg6
S'https://open.spotify.com/track/7zgqtptZvhf8GEmdsM2vp2'
p2167
sg8
S'...Ready For It?'
p2168
ssS'3b5Li4QKDVBx1x7fQuu54a'
p2169
(dp2170
g3
S'Alan Walker'
p2171
sg5
I5
sg6
S'https://open.spotify.com/track/3b5Li4QKDVBx1x7fQuu54a'
p2172
sg8
S'Tired'
p2173
ssS'5HDPtsnyb3maFmPL8LLUTG'
p2174
(dp2175
g3
S'Ed Sheeran'
p2176
sg5
I11
sg6
S'https://open.spotify.com/track/5HDPtsnyb3maFmPL8LLUTG'
p2177
sg8
S'New Man'
p2178
ssS'4XNxIEYsEjK2Cu67brXBGq'
p2179
(dp2180
g3
S'Suspekt'
p2181
sg5
I2
sg6
S'https://open.spotify.com/track/4XNxIEYsEjK2Cu67brXBGq'
p2182
sg8
S'Proletar (Hvor Jeg St\xc3\xa5r)'
p2183
ssS'660VPY6oYeADAn8xWrR9O1'
p2184
(dp2185
g3
S'Abbaz'
p2186
sg5
I1
sg6
S'https://open.spotify.com/track/660VPY6oYeADAn8xWrR9O1'
p2187
sg8
S'Kom V\xc3\xa6k'
p2188
ssS'5M8ykNrmq0Qp2KV85QzIDz'
p2189
(dp2190
g3
S'Ida Una'
p2191
sg5
I1
sg6
S'https://open.spotify.com/track/5M8ykNrmq0Qp2KV85QzIDz'
p2192
sg8
S'One'
p2193
ssS'31MkGwj0SWgZaTvEt5Hgxv'
p2194
(dp2195
g3
S'P!nk'
p2196
sg5
I9
sg6
S'https://open.spotify.com/track/31MkGwj0SWgZaTvEt5Hgxv'
p2197
sg8
S'What About Us'
p2198
ssS'0PDUDa38GO8lMxLCRc4lL1'
p2199
(dp2200
g3
S'ZAYN'
p2201
sg5
I5
sg6
S'https://open.spotify.com/track/0PDUDa38GO8lMxLCRc4lL1'
p2202
sg8
S'PILLOWTALK'
p2203
ssS'3pC1ILr9KzmQLMe8Kn5QBG'
p2204
(dp2205
g3
S'DJ Khaled'
p2206
sg5
I2
sg6
S'https://open.spotify.com/track/3pC1ILr9KzmQLMe8Kn5QBG'
p2207
sg8
S'To the Max'
p2208
ssS'6LOCAhFzZiavHcLJucLuDy'
p2209
(dp2210
g3
S'DJ Khaled'
p2211
sg5
I1
sg6
S'https://open.spotify.com/track/6LOCAhFzZiavHcLJucLuDy'
p2212
sg8
S"Don't Quit"
p2213
ssS'09QBaoIADM0kROpPl8cgWt'
p2214
(dp2215
g3
S'Page Four'
p2216
sg5
I7
sg6
S'https://open.spotify.com/track/09QBaoIADM0kROpPl8cgWt'
p2217
sg8
S'Kommet For At Blive'
p2218
ssS'57eUYbfqY96f33CUCJBqna'
p2219
(dp2220
g3
S'Ude Af Kontrol'
p2221
sg5
I3
sg6
S'https://open.spotify.com/track/57eUYbfqY96f33CUCJBqna'
p2222
sg8
S'H\xc3\xa5rdere End Dem'
p2223
ssS'35QZaWQRkmnAVqBF1TLCxQ'
p2224
(dp2225
g3
S'Ed Sheeran'
p2226
sg5
I9
sg6
S'https://open.spotify.com/track/35QZaWQRkmnAVqBF1TLCxQ'
p2227
sg8
S'Nancy Mulligan'
p2228
ssS'1tRzdmuBt64Bg1YK5dO9zV'
p2229
(dp2230
g3
S'Medina'
p2231
sg5
I1
sg6
S'https://open.spotify.com/track/1tRzdmuBt64Bg1YK5dO9zV'
p2232
sg8
S'Det Smukkeste'
p2233
ssS'3VRk65lHSwqd90TAkQqhvB'
p2234
(dp2235
g3
S'Katy Perry'
p2236
sg5
I2
sg6
S'https://open.spotify.com/track/3VRk65lHSwqd90TAkQqhvB'
p2237
sg8
S'Swish Swish'
p2238
ssS'26wqgAnehb4gLxdaOUhziT'
p2239
(dp2240
g3
S'Bro'
p2241
sg5
I10
sg6
S'https://open.spotify.com/track/26wqgAnehb4gLxdaOUhziT'
p2242
sg8
S'Hvor Er Du Bro?'
p2243
ssS'1aJ1xeEQ1ivKGnTeuYolJk'
p2244
(dp2245
g3
S'Hook N Sling'
p2246
sg5
I6
sg6
S'https://open.spotify.com/track/1aJ1xeEQ1ivKGnTeuYolJk'
p2247
sg8
S"If You're Hearing This"
p2248
ssS'3kxfsdsCpFgN412fpnW85Y'
p2249
(dp2250
g3
S'Childish Gambino'
p2251
sg5
I38
sg6
S'https://open.spotify.com/track/3kxfsdsCpFgN412fpnW85Y'
p2252
sg8
S'Redbone'
p2253
ssS'1mDGDb2fUmUMdqV3tb8VKQ'
p2254
(dp2255
g3
S'Halsey'
p2256
sg5
I1
sg6
S'https://open.spotify.com/track/1mDGDb2fUmUMdqV3tb8VKQ'
p2257
sg8
S'Now Or Never'
p2258
ssS'6MbtUcXRSDlJ4Zu3CYWMEG'
p2259
(dp2260
g3
S'Lukas Graham'
p2261
sg5
I8
sg6
S'https://open.spotify.com/track/6MbtUcXRSDlJ4Zu3CYWMEG'
p2262
sg8
S'What Happened To Perfect'
p2263
ssS'0dFiiODrnuKpf1N9xVe8n7'
p2264
(dp2265
g3
S'Ude Af Kontrol'
p2266
sg5
I5
sg6
S'https://open.spotify.com/track/0dFiiODrnuKpf1N9xVe8n7'
p2267
sg8
S'H\xc3\xa6lder Op'
p2268
ssS'3qyeNnFY67zX6VmmIbzPsL'
p2269
(dp2270
g3
S'Mike Perry'
p2271
sg5
I3
sg6
S'https://open.spotify.com/track/3qyeNnFY67zX6VmmIbzPsL'
p2272
sg8
S'Body to Body'
p2273
ssS'0vbbhcA6okLzvsy6WSTlLg'
p2274
(dp2275
g3
S'Rudimental'
p2276
sg5
I1
sg6
S'https://open.spotify.com/track/0vbbhcA6okLzvsy6WSTlLg'
p2277
sg8
S'Lay It All On Me (feat. Ed Sheeran)'
p2278
ssS'4sPmO7WMQUAf45kwMOtONw'
p2279
(dp2280
g3
S'Adele'
p2281
sg5
I10
sg6
S'https://open.spotify.com/track/4sPmO7WMQUAf45kwMOtONw'
p2282
sg8
S'Hello'
p2283
ssS'1j4kHkkpqZRBwE0A4CN4Yv'
p2284
(dp2285
g3
S'ZAYN'
p2286
sg5
I5
sg6
S'https://open.spotify.com/track/1j4kHkkpqZRBwE0A4CN4Yv'
p2287
sg8
S'Dusk Till Dawn - Radio Edit'
p2288
ssS'7e4u7NoSukAJUt1S1ptX7B'
p2289
(dp2290
g3
S'Mads B'
p2291
sg5
I2
sg6
S'https://open.spotify.com/track/7e4u7NoSukAJUt1S1ptX7B'
p2292
sg8
S'Gokkesok'
p2293
ssS'6BaCraQ9xeLYg4Sb9TBT2X'
p2294
(dp2295
g3
S'Calvin Harris'
p2296
sg5
I1
sg6
S'https://open.spotify.com/track/6BaCraQ9xeLYg4Sb9TBT2X'
p2297
sg8
S'Feels'
p2298
ssS'6875MeXyCW0wLyT72Eetmo'
p2299
(dp2300
g3
S'Hailee Steinfeld'
p2301
sg5
I5
sg6
S'https://open.spotify.com/track/6875MeXyCW0wLyT72Eetmo'
p2302
sg8
S'Starving'
p2303
ssS'6R6ihJhRbgu7JxJKIbW57w'
p2304
(dp2305
g3
S'Frank Ocean'
p2306
sg5
I1
sg6
S'https://open.spotify.com/track/6R6ihJhRbgu7JxJKIbW57w'
p2307
sg8
S'Provider'
p2308
ssS'2ekn2ttSfGqwhhate0LSR0'
p2309
(dp2310
g3
S'Dua Lipa'
p2311
sg5
I13
sg6
S'https://open.spotify.com/track/2ekn2ttSfGqwhhate0LSR0'
p2312
sg8
S'New Rules'
p2313
ssS'41ZZVPycoG1LY9od5BK0vl'
p2314
(dp2315
g3
S'Brandon Beal'
p2316
sg5
I5
sg6
S'https://open.spotify.com/track/41ZZVPycoG1LY9od5BK0vl'
p2317
sg8
S'Paradise (with Olivia Holt)'
p2318
ssS'6gTJaPuj8DT8RjuDJyBgzP'
p2319
(dp2320
g3
S'Ed Sheeran'
p2321
sg5
I1
sg6
S'https://open.spotify.com/track/6gTJaPuj8DT8RjuDJyBgzP'
p2322
sg8
S"Don't"
p2323
ssS'3T7dNA7O8c3Axj5WyDNcH3'
p2324
(dp2325
g3
S'Brenda Lee'
p2326
sg5
I1
sg6
S'https://open.spotify.com/track/3T7dNA7O8c3Axj5WyDNcH3'
p2327
sg8
S"Rockin' Around The Christmas Tree - Single Version"
p2328
ssS'5q5gzmbBS5yQzos2BvVr1t'
p2329
(dp2330
g3
S'M\xc3\x98'
p2331
sg5
I16
sg6
S'https://open.spotify.com/track/5q5gzmbBS5yQzos2BvVr1t'
p2332
sg8
S'Nights With You'
p2333
ssS'3DXncPQOG4VBw3QHh3S817'
p2334
(dp2335
g3
S'DJ Khaled'
p2336
sg5
I20
sg6
S'https://open.spotify.com/track/3DXncPQOG4VBw3QHh3S817'
p2337
sg8
S"I'm the One"
p2338
ssS'0wPUbKfAwcaTievVCEaMvf'
p2339
(dp2340
g3
S'Molo'
p2341
sg5
I42
sg6
S'https://open.spotify.com/track/0wPUbKfAwcaTievVCEaMvf'
p2342
sg8
S'Nu'
p2343
ssS'6MbH1QiphMCPTqVEVC7UYi'
p2344
(dp2345
g3
S'Drake'
p2346
sg5
I1
sg6
S'https://open.spotify.com/track/6MbH1QiphMCPTqVEVC7UYi'
p2347
sg8
S'Nothings Into Somethings'
p2348
ssS'2fQrGHiQOvpL9UgPvtYy6G'
p2349
(dp2350
g3
S'21 Savage'
p2351
sg5
I3
sg6
S'https://open.spotify.com/track/2fQrGHiQOvpL9UgPvtYy6G'
p2352
sg8
S'Bank Account'
p2353
ssS'5aAx2yezTd8zXrkmtKl66Z'
p2354
(dp2355
g3
S'The Weeknd'
p2356
sg5
I39
sg6
S'https://open.spotify.com/track/5aAx2yezTd8zXrkmtKl66Z'
p2357
sg8
S'Starboy'
p2358
ssS'42NpUvd0I2kdIuMXX4nobE'
p2359
(dp2360
g3
S'Nick Jonas'
p2361
sg5
I1
sg6
S'https://open.spotify.com/track/42NpUvd0I2kdIuMXX4nobE'
p2362
sg8
S'Remember I Told You'
p2363
ssS'2BrzlUj1u1CtvaJDGIKpsP'
p2364
(dp2365
g3
S'Noah Cyrus'
p2366
sg5
I13
sg6
S'https://open.spotify.com/track/2BrzlUj1u1CtvaJDGIKpsP'
p2367
sg8
S'Make Me (Cry)'
p2368
ssS'1SJtlNRJDeYHioymcvsqev'
p2369
(dp2370
g3
S'Camila Cabello'
p2371
sg5
I18
sg6
S'https://open.spotify.com/track/1SJtlNRJDeYHioymcvsqev'
p2372
sg8
S'Crying in the Club'
p2373
ssS'46TMmMm6KQrYSJnhsNENYX'
p2374
(dp2375
g3
S'Sleiman'
p2376
sg5
I2
sg6
S'https://open.spotify.com/track/46TMmMm6KQrYSJnhsNENYX'
p2377
sg8
S'Camouflage'
p2378
ssS'1ljgNExHC2hfvhwyWg0Dqs'
p2379
(dp2380
g3
S'Suspekt'
p2381
sg5
I2
sg6
S'https://open.spotify.com/track/1ljgNExHC2hfvhwyWg0Dqs'
p2382
sg8
S'Linen Ud'
p2383
ssS'04DwTuZ2VBdJCCC5TROn7L'
p2384
(dp2385
g3
S'Martin Garrix'
p2386
sg5
I15
sg6
S'https://open.spotify.com/track/04DwTuZ2VBdJCCC5TROn7L'
p2387
sg8
S'In the Name of Love'
p2388
ssS'4fzyvSu73BhGvi96p2zwjL'
p2389
(dp2390
g3
S'Coldplay'
p2391
sg5
I1
sg6
S'https://open.spotify.com/track/4fzyvSu73BhGvi96p2zwjL'
p2392
sg8
S'Christmas Lights'
p2393
ssS'6ULNtDItJ3KUniAOt7iuxv'
p2394
(dp2395
g3
S'DJ Snake'
p2396
sg5
I4
sg6
S'https://open.spotify.com/track/6ULNtDItJ3KUniAOt7iuxv'
p2397
sg8
S"Let Me Love You - Ti\xc3\xabsto's AFTR:HRS Mix"
p2398
ssS'6OZh916QF8XNunWaP97WEZ'
p2399
(dp2400
g3
S'Jonas Blue'
p2401
sg5
I18
sg6
S'https://open.spotify.com/track/6OZh916QF8XNunWaP97WEZ'
p2402
sg8
S'Fast Car'
p2403
ssS'4KS2r97pt1KqDaeeeLw2UA'
p2404
(dp2405
g3
S'Carmon'
p2406
sg5
I3
sg6
S'https://open.spotify.com/track/4KS2r97pt1KqDaeeeLw2UA'
p2407
sg8
S'Handler Med En Pro'
p2408
ssS'4IfJEAf4z5kCZetzg52YoY'
p2409
(dp2410
g3
S'Benjamin Rihan'
p2411
sg5
I1
sg6
S'https://open.spotify.com/track/4IfJEAf4z5kCZetzg52YoY'
p2412
sg8
S'Nok For Mig'
p2413
ssS'4JAyIDXOqNM6qHuZML01uX'
p2414
(dp2415
g3
g2102
sg5
I1
sg6
S'https://open.spotify.com/track/4JAyIDXOqNM6qHuZML01uX'
p2416
sg8
g2102
ssS'6VRghJeP6I0w1KxkdWFfIh'
p2417
(dp2418
g3
S'Imagine Dragons'
p2419
sg5
I3
sg6
S'https://open.spotify.com/track/6VRghJeP6I0w1KxkdWFfIh'
p2420
sg8
S'Believer'
p2421
ssS'40let5SEkFUKuho8FimabB'
p2422
(dp2423
g3
S'Anoflex'
p2424
sg5
I4
sg6
S'https://open.spotify.com/track/40let5SEkFUKuho8FimabB'
p2425
sg8
S'Giz Listen'
p2426
ssS'56fCI6qlI3HOE2rjp9SKAm'
p2427
(dp2428
g3
S'Marcus & Martinus'
p2429
sg5
I3
sg6
S'https://open.spotify.com/track/56fCI6qlI3HOE2rjp9SKAm'
p2430
sg8
S'Like It Like It'
p2431
ssS'6SznMYPQJHzr3IwsAHLId2'
p2432
(dp2433
g3
S'Ed Sheeran'
p2434
sg5
I6
sg6
S'https://open.spotify.com/track/6SznMYPQJHzr3IwsAHLId2'
p2435
sg8
S'Bibia Be Ye Ye'
p2436
ssS'2RKQ6S9N9s0BHmW1zvjaoS'
p2437
(dp2438
g3
S'Rasmus Seebach'
p2439
sg5
I4
sg6
S'https://open.spotify.com/track/2RKQ6S9N9s0BHmW1zvjaoS'
p2440
sg8
S'Under stjernerne p\xc3\xa5 himlen'
p2441
ssS'4wdZdkEugVVorAfzqRqC6N'
p2442
(dp2443
g3
S'Post Malone'
p2444
sg5
I3
sg6
S'https://open.spotify.com/track/4wdZdkEugVVorAfzqRqC6N'
p2445
sg8
S'Candy Paint'
p2446
ssS'2eP5qjSuazVvTEU3MjEu9N'
p2447
(dp2448
g3
S'Niklas'
p2449
sg5
I4
sg6
S'https://open.spotify.com/track/2eP5qjSuazVvTEU3MjEu9N'
p2450
sg8
S'2 Lejligheder'
p2451
ssS'0NiXXAI876aGImAd6rTj8w'
p2452
(dp2453
g3
S'Jonas Blue'
p2454
sg5
I14
sg6
S'https://open.spotify.com/track/0NiXXAI876aGImAd6rTj8w'
p2455
sg8
S'Mama'
p2456
ssS'7i3wz5TsrYJXVVqAW4Fk1q'
p2457
(dp2458
g3
S'Lakserytteren'
p2459
sg5
I1
sg6
S'https://open.spotify.com/track/7i3wz5TsrYJXVVqAW4Fk1q'
p2460
sg8
S'Fuld Denim'
p2461
ssS'1MksGqIztTT6M9R1ErKVs8'
p2462
(dp2463
g3
S'Big Sean'
p2464
sg5
I1
sg6
S'https://open.spotify.com/track/1MksGqIztTT6M9R1ErKVs8'
p2465
sg8
S'No Favors'
p2466
ssS'2CHzlkLD9SQISQzCiSM6f3'
p2467
(dp2468
g3
S'Medina'
p2469
sg5
I12
sg6
S'https://open.spotify.com/track/2CHzlkLD9SQISQzCiSM6f3'
p2470
sg8
S'Det Smukkeste'
p2471
ssS'5AILgpLHx8CQrbThBfSzNn'
p2472
(dp2473
g3
S'Suspekt'
p2474
sg5
I1
sg6
S'https://open.spotify.com/track/5AILgpLHx8CQrbThBfSzNn'
p2475
sg8
S'St\xc3\xa5r Stadig'
p2476
ssS'5SleX0NFeODNY7Xenal3gr'
p2477
(dp2478
g3
S'Zara Larsson'
p2479
sg5
I6
sg6
S'https://open.spotify.com/track/5SleX0NFeODNY7Xenal3gr'
p2480
sg8
S'Only You'
p2481
ssS'5fX2oPyLCe5mBKqGDbOWqC'
p2482
(dp2483
g3
S'James TW'
p2484
sg5
I42
sg6
S'https://open.spotify.com/track/5fX2oPyLCe5mBKqGDbOWqC'
p2485
sg8
S'When You Love Someone'
p2486
ssS'3ZFTkvIE7kyPt6Nu3PEa7V'
p2487
(dp2488
g3
S'Shakira'
p2489
sg5
I1
sg6
S'https://open.spotify.com/track/3ZFTkvIE7kyPt6Nu3PEa7V'
p2490
sg8
S"Hips Don't Lie"
p2491
ssS'5UJshy5HDHdNEVqlJwzsQB'
p2492
(dp2493
g3
S'Bruno Mars'
p2494
sg5
I2
sg6
S'https://open.spotify.com/track/5UJshy5HDHdNEVqlJwzsQB'
p2495
sg8
S'Versace On The Floor (Bruno Mars vs. David Guetta)'
p2496
ssS'5Oh3cW5gnEEKPsHb1WrVWm'
p2497
(dp2498
g3
S'DJ Katch'
p2499
sg5
I3
sg6
S'https://open.spotify.com/track/5Oh3cW5gnEEKPsHb1WrVWm'
p2500
sg8
S'Lights Out (Too Drunk) [feat. Hayley]'
p2501
ssS'4b4KcovePX8Ke2cLIQTLM0'
p2502
(dp2503
g3
S'The Vamps'
p2504
sg5
I3
sg6
S'https://open.spotify.com/track/4b4KcovePX8Ke2cLIQTLM0'
p2505
sg8
S'All Night'
p2506
ssS'1XDS1yMmsnyGcPeGtpumdw'
p2507
(dp2508
g3
S'Kimbo'
p2509
sg5
I1
sg6
S'https://open.spotify.com/track/1XDS1yMmsnyGcPeGtpumdw'
p2510
sg8
S'Ik Sp\xc3\xb8rg'
p2511
ssS'0Zx8khUcEfCFK2AEoIhC92'
p2512
(dp2513
g3
S'Snakehips'
p2514
sg5
I33
sg6
S'https://open.spotify.com/track/0Zx8khUcEfCFK2AEoIhC92'
p2515
sg8
S"Don't Leave"
p2516
ssS'3GVkPk8mqxz0itaAriG1L7'
p2517
(dp2518
g3
S'XXXTENTACION'
p2519
sg5
I7
sg6
S'https://open.spotify.com/track/3GVkPk8mqxz0itaAriG1L7'
p2520
sg8
S'Everybody Dies In Their Nightmares'
p2521
ssS'5ftZG857nd4RToNR7sTLgJ'
p2522
(dp2523
g3
S'Suspekt'
p2524
sg5
I3
sg6
S'https://open.spotify.com/track/5ftZG857nd4RToNR7sTLgJ'
p2525
sg8
S'100% Jesus'
p2526
ssS'6q6rXNIA69aPAACcZMaU1I'
p2527
(dp2528
g3
S'Gulddreng'
p2529
sg5
I25
sg6
S'https://open.spotify.com/track/6q6rXNIA69aPAACcZMaU1I'
p2530
sg8
S'Nemt'
p2531
ssS'7q3iL484DcHXNyhkKd5TST'
p2532
(dp2533
g3
S'Joey Moe'
p2534
sg5
I4
sg6
S'https://open.spotify.com/track/7q3iL484DcHXNyhkKd5TST'
p2535
sg8
S'Udenp\xc3\xa5 Indeni'
p2536
ssS'7Kq16WtEJzdRSNQgdXsn7Y'
p2537
(dp2538
g3
S'Mura Masa'
p2539
sg5
I5
sg6
S'https://open.spotify.com/track/7Kq16WtEJzdRSNQgdXsn7Y'
p2540
sg8
S'Love$ick (feat. A$AP Rocky)'
p2541
ssS'4mxWSdf71VFO52qFeY0fZt'
p2542
(dp2543
g3
S'Maroon 5'
p2544
sg5
I6
sg6
S'https://open.spotify.com/track/4mxWSdf71VFO52qFeY0fZt'
p2545
sg8
S'What Lovers Do (feat. SZA)'
p2546
ssS'1ADjWm8QNhgNV8yCNNgQ1T'
p2547
(dp2548
g3
S'Ariana Grande'
p2549
sg5
I1
sg6
S'https://open.spotify.com/track/1ADjWm8QNhgNV8yCNNgQ1T'
p2550
sg8
S'Santa Tell Me'
p2551
ssS'4Hf7WnR761jpxPr5D46Bcd'
p2552
(dp2553
g3
S'Shawn Mendes'
p2554
sg5
I38
sg6
S'https://open.spotify.com/track/4Hf7WnR761jpxPr5D46Bcd'
p2555
sg8
S'Treat You Better'
p2556
ssS'6sMvVlFRSns1Ajh3TZlDOM'
p2557
(dp2558
g3
S'Henrik Blomme'
p2559
sg5
I2
sg6
S'https://open.spotify.com/track/6sMvVlFRSns1Ajh3TZlDOM'
p2560
sg8
S'Andale'
p2561
ssS'4fhVodXZARPX0oTuQh8V9l'
p2562
(dp2563
g3
S'Astrid S'
p2564
sg5
I7
sg6
S'https://open.spotify.com/track/4fhVodXZARPX0oTuQh8V9l'
p2565
sg8
S'Breathe'
p2566
ssS'0t2myRMEMCi2SRyg5TEFLp'
p2567
(dp2568
g3
S'Mura Masa'
p2569
sg5
I1
sg6
S'https://open.spotify.com/track/0t2myRMEMCi2SRyg5TEFLp'
p2570
sg8
S'Love$ick'
p2571
ssS'6CDaYzCjahDKqFAIslpveh'
p2572
(dp2573
g3
S'Life of Dillon'
p2574
sg5
I22
sg6
S'https://open.spotify.com/track/6CDaYzCjahDKqFAIslpveh'
p2575
sg8
S'Sex for Breakfast'
p2576
ssS'0dXNQ8dckG4eYfEtq9zcva'
p2577
(dp2578
g3
S'The Vamps'
p2579
sg5
I1
sg6
S'https://open.spotify.com/track/0dXNQ8dckG4eYfEtq9zcva'
p2580
sg8
S'All Night'
p2581
ssS'1Tt4sE4pXi57mTD1GCzsqm'
p2582
(dp2583
g3
S'Rihanna'
p2584
sg5
I4
sg6
S'https://open.spotify.com/track/1Tt4sE4pXi57mTD1GCzsqm'
p2585
sg8
S'Needed Me'
p2586
ssS'618Bq4EN8E5JqXfk9DLnNl'
p2587
(dp2588
g3
S'Hjalmer'
p2589
sg5
I1
sg6
S'https://open.spotify.com/track/618Bq4EN8E5JqXfk9DLnNl'
p2590
sg8
S'Hjem Til En Anden'
p2591
ssS'2tYCgQ7lAX2YCJtvgpdrqe'
p2592
(dp2593
g3
S'TopGunn'
p2594
sg5
I5
sg6
S'https://open.spotify.com/track/2tYCgQ7lAX2YCJtvgpdrqe'
p2595
sg8
S'Fokus'
p2596
ssS'6vSforRhuzsA0D0SO9fG1S'
p2597
(dp2598
g3
S'Charlie Puth'
p2599
sg5
I4
sg6
S'https://open.spotify.com/track/6vSforRhuzsA0D0SO9fG1S'
p2600
sg8
S'One Call Away'
p2601
ssS'0pSBuHjILhNEo55xK1zrRt'
p2602
(dp2603
g3
S'Ayo & Teo'
p2604
sg5
I15
sg6
S'https://open.spotify.com/track/0pSBuHjILhNEo55xK1zrRt'
p2605
sg8
S'Rolex'
p2606
ssS'3FS2e59gXFXrcg7sN2mL5z'
p2607
(dp2608
g3
S'Vigiland'
p2609
sg5
I1
sg6
S'https://open.spotify.com/track/3FS2e59gXFXrcg7sN2mL5z'
p2610
sg8
S'Shots & Squats'
p2611
ssS'27qFFBH6c4v3fQ2DwDCqBA'
p2612
(dp2613
g3
S'Skinz'
p2614
sg5
I3
sg6
S'https://open.spotify.com/track/27qFFBH6c4v3fQ2DwDCqBA'
p2615
sg8
S'Jaloux'
p2616
ssS'3Cc3ssgsvdSaEbFT6KHBAv'
p2617
(dp2618
g3
S'HEDEGAARD'
p2619
sg5
I9
sg6
S'https://open.spotify.com/track/3Cc3ssgsvdSaEbFT6KHBAv'
p2620
sg8
S'That\xc2\xb4s Me'
p2621
ssS'1EaKU4dMbesXXd3BrLCtYG'
p2622
(dp2623
g3
S'Kendrick Lamar'
p2624
sg5
I4
sg6
S'https://open.spotify.com/track/1EaKU4dMbesXXd3BrLCtYG'
p2625
sg8
S'ELEMENT.'
p2626
ssS'0NsZlandaYpsQZ98GjymqZ'
p2627
(dp2628
g3
S'Citybois'
p2629
sg5
I4
sg6
S'https://open.spotify.com/track/0NsZlandaYpsQZ98GjymqZ'
p2630
sg8
S'Jakke'
p2631
ssS'2Inz7gGPGgieN0CTw9TOOs'
p2632
(dp2633
g3
S'JP Cooper'
p2634
sg5
I1
sg6
S'https://open.spotify.com/track/2Inz7gGPGgieN0CTw9TOOs'
p2635
sg8
S'September Song'
p2636
ssS'5knuzwU65gJK7IF5yJsuaW'
p2637
(dp2638
g3
S'Clean Bandit'
p2639
sg5
I40
sg6
S'https://open.spotify.com/track/5knuzwU65gJK7IF5yJsuaW'
p2640
sg8
S'Rockabye (feat. Sean Paul & Anne-Marie)'
p2641
ssS'7aF09WaavZAmAWuUeYxlYD'
p2642
(dp2643
g3
S'OneRepublic'
p2644
sg5
I13
sg6
S'https://open.spotify.com/track/7aF09WaavZAmAWuUeYxlYD'
p2645
sg8
S'Rich Love (with Seeb)'
p2646
ssS'3bWAqKDWg6u1davspr5IkS'
p2647
(dp2648
g3
S'Robin Schulz'
p2649
sg5
I14
sg6
S'https://open.spotify.com/track/3bWAqKDWg6u1davspr5IkS'
p2650
sg8
S'OK'
p2651
ssS'4NPBdIG7JPITGfpIthhuk4'
p2652
(dp2653
g3
S'Citybois'
p2654
sg5
I1
sg6
S'https://open.spotify.com/track/4NPBdIG7JPITGfpIthhuk4'
p2655
sg8
S'Purple Light - Few Wolves & Bastiaan Remix'
p2656
ssS'5cJYVvdNrqw5Ju6761EDEN'
p2657
(dp2658
g3
S'Karl William'
p2659
sg5
I2
sg6
S'https://open.spotify.com/track/5cJYVvdNrqw5Ju6761EDEN'
p2660
sg8
S'Forstenet'
p2661
ssS'2UwbhMie1EAYuTZ0QXeMwl'
p2662
(dp2663
g3
S'XXXTENTACION'
p2664
sg5
I1
sg6
S'https://open.spotify.com/track/2UwbhMie1EAYuTZ0QXeMwl'
p2665
sg8
S'Save Me'
p2666
ssS'14WWzenpaEgQZlqPq2nk4v'
p2667
(dp2668
g3
S'Rihanna'
p2669
sg5
I1
sg6
S'https://open.spotify.com/track/14WWzenpaEgQZlqPq2nk4v'
p2670
sg8
S'Work'
p2671
ssS'6b8Be6ljOzmkOmFslEb23P'
p2672
(dp2673
g3
S'Bruno Mars'
p2674
sg5
I15
sg6
S'https://open.spotify.com/track/6b8Be6ljOzmkOmFslEb23P'
p2675
sg8
S'24K Magic'
p2676
ssS'7iNIg7XDEaYECfWD5dJ9Va'
p2677
(dp2678
g3
S'Justin Bieber'
p2679
sg5
I1
sg6
S'https://open.spotify.com/track/7iNIg7XDEaYECfWD5dJ9Va'
p2680
sg8
S'Friends (with BloodPop\xc2\xae)'
p2681
ssS'6uJwPeBGb3swi85TSr9iIz'
p2682
(dp2683
g3
S'Coldplay'
p2684
sg5
I2
sg6
S'https://open.spotify.com/track/6uJwPeBGb3swi85TSr9iIz'
p2685
sg8
S'Miracles (Someone Special)'
p2686
ssS'4so0Wek9Ig1p6CRCHuINwW'
p2687
(dp2688
g3
S'Bing Crosby'
p2689
sg5
I1
sg6
S'https://open.spotify.com/track/4so0Wek9Ig1p6CRCHuINwW'
p2690
sg8
S'White Christmas'
p2691
ssS'1DRW9bQzt2SE8f7H4KJZyL'
p2692
(dp2693
g3
S'Miguel'
p2694
sg5
I5
sg6
S'https://open.spotify.com/track/1DRW9bQzt2SE8f7H4KJZyL'
p2695
sg8
S'Sky Walker'
p2696
ssS'23luOrEVHMfoX0AhfbQuS6'
p2697
(dp2698
g3
S'Kendrick Lamar'
p2699
sg5
I1
sg6
S'https://open.spotify.com/track/23luOrEVHMfoX0AhfbQuS6'
p2700
sg8
S'FEAR.'
p2701
ssS'7cuKDIg98JYdnfZQCZOdVt'
p2702
(dp2703
g3
S'Alexander Oscar'
p2704
sg5
I1
sg6
S'https://open.spotify.com/track/7cuKDIg98JYdnfZQCZOdVt'
p2705
sg8
S'Ocean View'
p2706
ssS'5DA77EqppDmCTWGovd4oTP'
p2707
(dp2708
g3
S'Cheat Codes'
p2709
sg5
I20
sg6
S'https://open.spotify.com/track/5DA77EqppDmCTWGovd4oTP'
p2710
sg8
S'Sex'
p2711
ssS'3JqIijM4ErYp3vtKjQ9Eoc'
p2712
(dp2713
g3
S'Carmon'
p2714
sg5
I8
sg6
S'https://open.spotify.com/track/3JqIijM4ErYp3vtKjQ9Eoc'
p2715
sg8
S'Slap Af'
p2716
ssS'4h90qkbnW1Qq6pBhoPvwko'
p2717
(dp2718
g3
S'The Weeknd'
p2719
sg5
I6
sg6
S'https://open.spotify.com/track/4h90qkbnW1Qq6pBhoPvwko'
p2720
sg8
S'Sidewalks'
p2721
ssS'6HZILIRieu8S0iqY8kIKhj'
p2722
(dp2723
g3
S'Kendrick Lamar'
p2724
sg5
I14
sg6
S'https://open.spotify.com/track/6HZILIRieu8S0iqY8kIKhj'
p2725
sg8
S'DNA.'
p2726
ssS'2A17f6I4fh6GqYX0J8noGr'
p2727
(dp2728
g3
S'Ed Sheeran'
p2729
sg5
I8
sg6
S'https://open.spotify.com/track/2A17f6I4fh6GqYX0J8noGr'
p2730
sg8
S'Galway Girl - Martin Jensen Remix'
p2731
ssS'7Lgpic8BsBJR4jFrr9abbz'
p2732
(dp2733
g3
S'Robin Schulz'
p2734
sg5
I1
sg6
S'https://open.spotify.com/track/7Lgpic8BsBJR4jFrr9abbz'
p2735
sg8
S"I Believe I'm Fine"
p2736
ssS'7F9vK8hNFMml4GtHsaXui6'
p2737
(dp2738
g3
S'Louis Tomlinson'
p2739
sg5
I12
sg6
S'https://open.spotify.com/track/7F9vK8hNFMml4GtHsaXui6'
p2740
sg8
S'Back to You (feat. Bebe Rexha & Digital Farm Animals)'
p2741
ssS'3oIhthYPSKwAwJLA8JClkV'
p2742
(dp2743
g3
S'Astrid S'
p2744
sg5
I1
sg6
S'https://open.spotify.com/track/3oIhthYPSKwAwJLA8JClkV'
p2745
sg8
S'Such A Boy'
p2746
ssS'11Fo4dAH31K7UZHGqCkCmE'
p2747
(dp2748
g3
S'Axwell /\\ Ingrosso'
p2749
sg5
I19
sg6
S'https://open.spotify.com/track/11Fo4dAH31K7UZHGqCkCmE'
p2750
sg8
S'I Love You'
p2751
ssS'0HLgugZ4F5NXYFNQsbfOD7'
p2752
(dp2753
g3
S'Aura'
p2754
sg5
I1
sg6
S'https://open.spotify.com/track/0HLgugZ4F5NXYFNQsbfOD7'
p2755
sg8
S"Can't Steal The Music"
p2756
ssS'2nYwV62UABTH0NanrwVIdQ'
p2757
(dp2758
g3
S'Rae Sremmurd'
p2759
sg5
I1
sg6
S'https://open.spotify.com/track/2nYwV62UABTH0NanrwVIdQ'
p2760
sg8
S'Perplexing Pegasus'
p2761
ssS'6SUocL0caib4mLHe8ZrZzi'
p2762
(dp2763
g3
S'Rudimental'
p2764
sg5
I1
sg6
S'https://open.spotify.com/track/6SUocL0caib4mLHe8ZrZzi'
p2765
sg8
S'Sun Comes Up'
p2766
ssS'0B48113ZG9UfkWWt7qD9xX'
p2767
(dp2768
g3
S'Miley Cyrus'
p2769
sg5
I2
sg6
S'https://open.spotify.com/track/0B48113ZG9UfkWWt7qD9xX'
p2770
sg8
S'Younger Now'
p2771
ssS'3d9JucRI60arArgQXqtfjJ'
p2772
(dp2773
g3
S'Alesso'
p2774
sg5
I2
sg6
S'https://open.spotify.com/track/3d9JucRI60arArgQXqtfjJ'
p2775
sg8
S'Falling'
p2776
ssS'4mU5iXHeLgbR94siF7p1sY'
p2777
(dp2778
g3
S'The Weeknd'
p2779
sg5
I9
sg6
S'https://open.spotify.com/track/4mU5iXHeLgbR94siF7p1sY'
p2780
sg8
S'Six Feet Under'
p2781
ssS'3rOSwuTsUlJp0Pu0MkN8r8'
p2782
(dp2783
g3
S'Future'
p2784
sg5
I33
sg6
S'https://open.spotify.com/track/3rOSwuTsUlJp0Pu0MkN8r8'
p2785
sg8
S'Mask Off'
p2786
ssS'6gpcs5eMhJwax4mIfKDYQk'
p2787
(dp2788
g3
S'Calvin Harris'
p2789
sg5
I4
sg6
S'https://open.spotify.com/track/6gpcs5eMhJwax4mIfKDYQk'
p2790
sg8
S'Slide'
p2791
ssS'5bcTCxgc7xVfSaMV3RuVke'
p2792
(dp2793
g3
S'Calvin Harris'
p2794
sg5
I16
sg6
S'https://open.spotify.com/track/5bcTCxgc7xVfSaMV3RuVke'
p2795
sg8
S'Feels'
p2796
ssS'0QsvXIfqM0zZoerQfsI9lm'
p2797
(dp2798
g3
S'The Chainsmokers'
p2799
sg5
I13
sg6
S'https://open.spotify.com/track/0QsvXIfqM0zZoerQfsI9lm'
p2800
sg8
S"Don't Let Me Down"
p2801
ssS'0fioLzGM8ngbD1w6fMmm45'
p2802
(dp2803
g3
S'Sam Smith'
p2804
sg5
I1
sg6
S'https://open.spotify.com/track/0fioLzGM8ngbD1w6fMmm45'
p2805
sg8
S"I'm Not The Only One"
p2806
ssS'4qqArAiTPueDxIp7cf87h7'
p2807
(dp2808
g3
S'M\xc3\x98'
p2809
sg5
I24
sg6
S'https://open.spotify.com/track/4qqArAiTPueDxIp7cf87h7'
p2810
sg8
S'Final Song'
p2811
ssS'5hslUAKq9I9CG2bAulFkHN'
p2812
(dp2813
g3
S'Andy Williams'
p2814
sg5
I1
sg6
S'https://open.spotify.com/track/5hslUAKq9I9CG2bAulFkHN'
p2815
sg8
S"It's the Most Wonderful Time of the Year"
p2816
ssS'2nLtzopw4rPReszdYBJU6h'
p2817
(dp2818
g3
S'Linkin Park'
p2819
sg5
I2
sg6
S'https://open.spotify.com/track/2nLtzopw4rPReszdYBJU6h'
p2820
sg8
S'Numb'
p2821
ssS'5dEIB07iXAF6iADQEe6qpe'
p2822
(dp2823
g3
S'Hugo Helmig'
p2824
sg5
I17
sg6
S'https://open.spotify.com/track/5dEIB07iXAF6iADQEe6qpe'
p2825
sg8
S"Please Don't Lie"
p2826
ssS'3a1lNhkSLSkpJE4MSHpDu9'
p2827
(dp2828
g3
S'Post Malone'
p2829
sg5
I36
sg6
S'https://open.spotify.com/track/3a1lNhkSLSkpJE4MSHpDu9'
p2830
sg8
S'Congratulations'
p2831
ssS'51w95jAPQDOWN3M7xopWWh'
p2832
(dp2833
g3
S'Logan Paul'
p2834
sg5
I5
sg6
S'https://open.spotify.com/track/51w95jAPQDOWN3M7xopWWh'
p2835
sg8
S"Help Me Help You (feat. Why Don't We)"
p2836
ssS'61WbtB6ujkpNAsAf5LjF4b'
p2837
(dp2838
g3
S'Katy Perry'
p2839
sg5
I8
sg6
S'https://open.spotify.com/track/61WbtB6ujkpNAsAf5LjF4b'
p2840
sg8
S'Bon app\xc3\xa9tit'
p2841
ssS'6W2OooyxIA7ypic7POmpOy'
p2842
(dp2843
g3
S'Ham VolKan'
p2844
sg5
I4
sg6
S'https://open.spotify.com/track/6W2OooyxIA7ypic7POmpOy'
p2845
sg8
S'Flyva'
p2846
ssS'6foxplXS0YEq8cO374Lty4'
p2847
(dp2848
g3
S'Lil Pump'
p2849
sg5
I2
sg6
S'https://open.spotify.com/track/6foxplXS0YEq8cO374Lty4'
p2850
sg8
S'Gucci Gang'
p2851
ssS'68jslccsnowy0J8PlGLRNj'
p2852
(dp2853
g3
S'Albert Dyrlund'
p2854
sg5
I16
sg6
S'https://open.spotify.com/track/68jslccsnowy0J8PlGLRNj'
p2855
sg8
S'Emoji'
p2856
ssS'4DfxFGwreu9BquiLRClwh8'
p2857
(dp2858
g3
S'John De Sohn'
p2859
sg5
I8
sg6
S'https://open.spotify.com/track/4DfxFGwreu9BquiLRClwh8'
p2860
sg8
S'Hum With Me'
p2861
ssS'4uzaKmkExQmSM4ku8HmTxl'
p2862
(dp2863
g3
S'Christopher'
p2864
sg5
I10
sg6
S'https://open.spotify.com/track/4uzaKmkExQmSM4ku8HmTxl'
p2865
sg8
S'Heartbeat'
p2866
ssS'6WbADFqMvR8N5u0BvtsWQE'
p2867
(dp2868
g3
S'Avicii'
p2869
sg5
I9
sg6
S'https://open.spotify.com/track/6WbADFqMvR8N5u0BvtsWQE'
p2870
sg8
S'Without You (feat. Sandro Cavazza)'
p2871
ssS'2IQB5iBapo0Y37Yc0PtIZc'
p2872
(dp2873
g3
S'Lulleaux'
p2874
sg5
I3
sg6
S'https://open.spotify.com/track/2IQB5iBapo0Y37Yc0PtIZc'
p2875
sg8
S'Contact'
p2876
ssS'2fkeWbM6iqTw7oGHTYm2lw'
p2877
(dp2878
g3
S'Drake'
p2879
sg5
I2
sg6
S'https://open.spotify.com/track/2fkeWbM6iqTw7oGHTYm2lw'
p2880
sg8
S'4422'
p2881
ssS'7G0CCC8EnORbfMnLTmaRWt'
p2882
(dp2883
g3
S'Noah Carter'
p2884
sg5
I1
sg6
S'https://open.spotify.com/track/7G0CCC8EnORbfMnLTmaRWt'
p2885
sg8
S'Call Me Over'
p2886
ssS'6I6NX6tjGsxFAsIfGzY9lJ'
p2887
(dp2888
g3
S'J. Cole'
p2889
sg5
I5
sg6
S'https://open.spotify.com/track/6I6NX6tjGsxFAsIfGzY9lJ'
p2890
sg8
S'Deja Vu'
p2891
ssS'75L2KgB1DNkjY28GVB82nS'
p2892
(dp2893
g3
S'Jamaika'
p2894
sg5
I7
sg6
S'https://open.spotify.com/track/75L2KgB1DNkjY28GVB82nS'
p2895
sg8
S'Blodskudt'
p2896
ssS'6bLopGnirdrilrpdVB6Um1'
p2897
(dp2898
g3
S'Sia'
p2899
sg5
I2
sg6
S'https://open.spotify.com/track/6bLopGnirdrilrpdVB6Um1'
p2900
sg8
S'The Greatest'
p2901
ssS'4omUGyar1vBpoHIbik9GCf'
p2902
(dp2903
g3
S'Ukendt Kunstner'
p2904
sg5
I4
sg6
S'https://open.spotify.com/track/4omUGyar1vBpoHIbik9GCf'
p2905
sg8
S'Lige Nu'
p2906
ssS'0Cbl0QjzIL0rMBkrzNh7GI'
p2907
(dp2908
g3
S'Phlake'
p2909
sg5
I1
sg6
S'https://open.spotify.com/track/0Cbl0QjzIL0rMBkrzNh7GI'
p2910
sg8
S'Ouch'
p2911
ssS'1vvNmPOiUuyCbgWmtc6yfm'
p2912
(dp2913
g3
S'Calvin Harris'
p2914
sg5
I11
sg6
S'https://open.spotify.com/track/1vvNmPOiUuyCbgWmtc6yfm'
p2915
sg8
S'My Way'
p2916
ssS'1pdWefS00l8LnQV6BpBj2L'
p2917
(dp2918
g3
S'Sleiman'
p2919
sg5
I2
sg6
S'https://open.spotify.com/track/1pdWefS00l8LnQV6BpBj2L'
p2920
sg8
S'Don Diego'
p2921
ssS'45qOBSqF7nwqUXUsbqJec0'
p2922
(dp2923
g3
S'Benal'
p2924
sg5
I2
sg6
S'https://open.spotify.com/track/45qOBSqF7nwqUXUsbqJec0'
p2925
sg8
S'Uh Babe'
p2926
ssS'3V9DfRoS7JfSkuTyNEsCxQ'
p2927
(dp2928
g3
S'Martin Jensen'
p2929
sg5
I2
sg6
S'https://open.spotify.com/track/3V9DfRoS7JfSkuTyNEsCxQ'
p2930
sg8
S'Wait'
p2931
ssS'0Tt81ZbYRH0Aj04CJBRYWK'
p2932
(dp2933
g3
S'NODE'
p2934
sg5
I21
sg6
S'https://open.spotify.com/track/0Tt81ZbYRH0Aj04CJBRYWK'
p2935
sg8
S'Bl\xc3\xa6st'
p2936
ssS'1Sl3njkhhz8nrSPZroDQ82'
p2937
(dp2938
g3
S'Dimitri Vegas & Like Mike'
p2939
sg5
I6
sg6
S'https://open.spotify.com/track/1Sl3njkhhz8nrSPZroDQ82'
p2940
sg8
S'Complicated (feat. Kiiara)'
p2941
ssS'4Z0l8dIngsalL0QdCun5CE'
p2942
(dp2943
g3
S'Justin Bieber'
p2944
sg5
I1
sg6
S'https://open.spotify.com/track/4Z0l8dIngsalL0QdCun5CE'
p2945
sg8
S'The Christmas Song (Chestnuts Roasting On An Open Fire)'
p2946
ssS'0afhq8XCExXpqazXczTSve'
p2947
(dp2948
g3
S'Ed Sheeran'
p2949
sg5
I32
sg6
S'https://open.spotify.com/track/0afhq8XCExXpqazXczTSve'
p2950
sg8
S'Galway Girl'
p2951
ssS'2ZE3DJuizYTad2S4CvRRhK'
p2952
(dp2953
g3
S'Lauv'
p2954
sg5
I1
sg6
S'https://open.spotify.com/track/2ZE3DJuizYTad2S4CvRRhK'
p2955
sg8
S'Easy Love'
p2956
ssS'1NDxZ7cFAo481dtYWdrUnR'
p2957
(dp2958
g3
S'Maggie Lindemann'
p2959
sg5
I27
sg6
S'https://open.spotify.com/track/1NDxZ7cFAo481dtYWdrUnR'
p2960
sg8
S'Pretty Girl - Cheat Codes X CADE Remix'
p2961
ssS'152lZdxL1OR0ZMW6KquMif'
p2962
(dp2963
g3
S'Khalid'
p2964
sg5
I30
sg6
S'https://open.spotify.com/track/152lZdxL1OR0ZMW6KquMif'
p2965
sg8
S'Location'
p2966
ssS'36RlgMp6EFHKc2NEQ882nF'
p2967
(dp2968
g3
S'Ukendt Kunstner'
p2969
sg5
I35
sg6
S'https://open.spotify.com/track/36RlgMp6EFHKc2NEQ882nF'
p2970
sg8
S'Overleve'
p2971
ssS'4TZy1wLyHec06pwgFYDh1a'
p2972
(dp2973
g3
S'Shawn Mendes'
p2974
sg5
I42
sg6
S'https://open.spotify.com/track/4TZy1wLyHec06pwgFYDh1a'
p2975
sg8
S'Mercy'
p2976
ssS'1akNaJYjNQM8PVrBduqHht'
p2977
(dp2978
g3
S'Dj Guldsmed'
p2979
sg5
I1
sg6
S'https://open.spotify.com/track/1akNaJYjNQM8PVrBduqHht'
p2980
sg8
S'Vi Op'
p2981
ssS'6EcTjceNc3WhEqrWzXIFwA'
p2982
(dp2983
g3
S'Hkeem'
p2984
sg5
I2
sg6
S'https://open.spotify.com/track/6EcTjceNc3WhEqrWzXIFwA'
p2985
sg8
S'Fy faen'
p2986
ssS'64mWFnjL0AvzuBzXVQ3qmp'
p2987
(dp2988
g3
S'Ukendt Kunstner'
p2989
sg5
I16
sg6
S'https://open.spotify.com/track/64mWFnjL0AvzuBzXVQ3qmp'
p2990
sg8
S'Fucking Nummer'
p2991
ssS'3RXkboS74UYzN14xTqzPyY'
p2992
(dp2993
g3
g2102
sg5
I1
sg6
S'https://open.spotify.com/track/3RXkboS74UYzN14xTqzPyY'
p2994
sg8
g2102
ssS'5jVhbZ3QybBB0tdwOpJZ4R'
p2995
(dp2996
g3
S'Sys Bjerre'
p2997
sg5
I1
sg6
S'https://open.spotify.com/track/5jVhbZ3QybBB0tdwOpJZ4R'
p2998
sg8
S"Det'cember - Radio Edit"
p2999
ssS'4gMCKJJzpibteIRw3xZL2R'
p3000
(dp3001
g3
S'Tujamo'
p3002
sg5
I5
sg6
S'https://open.spotify.com/track/4gMCKJJzpibteIRw3xZL2R'
p3003
sg8
S'Drop That Low (When I Dip)'
p3004
ssS'2nUJvBO87SkxCViQsLc9Zr'
p3005
(dp3006
g3
S'Big Shaq'
p3007
sg5
I2
sg6
S'https://open.spotify.com/track/2nUJvBO87SkxCViQsLc9Zr'
p3008
sg8
S"Man's Not Hot"
p3009
ssS'6N1EjQjnvhOjFrF6oUmGPa'
p3010
(dp3011
g3
S'Bryan Adams'
p3012
sg5
I1
sg6
S'https://open.spotify.com/track/6N1EjQjnvhOjFrF6oUmGPa'
p3013
sg8
S"Summer Of '69"
p3014
ssS'5ChkMS8OtdzJeqyybCc9R5'
p3015
(dp3016
g3
S'Michael Jackson'
p3017
sg5
I1
sg6
S'https://open.spotify.com/track/5ChkMS8OtdzJeqyybCc9R5'
p3018
sg8
S'Billie Jean'
p3019
ssS'7qdykONOD1KESBGqyRDSkO'
p3020
(dp3021
g3
S'Dj\xc3\xa4mes Braun'
p3022
sg5
I1
sg6
S'https://open.spotify.com/track/7qdykONOD1KESBGqyRDSkO'
p3023
sg8
S'Fugle'
p3024
ssS'7HGHhLbAklVxGkYdwyeVML'
p3025
(dp3026
g3
S'Vigiland'
p3027
sg5
I24
sg6
S'https://open.spotify.com/track/7HGHhLbAklVxGkYdwyeVML'
p3028
sg8
S'Friday Night'
p3029
ssS'3cNjgVBKTJ1SvKhunrCdVy'
p3030
(dp3031
g3
S'Joel Adams'
p3032
sg5
I18
sg6
S'https://open.spotify.com/track/3cNjgVBKTJ1SvKhunrCdVy'
p3033
sg8
S"Please Don't Go"
p3034
ssS'6OuV4vfyb8v3vGGGksqyKf'
p3035
(dp3036
g3
S'AJR'
p3037
sg5
I2
sg6
S'https://open.spotify.com/track/6OuV4vfyb8v3vGGGksqyKf'
p3038
sg8
S'Weak'
p3039
ssS'1DrfAiQQ9GPoVUHjJm0wAG'
p3040
(dp3041
g3
S'Mads Langer'
p3042
sg5
I4
sg6
S'https://open.spotify.com/track/1DrfAiQQ9GPoVUHjJm0wAG'
p3043
sg8
S'3AM'
p3044
ssS'4cEhVWWBqVf1JJOUdNRB4v'
p3045
(dp3046
g3
S'Juice'
p3047
sg5
I1
sg6
S'https://open.spotify.com/track/4cEhVWWBqVf1JJOUdNRB4v'
p3048
sg8
S'Let Love Be Love'
p3049
ssS'4Q4jmPHwu0wrJvqrld0FQ6'
p3050
(dp3051
g3
S'Zara Larsson'
p3052
sg5
I19
sg6
S'https://open.spotify.com/track/4Q4jmPHwu0wrJvqrld0FQ6'
p3053
sg8
S'I Would Like'
p3054
ssS'06NiQOIYSfeo0FaXdKV1PQ'
p3055
(dp3056
g3
S'Austin Mahone'
p3057
sg5
I3
sg6
S'https://open.spotify.com/track/06NiQOIYSfeo0FaXdKV1PQ'
p3058
sg8
S'Lady'
p3059
ssS'7yyRTcZmCiyzzJlNzGC9Ol'
p3060
(dp3061
g3
S'DRAM'
p3062
sg5
I3
sg6
S'https://open.spotify.com/track/7yyRTcZmCiyzzJlNzGC9Ol'
p3063
sg8
S'Broccoli (feat. Lil Yachty)'
p3064
ssS'3vcHPShfJAFP3TtAAsTHsV'
p3065
(dp3066
g3
S'Sunstroke Project'
p3067
sg5
I3
sg6
S'https://open.spotify.com/track/3vcHPShfJAFP3TtAAsTHsV'
p3068
sg8
S'Hey Mamma - Radio Edit'
p3069
ssS'6Btgsd6Sqp5ARtdtbq5A50'
p3070
(dp3071
g3
S'Mugisho'
p3072
sg5
I5
sg6
S'https://open.spotify.com/track/6Btgsd6Sqp5ARtdtbq5A50'
p3073
sg8
S'Play With You'
p3074
ssS'05X6aMCQR09E6smUmw9qms'
p3075
(dp3076
g3
S'Queen'
p3077
sg5
I1
sg6
S'https://open.spotify.com/track/05X6aMCQR09E6smUmw9qms'
p3078
sg8
S"Thank God It's Christmas - Non-Album Single"
p3079
ssS'7uXAWHUWb9XiR7tXoLw4uD'
p3080
(dp3081
g3
S'Gilli'
p3082
sg5
I42
sg6
S'https://open.spotify.com/track/7uXAWHUWb9XiR7tXoLw4uD'
p3083
sg8
S'Helwa'
p3084
ssS'2VRNYpYmE2ToZQYgiUl4Hc'
p3085
(dp3086
g3
S'Backstreet Boys'
p3087
sg5
I1
sg6
S'https://open.spotify.com/track/2VRNYpYmE2ToZQYgiUl4Hc'
p3088
sg8
S'Christmas Time'
p3089
ssS'4ricyQVd20UQde1jpXCSuJ'
p3090
(dp3091
g3
S'Tony Bennett'
p3092
sg5
I1
sg6
S'https://open.spotify.com/track/4ricyQVd20UQde1jpXCSuJ'
p3093
sg8
S'Winter Wonderland'
p3094
ssS'2771LMNxwf62FTAdpJMQfM'
p3095
(dp3096
g3
S'Cardi B'
p3097
sg5
I7
sg6
S'https://open.spotify.com/track/2771LMNxwf62FTAdpJMQfM'
p3098
sg8
S'Bodak Yellow'
p3099
ssS'3a9TMd2Yrza6HXqqlfMtfy'
p3100
(dp3101
g3
S'Ma\xc3\xaetre Gims'
p3102
sg5
I10
sg6
S'https://open.spotify.com/track/3a9TMd2Yrza6HXqqlfMtfy'
p3103
sg8
S"Est-ce que tu m'aimes ? - Pilule Bleue"
p3104
ssS'6PCUP3dWmTjcTtXY02oFdT'
p3105
(dp3106
g3
S'Ed Sheeran'
p3107
sg5
I40
sg6
S'https://open.spotify.com/track/6PCUP3dWmTjcTtXY02oFdT'
p3108
sg8
S'Castle on the Hill'
p3109
ssS'7aE2eCCGYJt05y9gXr5W3x'
p3110
(dp3111
g3
S'Skinz'
p3112
sg5
I42
sg6
S'https://open.spotify.com/track/7aE2eCCGYJt05y9gXr5W3x'
p3113
sg8
S'Er Derude'
p3114
ssS'7lx4PtPvS63cuNuLvCBxD5'
p3115
(dp3116
g3
S'VAX'
p3117
sg5
I4
sg6
S'https://open.spotify.com/track/7lx4PtPvS63cuNuLvCBxD5'
p3118
sg8
S'Fireproof'
p3119
ssS'0CKnzuE58ooenjDtw8fxnI'
p3120
(dp3121
g3
S'Anne Linnet'
p3122
sg5
I1
sg6
S'https://open.spotify.com/track/0CKnzuE58ooenjDtw8fxnI'
p3123
sg8
S'Lille Messias'
p3124
ssS'6Pox6EbjiwDyItbil8pvKZ'
p3125
(dp3126
g3
S'Ham VolKan'
p3127
sg5
I3
sg6
S'https://open.spotify.com/track/6Pox6EbjiwDyItbil8pvKZ'
p3128
sg8
S'Arrivederci'
p3129
ssS'0tjfognbowyFM3RHTdxjPK'
p3130
(dp3131
g3
S'Troye Sivan'
p3132
sg5
I1
sg6
S'https://open.spotify.com/track/0tjfognbowyFM3RHTdxjPK'
p3133
sg8
S'FOOLS'
p3134
ssS'5pvVAwQbuFoR7LkcicrKnk'
p3135
(dp3136
g3
S'Vice'
p3137
sg5
I4
sg6
S'https://open.spotify.com/track/5pvVAwQbuFoR7LkcicrKnk'
p3138
sg8
S'Obsession (feat. Jon Bellion)'
p3139
ssS'184HI8TB2GGFMkgOQvVwYW'
p3140
(dp3141
g3
S'Sleiman'
p3142
sg5
I20
sg6
S'https://open.spotify.com/track/184HI8TB2GGFMkgOQvVwYW'
p3143
sg8
S'Camouflage'
p3144
ssS'104buTcnP2AsxqB7U1FIZ4'
p3145
(dp3146
g3
S'Linkin Park'
p3147
sg5
I1
sg6
S'https://open.spotify.com/track/104buTcnP2AsxqB7U1FIZ4'
p3148
sg8
S'Heavy (feat. Kiiara)'
p3149
ssS'2H3wWrnO758y0fPH7Ilerg'
p3150
(dp3151
g3
S'XXXTENTACION'
p3152
sg5
I2
sg6
S'https://open.spotify.com/track/2H3wWrnO758y0fPH7Ilerg'
p3153
sg8
S'Depression & Obsession'
p3154
ssS'5f5KGCBUtnR3dTSdNfRcZG'
p3155
(dp3156
g3
S'Jeremih'
p3157
sg5
I1
sg6
S'https://open.spotify.com/track/5f5KGCBUtnR3dTSdNfRcZG'
p3158
sg8
S'I Think Of You'
p3159
ssS'0CcQNd8CINkwQfe1RDtGV6'
p3160
(dp3161
g3
S'Imagine Dragons'
p3162
sg5
I33
sg6
S'https://open.spotify.com/track/0CcQNd8CINkwQfe1RDtGV6'
p3163
sg8
S'Believer'
p3164
ssS'7g04srseIxDHZzOj19Bswq'
p3165
(dp3166
g3
S'Livid'
p3167
sg5
I10
sg6
S'https://open.spotify.com/track/7g04srseIxDHZzOj19Bswq'
p3168
sg8
S'Mon Ami (feat. Shaka Loveless)'
p3169
ssS'3HSVajhOgTDPrpUICXLdSA'
p3170
(dp3171
g3
S'Nik & Jay'
p3172
sg5
I19
sg6
S'https://open.spotify.com/track/3HSVajhOgTDPrpUICXLdSA'
p3173
sg8
S'Hele Vejen'
p3174
ssS'1PSBzsahR2AKwLJgx8ehBj'
p3175
(dp3176
g3
S'Machine Gun Kelly'
p3177
sg5
I10
sg6
S'https://open.spotify.com/track/1PSBzsahR2AKwLJgx8ehBj'
p3178
sg8
S'Bad Things (with Camila Cabello)'
p3179
ssS'278flqoZwDROtHCn2KVBbq'
p3180
(dp3181
g3
S'Suspekt'
p3182
sg5
I1
sg6
S'https://open.spotify.com/track/278flqoZwDROtHCn2KVBbq'
p3183
sg8
S'Pilgrim'
p3184
ssS'7KOlJ92bu51cltsD9KU5I7'
p3185
(dp3186
g3
S'Migos'
p3187
sg5
I4
sg6
S'https://open.spotify.com/track/7KOlJ92bu51cltsD9KU5I7'
p3188
sg8
S'T-Shirt'
p3189
ssS'0D8ZpOXVjapLXrjz5VfZSD'
p3190
(dp3191
g3
S'Sam Smith'
p3192
sg5
I1
sg6
S'https://open.spotify.com/track/0D8ZpOXVjapLXrjz5VfZSD'
p3193
sg8
S'Pray'
p3194
ssS'0Wv5wuenRLI3BcwgT3HPIP'
p3195
(dp3196
g3
S'DJ Snake'
p3197
sg5
I1
sg6
S'https://open.spotify.com/track/0Wv5wuenRLI3BcwgT3HPIP'
p3198
sg8
S'A Different Way (with Lauv)'
p3199
ssS'3m660poUr1chesgkkjQM7P'
p3200
(dp3201
g3
S'Demi Lovato'
p3202
sg5
I2
sg6
S'https://open.spotify.com/track/3m660poUr1chesgkkjQM7P'
p3203
sg8
S'Sorry Not Sorry'
p3204
ssS'3GzzvKNewQi4v5vHf6y5rK'
p3205
(dp3206
g3
S'Rasmus Walter'
p3207
sg5
I1
sg6
S'https://open.spotify.com/track/3GzzvKNewQi4v5vHf6y5rK'
p3208
sg8
S'December December'
p3209
ssS'43ZyHQITOjhciSUUNPVRHc'
p3210
(dp3211
g3
S'Lil Pump'
p3212
sg5
I1
sg6
S'https://open.spotify.com/track/43ZyHQITOjhciSUUNPVRHc'
p3213
sg8
S'Gucci Gang'
p3214
ssS'3ebXMykcMXOcLeJ9xZ17XH'
p3215
(dp3216
g3
S'Martin Garrix'
p3217
sg5
I34
sg6
S'https://open.spotify.com/track/3ebXMykcMXOcLeJ9xZ17XH'
p3218
sg8
S'Scared to Be Lonely'
p3219
ssS'6fujklziTHa8uoM5OQSfIo'
p3220
(dp3221
g3
S'Rae Sremmurd'
p3222
sg5
I18
sg6
S'https://open.spotify.com/track/6fujklziTHa8uoM5OQSfIo'
p3223
sg8
S'Black Beatles'
p3224
ssS'4O15qWjQNzYsYsMPo0brOl'
p3225
(dp3226
g3
S'Benal'
p3227
sg5
I2
sg6
S'https://open.spotify.com/track/4O15qWjQNzYsYsMPo0brOl'
p3228
sg8
S'Hvor G\xc3\xa5r Du Hen'
p3229
ssS'2LPUvD5DDOO4UYGkWgjI2C'
p3230
(dp3231
g3
S'Stormzy'
p3232
sg5
I1
sg6
S'https://open.spotify.com/track/2LPUvD5DDOO4UYGkWgjI2C'
p3233
sg8
S'Shut Up'
p3234
ssS'1EdI0MqwPcLqCandN3sXfx'
p3235
(dp3236
g3
S'Avicii'
p3237
sg5
I1
sg6
S'https://open.spotify.com/track/1EdI0MqwPcLqCandN3sXfx'
p3238
sg8
S'Pure Grinding - iSHi Remix'
p3239
ssS'6UjfByV1lDLW0SOVQA4NAi'
p3240
(dp3241
g3
S'Drake'
p3242
sg5
I3
sg6
S'https://open.spotify.com/track/6UjfByV1lDLW0SOVQA4NAi'
p3243
sg8
S'Gyalchester'
p3244
ssS'03lq55g82Acj75uyIuFgAC'
p3245
(dp3246
g3
S'Noah Carter'
p3247
sg5
I10
sg6
S'https://open.spotify.com/track/03lq55g82Acj75uyIuFgAC'
p3248
sg8
S'Do You'
p3249
ssS'7floNISpH8VF4z4459Qo18'
p3250
(dp3251
g3
S'XXXTENTACION'
p3252
sg5
I2
sg6
S'https://open.spotify.com/track/7floNISpH8VF4z4459Qo18'
p3253
sg8
S'Look At Me!'
p3254
ssS'3PEgB3fkiojxms35ntsTgs'
p3255
(dp3256
g3
S'Axwell /\\ Ingrosso'
p3257
sg5
I11
sg6
S'https://open.spotify.com/track/3PEgB3fkiojxms35ntsTgs'
p3258
sg8
S'More Than You Know'
p3259
ssS'4hI5PS8GWCftS1AUgNlJV1'
p3260
(dp3261
g3
S'Molo'
p3262
sg5
I27
sg6
S'https://open.spotify.com/track/4hI5PS8GWCftS1AUgNlJV1'
p3263
sg8
S'Skejsen'
p3264
ssS'7rjLH0lYtYrNZoZPfE6M0e'
p3265
(dp3266
g3
S'Suspekt'
p3267
sg5
I8
sg6
S'https://open.spotify.com/track/7rjLH0lYtYrNZoZPfE6M0e'
p3268
sg8
S'H\xc3\xa6ld Op'
p3269
ssS'0gtSPYz0OHoF7k09Auq1uC'
p3270
(dp3271
g3
S'Dua Lipa'
p3272
sg5
I1
sg6
S'https://open.spotify.com/track/0gtSPYz0OHoF7k09Auq1uC'
p3273
sg8
S"Thinking 'Bout You"
p3274
ssS'0jf1p05Ysww7I9nlFd6sPW'
p3275
(dp3276
g3
S'Tiril'
p3277
sg5
I1
sg6
S'https://open.spotify.com/track/0jf1p05Ysww7I9nlFd6sPW'
p3278
sg8
S'Now I Know (What I Will Give You For Christmas)'
p3279
ssS'4u0O5Ain4CTemGmLQtvbRU'
p3280
(dp3281
g3
S'MAIA'
p3282
sg5
I1
sg6
S'https://open.spotify.com/track/4u0O5Ain4CTemGmLQtvbRU'
p3283
sg8
S"Du' K\xc3\xa6rlighed For Mig"
p3284
ssS'1XRTXNP8eLpWXfso8Q4dC5'
p3285
(dp3286
g3
S'Mike Perry'
p3287
sg5
I6
sg6
S'https://open.spotify.com/track/1XRTXNP8eLpWXfso8Q4dC5'
p3288
sg8
S'Talk About It'
p3289
ssS'7aiVBCp1ibIWE5GeHkbtxr'
p3290
(dp3291
g3
S'Britney Spears'
p3292
sg5
I1
sg6
S'https://open.spotify.com/track/7aiVBCp1ibIWE5GeHkbtxr'
p3293
sg8
S'My Only Wish (This Year)'
p3294
ssS'0UeYCHOETPfai02uskjJ3x'
p3295
(dp3296
g3
S'Bag Raiders'
p3297
sg5
I4
sg6
S'https://open.spotify.com/track/0UeYCHOETPfai02uskjJ3x'
p3298
sg8
S'Shooting Stars'
p3299
ssS'1nWRwihlQeUoCIjZU3W0Cv'
p3300
(dp3301
g3
S'KESI'
p3302
sg5
I27
sg6
S'https://open.spotify.com/track/1nWRwihlQeUoCIjZU3W0Cv'
p3303
sg8
S'Consigliere'
p3304
ssS'5EdbjgBXns1RIP1YGnSm9u'
p3305
(dp3306
g3
S'Blak'
p3307
sg5
I10
sg6
S'https://open.spotify.com/track/5EdbjgBXns1RIP1YGnSm9u'
p3308
sg8
S'Banken'
p3309
ssS'48w8N1ZHC1bA9nKiRjKrXi'
p3310
(dp3311
g3
S'Phlake'
p3312
sg5
I9
sg6
S'https://open.spotify.com/track/48w8N1ZHC1bA9nKiRjKrXi'
p3313
sg8
S'Gazette'
p3314
ssS'2FM1zCMO0OE9g6JqmT9p36'
p3315
(dp3316
g3
S'Anja Nissen'
p3317
sg5
I2
sg6
S'https://open.spotify.com/track/2FM1zCMO0OE9g6JqmT9p36'
p3318
sg8
S'Where I Am'
p3319
ssS'02WacdrRpm4zlP8H7X6bnQ'
p3320
(dp3321
g3
S'Calum Scott'
p3322
sg5
I40
sg6
S'https://open.spotify.com/track/02WacdrRpm4zlP8H7X6bnQ'
p3323
sg8
S'Dancing On My Own'
p3324
ssS'3zAUQH6We2RZ1LaDusCJbX'
p3325
(dp3326
g3
S'Carmon'
p3327
sg5
I6
sg6
S'https://open.spotify.com/track/3zAUQH6We2RZ1LaDusCJbX'
p3328
sg8
S'Numero Uno'
p3329
ssS'0Ws8D3EWUDgY962Xftb0h5'
p3330
(dp3331
g3
S'Calvin Harris'
p3332
sg5
I1
sg6
S'https://open.spotify.com/track/0Ws8D3EWUDgY962Xftb0h5'
p3333
sg8
S'Cash Out'
p3334
ssS'5p3NP9mQblDsVJLdfNZJ3I'
p3335
(dp3336
g3
S'Kendrick Lamar'
p3337
sg5
I1
sg6
S'https://open.spotify.com/track/5p3NP9mQblDsVJLdfNZJ3I'
p3338
sg8
S'GOD.'
p3339
ssS'5tLBOSKTeGUgbkG6cWDnBN'
p3340
(dp3341
g3
S'Emil Stabil'
p3342
sg5
I26
sg6
S'https://open.spotify.com/track/5tLBOSKTeGUgbkG6cWDnBN'
p3343
sg8
S'Over Alt'
p3344
ssS'0e2WTl90DATKYgsjNN0K6R'
p3345
(dp3346
g3
S'Marcus & Martinus'
p3347
sg5
I1
sg6
S'https://open.spotify.com/track/0e2WTl90DATKYgsjNN0K6R'
p3348
sg8
S'First Kiss'
p3349
ssS'1Uwo1JrakzQTHcWxZ0cfLk'
p3350
(dp3351
g3
S'MGP Allstarz 2017'
p3352
sg5
I1
sg6
S'https://open.spotify.com/track/1Uwo1JrakzQTHcWxZ0cfLk'
p3353
sg8
S'Vi G\xc3\xb8r Det Igen'
p3354
ssS'5GaYKz4Ias2EvplnchRfOX'
p3355
(dp3356
g3
S'Jytte'
p3357
sg5
I1
sg6
S'https://open.spotify.com/track/5GaYKz4Ias2EvplnchRfOX'
p3358
sg8
S'Boytoy'
p3359
ssS'2leYJRaRalMhURt7fZTXf8'
p3360
(dp3361
g3
S'Citybois'
p3362
sg5
I40
sg6
S'https://open.spotify.com/track/2leYJRaRalMhURt7fZTXf8'
p3363
sg8
S'Under 18'
p3364
ssS'2rizacJSyD9S1IQUxUxnsK'
p3365
(dp3366
g3
S'The Chainsmokers'
p3367
sg5
I8
sg6
S'https://open.spotify.com/track/2rizacJSyD9S1IQUxUxnsK'
p3368
sg8
S'All We Know'
p3369
ssS'3UndQ3lrIWoFcD8xyJayJD'
p3370
(dp3371
g3
S'Lukas Graham'
p3372
sg5
I1
sg6
S'https://open.spotify.com/track/3UndQ3lrIWoFcD8xyJayJD'
p3373
sg8
S"You're Not There - Grey Remix"
p3374
ssS'0tgVpDi06FyKpA1z0VMD4v'
p3375
(dp3376
g3
S'Ed Sheeran'
p3377
sg5
I32
sg6
S'https://open.spotify.com/track/0tgVpDi06FyKpA1z0VMD4v'
p3378
sg8
S'Perfect'
p3379
ssS'7c5Ny3skYBWh5ByNpaUcZZ'
p3380
(dp3381
g3
S'Molo'
p3382
sg5
I38
sg6
S'https://open.spotify.com/track/7c5Ny3skYBWh5ByNpaUcZZ'
p3383
sg8
S'B\xc3\xb8lgen'
p3384
ssS'2Vdub5mY4lad7w64bFPUez'
p3385
(dp3386
g3
S'Pitbull'
p3387
sg5
I2
sg6
S'https://open.spotify.com/track/2Vdub5mY4lad7w64bFPUez'
p3388
sg8
S'Hey Ma (with Pitbull & J Balvin feat. Camila Cabello) - Spanish Version'
p3389
ssS'1Mxt9vwsCpCrAm9uV3WP3c'
p3390
(dp3391
g3
S'LIGA'
p3392
sg5
I1
sg6
S'https://open.spotify.com/track/1Mxt9vwsCpCrAm9uV3WP3c'
p3393
sg8
S'Du Er Ikke Alene'
p3394
ssS'6cAKeFFYW2aClZSUyvqAEW'
p3395
(dp3396
g3
S'Isaiah'
p3397
sg5
I37
sg6
S'https://open.spotify.com/track/6cAKeFFYW2aClZSUyvqAEW'
p3398
sg8
S"It's Gotta Be You"
p3399
ssS'2ZAJVpLD8qmXK5UvWb4Yks'
p3400
(dp3401
g3
S'Gulddreng'
p3402
sg5
I20
sg6
S'https://open.spotify.com/track/2ZAJVpLD8qmXK5UvWb4Yks'
p3403
sg8
S'Legende'
p3404
ssS'78mNkiUBAwHqjT0QOeEqqg'
p3405
(dp3406
g3
S'A R I Z O N A'
p3407
sg5
I1
sg6
S'https://open.spotify.com/track/78mNkiUBAwHqjT0QOeEqqg'
p3408
sg8
S'Oceans Away - Sam Feldt Remix'
p3409
ssS'4bU7syO13ky3ZGJRSXg64S'
p3410
(dp3411
g3
S'Niklas'
p3412
sg5
I11
sg6
S'https://open.spotify.com/track/4bU7syO13ky3ZGJRSXg64S'
p3413
sg8
S'Follow Me'
p3414
ssS'3WcK48G0JoYgyasnFbmgZ3'
p3415
(dp3416
g3
S'Dicte'
p3417
sg5
I1
sg6
S'https://open.spotify.com/track/3WcK48G0JoYgyasnFbmgZ3'
p3418
sg8
S'Dr\xc3\xb8mte Mig En Lille Dr\xc3\xb8m'
p3419
ssS'1EzeZk23CDv5777vY4mbXe'
p3420
(dp3421
g3
S'ZK'
p3422
sg5
I4
sg6
S'https://open.spotify.com/track/1EzeZk23CDv5777vY4mbXe'
p3423
sg8
S'Way Way'
p3424
ssS'4uSymfZ9xqA1Cc6C4L02ck'
p3425
(dp3426
g3
S'Sivas'
p3427
sg5
I6
sg6
S'https://open.spotify.com/track/4uSymfZ9xqA1Cc6C4L02ck'
p3428
sg8
S'Saucen'
p3429
ssS'1hvpDAxZPKjKztOc72sv06'
p3430
(dp3431
g3
S'Band Aid'
p3432
sg5
I1
sg6
S'https://open.spotify.com/track/1hvpDAxZPKjKztOc72sv06'
p3433
sg8
S"Do They Know It's Christmas? - 1984 Version"
p3434
ssS'72Q0FQQo32KJloivv5xge2'
p3435
(dp3436
g3
S'DJ Khaled'
p3437
sg5
I3
sg6
S'https://open.spotify.com/track/72Q0FQQo32KJloivv5xge2'
p3438
sg8
S"I'm the One"
p3439
ssS'1JIKww0T1sRpXayUTaHmST'
p3440
(dp3441
g3
S'Jimilian'
p3442
sg5
I13
sg6
S'https://open.spotify.com/track/1JIKww0T1sRpXayUTaHmST'
p3443
sg8
S'Klip'
p3444
ssS'79NlESqzFSW0hdBWgls4FX'
p3445
(dp3446
g3
S'Kesha'
p3447
sg5
I1
sg6
S'https://open.spotify.com/track/79NlESqzFSW0hdBWgls4FX'
p3448
sg8
S'Praying'
p3449
ssS'5Z3GHaZ6ec9bsiI5BenrbY'
p3450
(dp3451
g3
S'Khalid'
p3452
sg5
I9
sg6
S'https://open.spotify.com/track/5Z3GHaZ6ec9bsiI5BenrbY'
p3453
sg8
S'Young Dumb & Broke'
p3454
ssS'1x5sYLZiu9r5E43kMlt9f8'
p3455
(dp3456
g3
S'Clean Bandit'
p3457
sg5
I30
sg6
S'https://open.spotify.com/track/1x5sYLZiu9r5E43kMlt9f8'
p3458
sg8
S'Symphony (feat. Zara Larsson)'
p3459
ssS'3B54sVLJ402zGa6Xm4YGNe'
p3460
(dp3461
g3
S'French Montana'
p3462
sg5
I14
sg6
S'https://open.spotify.com/track/3B54sVLJ402zGa6Xm4YGNe'
p3463
sg8
S'Unforgettable'
p3464
ssS'2rb5MvYT7ZIxbKW5hfcHx8'
p3465
(dp3466
g3
S'J Balvin'
p3467
sg5
I14
sg6
S'https://open.spotify.com/track/2rb5MvYT7ZIxbKW5hfcHx8'
p3468
sg8
S'Mi Gente'
p3469
ssS'7bBjbtRn3FeauQ7R4pYHk8'
p3470
(dp3471
g3
S'Anders Hemmingsen'
p3472
sg5
I2
sg6
S'https://open.spotify.com/track/7bBjbtRn3FeauQ7R4pYHk8'
p3473
sg8
S'Det For\xc3\xa5r'
p3474
ssS'3bVbQvGVIe4n24AzyXovXh'
p3475
(dp3476
g3
g2102
sg5
I1
sg6
S'https://open.spotify.com/track/3bVbQvGVIe4n24AzyXovXh'
p3477
sg8
g2102
ssS'6520aj0B4FSKGVuKNsOCOi'
p3478
(dp3479
g3
S'Katy Perry'
p3480
sg5
I18
sg6
S'https://open.spotify.com/track/6520aj0B4FSKGVuKNsOCOi'
p3481
sg8
S'Chained To The Rhythm'
p3482
ssS'3gTxO5H5r7H1zacnPG7CKJ'
p3483
(dp3484
g3
S'Nik & Jay'
p3485
sg5
I2
sg6
S'https://open.spotify.com/track/3gTxO5H5r7H1zacnPG7CKJ'
p3486
sg8
S'Magisk'
p3487
ssS'6SwRhMLwNqEi6alNPVG00n'
p3488
(dp3489
g3
S'Kendrick Lamar'
p3490
sg5
I8
sg6
S'https://open.spotify.com/track/6SwRhMLwNqEi6alNPVG00n'
p3491
sg8
S'LOYALTY. FEAT. RIHANNA.'
p3492
ssS'7F1LWA9sIlTorHUo4amGqk'
p3493
(dp3494
g3
S'The Weeknd'
p3495
sg5
I1
sg6
S'https://open.spotify.com/track/7F1LWA9sIlTorHUo4amGqk'
p3496
sg8
S'Reminder - Remix'
p3497
ssS'0tKcYR2II1VCQWT79i5NrW'
p3498
(dp3499
g3
S'Imagine Dragons'
p3500
sg5
I21
sg6
S'https://open.spotify.com/track/0tKcYR2II1VCQWT79i5NrW'
p3501
sg8
S'Thunder'
p3502
ssS'6DNtNfH8hXkqOX1sjqmI7p'
p3503
(dp3504
g3
S'Major Lazer'
p3505
sg5
I35
sg6
S'https://open.spotify.com/track/6DNtNfH8hXkqOX1sjqmI7p'
p3506
sg8
S'Cold Water (feat. Justin Bieber & M\xc3\x98)'
p3507
ssS'5NNlUMcOEOdoOIwwaWXv0k'
p3508
(dp3509
g3
S'Maroon 5'
p3510
sg5
I20
sg6
S'https://open.spotify.com/track/5NNlUMcOEOdoOIwwaWXv0k'
p3511
sg8
S'Cold'
p3512
ssS'5R4HqXCZ6uTjxxnGdLt2S6'
p3513
(dp3514
g3
S'Noah Cyrus'
p3515
sg5
I1
sg6
S'https://open.spotify.com/track/5R4HqXCZ6uTjxxnGdLt2S6'
p3516
sg8
S'Stay Together'
p3517
ssS'7Gf2vkf59IaWPu3Kb5Tdmx'
p3518
(dp3519
g3
S'Gulddreng'
p3520
sg5
I42
sg6
S'https://open.spotify.com/track/7Gf2vkf59IaWPu3Kb5Tdmx'
p3521
sg8
S'Model'
p3522
ssS'5XQMr19TL7Mfksq9zihbOu'
p3523
(dp3524
g3
S'Chris Brown'
p3525
sg5
I8
sg6
S'https://open.spotify.com/track/5XQMr19TL7Mfksq9zihbOu'
p3526
sg8
S'Questions'
p3527
ssS'1sXUWdKx03aP9Gmzft58rt'
p3528
(dp3529
g3
S'Julia Michaels'
p3530
sg5
I28
sg6
S'https://open.spotify.com/track/1sXUWdKx03aP9Gmzft58rt'
p3531
sg8
S'Issues'
p3532
ssS'2tUBqZG2AbRi7Q0BIrVrEj'
p3533
(dp3534
g3
S'Whitney Houston'
p3535
sg5
I1
sg6
S'https://open.spotify.com/track/2tUBqZG2AbRi7Q0BIrVrEj'
p3536
sg8
S'I Wanna Dance with Somebody (Who Loves Me)'
p3537
ssS'6fTsxhIosAU6zXTAhSaemI'
p3538
(dp3539
g3
S'ALMA'
p3540
sg5
I5
sg6
S'https://open.spotify.com/track/6fTsxhIosAU6zXTAhSaemI'
p3541
sg8
S'Chasing Highs'
p3542
ssS'7IWkJwX9C0J7tHurTD7ViL'
p3543
(dp3544
g3
S'Adele'
p3545
sg5
I7
sg6
S'https://open.spotify.com/track/7IWkJwX9C0J7tHurTD7ViL'
p3546
sg8
S'When We Were Young'
p3547
ssS'1zayuwd1YLZsYDArkruHdL'
p3548
(dp3549
g3
S'Kendrick Lamar'
p3550
sg5
I2
sg6
S'https://open.spotify.com/track/1zayuwd1YLZsYDArkruHdL'
p3551
sg8
S'The Heart Part 4'
p3552
ssS'14oOKFGuXu8DqvOe1W8vao'
p3553
(dp3554
g3
S'Katy Perry'
p3555
sg5
I2
sg6
S'https://open.spotify.com/track/14oOKFGuXu8DqvOe1W8vao'
p3556
sg8
S'Bon App\xc3\xa9tit'
p3557
ssS'4BHSjbYylfOH5WAGusDyni'
p3558
(dp3559
g3
S'Kendrick Lamar'
p3560
sg5
I2
sg6
S'https://open.spotify.com/track/4BHSjbYylfOH5WAGusDyni'
p3561
sg8
S'YAH.'
p3562
ssS'11KJSRSgaDxqydKYiD2Jew'
p3563
(dp3564
g3
S'Drake'
p3565
sg5
I9
sg6
S'https://open.spotify.com/track/11KJSRSgaDxqydKYiD2Jew'
p3566
sg8
S'Too Good'
p3567
ssS'2tFgv3sLFNc088KLtjxzVa'
p3568
(dp3569
g3
S'Gabrielle'
p3570
sg5
I23
sg6
S'https://open.spotify.com/track/2tFgv3sLFNc088KLtjxzVa'
p3571
sg8
S'5 fine fr\xc3\xb8kner'
p3572
ssS'26nmH39V3eLOXcRgSBhwdQ'
p3573
(dp3574
g3
S'Danni'
p3575
sg5
I3
sg6
S'https://open.spotify.com/track/26nmH39V3eLOXcRgSBhwdQ'
p3576
sg8
S"Bli' Lige Her"
p3577
ssS'1louJpMmzEicAn7lzDalPW'
p3578
(dp3579
g3
S'Cheat Codes'
p3580
sg5
I28
sg6
S'https://open.spotify.com/track/1louJpMmzEicAn7lzDalPW'
p3581
sg8
S'No Promises (feat. Demi Lovato)'
p3582
ssS'2ISl1zekPsc26sUQpVt8UB'
p3583
(dp3584
g3
S"Shakin' Stevens"
p3585
sg5
I1
sg6
S'https://open.spotify.com/track/2ISl1zekPsc26sUQpVt8UB'
p3586
sg8
S'Merry Christmas Everyone - Remastered'
p3587
ssS'2pJZ1v8HezrAoZ0Fhzby92'
p3588
(dp3589
g3
S'Ed Sheeran'
p3590
sg5
I11
sg6
S'https://open.spotify.com/track/2pJZ1v8HezrAoZ0Fhzby92'
p3591
sg8
S'What Do I Know?'
p3592
ssS'6y2Kaz9QI01XBKJ8mTb7Pf'
p3593
(dp3594
g3
S"Rag'n'Bone Man"
p3595
sg5
I15
sg6
S'https://open.spotify.com/track/6y2Kaz9QI01XBKJ8mTb7Pf'
p3596
sg8
S'Skin'
p3597
ssS'2dWd1ovOTHKTvJ8IsszJ4j'
p3598
(dp3599
g3
S'Salazar'
p3600
sg5
I2
sg6
S'https://open.spotify.com/track/2dWd1ovOTHKTvJ8IsszJ4j'
p3601
sg8
S'Mam\xc3\xa1 (Baila Baila)'
p3602
ssS'1Slwb6dOYkBlWal1PGtnNg'
p3603
(dp3604
g3
S'Ed Sheeran'
p3605
sg5
I41
sg6
S'https://open.spotify.com/track/1Slwb6dOYkBlWal1PGtnNg'
p3606
sg8
S'Thinking Out Loud'
p3607
ssS'3kXqUXnukwkpsxhW8emNC0'
p3608
(dp3609
g3
S'Blanche'
p3610
sg5
I1
sg6
S'https://open.spotify.com/track/3kXqUXnukwkpsxhW8emNC0'
p3611
sg8
S'City Lights'
p3612
ssS'3zoYkqS4y2BsGVShPL2nTE'
p3613
(dp3614
g3
S'CNCO'
p3615
sg5
I1
sg6
S'https://open.spotify.com/track/3zoYkqS4y2BsGVShPL2nTE'
p3616
sg8
S'Reggaet\xc3\xb3n Lento (Remix) [CNCO & Little Mix]'
p3617
ssS'6U9DkOyy5hLDTdEALgSVDX'
p3618
(dp3619
g3
S'Faustix'
p3620
sg5
I15
sg6
S'https://open.spotify.com/track/6U9DkOyy5hLDTdEALgSVDX'
p3621
sg8
S'Somebody New (feat. Alexander Oscar)'
p3622
ssS'5KzUe016ETZGuuLP7PxzWw'
p3623
(dp3624
g3
S'Justin Bieber'
p3625
sg5
I1
sg6
S'https://open.spotify.com/track/5KzUe016ETZGuuLP7PxzWw'
p3626
sg8
S'Silent Night'
p3627
ssS'265yhmmWClZfBmgNPzwOMP'
p3628
(dp3629
g3
S'Alvaro'
p3630
sg5
I13
sg6
S'https://open.spotify.com/track/265yhmmWClZfBmgNPzwOMP'
p3631
sg8
S'Watching You'
p3632
ssS'00pW24Ogrp16sOxTokbJz4'
p3633
(dp3634
g3
S'ItaloBrothers'
p3635
sg5
I1
sg6
S'https://open.spotify.com/track/00pW24Ogrp16sOxTokbJz4'
p3636
sg8
S'Sorry'
p3637
ssS'2habSXqcJGExM6JJyskY7O'
p3638
(dp3639
g3
S'Miley Cyrus'
p3640
sg5
I20
sg6
S'https://open.spotify.com/track/2habSXqcJGExM6JJyskY7O'
p3641
sg8
S'Malibu'
p3642
ssS'5Ua3GXyHwiSfpNTMjq6m2z'
p3643
(dp3644
g3
S'Little Mix'
p3645
sg5
I6
sg6
S'https://open.spotify.com/track/5Ua3GXyHwiSfpNTMjq6m2z'
p3646
sg8
S'Touch'
p3647
ssS'6i0V12jOa3mr6uu4WYhUBr'
p3648
(dp3649
g3
S'Twenty One Pilots'
p3650
sg5
I10
sg6
S'https://open.spotify.com/track/6i0V12jOa3mr6uu4WYhUBr'
p3651
sg8
S'Heathens'
p3652
ssS'2uITqsPoCdIVABLbrTVevi'
p3653
(dp3654
g3
S'KIDD'
p3655
sg5
I9
sg6
S'https://open.spotify.com/track/2uITqsPoCdIVABLbrTVevi'
p3656
sg8
S'Bedre'
p3657
ssS'6zQMbR8e1AQyRDmKUBxoz5'
p3658
(dp3659
g3
S'Marcus & Martinus'
p3660
sg5
I1
sg6
S'https://open.spotify.com/track/6zQMbR8e1AQyRDmKUBxoz5'
p3661
sg8
S'Make You Believe In Love'
p3662
ssS'5nA67Y0XX9JipZwYxX7Gl7'
p3663
(dp3664
g3
S'Niall Horan'
p3665
sg5
I3
sg6
S'https://open.spotify.com/track/5nA67Y0XX9JipZwYxX7Gl7'
p3666
sg8
S'This Town'
p3667
ssS'72yNREiy2DStl4srRmY30f'
p3668
(dp3669
g3
S'F\xc3\xa6tr'
p3670
sg5
I2
sg6
S'https://open.spotify.com/track/72yNREiy2DStl4srRmY30f'
p3671
sg8
S'Mi Amor'
p3672
ssS'0SuG9kyzGRpDqrCWtgD6Lq'
p3673
(dp3674
g3
S'Ed Sheeran'
p3675
sg5
I1
sg6
S'https://open.spotify.com/track/0SuG9kyzGRpDqrCWtgD6Lq'
p3676
sg8
S'Give Me Love'
p3677
ssS'10mqz0d6uiVNYa1ng4QlWl'
p3678
(dp3679
g3
S'Gilli'
p3680
sg5
I27
sg6
S'https://open.spotify.com/track/10mqz0d6uiVNYa1ng4QlWl'
p3681
sg8
S'La Varrio (El Barrio)'
p3682
ssS'7wiESxCGoUkRdgZF2JOLZu'
p3683
(dp3684
g3
S'Phil Spector'
p3685
sg5
I1
sg6
S'https://open.spotify.com/track/7wiESxCGoUkRdgZF2JOLZu'
p3686
sg8
S'Sleigh Ride'
p3687
ssS'7MPDF0igrlB71jcP9PiHoF'
p3688
(dp3689
g3
S'Darleens'
p3690
sg5
I1
sg6
S'https://open.spotify.com/track/7MPDF0igrlB71jcP9PiHoF'
p3691
sg8
S"It's Gonna Be a Cold Cold Christmas"
p3692
ssS'6fxVffaTuwjgEk5h9QyRjy'
p3693
(dp3694
g3
S'Ed Sheeran'
p3695
sg5
I42
sg6
S'https://open.spotify.com/track/6fxVffaTuwjgEk5h9QyRjy'
p3696
sg8
S'Photograph'
p3697
ssS'2kVHAQKVtczchKctctzbtK'
p3698
(dp3699
g3
S'Katy Perry'
p3700
sg5
I11
sg6
S'https://open.spotify.com/track/2kVHAQKVtczchKctctzbtK'
p3701
sg8
S'Swish Swish'
p3702
ssS'1tp1xMJ1uaOktksskS0Fzs'
p3703
(dp3704
g3
S'Gucci Mane'
p3705
sg5
I2
sg6
S'https://open.spotify.com/track/1tp1xMJ1uaOktksskS0Fzs'
p3706
sg8
S'Curve (feat. The Weeknd)'
p3707
ssS'1VdZ0vKfR5jneCmWIUAMxK'
p3708
(dp3709
g3
S'Ed Sheeran'
p3710
sg5
I5
sg6
S'https://open.spotify.com/track/1VdZ0vKfR5jneCmWIUAMxK'
p3711
sg8
S'The A Team'
p3712
ssS'672amoeenDyj593OhDRgak'
p3713
(dp3714
g3
S'Phlake'
p3715
sg5
I42
sg6
S'https://open.spotify.com/track/672amoeenDyj593OhDRgak'
p3716
sg8
S'Angel Zoo'
p3717
ssS'0qDsNqGDsozhw2HciwwuWu'
p3718
(dp3719
g3
S'Scarlet Pleasure'
p3720
sg5
I2
sg6
S'https://open.spotify.com/track/0qDsNqGDsozhw2HciwwuWu'
p3721
sg8
S'Deja Vu'
p3722
ssS'13e6f8t7RKXuxZ0JdaaJRG'
p3723
(dp3724
g3
S'Drake'
p3725
sg5
I2
sg6
S'https://open.spotify.com/track/13e6f8t7RKXuxZ0JdaaJRG'
p3726
sg8
S'Jorja Interlude'
p3727
ssS'6nxQdXa1uAL0rY72wPZu89'
p3728
(dp3729
g3
S'John Legend'
p3730
sg5
I9
sg6
S'https://open.spotify.com/track/6nxQdXa1uAL0rY72wPZu89'
p3731
sg8
S'Love Me Now'
p3732
ssS'6kex4EBAj0WHXDKZMEJaaF'
p3733
(dp3734
g3
S'Jason Derulo'
p3735
sg5
I33
sg6
S'https://open.spotify.com/track/6kex4EBAj0WHXDKZMEJaaF'
p3736
sg8
S'Swalla (feat. Nicki Minaj & Ty Dolla $ign)'
p3737
ssS'2SBr3MK1sdMs8IxdRcN6qz'
p3738
(dp3739
g3
S'Kylie Minogue'
p3740
sg5
I1
sg6
S'https://open.spotify.com/track/2SBr3MK1sdMs8IxdRcN6qz'
p3741
sg8
S'Santa Baby'
p3742
ssS'5gyYRP5xO9UxDjkhaLzEd1'
p3743
(dp3744
g3
S'Hemlig Elsker'
p3745
sg5
I1
sg6
S'https://open.spotify.com/track/5gyYRP5xO9UxDjkhaLzEd1'
p3746
sg8
S'Cocktailkort'
p3747
ssS'10JBIfvldDR2TnT5sphGc2'
p3748
(dp3749
g3
S'Train'
p3750
sg5
I1
sg6
S'https://open.spotify.com/track/10JBIfvldDR2TnT5sphGc2'
p3751
sg8
S'Shake up Christmas'
p3752
ssS'0dL0WL2YvyHAh4AFXx3OwD'
p3753
(dp3754
g3
S'Tim Christensen'
p3755
sg5
I1
sg6
S'https://open.spotify.com/track/0dL0WL2YvyHAh4AFXx3OwD'
p3756
sg8
S'Happy Xmas (War Is Over)'
p3757
ssS'2jfCy43LsFbCQoB6HyetlY'
p3758
(dp3759
g3
S'SJUR'
p3760
sg5
I18
sg6
S'https://open.spotify.com/track/2jfCy43LsFbCQoB6HyetlY'
p3761
sg8
S'Let Me Love You'
p3762
ssS'4vb4mFvYsr2h6enhjJsq9Y'
p3763
(dp3764
g3
S'Adele'
p3765
sg5
I5
sg6
S'https://open.spotify.com/track/4vb4mFvYsr2h6enhjJsq9Y'
p3766
sg8
S'Water Under the Bridge'
p3767
ssS'54LGxQGf5LPXNGjtzDZ5IE'
p3768
(dp3769
g3
S'Zara Larsson'
p3770
sg5
I5
sg6
S'https://open.spotify.com/track/54LGxQGf5LPXNGjtzDZ5IE'
p3771
sg8
S'So Good'
p3772
ssS'08WPvDEsHvTFuB9w8tC2OS'
p3773
(dp3774
g3
S'Sage The Gemini'
p3775
sg5
I1
sg6
S'https://open.spotify.com/track/08WPvDEsHvTFuB9w8tC2OS'
p3776
sg8
S'Now and Later'
p3777
ssS'7ID2dydg1QFuWObmdhwzfm'
p3778
(dp3779
g3
S'The Weeknd'
p3780
sg5
I2
sg6
S'https://open.spotify.com/track/7ID2dydg1QFuWObmdhwzfm'
p3781
sg8
S'Earned It (Fifty Shades Of Grey)'
p3782
ssS'6sRxtweYxiRtivxucnfbTF'
p3783
(dp3784
g3
S'Artigeardit'
p3785
sg5
I1
sg6
S'https://open.spotify.com/track/6sRxtweYxiRtivxucnfbTF'
p3786
sg8
S'v\xc3\xa6rformig'
p3787
ssS'4xZjaqFr8l6VSDINGRijAl'
p3788
(dp3789
g3
S'Suspekt'
p3790
sg5
I1
sg6
S'https://open.spotify.com/track/4xZjaqFr8l6VSDINGRijAl'
p3791
sg8
S'Ingen Slukker 1 Star'
p3792
ssS'0Fv5N0cHBsl4bzCbollCAS'
p3793
(dp3794
g3
S'Big Sean'
p3795
sg5
I1
sg6
S'https://open.spotify.com/track/0Fv5N0cHBsl4bzCbollCAS'
p3796
sg8
S'Moves'
p3797
ssS'7KXjTSCq5nL1LoYtL7XAwS'
p3798
(dp3799
g3
S'Kendrick Lamar'
p3800
sg5
I28
sg6
S'https://open.spotify.com/track/7KXjTSCq5nL1LoYtL7XAwS'
p3801
sg8
S'HUMBLE.'
p3802
ssS'0tXPhc8LvM4dPvoRwI66XQ'
p3803
(dp3804
g3
S'Michael Bubl\xc3\xa9'
p3805
sg5
I1
sg6
S'https://open.spotify.com/track/0tXPhc8LvM4dPvoRwI66XQ'
p3806
sg8
S"I'll Be Home For Christmas"
p3807
ssS'6W84ppZNhBGNJiaPwJULHv'
p3808
(dp3809
g3
S'George Michael'
p3810
sg5
I1
sg6
S'https://open.spotify.com/track/6W84ppZNhBGNJiaPwJULHv'
p3811
sg8
S'December Song (I Dreamed Of Christmas)'
p3812
ssS'1jnQaoe6VpzXuFWirasGI6'
p3813
(dp3814
g3
S'Louis Valuta'
p3815
sg5
I1
sg6
S'https://open.spotify.com/track/1jnQaoe6VpzXuFWirasGI6'
p3816
sg8
S'DENDER'
p3817
ssS'6Na5uKk5SsqZimk0hAWo8y'
p3818
(dp3819
g3
S'Drake'
p3820
sg5
I2
sg6
S'https://open.spotify.com/track/6Na5uKk5SsqZimk0hAWo8y'
p3821
sg8
S'Signs'
p3822
ssS'4gavOCQdZ2g86gkvi17FM7'
p3823
(dp3824
g3
S'Paul McCartney'
p3825
sg5
I1
sg6
S'https://open.spotify.com/track/4gavOCQdZ2g86gkvi17FM7'
p3826
sg8
S'Wonderful Christmastime - Remastered 2011 / Edited Version'
p3827
ssS'5bgwqaRSS3M8WHWruHgSL5'
p3828
(dp3829
g3
S'Khalid'
p3830
sg5
I4
sg6
S'https://open.spotify.com/track/5bgwqaRSS3M8WHWruHgSL5'
p3831
sg8
S'8TEEN'
p3832
ssS'2tftivjRsvKs0jFH9h3Ti8'
p3833
(dp3834
g3
S'Taio Cruz'
p3835
sg5
I1
sg6
S'https://open.spotify.com/track/2tftivjRsvKs0jFH9h3Ti8'
p3836
sg8
S'Hangover'
p3837
ssS'0n2bvWvMwr0gbjcuTm92eW'
p3838
(dp3839
g3
S'Lana Del Rey'
p3840
sg5
I1
sg6
S'https://open.spotify.com/track/0n2bvWvMwr0gbjcuTm92eW'
p3841
sg8
S'Love'
p3842
ssS'2C0qJ8UFv5p4iKEMsETWNP'
p3843
(dp3844
g3
S'Bj\xc3\xb8rnskov'
p3845
sg5
I1
sg6
S'https://open.spotify.com/track/2C0qJ8UFv5p4iKEMsETWNP'
p3846
sg8
S'Videre i Mig'
p3847
ssS'64PfnGAkmThzFuZAaRo7tZ'
p3848
(dp3849
g3
S'TopGunn'
p3850
sg5
I12
sg6
S'https://open.spotify.com/track/64PfnGAkmThzFuZAaRo7tZ'
p3851
sg8
S'L\xc3\xa6nge Siden'
p3852
ssS'3AsAuGTaDQzavZZThyYlop'
p3853
(dp3854
g3
S'NEIKED'
p3855
sg5
I14
sg6
S'https://open.spotify.com/track/3AsAuGTaDQzavZZThyYlop'
p3856
sg8
S'Sexual'
p3857
ssS'3Lfiu5sZ4M4B6JaKMBc0FU'
p3858
(dp3859
g3
S'Ed Sheeran'
p3860
sg5
I10
sg6
S'https://open.spotify.com/track/3Lfiu5sZ4M4B6JaKMBc0FU'
p3861
sg8
S'Barcelona'
p3862
ssS'5EqFKibwuIStKtAW5y8MQt'
p3863
(dp3864
g3
S'Sleiman'
p3865
sg5
I34
sg6
S'https://open.spotify.com/track/5EqFKibwuIStKtAW5y8MQt'
p3866
sg8
S'Don Diego'
p3867
ssS'2nuveZFpiOildSCxXuL44C'
p3868
(dp3869
g3
S'JP Cooper'
p3870
sg5
I4
sg6
S'https://open.spotify.com/track/2nuveZFpiOildSCxXuL44C'
p3871
sg8
S"She's On My Mind"
p3872
ssS'4kfm1uI9QGaoN9qm6CkAMn'
p3873
(dp3874
g3
S'Linkin Park'
p3875
sg5
I1
sg6
S'https://open.spotify.com/track/4kfm1uI9QGaoN9qm6CkAMn'
p3876
sg8
S"What I've Done"
p3877
ssS'69bp2EbF7Q2rqc5N3ylezZ'
p3878
(dp3879
g3
S'Justin Bieber'
p3880
sg5
I32
sg6
S'https://open.spotify.com/track/69bp2EbF7Q2rqc5N3ylezZ'
p3881
sg8
S'Sorry'
p3882
ssS'6gqnGXe4lmImlWcjOrRzv4'
p3883
(dp3884
g3
S'Noah Carter'
p3885
sg5
I18
sg6
S'https://open.spotify.com/track/6gqnGXe4lmImlWcjOrRzv4'
p3886
sg8
S'Come Alive'
p3887
ssS'6eUncuJutsFi9BGO1JaBHh'
p3888
(dp3889
g3
S'Jason Derulo'
p3890
sg5
I6
sg6
S'https://open.spotify.com/track/6eUncuJutsFi9BGO1JaBHh'
p3891
sg8
S"If I'm Lucky"
p3892
ssS'6dqW9qUD0gS3w8gdo1A6k2'
p3893
(dp3894
g3
S'Suspekt'
p3895
sg5
I29
sg6
S'https://open.spotify.com/track/6dqW9qUD0gS3w8gdo1A6k2'
p3896
sg8
S'Hun Blev Bare S\xc3\xa5 Glad'
p3897
ssS'04CttTezSnv71USiiG9mIo'
p3898
(dp3899
g3
S'Hearts & Colors'
p3900
sg5
I13
sg6
S'https://open.spotify.com/track/04CttTezSnv71USiiG9mIo'
p3901
sg8
S'Lighthouse - Andrelli Remix'
p3902
ssS'4iLqG9SeJSnt0cSPICSjxv'
p3903
(dp3904
g3
S'Charlie Puth'
p3905
sg5
I25
sg6
S'https://open.spotify.com/track/4iLqG9SeJSnt0cSPICSjxv'
p3906
sg8
S'Attention'
p3907
ssS'3gWu8y0TKCIdy2mpTqVnTl'
p3908
(dp3909
g3
S'NF'
p3910
sg5
I1
sg6
S'https://open.spotify.com/track/3gWu8y0TKCIdy2mpTqVnTl'
p3911
sg8
S'Let You Down'
p3912
ssS'15dnkAHcHC0vrIUlbiPiqU'
p3913
(dp3914
g3
S'Imagine Dragons'
p3915
sg5
I1
sg6
S'https://open.spotify.com/track/15dnkAHcHC0vrIUlbiPiqU'
p3916
sg8
S'I Don\xe2\x80\x99t Know Why'
p3917
ssS'3V2Jcw7aWwNGNKyvveDgRW'
p3918
(dp3919
g3
S'Sleiman'
p3920
sg5
I8
sg6
S'https://open.spotify.com/track/3V2Jcw7aWwNGNKyvveDgRW'
p3921
sg8
S'Chico'
p3922
ssS'0fYScT65f2M6n14Ak9N6Lj'
p3923
(dp3924
g3
S'Albert Dyrlund'
p3925
sg5
I5
sg6
S'https://open.spotify.com/track/0fYScT65f2M6n14Ak9N6Lj'
p3926
sg8
S'Smuk Uden Filter'
p3927
ssS'6RUKPb4LETWmmr3iAEQktW'
p3928
(dp3929
g3
S'The Chainsmokers'
p3930
sg5
I33
sg6
S'https://open.spotify.com/track/6RUKPb4LETWmmr3iAEQktW'
p3931
sg8
S'Something Just Like This'
p3932
ssS'7M16mAuWuFA5rC9HvkXaGx'
p3933
(dp3934
g3
S'Jax Jones'
p3935
sg5
I5
sg6
S'https://open.spotify.com/track/7M16mAuWuFA5rC9HvkXaGx'
p3936
sg8
S"You Don't Know Me - Radio Edit"
p3937
ssS'3mRcWCyteY2133a7xVMrYw'
p3938
(dp3939
g3
S'Future'
p3940
sg5
I7
sg6
S'https://open.spotify.com/track/3mRcWCyteY2133a7xVMrYw'
p3941
sg8
S'Comin Out Strong'
p3942
ssS'4uoumbAMEMaKdtiv763jKz'
p3943
(dp3944
g3
S'Zara Larsson'
p3945
sg5
I4
sg6
S'https://open.spotify.com/track/4uoumbAMEMaKdtiv763jKz'
p3946
sg8
S'TG4M'
p3947
ssS'1M1RidAKmE1zER8XSjRf2l'
p3948
(dp3949
g3
S'BasedBoys'
p3950
sg5
I2
sg6
S'https://open.spotify.com/track/1M1RidAKmE1zER8XSjRf2l'
p3951
sg8
S'Ingen Bekymringer'
p3952
ssS'2CPqh63wRVscbceKcPxwvv'
p3953
(dp3954
g3
S'Mike Perry'
p3955
sg5
I24
sg6
S'https://open.spotify.com/track/2CPqh63wRVscbceKcPxwvv'
p3956
sg8
S'The Ocean'
p3957
ssS'3KC1y053yiZDHv44Rmw5iD'
p3958
(dp3959
g3
S'Mel & Kim'
p3960
sg5
I1
sg6
S'https://open.spotify.com/track/3KC1y053yiZDHv44Rmw5iD'
p3961
sg8
S"Rockin' Around the Christmas Tree"
p3962
ssS'65MOTX6uSFAnqXl7dlAuId'
p3963
(dp3964
g3
S'Demi Lovato'
p3965
sg5
I1
sg6
S'https://open.spotify.com/track/65MOTX6uSFAnqXl7dlAuId'
p3966
sg8
S'Tell Me You Love Me'
p3967
ssS'0ofbQMrRDsUaVKq2mGLEAb'
p3968
(dp3969
g3
S'Camila Cabello'
p3970
sg5
I10
sg6
S'https://open.spotify.com/track/0ofbQMrRDsUaVKq2mGLEAb'
p3971
sg8
S'Havana'
p3972
ssS'7CiatbFJpSnXnbCiVaGlm0'
p3973
(dp3974
g3
S'JOWST'
p3975
sg5
I1
sg6
S'https://open.spotify.com/track/7CiatbFJpSnXnbCiVaGlm0'
p3976
sg8
S'Grab The Moment'
p3977
ssS'4KGed41iVppbiroOvDGWJd'
p3978
(dp3979
g3
S'Loud Luxury'
p3980
sg5
I10
sg6
S'https://open.spotify.com/track/4KGed41iVppbiroOvDGWJd'
p3981
sg8
S'Show Me'
p3982
ssS'4vv1KjUzPwrtDbozizSfQc'
p3983
(dp3984
g3
S'DJ Khaled'
p3985
sg5
I1
sg6
S'https://open.spotify.com/track/4vv1KjUzPwrtDbozizSfQc'
p3986
sg8
S"Don't Quit"
p3987
ssS'1xznGGDReH1oQq0xzbwXa3'
p3988
(dp3989
g3
S'Drake'
p3990
sg5
I33
sg6
S'https://open.spotify.com/track/1xznGGDReH1oQq0xzbwXa3'
p3991
sg8
S'One Dance'
p3992
ssS'5GXAXm5YOmYT0kL5jHvYBt'
p3993
(dp3994
g3
S'The Weeknd'
p3995
sg5
I42
sg6
S'https://open.spotify.com/track/5GXAXm5YOmYT0kL5jHvYBt'
p3996
sg8
S'I Feel It Coming'
p3997
ssS'5bWo8IsbBgnn59IjvbPE8L'
p3998
(dp3999
g3
S'Brandon Beal'
p4000
sg5
I1
sg6
S'https://open.spotify.com/track/5bWo8IsbBgnn59IjvbPE8L'
p4001
sg8
S'Golden'
p4002
ssS'6IZvVAP7VPPnsGX6bvgkqg'
p4003
(dp4004
g3
S'Kendrick Lamar'
p4005
sg5
I2
sg6
S'https://open.spotify.com/track/6IZvVAP7VPPnsGX6bvgkqg'
p4006
sg8
S'PRIDE.'
p4007
ssS'0lMbuWUpfTWhEmOKxppEau'
p4008
(dp4009
g3
S'Calvin Harris'
p4010
sg5
I12
sg6
S'https://open.spotify.com/track/0lMbuWUpfTWhEmOKxppEau'
p4011
sg8
S'Rollin'
p4012
ssS'1qYmvwV5Fd5KOs3kkiN8DY'
p4013
(dp4014
g3
S'Jeppe Loftager'
p4015
sg5
I27
sg6
S'https://open.spotify.com/track/1qYmvwV5Fd5KOs3kkiN8DY'
p4016
sg8
S'Kender du Emma?'
p4017
ssS'508hbpTQ7wclT2JDpKBUSV'
p4018
(dp4019
g3
S'Lorde'
p4020
sg5
I1
sg6
S'https://open.spotify.com/track/508hbpTQ7wclT2JDpKBUSV'
p4021
sg8
S'Perfect Places'
p4022
ssS'41kE0bBBpwPUZEZKxSIROh'
p4023
(dp4024
g3
S'Urban Cone'
p4025
sg5
I5
sg6
S'https://open.spotify.com/track/41kE0bBBpwPUZEZKxSIROh'
p4026
sg8
S'Old School'
p4027
ssS'2U2VVoI9Y4WLQHr7RD2aWq'
p4028
(dp4029
g3
S'F\xc3\xa6tr'
p4030
sg5
I21
sg6
S'https://open.spotify.com/track/2U2VVoI9Y4WLQHr7RD2aWq'
p4031
sg8
S'Farlig'
p4032
ssS'3cFsmM51N5zMAuu1nNY4Tw'
p4033
(dp4034
g3
S'Sean Paul'
p4035
sg5
I3
sg6
S'https://open.spotify.com/track/3cFsmM51N5zMAuu1nNY4Tw'
p4036
sg8
S'No Lie'
p4037
ssS'51ChrwmUPDJvedPQnIU8Ls'
p4038
(dp4039
g3
S'Ed Sheeran'
p4040
sg5
I15
sg6
S'https://open.spotify.com/track/51ChrwmUPDJvedPQnIU8Ls'
p4041
sg8
S'Dive'
p4042
ssS'2ZpbGPlV7KAeVFQSJvNEjF'
p4043
(dp4044
g3
S'Caroline Henderson'
p4045
sg5
I1
sg6
S'https://open.spotify.com/track/2ZpbGPlV7KAeVFQSJvNEjF'
p4046
sg8
S'Vil Du V\xc3\xa6re Min I Nat'
p4047
ssS'2R7858bg0GHuBBxjTyOL7N'
p4048
(dp4049
g3
S'George Michael'
p4050
sg5
I1
sg6
S'https://open.spotify.com/track/2R7858bg0GHuBBxjTyOL7N'
p4051
sg8
S'Careless Whisper'
p4052
ssS'6c7q4ZfJhsByc5cKH1cLOl'
p4053
(dp4054
g3
S'Ritalin'
p4055
sg5
I31
sg6
S'https://open.spotify.com/track/6c7q4ZfJhsByc5cKH1cLOl'
p4056
sg8
S'Ja Dak'
p4057
ssS'1CUVN2kn7mW5FjkqXTR2W1'
p4058
(dp4059
g3
S'Jonas Blue'
p4060
sg5
I21
sg6
S'https://open.spotify.com/track/1CUVN2kn7mW5FjkqXTR2W1'
p4061
sg8
S'Perfect Strangers'
p4062
ssS'1vVNlXi8gf8tZ7OhnEs4VE'
p4063
(dp4064
g3
S'French Montana'
p4065
sg5
I4
sg6
S'https://open.spotify.com/track/1vVNlXi8gf8tZ7OhnEs4VE'
p4066
sg8
S'A Lie'
p4067
ssS'0SGkqnVQo9KPytSri1H6cF'
p4068
(dp4069
g3
S'Big Sean'
p4070
sg5
I12
sg6
S'https://open.spotify.com/track/0SGkqnVQo9KPytSri1H6cF'
p4071
sg8
S'Bounce Back'
p4072
ssS'3UjSOJ00E1eLMcayBm827Q'
p4073
(dp4074
g3
S'Salvador Sobral'
p4075
sg5
I1
sg6
S'https://open.spotify.com/track/3UjSOJ00E1eLMcayBm827Q'
p4076
sg8
S'Amar pelos Dois'
p4077
ssS'7nKBxz47S9SD79N086fuhn'
p4078
(dp4079
g3
S'Enrique Iglesias'
p4080
sg5
I25
sg6
S'https://open.spotify.com/track/7nKBxz47S9SD79N086fuhn'
p4081
sg8
S'SUBEME LA RADIO'
p4082
ssS'27SdWb2rFzO6GWiYDBTD9j'
p4083
(dp4084
g3
S'Sia'
p4085
sg5
I9
sg6
S'https://open.spotify.com/track/27SdWb2rFzO6GWiYDBTD9j'
p4086
sg8
S'Cheap Thrills'
p4087
ssS'5dQJKDx0x73seZbwSORa1T'
p4088
(dp4089
g3
S'The Vamps'
p4090
sg5
I3
sg6
S'https://open.spotify.com/track/5dQJKDx0x73seZbwSORa1T'
p4091
sg8
S'Middle Of The Night'
p4092
ssS'3MzDvWYbRMAgkOFu5DhNvh'
p4093
(dp4094
g3
S'James Blunt'
p4095
sg5
I1
sg6
S'https://open.spotify.com/track/3MzDvWYbRMAgkOFu5DhNvh'
p4096
sg8
S'Love Me Better'
p4097
ssS'2wdin0mHbqp4FXTZ4YSVND'
p4098
(dp4099
g3
S'Guru Josh Project'
p4100
sg5
I1
sg6
S'https://open.spotify.com/track/2wdin0mHbqp4FXTZ4YSVND'
p4101
sg8
S'Infinity 2008 - Klaas Vocal Edit'
p4102
ssS'2JzQJQyCBASBg6BmPUHR2l'
p4103
(dp4104
g3
S'BasedBoys'
p4105
sg5
I24
sg6
S'https://open.spotify.com/track/2JzQJQyCBASBg6BmPUHR2l'
p4106
sg8
S'Gizpr\xc3\xa6sidenter'
p4107
ssS'6wqpsj3Gjty9r6CFs5F6Ig'
p4108
(dp4109
g3
S'Nik & Jay'
p4110
sg5
I1
sg6
S'https://open.spotify.com/track/6wqpsj3Gjty9r6CFs5F6Ig'
p4111
sg8
S'L\xc3\xa6kker'
p4112
ssS'2Rnn1qllvadls6PIU8pWOH'
p4113
(dp4114
g3
S'Fouli'
p4115
sg5
I27
sg6
S'https://open.spotify.com/track/2Rnn1qllvadls6PIU8pWOH'
p4116
sg8
S'Mon Poto'
p4117
ssS'5ndfVSDyPq90jaIUhNPeby'
p4118
(dp4119
g3
S'Katy Perry'
p4120
sg5
I1
sg6
S'https://open.spotify.com/track/5ndfVSDyPq90jaIUhNPeby'
p4121
sg8
S'Chained To The Rhythm'
p4122
ssS'5uCax9HTNlzGybIStD3vDh'
p4123
(dp4124
g3
S'James Arthur'
p4125
sg5
I42
sg6
S'https://open.spotify.com/track/5uCax9HTNlzGybIStD3vDh'
p4126
sg8
S"Say You Won't Let Go"
p4127
ssS'7qiZfU4dY1lWllzX7mPBI3'
p4128
(dp4129
g3
S'Ed Sheeran'
p4130
sg5
I40
sg6
S'https://open.spotify.com/track/7qiZfU4dY1lWllzX7mPBI3'
p4131
sg8
S'Shape of You'
p4132
ssS'0hnErtVKN1JyvfBNfpWDpO'
p4133
(dp4134
g3
S'Bryan Adams'
p4135
sg5
I1
sg6
S'https://open.spotify.com/track/0hnErtVKN1JyvfBNfpWDpO'
p4136
sg8
S'Christmas Time'
p4137
ssS'1hEIJTv8PkMXnWTIB2dEYI'
p4138
(dp4139
g3
S'Gnags'
p4140
sg5
I1
sg6
S'https://open.spotify.com/track/1hEIJTv8PkMXnWTIB2dEYI'
p4141
sg8
S"Gnags' Julesang"
p4142
ssS'1tzmiW14nGoBlWDg7xhn5P'
p4143
(dp4144
g3
S'Noah Carter'
p4145
sg5
I11
sg6
S'https://open.spotify.com/track/1tzmiW14nGoBlWDg7xhn5P'
p4146
sg8
S'Come Alive'
p4147
ssS'1R3km8ZK2Oo07sW5U9qzZi'
p4148
(dp4149
g3
S'Xander'
p4150
sg5
I1
sg6
S'https://open.spotify.com/track/1R3km8ZK2Oo07sW5U9qzZi'
p4151
sg8
S'Ka Ikk Holde Mig V\xc3\xa6k'
p4152
ssS'2FiSTH0GYpIioUgjfzMIja'
p4153
(dp4154
g3
S'Kygo'
p4155
sg5
I3
sg6
S'https://open.spotify.com/track/2FiSTH0GYpIioUgjfzMIja'
p4156
sg8
S'Stay'
p4157
ssS'6FemVsNUb2lzWsDRm14FUJ'
p4158
(dp4159
g3
S'The Script'
p4160
sg5
I1
sg6
S'https://open.spotify.com/track/6FemVsNUb2lzWsDRm14FUJ'
p4161
sg8
S'Rain'
p4162
ssS'3Gb3nqifjuqRomranzhh99'
p4163
(dp4164
g3
S'Gulddreng'
p4165
sg5
I16
sg6
S'https://open.spotify.com/track/3Gb3nqifjuqRomranzhh99'
p4166
sg8
S'Drikker For Lidt'
p4167
ssS'1F2HXIJrE2Xn81OzT2zZvW'
p4168
(dp4169
g3
S'French Montana'
p4170
sg5
I12
sg6
S'https://open.spotify.com/track/1F2HXIJrE2Xn81OzT2zZvW'
p4171
sg8
S'Unforgettable'
p4172
ssS'6QgjcU0zLnzq5OrUoSZ3OK'
p4173
(dp4174
g3
S'Portugal. The Man'
p4175
sg5
I4
sg6
S'https://open.spotify.com/track/6QgjcU0zLnzq5OrUoSZ3OK'
p4176
sg8
S'Feel It Still'
p4177
ssS'2bfhk4tIrP3ifeVq4wCRKn'
p4178
(dp4179
g3
S'Vild Smith'
p4180
sg5
I11
sg6
S'https://open.spotify.com/track/2bfhk4tIrP3ifeVq4wCRKn'
p4181
sg8
S'Send Nudes'
p4182
ssS'33z5crv3IO5U2BOi8xod92'
p4183
(dp4184
g3
S'Wiz Khalifa'
p4185
sg5
I1
sg6
S'https://open.spotify.com/track/33z5crv3IO5U2BOi8xod92'
p4186
sg8
S'Something New (feat. Ty Dolla $ign)'
p4187
ssS'78rIJddV4X0HkNAInEcYde'
p4188
(dp4189
g3
S'Starley'
p4190
sg5
I42
sg6
S'https://open.spotify.com/track/78rIJddV4X0HkNAInEcYde'
p4191
sg8
S'Call On Me - Ryan Riback Extended Remix'
p4192
ssS'0L7loeTIg6akW84aEQZpCT'
p4193
(dp4194
g3
S'Major Lazer'
p4195
sg5
I15
sg6
S'https://open.spotify.com/track/0L7loeTIg6akW84aEQZpCT'
p4196
sg8
S'Light It Up (feat. Nyla & Fuse ODG) - Remix'
p4197
ssS'3D0dUPJWeoQlYM7YHgvGxT'
p4198
(dp4199
g3
S'F\xc3\xa6tr'
p4200
sg5
I1
sg6
S'https://open.spotify.com/track/3D0dUPJWeoQlYM7YHgvGxT'
p4201
sg8
S'Gadedreng'
p4202
ssS'4Q5yMlwAfAoitqg4r9oZHN'
p4203
(dp4204
g3
S'Cashmere Cat'
p4205
sg5
I4
sg6
S'https://open.spotify.com/track/4Q5yMlwAfAoitqg4r9oZHN'
p4206
sg8
S'Quit (feat. Ariana Grande)'
p4207
ssS'2EEeOnHehOozLq4aS0n6SL'
p4208
(dp4209
g3
S'KYLE'
p4210
sg5
I25
sg6
S'https://open.spotify.com/track/2EEeOnHehOozLq4aS0n6SL'
p4211
sg8
S'iSpy (feat. Lil Yachty)'
p4212
ssS'5TXDeTFVRVY7Cvt0Dw4vWW'
p4213
(dp4214
g3
S'XXXTENTACION'
p4215
sg5
I6
sg6
S'https://open.spotify.com/track/5TXDeTFVRVY7Cvt0Dw4vWW'
p4216
sg8
S'Revenge'
p4217
ssS'167NczpNbRF7oWakJaY3Hh'
p4218
(dp4219
g3
S'Niall Horan'
p4220
sg5
I23
sg6
S'https://open.spotify.com/track/167NczpNbRF7oWakJaY3Hh'
p4221
sg8
S'Slow Hands'
p4222
ssS'1klSF8bQKF2fDPJzQ1cTk2'
p4223
(dp4224
g3
S'Jamaika'
p4225
sg5
I9
sg6
S'https://open.spotify.com/track/1klSF8bQKF2fDPJzQ1cTk2'
p4226
sg8
S'Ansvar'
p4227
ssS'0fH86zQcE2CmATQju6WpXv'
p4228
(dp4229
g3
S'Kris Kross Amsterdam'
p4230
sg5
I11
sg6
S'https://open.spotify.com/track/0fH86zQcE2CmATQju6WpXv'
p4231
sg8
S'Are You Sure? (feat. Ty Dolla $ign)'
p4232
ssS'11AVYZlxCEQKT2SlYla0Ta'
p4233
(dp4234
g3
S'Benal'
p4235
sg5
I4
sg6
S'https://open.spotify.com/track/11AVYZlxCEQKT2SlYla0Ta'
p4236
sg8
S'Uh Babe'
p4237
ssS'0or0gNaKAXYYCsOrpvRzAu'
p4238
(dp4239
g3
S'Lorde'
p4240
sg5
I1
sg6
S'https://open.spotify.com/track/0or0gNaKAXYYCsOrpvRzAu'
p4241
sg8
S'Liability'
p4242
ssS'4nYKcVxSChmk3RvFbZjYob'
p4243
(dp4244
g3
S'Dzeko & Torres'
p4245
sg5
I1
sg6
S'https://open.spotify.com/track/4nYKcVxSChmk3RvFbZjYob'
p4246
sg8
S"L'amour toujours - Tiesto Radio Edit"
p4247
ssS'48MTwjfEROwajMRRpR88ws'
p4248
(dp4249
g3
S'Fie Laursen'
p4250
sg5
I13
sg6
S'https://open.spotify.com/track/48MTwjfEROwajMRRpR88ws'
p4251
sg8
S'Justin'
p4252
ssS'1bTznoPGxp3ygLTHReQtIh'
p4253
(dp4254
g3
S'Phlake'
p4255
sg5
I1
sg6
S'https://open.spotify.com/track/1bTznoPGxp3ygLTHReQtIh'
p4256
sg8
S'Gone'
p4257
ssS'6cREm4bV7V79Yxdilx9HDo'
p4258
(dp4259
g3
S'Timeflies'
p4260
sg5
I1
sg6
S'https://open.spotify.com/track/6cREm4bV7V79Yxdilx9HDo'
p4261
sg8
S'Once In a While'
p4262
ssS'1XfvWGurBrHgcsr7Q34XpA'
p4263
(dp4264
g3
S'Chriz & Heino'
p4265
sg5
I5
sg6
S'https://open.spotify.com/track/1XfvWGurBrHgcsr7Q34XpA'
p4266
sg8
S'Morgenfest'
p4267
ssS'0A1xaq9kcUeVZwXHDJAtH8'
p4268
(dp4269
g3
S'Amanda'
p4270
sg5
I4
sg6
S'https://open.spotify.com/track/0A1xaq9kcUeVZwXHDJAtH8'
p4271
sg8
S'Rager Ikke Dig'
p4272
ssS'09mhA1SJjMHniZPF4Hcihn'
p4273
(dp4274
g3
S'Justin Bieber'
p4275
sg5
I1
sg6
S'https://open.spotify.com/track/09mhA1SJjMHniZPF4Hcihn'
p4276
sg8
S'Company'
p4277
ssS'0xG0SHshCStMEyNbNC5d4k'
p4278
(dp4279
g3
S'Julia Michaels'
p4280
sg5
I9
sg6
S'https://open.spotify.com/track/0xG0SHshCStMEyNbNC5d4k'
p4281
sg8
S'Issues'
p4282
ssS'6CfrYuD3YRDYdYvH9jNtXY'
p4283
(dp4284
g3
S'Drake'
p4285
sg5
I2
sg6
S'https://open.spotify.com/track/6CfrYuD3YRDYdYvH9jNtXY'
p4286
sg8
S'No Long Talk'
p4287
ssS'42tdG2vI7JJzCdMvhyWk1A'
p4288
(dp4289
g3
S'Anders Matthesen'
p4290
sg5
I1
sg6
S'https://open.spotify.com/track/42tdG2vI7JJzCdMvhyWk1A'
p4291
sg8
S'Jul P\xc3\xa5 Vesterbro'
p4292
ssS'3RzuQ1W8YDE9v1k2tnQDKo'
p4293
(dp4294
g3
S'Ude Af Kontrol'
p4295
sg5
I1
sg6
S'https://open.spotify.com/track/3RzuQ1W8YDE9v1k2tnQDKo'
p4296
sg8
S"Det Halve Ku' V\xc3\xa6re Nok"
p4297
ssS'2TsHqHZ659xRvCt7y8uKzB'
p4298
(dp4299
g3
S'Rune RK'
p4300
sg5
I1
sg6
S'https://open.spotify.com/track/2TsHqHZ659xRvCt7y8uKzB'
p4301
sg8
S'Kom kom'
p4302
ssS'5Db9VIdDsN5yu3Eu7CT0i4'
p4303
(dp4304
g3
S'Sam Smith'
p4305
sg5
I22
sg6
S'https://open.spotify.com/track/5Db9VIdDsN5yu3Eu7CT0i4'
p4306
sg8
S'Stay With Me'
p4307
ssS'1jFp82oOPZiduANixfWNgY'
p4308
(dp4309
g3
S'Sleiman'
p4310
sg5
I5
sg6
S'https://open.spotify.com/track/1jFp82oOPZiduANixfWNgY'
p4311
sg8
S'Alt Eller Intet'
p4312
ssS'7pYFPMeK0TnaTGdS6qOtEr'
p4313
(dp4314
g3
S'Stargate'
p4315
sg5
I2
sg6
S'https://open.spotify.com/track/7pYFPMeK0TnaTGdS6qOtEr'
p4316
sg8
S'Waterfall'
p4317
ssS'5c2HpRFDphuoQ75O6ZQfIB'
p4318
(dp4319
g3
S'Shu-Bi-Dua'
p4320
sg5
I1
sg6
S'https://open.spotify.com/track/5c2HpRFDphuoQ75O6ZQfIB'
p4321
sg8
S'Den Himmelbl\xc3\xa5'
p4322
ssS'1yNyoWWWikbLhwIGWjZuDW'
p4323
(dp4324
g3
S'The Vamps'
p4325
sg5
I27
sg6
S'https://open.spotify.com/track/1yNyoWWWikbLhwIGWjZuDW'
p4326
sg8
S'All Night'
p4327
ssS'4v6jydWBTAIqnyPVNyOAdc'
p4328
(dp4329
g3
S'Haddaway'
p4330
sg5
I1
sg6
S'https://open.spotify.com/track/4v6jydWBTAIqnyPVNyOAdc'
p4331
sg8
S'What Is Love'
p4332
ssS'17Fd6Yb7mSbinKG8LoWfFl'
p4333
(dp4334
g3
S'Mike Posner'
p4335
sg5
I21
sg6
S'https://open.spotify.com/track/17Fd6Yb7mSbinKG8LoWfFl'
p4336
sg8
S'I Took A Pill In Ibiza - Seeb Remix'
p4337
ssS'5lp4bJ3AAEP2k2GdR8VVoL'
p4338
(dp4339
g3
S'Amanda'
p4340
sg5
I18
sg6
S'https://open.spotify.com/track/5lp4bJ3AAEP2k2GdR8VVoL'
p4341
sg8
S'Tror Vi Er Nem\xc2\xb4'
p4342
ssS'1ONgRO7Mp49j33EAAMoK3i'
p4343
(dp4344
g3
S'Omar'
p4345
sg5
I4
sg6
S'https://open.spotify.com/track/1ONgRO7Mp49j33EAAMoK3i'
p4346
sg8
S'Viser Hende'
p4347
ssS'4tCtwWceOPWzenK2HAIJSb'
p4348
(dp4349
g3
S'Fifth Harmony'
p4350
sg5
I5
sg6
S'https://open.spotify.com/track/4tCtwWceOPWzenK2HAIJSb'
p4351
sg8
S'Work from Home'
p4352
ssS'5RV73hx55JClh1f65Vb6Zs'
p4353
(dp4354
g3
S'Joey Moe'
p4355
sg5
I2
sg6
S'https://open.spotify.com/track/5RV73hx55JClh1f65Vb6Zs'
p4356
sg8
S'Helt Okay'
p4357
ssS'5XGu9XtnsuhAkhdWbjunr2'
p4358
(dp4359
g3
S'Blak'
p4360
sg5
I28
sg6
S'https://open.spotify.com/track/5XGu9XtnsuhAkhdWbjunr2'
p4361
sg8
S"Ik' Min Skyld"
p4362
ssS'7LPL4upF0pcso4mdHjVin8'
p4363
(dp4364
g3
S'Danni'
p4365
sg5
I27
sg6
S'https://open.spotify.com/track/7LPL4upF0pcso4mdHjVin8'
p4366
sg8
S'Afdeling A'
p4367
ssS'5l3q8RLWvCeijlUz4Kz683'
p4368
(dp4369
g3
S'Ritalin'
p4370
sg5
I2
sg6
S'https://open.spotify.com/track/5l3q8RLWvCeijlUz4Kz683'
p4371
sg8
S'Gider \xc3\x86t'
p4372
ssS'3hB5DgAiMAQ4DzYbsMq1IT'
p4373
(dp4374
g3
S'Justin Bieber'
p4375
sg5
I42
sg6
S'https://open.spotify.com/track/3hB5DgAiMAQ4DzYbsMq1IT'
p4376
sg8
S'Love Yourself'
p4377
ssS'4oUfwAQJZGPufJHHzUNByB'
p4378
(dp4379
g3
S'ABBA'
p4380
sg5
I1
sg6
S'https://open.spotify.com/track/4oUfwAQJZGPufJHHzUNByB'
p4381
sg8
S'Happy New Year'
p4382
ssS'32OWobmyAz8J2qA8iWekyS'
p4383
(dp4384
g3
S'Justin Bieber'
p4385
sg5
I1
sg6
S'https://open.spotify.com/track/32OWobmyAz8J2qA8iWekyS'
p4386
sg8
S'Mistletoe'
p4387
ssS'6XOYVSmNDjKUNMXooU4s4z'
p4388
(dp4389
g3
S'OneRepublic'
p4390
sg5
I12
sg6
S'https://open.spotify.com/track/6XOYVSmNDjKUNMXooU4s4z'
p4391
sg8
S'No Vacancy'
p4392
ssS'33PcTEqqLUDOHp35pL2i4z'
p4393
(dp4394
g3
S'Carmon'
p4395
sg5
I3
sg6
S'https://open.spotify.com/track/33PcTEqqLUDOHp35pL2i4z'
p4396
sg8
S'Forskel'
p4397
ssS'6PGoSes0D9eUDeeAafB2As'
p4398
(dp4399
g3
S'Kendrick Lamar'
p4400
sg5
I6
sg6
S'https://open.spotify.com/track/6PGoSes0D9eUDeeAafB2As'
p4401
sg8
S'LOVE. FEAT. ZACARI.'
p4402
ssS'1lItf5ZXJc1by9SbPeljFd'
p4403
(dp4404
g3
S'Zay Hilfigerrr'
p4405
sg5
I3
sg6
S'https://open.spotify.com/track/1lItf5ZXJc1by9SbPeljFd'
p4406
sg8
S'Juju On That Beat (TZ Anthem)'
p4407
ssS'0xj6N7cZjyR1J3JOyM12gF'
p4408
(dp4409
g3
S'SAVEUS'
p4410
sg5
I1
sg6
S'https://open.spotify.com/track/0xj6N7cZjyR1J3JOyM12gF'
p4411
sg8
S'Watch The World'
p4412
ssS'2RZR8wqqR80uoYBnM3sP3b'
p4413
(dp4414
g3
S'Joey Moe'
p4415
sg5
I9
sg6
S'https://open.spotify.com/track/2RZR8wqqR80uoYBnM3sP3b'
p4416
sg8
S'Smukkest P\xc3\xa5 En S\xc3\xb8ndag'
p4417
ssS'0SQgoNfu9gCdLActecEaDy'
p4418
(dp4419
g3
S'Citybois'
p4420
sg5
I3
sg6
S'https://open.spotify.com/track/0SQgoNfu9gCdLActecEaDy'
p4421
sg8
S'Hjem Igen'
p4422
ss.