(dp0
S''
p1
(dp2
S'artistName'
p3
g1
sS'weeksOnChart'
p4
I2
sS'track_href'
p5
g1
sS'songName'
p6
g1
ssS'0mel2N9Ws9r4yLQn5QE21Y'
p7
(dp8
g3
S'Sam Smith'
p9
sg4
I5
sg5
S'https://open.spotify.com/track/0mel2N9Ws9r4yLQn5QE21Y'
p10
sg6
S'Too Good At Goodbyes'
p11
ssS'65VT3KeGiUxgzDMwF86dL0'
p12
(dp13
g3
S'Ismo'
p14
sg4
I1
sg5
S'https://open.spotify.com/track/65VT3KeGiUxgzDMwF86dL0'
p15
sg6
S'Ouders'
p16
ssS'7D5vAulNfrQV6xEwzgH0OF'
p17
(dp18
g3
S'De Jeugd Van Tegenwoordig'
p19
sg4
I9
sg5
S'https://open.spotify.com/track/7D5vAulNfrQV6xEwzgH0OF'
p20
sg6
S'Sterrenstof'
p21
ssS'0jdny0dhgjUwoIp5GkqEaA'
p22
(dp23
g3
S'Kesha'
p24
sg4
I3
sg5
S'https://open.spotify.com/track/0jdny0dhgjUwoIp5GkqEaA'
p25
sg6
S'Praying'
p26
ssS'44alNkXsYnTyPnkMdohBcx'
p27
(dp28
g3
S'The Paper Kites'
p29
sg4
I3
sg5
S'https://open.spotify.com/track/44alNkXsYnTyPnkMdohBcx'
p30
sg6
S'Bloom (Online Bonus Track)'
p31
ssS'0prNGof3XqfTvNDxHonvdK'
p32
(dp33
g3
S'Alessia Cara'
p34
sg4
I24
sg5
S'https://open.spotify.com/track/0prNGof3XqfTvNDxHonvdK'
p35
sg6
S'Scars To Your Beautiful'
p36
ssS'728zbo72kOoYdGR3AhNsyF'
p37
(dp38
g3
S'The xx'
p39
sg4
I1
sg5
S'https://open.spotify.com/track/728zbo72kOoYdGR3AhNsyF'
p40
sg6
S'Say Something Loving'
p41
ssS'6HUnnBwYZqcED1eQztxMBN'
p42
(dp43
g3
S'Martin Jensen'
p44
sg4
I42
sg5
S'https://open.spotify.com/track/6HUnnBwYZqcED1eQztxMBN'
p45
sg6
S'Solo Dance'
p46
ssS'4glgpnscZqsXNUSmvqcYZ9'
p47
(dp48
g3
S'Jairzinho'
p49
sg4
I9
sg5
S'https://open.spotify.com/track/4glgpnscZqsXNUSmvqcYZ9'
p50
sg6
S'Matta'
p51
ssS'0F1Rc18rZcJOALxIIQPTYd'
p52
(dp53
g3
S'Maty Noyes'
p54
sg4
I1
sg5
S'https://open.spotify.com/track/0F1Rc18rZcJOALxIIQPTYd'
p55
sg6
S'in my miNd'
p56
ssS'1DEnymcu6BtwNVDuA9J7FK'
p57
(dp58
g3
S"Chef'Special"
p59
sg4
I16
sg5
S'https://open.spotify.com/track/1DEnymcu6BtwNVDuA9J7FK'
p60
sg6
S'Try Again'
p61
ssS'0lLdorYw7lVrJydTINhWdI'
p62
(dp63
g3
S'Michael Bubl\xc3\xa9'
p64
sg4
I1
sg5
S'https://open.spotify.com/track/0lLdorYw7lVrJydTINhWdI'
p65
sg6
S"It's Beginning To Look A Lot Like Christmas"
p66
ssS'5eyPMRoFmMtNO9af4b1yEJ'
p67
(dp68
g3
S'Kempi'
p69
sg4
I1
sg5
S'https://open.spotify.com/track/5eyPMRoFmMtNO9af4b1yEJ'
p70
sg6
S'Oh Mama'
p71
ssS'2aksifNn5ph8igDOkPBA02'
p72
(dp73
g3
S'Rihanna'
p74
sg4
I13
sg5
S'https://open.spotify.com/track/2aksifNn5ph8igDOkPBA02'
p75
sg6
S'Love On The Brain'
p76
ssS'6yf3MxEOScNBTYCHOAIiNQ'
p77
(dp78
g3
S'Jax Jones'
p79
sg4
I1
sg5
S'https://open.spotify.com/track/6yf3MxEOScNBTYCHOAIiNQ'
p80
sg6
S'Instruction (feat. Demi Lovato & Stefflon Don)'
p81
ssS'4b4KcovePX8Ke2cLIQTLM0'
p82
(dp83
g3
S'The Vamps'
p84
sg4
I1
sg5
S'https://open.spotify.com/track/4b4KcovePX8Ke2cLIQTLM0'
p85
sg6
S'All Night'
p86
ssS'7wGoVu4Dady5GV0Sv4UIsx'
p87
(dp88
g3
S'Post Malone'
p89
sg4
I1
sg5
S'https://open.spotify.com/track/7wGoVu4Dady5GV0Sv4UIsx'
p90
sg6
S'rockstar'
p91
ssS'7Eb4qaU1TaVp7l6xOhqHwI'
p92
(dp93
g3
S'Jairzinho'
p94
sg4
I1
sg5
S'https://open.spotify.com/track/7Eb4qaU1TaVp7l6xOhqHwI'
p95
sg6
S'1 Op 1'
p96
ssS'0ZclGXvmfkTFtx39DAFIT9'
p97
(dp98
g3
S'Yellow Claw'
p99
sg4
I13
sg5
S'https://open.spotify.com/track/0ZclGXvmfkTFtx39DAFIT9'
p100
sg6
S'Love & War (feat. Yade Lauren)'
p101
ssS'1CnPYaKxTVb4LWOtiGOm0m'
p102
(dp103
g3
S'Jon Bellion'
p104
sg4
I13
sg5
S'https://open.spotify.com/track/1CnPYaKxTVb4LWOtiGOm0m'
p105
sg6
S'All Time Low'
p106
ssS'629fz6ci7aRY4c6ogO11Dk'
p107
(dp108
g3
S'SFB'
p109
sg4
I6
sg5
S'https://open.spotify.com/track/629fz6ci7aRY4c6ogO11Dk'
p110
sg6
S'Only One'
p111
ssS'5Ber68jZ7ytegr2UISEdb7'
p112
(dp113
g3
S'Michael Bubl\xc3\xa9'
p114
sg4
I1
sg5
S'https://open.spotify.com/track/5Ber68jZ7ytegr2UISEdb7'
p115
sg6
S'Santa Claus Is Coming To Town'
p116
ssS'6fM8nxYwUYzjOCJCp8Uy5F'
p117
(dp118
g3
S'SFB'
p119
sg4
I1
sg5
S'https://open.spotify.com/track/6fM8nxYwUYzjOCJCp8Uy5F'
p120
sg6
S'Nu Sta Je Hier'
p121
ssS'18xFynePEF4Jt0uQrWZz31'
p122
(dp123
g3
S'LouiVos'
p124
sg4
I1
sg5
S'https://open.spotify.com/track/18xFynePEF4Jt0uQrWZz31'
p125
sg6
S"Gooi 't"
p126
ssS'11J4dd5TvAssZlXhimOc5w'
p127
(dp128
g3
S'Sevn Alias'
p129
sg4
I3
sg5
S'https://open.spotify.com/track/11J4dd5TvAssZlXhimOc5w'
p130
sg6
S'Blessed'
p131
ssS'5XntxhFTQA3AFsREzI2H1p'
p132
(dp133
g3
S'Boef'
p134
sg4
I7
sg5
S'https://open.spotify.com/track/5XntxhFTQA3AFsREzI2H1p'
p135
sg6
S'Beckham'
p136
ssS'2FRnf9qhLbvw8fu4IBXx78'
p137
(dp138
g3
S'Wham!'
p139
sg4
I1
sg5
S'https://open.spotify.com/track/2FRnf9qhLbvw8fu4IBXx78'
p140
sg6
S'Last Christmas'
p141
ssS'7JRXJ6sAIbs2VC4q03xS10'
p142
(dp143
g3
S"Lil' Kleine"
p144
sg4
I4
sg5
S'https://open.spotify.com/track/7JRXJ6sAIbs2VC4q03xS10'
p145
sg6
S'Opladen / Loslaten'
p146
ssS'7tr2za8SQg2CI8EDgrdtNl'
p147
(dp148
g3
S'Calvin Harris'
p149
sg4
I25
sg5
S'https://open.spotify.com/track/7tr2za8SQg2CI8EDgrdtNl'
p150
sg6
S'Slide'
p151
ssS'5IPgFeXckiEGcXL7Hw6kRy'
p152
(dp153
g3
S'Minitrapper'
p154
sg4
I3
sg5
S'https://open.spotify.com/track/5IPgFeXckiEGcXL7Hw6kRy'
p155
sg6
S'Horrorfilms (feat. Mula B & 3robi)'
p156
ssS'5scJQCN5JkmXt4PlsmbYUI'
p157
(dp158
g3
S'Adje'
p159
sg4
I2
sg5
S'https://open.spotify.com/track/5scJQCN5JkmXt4PlsmbYUI'
p160
sg6
S'Leef Nu'
p161
ssS'7bQQ2B4EVLDiMA79EbT2qe'
p162
(dp163
g3
S'F1rstman'
p164
sg4
I35
sg5
S'https://open.spotify.com/track/7bQQ2B4EVLDiMA79EbT2qe'
p165
sg6
S'Overal'
p166
ssS'0fTplmWthCsXFIWIFaZY5a'
p167
(dp168
g3
S"Lil' Kleine"
p169
sg4
I3
sg5
S'https://open.spotify.com/track/0fTplmWthCsXFIWIFaZY5a'
p170
sg6
S'Succesvol'
p171
ssS'3nodtPfXcok53E8Uze8gvD'
p172
(dp173
g3
S'Snakehips'
p174
sg4
I1
sg5
S'https://open.spotify.com/track/3nodtPfXcok53E8Uze8gvD'
p175
sg6
S'Either Way'
p176
ssS'5VWSnSob84NAxS4ohVX9nd'
p177
(dp178
g3
S'Boef'
p179
sg4
I8
sg5
S'https://open.spotify.com/track/5VWSnSob84NAxS4ohVX9nd'
p180
sg6
S'Werken'
p181
ssS'0J1hzDah0Nj0UsLm23iyEp'
p182
(dp183
g3
S'Sevn Alias'
p184
sg4
I1
sg5
S'https://open.spotify.com/track/0J1hzDah0Nj0UsLm23iyEp'
p185
sg6
S'Stage'
p186
ssS'05iq3quQKW2b7rr03YKR2m'
p187
(dp188
g3
S'Keizer'
p189
sg4
I2
sg5
S'https://open.spotify.com/track/05iq3quQKW2b7rr03YKR2m'
p190
sg6
S'Wat Nog Meer?'
p191
ssS'06FCvd7rrRcF3DdvWH5Isp'
p192
(dp193
g3
S'Kendrick Lamar'
p194
sg4
I2
sg5
S'https://open.spotify.com/track/06FCvd7rrRcF3DdvWH5Isp'
p195
sg6
S'LUST.'
p196
ssS'4pLwZjInHj3SimIyN9SnOz'
p197
(dp198
g3
S'Ariana Grande'
p199
sg4
I11
sg5
S'https://open.spotify.com/track/4pLwZjInHj3SimIyN9SnOz'
p200
sg6
S'Side To Side'
p201
ssS'3c6ioyk7G7YabcyIPfXZ3z'
p202
(dp203
g3
S'LouiVos'
p204
sg4
I15
sg5
S'https://open.spotify.com/track/3c6ioyk7G7YabcyIPfXZ3z'
p205
sg6
S'Ex (feat. Webb)'
p206
ssS'3E2Zh20GDCR9B1EYjfXWyv'
p207
(dp208
g3
S'AJR'
p209
sg4
I37
sg5
S'https://open.spotify.com/track/3E2Zh20GDCR9B1EYjfXWyv'
p210
sg6
S'Weak'
p211
ssS'2Gl0FzuLxflY6nPifJp5Dr'
p212
(dp213
g3
S'Kygo'
p214
sg4
I24
sg5
S'https://open.spotify.com/track/2Gl0FzuLxflY6nPifJp5Dr'
p215
sg6
S'First Time'
p216
ssS'0h62lp2zAJSdl1P8mvpNJP'
p217
(dp218
g3
S'Rambo'
p219
sg4
I3
sg5
S'https://open.spotify.com/track/0h62lp2zAJSdl1P8mvpNJP'
p220
sg6
S'Vespa'
p221
ssS'0xl1w2q4VLojeXp4JfazPL'
p222
(dp223
g3
S'Drake'
p224
sg4
I2
sg5
S'https://open.spotify.com/track/0xl1w2q4VLojeXp4JfazPL'
p225
sg6
S'Sacrifices'
p226
ssS'2h7kcO4E0a0p1gZWmhdWkq'
p227
(dp228
g3
S'ChildsPlay'
p229
sg4
I14
sg5
S'https://open.spotify.com/track/2h7kcO4E0a0p1gZWmhdWkq'
p230
sg6
S'Geven Aan Mijn Neven (feat. Mula B)'
p231
ssS'5YCqzqb6yN6TsMOHb4FSVw'
p232
(dp233
g3
S'Kristian Kostov'
p234
sg4
I1
sg5
S'https://open.spotify.com/track/5YCqzqb6yN6TsMOHb4FSVw'
p235
sg6
S'Beautiful Mess'
p236
ssS'0R4048XGgpweLhDpfI3iRJ'
p237
(dp238
g3
S'ROLL\xc3\x80N'
p239
sg4
I1
sg5
S'https://open.spotify.com/track/0R4048XGgpweLhDpfI3iRJ'
p240
sg6
S'Danse avec moi'
p241
ssS'4BHzQ9C00ceJxfG16AlNWb'
p242
(dp243
g3
S'Adele'
p244
sg4
I4
sg5
S'https://open.spotify.com/track/4BHzQ9C00ceJxfG16AlNWb'
p245
sg6
S'Send My Love (To Your New Lover)'
p246
ssS'4Km5HrUvYTaSUfiSGPJeQR'
p247
(dp248
g3
S'Migos'
p249
sg4
I18
sg5
S'https://open.spotify.com/track/4Km5HrUvYTaSUfiSGPJeQR'
p250
sg6
S'Bad and Boujee (feat. Lil Uzi Vert)'
p251
ssS'3WrG9BpOPQWUus3FjA1Tny'
p252
(dp253
g3
S"Destiny's Child"
p254
sg4
I1
sg5
S'https://open.spotify.com/track/3WrG9BpOPQWUus3FjA1Tny'
p255
sg6
S'8 Days of Christmas - Live'
p256
ssS'2RttW7RAu5nOAfq6YFvApB'
p257
(dp258
g3
S'Ed Sheeran'
p259
sg4
I17
sg5
S'https://open.spotify.com/track/2RttW7RAu5nOAfq6YFvApB'
p260
sg6
S'Happier'
p261
ssS'5LYQSNHZxEA880URXFHg6h'
p262
(dp263
g3
S'Lana Del Rey'
p264
sg4
I1
sg5
S'https://open.spotify.com/track/5LYQSNHZxEA880URXFHg6h'
p265
sg6
S'Lust for Life (with The Weeknd)'
p266
ssS'3EmmCZoqpWOTY1g2GBwJoR'
p267
(dp268
g3
S'Steve Aoki'
p269
sg4
I16
sg5
S'https://open.spotify.com/track/3EmmCZoqpWOTY1g2GBwJoR'
p270
sg6
S'Just Hold On'
p271
ssS'2Ce5IyMlVRVvN997ZJjJJA'
p272
(dp273
g3
S'Future'
p274
sg4
I11
sg5
S'https://open.spotify.com/track/2Ce5IyMlVRVvN997ZJjJJA'
p275
sg6
S'Selfish'
p276
ssS'4TWQ5bxNAqfz0tV2EjA4rN'
p277
(dp278
g3
S'Ronnie Flex'
p279
sg4
I1
sg5
S'https://open.spotify.com/track/4TWQ5bxNAqfz0tV2EjA4rN'
p280
sg6
S'Achteruit'
p281
ssS'6Zosz8w6CmdGMZM6p4JlbQ'
p282
(dp283
g3
S'Danny Ocean'
p284
sg4
I2
sg5
S'https://open.spotify.com/track/6Zosz8w6CmdGMZM6p4JlbQ'
p285
sg6
S'Me Reh\xc3\xbaso'
p286
ssS'0A2pcQ1Pa9eXooQqJ0JaCG'
p287
(dp288
g3
S'Lijpe'
p289
sg4
I2
sg5
S'https://open.spotify.com/track/0A2pcQ1Pa9eXooQqJ0JaCG'
p290
sg6
S'Geen Zorgen Meer'
p291
ssS'0gbBzIqrECJOEPvQJIBFs5'
p292
(dp293
g3
S'Lorde'
p294
sg4
I10
sg5
S'https://open.spotify.com/track/0gbBzIqrECJOEPvQJIBFs5'
p295
sg6
S'Green Light'
p296
ssS'0qqzMM6JR2UlCyPanXRz3Y'
p297
(dp298
g3
S'Jonna Fraser'
p299
sg4
I1
sg5
S'https://open.spotify.com/track/0qqzMM6JR2UlCyPanXRz3Y'
p300
sg6
S'Werken'
p301
ssS'52uHpw5tjtvml4jadVpG8X'
p302
(dp303
g3
S"Lil' Kleine"
p304
sg4
I3
sg5
S'https://open.spotify.com/track/52uHpw5tjtvml4jadVpG8X'
p305
sg6
S'Krantenwijk'
p306
ssS'7nFKFcmWf2l7WTyK0g9MHX'
p307
(dp308
g3
S'Snollebollekes'
p309
sg4
I1
sg5
S'https://open.spotify.com/track/7nFKFcmWf2l7WTyK0g9MHX'
p310
sg6
S'Links Rechts'
p311
ssS'7MyNwJf70OmVkQey6UsPnV'
p312
(dp313
g3
S'Broederliefde'
p314
sg4
I10
sg5
S'https://open.spotify.com/track/7MyNwJf70OmVkQey6UsPnV'
p315
sg6
S'Veel Osso'
p316
ssS'12OcamjCI9eId8bChre1b3'
p317
(dp318
g3
S'Mr. Probz'
p319
sg4
I2
sg5
S'https://open.spotify.com/track/12OcamjCI9eId8bChre1b3'
p320
sg6
S'Gone feat. Anderson .Paak'
p321
ssS'2vv8oHgD8a5VgkVQ5LCBJu'
p322
(dp323
g3
S'Riffi'
p324
sg4
I1
sg5
S'https://open.spotify.com/track/2vv8oHgD8a5VgkVQ5LCBJu'
p325
sg6
S'Als Ik Ga Verdienen'
p326
ssS'3QWjljChcOMkRDYSzF33Qr'
p327
(dp328
g3
S'Kiiara'
p329
sg4
I7
sg5
S'https://open.spotify.com/track/3QWjljChcOMkRDYSzF33Qr'
p330
sg6
S'Whippin (feat. Felix Snow)'
p331
ssS'7ksAOf5OhWjNaQOfCzyAsM'
p332
(dp333
g3
S'Architrackz'
p334
sg4
I13
sg5
S'https://open.spotify.com/track/7ksAOf5OhWjNaQOfCzyAsM'
p335
sg6
S'Flex Op Me Ex'
p336
ssS'4xlrALxuaCf9yZBHJeTSG6'
p337
(dp338
g3
S'Jonas Blue'
p339
sg4
I9
sg5
S'https://open.spotify.com/track/4xlrALxuaCf9yZBHJeTSG6'
p340
sg6
S'Mama'
p341
ssS'00vk0sEfb6mr2ehwSw0Uhn'
p342
(dp343
g3
S'Imany'
p344
sg4
I10
sg5
S'https://open.spotify.com/track/00vk0sEfb6mr2ehwSw0Uhn'
p345
sg6
S"Don't Be So Shy - Filatov & Karas Remix"
p346
ssS'5bjWdBx64POBYiUny759hy'
p347
(dp348
g3
S'Ariana Grande'
p349
sg4
I1
sg5
S'https://open.spotify.com/track/5bjWdBx64POBYiUny759hy'
p350
sg6
S'Last Christmas'
p351
ssS'5fdxNWkKPet8MtPbuGDucj'
p352
(dp353
g3
S'Latifah'
p354
sg4
I1
sg5
S'https://open.spotify.com/track/5fdxNWkKPet8MtPbuGDucj'
p355
sg6
S'Trophy'
p356
ssS'36hJijGKl67dsUof8JiwbC'
p357
(dp358
g3
S"Lil' Kleine"
p359
sg4
I16
sg5
S'https://open.spotify.com/track/36hJijGKl67dsUof8JiwbC'
p360
sg6
S'Volume'
p361
ssS'1hy6kKvsPbv7VTcllCuATC'
p362
(dp363
g3
S'Meghan Trainor'
p364
sg4
I1
sg5
S'https://open.spotify.com/track/1hy6kKvsPbv7VTcllCuATC'
p365
sg6
S"I'll Be Home"
p366
ssS'3pzjHKrQSvXGHQ98dx18HI'
p367
(dp368
g3
S'Justin Bieber'
p369
sg4
I1
sg5
S'https://open.spotify.com/track/3pzjHKrQSvXGHQ98dx18HI'
p370
sg6
S'What Do You Mean?'
p371
ssS'000xQL6tZNLJzIrtIgxqSl'
p372
(dp373
g3
S'ZAYN'
p374
sg4
I16
sg5
S'https://open.spotify.com/track/000xQL6tZNLJzIrtIgxqSl'
p375
sg6
S'Still Got Time'
p376
ssS'6Lh85Pe18pqvNdDoWgTVUC'
p377
(dp378
g3
S'Michael Bubl\xc3\xa9'
p379
sg4
I1
sg5
S'https://open.spotify.com/track/6Lh85Pe18pqvNdDoWgTVUC'
p380
sg6
S'Blue Christmas'
p381
ssS'0ZqV06AHeEhFWTswhivpNp'
p382
(dp383
g3
S'SFB'
p384
sg4
I3
sg5
S'https://open.spotify.com/track/0ZqV06AHeEhFWTswhivpNp'
p385
sg6
S'Santa Boma'
p386
ssS'1D3ODoXHBLpdxolZRHWV1j'
p387
(dp388
g3
S'Jonas Blue'
p389
sg4
I11
sg5
S'https://open.spotify.com/track/1D3ODoXHBLpdxolZRHWV1j'
p390
sg6
S'By Your Side'
p391
ssS'1CKd1PnqfYx0H12V9MSaIY'
p392
(dp393
g3
S'Zedd'
p394
sg4
I9
sg5
S'https://open.spotify.com/track/1CKd1PnqfYx0H12V9MSaIY'
p395
sg6
S'Get Low (with Liam Payne)'
p396
ssS'5c4tB0saSkNHX5CyDosuF7'
p397
(dp398
g3
S'Burak Yeter'
p399
sg4
I2
sg5
S'https://open.spotify.com/track/5c4tB0saSkNHX5CyDosuF7'
p400
sg6
S'Tuesday'
p401
ssS'0KKkJNfGyhkQ5aFogxQAPU'
p402
(dp403
g3
S'Bruno Mars'
p404
sg4
I29
sg5
S'https://open.spotify.com/track/0KKkJNfGyhkQ5aFogxQAPU'
p405
sg6
S"That's What I Like"
p406
ssS'6UPtniTn8WYyCv4KASa7HB'
p407
(dp408
g3
S'Josylvio'
p409
sg4
I10
sg5
S'https://open.spotify.com/track/6UPtniTn8WYyCv4KASa7HB'
p410
sg6
S'Betaal Mij'
p411
ssS'042x9bsUBWW2fJgJ6fUh61'
p412
(dp413
g3
S'DVBBS'
p414
sg4
I9
sg5
S'https://open.spotify.com/track/042x9bsUBWW2fJgJ6fUh61'
p415
sg6
S'Not Going Home'
p416
ssS'2vHy8N2DlK97AwaMzPTaTo'
p417
(dp418
g3
S'Ronnie Flex'
p419
sg4
I10
sg5
S'https://open.spotify.com/track/2vHy8N2DlK97AwaMzPTaTo'
p420
sg6
S'Opgekomen'
p421
ssS'5CtI0qwDJkDQGwXD1H1cLb'
p422
(dp423
g3
S'Luis Fonsi'
p424
sg4
I26
sg5
S'https://open.spotify.com/track/5CtI0qwDJkDQGwXD1H1cLb'
p425
sg6
S'Despacito - Remix'
p426
ssS'7m9OqQk4RVRkw9JJdeAw96'
p427
(dp428
g3
S'XXXTENTACION'
p429
sg4
I7
sg5
S'https://open.spotify.com/track/7m9OqQk4RVRkw9JJdeAw96'
p430
sg6
S'Jocelyn Flores'
p431
ssS'1N90cV79gbBgO0bOs74Y0t'
p432
(dp433
g3
S'Calvin Harris'
p434
sg4
I1
sg5
S'https://open.spotify.com/track/1N90cV79gbBgO0bOs74Y0t'
p435
sg6
S'Heatstroke'
p436
ssS'0Nhu3zSYbEz32IYiobV75e'
p437
(dp438
g3
S'Halsey'
p439
sg4
I10
sg5
S'https://open.spotify.com/track/0Nhu3zSYbEz32IYiobV75e'
p440
sg6
S'Now Or Never'
p441
ssS'3SJuzJmfx4IIHN9vfHcdmQ'
p442
(dp443
g3
S'Mr. Polska'
p444
sg4
I2
sg5
S'https://open.spotify.com/track/3SJuzJmfx4IIHN9vfHcdmQ'
p445
sg6
S'Stunt'
p446
ssS'2jZsWyF7uAj9oazkhJjfra'
p447
(dp448
g3
S'De Fellas'
p449
sg4
I1
sg5
S'https://open.spotify.com/track/2jZsWyF7uAj9oazkhJjfra'
p450
sg6
S'1200'
p451
ssS'3zJw3rugfpVrmBeDDnUYzy'
p452
(dp453
g3
S'John Lennon'
p454
sg4
I1
sg5
S'https://open.spotify.com/track/3zJw3rugfpVrmBeDDnUYzy'
p455
sg6
S'Happy Xmas (War Is Over) - 2010 Digital Remaster'
p456
ssS'1a5Yu5L18qNxVhXx38njON'
p457
(dp458
g3
S'Alok'
p459
sg4
I26
sg5
S'https://open.spotify.com/track/1a5Yu5L18qNxVhXx38njON'
p460
sg6
S'Hear Me Now'
p461
ssS'1Eck97uRMlprKOOJN9oO1E'
p462
(dp463
g3
S'G-Eazy'
p464
sg4
I11
sg5
S'https://open.spotify.com/track/1Eck97uRMlprKOOJN9oO1E'
p465
sg6
S'Good Life (with G-Eazy & Kehlani)'
p466
ssS'0HrL5W7vPZlJzyRw1KXq4L'
p467
(dp468
g3
S'Lijpe'
p469
sg4
I5
sg5
S'https://open.spotify.com/track/0HrL5W7vPZlJzyRw1KXq4L'
p470
sg6
S'Heimwee'
p471
ssS'00cGr3oLNjjESBJ3OQyyCE'
p472
(dp473
g3
S"Lil' Kleine"
p474
sg4
I5
sg5
S'https://open.spotify.com/track/00cGr3oLNjjESBJ3OQyyCE'
p475
sg6
S'Batterij'
p476
ssS'5humEOJehpAwMJEJmb0JJ2'
p477
(dp478
g3
S'Nat King Cole'
p479
sg4
I1
sg5
S'https://open.spotify.com/track/5humEOJehpAwMJEJmb0JJ2'
p480
sg6
S'The Christmas Song (Merry Christmas To You)'
p481
ssS'2dfqS3MRtbLZSZA1IL8xY5'
p482
(dp483
g3
S'Drake'
p484
sg4
I2
sg5
S'https://open.spotify.com/track/2dfqS3MRtbLZSZA1IL8xY5'
p485
sg6
S'Skepta Interlude'
p486
ssS'1sCxVKWImDZSZKvG0U9B23'
p487
(dp488
g3
S'Selena Gomez'
p489
sg4
I13
sg5
S'https://open.spotify.com/track/1sCxVKWImDZSZKvG0U9B23'
p490
sg6
S'Bad Liar'
p491
ssS'6jmngk8Fwup05JZ6kgXEGX'
p492
(dp493
g3
S'Imagine Dragons'
p494
sg4
I1
sg5
S'https://open.spotify.com/track/6jmngk8Fwup05JZ6kgXEGX'
p495
sg6
S'Walking The Wire'
p496
ssS'2Ro1i5jA2krJYkFJOrRrFa'
p497
(dp498
g3
S'Broederliefde'
p499
sg4
I42
sg5
S'https://open.spotify.com/track/2Ro1i5jA2krJYkFJOrRrFa'
p500
sg6
S'Jungle'
p501
ssS'4NqJPY7gqdMIZwl4O3mLYb'
p502
(dp503
g3
S'Boef'
p504
sg4
I9
sg5
S'https://open.spotify.com/track/4NqJPY7gqdMIZwl4O3mLYb'
p505
sg6
S'Coca\xc3\xafne'
p506
ssS'2nUJvBO87SkxCViQsLc9Zr'
p507
(dp508
g3
S'Big Shaq'
p509
sg4
I3
sg5
S'https://open.spotify.com/track/2nUJvBO87SkxCViQsLc9Zr'
p510
sg6
S"Man's Not Hot"
p511
ssS'4BFVWzz00fEewAB6jBcE2h'
p512
(dp513
g3
S'Riffi'
p514
sg4
I1
sg5
S'https://open.spotify.com/track/4BFVWzz00fEewAB6jBcE2h'
p515
sg6
S'Woordenschat'
p516
ssS'0ADG9OgdVTL7fgREP75BrZ'
p517
(dp518
g3
S'Zara Larsson'
p519
sg4
I4
sg5
S'https://open.spotify.com/track/0ADG9OgdVTL7fgREP75BrZ'
p520
sg6
S"Ain't My Fault"
p521
ssS'3rAPkA8uMKZ3g76A1g5xck'
p522
(dp523
g3
S'Full Crate'
p524
sg4
I1
sg5
S'https://open.spotify.com/track/3rAPkA8uMKZ3g76A1g5xck'
p525
sg6
S'Big Booty Problem [Riddim]'
p526
ssS'4wGLLGgnMtd5zGDUmdS2tY'
p527
(dp528
g3
S'SFB'
p529
sg4
I2
sg5
S'https://open.spotify.com/track/4wGLLGgnMtd5zGDUmdS2tY'
p530
sg6
S'Way It Goes'
p531
ssS'4xcQJOQpiNKZT4yT3HEyIi'
p532
(dp533
g3
S'Adje'
p534
sg4
I1
sg5
S'https://open.spotify.com/track/4xcQJOQpiNKZT4yT3HEyIi'
p535
sg6
S'Voila'
p536
ssS'0vwd2PdzIUfVJvQAv2Aai0'
p537
(dp538
g3
S"Lil' Kleine"
p539
sg4
I3
sg5
S'https://open.spotify.com/track/0vwd2PdzIUfVJvQAv2Aai0'
p540
sg6
S'1.5'
p541
ssS'77Y57qRJBvkGCUw9qs0qMg'
p542
(dp543
g3
S'John Mayer'
p544
sg4
I13
sg5
S'https://open.spotify.com/track/77Y57qRJBvkGCUw9qs0qMg'
p545
sg6
S'In the Blood'
p546
ssS'7guper4l1QygK0uy1ggZAG'
p547
(dp548
g3
S'SBMG'
p549
sg4
I3
sg5
S'https://open.spotify.com/track/7guper4l1QygK0uy1ggZAG'
p550
sg6
S'4x Duurder - Remix'
p551
ssS'4hiUYb2nb6NlfTP9CD38Pe'
p552
(dp553
g3
S'Ti\xc3\xabsto'
p554
sg4
I13
sg5
S'https://open.spotify.com/track/4hiUYb2nb6NlfTP9CD38Pe'
p555
sg6
S'On My Way'
p556
ssS'3TRFq09DUgYj1mug6RRqJW'
p557
(dp558
g3
S'Luke Christopher'
p559
sg4
I9
sg5
S'https://open.spotify.com/track/3TRFq09DUgYj1mug6RRqJW'
p560
sg6
S'Lot to Learn'
p561
ssS'6s2wpWPFPAgKg2LXxi1Oee'
p562
(dp563
g3
S'Bruce Springsteen'
p564
sg4
I1
sg5
S'https://open.spotify.com/track/6s2wpWPFPAgKg2LXxi1Oee'
p565
sg6
S"Santa Claus Is Comin' to Town - Single Version"
p566
ssS'6tjituizSxwSmBB5vtgHZE'
p567
(dp568
g3
S'Michael Bubl\xc3\xa9'
p569
sg4
I1
sg5
S'https://open.spotify.com/track/6tjituizSxwSmBB5vtgHZE'
p570
sg6
S'Holly Jolly Christmas'
p571
ssS'17Ghtp38beAnsQ5qkFv91g'
p572
(dp573
g3
S'Sevn Alias'
p574
sg4
I4
sg5
S'https://open.spotify.com/track/17Ghtp38beAnsQ5qkFv91g'
p575
sg6
S'Opties'
p576
ssS'6cwN8Ihpx1hZx8zGJ7QG2w'
p577
(dp578
g3
S'Lijpe'
p579
sg4
I1
sg5
S'https://open.spotify.com/track/6cwN8Ihpx1hZx8zGJ7QG2w'
p580
sg6
S'Zo Heet'
p581
ssS'2oUhdtWfseyM2ATHcsRiSN'
p582
(dp583
g3
S'Ismo'
p584
sg4
I3
sg5
S'https://open.spotify.com/track/2oUhdtWfseyM2ATHcsRiSN'
p585
sg6
S'Morocash 2'
p586
ssS'46HWwWIq2piTvm6nYmSDSY'
p587
(dp588
g3
S'Fais'
p589
sg4
I8
sg5
S'https://open.spotify.com/track/46HWwWIq2piTvm6nYmSDSY'
p590
sg6
S'Used To Have It All'
p591
ssS'7vGuf3Y35N4wmASOKLUVVU'
p592
(dp593
g3
S'Marshmello'
p594
sg4
I8
sg5
S'https://open.spotify.com/track/7vGuf3Y35N4wmASOKLUVVU'
p595
sg6
S'Silence'
p596
ssS'0B2m9uqaFcKQZodMHIgV7U'
p597
(dp598
g3
S'Jonna Fraser'
p599
sg4
I1
sg5
S'https://open.spotify.com/track/0B2m9uqaFcKQZodMHIgV7U'
p600
sg6
S'Leader'
p601
ssS'1VUBnozAZ9KRY9mYzaSWM1'
p602
(dp603
g3
S'Broederliefde'
p604
sg4
I7
sg5
S'https://open.spotify.com/track/1VUBnozAZ9KRY9mYzaSWM1'
p605
sg6
S'Alaka'
p606
ssS'3EfugazgSddQvzZpkof5I4'
p607
(dp608
g3
S'Anne-Marie'
p609
sg4
I28
sg5
S'https://open.spotify.com/track/3EfugazgSddQvzZpkof5I4'
p610
sg6
S'Ciao Adios'
p611
ssS'6C6MLXm77V9VH0v27oJRak'
p612
(dp613
g3
S'Hardwell'
p614
sg4
I6
sg5
S'https://open.spotify.com/track/6C6MLXm77V9VH0v27oJRak'
p615
sg6
S'Thinking About You'
p616
ssS'72ez7vM9VsNogmTzwLXwt2'
p617
(dp618
g3
S'Wolfgang'
p619
sg4
I1
sg5
S'https://open.spotify.com/track/72ez7vM9VsNogmTzwLXwt2'
p620
sg6
S'Alle Matties'
p621
ssS'6AhSTkERt1D0suaTQoA7ES'
p622
(dp623
g3
S'Kippie'
p624
sg4
I1
sg5
S'https://open.spotify.com/track/6AhSTkERt1D0suaTQoA7ES'
p625
sg6
S'Super Sani (feat. Josylvio)'
p626
ssS'7iDxZ5Cd0Yg08d4fI5WVtG'
p627
(dp628
g3
S'Calvin Harris'
p629
sg4
I1
sg5
S'https://open.spotify.com/track/7iDxZ5Cd0Yg08d4fI5WVtG'
p630
sg6
S'Skrt On Me'
p631
ssS'2xwMB5FMQNT2sExxcH8L10'
p632
(dp633
g3
S'Lijpe'
p634
sg4
I4
sg5
S'https://open.spotify.com/track/2xwMB5FMQNT2sExxcH8L10'
p635
sg6
S'Als De Zon Schijnt (feat. Laksida)'
p636
ssS'4YvOM4NvqwFylGaBWn4wAI'
p637
(dp638
g3
S'Ronnie Flex'
p639
sg4
I1
sg5
S'https://open.spotify.com/track/4YvOM4NvqwFylGaBWn4wAI'
p640
sg6
S'Red Me'
p641
ssS'5QcRcnGhs4ayxEadIOgyo2'
p642
(dp643
g3
S'Keizer'
p644
sg4
I5
sg5
S'https://open.spotify.com/track/5QcRcnGhs4ayxEadIOgyo2'
p645
sg6
S'Zonde (feat. Brace & Kevcody)'
p646
ssS'7129iqBafaphfc3WPCGC0L'
p647
(dp648
g3
S'Lukas Graham'
p649
sg4
I5
sg5
S'https://open.spotify.com/track/7129iqBafaphfc3WPCGC0L'
p650
sg6
S'7 Years'
p651
ssS'0L9lXMXddmoBbBUeF7A9An'
p652
(dp653
g3
S'Gavin James'
p654
sg4
I18
sg5
S'https://open.spotify.com/track/0L9lXMXddmoBbBUeF7A9An'
p655
sg6
S'Nervous (The Ooh Song) - Mark McCabe Remix'
p656
ssS'57p8CBvPOxrvyCbn6ttl5r'
p657
(dp658
g3
S'Skrillex'
p659
sg4
I5
sg5
S'https://open.spotify.com/track/57p8CBvPOxrvyCbn6ttl5r'
p660
sg6
S'Would You Ever'
p661
ssS'0CcQNd8CINkwQfe1RDtGV6'
p662
(dp663
g3
S'Imagine Dragons'
p664
sg4
I33
sg5
S'https://open.spotify.com/track/0CcQNd8CINkwQfe1RDtGV6'
p665
sg6
S'Believer'
p666
ssS'2LWH17bsVlVNm9K3emk8Gb'
p667
(dp668
g3
S'Broederliefde'
p669
sg4
I26
sg5
S'https://open.spotify.com/track/2LWH17bsVlVNm9K3emk8Gb'
p670
sg6
S'Mi No Lob'
p671
ssS'4P7jh1WyAJkcLqI4Bjk8ap'
p672
(dp673
g3
S'LouiVos'
p674
sg4
I1
sg5
S'https://open.spotify.com/track/4P7jh1WyAJkcLqI4Bjk8ap'
p675
sg6
S'Ziek'
p676
ssS'6SkCEquKrvWZq7Spotbu1t'
p677
(dp678
g3
S'Maan'
p679
sg4
I3
sg5
S'https://open.spotify.com/track/6SkCEquKrvWZq7Spotbu1t'
p680
sg6
S'Jij Bent De Liefde'
p681
ssS'01Ub2h3U861zjYENDvsOLB'
p682
(dp683
g3
S'Kempi'
p684
sg4
I6
sg5
S'https://open.spotify.com/track/01Ub2h3U861zjYENDvsOLB'
p685
sg6
S'Mami Iz A Ridah'
p686
ssS'3B7udSGy2PfgoCniMSb523'
p687
(dp688
g3
S'Ed Sheeran'
p689
sg4
I9
sg5
S'https://open.spotify.com/track/3B7udSGy2PfgoCniMSb523'
p690
sg6
S'I See Fire'
p691
ssS'7KPT9dPSRYDuSYrEUpZCyL'
p692
(dp693
g3
S'Riffi'
p694
sg4
I3
sg5
S'https://open.spotify.com/track/7KPT9dPSRYDuSYrEUpZCyL'
p695
sg6
S'Le Bled'
p696
ssS'378iszndTZAR4dH8kwsLC6'
p697
(dp698
g3
S'Sia'
p699
sg4
I2
sg5
S'https://open.spotify.com/track/378iszndTZAR4dH8kwsLC6'
p700
sg6
S'Cheap Thrills'
p701
ssS'3NdDpSvN911VPGivFlV5d0'
p702
(dp703
g3
S'ZAYN'
p704
sg4
I39
sg5
S'https://open.spotify.com/track/3NdDpSvN911VPGivFlV5d0'
p705
sg6
S'I Don\xe2\x80\x99t Wanna Live Forever (Fifty Shades Darker) - From Fifty Shades Darker (Original Motion Picture Soundtrack)'
p706
ssS'0kyzMIcj77r11HMsPPBuiT'
p707
(dp708
g3
S'Kempi'
p709
sg4
I1
sg5
S'https://open.spotify.com/track/0kyzMIcj77r11HMsPPBuiT'
p710
sg6
S'Afeni Shakur'
p711
ssS'3jlAvOLpzxqhbYtIiavtZQ'
p712
(dp713
g3
S'Sevn Alias'
p714
sg4
I6
sg5
S'https://open.spotify.com/track/3jlAvOLpzxqhbYtIiavtZQ'
p715
sg6
S'Mowgli'
p716
ssS'2GmVap1TUXocIewXZRaRo7'
p717
(dp718
g3
S'SBMG'
p719
sg4
I23
sg5
S'https://open.spotify.com/track/2GmVap1TUXocIewXZRaRo7'
p720
sg6
S'4x Duurder'
p721
ssS'37F0uwRSrdzkBiuj0D5UHI'
p722
(dp723
g3
S'The Weeknd'
p724
sg4
I2
sg5
S'https://open.spotify.com/track/37F0uwRSrdzkBiuj0D5UHI'
p725
sg6
S'Reminder'
p726
ssS'6gS8rVuLxMQJNNj9Vm8dVU'
p727
(dp728
g3
S'ROLL\xc3\x80N'
p729
sg4
I15
sg5
S'https://open.spotify.com/track/6gS8rVuLxMQJNNj9Vm8dVU'
p730
sg6
S'Danse avec moi'
p731
ssS'6Ltp6H5V2poYtu4NNwitgg'
p732
(dp733
g3
S'Lijpe'
p734
sg4
I8
sg5
S'https://open.spotify.com/track/6Ltp6H5V2poYtu4NNwitgg'
p735
sg6
S'Geen Stress'
p736
ssS'6jf8RB7xNQj56bAnAoTNaY'
p737
(dp738
g3
S'Lijpe'
p739
sg4
I1
sg5
S'https://open.spotify.com/track/6jf8RB7xNQj56bAnAoTNaY'
p740
sg6
S'Altijd'
p741
ssS'7sgyLdPx6zYVMvatBWVjVL'
p742
(dp743
g3
S'Josylvio'
p744
sg4
I1
sg5
S'https://open.spotify.com/track/7sgyLdPx6zYVMvatBWVjVL'
p745
sg6
S'Intro 2 Gezichten'
p746
ssS'0gb1J5UrTpzaU1s3nupgCd'
p747
(dp748
g3
S'Galantis'
p749
sg4
I1
sg5
S'https://open.spotify.com/track/0gb1J5UrTpzaU1s3nupgCd'
p750
sg6
S'No Money'
p751
ssS'4Sh99tSmj8ykEimlf7DrEg'
p752
(dp753
g3
S'Lijpe'
p754
sg4
I1
sg5
S'https://open.spotify.com/track/4Sh99tSmj8ykEimlf7DrEg'
p755
sg6
S'Andere Tijd'
p756
ssS'6NNPeLTdAb2jLttHEtP3bx'
p757
(dp758
g3
S'Ronnie Flex'
p759
sg4
I1
sg5
S'https://open.spotify.com/track/6NNPeLTdAb2jLttHEtP3bx'
p760
sg6
S'Is Dit Over'
p761
ssS'1UZOjK1BwmwWU14Erba9CZ'
p762
(dp763
g3
S'Miley Cyrus'
p764
sg4
I2
sg5
S'https://open.spotify.com/track/1UZOjK1BwmwWU14Erba9CZ'
p765
sg6
S'Malibu'
p766
ssS'0WzdVbx8R4E0jR7jsNBHS6'
p767
(dp768
g3
S'Josylvio'
p769
sg4
I7
sg5
S'https://open.spotify.com/track/0WzdVbx8R4E0jR7jsNBHS6'
p770
sg6
S'Double Up'
p771
ssS'2eMwDehkIC1j68U6FA3Eiq'
p772
(dp773
g3
S'Lil Uzi Vert'
p774
sg4
I21
sg5
S'https://open.spotify.com/track/2eMwDehkIC1j68U6FA3Eiq'
p775
sg6
S'XO TOUR Llif3'
p776
ssS'2KklXplRtxMsBYo474Es0w'
p777
(dp778
g3
S'Ofenbach'
p779
sg4
I11
sg5
S'https://open.spotify.com/track/2KklXplRtxMsBYo474Es0w'
p780
sg6
S'Be Mine'
p781
ssS'7IwqAS66kFinr6rqdG2LQk'
p782
(dp783
g3
S'Jairzinho'
p784
sg4
I2
sg5
S'https://open.spotify.com/track/7IwqAS66kFinr6rqdG2LQk'
p785
sg6
S'Plaatje Perfect'
p786
ssS'7Hz6LLOVxrojLPIHJJ1S0E'
p787
(dp788
g3
S'Sam Smith'
p789
sg4
I1
sg5
S'https://open.spotify.com/track/7Hz6LLOVxrojLPIHJJ1S0E'
p790
sg6
S'Have Yourself A Merry Little Christmas'
p791
ssS'3CRDbSIZ4r5MsZ0YwxuEkn'
p792
(dp793
g3
S'Twenty One Pilots'
p794
sg4
I3
sg5
S'https://open.spotify.com/track/3CRDbSIZ4r5MsZ0YwxuEkn'
p795
sg6
S'Stressed Out'
p796
ssS'1Ssh6VA9lwcKwvvo37TrIw'
p797
(dp798
g3
S'Riffi'
p799
sg4
I1
sg5
S'https://open.spotify.com/track/1Ssh6VA9lwcKwvvo37TrIw'
p800
sg6
S'Anders'
p801
ssS'3UxtV3dzZU58Y5OzaUUplr'
p802
(dp803
g3
S'Jairzinho'
p804
sg4
I1
sg5
S'https://open.spotify.com/track/3UxtV3dzZU58Y5OzaUUplr'
p805
sg6
S'Laat Niet Los (feat. Jonna Fraser)'
p806
ssS'6mICuAdrwEjh6Y6lroV2Kg'
p807
(dp808
g3
S'Shakira'
p809
sg4
I27
sg5
S'https://open.spotify.com/track/6mICuAdrwEjh6Y6lroV2Kg'
p810
sg6
S'Chantaje'
p811
ssS'62jz5BjrRCHFn7DZtqlRP9'
p812
(dp813
g3
S'Josylvio'
p814
sg4
I2
sg5
S'https://open.spotify.com/track/62jz5BjrRCHFn7DZtqlRP9'
p815
sg6
S'Rappers'
p816
ssS'6F609ICg9Spjrw1epsAnpa'
p817
(dp818
g3
S'Drake'
p819
sg4
I9
sg5
S'https://open.spotify.com/track/6F609ICg9Spjrw1epsAnpa'
p820
sg6
S'Controlla'
p821
ssS'234EWwoW9peQp7ij8SMmoN'
p822
(dp823
g3
S'SFB'
p824
sg4
I5
sg5
S'https://open.spotify.com/track/234EWwoW9peQp7ij8SMmoN'
p825
sg6
S'Yes!'
p826
ssS'1QQQEsgRzhUirI0vdKDz66'
p827
(dp828
g3
S'GLOWINTHEDARK'
p829
sg4
I1
sg5
S'https://open.spotify.com/track/1QQQEsgRzhUirI0vdKDz66'
p830
sg6
S'Dansen Op Labanta'
p831
ssS'7gHs73wELdeycvS48JfIos'
p832
(dp833
g3
S'Alan Walker'
p834
sg4
I10
sg5
S'https://open.spotify.com/track/7gHs73wELdeycvS48JfIos'
p835
sg6
S'Faded'
p836
ssS'1aK7x8QzAsezcpZyY8G9Y9'
p837
(dp838
g3
S'Ronnie Flex'
p839
sg4
I13
sg5
S'https://open.spotify.com/track/1aK7x8QzAsezcpZyY8G9Y9'
p840
sg6
S'Jouw Seizoen'
p841
ssS'0GrklkkWttHKbQ8XXka0Zc'
p842
(dp843
g3
S'Ronnie Flex'
p844
sg4
I4
sg5
S'https://open.spotify.com/track/0GrklkkWttHKbQ8XXka0Zc'
p845
sg6
S'Energie - New Version'
p846
ssS'78zWaTIgg2GNkgGLA0VK7s'
p847
(dp848
g3
S'SFB'
p849
sg4
I4
sg5
S'https://open.spotify.com/track/78zWaTIgg2GNkgGLA0VK7s'
p850
sg6
S'Badman Flex'
p851
ssS'6KgxDv5WiCirJgLT9utoxj'
p852
(dp853
g3
S'Pietju Bell'
p854
sg4
I2
sg5
S'https://open.spotify.com/track/6KgxDv5WiCirJgLT9utoxj'
p855
sg6
S'Gelukzoekers'
p856
ssS'00lNx0OcTJrS3MKHcB80HY'
p857
(dp858
g3
S'Jax Jones'
p859
sg4
I32
sg5
S'https://open.spotify.com/track/00lNx0OcTJrS3MKHcB80HY'
p860
sg6
S"You Don't Know Me - Radio Edit"
p861
ssS'2s76aKBWKShlwPC4xTtEEE'
p862
(dp863
g3
S'State of Sound'
p864
sg4
I7
sg5
S'https://open.spotify.com/track/2s76aKBWKShlwPC4xTtEEE'
p865
sg6
S'Wake Up Where You Are'
p866
ssS'0zalvf0K8iR2IV0DnFciqR'
p867
(dp868
g3
S'Yung Felix'
p869
sg4
I11
sg5
S'https://open.spotify.com/track/0zalvf0K8iR2IV0DnFciqR'
p870
sg6
S'Shaka Zulu'
p871
ssS'13D5numsnp5ArLOSyER3Sg'
p872
(dp873
g3
S'Minitrapper'
p874
sg4
I1
sg5
S'https://open.spotify.com/track/13D5numsnp5ArLOSyER3Sg'
p875
sg6
S'Het Is Heet'
p876
ssS'6t2ubAB4iSYOuIpRAOGd4t'
p877
(dp878
g3
S'Flo Rida'
p879
sg4
I11
sg5
S'https://open.spotify.com/track/6t2ubAB4iSYOuIpRAOGd4t'
p880
sg6
S'Cake'
p881
ssS'4SH4MfJ1bNAgq1wRSJUyKf'
p882
(dp883
g3
S'F1rstman'
p884
sg4
I30
sg5
S'https://open.spotify.com/track/4SH4MfJ1bNAgq1wRSJUyKf'
p885
sg6
S'\xc3\x89\xc3\xa9n ding'
p886
ssS'6ixa5GMwLndThnBYzUOf7J'
p887
(dp888
g3
S'Johnny Sellah'
p889
sg4
I1
sg5
S'https://open.spotify.com/track/6ixa5GMwLndThnBYzUOf7J'
p890
sg6
S'Cypher'
p891
ssS'3fsG2UErJoICD34tS10Cie'
p892
(dp893
g3
S'Broederliefde'
p894
sg4
I20
sg5
S'https://open.spotify.com/track/3fsG2UErJoICD34tS10Cie'
p895
sg6
S'Ik Was Al Binnen'
p896
ssS'58idlb4hWUvsqRjvlpIJJ4'
p897
(dp898
g3
S'DJ DYLVN'
p899
sg4
I1
sg5
S'https://open.spotify.com/track/58idlb4hWUvsqRjvlpIJJ4'
p900
sg6
S'Top Bezig'
p901
ssS'0fg8CqpjdojMyXLNzM2PaJ'
p902
(dp903
g3
S'Major Lazer'
p904
sg4
I26
sg5
S'https://open.spotify.com/track/0fg8CqpjdojMyXLNzM2PaJ'
p905
sg6
S'Run Up (feat. PARTYNEXTDOOR & Nicki Minaj)'
p906
ssS'7HtYevondTPQeRVlHFAzUJ'
p907
(dp908
g3
S'SBMG'
p909
sg4
I2
sg5
S'https://open.spotify.com/track/7HtYevondTPQeRVlHFAzUJ'
p910
sg6
S'4x Duurder - Remix'
p911
ssS'6gTJaPuj8DT8RjuDJyBgzP'
p912
(dp913
g3
S'Ed Sheeran'
p914
sg4
I3
sg5
S'https://open.spotify.com/track/6gTJaPuj8DT8RjuDJyBgzP'
p915
sg6
S"Don't"
p916
ssS'3umS4y3uQDkqekNjVpiRUs'
p917
(dp918
g3
S'Nicky Jam'
p919
sg4
I18
sg5
S'https://open.spotify.com/track/3umS4y3uQDkqekNjVpiRUs'
p920
sg6
S'El Amante'
p921
ssS'5CeKSGsjyGQ0ck2UeMDbBw'
p922
(dp923
g3
S'Jonna Fraser'
p924
sg4
I26
sg5
S'https://open.spotify.com/track/5CeKSGsjyGQ0ck2UeMDbBw'
p925
sg6
S'Ik Kom Bij Je'
p926
ssS'2GdIKPluDT6hT3xBxxKiUK'
p927
(dp928
g3
S'Ilinca'
p929
sg4
I1
sg5
S'https://open.spotify.com/track/2GdIKPluDT6hT3xBxxKiUK'
p930
sg6
S'Yodel it!'
p931
ssS'6uFsE1JgZ20EXyU0JQZbUR'
p932
(dp933
g3
S'Taylor Swift'
p934
sg4
I7
sg5
S'https://open.spotify.com/track/6uFsE1JgZ20EXyU0JQZbUR'
p935
sg6
S'Look What You Made Me Do'
p936
ssS'5CPqOpKSk0QcJ3dGdaWcRB'
p937
(dp938
g3
S'The xx'
p939
sg4
I1
sg5
S'https://open.spotify.com/track/5CPqOpKSk0QcJ3dGdaWcRB'
p940
sg6
S'On Hold'
p941
ssS'0gHS4d1Per54lZHgO9B64x'
p942
(dp943
g3
S'Sam Feldt'
p944
sg4
I1
sg5
S'https://open.spotify.com/track/0gHS4d1Per54lZHgO9B64x'
p945
sg6
S'YES'
p946
ssS'1HCw8XKtTgWWU3JlEUR0qQ'
p947
(dp948
g3
S'Deorro'
p949
sg4
I1
sg5
S'https://open.spotify.com/track/1HCw8XKtTgWWU3JlEUR0qQ'
p950
sg6
S'Bailar - Radio Edit'
p951
ssS'7GX5flRQZVHRAGd6B4TmDO'
p952
(dp953
g3
S'Lil Uzi Vert'
p954
sg4
I7
sg5
S'https://open.spotify.com/track/7GX5flRQZVHRAGd6B4TmDO'
p955
sg6
S'XO TOUR Llif3'
p956
ssS'4F7A0DXBrmUAkp32uenhZt'
p957
(dp958
g3
S'The Weeknd'
p959
sg4
I6
sg5
S'https://open.spotify.com/track/4F7A0DXBrmUAkp32uenhZt'
p960
sg6
S'Party Monster'
p961
ssS'5kRPPEWFJIMox5qIkQkiz5'
p962
(dp963
g3
S'Harry Styles'
p964
sg4
I5
sg5
S'https://open.spotify.com/track/5kRPPEWFJIMox5qIkQkiz5'
p965
sg6
S'Sweet Creature'
p966
ssS'70rYp3dhUBTz9Da3OgmlA1'
p967
(dp968
g3
S'Mr. Probz'
p969
sg4
I19
sg5
S'https://open.spotify.com/track/70rYp3dhUBTz9Da3OgmlA1'
p970
sg6
S"Till You're Loved"
p971
ssS'31alVHUGfI8jOKhuhCEX6g'
p972
(dp973
g3
S'SFB'
p974
sg4
I5
sg5
S'https://open.spotify.com/track/31alVHUGfI8jOKhuhCEX6g'
p975
sg6
S"Don't You Know"
p976
ssS'4nMlau89VAjmV7agkl7OY3'
p977
(dp978
g3
S'Andy Grammer'
p979
sg4
I9
sg5
S'https://open.spotify.com/track/4nMlau89VAjmV7agkl7OY3'
p980
sg6
S'Fresh Eyes'
p981
ssS'14Mc85a0pYZnlBlj4WSLDn'
p982
(dp983
g3
S'Ismo'
p984
sg4
I1
sg5
S'https://open.spotify.com/track/14Mc85a0pYZnlBlj4WSLDn'
p985
sg6
S'Eenmans 3.0'
p986
ssS'4qBejt9FeqLI9blHI1Nq1x'
p987
(dp988
g3
S'Michael Bubl\xc3\xa9'
p989
sg4
I1
sg5
S'https://open.spotify.com/track/4qBejt9FeqLI9blHI1Nq1x'
p990
sg6
S'Jingle Bells (feat. The Puppini Sisters)'
p991
ssS'75ZvA4QfFiZvzhj2xkaWAh'
p992
(dp993
g3
S'Post Malone'
p994
sg4
I1
sg5
S'https://open.spotify.com/track/75ZvA4QfFiZvzhj2xkaWAh'
p995
sg6
S'I Fall Apart'
p996
ssS'1sTUEdVO85YU8Ymk2jeAls'
p997
(dp998
g3
S'MiC LOWRY'
p999
sg4
I1
sg5
S'https://open.spotify.com/track/1sTUEdVO85YU8Ymk2jeAls'
p1000
sg6
S'Oh Lord'
p1001
ssS'7BKLCZ1jbUBVqRi2FVlTVw'
p1002
(dp1003
g3
S'The Chainsmokers'
p1004
sg4
I28
sg5
S'https://open.spotify.com/track/7BKLCZ1jbUBVqRi2FVlTVw'
p1005
sg6
S'Closer'
p1006
ssS'7FdGVzi6WKPMstH1vRhBQs'
p1007
(dp1008
g3
S'Angelo King'
p1009
sg4
I5
sg5
S'https://open.spotify.com/track/7FdGVzi6WKPMstH1vRhBQs'
p1010
sg6
S'Girlfriend'
p1011
ssS'3g8b8X4zg7tRD1hDQ8Qqve'
p1012
(dp1013
g3
S"Lil' Kleine"
p1014
sg4
I1
sg5
S'https://open.spotify.com/track/3g8b8X4zg7tRD1hDQ8Qqve'
p1015
sg6
S'Jongens Van De Stad'
p1016
ssS'7hDc8b7IXETo14hHIHdnhd'
p1017
(dp1018
g3
S'Drake'
p1019
sg4
I25
sg5
S'https://open.spotify.com/track/7hDc8b7IXETo14hHIHdnhd'
p1020
sg6
S'Passionfruit'
p1021
ssS'6tinFGP1QJuRbyeCekZcLZ'
p1022
(dp1023
g3
S'Afrojack'
p1024
sg4
I23
sg5
S'https://open.spotify.com/track/6tinFGP1QJuRbyeCekZcLZ'
p1025
sg6
S'Another Life'
p1026
ssS'3RiPr603aXAoi4GHyXx0uy'
p1027
(dp1028
g3
S'Coldplay'
p1029
sg4
I1
sg5
S'https://open.spotify.com/track/3RiPr603aXAoi4GHyXx0uy'
p1030
sg6
S'Hymn For The Weekend'
p1031
ssS'0tICYNayWWhH9GPeFrfjfD'
p1032
(dp1033
g3
S'Kungs'
p1034
sg4
I15
sg5
S'https://open.spotify.com/track/0tICYNayWWhH9GPeFrfjfD'
p1035
sg6
S"This Girl (Kungs Vs. Cookin' On 3 Burners) - Kungs Vs. Cookin' On 3 Burners"
p1036
ssS'5XUI6kDIUxoC5XG9vnKvAD'
p1037
(dp1038
g3
S'Sevn Alias'
p1039
sg4
I1
sg5
S'https://open.spotify.com/track/5XUI6kDIUxoC5XG9vnKvAD'
p1040
sg6
S'Fit'
p1041
ssS'2LTlO3NuNVN70lp2ZbVswF'
p1042
(dp1043
g3
S'Kendrick Lamar'
p1044
sg4
I2
sg5
S'https://open.spotify.com/track/2LTlO3NuNVN70lp2ZbVswF'
p1045
sg6
S'FEEL.'
p1046
ssS'5ULRlgiSPSKTaJN1vU9yso'
p1047
(dp1048
g3
S'Ed Sheeran'
p1049
sg4
I1
sg5
S'https://open.spotify.com/track/5ULRlgiSPSKTaJN1vU9yso'
p1050
sg6
S'Shape of You - Acoustic'
p1051
ssS'68C8R0NBkqm2N3tieQTaBf'
p1052
(dp1053
g3
S'Minitrapper'
p1054
sg4
I1
sg5
S'https://open.spotify.com/track/68C8R0NBkqm2N3tieQTaBf'
p1055
sg6
S'Money'
p1056
ssS'4vRSkIKWT1DsG2J7UV1qlD'
p1057
(dp1058
g3
S'Lijpe'
p1059
sg4
I1
sg5
S'https://open.spotify.com/track/4vRSkIKWT1DsG2J7UV1qlD'
p1060
sg6
S'Uitweg'
p1061
ssS'6jA8HL9i4QGzsj6fjoxp8Y'
p1062
(dp1063
g3
S'Martin Garrix'
p1064
sg4
I20
sg5
S'https://open.spotify.com/track/6jA8HL9i4QGzsj6fjoxp8Y'
p1065
sg6
S'There for You'
p1066
ssS'5LvfI1ivjAbKBQYnPBzapd'
p1067
(dp1068
g3
S'Broertje'
p1069
sg4
I3
sg5
S'https://open.spotify.com/track/5LvfI1ivjAbKBQYnPBzapd'
p1070
sg6
S'Vrij'
p1071
ssS'1OLRQTCt61oOyznmQwkdrN'
p1072
(dp1073
g3
S'Latifah'
p1074
sg4
I1
sg5
S'https://open.spotify.com/track/1OLRQTCt61oOyznmQwkdrN'
p1075
sg6
S'Gunshot'
p1076
ssS'0fXe1nwFan0sQoHwKI7s0q'
p1077
(dp1078
g3
S'Tur-G'
p1079
sg4
I38
sg5
S'https://open.spotify.com/track/0fXe1nwFan0sQoHwKI7s0q'
p1080
sg6
S'Beyonce'
p1081
ssS'0XLOf9LhyazPX9Ld8jPiUq'
p1082
(dp1083
g3
S'Selena Gomez'
p1084
sg4
I8
sg5
S'https://open.spotify.com/track/0XLOf9LhyazPX9Ld8jPiUq'
p1085
sg6
S'Fetish (feat. Gucci Mane)'
p1086
ssS'1lItf5ZXJc1by9SbPeljFd'
p1087
(dp1088
g3
S'Zay Hilfigerrr'
p1089
sg4
I1
sg5
S'https://open.spotify.com/track/1lItf5ZXJc1by9SbPeljFd'
p1090
sg6
S'Juju On That Beat (TZ Anthem)'
p1091
ssS'0kN8xEmgMW9mh7UmDYHlJP'
p1092
(dp1093
g3
S'Bruno Mars'
p1094
sg4
I2
sg5
S'https://open.spotify.com/track/0kN8xEmgMW9mh7UmDYHlJP'
p1095
sg6
S'Versace On The Floor'
p1096
ssS'1yxgsra98r3qAtxqiGZPiX'
p1097
(dp1098
g3
S'Travis Scott'
p1099
sg4
I12
sg5
S'https://open.spotify.com/track/1yxgsra98r3qAtxqiGZPiX'
p1100
sg6
S'Butterfly Effect'
p1101
ssS'0QkyPFZhkkuOXjEBKceZ0y'
p1102
(dp1103
g3
S'SFB'
p1104
sg4
I14
sg5
S'https://open.spotify.com/track/0QkyPFZhkkuOXjEBKceZ0y'
p1105
sg6
S'Pon Road'
p1106
ssS'2nfNhYzN0jiF2QccVW76d6'
p1107
(dp1108
g3
S'Sevn Alias'
p1109
sg4
I1
sg5
S'https://open.spotify.com/track/2nfNhYzN0jiF2QccVW76d6'
p1110
sg6
S'Inna Minute'
p1111
ssS'550rQQCGkrTzvp4SfpOPzx'
p1112
(dp1113
g3
S'Pentatonix'
p1114
sg4
I1
sg5
S'https://open.spotify.com/track/550rQQCGkrTzvp4SfpOPzx'
p1115
sg6
S'Hallelujah'
p1116
ssS'0bqobxfnRM3SCawjPdBLsU'
p1117
(dp1118
g3
S'Djamila'
p1119
sg4
I1
sg5
S'https://open.spotify.com/track/0bqobxfnRM3SCawjPdBLsU'
p1120
sg6
S'Brickwall'
p1121
ssS'637Ls28Kdq1IzAwQLsMNfq'
p1122
(dp1123
g3
S'Ronnie Flex'
p1124
sg4
I1
sg5
S'https://open.spotify.com/track/637Ls28Kdq1IzAwQLsMNfq'
p1125
sg6
S'Spook'
p1126
ssS'2Y63yg1Lgdp96IoiZIvjKz'
p1127
(dp1128
g3
S'Jonna Fraser'
p1129
sg4
I21
sg5
S'https://open.spotify.com/track/2Y63yg1Lgdp96IoiZIvjKz'
p1130
sg6
S'Do Or Die'
p1131
ssS'6A8dnC0xkiuWN4BshmTB2I'
p1132
(dp1133
g3
S'A R I Z O N A'
p1134
sg4
I29
sg5
S'https://open.spotify.com/track/6A8dnC0xkiuWN4BshmTB2I'
p1135
sg6
S'Oceans Away'
p1136
ssS'50msFiNJjsBfECIXyPMYxG'
p1137
(dp1138
g3
S"Lil' Kleine"
p1139
sg4
I3
sg5
S'https://open.spotify.com/track/50msFiNJjsBfECIXyPMYxG'
p1140
sg6
S'Commotie'
p1141
ssS'0eXs94hSHF2anfJRBmScDF'
p1142
(dp1143
g3
S'Kevin'
p1144
sg4
I2
sg5
S'https://open.spotify.com/track/0eXs94hSHF2anfJRBmScDF'
p1145
sg6
S'In De Streets'
p1146
ssS'2OALaHcDdKkjYEpAr0Qzab'
p1147
(dp1148
g3
S'Avicii'
p1149
sg4
I9
sg5
S'https://open.spotify.com/track/2OALaHcDdKkjYEpAr0Qzab'
p1150
sg6
S'Lonely Together (feat. Rita Ora)'
p1151
ssS'56lBX2WHqfGuoeZxZvUnVj'
p1152
(dp1153
g3
S'Imagine Dragons'
p1154
sg4
I3
sg5
S'https://open.spotify.com/track/56lBX2WHqfGuoeZxZvUnVj'
p1155
sg6
S'Thunder'
p1156
ssS'0XfOi87h82i09rQjWYG0Bm'
p1157
(dp1158
g3
S'Jax Jones'
p1159
sg4
I14
sg5
S'https://open.spotify.com/track/0XfOi87h82i09rQjWYG0Bm'
p1160
sg6
S'Instruction (feat. Demi Lovato & Stefflon Don)'
p1161
ssS'28irpKCCK9nn9DZSik2zEx'
p1162
(dp1163
g3
S'Drake'
p1164
sg4
I1
sg5
S'https://open.spotify.com/track/28irpKCCK9nn9DZSik2zEx'
p1165
sg6
S'Glow'
p1166
ssS'5JUu0unA8VwhTZ9LkMWUVI'
p1167
(dp1168
g3
S'Drake'
p1169
sg4
I1
sg5
S'https://open.spotify.com/track/5JUu0unA8VwhTZ9LkMWUVI'
p1170
sg6
S'Since Way Back'
p1171
ssS'4IWAyPf1KMq7JCyGeCjTeH'
p1172
(dp1173
g3
S'Imagine Dragons'
p1174
sg4
I7
sg5
S'https://open.spotify.com/track/4IWAyPf1KMq7JCyGeCjTeH'
p1175
sg6
S'Whatever It Takes'
p1176
ssS'5HLaHrXyCZr1DetFJQx38L'
p1177
(dp1178
g3
S'Kensington'
p1179
sg4
I2
sg5
S'https://open.spotify.com/track/5HLaHrXyCZr1DetFJQx38L'
p1180
sg6
S'Bridges'
p1181
ssS'6uajiFQb4gEYo83ziiwVhu'
p1182
(dp1183
g3
S'Kosso'
p1184
sg4
I1
sg5
S'https://open.spotify.com/track/6uajiFQb4gEYo83ziiwVhu'
p1185
sg6
S'Nooit Te Laat'
p1186
ssS'74fQ27CR7IJdvlape75OKl'
p1187
(dp1188
g3
S'Lijpe'
p1189
sg4
I4
sg5
S'https://open.spotify.com/track/74fQ27CR7IJdvlape75OKl'
p1190
sg6
S'Met Zjnoen Opstaan'
p1191
ssS'65qP9nzgtuK73VfG2y2He7'
p1192
(dp1193
g3
S'Kempi'
p1194
sg4
I13
sg5
S'https://open.spotify.com/track/65qP9nzgtuK73VfG2y2He7'
p1195
sg6
S'Wasteman - Remix'
p1196
ssS'46oQDRv4Q7uE1ebEmiQ0w2'
p1197
(dp1198
g3
S'BangBros'
p1199
sg4
I2
sg5
S'https://open.spotify.com/track/46oQDRv4Q7uE1ebEmiQ0w2'
p1200
sg6
S'Zwaai'
p1201
ssS'6YZdkObH88npeKrrkb8Ggf'
p1202
(dp1203
g3
S'Enrique Iglesias'
p1204
sg4
I1
sg5
S'https://open.spotify.com/track/6YZdkObH88npeKrrkb8Ggf'
p1205
sg6
S'DUELE EL CORAZON'
p1206
ssS'2xCgwmllvRowdSNCRq0PWj'
p1207
(dp1208
g3
S'BKO'
p1209
sg4
I1
sg5
S'https://open.spotify.com/track/2xCgwmllvRowdSNCRq0PWj'
p1210
sg6
S'Zim Zimma'
p1211
ssS'5Isav56r7Y2c7sQjBHryR8'
p1212
(dp1213
g3
S'Jayh'
p1214
sg4
I2
sg5
S'https://open.spotify.com/track/5Isav56r7Y2c7sQjBHryR8'
p1215
sg6
S"Kill 'm Niet"
p1216
ssS'0WCEaydwN65cvwaW8aqptF'
p1217
(dp1218
g3
S'Olivia Holt'
p1219
sg4
I14
sg5
S'https://open.spotify.com/track/0WCEaydwN65cvwaW8aqptF'
p1220
sg6
S'History'
p1221
ssS'0SrwEYquPaen2f9l7hWJy3'
p1222
(dp1223
g3
S'Lijpe'
p1224
sg4
I1
sg5
S'https://open.spotify.com/track/0SrwEYquPaen2f9l7hWJy3'
p1225
sg6
S'Luister Goed'
p1226
ssS'5KeFf74SOmDX8TX72YobCk'
p1227
(dp1228
g3
S'CJaye'
p1229
sg4
I4
sg5
S'https://open.spotify.com/track/5KeFf74SOmDX8TX72YobCk'
p1230
sg6
S'Ma Cherie'
p1231
ssS'1QdKAO1nlkmECl3BpOPIG1'
p1232
(dp1233
g3
S'Jan Smit'
p1234
sg4
I5
sg5
S'https://open.spotify.com/track/1QdKAO1nlkmECl3BpOPIG1'
p1235
sg6
S'Kom Dichterbij Me (met Broederliefde)'
p1236
ssS'5BOZ4skcMubA0R6RD4zf64'
p1237
(dp1238
g3
S'Tinie Tempah'
p1239
sg4
I1
sg5
S'https://open.spotify.com/track/5BOZ4skcMubA0R6RD4zf64'
p1240
sg6
S'Girls Like (feat. Zara Larsson)'
p1241
ssS'0FuTx2s3YH1ppmtiM6l0zI'
p1242
(dp1243
g3
S'JP Cooper'
p1244
sg4
I40
sg5
S'https://open.spotify.com/track/0FuTx2s3YH1ppmtiM6l0zI'
p1245
sg6
S'September Song'
p1246
ssS'1X8py2jInjgIQ9Y9roDQZC'
p1247
(dp1248
g3
S"Lil' Kleine"
p1249
sg4
I16
sg5
S'https://open.spotify.com/track/1X8py2jInjgIQ9Y9roDQZC'
p1250
sg6
S'Krantenwijk'
p1251
ssS'0Zbbxnx4SGGHoIow4PpISP'
p1252
(dp1253
g3
S'Kygo'
p1254
sg4
I3
sg5
S'https://open.spotify.com/track/0Zbbxnx4SGGHoIow4PpISP'
p1255
sg6
S'Stargazing'
p1256
ssS'0KtqVwT2ssXNXTjviHWboN'
p1257
(dp1258
g3
S'Darryl'
p1259
sg4
I4
sg5
S'https://open.spotify.com/track/0KtqVwT2ssXNXTjviHWboN'
p1260
sg6
S'Auditie'
p1261
ssS'1OmcAT5Y8eg5bUPv9qJT4R'
p1262
(dp1263
g3
S'Post Malone'
p1264
sg4
I3
sg5
S'https://open.spotify.com/track/1OmcAT5Y8eg5bUPv9qJT4R'
p1265
sg6
S'rockstar'
p1266
ssS'66WPXyhXqMlkM1kZhyEXWK'
p1267
(dp1268
g3
S'Michael Bubl\xc3\xa9'
p1269
sg4
I1
sg5
S'https://open.spotify.com/track/66WPXyhXqMlkM1kZhyEXWK'
p1270
sg6
S'Christmas (Baby Please Come Home)'
p1271
ssS'4uFilJdTcMu9A7R4pVIKoF'
p1272
(dp1273
g3
S'Bizzey'
p1274
sg4
I14
sg5
S'https://open.spotify.com/track/4uFilJdTcMu9A7R4pVIKoF'
p1275
sg6
S'Badman Ollo'
p1276
ssS'33B2QbtAj8mbDpwvGTOnBt'
p1277
(dp1278
g3
S'The xx'
p1279
sg4
I1
sg5
S'https://open.spotify.com/track/33B2QbtAj8mbDpwvGTOnBt'
p1280
sg6
S'Dangerous'
p1281
ssS'0azC730Exh71aQlOt9Zj3y'
p1282
(dp1283
g3
S'Calvin Harris'
p1284
sg4
I7
sg5
S'https://open.spotify.com/track/0azC730Exh71aQlOt9Zj3y'
p1285
sg6
S'This Is What You Came For'
p1286
ssS'4ryus1s11AYJ717Xq5EK1N'
p1287
(dp1288
g3
S'Jonna Fraser'
p1289
sg4
I1
sg5
S'https://open.spotify.com/track/4ryus1s11AYJ717Xq5EK1N'
p1290
sg6
S'Veranderd'
p1291
ssS'2jyjhRf6DVbMPU5zxagN2h'
p1292
(dp1293
g3
S'Passenger'
p1294
sg4
I1
sg5
S'https://open.spotify.com/track/2jyjhRf6DVbMPU5zxagN2h'
p1295
sg6
S'Let Her Go'
p1296
ssS'7i2DJ88J7jQ8K7zqFX2fW8'
p1297
(dp1298
g3
S'Halsey'
p1299
sg4
I3
sg5
S'https://open.spotify.com/track/7i2DJ88J7jQ8K7zqFX2fW8'
p1300
sg6
S'Now Or Never'
p1301
ssS'43ZyHQITOjhciSUUNPVRHc'
p1302
(dp1303
g3
S'Lil Pump'
p1304
sg4
I1
sg5
S'https://open.spotify.com/track/43ZyHQITOjhciSUUNPVRHc'
p1305
sg6
S'Gucci Gang'
p1306
ssS'5dXUCE5cxxscOFr1e03N7I'
p1307
(dp1308
g3
S'BKO'
p1309
sg4
I9
sg5
S'https://open.spotify.com/track/5dXUCE5cxxscOFr1e03N7I'
p1310
sg6
S'Mattaboy (feat. Jairzinho & Sevn Alias)'
p1311
ssS'6nrbHVrXTAW0uhLjR5tqHJ'
p1312
(dp1313
g3
S"Lil' Kleine"
p1314
sg4
I1
sg5
S'https://open.spotify.com/track/6nrbHVrXTAW0uhLjR5tqHJ'
p1315
sg6
S'Jij & Ik'
p1316
ssS'7gtP8j2UNZM1hZBdWVcmrP'
p1317
(dp1318
g3
S'Lijpe'
p1319
sg4
I1
sg5
S'https://open.spotify.com/track/7gtP8j2UNZM1hZBdWVcmrP'
p1320
sg6
S"M'n Brada"
p1321
ssS'4nuN2uVpO4C3dF7BUxShQH'
p1322
(dp1323
g3
S'Boef'
p1324
sg4
I7
sg5
S'https://open.spotify.com/track/4nuN2uVpO4C3dF7BUxShQH'
p1325
sg6
S'Lauw'
p1326
ssS'5sNESr6pQfIhL3krM8CtZn'
p1327
(dp1328
g3
S'JAY Z'
p1329
sg4
I1
sg5
S'https://open.spotify.com/track/5sNESr6pQfIhL3krM8CtZn'
p1330
sg6
S'Numb / Encore'
p1331
ssS'0VYKnG61teH9SpMqE3WBM8'
p1332
(dp1333
g3
S'Boef'
p1334
sg4
I12
sg5
S'https://open.spotify.com/track/0VYKnG61teH9SpMqE3WBM8'
p1335
sg6
S'Wie Praat Die Gaat'
p1336
ssS'68EMU2RD1ECNeOeJ5qAXCV'
p1337
(dp1338
g3
S'Charlie Puth'
p1339
sg4
I10
sg5
S'https://open.spotify.com/track/68EMU2RD1ECNeOeJ5qAXCV'
p1340
sg6
S"We Don't Talk Anymore (feat. Selena Gomez)"
p1341
ssS'5FOl0F9XKGpGO8lrOjU7nX'
p1342
(dp1343
g3
S"Lil' Kleine"
p1344
sg4
I3
sg5
S'https://open.spotify.com/track/5FOl0F9XKGpGO8lrOjU7nX'
p1345
sg6
S'Liegen Voor Jou'
p1346
ssS'3LabmaOrATIbGd0n1RiD6k'
p1347
(dp1348
g3
S'STUK'
p1349
sg4
I12
sg5
S'https://open.spotify.com/track/3LabmaOrATIbGd0n1RiD6k'
p1350
sg6
S'Vannacht (feat. Wolter Kroes)'
p1351
ssS'1rSV01sxCegwW5yzzRH8KD'
p1352
(dp1353
g3
S'Ronnie Flex'
p1354
sg4
I2
sg5
S'https://open.spotify.com/track/1rSV01sxCegwW5yzzRH8KD'
p1355
sg6
S'BF'
p1356
ssS'7H5Kqq4zbqPkaCfMeQBJIq'
p1357
(dp1358
g3
S'Josylvio'
p1359
sg4
I2
sg5
S'https://open.spotify.com/track/7H5Kqq4zbqPkaCfMeQBJIq'
p1360
sg6
S'Meters'
p1361
ssS'4o9w0YfbgE2TjM7r4ppC9A'
p1362
(dp1363
g3
S'Yellow Claw'
p1364
sg4
I16
sg5
S'https://open.spotify.com/track/4o9w0YfbgE2TjM7r4ppC9A'
p1365
sg6
S'Open (feat. Moksi & Jonna Fraser)'
p1366
ssS'2WF1elYOPz3PBk1zOIBwIk'
p1367
(dp1368
g3
S'Johnny Sellah'
p1369
sg4
I5
sg5
S'https://open.spotify.com/track/2WF1elYOPz3PBk1zOIBwIk'
p1370
sg6
S'Spullen Op Mij'
p1371
ssS'6vSwxzO2Qf4BinHSXRwZJe'
p1372
(dp1373
g3
S'Ed Sheeran'
p1374
sg4
I7
sg5
S'https://open.spotify.com/track/6vSwxzO2Qf4BinHSXRwZJe'
p1375
sg6
S'Tenerife Sea'
p1376
ssS'1cImYkHOQMFE7AZC9aOk4y'
p1377
(dp1378
g3
S'Bobby Helms'
p1379
sg4
I1
sg5
S'https://open.spotify.com/track/1cImYkHOQMFE7AZC9aOk4y'
p1380
sg6
S'Jingle Bell Rock'
p1381
ssS'2mFVt6vCOcR71lw3kY2UZB'
p1382
(dp1383
g3
S'Major Lazer'
p1384
sg4
I13
sg5
S'https://open.spotify.com/track/2mFVt6vCOcR71lw3kY2UZB'
p1385
sg6
S'Believer'
p1386
ssS'2BFH1TOQzViOltkQvRTzhu'
p1387
(dp1388
g3
S"Lil' Kleine"
p1389
sg4
I1
sg5
S'https://open.spotify.com/track/2BFH1TOQzViOltkQvRTzhu'
p1390
sg6
S'Nooit Meer / Ooit Weer'
p1391
ssS'3uQS5QlTKUTfLP6fvb1Rhz'
p1392
(dp1393
g3
S'Jairzinho'
p1394
sg4
I7
sg5
S'https://open.spotify.com/track/3uQS5QlTKUTfLP6fvb1Rhz'
p1395
sg6
S'Mad Max'
p1396
ssS'4VuS959DSpr82t3qBqCrWG'
p1397
(dp1398
g3
S'Ed Sheeran'
p1399
sg4
I10
sg5
S'https://open.spotify.com/track/4VuS959DSpr82t3qBqCrWG'
p1400
sg6
S'Supermarket Flowers'
p1401
ssS'3drmsEnntYhdlxmDIltyzb'
p1402
(dp1403
g3
S'Hef'
p1404
sg4
I4
sg5
S'https://open.spotify.com/track/3drmsEnntYhdlxmDIltyzb'
p1405
sg6
S'Hustlers'
p1406
ssS'3LjI4UvwyxmOlp2lcNWN7Q'
p1407
(dp1408
g3
S'SBMG'
p1409
sg4
I12
sg5
S'https://open.spotify.com/track/3LjI4UvwyxmOlp2lcNWN7Q'
p1410
sg6
S'Mode Met Guap'
p1411
ssS'6CmUeBCSMfydY1J2I7Plis'
p1412
(dp1413
g3
S'BKO'
p1414
sg4
I1
sg5
S'https://open.spotify.com/track/6CmUeBCSMfydY1J2I7Plis'
p1415
sg6
S'Vrij Zijn'
p1416
ssS'4iDd4SyiwXWUqEwKpPXuaW'
p1417
(dp1418
g3
S'Mula B'
p1419
sg4
I1
sg5
S'https://open.spotify.com/track/4iDd4SyiwXWUqEwKpPXuaW'
p1420
sg6
S'Niemand Safe'
p1421
ssS'1ssmjAYSU5PbmsjLq5yrNH'
p1422
(dp1423
g3
S'Sia'
p1424
sg4
I12
sg5
S'https://open.spotify.com/track/1ssmjAYSU5PbmsjLq5yrNH'
p1425
sg6
S'Never Give Up'
p1426
ssS'0Zx8khUcEfCFK2AEoIhC92'
p1427
(dp1428
g3
S'Snakehips'
p1429
sg4
I13
sg5
S'https://open.spotify.com/track/0Zx8khUcEfCFK2AEoIhC92'
p1430
sg6
S"Don't Leave"
p1431
ssS'4QXLXEcGPl18ghSz4cSEzP'
p1432
(dp1433
g3
S'Sevn Alias'
p1434
sg4
I1
sg5
S'https://open.spotify.com/track/4QXLXEcGPl18ghSz4cSEzP'
p1435
sg6
S'In Amsterdam'
p1436
ssS'2sDSBt67I6ZiKf6tgPrgDR'
p1437
(dp1438
g3
S'Lijpe'
p1439
sg4
I1
sg5
S'https://open.spotify.com/track/2sDSBt67I6ZiKf6tgPrgDR'
p1440
sg6
S'Het Komt Allemaal Goed'
p1441
ssS'1crSsvtU9wZB15dIQXV2QH'
p1442
(dp1443
g3
S'John Mayer'
p1444
sg4
I3
sg5
S'https://open.spotify.com/track/1crSsvtU9wZB15dIQXV2QH'
p1445
sg6
S'Moving On and Getting Over'
p1446
ssS'0oiCeOPwm4zhwfyIpAE37y'
p1447
(dp1448
g3
S'John Mayer'
p1449
sg4
I11
sg5
S'https://open.spotify.com/track/0oiCeOPwm4zhwfyIpAE37y'
p1450
sg6
S'Love on the Weekend'
p1451
ssS'73jpyh5skC2tbah8eAzaAi'
p1452
(dp1453
g3
S'Josylvio'
p1454
sg4
I28
sg5
S'https://open.spotify.com/track/73jpyh5skC2tbah8eAzaAi'
p1455
sg6
S'Westside'
p1456
ssS'3epjPfHoe9f4lZZ0YxjsCs'
p1457
(dp1458
g3
S'armoo'
p1459
sg4
I4
sg5
S'https://open.spotify.com/track/3epjPfHoe9f4lZZ0YxjsCs'
p1460
sg6
S'Zwart Haar'
p1461
ssS'5xcekrEAJ5CVZPpjb3N36l'
p1462
(dp1463
g3
S'Adje'
p1464
sg4
I3
sg5
S'https://open.spotify.com/track/5xcekrEAJ5CVZPpjb3N36l'
p1465
sg6
S'TRRR - Bonus Track'
p1466
ssS'4LWFSUu2nMQXkfUWaPgzCa'
p1467
(dp1468
g3
S'Murda'
p1469
sg4
I14
sg5
S'https://open.spotify.com/track/4LWFSUu2nMQXkfUWaPgzCa'
p1470
sg6
S'Cul\xc3\xa9'
p1471
ssS'6n3HGiq4v35D6eFOSwqYuo'
p1472
(dp1473
g3
S'Drake'
p1474
sg4
I3
sg5
S'https://open.spotify.com/track/6n3HGiq4v35D6eFOSwqYuo'
p1475
sg6
S'Teenage Fever'
p1476
ssS'61WbtB6ujkpNAsAf5LjF4b'
p1477
(dp1478
g3
S'Katy Perry'
p1479
sg4
I12
sg5
S'https://open.spotify.com/track/61WbtB6ujkpNAsAf5LjF4b'
p1480
sg6
S'Bon app\xc3\xa9tit'
p1481
ssS'0YHUITU3w6ws1v8ehT264g'
p1482
(dp1483
g3
S'Little Mix'
p1484
sg4
I11
sg5
S'https://open.spotify.com/track/0YHUITU3w6ws1v8ehT264g'
p1485
sg6
S'Shout Out to My Ex'
p1486
ssS'1dOToSr1Vjb5ncjoCV2JeB'
p1487
(dp1488
g3
S"Lil' Kleine"
p1489
sg4
I1
sg5
S'https://open.spotify.com/track/1dOToSr1Vjb5ncjoCV2JeB'
p1490
sg6
S'Volume'
p1491
ssS'50PWlIBU7PlGGwzgN8TiFJ'
p1492
(dp1493
g3
S'Lady Gaga'
p1494
sg4
I1
sg5
S'https://open.spotify.com/track/50PWlIBU7PlGGwzgN8TiFJ'
p1495
sg6
S'Million Reasons'
p1496
ssS'7M16mAuWuFA5rC9HvkXaGx'
p1497
(dp1498
g3
S'Jax Jones'
p1499
sg4
I5
sg5
S'https://open.spotify.com/track/7M16mAuWuFA5rC9HvkXaGx'
p1500
sg6
S"You Don't Know Me - Radio Edit"
p1501
ssS'5oUkY2Eb0yOrXL12KYS3UG'
p1502
(dp1503
g3
S'Frenna'
p1504
sg4
I41
sg5
S'https://open.spotify.com/track/5oUkY2Eb0yOrXL12KYS3UG'
p1505
sg6
S'Away'
p1506
ssS'2XlHu0HcujBCkWMdIAvrqt'
p1507
(dp1508
g3
S'Drake'
p1509
sg4
I6
sg5
S'https://open.spotify.com/track/2XlHu0HcujBCkWMdIAvrqt'
p1510
sg6
S'Blem'
p1511
ssS'5SeMA9NzQdRDe5E2DPaAOJ'
p1512
(dp1513
g3
S'Mula B'
p1514
sg4
I6
sg5
S'https://open.spotify.com/track/5SeMA9NzQdRDe5E2DPaAOJ'
p1515
sg6
S'Dun Finesse'
p1516
ssS'5f5r2N4Lp9WoULWPH9zp2W'
p1517
(dp1518
g3
S'Drake'
p1519
sg4
I2
sg5
S'https://open.spotify.com/track/5f5r2N4Lp9WoULWPH9zp2W'
p1520
sg6
S"Can't Have Everything"
p1521
ssS'4HcZnYVu6Y8ZKwjnsGsS5o'
p1522
(dp1523
g3
S'Lijpe'
p1524
sg4
I1
sg5
S'https://open.spotify.com/track/4HcZnYVu6Y8ZKwjnsGsS5o'
p1525
sg6
S'Marokko'
p1526
ssS'4JAyIDXOqNM6qHuZML01uX'
p1527
(dp1528
g3
g1
sg4
I1
sg5
S'https://open.spotify.com/track/4JAyIDXOqNM6qHuZML01uX'
p1529
sg6
g1
ssS'6stKyZWSgvnwco3RKRUV98'
p1530
(dp1531
g3
S'Jonna Fraser'
p1532
sg4
I1
sg5
S'https://open.spotify.com/track/6stKyZWSgvnwco3RKRUV98'
p1533
sg6
S'Nog Steeds'
p1534
ssS'4nwUm8aihQ0Do7abgrtlcI'
p1535
(dp1536
g3
S'Lijpe'
p1537
sg4
I2
sg5
S'https://open.spotify.com/track/4nwUm8aihQ0Do7abgrtlcI'
p1538
sg6
S'Uitweg'
p1539
ssS'00f0LfcR6wAFwYSJsdBNRD'
p1540
(dp1541
g3
S'Kosso'
p1542
sg4
I2
sg5
S'https://open.spotify.com/track/00f0LfcR6wAFwYSJsdBNRD'
p1543
sg6
S'Laat Mij (feat. Lijpe)'
p1544
ssS'3hRZsdTF5uyGA2uhNqEuhm'
p1545
(dp1546
g3
S'Niall Horan'
p1547
sg4
I4
sg5
S'https://open.spotify.com/track/3hRZsdTF5uyGA2uhNqEuhm'
p1548
sg6
S'Too Much To Ask'
p1549
ssS'3YKsaQUYTOZ9wSaBKxesze'
p1550
(dp1551
g3
S'LouiVos'
p1552
sg4
I1
sg5
S'https://open.spotify.com/track/3YKsaQUYTOZ9wSaBKxesze'
p1553
sg6
S'Welkom'
p1554
ssS'5hYTyyh2odQKphUbMqc5gN'
p1555
(dp1556
g3
S'Alessia Cara'
p1557
sg4
I21
sg5
S'https://open.spotify.com/track/5hYTyyh2odQKphUbMqc5gN'
p1558
sg6
S"How Far I'll Go - From Moana"
p1559
ssS'5glT4ES7BSeGfcvzYUZc2V'
p1560
(dp1561
g3
S'Ronnie Flex'
p1562
sg4
I1
sg5
S'https://open.spotify.com/track/5glT4ES7BSeGfcvzYUZc2V'
p1563
sg6
S'Plek Als Dit'
p1564
ssS'1sBhJGPUKrdRycgKxve70v'
p1565
(dp1566
g3
S'Felix Jaehn'
p1567
sg4
I13
sg5
S'https://open.spotify.com/track/1sBhJGPUKrdRycgKxve70v'
p1568
sg6
S'Hot2Touch'
p1569
ssS'72jbDTw1piOOj770jWNeaG'
p1570
(dp1571
g3
S'The Chainsmokers'
p1572
sg4
I31
sg5
S'https://open.spotify.com/track/72jbDTw1piOOj770jWNeaG'
p1573
sg6
S'Paris'
p1574
ssS'6G41AeVgQkpvEbTxN5fNkW'
p1575
(dp1576
g3
S'Boef'
p1577
sg4
I30
sg5
S'https://open.spotify.com/track/6G41AeVgQkpvEbTxN5fNkW'
p1578
sg6
S'Habiba'
p1579
ssS'3yg5lNA7zHQ0C7PP4OK4qo'
p1580
(dp1581
g3
S'Pierrii'
p1582
sg4
I1
sg5
S'https://open.spotify.com/track/3yg5lNA7zHQ0C7PP4OK4qo'
p1583
sg6
S'Is Toch Norma (feat. Lange Ritch)'
p1584
ssS'1MDhEAkYDAkBZgjhuU5ywf'
p1585
(dp1586
g3
S'Lijpe'
p1587
sg4
I1
sg5
S'https://open.spotify.com/track/1MDhEAkYDAkBZgjhuU5ywf'
p1588
sg6
S'Geen Zorgen Meer'
p1589
ssS'0bIFosGYK4P58RWOpoRLZP'
p1590
(dp1591
g3
S'F1rstman'
p1592
sg4
I1
sg5
S'https://open.spotify.com/track/0bIFosGYK4P58RWOpoRLZP'
p1593
sg6
S'Blow It All'
p1594
ssS'6FemVsNUb2lzWsDRm14FUJ'
p1595
(dp1596
g3
S'The Script'
p1597
sg4
I7
sg5
S'https://open.spotify.com/track/6FemVsNUb2lzWsDRm14FUJ'
p1598
sg6
S'Rain'
p1599
ssS'0tnpz1mvcQdDASkjUdHChV'
p1600
(dp1601
g3
S'Lucas & Steve'
p1602
sg4
I20
sg5
S'https://open.spotify.com/track/0tnpz1mvcQdDASkjUdHChV'
p1603
sg6
S'Up Till Dawn (On The Move)'
p1604
ssS'5TWsixdrNl14XFdc4yJdBI'
p1605
(dp1606
g3
S'Esko'
p1607
sg4
I1
sg5
S'https://open.spotify.com/track/5TWsixdrNl14XFdc4yJdBI'
p1608
sg6
S'Only Thing'
p1609
ssS'1EaKU4dMbesXXd3BrLCtYG'
p1610
(dp1611
g3
S'Kendrick Lamar'
p1612
sg4
I4
sg5
S'https://open.spotify.com/track/1EaKU4dMbesXXd3BrLCtYG'
p1613
sg6
S'ELEMENT.'
p1614
ssS'4c2W3VKsOFoIg2SFaO6DY5'
p1615
(dp1616
g3
S'Rita Ora'
p1617
sg4
I20
sg5
S'https://open.spotify.com/track/4c2W3VKsOFoIg2SFaO6DY5'
p1618
sg6
S'Your Song'
p1619
ssS'5PbmDgnVMy6wFJsyyLLzrA'
p1620
(dp1621
g3
S'F1rstman'
p1622
sg4
I1
sg5
S'https://open.spotify.com/track/5PbmDgnVMy6wFJsyyLLzrA'
p1623
sg6
S'Maria (Prod. by Skyline)'
p1624
ssS'6cADnqlHsn8btkdRbSoB9E'
p1625
(dp1626
g3
S'Jonna Fraser'
p1627
sg4
I2
sg5
S'https://open.spotify.com/track/6cADnqlHsn8btkdRbSoB9E'
p1628
sg6
S'Global'
p1629
ssS'45WoWAJMccKgaTnfSwnWjc'
p1630
(dp1631
g3
S'Ronnie Flex'
p1632
sg4
I2
sg5
S'https://open.spotify.com/track/45WoWAJMccKgaTnfSwnWjc'
p1633
sg6
S'Dichterbij Me'
p1634
ssS'6YnzBV7YkaXZNCK3tlnCfg'
p1635
(dp1636
g3
S'Boney M.'
p1637
sg4
I1
sg5
S'https://open.spotify.com/track/6YnzBV7YkaXZNCK3tlnCfg'
p1638
sg6
S"Mary's Boy Child / Oh My Lord"
p1639
ssS'2KvHC9z14GSl4YpkNMX384'
p1640
(dp1641
g3
S'Drake'
p1642
sg4
I2
sg5
S'https://open.spotify.com/track/2KvHC9z14GSl4YpkNMX384'
p1643
sg6
S'Do Not Disturb'
p1644
ssS'6zOTeFx7PVMWWoew9WKqft'
p1645
(dp1646
g3
S'Ismo'
p1647
sg4
I1
sg5
S'https://open.spotify.com/track/6zOTeFx7PVMWWoew9WKqft'
p1648
sg6
S'Jij Denkt Teveel'
p1649
ssS'2gbCG4Rt9984UZ7Tc0dIFd'
p1650
(dp1651
g3
S'Michael Bubl\xc3\xa9'
p1652
sg4
I1
sg5
S'https://open.spotify.com/track/2gbCG4Rt9984UZ7Tc0dIFd'
p1653
sg6
S'White Christmas (Duet With Shania Twain)'
p1654
ssS'1XM927t5XfdJf5v66dZMxg'
p1655
(dp1656
g3
S'PLEUN'
p1657
sg4
I1
sg5
S'https://open.spotify.com/track/1XM927t5XfdJf5v66dZMxg'
p1658
sg6
S'What Hurts The Most'
p1659
ssS'7iTvTKgErVgzzWvC2bGFVJ'
p1660
(dp1661
g3
S'Mula B'
p1662
sg4
I8
sg5
S'https://open.spotify.com/track/7iTvTKgErVgzzWvC2bGFVJ'
p1663
sg6
S'Juice'
p1664
ssS'1zxhWUZFs9aVxo9o8ISfrK'
p1665
(dp1666
g3
S'Jacin Trill'
p1667
sg4
I1
sg5
S'https://open.spotify.com/track/1zxhWUZFs9aVxo9o8ISfrK'
p1668
sg6
S'Kspreyopjebytch'
p1669
ssS'0dA2Mk56wEzDgegdC6R17g'
p1670
(dp1671
g3
S'Zedd'
p1672
sg4
I33
sg5
S'https://open.spotify.com/track/0dA2Mk56wEzDgegdC6R17g'
p1673
sg6
S'Stay (with Alessia Cara)'
p1674
ssS'3kGfazcbVvVkuZunzlLgTD'
p1675
(dp1676
g3
S'Sigala'
p1677
sg4
I13
sg5
S'https://open.spotify.com/track/3kGfazcbVvVkuZunzlLgTD'
p1678
sg6
S'Came Here for Love'
p1679
ssS'68qTD5PAoqFgrkw5W2DHL5'
p1680
(dp1681
g3
S'Kraantje Pappie'
p1682
sg4
I41
sg5
S'https://open.spotify.com/track/68qTD5PAoqFgrkw5W2DHL5'
p1683
sg6
S'De Manier'
p1684
ssS'3Ytr1SUCUi6J3L9dRFx5iH'
p1685
(dp1686
g3
S'Major Lazer'
p1687
sg4
I19
sg5
S'https://open.spotify.com/track/3Ytr1SUCUi6J3L9dRFx5iH'
p1688
sg6
S'Know No Better (feat. Quavo)'
p1689
ssS'4QVdnpSO5JGMFOEl6ys4RQ'
p1690
(dp1691
g3
S'Coldplay'
p1692
sg4
I1
sg5
S'https://open.spotify.com/track/4QVdnpSO5JGMFOEl6ys4RQ'
p1693
sg6
S'Christmas Lights - Live From Spotify London'
p1694
ssS'3jpViAo0HZOdT7Flyfne6j'
p1695
(dp1696
g3
S'Fais'
p1697
sg4
I1
sg5
S'https://open.spotify.com/track/3jpViAo0HZOdT7Flyfne6j'
p1698
sg6
S'Hey'
p1699
ssS'1HxeewbSlhZcoWEIrVPMTx'
p1700
(dp1701
g3
S'Johnny 500'
p1702
sg4
I12
sg5
S'https://open.spotify.com/track/1HxeewbSlhZcoWEIrVPMTx'
p1703
sg6
S'Skurbah'
p1704
ssS'18g50kFt5uwVeCzQbrCvAO'
p1705
(dp1706
g3
S'Jessie J'
p1707
sg4
I1
sg5
S'https://open.spotify.com/track/18g50kFt5uwVeCzQbrCvAO'
p1708
sg6
S'Man With The Bag'
p1709
ssS'7KLGpTlLaPq9mSPhxc3gsY'
p1710
(dp1711
g3
S'Ronnie Flex'
p1712
sg4
I22
sg5
S'https://open.spotify.com/track/7KLGpTlLaPq9mSPhxc3gsY'
p1713
sg6
S'Plek Als Dit'
p1714
ssS'7nZmah2llfvLDiUjm0kiyz'
p1715
(dp1716
g3
S'Justin Bieber'
p1717
sg4
I8
sg5
S'https://open.spotify.com/track/7nZmah2llfvLDiUjm0kiyz'
p1718
sg6
S'Friends (with BloodPop\xc2\xae)'
p1719
ssS'13HVjjWUZFaWilh2QUJKsP'
p1720
(dp1721
g3
S'James Bay'
p1722
sg4
I16
sg5
S'https://open.spotify.com/track/13HVjjWUZFaWilh2QUJKsP'
p1723
sg6
S'Let It Go'
p1724
ssS'0dcitje2ugcXW1Ds3tEi1K'
p1725
(dp1726
g3
S'Kempi'
p1727
sg4
I1
sg5
S'https://open.spotify.com/track/0dcitje2ugcXW1Ds3tEi1K'
p1728
sg6
S'Welcome Op De Block'
p1729
ssS'0y9uTzK9cNKSAEHnpeRG8C'
p1730
(dp1731
g3
S'Kendrick Lamar'
p1732
sg4
I1
sg5
S'https://open.spotify.com/track/0y9uTzK9cNKSAEHnpeRG8C'
p1733
sg6
S'DUCKWORTH.'
p1734
ssS'78ua0tO3G5MBSOL3psLEEx'
p1735
(dp1736
g3
S'Vic9'
p1737
sg4
I1
sg5
S'https://open.spotify.com/track/78ua0tO3G5MBSOL3psLEEx'
p1738
sg6
S'Anekdote'
p1739
ssS'75clRtmtXSkZsPm6SjjQ5j'
p1740
(dp1741
g3
S'Frank Sinatra'
p1742
sg4
I1
sg5
S'https://open.spotify.com/track/75clRtmtXSkZsPm6SjjQ5j'
p1743
sg6
S"Santa Claus Is Comin' to Town"
p1744
ssS'7at42t8ZcFzztKIX1NObrB'
p1745
(dp1746
g3
S'Wolfgang'
p1747
sg4
I4
sg5
S'https://open.spotify.com/track/7at42t8ZcFzztKIX1NObrB'
p1748
sg6
S'Marokko'
p1749
ssS'0Ub2WcpO3sjeDPZhc1iRoa'
p1750
(dp1751
g3
S"Lil' Kleine"
p1752
sg4
I16
sg5
S'https://open.spotify.com/track/0Ub2WcpO3sjeDPZhc1iRoa'
p1753
sg6
S'Kleine Jongen'
p1754
ssS'5HzF0WE130xDECtMC3SrKF'
p1755
(dp1756
g3
S'BKO'
p1757
sg4
I1
sg5
S'https://open.spotify.com/track/5HzF0WE130xDECtMC3SrKF'
p1758
sg6
S'Ze Willen Niet'
p1759
ssS'7of1slAJIWrXxP8ikAHxje'
p1760
(dp1761
g3
S'James Hersey'
p1762
sg4
I3
sg5
S'https://open.spotify.com/track/7of1slAJIWrXxP8ikAHxje'
p1763
sg6
S'Miss You'
p1764
ssS'7sMPXHS84uuTGeb21IgXnU'
p1765
(dp1766
g3
S'Josylvio'
p1767
sg4
I3
sg5
S'https://open.spotify.com/track/7sMPXHS84uuTGeb21IgXnU'
p1768
sg6
S'Ride Or Die'
p1769
ssS'2dfHh7ECGxfNqZTQno09Vk'
p1770
(dp1771
g3
S'Ed Sheeran'
p1772
sg4
I8
sg5
S'https://open.spotify.com/track/2dfHh7ECGxfNqZTQno09Vk'
p1773
sg6
S"Hearts Don't Break Around Here"
p1774
ssS'2Arqgg7QIb2zAxK6s69n2K'
p1775
(dp1776
g3
S'Afro Bros'
p1777
sg4
I1
sg5
S'https://open.spotify.com/track/2Arqgg7QIb2zAxK6s69n2K'
p1778
sg6
S'18 Plus - Original Mix'
p1779
ssS'63wTyXYbbn2XNWw3nZAO75'
p1780
(dp1781
g3
S'Lijpe'
p1782
sg4
I2
sg5
S'https://open.spotify.com/track/63wTyXYbbn2XNWw3nZAO75'
p1783
sg6
S'Tevreden'
p1784
ssS'0JdKB06zZsPXmfvQVeJS35'
p1785
(dp1786
g3
S"Lil' Kleine"
p1787
sg4
I1
sg5
S'https://open.spotify.com/track/0JdKB06zZsPXmfvQVeJS35'
p1788
sg6
S'Loterij'
p1789
ssS'07d579bKEYrN2tQ0Xb22nU'
p1790
(dp1791
g3
S'ChildsPlay'
p1792
sg4
I10
sg5
S'https://open.spotify.com/track/07d579bKEYrN2tQ0Xb22nU'
p1793
sg6
S'Muhammad Ali'
p1794
ssS'6D0b04NJIKfEMg040WioJQ'
p1795
(dp1796
g3
S'Julia Michaels'
p1797
sg4
I2
sg5
S'https://open.spotify.com/track/6D0b04NJIKfEMg040WioJQ'
p1798
sg6
S'Issues'
p1799
ssS'5oXb4UZF3OyoLfqjC6gsvw'
p1800
(dp1801
g3
S'Jonna Fraser'
p1802
sg4
I1
sg5
S'https://open.spotify.com/track/5oXb4UZF3OyoLfqjC6gsvw'
p1803
sg6
S'Pak Je Rust'
p1804
ssS'6jku2VMPsAtqBjD8qhE67l'
p1805
(dp1806
g3
S"Lil' Kleine"
p1807
sg4
I18
sg5
S'https://open.spotify.com/track/6jku2VMPsAtqBjD8qhE67l'
p1808
sg6
S'Je Gaat Zo Dik'
p1809
ssS'5fc6rQgAKiLutfUYWQ6QnJ'
p1810
(dp1811
g3
S'Sia'
p1812
sg4
I1
sg5
S'https://open.spotify.com/track/5fc6rQgAKiLutfUYWQ6QnJ'
p1813
sg6
S'Helium - From Fifty Shades Darker (Original Motion Picture Soundtrack)'
p1814
ssS'6BZ75ijONqFAmLNUFNCKXQ'
p1815
(dp1816
g3
S'Killer Kamal'
p1817
sg4
I8
sg5
S'https://open.spotify.com/track/6BZ75ijONqFAmLNUFNCKXQ'
p1818
sg6
S'Saaf Slaaf'
p1819
ssS'2hsXObNR4ye4nZzf8VePvn'
p1820
(dp1821
g3
S'Sevn Alias'
p1822
sg4
I1
sg5
S'https://open.spotify.com/track/2hsXObNR4ye4nZzf8VePvn'
p1823
sg6
S'Blessed'
p1824
ssS'343YBumqHu19cGoGARUTsd'
p1825
(dp1826
g3
S'Drake'
p1827
sg4
I22
sg5
S'https://open.spotify.com/track/343YBumqHu19cGoGARUTsd'
p1828
sg6
S'Fake Love'
p1829
ssS'5HDPtsnyb3maFmPL8LLUTG'
p1830
(dp1831
g3
S'Ed Sheeran'
p1832
sg4
I10
sg5
S'https://open.spotify.com/track/5HDPtsnyb3maFmPL8LLUTG'
p1833
sg6
S'New Man'
p1834
ssS'0GXDJJtwFPukXkvuSD5Uj5'
p1835
(dp1836
g3
S"Lil' Kleine"
p1837
sg4
I1
sg5
S'https://open.spotify.com/track/0GXDJJtwFPukXkvuSD5Uj5'
p1838
sg6
S'Wat Een Tijd Om Te Leven'
p1839
ssS'6V9kwssTrwkKT72imgowj9'
p1840
(dp1841
g3
S'The Chainsmokers'
p1842
sg4
I1
sg5
S'https://open.spotify.com/track/6V9kwssTrwkKT72imgowj9'
p1843
sg6
S'My Type'
p1844
ssS'6EDnqtAZxZu5pGXyPjgvU8'
p1845
(dp1846
g3
S'LouiVos'
p1847
sg4
I13
sg5
S'https://open.spotify.com/track/6EDnqtAZxZu5pGXyPjgvU8'
p1848
sg6
S'Ex (feat. Webb)'
p1849
ssS'6WbADFqMvR8N5u0BvtsWQE'
p1850
(dp1851
g3
S'Avicii'
p1852
sg4
I9
sg5
S'https://open.spotify.com/track/6WbADFqMvR8N5u0BvtsWQE'
p1853
sg6
S'Without You (feat. Sandro Cavazza)'
p1854
ssS'32VAEczWfk1FyU8AGCY2wi'
p1855
(dp1856
g3
S'Equalz'
p1857
sg4
I10
sg5
S'https://open.spotify.com/track/32VAEczWfk1FyU8AGCY2wi'
p1858
sg6
S'Op De Weg'
p1859
ssS'2iIguIwgzlHoIGbgpCEZxq'
p1860
(dp1861
g3
S'ROLL\xc3\x80N'
p1862
sg4
I1
sg5
S'https://open.spotify.com/track/2iIguIwgzlHoIGbgpCEZxq'
p1863
sg6
S'Pourquoi'
p1864
ssS'4pdPtRcBmOSQDlJ3Fk945m'
p1865
(dp1866
g3
S'DJ Snake'
p1867
sg4
I26
sg5
S'https://open.spotify.com/track/4pdPtRcBmOSQDlJ3Fk945m'
p1868
sg6
S'Let Me Love You'
p1869
ssS'4GhhyQRc8SVY6y54huckGP'
p1870
(dp1871
g3
S"Lil' Kleine"
p1872
sg4
I3
sg5
S'https://open.spotify.com/track/4GhhyQRc8SVY6y54huckGP'
p1873
sg6
S'Vliegtuig'
p1874
ssS'5EnYT6F7wEcdege6mDHEfO'
p1875
(dp1876
g3
S'Drake'
p1877
sg4
I9
sg5
S'https://open.spotify.com/track/5EnYT6F7wEcdege6mDHEfO'
p1878
sg6
S'Signs'
p1879
ssS'1OAiWI2oPmglaOiv9fdioU'
p1880
(dp1881
g3
S'Coldplay'
p1882
sg4
I5
sg5
S'https://open.spotify.com/track/1OAiWI2oPmglaOiv9fdioU'
p1883
sg6
S'Hymn For The Weekend - Seeb Remix'
p1884
ssS'7GikqtK826hJgqpcFU4sVM'
p1885
(dp1886
g3
S"Lil' Kleine"
p1887
sg4
I15
sg5
S'https://open.spotify.com/track/7GikqtK826hJgqpcFU4sVM'
p1888
sg6
S'Gemaakt Voor Dit'
p1889
ssS'2e6HUZ6thgWkKKi5vOWNov'
p1890
(dp1891
g3
S'SBMG'
p1892
sg4
I35
sg5
S'https://open.spotify.com/track/2e6HUZ6thgWkKKi5vOWNov'
p1893
sg6
S'Laag/Boven'
p1894
ssS'3IHzVLlaWYz4izpQKjwfxw'
p1895
(dp1896
g3
S'SFB'
p1897
sg4
I9
sg5
S'https://open.spotify.com/track/3IHzVLlaWYz4izpQKjwfxw'
p1898
sg6
S'Dem Say'
p1899
ssS'3bfzlKH2WVXNvLcxEky2k5'
p1900
(dp1901
g3
S'Jairzinho'
p1902
sg4
I20
sg5
S'https://open.spotify.com/track/3bfzlKH2WVXNvLcxEky2k5'
p1903
sg6
S'Now She See Me'
p1904
ssS'2Na0z2gfN67Rzf0vp74Wi3'
p1905
(dp1906
g3
S'Drake'
p1907
sg4
I2
sg5
S'https://open.spotify.com/track/2Na0z2gfN67Rzf0vp74Wi3'
p1908
sg6
S'Lose You'
p1909
ssS'3HHLbiiR48BZ636KgWUCw0'
p1910
(dp1911
g3
S'Langesjaak'
p1912
sg4
I8
sg5
S'https://open.spotify.com/track/3HHLbiiR48BZ636KgWUCw0'
p1913
sg6
S'Wat Zou Je Doen'
p1914
ssS'7jHxlScnIVoggKeLYvISRS'
p1915
(dp1916
g3
S'Bokoesam'
p1917
sg4
I8
sg5
S'https://open.spotify.com/track/7jHxlScnIVoggKeLYvISRS'
p1918
sg6
S'BBB'
p1919
ssS'2G9aC2EskghiGGo2ZCrOyZ'
p1920
(dp1921
g3
S'Ronnie Flex'
p1922
sg4
I1
sg5
S'https://open.spotify.com/track/2G9aC2EskghiGGo2ZCrOyZ'
p1923
sg6
S'Opgekomen'
p1924
ssS'1zPIyM5NbQZu929Rjsb3Ma'
p1925
(dp1926
g3
S'Zack Ink'
p1927
sg4
I8
sg5
S'https://open.spotify.com/track/1zPIyM5NbQZu929Rjsb3Ma'
p1928
sg6
S'Ze Wil Hangen'
p1929
ssS'4iYRa2btalAzPZoSYfROqF'
p1930
(dp1931
g3
S'Kendrick Lamar'
p1932
sg4
I2
sg5
S'https://open.spotify.com/track/4iYRa2btalAzPZoSYfROqF'
p1933
sg6
S'XXX. FEAT. U2.'
p1934
ssS'5ePyHkLGj4njlgfSgycpgG'
p1935
(dp1936
g3
S'The Partysquad'
p1937
sg4
I10
sg5
S'https://open.spotify.com/track/5ePyHkLGj4njlgfSgycpgG'
p1938
sg6
S'Plakken'
p1939
ssS'4uq06VJ5eLj1GQkN9edTkf'
p1940
(dp1941
g3
S'Jonna Fraser'
p1942
sg4
I1
sg5
S'https://open.spotify.com/track/4uq06VJ5eLj1GQkN9edTkf'
p1943
sg6
S'Sta Op'
p1944
ssS'5d4E871YLQjYkUtTYdvwpl'
p1945
(dp1946
g3
S'Soufiane Eddyani'
p1947
sg4
I2
sg5
S'https://open.spotify.com/track/5d4E871YLQjYkUtTYdvwpl'
p1948
sg6
S'Zina'
p1949
ssS'6K15vbGia4CiKLoqO6ANE9'
p1950
(dp1951
g3
S"Lil' Kleine"
p1952
sg4
I6
sg5
S'https://open.spotify.com/track/6K15vbGia4CiKLoqO6ANE9'
p1953
sg6
S'Jij & Ik'
p1954
ssS'5OOkp4U9P9oL23maHFHL1h'
p1955
(dp1956
g3
S'Desiigner'
p1957
sg4
I3
sg5
S'https://open.spotify.com/track/5OOkp4U9P9oL23maHFHL1h'
p1958
sg6
S'Panda'
p1959
ssS'2ar7h324zj4zNLHQa3Dipm'
p1960
(dp1961
g3
S'SBMG'
p1962
sg4
I11
sg5
S'https://open.spotify.com/track/2ar7h324zj4zNLHQa3Dipm'
p1963
sg6
S'Pull Up Game Strong'
p1964
ssS'19dGE5BQNUbQF1YRGW8UBq'
p1965
(dp1966
g3
S'Fresku'
p1967
sg4
I1
sg5
S'https://open.spotify.com/track/19dGE5BQNUbQF1YRGW8UBq'
p1968
sg6
S'Als Ik Drop'
p1969
ssS'7y6c07pgjZvtHI9kuMVqk1'
p1970
(dp1971
g3
S'Drake'
p1972
sg4
I4
sg5
S'https://open.spotify.com/track/7y6c07pgjZvtHI9kuMVqk1'
p1973
sg6
S'Get It Together'
p1974
ssS'1NimadmKfmyCtZoJRglIx6'
p1975
(dp1976
g3
S'Bokoesam'
p1977
sg4
I1
sg5
S'https://open.spotify.com/track/1NimadmKfmyCtZoJRglIx6'
p1978
sg6
S'Shawty'
p1979
ssS'5ixfSCCgVbLAQuzoj70z7M'
p1980
(dp1981
g3
S'Josylvio'
p1982
sg4
I24
sg5
S'https://open.spotify.com/track/5ixfSCCgVbLAQuzoj70z7M'
p1983
sg6
S'Kleine Jongen'
p1984
ssS'0D6hQiaRfppzIW0RX3fpN0'
p1985
(dp1986
g3
S'Kinderen Voor Kinderen'
p1987
sg4
I1
sg5
S'https://open.spotify.com/track/0D6hQiaRfppzIW0RX3fpN0'
p1988
sg6
S'Gruwelijk Eng'
p1989
ssS'3up1uPuvL5vkfJ6aOeSRtD'
p1990
(dp1991
g3
S'Ma\xc3\xaetre Gims'
p1992
sg4
I6
sg5
S'https://open.spotify.com/track/3up1uPuvL5vkfJ6aOeSRtD'
p1993
sg6
S'Loin - Pilule Violette'
p1994
ssS'2LgBIHlcsbatLBBV2b1RIv'
p1995
(dp1996
g3
S'Sevn Alias'
p1997
sg4
I13
sg5
S'https://open.spotify.com/track/2LgBIHlcsbatLBBV2b1RIv'
p1998
sg6
S'Nachtmerrie'
p1999
ssS'69pRsGt2ZkevuMoqnRPGv8'
p2000
(dp2001
g3
S"Lil' Kleine"
p2002
sg4
I1
sg5
S'https://open.spotify.com/track/69pRsGt2ZkevuMoqnRPGv8'
p2003
sg6
S'Alleen'
p2004
ssS'79cuOz3SPQTuFrp8WgftAu'
p2005
(dp2006
g3
S'Shawn Mendes'
p2007
sg4
I25
sg5
S'https://open.spotify.com/track/79cuOz3SPQTuFrp8WgftAu'
p2008
sg6
S"There's Nothing Holdin' Me Back"
p2009
ssS'2dvTTBkl5xW3fNFz9mRFw5'
p2010
(dp2011
g3
S'Willy William'
p2012
sg4
I1
sg5
S'https://open.spotify.com/track/2dvTTBkl5xW3fNFz9mRFw5'
p2013
sg6
S'Ego - Radio Edit'
p2014
ssS'0lmdsH1MIoLsMymnNpd6HU'
p2015
(dp2016
g3
S'Dante Klein'
p2017
sg4
I10
sg5
S'https://open.spotify.com/track/0lmdsH1MIoLsMymnNpd6HU'
p2018
sg6
S'Let Me Hold You (Turn Me On)'
p2019
ssS'57KbPZJQS00JMkp1BQwYmo'
p2020
(dp2021
g3
S'Gavin James'
p2022
sg4
I2
sg5
S'https://open.spotify.com/track/57KbPZJQS00JMkp1BQwYmo'
p2023
sg6
S'Nervous'
p2024
ssS'3sFKaUpPWohKoND5g9XD6p'
p2025
(dp2026
g3
S'BL\xc3\x98F'
p2027
sg4
I8
sg5
S'https://open.spotify.com/track/3sFKaUpPWohKoND5g9XD6p'
p2028
sg6
S'Wereld Van Verschil'
p2029
ssS'5WffuN8tkkBiIBPumKb9yk'
p2030
(dp2031
g3
S'SFB'
p2032
sg4
I6
sg5
S'https://open.spotify.com/track/5WffuN8tkkBiIBPumKb9yk'
p2033
sg6
S'Heethoofd'
p2034
ssS'5zhTxSctAPGFmXSZ7RPmxG'
p2035
(dp2036
g3
S'Boef'
p2037
sg4
I22
sg5
S'https://open.spotify.com/track/5zhTxSctAPGFmXSZ7RPmxG'
p2038
sg6
S'Salam'
p2039
ssS'5bznfV59JXjzobL625Da2v'
p2040
(dp2041
g3
S'Jonna Fraser'
p2042
sg4
I26
sg5
S'https://open.spotify.com/track/5bznfV59JXjzobL625Da2v'
p2043
sg6
S'Party'
p2044
ssS'3uRoL8xoniZmLjPJvzAwgk'
p2045
(dp2046
g3
S'Kempi'
p2047
sg4
I2
sg5
S'https://open.spotify.com/track/3uRoL8xoniZmLjPJvzAwgk'
p2048
sg6
S'Sexy Body'
p2049
ssS'3AVnVfMTmPUlC2XjhjjNO4'
p2050
(dp2051
g3
S'Sevn Alias'
p2052
sg4
I1
sg5
S'https://open.spotify.com/track/3AVnVfMTmPUlC2XjhjjNO4'
p2053
sg6
S'CSI'
p2054
ssS'0ZhFoxcT7GMmHzqZr57uiB'
p2055
(dp2056
g3
S'Riffi'
p2057
sg4
I1
sg5
S'https://open.spotify.com/track/0ZhFoxcT7GMmHzqZr57uiB'
p2058
sg6
S'Opletten 2'
p2059
ssS'4izg6Hydc6XGErWW6nbdsV'
p2060
(dp2061
g3
S'Imagine Dragons'
p2062
sg4
I3
sg5
S'https://open.spotify.com/track/4izg6Hydc6XGErWW6nbdsV'
p2063
sg6
S'Whatever It Takes'
p2064
ssS'0keOu2WiIlxOOQrZgaVkfm'
p2065
(dp2066
g3
S'Kosso'
p2067
sg4
I1
sg5
S'https://open.spotify.com/track/0keOu2WiIlxOOQrZgaVkfm'
p2068
sg6
S'KONTO'
p2069
ssS'1VsClV89BOYGlN7RITBHYc'
p2070
(dp2071
g3
S'Equalz'
p2072
sg4
I39
sg5
S'https://open.spotify.com/track/1VsClV89BOYGlN7RITBHYc'
p2073
sg6
S'Casablanca'
p2074
ssS'3eR23VReFzcdmS7TYCrhCe'
p2075
(dp2076
g3
S'Kygo'
p2077
sg4
I33
sg5
S'https://open.spotify.com/track/3eR23VReFzcdmS7TYCrhCe'
p2078
sg6
S"It Ain't Me (with Selena Gomez)"
p2079
ssS'5Xc74Dn1ZKH6H8XaVGOHXG'
p2080
(dp2081
g3
S'Disciples'
p2082
sg4
I11
sg5
S'https://open.spotify.com/track/5Xc74Dn1ZKH6H8XaVGOHXG'
p2083
sg6
S'On My Mind'
p2084
ssS'2bjwRfXMk4uRgOD9IBYl9h'
p2085
(dp2086
g3
S'Drake'
p2087
sg4
I8
sg5
S'https://open.spotify.com/track/2bjwRfXMk4uRgOD9IBYl9h'
p2088
sg6
S'Portland'
p2089
ssS'0zMzyHAeMvwq5CRstru1Fp'
p2090
(dp2091
g3
S'Ruth B.'
p2092
sg4
I8
sg5
S'https://open.spotify.com/track/0zMzyHAeMvwq5CRstru1Fp'
p2093
sg6
S'Lost Boy'
p2094
ssS'2R7858bg0GHuBBxjTyOL7N'
p2095
(dp2096
g3
S'George Michael'
p2097
sg4
I1
sg5
S'https://open.spotify.com/track/2R7858bg0GHuBBxjTyOL7N'
p2098
sg6
S'Careless Whisper'
p2099
ssS'1dpHpH60fKKrLduB0HVJc4'
p2100
(dp2101
g3
S'Josylvio'
p2102
sg4
I4
sg5
S'https://open.spotify.com/track/1dpHpH60fKKrLduB0HVJc4'
p2103
sg6
S'Steeds Iets Meer'
p2104
ssS'1MUxJxub6ovS0rzTHRgyoF'
p2105
(dp2106
g3
S'MHD'
p2107
sg4
I6
sg5
S'https://open.spotify.com/track/1MUxJxub6ovS0rzTHRgyoF'
p2108
sg6
S'Afro Trap Pt. 8 (Never)'
p2109
ssS'2tPnaDgbCqfTUbeBIi9S70'
p2110
(dp2111
g3
S'Ronnie Flex'
p2112
sg4
I9
sg5
S'https://open.spotify.com/track/2tPnaDgbCqfTUbeBIi9S70'
p2113
sg6
S'Red Me'
p2114
ssS'5bZtRlMBU76vHuDOb1GM5u'
p2115
(dp2116
g3
S'Jonas Blue'
p2117
sg4
I2
sg5
S'https://open.spotify.com/track/5bZtRlMBU76vHuDOb1GM5u'
p2118
sg6
S'Perfect Strangers'
p2119
ssS'0bWzmIbEKh0xFRb1pTSQAw'
p2120
(dp2121
g3
S'Ronnie Flex'
p2122
sg4
I18
sg5
S'https://open.spotify.com/track/0bWzmIbEKh0xFRb1pTSQAw'
p2123
sg6
S'Come Again'
p2124
ssS'5TS2ugx89E0hls8wtrR8vL'
p2125
(dp2126
g3
S"Lil' Kleine"
p2127
sg4
I3
sg5
S'https://open.spotify.com/track/5TS2ugx89E0hls8wtrR8vL'
p2128
sg6
S'Wat Een Tijd Om Te Leven'
p2129
ssS'6TIU9Ehmi6dMzZK73Ym4yj'
p2130
(dp2131
g3
S'Ed Sheeran'
p2132
sg4
I7
sg5
S'https://open.spotify.com/track/6TIU9Ehmi6dMzZK73Ym4yj'
p2133
sg6
S'Save Myself'
p2134
ssS'3B23etXBXxq1aCmFB8dby9'
p2135
(dp2136
g3
S'Kraantje Pappie'
p2137
sg4
I11
sg5
S'https://open.spotify.com/track/3B23etXBXxq1aCmFB8dby9'
p2138
sg6
S'Pompen'
p2139
ssS'0GCk2SskjfkGdpCrnzUeA1'
p2140
(dp2141
g3
S"Lil' Kleine"
p2142
sg4
I1
sg5
S'https://open.spotify.com/track/0GCk2SskjfkGdpCrnzUeA1'
p2143
sg6
S'Opladen / Loslaten'
p2144
ssS'7taXf5odg9xCAZERYfyOkS'
p2145
(dp2146
g3
S'Jos\xc3\xa9 Feliciano'
p2147
sg4
I1
sg5
S'https://open.spotify.com/track/7taXf5odg9xCAZERYfyOkS'
p2148
sg6
S'Feliz Navidad'
p2149
ssS'260azNxQzQIloG7OpjQtTC'
p2150
(dp2151
g3
S"Lil' Kleine"
p2152
sg4
I15
sg5
S'https://open.spotify.com/track/260azNxQzQIloG7OpjQtTC'
p2153
sg6
S'Loterij'
p2154
ssS'1VDFn1PCpp8EOXLMURS8kP'
p2155
(dp2156
g3
S"Lil' Kleine"
p2157
sg4
I22
sg5
S'https://open.spotify.com/track/1VDFn1PCpp8EOXLMURS8kP'
p2158
sg6
S'Alleen'
p2159
ssS'7qRKT9oN0VNyl0JFVW1bwV'
p2160
(dp2161
g3
S'Chivv'
p2162
sg4
I1
sg5
S'https://open.spotify.com/track/7qRKT9oN0VNyl0JFVW1bwV'
p2163
sg6
S'Andere Level'
p2164
ssS'3KSXqVzRcFTciICDWv0sxS'
p2165
(dp2166
g3
S'Josylvio'
p2167
sg4
I12
sg5
S'https://open.spotify.com/track/3KSXqVzRcFTciICDWv0sxS'
p2168
sg6
S'Abu Dhabi'
p2169
ssS'2mfUa8bLs2s5N4VaqJZ4lZ'
p2170
(dp2171
g3
S'Hailee Steinfeld'
p2172
sg4
I17
sg5
S'https://open.spotify.com/track/2mfUa8bLs2s5N4VaqJZ4lZ'
p2173
sg6
S'Most Girls'
p2174
ssS'4aWmUDTfIPGksMNLV2rQP2'
p2175
(dp2176
g3
S'Luis Fonsi'
p2177
sg4
I38
sg5
S'https://open.spotify.com/track/4aWmUDTfIPGksMNLV2rQP2'
p2178
sg6
S'Despacito (Featuring Daddy Yankee)'
p2179
ssS'58zsLZPvfflaiIbNWoA22O'
p2180
(dp2181
g3
S"Rag'n'Bone Man"
p2182
sg4
I25
sg5
S'https://open.spotify.com/track/58zsLZPvfflaiIbNWoA22O'
p2183
sg6
S'Human'
p2184
ssS'69CSidCDozLeVRV2S8lAsX'
p2185
(dp2186
g3
S'Diaz & Bruno'
p2187
sg4
I17
sg5
S'https://open.spotify.com/track/69CSidCDozLeVRV2S8lAsX'
p2188
sg6
S'Love Sensez'
p2189
ssS'35QZaWQRkmnAVqBF1TLCxQ'
p2190
(dp2191
g3
S'Ed Sheeran'
p2192
sg4
I8
sg5
S'https://open.spotify.com/track/35QZaWQRkmnAVqBF1TLCxQ'
p2193
sg6
S'Nancy Mulligan'
p2194
ssS'60APt5N2NRaKWf5xzJdzyC'
p2195
(dp2196
g3
S'Calvin Harris'
p2197
sg4
I7
sg5
S'https://open.spotify.com/track/60APt5N2NRaKWf5xzJdzyC'
p2198
sg6
S'Heatstroke'
p2199
ssS'0txghhNZm5cOzWpMDN6pYc'
p2200
(dp2201
g3
S'LouiVos'
p2202
sg4
I3
sg5
S'https://open.spotify.com/track/0txghhNZm5cOzWpMDN6pYc'
p2203
sg6
S'Belangrijk (feat. Frsh)'
p2204
ssS'25C5CowdsfXld2jJanbiex'
p2205
(dp2206
g3
S'Demi Lovato'
p2207
sg4
I11
sg5
S'https://open.spotify.com/track/25C5CowdsfXld2jJanbiex'
p2208
sg6
S'Sorry Not Sorry'
p2209
ssS'5IfgA1gKbLK1aK0V1AyonR'
p2210
(dp2211
g3
S'Ali B'
p2212
sg4
I18
sg5
S'https://open.spotify.com/track/5IfgA1gKbLK1aK0V1AyonR'
p2213
sg6
S'Glimp Van De Duivel (feat. Nielson)'
p2214
ssS'2Z8WuEywRWYTKe1NybPQEW'
p2215
(dp2216
g3
S'Twenty One Pilots'
p2217
sg4
I1
sg5
S'https://open.spotify.com/track/2Z8WuEywRWYTKe1NybPQEW'
p2218
sg6
S'Ride'
p2219
ssS'7jfy5GJjyoAOvDSCw9cir3'
p2220
(dp2221
g3
S'Andr\xc3\xa9 Hazes Jr.'
p2222
sg4
I41
sg5
S'https://open.spotify.com/track/7jfy5GJjyoAOvDSCw9cir3'
p2223
sg6
S'Leef'
p2224
ssS'3PiDnD8RhPrlmzMpAgF9xK'
p2225
(dp2226
g3
S'Boef'
p2227
sg4
I30
sg5
S'https://open.spotify.com/track/3PiDnD8RhPrlmzMpAgF9xK'
p2228
sg6
S'Slapend Rijk'
p2229
ssS'52okn5MNA47tk87PeZJLEL'
p2230
(dp2231
g3
S'NF'
p2232
sg4
I1
sg5
S'https://open.spotify.com/track/52okn5MNA47tk87PeZJLEL'
p2233
sg6
S'Let You Down'
p2234
ssS'5KfECtKYcTC7WXpu5z6SY8'
p2235
(dp2236
g3
S'Lost Frequencies'
p2237
sg4
I12
sg5
S'https://open.spotify.com/track/5KfECtKYcTC7WXpu5z6SY8'
p2238
sg6
S'Here With You'
p2239
ssS'6JV2JOEocMgcZxYSZelKcc'
p2240
(dp2241
g3
S'Justin Timberlake'
p2242
sg4
I29
sg5
S'https://open.spotify.com/track/6JV2JOEocMgcZxYSZelKcc'
p2243
sg6
S"CAN'T STOP THE FEELING! (Original Song from DreamWorks Animation's TROLLS)"
p2244
ssS'05KOgYg8PGeJyyWBPi5ja8'
p2245
(dp2246
g3
S'Drake'
p2247
sg4
I3
sg5
S'https://open.spotify.com/track/05KOgYg8PGeJyyWBPi5ja8'
p2248
sg6
S'Free Smoke'
p2249
ssS'6De0lHrwBfPfrhorm9q1Xl'
p2250
(dp2251
g3
S'Danny Ocean'
p2252
sg4
I20
sg5
S'https://open.spotify.com/track/6De0lHrwBfPfrhorm9q1Xl'
p2253
sg6
S'Me Reh\xc3\xbaso'
p2254
ssS'1sWhELKCXwYlCGJYeaKXeT'
p2255
(dp2256
g3
S'GLOWINTHEDARK'
p2257
sg4
I1
sg5
S'https://open.spotify.com/track/1sWhELKCXwYlCGJYeaKXeT'
p2258
sg6
S'Pork\xc3\xa9ria'
p2259
ssS'7aV2mflaASUmGhCErm7kBO'
p2260
(dp2261
g3
S'Nevada'
p2262
sg4
I7
sg5
S'https://open.spotify.com/track/7aV2mflaASUmGhCErm7kBO'
p2263
sg6
S'The Mack'
p2264
ssS'0bYg9bo50gSsH3LtXe2SQn'
p2265
(dp2266
g3
S'Mariah Carey'
p2267
sg4
I1
sg5
S'https://open.spotify.com/track/0bYg9bo50gSsH3LtXe2SQn'
p2268
sg6
S'All I Want for Christmas Is You'
p2269
ssS'10bLXNSAizFC9cNAogDXUQ'
p2270
(dp2271
g3
S'Murda'
p2272
sg4
I3
sg5
S'https://open.spotify.com/track/10bLXNSAizFC9cNAogDXUQ'
p2273
sg6
S'Trabajo'
p2274
ssS'2SfwggePc6XkmG5vkRZ325'
p2275
(dp2276
g3
S'SFB'
p2277
sg4
I7
sg5
S'https://open.spotify.com/track/2SfwggePc6XkmG5vkRZ325'
p2278
sg6
S'25 To Life'
p2279
ssS'3rOSwuTsUlJp0Pu0MkN8r8'
p2280
(dp2281
g3
S'Future'
p2282
sg4
I34
sg5
S'https://open.spotify.com/track/3rOSwuTsUlJp0Pu0MkN8r8'
p2283
sg6
S'Mask Off'
p2284
ssS'5wbELbOJDwV9tU1wZYJdkz'
p2285
(dp2286
g3
S'Boef'
p2287
sg4
I7
sg5
S'https://open.spotify.com/track/5wbELbOJDwV9tU1wZYJdkz'
p2288
sg6
S'Slecht Blijft (Bonus)'
p2289
ssS'036NjfC7XOsmhds5tlNWUT'
p2290
(dp2291
g3
S'Mula B'
p2292
sg4
I2
sg5
S'https://open.spotify.com/track/036NjfC7XOsmhds5tlNWUT'
p2293
sg6
S'Ego (feat. Ali B)'
p2294
ssS'1qOLh0tI7trd1zdDKxYZTe'
p2295
(dp2296
g3
S'Hailee Steinfeld'
p2297
sg4
I28
sg5
S'https://open.spotify.com/track/1qOLh0tI7trd1zdDKxYZTe'
p2298
sg6
S'Starving'
p2299
ssS'3uIwXFd6dhzkZJ3k8YhMT1'
p2300
(dp2301
g3
S'Frenna'
p2302
sg4
I24
sg5
S'https://open.spotify.com/track/3uIwXFd6dhzkZJ3k8YhMT1'
p2303
sg6
S'OMW'
p2304
ssS'3HVr6jTVwBHBa2flM0eURR'
p2305
(dp2306
g3
S'Macklemore'
p2307
sg4
I9
sg5
S'https://open.spotify.com/track/3HVr6jTVwBHBa2flM0eURR'
p2308
sg6
S'Glorious (feat. Skylar Grey)'
p2309
ssS'7inXu0Eaeg02VsM8kHNvzM'
p2310
(dp2311
g3
S'Frank Sinatra'
p2312
sg4
I1
sg5
S'https://open.spotify.com/track/7inXu0Eaeg02VsM8kHNvzM'
p2313
sg6
S'Let It Snow! Let It Snow! Let It Snow!'
p2314
ssS'0JiVRyTJcJnmlwCZ854K4p'
p2315
(dp2316
g3
S'Alan Walker'
p2317
sg4
I14
sg5
S'https://open.spotify.com/track/0JiVRyTJcJnmlwCZ854K4p'
p2318
sg6
S'Alone'
p2319
ssS'1cG0umU5TKStygKsPFZ9pY'
p2320
(dp2321
g3
S'Robin Schulz'
p2322
sg4
I35
sg5
S'https://open.spotify.com/track/1cG0umU5TKStygKsPFZ9pY'
p2323
sg6
S'Shed a Light'
p2324
ssS'7xHWNBFm6ObGEQPaUxHuKO'
p2325
(dp2326
g3
S'Sia'
p2327
sg4
I9
sg5
S'https://open.spotify.com/track/7xHWNBFm6ObGEQPaUxHuKO'
p2328
sg6
S'The Greatest'
p2329
ssS'3caMfJGFp53NAH2TuigdNj'
p2330
(dp2331
g3
S'Galantis'
p2332
sg4
I16
sg5
S'https://open.spotify.com/track/3caMfJGFp53NAH2TuigdNj'
p2333
sg6
S'Hunter'
p2334
ssS'1k18FcU8nC4Bs0SSLbeslg'
p2335
(dp2336
g3
S'Bizzey'
p2337
sg4
I1
sg5
S'https://open.spotify.com/track/1k18FcU8nC4Bs0SSLbeslg'
p2338
sg6
S'Blow It All'
p2339
ssS'6EpRaXYhGOB3fj4V2uDkMJ'
p2340
(dp2341
g3
S'Liam Payne'
p2342
sg4
I21
sg5
S'https://open.spotify.com/track/6EpRaXYhGOB3fj4V2uDkMJ'
p2343
sg6
S'Strip That Down'
p2344
ssS'6YJmQiVkxzx94f047wff2U'
p2345
(dp2346
g3
S'Hef'
p2347
sg4
I7
sg5
S'https://open.spotify.com/track/6YJmQiVkxzx94f047wff2U'
p2348
sg6
S'Bijna'
p2349
ssS'1wjzFQodRWrPcQ0AnYnvQ9'
p2350
(dp2351
g3
S'Lauv'
p2352
sg4
I17
sg5
S'https://open.spotify.com/track/1wjzFQodRWrPcQ0AnYnvQ9'
p2353
sg6
S'I Like Me Better'
p2354
ssS'51PIvodunv6NmX5250zxAh'
p2355
(dp2356
g3
S'Lady Gaga'
p2357
sg4
I7
sg5
S'https://open.spotify.com/track/51PIvodunv6NmX5250zxAh'
p2358
sg6
S'The Cure'
p2359
ssS'2C83qwXWYdzT0LrDrOKNH4'
p2360
(dp2361
g3
S'Frenna'
p2362
sg4
I11
sg5
S'https://open.spotify.com/track/2C83qwXWYdzT0LrDrOKNH4'
p2363
sg6
S'Paraplu'
p2364
ssS'7iDa6hUg2VgEL1o1HjmfBn'
p2365
(dp2366
g3
S'Bebe Rexha'
p2367
sg4
I1
sg5
S'https://open.spotify.com/track/7iDa6hUg2VgEL1o1HjmfBn'
p2368
sg6
S'Meant to Be (feat. Florida Georgia Line)'
p2369
ssS'7abpmGpF7PGep2rDU68GBR'
p2370
(dp2371
g3
S'Burak Yeter'
p2372
sg4
I26
sg5
S'https://open.spotify.com/track/7abpmGpF7PGep2rDU68GBR'
p2373
sg6
S'Tuesday'
p2374
ssS'4GUyhTID6mBssYE4nz3DG1'
p2375
(dp2376
g3
S'Boef'
p2377
sg4
I8
sg5
S'https://open.spotify.com/track/4GUyhTID6mBssYE4nz3DG1'
p2378
sg6
S'Speciaal'
p2379
ssS'7dLzlLYDValORYKOWcHZNE'
p2380
(dp2381
g3
S'Slade'
p2382
sg4
I1
sg5
S'https://open.spotify.com/track/7dLzlLYDValORYKOWcHZNE'
p2383
sg6
S'Merry Xmas Everybody'
p2384
ssS'0qYTZCo5Bwh1nsUFGZP3zn'
p2385
(dp2386
g3
S'Maluma'
p2387
sg4
I20
sg5
S'https://open.spotify.com/track/0qYTZCo5Bwh1nsUFGZP3zn'
p2388
sg6
S'Felices los 4'
p2389
ssS'5LSRs3O71obWLQlcdObyuB'
p2390
(dp2391
g3
S'LouiVos'
p2392
sg4
I2
sg5
S'https://open.spotify.com/track/5LSRs3O71obWLQlcdObyuB'
p2393
sg6
S'Klim (feat. 3robi)'
p2394
ssS'1KqvRRQd3lfM0pAlkGPrgD'
p2395
(dp2396
g3
S'Ed Sheeran'
p2397
sg4
I2
sg5
S'https://open.spotify.com/track/1KqvRRQd3lfM0pAlkGPrgD'
p2398
sg6
S'Shape of You (Major Lazer Remix) [feat. Nyla & Kranium]'
p2399
ssS'2XMTqoHHSH0lvuXrvIEdco'
p2400
(dp2401
g3
S'FRENSHIP'
p2402
sg4
I12
sg5
S'https://open.spotify.com/track/2XMTqoHHSH0lvuXrvIEdco'
p2403
sg6
S'Capsize'
p2404
ssS'5MFzQMkrl1FOOng9tq6R9r'
p2405
(dp2406
g3
S'Maroon 5'
p2407
sg4
I15
sg5
S'https://open.spotify.com/track/5MFzQMkrl1FOOng9tq6R9r'
p2408
sg6
S"Don't Wanna Know"
p2409
ssS'5Z3GHaZ6ec9bsiI5BenrbY'
p2410
(dp2411
g3
S'Khalid'
p2412
sg4
I9
sg5
S'https://open.spotify.com/track/5Z3GHaZ6ec9bsiI5BenrbY'
p2413
sg6
S'Young Dumb & Broke'
p2414
ssS'3FDrI0FLKzrYQiWxPhqV2W'
p2415
(dp2416
g3
S'Calvin Harris'
p2417
sg4
I4
sg5
S'https://open.spotify.com/track/3FDrI0FLKzrYQiWxPhqV2W'
p2418
sg6
S'Rollin'
p2419
ssS'2VmBW1QwluqhUKTJdHWM6m'
p2420
(dp2421
g3
S'Boef'
p2422
sg4
I14
sg5
S'https://open.spotify.com/track/2VmBW1QwluqhUKTJdHWM6m'
p2423
sg6
S'Paperchase'
p2424
ssS'5tt7Fl3VS6uMsXzFCGjiC1'
p2425
(dp2426
g3
S'Ismo'
p2427
sg4
I1
sg5
S'https://open.spotify.com/track/5tt7Fl3VS6uMsXzFCGjiC1'
p2428
sg6
S'Rollen Draaien Om'
p2429
ssS'7LQtFOR1rnk9T8cKtByX7k'
p2430
(dp2431
g3
S'Boef'
p2432
sg4
I30
sg5
S'https://open.spotify.com/track/7LQtFOR1rnk9T8cKtByX7k'
p2433
sg6
S'Ik Ga Weg'
p2434
ssS'7887EjnwYduvgqpPysG50Z'
p2435
(dp2436
g3
S'Frenna'
p2437
sg4
I35
sg5
S'https://open.spotify.com/track/7887EjnwYduvgqpPysG50Z'
p2438
sg6
S'My Love'
p2439
ssS'6TqBGgDiXOU6cuu3rGhbkG'
p2440
(dp2441
g3
S'Mula B'
p2442
sg4
I1
sg5
S'https://open.spotify.com/track/6TqBGgDiXOU6cuu3rGhbkG'
p2443
sg6
S'Rennen Voor De Koning'
p2444
ssS'1WP1r7fuvRqZRnUaTi2I1Q'
p2445
(dp2446
g3
S'Shawn Mendes'
p2447
sg4
I1
sg5
S'https://open.spotify.com/track/1WP1r7fuvRqZRnUaTi2I1Q'
p2448
sg6
S'Stitches'
p2449
ssS'7wlOhy1jqGtCinBYOhd7z8'
p2450
(dp2451
g3
S"Lil' Kleine"
p2452
sg4
I3
sg5
S'https://open.spotify.com/track/7wlOhy1jqGtCinBYOhd7z8'
p2453
sg6
S'Laat Me'
p2454
ssS'1almCHdsfikRPfVB9VrEdT'
p2455
(dp2456
g3
S'Alex & Sierra'
p2457
sg4
I5
sg5
S'https://open.spotify.com/track/1almCHdsfikRPfVB9VrEdT'
p2458
sg6
S'Little Do You Know'
p2459
ssS'1elFICUZbLIuwk4plm3wgn'
p2460
(dp2461
g3
S'Lijpe'
p2462
sg4
I2
sg5
S'https://open.spotify.com/track/1elFICUZbLIuwk4plm3wgn'
p2463
sg6
S'Marokko'
p2464
ssS'5UOSxDStT3ZPoWhm4i6DVN'
p2465
(dp2466
g3
S'Jonna Fraser'
p2467
sg4
I12
sg5
S'https://open.spotify.com/track/5UOSxDStT3ZPoWhm4i6DVN'
p2468
sg6
S'Niks Nieuws'
p2469
ssS'05bXOQTUxou0BaZ6XteJo0'
p2470
(dp2471
g3
S"Lil' Kleine"
p2472
sg4
I1
sg5
S'https://open.spotify.com/track/05bXOQTUxou0BaZ6XteJo0'
p2473
sg6
S'Krantenwijk'
p2474
ssS'4OSJUr69yFeEurfzT5iLT5'
p2475
(dp2476
g3
S'Jairzinho'
p2477
sg4
I1
sg5
S'https://open.spotify.com/track/4OSJUr69yFeEurfzT5iLT5'
p2478
sg6
S'Kan Niet Met Je'
p2479
ssS'7b8WFa3x1KumHlueIVHexq'
p2480
(dp2481
g3
S'Marco Borsato'
p2482
sg4
I2
sg5
S'https://open.spotify.com/track/7b8WFa3x1KumHlueIVHexq'
p2483
sg6
S'Thuis'
p2484
ssS'2jTujnt0y344ai1rNOywgr'
p2485
(dp2486
g3
S'Drake'
p2487
sg4
I2
sg5
S'https://open.spotify.com/track/2jTujnt0y344ai1rNOywgr'
p2488
sg6
S'KMT'
p2489
ssS'6pVW5LRWgeLaHudxauOTJU'
p2490
(dp2491
g3
S'Daryl Hall & John Oates'
p2492
sg4
I1
sg5
S'https://open.spotify.com/track/6pVW5LRWgeLaHudxauOTJU'
p2493
sg6
S'Jingle Bell Rock from Daryl'
p2494
ssS'28YBcuYHMAVh81HVGfDzWq'
p2495
(dp2496
g3
S'LouiVos'
p2497
sg4
I2
sg5
S'https://open.spotify.com/track/28YBcuYHMAVh81HVGfDzWq'
p2498
sg6
S'Blender'
p2499
ssS'1xrUhsDkIVULbcnJYy4Eac'
p2500
(dp2501
g3
S'Ronnie Flex'
p2502
sg4
I1
sg5
S'https://open.spotify.com/track/1xrUhsDkIVULbcnJYy4Eac'
p2503
sg6
S'Jouw Seizoen'
p2504
ssS'0h4FK0CnlZ3oJnZ6quEk1P'
p2505
(dp2506
g3
S'Seeb'
p2507
sg4
I2
sg5
S'https://open.spotify.com/track/0h4FK0CnlZ3oJnZ6quEk1P'
p2508
sg6
S'What Do You Love'
p2509
ssS'0C08wbBjY0QNlWeVarxdXv'
p2510
(dp2511
g3
S'armoo'
p2512
sg4
I9
sg5
S'https://open.spotify.com/track/0C08wbBjY0QNlWeVarxdXv'
p2513
sg6
S'Laden (feat. Justice Toch)'
p2514
ssS'6hkeyYG5q0qT7tFrbEdQhj'
p2515
(dp2516
g3
S'Josylvio'
p2517
sg4
I1
sg5
S'https://open.spotify.com/track/6hkeyYG5q0qT7tFrbEdQhj'
p2518
sg6
S'West'
p2519
ssS'2sj449WbJZVN2RXwETgtV4'
p2520
(dp2521
g3
S'Dio'
p2522
sg4
I1
sg5
S'https://open.spotify.com/track/2sj449WbJZVN2RXwETgtV4'
p2523
sg6
S'Los'
p2524
ssS'7zgqtptZvhf8GEmdsM2vp2'
p2525
(dp2526
g3
S'Taylor Swift'
p2527
sg4
I1
sg5
S'https://open.spotify.com/track/7zgqtptZvhf8GEmdsM2vp2'
p2528
sg6
S'...Ready For It?'
p2529
ssS'5oAgI7Pzg6vxuKrfapg3Pi'
p2530
(dp2531
g3
S'Martin Garrix'
p2532
sg4
I1
sg5
S'https://open.spotify.com/track/5oAgI7Pzg6vxuKrfapg3Pi'
p2533
sg6
S'Pizza'
p2534
ssS'7h3vtQdBRFQb5p0qAeJacR'
p2535
(dp2536
g3
S'Ronnie Flex'
p2537
sg4
I2
sg5
S'https://open.spotify.com/track/7h3vtQdBRFQb5p0qAeJacR'
p2538
sg6
S'Jij/Mij'
p2539
ssS'3S0OXQeoh0w6AY8WQVckRW'
p2540
(dp2541
g3
S'Jason Mraz'
p2542
sg4
I2
sg5
S'https://open.spotify.com/track/3S0OXQeoh0w6AY8WQVckRW'
p2543
sg6
S"I'm Yours"
p2544
ssS'7AQim7LbvFVZJE3O8TYgf2'
p2545
(dp2546
g3
S'XXXTENTACION'
p2547
sg4
I3
sg5
S'https://open.spotify.com/track/7AQim7LbvFVZJE3O8TYgf2'
p2548
sg6
S'Fuck Love (feat. Trippie Redd)'
p2549
ssS'7jygHjEkj18EeZGn7CbX30'
p2550
(dp2551
g3
S"Lil' Kleine"
p2552
sg4
I1
sg5
S'https://open.spotify.com/track/7jygHjEkj18EeZGn7CbX30'
p2553
sg6
S'Kleine Jongen'
p2554
ssS'6cPyTS0Kk2sc4xQwC93kOg'
p2555
(dp2556
g3
S'The Chainsmokers'
p2557
sg4
I3
sg5
S'https://open.spotify.com/track/6cPyTS0Kk2sc4xQwC93kOg'
p2558
sg6
S'Break Up Every Night'
p2559
ssS'6eUncuJutsFi9BGO1JaBHh'
p2560
(dp2561
g3
S'Jason Derulo'
p2562
sg4
I6
sg5
S'https://open.spotify.com/track/6eUncuJutsFi9BGO1JaBHh'
p2563
sg6
S"If I'm Lucky"
p2564
ssS'4gDyoe1FImDlXVt58ssnMf'
p2565
(dp2566
g3
S'Coldplay'
p2567
sg4
I1
sg5
S'https://open.spotify.com/track/4gDyoe1FImDlXVt58ssnMf'
p2568
sg6
S'All I Can Think About Is You'
p2569
ssS'31MkGwj0SWgZaTvEt5Hgxv'
p2570
(dp2571
g3
S'P!nk'
p2572
sg4
I9
sg5
S'https://open.spotify.com/track/31MkGwj0SWgZaTvEt5Hgxv'
p2573
sg6
S'What About Us'
p2574
ssS'60a0Rd6pjrkxjPbaKzXjfq'
p2575
(dp2576
g3
S'Linkin Park'
p2577
sg4
I2
sg5
S'https://open.spotify.com/track/60a0Rd6pjrkxjPbaKzXjfq'
p2578
sg6
S'In The End'
p2579
ssS'3pC1ILr9KzmQLMe8Kn5QBG'
p2580
(dp2581
g3
S'DJ Khaled'
p2582
sg4
I1
sg5
S'https://open.spotify.com/track/3pC1ILr9KzmQLMe8Kn5QBG'
p2583
sg6
S'To the Max'
p2584
ssS'6LOCAhFzZiavHcLJucLuDy'
p2585
(dp2586
g3
S'DJ Khaled'
p2587
sg4
I1
sg5
S'https://open.spotify.com/track/6LOCAhFzZiavHcLJucLuDy'
p2588
sg6
S"Don't Quit"
p2589
ssS'4AmTVXeiK2LflmJX7kY6c6'
p2590
(dp2591
g3
S'Mula B'
p2592
sg4
I10
sg5
S'https://open.spotify.com/track/4AmTVXeiK2LflmJX7kY6c6'
p2593
sg6
S'Meester Plusser'
p2594
ssS'2SdXCB4OPo6J6Yc7V249pS'
p2595
(dp2596
g3
S"Lil' Kleine"
p2597
sg4
I15
sg5
S'https://open.spotify.com/track/2SdXCB4OPo6J6Yc7V249pS'
p2598
sg6
S'Net Iets Meer'
p2599
ssS'4seqI89wXyPPQYNe4yNXjQ'
p2600
(dp2601
g3
S'Pyramids'
p2602
sg4
I4
sg5
S'https://open.spotify.com/track/4seqI89wXyPPQYNe4yNXjQ'
p2603
sg6
S'Rwina'
p2604
ssS'69c3ANqlLXcVPt80fQonP6'
p2605
(dp2606
g3
S"Lil' Kleine"
p2607
sg4
I13
sg5
S'https://open.spotify.com/track/69c3ANqlLXcVPt80fQonP6'
p2608
sg6
S'Succesvol'
p2609
ssS'6M49onnPxaLSXtcPx6JdxH'
p2610
(dp2611
g3
S'LouiVos'
p2612
sg4
I4
sg5
S'https://open.spotify.com/track/6M49onnPxaLSXtcPx6JdxH'
p2613
sg6
S'Fransman (feat. Bartofso & Mula B)'
p2614
ssS'21vK2IrCVqdyQXh7ZPITTZ'
p2615
(dp2616
g3
S'ROLL\xc3\x80N'
p2617
sg4
I1
sg5
S'https://open.spotify.com/track/21vK2IrCVqdyQXh7ZPITTZ'
p2618
sg6
S'Young'
p2619
ssS'5Mt7Dzj8Ak3Z3iFN0O8sxm'
p2620
(dp2621
g3
S'Soufiane Eddyani'
p2622
sg4
I10
sg5
S'https://open.spotify.com/track/5Mt7Dzj8Ak3Z3iFN0O8sxm'
p2623
sg6
S'Een Dief Als Broer'
p2624
ssS'3VRk65lHSwqd90TAkQqhvB'
p2625
(dp2626
g3
S'Katy Perry'
p2627
sg4
I2
sg5
S'https://open.spotify.com/track/3VRk65lHSwqd90TAkQqhvB'
p2628
sg6
S'Swish Swish'
p2629
ssS'5eqK0tbzUPo2SoeZsov04s'
p2630
(dp2631
g3
S'21 Savage'
p2632
sg4
I8
sg5
S'https://open.spotify.com/track/5eqK0tbzUPo2SoeZsov04s'
p2633
sg6
S'Bank Account'
p2634
ssS'2MHCiOohBZEQuLgDTPvSzF'
p2635
(dp2636
g3
S'Galantis'
p2637
sg4
I13
sg5
S'https://open.spotify.com/track/2MHCiOohBZEQuLgDTPvSzF'
p2638
sg6
S'Love On Me'
p2639
ssS'66muhFwlmzh73y2YBlTaVi'
p2640
(dp2641
g3
S'Sevn Alias'
p2642
sg4
I1
sg5
S'https://open.spotify.com/track/66muhFwlmzh73y2YBlTaVi'
p2643
sg6
S'Intro'
p2644
ssS'5Z01UMMf7V1o0MzF86s6WJ'
p2645
(dp2646
g3
S'Eminem'
p2647
sg4
I1
sg5
S'https://open.spotify.com/track/5Z01UMMf7V1o0MzF86s6WJ'
p2648
sg6
S'Lose Yourself - Soundtrack Version'
p2649
ssS'5ytBzKR6KpiacBYZVl8WOH'
p2650
(dp2651
g3
S'SFB'
p2652
sg4
I3
sg5
S'https://open.spotify.com/track/5ytBzKR6KpiacBYZVl8WOH'
p2653
sg6
S'Switch Sides'
p2654
ssS'6h8Vwpox9ARTx8DIxn5PD6'
p2655
(dp2656
g3
S'Ali B'
p2657
sg4
I11
sg5
S'https://open.spotify.com/track/6h8Vwpox9ARTx8DIxn5PD6'
p2658
sg6
S'Voy a Bailar (feat. Boef & Rolf Sanchez)'
p2659
ssS'3kxfsdsCpFgN412fpnW85Y'
p2660
(dp2661
g3
S'Childish Gambino'
p2662
sg4
I11
sg5
S'https://open.spotify.com/track/3kxfsdsCpFgN412fpnW85Y'
p2663
sg6
S'Redbone'
p2664
ssS'1OAh8uOEOvTDqkKFsKksCi'
p2665
(dp2666
g3
S'DJ Khaled'
p2667
sg4
I17
sg5
S'https://open.spotify.com/track/1OAh8uOEOvTDqkKFsKksCi'
p2668
sg6
S'Wild Thoughts'
p2669
ssS'2MVYbvZFOEd015bQWRRO0r'
p2670
(dp2671
g3
S'Boef'
p2672
sg4
I1
sg5
S'https://open.spotify.com/track/2MVYbvZFOEd015bQWRRO0r'
p2673
sg6
S'Drugs (feat. Zack Ink)'
p2674
ssS'4sPmO7WMQUAf45kwMOtONw'
p2675
(dp2676
g3
S'Adele'
p2677
sg4
I8
sg5
S'https://open.spotify.com/track/4sPmO7WMQUAf45kwMOtONw'
p2678
sg6
S'Hello'
p2679
ssS'1j4kHkkpqZRBwE0A4CN4Yv'
p2680
(dp2681
g3
S'ZAYN'
p2682
sg4
I5
sg5
S'https://open.spotify.com/track/1j4kHkkpqZRBwE0A4CN4Yv'
p2683
sg6
S'Dusk Till Dawn - Radio Edit'
p2684
ssS'2Za1AlJNvksouPPWbXpR2X'
p2685
(dp2686
g3
S'Macklemore'
p2687
sg4
I3
sg5
S'https://open.spotify.com/track/2Za1AlJNvksouPPWbXpR2X'
p2688
sg6
S'Good Old Days (feat. Kesha)'
p2689
ssS'5p3NP9mQblDsVJLdfNZJ3I'
p2690
(dp2691
g3
S'Kendrick Lamar'
p2692
sg4
I1
sg5
S'https://open.spotify.com/track/5p3NP9mQblDsVJLdfNZJ3I'
p2693
sg6
S'GOD.'
p2694
ssS'6BaCraQ9xeLYg4Sb9TBT2X'
p2695
(dp2696
g3
S'Calvin Harris'
p2697
sg4
I1
sg5
S'https://open.spotify.com/track/6BaCraQ9xeLYg4Sb9TBT2X'
p2698
sg6
S'Feels'
p2699
ssS'0DER0KrYG5lgdQ1S3mP0pY'
p2700
(dp2701
g3
S'Ronnie Flex'
p2702
sg4
I2
sg5
S'https://open.spotify.com/track/0DER0KrYG5lgdQ1S3mP0pY'
p2703
sg6
S'In De Armen Van Een Engel'
p2704
ssS'2ekn2ttSfGqwhhate0LSR0'
p2705
(dp2706
g3
S'Dua Lipa'
p2707
sg4
I14
sg5
S'https://open.spotify.com/track/2ekn2ttSfGqwhhate0LSR0'
p2708
sg6
S'New Rules'
p2709
ssS'1h1v3vwOhFlTPS4UozdJ6I'
p2710
(dp2711
g3
S'BKO'
p2712
sg4
I3
sg5
S'https://open.spotify.com/track/1h1v3vwOhFlTPS4UozdJ6I'
p2713
sg6
S'Roll It'
p2714
ssS'3IV8xIrnjv7TdJY6KUmdrD'
p2715
(dp2716
g3
S'John Denver'
p2717
sg4
I1
sg5
S'https://open.spotify.com/track/3IV8xIrnjv7TdJY6KUmdrD'
p2718
sg6
S'Rudolph the Red Nosed Reindeer'
p2719
ssS'3T7dNA7O8c3Axj5WyDNcH3'
p2720
(dp2721
g3
S'Brenda Lee'
p2722
sg4
I1
sg5
S'https://open.spotify.com/track/3T7dNA7O8c3Axj5WyDNcH3'
p2723
sg6
S"Rockin' Around The Christmas Tree - Single Version"
p2724
ssS'5q5gzmbBS5yQzos2BvVr1t'
p2725
(dp2726
g3
S'M\xc3\x98'
p2727
sg4
I7
sg5
S'https://open.spotify.com/track/5q5gzmbBS5yQzos2BvVr1t'
p2728
sg6
S'Nights With You'
p2729
ssS'3DXncPQOG4VBw3QHh3S817'
p2730
(dp2731
g3
S'DJ Khaled'
p2732
sg4
I20
sg5
S'https://open.spotify.com/track/3DXncPQOG4VBw3QHh3S817'
p2733
sg6
S"I'm the One"
p2734
ssS'6hTI8JuSK1Upk51QoJ484w'
p2735
(dp2736
g3
S'Valsbezig'
p2737
sg4
I1
sg5
S'https://open.spotify.com/track/6hTI8JuSK1Upk51QoJ484w'
p2738
sg6
S'Wine'
p2739
ssS'1riPE3NCV1OBmSXqpYiMJY'
p2740
(dp2741
g3
S'Ronnie Flex'
p2742
sg4
I37
sg5
S'https://open.spotify.com/track/1riPE3NCV1OBmSXqpYiMJY'
p2743
sg6
S'Energie'
p2744
ssS'4pylmGeiMLcRKPHZAuZ7KH'
p2745
(dp2746
g3
S'3robi'
p2747
sg4
I2
sg5
S'https://open.spotify.com/track/4pylmGeiMLcRKPHZAuZ7KH'
p2748
sg6
S'Barz'
p2749
ssS'6MbH1QiphMCPTqVEVC7UYi'
p2750
(dp2751
g3
S'Drake'
p2752
sg4
I2
sg5
S'https://open.spotify.com/track/6MbH1QiphMCPTqVEVC7UYi'
p2753
sg6
S'Nothings Into Somethings'
p2754
ssS'6mORGLOz79w6VsCRLWYYuK'
p2755
(dp2756
g3
S'Lord Huron'
p2757
sg4
I6
sg5
S'https://open.spotify.com/track/6mORGLOz79w6VsCRLWYYuK'
p2758
sg6
S'The Night We Met'
p2759
ssS'4vw3C4Ro3OUD0MNmROKm6e'
p2760
(dp2761
g3
S'D-Double'
p2762
sg4
I6
sg5
S'https://open.spotify.com/track/4vw3C4Ro3OUD0MNmROKm6e'
p2763
sg6
S'Intro'
p2764
ssS'5aAx2yezTd8zXrkmtKl66Z'
p2765
(dp2766
g3
S'The Weeknd'
p2767
sg4
I23
sg5
S'https://open.spotify.com/track/5aAx2yezTd8zXrkmtKl66Z'
p2768
sg6
S'Starboy'
p2769
ssS'2BrzlUj1u1CtvaJDGIKpsP'
p2770
(dp2771
g3
S'Noah Cyrus'
p2772
sg4
I9
sg5
S'https://open.spotify.com/track/2BrzlUj1u1CtvaJDGIKpsP'
p2773
sg6
S'Make Me (Cry)'
p2774
ssS'42RKDunc9fkk6bt6zmKDIB'
p2775
(dp2776
g3
S'Mula B'
p2777
sg4
I1
sg5
S'https://open.spotify.com/track/42RKDunc9fkk6bt6zmKDIB'
p2778
sg6
S'Plus Min'
p2779
ssS'1SJtlNRJDeYHioymcvsqev'
p2780
(dp2781
g3
S'Camila Cabello'
p2782
sg4
I19
sg5
S'https://open.spotify.com/track/1SJtlNRJDeYHioymcvsqev'
p2783
sg6
S'Crying in the Club'
p2784
ssS'1s7y4gVv6dWhu1oSWZsiFf'
p2785
(dp2786
g3
S'Ronnie Flex'
p2787
sg4
I1
sg5
S'https://open.spotify.com/track/1s7y4gVv6dWhu1oSWZsiFf'
p2788
sg6
S'Volg Me'
p2789
ssS'6Arx9MNkbozTj35MCFiyro'
p2790
(dp2791
g3
S"Lil' Kleine"
p2792
sg4
I3
sg5
S'https://open.spotify.com/track/6Arx9MNkbozTj35MCFiyro'
p2793
sg6
S'Kleine Jongen'
p2794
ssS'04DwTuZ2VBdJCCC5TROn7L'
p2795
(dp2796
g3
S'Martin Garrix'
p2797
sg4
I28
sg5
S'https://open.spotify.com/track/04DwTuZ2VBdJCCC5TROn7L'
p2798
sg6
S'In the Name of Love'
p2799
ssS'4fzyvSu73BhGvi96p2zwjL'
p2800
(dp2801
g3
S'Coldplay'
p2802
sg4
I1
sg5
S'https://open.spotify.com/track/4fzyvSu73BhGvi96p2zwjL'
p2803
sg6
S'Christmas Lights'
p2804
ssS'6PqCTTMmluDU0XYBsFmAbF'
p2805
(dp2806
g3
S'Mula B'
p2807
sg4
I7
sg5
S'https://open.spotify.com/track/6PqCTTMmluDU0XYBsFmAbF'
p2808
sg6
S'Hyena (feat. Lijpe)'
p2809
ssS'1iYDdQ1KfnPmt9gQ3gPalm'
p2810
(dp2811
g3
S'Frenna'
p2812
sg4
I26
sg5
S'https://open.spotify.com/track/1iYDdQ1KfnPmt9gQ3gPalm'
p2813
sg6
S'Wasteman'
p2814
ssS'7bJ4mu7MHa3rHiNyKjOoSl'
p2815
(dp2816
g3
S'Drake'
p2817
sg4
I2
sg5
S'https://open.spotify.com/track/7bJ4mu7MHa3rHiNyKjOoSl'
p2818
sg6
S'Ice Melts'
p2819
ssS'1mMAJ1H5qja1dIIh9ZRcDS'
p2820
(dp2821
g3
S'Kosso'
p2822
sg4
I5
sg5
S'https://open.spotify.com/track/1mMAJ1H5qja1dIIh9ZRcDS'
p2823
sg6
S'Money Voor Mij (feat. Ali B & Boef)'
p2824
ssS'0pSBuHjILhNEo55xK1zrRt'
p2825
(dp2826
g3
S'Ayo & Teo'
p2827
sg4
I3
sg5
S'https://open.spotify.com/track/0pSBuHjILhNEo55xK1zrRt'
p2828
sg6
S'Rolex'
p2829
ssS'2RlTTADilbUTs0CShr9X43'
p2830
(dp2831
g3
S'Latifah'
p2832
sg4
I5
sg5
S'https://open.spotify.com/track/2RlTTADilbUTs0CShr9X43'
p2833
sg6
S'Gewaarschuwd'
p2834
ssS'12DzrccrTPdDPHRd3cAFUZ'
p2835
(dp2836
g3
S'Valsbezig'
p2837
sg4
I2
sg5
S'https://open.spotify.com/track/12DzrccrTPdDPHRd3cAFUZ'
p2838
sg6
S'Naar Beneden'
p2839
ssS'2LZwKxTPZLBCYjUhlogMZl'
p2840
(dp2841
g3
S'Matt Simons'
p2842
sg4
I5
sg5
S'https://open.spotify.com/track/2LZwKxTPZLBCYjUhlogMZl'
p2843
sg6
S'Catch & Release - Deepend Remix'
p2844
ssS'6VRghJeP6I0w1KxkdWFfIh'
p2845
(dp2846
g3
S'Imagine Dragons'
p2847
sg4
I3
sg5
S'https://open.spotify.com/track/6VRghJeP6I0w1KxkdWFfIh'
p2848
sg6
S'Believer'
p2849
ssS'7ccCDGX1Vxv1XuHl2VYG2M'
p2850
(dp2851
g3
S"Lil' Kleine"
p2852
sg4
I1
sg5
S'https://open.spotify.com/track/7ccCDGX1Vxv1XuHl2VYG2M'
p2853
sg6
S'Succesvol'
p2854
ssS'6SznMYPQJHzr3IwsAHLId2'
p2855
(dp2856
g3
S'Ed Sheeran'
p2857
sg4
I8
sg5
S'https://open.spotify.com/track/6SznMYPQJHzr3IwsAHLId2'
p2858
sg6
S'Bibia Be Ye Ye'
p2859
ssS'0ZJBlaxxol7oM2MgN2DrGe'
p2860
(dp2861
g3
S'Hef'
p2862
sg4
I4
sg5
S'https://open.spotify.com/track/0ZJBlaxxol7oM2MgN2DrGe'
p2863
sg6
S'Nieuwe Euro'
p2864
ssS'6xImOq7J8ty2xMj3AhPZTq'
p2865
(dp2866
g3
S'Ronnie Flex'
p2867
sg4
I4
sg5
S'https://open.spotify.com/track/6xImOq7J8ty2xMj3AhPZTq'
p2868
sg6
S'Come Again'
p2869
ssS'25K2JFnWhzdb1ZKZq0mrwK'
p2870
(dp2871
g3
S'Architrackz'
p2872
sg4
I8
sg5
S'https://open.spotify.com/track/25K2JFnWhzdb1ZKZq0mrwK'
p2873
sg6
S'Gespend'
p2874
ssS'46NBoIAHrmR7qcUGCIFEjR'
p2875
(dp2876
g3
S'David Guetta'
p2877
sg4
I1
sg5
S'https://open.spotify.com/track/46NBoIAHrmR7qcUGCIFEjR'
p2878
sg6
S"This One's For You (feat. Zara Larsson) - Official Song UEFA EURO 2016"
p2879
ssS'5ge2voTgIwt426diC346t4'
p2880
(dp2881
g3
S'Sevn Alias'
p2882
sg4
I1
sg5
S'https://open.spotify.com/track/5ge2voTgIwt426diC346t4'
p2883
sg6
S'Rain'
p2884
ssS'6zcSWREy1vcJ4aWt7bzBW3'
p2885
(dp2886
g3
S'Dopebwoy'
p2887
sg4
I16
sg5
S'https://open.spotify.com/track/6zcSWREy1vcJ4aWt7bzBW3'
p2888
sg6
S'Cartier'
p2889
ssS'0NiXXAI876aGImAd6rTj8w'
p2890
(dp2891
g3
S'Jonas Blue'
p2892
sg4
I14
sg5
S'https://open.spotify.com/track/0NiXXAI876aGImAd6rTj8w'
p2893
sg6
S'Mama'
p2894
ssS'6jsYYkKafk1FN8UFujUGY6'
p2895
(dp2896
g3
S'ROLL\xc3\x80N'
p2897
sg4
I1
sg5
S'https://open.spotify.com/track/6jsYYkKafk1FN8UFujUGY6'
p2898
sg6
S'Start Up V3'
p2899
ssS'2Inz7gGPGgieN0CTw9TOOs'
p2900
(dp2901
g3
S'JP Cooper'
p2902
sg4
I1
sg5
S'https://open.spotify.com/track/2Inz7gGPGgieN0CTw9TOOs'
p2903
sg6
S'September Song'
p2904
ssS'3DeWY1kmEF6bcz9BhZkgEX'
p2905
(dp2906
g3
S'F1rstman'
p2907
sg4
I1
sg5
S'https://open.spotify.com/track/3DeWY1kmEF6bcz9BhZkgEX'
p2908
sg6
S'Kabhi'
p2909
ssS'6PHw2YOUTaxRyROKv1rypp'
p2910
(dp2911
g3
S"Lil' Kleine"
p2912
sg4
I3
sg5
S'https://open.spotify.com/track/6PHw2YOUTaxRyROKv1rypp'
p2913
sg6
S'Volume'
p2914
ssS'0uGWI6gl1vKgb44oR9PtTM'
p2915
(dp2916
g3
S'Ali B'
p2917
sg4
I11
sg5
S'https://open.spotify.com/track/0uGWI6gl1vKgb44oR9PtTM'
p2918
sg6
S"Let's Go (feat. Kenny B & Brace)"
p2919
ssS'5fX2oPyLCe5mBKqGDbOWqC'
p2920
(dp2921
g3
S'James TW'
p2922
sg4
I30
sg5
S'https://open.spotify.com/track/5fX2oPyLCe5mBKqGDbOWqC'
p2923
sg6
S'When You Love Someone'
p2924
ssS'6mUsP6d0IgbB8MSD9H0JRz'
p2925
(dp2926
g3
S'Josylvio'
p2927
sg4
I1
sg5
S'https://open.spotify.com/track/6mUsP6d0IgbB8MSD9H0JRz'
p2928
sg6
S'F.A.S.T.'
p2929
ssS'48CpiwKUMPqRsftET9R3cL'
p2930
(dp2931
g3
S'Jozo'
p2932
sg4
I13
sg5
S'https://open.spotify.com/track/48CpiwKUMPqRsftET9R3cL'
p2933
sg6
S'Dash'
p2934
ssS'2wQjy7eamu1hIS6kvigogB'
p2935
(dp2936
g3
S'Boef'
p2937
sg4
I6
sg5
S'https://open.spotify.com/track/2wQjy7eamu1hIS6kvigogB'
p2938
sg6
S'Aslan'
p2939
ssS'1n4jwRVXdkK2U34nBDUKKT'
p2940
(dp2941
g3
S'Kendrick Lamar'
p2942
sg4
I1
sg5
S'https://open.spotify.com/track/1n4jwRVXdkK2U34nBDUKKT'
p2943
sg6
S'BLOOD.'
p2944
ssS'4Otdo4cd2JtA2f23VCTbyz'
p2945
(dp2946
g3
S'SFB'
p2947
sg4
I15
sg5
S'https://open.spotify.com/track/4Otdo4cd2JtA2f23VCTbyz'
p2948
sg6
S"Don't You Know"
p2949
ssS'1sYSP7gKa5kdKIfhANfori'
p2950
(dp2951
g3
S'MAX'
p2952
sg4
I7
sg5
S'https://open.spotify.com/track/1sYSP7gKa5kdKIfhANfori'
p2953
sg6
S'Lights Down Low'
p2954
ssS'5Ohxk2dO5COHF1krpoPigN'
p2955
(dp2956
g3
S'Harry Styles'
p2957
sg4
I19
sg5
S'https://open.spotify.com/track/5Ohxk2dO5COHF1krpoPigN'
p2958
sg6
S'Sign of the Times'
p2959
ssS'2Vdub5mY4lad7w64bFPUez'
p2960
(dp2961
g3
S'Pitbull'
p2962
sg4
I11
sg5
S'https://open.spotify.com/track/2Vdub5mY4lad7w64bFPUez'
p2963
sg6
S'Hey Ma (with Pitbull & J Balvin feat. Camila Cabello) - Spanish Version'
p2964
ssS'048uWGSGTnQhaZFjTCVPZX'
p2965
(dp2966
g3
S'Lijpe'
p2967
sg4
I1
sg5
S'https://open.spotify.com/track/048uWGSGTnQhaZFjTCVPZX'
p2968
sg6
S'Heimwee'
p2969
ssS'4m1LUEkx0rKHOOfDoGO3MS'
p2970
(dp2971
g3
S'Two Crooks'
p2972
sg4
I1
sg5
S'https://open.spotify.com/track/4m1LUEkx0rKHOOfDoGO3MS'
p2973
sg6
S'Openen'
p2974
ssS'6O85MfGECKBqAK2MgSbCaj'
p2975
(dp2976
g3
S'Martin Solveig'
p2977
sg4
I1
sg5
S'https://open.spotify.com/track/6O85MfGECKBqAK2MgSbCaj'
p2978
sg6
S'Places'
p2979
ssS'7FCfMXYTIiQ9b4hDYs4Iol'
p2980
(dp2981
g3
S'Dua Lipa'
p2982
sg4
I5
sg5
S'https://open.spotify.com/track/7FCfMXYTIiQ9b4hDYs4Iol'
p2983
sg6
S'Be The One'
p2984
ssS'4mxWSdf71VFO52qFeY0fZt'
p2985
(dp2986
g3
S'Maroon 5'
p2987
sg4
I6
sg5
S'https://open.spotify.com/track/4mxWSdf71VFO52qFeY0fZt'
p2988
sg6
S'What Lovers Do (feat. SZA)'
p2989
ssS'1ADjWm8QNhgNV8yCNNgQ1T'
p2990
(dp2991
g3
S'Ariana Grande'
p2992
sg4
I1
sg5
S'https://open.spotify.com/track/1ADjWm8QNhgNV8yCNNgQ1T'
p2993
sg6
S'Santa Tell Me'
p2994
ssS'5knuzwU65gJK7IF5yJsuaW'
p2995
(dp2996
g3
S'Clean Bandit'
p2997
sg4
I41
sg5
S'https://open.spotify.com/track/5knuzwU65gJK7IF5yJsuaW'
p2998
sg6
S'Rockabye (feat. Sean Paul & Anne-Marie)'
p2999
ssS'4Hf7WnR761jpxPr5D46Bcd'
p3000
(dp3001
g3
S'Shawn Mendes'
p3002
sg4
I24
sg5
S'https://open.spotify.com/track/4Hf7WnR761jpxPr5D46Bcd'
p3003
sg6
S'Treat You Better'
p3004
ssS'0Ogs3vYsKNxb4PmLlWTzz6'
p3005
(dp3006
g3
S'Mula B'
p3007
sg4
I3
sg5
S'https://open.spotify.com/track/0Ogs3vYsKNxb4PmLlWTzz6'
p3008
sg6
S'Gadget'
p3009
ssS'3AEZUABDXNtecAOSC1qTfo'
p3010
(dp3011
g3
S'CNCO'
p3012
sg4
I2
sg5
S'https://open.spotify.com/track/3AEZUABDXNtecAOSC1qTfo'
p3013
sg6
S'Reggaet\xc3\xb3n Lento (Bailemos)'
p3014
ssS'78WVLOP9pN0G3gRLFy1rAa'
p3015
(dp3016
g3
S'Billy Joel'
p3017
sg4
I1
sg5
S'https://open.spotify.com/track/78WVLOP9pN0G3gRLFy1rAa'
p3018
sg6
S'Piano Man'
p3019
ssS'0uYWmEuczRnSShH3Esqg8W'
p3020
(dp3021
g3
S"Lil' Kleine"
p3022
sg4
I1
sg5
S'https://open.spotify.com/track/0uYWmEuczRnSShH3Esqg8W'
p3023
sg6
S'Laat Me'
p3024
ssS'6qPI3aH7jpx8dQ6UwQ2dX4'
p3025
(dp3026
g3
S'Gladys Knight & The Pips'
p3027
sg4
I1
sg5
S'https://open.spotify.com/track/6qPI3aH7jpx8dQ6UwQ2dX4'
p3028
sg6
S'When a Child Is Born (Soleado)'
p3029
ssS'3cr07R8m2voOPbk1yQj1DI'
p3030
(dp3031
g3
S'Boef'
p3032
sg4
I7
sg5
S'https://open.spotify.com/track/3cr07R8m2voOPbk1yQj1DI'
p3033
sg6
S'Zeg Mij'
p3034
ssS'20iVDjR6PTXe8dlWHtMjYU'
p3035
(dp3036
g3
S'ROND\xc3\x89'
p3037
sg4
I3
sg5
S'https://open.spotify.com/track/20iVDjR6PTXe8dlWHtMjYU'
p3038
sg6
S'Naturally'
p3039
ssS'4iln0giJrfqie4FildAxFT'
p3040
(dp3041
g3
S'Sevn Alias'
p3042
sg4
I1
sg5
S'https://open.spotify.com/track/4iln0giJrfqie4FildAxFT'
p3043
sg6
S'Mijn Plan'
p3044
ssS'7FwI4QN5ZDt2Z2XxgIquSN'
p3045
(dp3046
g3
S'Riffi'
p3047
sg4
I1
sg5
S'https://open.spotify.com/track/7FwI4QN5ZDt2Z2XxgIquSN'
p3048
sg6
S'Zonder Flous'
p3049
ssS'1uQD4i1YNJbItnLri5ZVAy'
p3050
(dp3051
g3
S'Lijpe'
p3052
sg4
I6
sg5
S'https://open.spotify.com/track/1uQD4i1YNJbItnLri5ZVAy'
p3053
sg6
S'Geen Tijd'
p3054
ssS'1yKTocZBohX6W39nULxZUW'
p3055
(dp3056
g3
S'Sevn Alias'
p3057
sg4
I1
sg5
S'https://open.spotify.com/track/1yKTocZBohX6W39nULxZUW'
p3058
sg6
S'Put In Work'
p3059
ssS'1MksGqIztTT6M9R1ErKVs8'
p3060
(dp3061
g3
S'Big Sean'
p3062
sg4
I1
sg5
S'https://open.spotify.com/track/1MksGqIztTT6M9R1ErKVs8'
p3063
sg6
S'No Favors'
p3064
ssS'33vRVxooOuQJ1MeKO6ye8r'
p3065
(dp3066
g3
S'LouiVos'
p3067
sg4
I1
sg5
S'https://open.spotify.com/track/33vRVxooOuQJ1MeKO6ye8r'
p3068
sg6
S'Eerlijk'
p3069
ssS'2no9x9FRytP9PnB3CQPYSs'
p3070
(dp3071
g3
S'B-Brave'
p3072
sg4
I7
sg5
S'https://open.spotify.com/track/2no9x9FRytP9PnB3CQPYSs'
p3073
sg6
S'One Night Stand'
p3074
ssS'1LM6t24SjQr2bJHqeGIR4U'
p3075
(dp3076
g3
S'John Mayer'
p3077
sg4
I2
sg5
S'https://open.spotify.com/track/1LM6t24SjQr2bJHqeGIR4U'
p3078
sg6
S'Still Feel Like Your Man'
p3079
ssS'3A7qX2QjDlPnazUsRk5y0M'
p3080
(dp3081
g3
S'David Guetta'
p3082
sg4
I17
sg5
S'https://open.spotify.com/track/3A7qX2QjDlPnazUsRk5y0M'
p3083
sg6
S'2U (feat. Justin Bieber)'
p3084
ssS'2XW87Px99RlAkWSYYa9pPD'
p3085
(dp3086
g3
S'Kevin'
p3087
sg4
I24
sg5
S'https://open.spotify.com/track/2XW87Px99RlAkWSYYa9pPD'
p3088
sg6
S'Waarom'
p3089
ssS'7aF09WaavZAmAWuUeYxlYD'
p3090
(dp3091
g3
S'OneRepublic'
p3092
sg4
I9
sg5
S'https://open.spotify.com/track/7aF09WaavZAmAWuUeYxlYD'
p3093
sg6
S'Rich Love (with Seeb)'
p3094
ssS'3bWAqKDWg6u1davspr5IkS'
p3095
(dp3096
g3
S'Robin Schulz'
p3097
sg4
I21
sg5
S'https://open.spotify.com/track/3bWAqKDWg6u1davspr5IkS'
p3098
sg6
S'OK'
p3099
ssS'7wAjrziwqw4oNO8e7zU7Ux'
p3100
(dp3101
g3
S'LouiVos'
p3102
sg4
I2
sg5
S'https://open.spotify.com/track/7wAjrziwqw4oNO8e7zU7Ux'
p3103
sg6
S'David Beckham'
p3104
ssS'7jLQOdczoxj8EZKFu45tqO'
p3105
(dp3106
g3
S'Sevn Alias'
p3107
sg4
I12
sg5
S'https://open.spotify.com/track/7jLQOdczoxj8EZKFu45tqO'
p3108
sg6
S'Work'
p3109
ssS'4wjRINd7CESe4os3XlDbYN'
p3110
(dp3111
g3
S'LouiVos'
p3112
sg4
I2
sg5
S'https://open.spotify.com/track/4wjRINd7CESe4os3XlDbYN'
p3113
sg6
S'Sinds Een Puber'
p3114
ssS'14WWzenpaEgQZlqPq2nk4v'
p3115
(dp3116
g3
S'Rihanna'
p3117
sg4
I2
sg5
S'https://open.spotify.com/track/14WWzenpaEgQZlqPq2nk4v'
p3118
sg6
S'Work'
p3119
ssS'7HYDLOJ7Qf0C6W8XflrP8g'
p3120
(dp3121
g3
S'Snollebollekes'
p3122
sg4
I1
sg5
S'https://open.spotify.com/track/7HYDLOJ7Qf0C6W8XflrP8g'
p3123
sg6
S'Vrouwkes'
p3124
ssS'6OpKBghxyHSJ9lqqJ4EkJu'
p3125
(dp3126
g3
S'Kempi'
p3127
sg4
I7
sg5
S'https://open.spotify.com/track/6OpKBghxyHSJ9lqqJ4EkJu'
p3128
sg6
S'Cocaina - Remix'
p3129
ssS'6eDJvxlRDYiCYoURDXjtLw'
p3130
(dp3131
g3
S'Jay Sean'
p3132
sg4
I2
sg5
S'https://open.spotify.com/track/6eDJvxlRDYiCYoURDXjtLw'
p3133
sg6
S'Do You Love Me'
p3134
ssS'5PUeNQEe85r7pkJSYG5Go1'
p3135
(dp3136
g3
S'LouiVos'
p3137
sg4
I2
sg5
S'https://open.spotify.com/track/5PUeNQEe85r7pkJSYG5Go1'
p3138
sg6
S'Come See Me'
p3139
ssS'6b8Be6ljOzmkOmFslEb23P'
p3140
(dp3141
g3
S'Bruno Mars'
p3142
sg4
I27
sg5
S'https://open.spotify.com/track/6b8Be6ljOzmkOmFslEb23P'
p3143
sg6
S'24K Magic'
p3144
ssS'6w8TtnuyVPUiEHt3JOcmvN'
p3145
(dp3146
g3
S'Sevn Alias'
p3147
sg4
I1
sg5
S'https://open.spotify.com/track/6w8TtnuyVPUiEHt3JOcmvN'
p3148
sg6
S'Voor Alle Soldiers'
p3149
ssS'7DOvE4KtutmmldDnINH0ds'
p3150
(dp3151
g3
S'Josylvio'
p3152
sg4
I2
sg5
S'https://open.spotify.com/track/7DOvE4KtutmmldDnINH0ds'
p3153
sg6
S'Lil Bish'
p3154
ssS'1v7QSffCrgwDrUcptiyVDE'
p3155
(dp3156
g3
S'Dyna'
p3157
sg4
I4
sg5
S'https://open.spotify.com/track/1v7QSffCrgwDrUcptiyVDE'
p3158
sg6
S'Work Voor Mij'
p3159
ssS'6uJwPeBGb3swi85TSr9iIz'
p3160
(dp3161
g3
S'Coldplay'
p3162
sg4
I6
sg5
S'https://open.spotify.com/track/6uJwPeBGb3swi85TSr9iIz'
p3163
sg6
S'Miracles (Someone Special)'
p3164
ssS'6HZILIRieu8S0iqY8kIKhj'
p3165
(dp3166
g3
S'Kendrick Lamar'
p3167
sg4
I13
sg5
S'https://open.spotify.com/track/6HZILIRieu8S0iqY8kIKhj'
p3168
sg6
S'DNA.'
p3169
ssS'42JPx179wRChFBX9yYmwGu'
p3170
(dp3171
g3
S'Ronnie Flex'
p3172
sg4
I1
sg5
S'https://open.spotify.com/track/42JPx179wRChFBX9yYmwGu'
p3173
sg6
S'BF'
p3174
ssS'4so0Wek9Ig1p6CRCHuINwW'
p3175
(dp3176
g3
S'Bing Crosby'
p3177
sg4
I1
sg5
S'https://open.spotify.com/track/4so0Wek9Ig1p6CRCHuINwW'
p3178
sg6
S'White Christmas'
p3179
ssS'20g0Iatv8qyHzcz5ETphU6'
p3180
(dp3181
g3
S'Freddy Moreira'
p3182
sg4
I11
sg5
S'https://open.spotify.com/track/20g0Iatv8qyHzcz5ETphU6'
p3183
sg6
S"Mood For Lovin'"
p3184
ssS'4FPrAERfkPKOBKrRoyuxLu'
p3185
(dp3186
g3
S'Michael Bubl\xc3\xa9'
p3187
sg4
I1
sg5
S'https://open.spotify.com/track/4FPrAERfkPKOBKrRoyuxLu'
p3188
sg6
S'Cold December Night'
p3189
ssS'23luOrEVHMfoX0AhfbQuS6'
p3190
(dp3191
g3
S'Kendrick Lamar'
p3192
sg4
I1
sg5
S'https://open.spotify.com/track/23luOrEVHMfoX0AhfbQuS6'
p3193
sg6
S'FEAR.'
p3194
ssS'5DA77EqppDmCTWGovd4oTP'
p3195
(dp3196
g3
S'Cheat Codes'
p3197
sg4
I8
sg5
S'https://open.spotify.com/track/5DA77EqppDmCTWGovd4oTP'
p3198
sg6
S'Sex'
p3199
ssS'5RIm8AsdQXL0IEIj1ZjDEi'
p3200
(dp3201
g3
S'Lijpe'
p3202
sg4
I2
sg5
S'https://open.spotify.com/track/5RIm8AsdQXL0IEIj1ZjDEi'
p3203
sg6
S'Andere Tijd'
p3204
ssS'5ta5PNyQ2FquafJ8BxUs3k'
p3205
(dp3206
g3
S"Lil' Kleine"
p3207
sg4
I7
sg5
S'https://open.spotify.com/track/5ta5PNyQ2FquafJ8BxUs3k'
p3208
sg6
S'Jongens Van De Stad'
p3209
ssS'27xglviufmIvIVOR1gk8f0'
p3210
(dp3211
g3
S'Lijpe'
p3212
sg4
I1
sg5
S'https://open.spotify.com/track/27xglviufmIvIVOR1gk8f0'
p3213
sg6
S'Tevreden'
p3214
ssS'7kowtfGYtmt32mHjqcLQQW'
p3215
(dp3216
g3
S"Lil' Kleine"
p3217
sg4
I2
sg5
S'https://open.spotify.com/track/7kowtfGYtmt32mHjqcLQQW'
p3218
sg6
S'Loyaal Voor Het Spelletje 2'
p3219
ssS'0FfkCsrhmP6xIuI1xhGfGL'
p3220
(dp3221
g3
S'LouiVos'
p3222
sg4
I1
sg5
S'https://open.spotify.com/track/0FfkCsrhmP6xIuI1xhGfGL'
p3223
sg6
S'Chossel Gaat Lekker'
p3224
ssS'2fUUTFFSpbscwVkA8rqjn1'
p3225
(dp3226
g3
S'Sevn Alias'
p3227
sg4
I1
sg5
S'https://open.spotify.com/track/2fUUTFFSpbscwVkA8rqjn1'
p3228
sg6
S"Swervin'"
p3229
ssS'6oZuSPBQySlwY33BhdIm11'
p3230
(dp3231
g3
S'Boef'
p3232
sg4
I28
sg5
S'https://open.spotify.com/track/6oZuSPBQySlwY33BhdIm11'
p3233
sg6
S'Wejoow'
p3234
ssS'4gqMQftUs22F8pOGVn5Acr'
p3235
(dp3236
g3
S'Shawn Hook'
p3237
sg4
I2
sg5
S'https://open.spotify.com/track/4gqMQftUs22F8pOGVn5Acr'
p3238
sg6
S'Reminding Me'
p3239
ssS'7F9vK8hNFMml4GtHsaXui6'
p3240
(dp3241
g3
S'Louis Tomlinson'
p3242
sg4
I12
sg5
S'https://open.spotify.com/track/7F9vK8hNFMml4GtHsaXui6'
p3243
sg6
S'Back to You (feat. Bebe Rexha & Digital Farm Animals)'
p3244
ssS'11Fo4dAH31K7UZHGqCkCmE'
p3245
(dp3246
g3
S'Axwell /\\ Ingrosso'
p3247
sg4
I21
sg5
S'https://open.spotify.com/track/11Fo4dAH31K7UZHGqCkCmE'
p3248
sg6
S'I Love You'
p3249
ssS'3V4hLShQXGF38I3FKajRtc'
p3250
(dp3251
g3
S'SBMG'
p3252
sg4
I2
sg5
S'https://open.spotify.com/track/3V4hLShQXGF38I3FKajRtc'
p3253
sg6
S'No Mickey'
p3254
ssS'2f4g0nKaatq80bpL6uOWjX'
p3255
(dp3256
g3
S'GLOWINTHEDARK'
p3257
sg4
I2
sg5
S'https://open.spotify.com/track/2f4g0nKaatq80bpL6uOWjX'
p3258
sg6
S'Champs-\xc3\x89lys\xc3\xa9es'
p3259
ssS'2EEeOnHehOozLq4aS0n6SL'
p3260
(dp3261
g3
S'KYLE'
p3262
sg4
I18
sg5
S'https://open.spotify.com/track/2EEeOnHehOozLq4aS0n6SL'
p3263
sg6
S'iSpy (feat. Lil Yachty)'
p3264
ssS'32LHcw3FjMQKNddzrQNYJ4'
p3265
(dp3266
g3
S'Boef'
p3267
sg4
I14
sg5
S'https://open.spotify.com/track/32LHcw3FjMQKNddzrQNYJ4'
p3268
sg6
S'Range Sessie (album intro)'
p3269
ssS'32DGGj6KlNuBr6WaqRxpxi'
p3270
(dp3271
g3
S'Charlie Puth'
p3272
sg4
I1
sg5
S'https://open.spotify.com/track/32DGGj6KlNuBr6WaqRxpxi'
p3273
sg6
S'How Long'
p3274
ssS'2ApWNNiKs1GnITX7i6bF5e'
p3275
(dp3276
g3
S'Valsbezig'
p3277
sg4
I3
sg5
S'https://open.spotify.com/track/2ApWNNiKs1GnITX7i6bF5e'
p3278
sg6
S'Tranquilo'
p3279
ssS'6gpcs5eMhJwax4mIfKDYQk'
p3280
(dp3281
g3
S'Calvin Harris'
p3282
sg4
I4
sg5
S'https://open.spotify.com/track/6gpcs5eMhJwax4mIfKDYQk'
p3283
sg6
S'Slide'
p3284
ssS'5bcTCxgc7xVfSaMV3RuVke'
p3285
(dp3286
g3
S'Calvin Harris'
p3287
sg4
I16
sg5
S'https://open.spotify.com/track/5bcTCxgc7xVfSaMV3RuVke'
p3288
sg6
S'Feels'
p3289
ssS'0QsvXIfqM0zZoerQfsI9lm'
p3290
(dp3291
g3
S'The Chainsmokers'
p3292
sg4
I16
sg5
S'https://open.spotify.com/track/0QsvXIfqM0zZoerQfsI9lm'
p3293
sg6
S"Don't Let Me Down"
p3294
ssS'4HV8GQOcHAIfWPJWVzgsqo'
p3295
(dp3296
g3
S'ROLL\xc3\x80N'
p3297
sg4
I3
sg5
S'https://open.spotify.com/track/4HV8GQOcHAIfWPJWVzgsqo'
p3298
sg6
S'Danse avec moi'
p3299
ssS'4qqArAiTPueDxIp7cf87h7'
p3300
(dp3301
g3
S'M\xc3\x98'
p3302
sg4
I6
sg5
S'https://open.spotify.com/track/4qqArAiTPueDxIp7cf87h7'
p3303
sg6
S'Final Song'
p3304
ssS'5hslUAKq9I9CG2bAulFkHN'
p3305
(dp3306
g3
S'Andy Williams'
p3307
sg4
I1
sg5
S'https://open.spotify.com/track/5hslUAKq9I9CG2bAulFkHN'
p3308
sg6
S"It's the Most Wonderful Time of the Year"
p3309
ssS'3Dwq1oiOFys6Sxr5SslmXw'
p3310
(dp3311
g3
S'Harry Styles'
p3312
sg4
I1
sg5
S'https://open.spotify.com/track/3Dwq1oiOFys6Sxr5SslmXw'
p3313
sg6
S'Carolina'
p3314
ssS'6EXBuSzvrurcYbizwelIok'
p3315
(dp3316
g3
S'Jebroer'
p3317
sg4
I10
sg5
S'https://open.spotify.com/track/6EXBuSzvrurcYbizwelIok'
p3318
sg6
S'Me Gabber'
p3319
ssS'2uRhrHnC5QpR5Pk9dpiJIB'
p3320
(dp3321
g3
S'Ismo'
p3322
sg4
I2
sg5
S'https://open.spotify.com/track/2uRhrHnC5QpR5Pk9dpiJIB'
p3323
sg6
S'Blijven Geloven'
p3324
ssS'76gUmNLXGQVOsGhfcshkFP'
p3325
(dp3326
g3
S'Drake'
p3327
sg4
I4
sg5
S'https://open.spotify.com/track/76gUmNLXGQVOsGhfcshkFP'
p3328
sg6
S'Madiba Riddim'
p3329
ssS'3a1lNhkSLSkpJE4MSHpDu9'
p3330
(dp3331
g3
S'Post Malone'
p3332
sg4
I34
sg5
S'https://open.spotify.com/track/3a1lNhkSLSkpJE4MSHpDu9'
p3333
sg6
S'Congratulations'
p3334
ssS'7kLzC4eyCotDtx6yahxyYJ'
p3335
(dp3336
g3
S'Valsbezig'
p3337
sg4
I14
sg5
S'https://open.spotify.com/track/7kLzC4eyCotDtx6yahxyYJ'
p3338
sg6
S'Naar Beneden'
p3339
ssS'14nKFJk5ijBxg3mULeEHh1'
p3340
(dp3341
g3
S'ChildsPlay'
p3342
sg4
I13
sg5
S'https://open.spotify.com/track/14nKFJk5ijBxg3mULeEHh1'
p3343
sg6
S'Barman'
p3344
ssS'4x6cgQelUtmXatLNGu3EqY'
p3345
(dp3346
g3
S'Killer Kamal'
p3347
sg4
I6
sg5
S'https://open.spotify.com/track/4x6cgQelUtmXatLNGu3EqY'
p3348
sg6
S'Lekker Dansen'
p3349
ssS'6wV12xIUb8oFY7lBy4KuQe'
p3350
(dp3351
g3
S'Aaron Carter'
p3352
sg4
I1
sg5
S'https://open.spotify.com/track/6wV12xIUb8oFY7lBy4KuQe'
p3353
sg6
S'Sooner Or Later'
p3354
ssS'5ctSjTCsGGtm1BynKW4Cbn'
p3355
(dp3356
g3
S'Hef'
p3357
sg4
I1
sg5
S'https://open.spotify.com/track/5ctSjTCsGGtm1BynKW4Cbn'
p3358
sg6
S'Weet Dat'
p3359
ssS'6sIMe7tGYcgVZwyLFZO5lo'
p3360
(dp3361
g3
S'Zefanio'
p3362
sg4
I1
sg5
S'https://open.spotify.com/track/6sIMe7tGYcgVZwyLFZO5lo'
p3363
sg6
S'Digits'
p3364
ssS'2fkeWbM6iqTw7oGHTYm2lw'
p3365
(dp3366
g3
S'Drake'
p3367
sg4
I3
sg5
S'https://open.spotify.com/track/2fkeWbM6iqTw7oGHTYm2lw'
p3368
sg6
S'4422'
p3369
ssS'3hSfrvHt8oaX2N2MA8hLIu'
p3370
(dp3371
g3
S'3robi'
p3372
sg4
I1
sg5
S'https://open.spotify.com/track/3hSfrvHt8oaX2N2MA8hLIu'
p3373
sg6
S'Tot De Dak'
p3374
ssS'2UuCkZU5VLZX6JihDzeRMl'
p3375
(dp3376
g3
S'Jayh'
p3377
sg4
I10
sg5
S'https://open.spotify.com/track/2UuCkZU5VLZX6JihDzeRMl'
p3378
sg6
S'Ballon'
p3379
ssS'21GtSB7nXJUinRaxOvClgX'
p3380
(dp3381
g3
S'Ronnie Flex'
p3382
sg4
I11
sg5
S'https://open.spotify.com/track/21GtSB7nXJUinRaxOvClgX'
p3383
sg6
S'Volg Me'
p3384
ssS'6QysMrr6baSsfz6ChHB25Y'
p3385
(dp3386
g3
S"Lil' Kleine"
p3387
sg4
I3
sg5
S'https://open.spotify.com/track/6QysMrr6baSsfz6ChHB25Y'
p3388
sg6
S'Nooit Meer / Ooit Weer'
p3389
ssS'3VGRYsJJqFoHYd5WZl22YC'
p3390
(dp3391
g3
S'Mula B'
p3392
sg4
I2
sg5
S'https://open.spotify.com/track/3VGRYsJJqFoHYd5WZl22YC'
p3393
sg6
S'Louboutin'
p3394
ssS'1Q8SXHvQmJp7jGf3DZolDa'
p3395
(dp3396
g3
S'Soufiane Eddyani'
p3397
sg4
I3
sg5
S'https://open.spotify.com/track/1Q8SXHvQmJp7jGf3DZolDa'
p3398
sg6
S'Zina'
p3399
ssS'1dvWU3RCyOWkt88WfKpQiA'
p3400
(dp3401
g3
S'Zack Ink'
p3402
sg4
I5
sg5
S'https://open.spotify.com/track/1dvWU3RCyOWkt88WfKpQiA'
p3403
sg6
S'Where I Come from'
p3404
ssS'6bLopGnirdrilrpdVB6Um1'
p3405
(dp3406
g3
S'Sia'
p3407
sg4
I6
sg5
S'https://open.spotify.com/track/6bLopGnirdrilrpdVB6Um1'
p3408
sg6
S'The Greatest'
p3409
ssS'1vvNmPOiUuyCbgWmtc6yfm'
p3410
(dp3411
g3
S'Calvin Harris'
p3412
sg4
I16
sg5
S'https://open.spotify.com/track/1vvNmPOiUuyCbgWmtc6yfm'
p3413
sg6
S'My Way'
p3414
ssS'0S6hgXHAcjSm8YS4RGLWLq'
p3415
(dp3416
g3
S'Josylvio'
p3417
sg4
I3
sg5
S'https://open.spotify.com/track/0S6hgXHAcjSm8YS4RGLWLq'
p3418
sg6
S'Onderweg'
p3419
ssS'0xPaZrF25ltzvz1a2Pm5DQ'
p3420
(dp3421
g3
S'Michael Bubl\xc3\xa9'
p3422
sg4
I1
sg5
S'https://open.spotify.com/track/0xPaZrF25ltzvz1a2Pm5DQ'
p3423
sg6
S'All I Want For Christmas Is You'
p3424
ssS'7fwXWKdDNI5IutOMc5OKYw'
p3425
(dp3426
g3
S'J Balvin'
p3427
sg4
I2
sg5
S'https://open.spotify.com/track/7fwXWKdDNI5IutOMc5OKYw'
p3428
sg6
S'Mi Gente (feat. Beyonc\xc3\xa9)'
p3429
ssS'1Sl3njkhhz8nrSPZroDQ82'
p3430
(dp3431
g3
S'Dimitri Vegas & Like Mike'
p3432
sg4
I11
sg5
S'https://open.spotify.com/track/1Sl3njkhhz8nrSPZroDQ82'
p3433
sg6
S'Complicated (feat. Kiiara)'
p3434
ssS'3vOmmLuvEUgGaVuRsCs2QF'
p3435
(dp3436
g3
S'Tori Kelly'
p3437
sg4
I3
sg5
S'https://open.spotify.com/track/3vOmmLuvEUgGaVuRsCs2QF'
p3438
sg6
S'I Was Made For Loving You'
p3439
ssS'7v7qxvct8dMrfZ1XI0i4Lx'
p3440
(dp3441
g3
S'Bizzey'
p3442
sg4
I12
sg5
S'https://open.spotify.com/track/7v7qxvct8dMrfZ1XI0i4Lx'
p3443
sg6
S'Challas'
p3444
ssS'5Orlnis8mwywCBgZG7VTjV'
p3445
(dp3446
g3
S'Hardwell'
p3447
sg4
I12
sg5
S'https://open.spotify.com/track/5Orlnis8mwywCBgZG7VTjV'
p3448
sg6
S'Creatures Of The Night'
p3449
ssS'0fH86zQcE2CmATQju6WpXv'
p3450
(dp3451
g3
S'Kris Kross Amsterdam'
p3452
sg4
I24
sg5
S'https://open.spotify.com/track/0fH86zQcE2CmATQju6WpXv'
p3453
sg6
S'Are You Sure? (feat. Ty Dolla $ign)'
p3454
ssS'0afhq8XCExXpqazXczTSve'
p3455
(dp3456
g3
S'Ed Sheeran'
p3457
sg4
I32
sg5
S'https://open.spotify.com/track/0afhq8XCExXpqazXczTSve'
p3458
sg6
S'Galway Girl'
p3459
ssS'7LEydI5NfjY6mZfKwYIptZ'
p3460
(dp3461
g3
S'Fifth Harmony'
p3462
sg4
I12
sg5
S'https://open.spotify.com/track/7LEydI5NfjY6mZfKwYIptZ'
p3463
sg6
S'Down'
p3464
ssS'7oUs0d0G52BlySg6BkmNPa'
p3465
(dp3466
g3
S"Lil' Kleine"
p3467
sg4
I1
sg5
S'https://open.spotify.com/track/7oUs0d0G52BlySg6BkmNPa'
p3468
sg6
S'Batterij'
p3469
ssS'2rb5MvYT7ZIxbKW5hfcHx8'
p3470
(dp3471
g3
S'J Balvin'
p3472
sg4
I15
sg5
S'https://open.spotify.com/track/2rb5MvYT7ZIxbKW5hfcHx8'
p3473
sg6
S'Mi Gente'
p3474
ssS'1NDxZ7cFAo481dtYWdrUnR'
p3475
(dp3476
g3
S'Maggie Lindemann'
p3477
sg4
I27
sg5
S'https://open.spotify.com/track/1NDxZ7cFAo481dtYWdrUnR'
p3478
sg6
S'Pretty Girl - Cheat Codes X CADE Remix'
p3479
ssS'2aFiaMXmWsM3Vj72F9ksBl'
p3480
(dp3481
g3
S'DNCE'
p3482
sg4
I1
sg5
S'https://open.spotify.com/track/2aFiaMXmWsM3Vj72F9ksBl'
p3483
sg6
S'Cake By The Ocean'
p3484
ssS'152lZdxL1OR0ZMW6KquMif'
p3485
(dp3486
g3
S'Khalid'
p3487
sg4
I23
sg5
S'https://open.spotify.com/track/152lZdxL1OR0ZMW6KquMif'
p3488
sg6
S'Location'
p3489
ssS'6eIygPhGcBFKKcxlGTJlY0'
p3490
(dp3491
g3
S'John Mayer'
p3492
sg4
I1
sg5
S'https://open.spotify.com/track/6eIygPhGcBFKKcxlGTJlY0'
p3493
sg6
S'Changing'
p3494
ssS'4TZy1wLyHec06pwgFYDh1a'
p3495
(dp3496
g3
S'Shawn Mendes'
p3497
sg4
I26
sg5
S'https://open.spotify.com/track/4TZy1wLyHec06pwgFYDh1a'
p3498
sg6
S'Mercy'
p3499
ssS'1Vw6ZJSBG4BL0C318rkh3J'
p3500
(dp3501
g3
S"Lil' Kleine"
p3502
sg4
I3
sg5
S'https://open.spotify.com/track/1Vw6ZJSBG4BL0C318rkh3J'
p3503
sg6
S'Wat Een Tijd Om Te Leven'
p3504
ssS'0gBmtwQX3ZaLXJWDhiyhQz'
p3505
(dp3506
g3
S'Lijpe'
p3507
sg4
I1
sg5
S'https://open.spotify.com/track/0gBmtwQX3ZaLXJWDhiyhQz'
p3508
sg6
S'Beseft'
p3509
ssS'0aKgCvKsrq5ELNSG3UiST7'
p3510
(dp3511
g3
S'Latifah'
p3512
sg4
I5
sg5
S'https://open.spotify.com/track/0aKgCvKsrq5ELNSG3UiST7'
p3513
sg6
S'Avec Me'
p3514
ssS'4q8PHoRsPUB52LFylX8Ulz'
p3515
(dp3516
g3
S'Axwell /\\ Ingrosso'
p3517
sg4
I9
sg5
S'https://open.spotify.com/track/4q8PHoRsPUB52LFylX8Ulz'
p3518
sg6
S'More Than You Know'
p3519
ssS'4QdovcM8j50QPlyR7tH4xe'
p3520
(dp3521
g3
S'Marc E. Bassy'
p3522
sg4
I1
sg5
S'https://open.spotify.com/track/4QdovcM8j50QPlyR7tH4xe'
p3523
sg6
S'You & Me'
p3524
ssS'3RXkboS74UYzN14xTqzPyY'
p3525
(dp3526
g3
g1
sg4
I1
sg5
S'https://open.spotify.com/track/3RXkboS74UYzN14xTqzPyY'
p3527
sg6
g1
ssS'4Q3N4Ct4zCuIHuZ65E3BD4'
p3528
(dp3529
g3
S'Kodak Black'
p3530
sg4
I11
sg5
S'https://open.spotify.com/track/4Q3N4Ct4zCuIHuZ65E3BD4'
p3531
sg6
S'Tunnel Vision'
p3532
ssS'20H2Hd5AkUcRjB4yL3UQtJ'
p3533
(dp3534
g3
S'Fifth Harmony'
p3535
sg4
I2
sg5
S'https://open.spotify.com/track/20H2Hd5AkUcRjB4yL3UQtJ'
p3536
sg6
S'Down'
p3537
ssS'1fiew8izFO41mKX5HFjhPY'
p3538
(dp3539
g3
S'Mula B'
p3540
sg4
I2
sg5
S'https://open.spotify.com/track/1fiew8izFO41mKX5HFjhPY'
p3541
sg6
S'Koffiehuis'
p3542
ssS'5r6m8PDcsLnwyVEXCVUSYg'
p3543
(dp3544
g3
S'armoo'
p3545
sg4
I1
sg5
S'https://open.spotify.com/track/5r6m8PDcsLnwyVEXCVUSYg'
p3546
sg6
S'Cash (feat. Lijpe)'
p3547
ssS'0HEmnAUT8PHznIAAmVXqFJ'
p3548
(dp3549
g3
S'George Michael'
p3550
sg4
I1
sg5
S'https://open.spotify.com/track/0HEmnAUT8PHznIAAmVXqFJ'
p3551
sg6
S'Faith - Remastered'
p3552
ssS'1FUViuNSldssMIawrOXF2i'
p3553
(dp3554
g3
S'Bebe Rexha'
p3555
sg4
I14
sg5
S'https://open.spotify.com/track/1FUViuNSldssMIawrOXF2i'
p3556
sg6
S'I Got You'
p3557
ssS'4EyB4KrMH44c9osDQ5362d'
p3558
(dp3559
g3
S'Kosso'
p3560
sg4
I1
sg5
S'https://open.spotify.com/track/4EyB4KrMH44c9osDQ5362d'
p3561
sg6
S'Andere Taal (feat. Kevin)'
p3562
ssS'6Fjit2BTPMFDgM9dREVqBH'
p3563
(dp3564
g3
S'SBMG'
p3565
sg4
I24
sg5
S'https://open.spotify.com/track/6Fjit2BTPMFDgM9dREVqBH'
p3566
sg6
S'Concreet'
p3567
ssS'0CokSRCu5hZgPxcZBaEzVE'
p3568
(dp3569
g3
S'Macklemore'
p3570
sg4
I3
sg5
S'https://open.spotify.com/track/0CokSRCu5hZgPxcZBaEzVE'
p3571
sg6
S'Glorious (feat. Skylar Grey)'
p3572
ssS'2Y7vHNr6cQhfmqplHqSHJJ'
p3573
(dp3574
g3
S'SFB'
p3575
sg4
I10
sg5
S'https://open.spotify.com/track/2Y7vHNr6cQhfmqplHqSHJJ'
p3576
sg6
S'Hope & Pray'
p3577
ssS'3cNjgVBKTJ1SvKhunrCdVy'
p3578
(dp3579
g3
S'Joel Adams'
p3580
sg4
I2
sg5
S'https://open.spotify.com/track/3cNjgVBKTJ1SvKhunrCdVy'
p3581
sg6
S"Please Don't Go"
p3582
ssS'6OuV4vfyb8v3vGGGksqyKf'
p3583
(dp3584
g3
S'AJR'
p3585
sg4
I2
sg5
S'https://open.spotify.com/track/6OuV4vfyb8v3vGGGksqyKf'
p3586
sg6
S'Weak'
p3587
ssS'1UDv8w1XXPnzXZiV7ooa2h'
p3588
(dp3589
g3
S'Louis'
p3590
sg4
I1
sg5
S'https://open.spotify.com/track/1UDv8w1XXPnzXZiV7ooa2h'
p3591
sg6
S"Mama's Huur (feat. Milo)"
p3592
ssS'3okrF6m8EyD9UPputkTksy'
p3593
(dp3594
g3
S'Lijpe'
p3595
sg4
I3
sg5
S'https://open.spotify.com/track/3okrF6m8EyD9UPputkTksy'
p3596
sg6
S'Het Komt Allemaal Goed'
p3597
ssS'4Q4jmPHwu0wrJvqrld0FQ6'
p3598
(dp3599
g3
S'Zara Larsson'
p3600
sg4
I18
sg5
S'https://open.spotify.com/track/4Q4jmPHwu0wrJvqrld0FQ6'
p3601
sg6
S'I Would Like'
p3602
ssS'7yM1SgjMVurpxrUsaKkeOb'
p3603
(dp3604
g3
S"Lil' Kleine"
p3605
sg4
I3
sg5
S'https://open.spotify.com/track/7yM1SgjMVurpxrUsaKkeOb'
p3606
sg6
S'Halen & Trekken'
p3607
ssS'7yyRTcZmCiyzzJlNzGC9Ol'
p3608
(dp3609
g3
S'DRAM'
p3610
sg4
I3
sg5
S'https://open.spotify.com/track/7yyRTcZmCiyzzJlNzGC9Ol'
p3611
sg6
S'Broccoli (feat. Lil Yachty)'
p3612
ssS'0QpXhQG46BI38ByD7zVQtc'
p3613
(dp3614
g3
S'De Fellas'
p3615
sg4
I1
sg5
S'https://open.spotify.com/track/0QpXhQG46BI38ByD7zVQtc'
p3616
sg6
S'Splash (feat. Bko)'
p3617
ssS'3yh4nuVGm8r9aYyuvbUZSn'
p3618
(dp3619
g3
S'Lijpe'
p3620
sg4
I2
sg5
S'https://open.spotify.com/track/3yh4nuVGm8r9aYyuvbUZSn'
p3621
sg6
S'Beseft'
p3622
ssS'3vcHPShfJAFP3TtAAsTHsV'
p3623
(dp3624
g3
S'Sunstroke Project'
p3625
sg4
I3
sg5
S'https://open.spotify.com/track/3vcHPShfJAFP3TtAAsTHsV'
p3626
sg6
S'Hey Mamma - Radio Edit'
p3627
ssS'1pJQAHpD51J7GYaFrrFO9S'
p3628
(dp3629
g3
S'The Chainsmokers'
p3630
sg4
I1
sg5
S'https://open.spotify.com/track/1pJQAHpD51J7GYaFrrFO9S'
p3631
sg6
S"Don't Say"
p3632
ssS'05X6aMCQR09E6smUmw9qms'
p3633
(dp3634
g3
S'Queen'
p3635
sg4
I1
sg5
S'https://open.spotify.com/track/05X6aMCQR09E6smUmw9qms'
p3636
sg6
S"Thank God It's Christmas - Non-Album Single"
p3637
ssS'7gHdYErOaRXIBb8U8SgTAD'
p3638
(dp3639
g3
S'LouiVos'
p3640
sg4
I9
sg5
S'https://open.spotify.com/track/7gHdYErOaRXIBb8U8SgTAD'
p3641
sg6
S'Meijers'
p3642
ssS'2CvOqDpQIMw69cCzWqr5yr'
p3643
(dp3644
g3
S'Beyonc\xc3\xa9'
p3645
sg4
I1
sg5
S'https://open.spotify.com/track/2CvOqDpQIMw69cCzWqr5yr'
p3646
sg6
S'Halo'
p3647
ssS'278DmJYdPjUXtxUCYJSD6k'
p3648
(dp3649
g3
S'Jonna Fraser'
p3650
sg4
I14
sg5
S'https://open.spotify.com/track/278DmJYdPjUXtxUCYJSD6k'
p3651
sg6
S'Verwijderd'
p3652
ssS'5tz69p7tJuGPeMGwNTxYuV'
p3653
(dp3654
g3
S'Logic'
p3655
sg4
I16
sg5
S'https://open.spotify.com/track/5tz69p7tJuGPeMGwNTxYuV'
p3656
sg6
S'1-800-273-8255'
p3657
ssS'4ricyQVd20UQde1jpXCSuJ'
p3658
(dp3659
g3
S'Tony Bennett'
p3660
sg4
I1
sg5
S'https://open.spotify.com/track/4ricyQVd20UQde1jpXCSuJ'
p3661
sg6
S'Winter Wonderland'
p3662
ssS'2771LMNxwf62FTAdpJMQfM'
p3663
(dp3664
g3
S'Cardi B'
p3665
sg4
I8
sg5
S'https://open.spotify.com/track/2771LMNxwf62FTAdpJMQfM'
p3666
sg6
S'Bodak Yellow'
p3667
ssS'6PCUP3dWmTjcTtXY02oFdT'
p3668
(dp3669
g3
S'Ed Sheeran'
p3670
sg4
I40
sg5
S'https://open.spotify.com/track/6PCUP3dWmTjcTtXY02oFdT'
p3671
sg6
S'Castle on the Hill'
p3672
ssS'5EUkhFOOwnJ0F4JPIor5m8'
p3673
(dp3674
g3
S'Ronnie Flex'
p3675
sg4
I1
sg5
S'https://open.spotify.com/track/5EUkhFOOwnJ0F4JPIor5m8'
p3676
sg6
S'Come Again'
p3677
ssS'7neaIqiu6nkiW549gdxbIt'
p3678
(dp3679
g3
S'Lucas & Steve'
p3680
sg4
I4
sg5
S'https://open.spotify.com/track/7neaIqiu6nkiW549gdxbIt'
p3681
sg6
S'Up Till Dawn (On The Move)'
p3682
ssS'2QWP8NYYplOqEFBYGCcq0S'
p3683
(dp3684
g3
S'The Script'
p3685
sg4
I6
sg5
S'https://open.spotify.com/track/2QWP8NYYplOqEFBYGCcq0S'
p3686
sg6
S'Rain'
p3687
ssS'104buTcnP2AsxqB7U1FIZ4'
p3688
(dp3689
g3
S'Linkin Park'
p3690
sg4
I1
sg5
S'https://open.spotify.com/track/104buTcnP2AsxqB7U1FIZ4'
p3691
sg6
S'Heavy (feat. Kiiara)'
p3692
ssS'3vqjXbhl94arOKzVZSBMsL'
p3693
(dp3694
g3
S"Lil' Kleine"
p3695
sg4
I17
sg5
S'https://open.spotify.com/track/3vqjXbhl94arOKzVZSBMsL'
p3696
sg6
S'Halen & Trekken'
p3697
ssS'6IziItlMuSIuVEeKIWDbSK'
p3698
(dp3699
g3
S'Ali B'
p3700
sg4
I15
sg5
S'https://open.spotify.com/track/6IziItlMuSIuVEeKIWDbSK'
p3701
sg6
S'Dat Is Money (feat. Ronnie Flex)'
p3702
ssS'3GaIRIw3eBvT1gUBgFjblH'
p3703
(dp3704
g3
S'Glades'
p3705
sg4
I7
sg5
S'https://open.spotify.com/track/3GaIRIw3eBvT1gUBgFjblH'
p3706
sg6
S'Een Beetje'
p3707
ssS'43jBqV3j3Xi1g6wO0bhIMd'
p3708
(dp3709
g3
S'Sage The Gemini'
p3710
sg4
I13
sg5
S'https://open.spotify.com/track/43jBqV3j3Xi1g6wO0bhIMd'
p3711
sg6
S'Now and Later'
p3712
ssS'5NWD3lmFIcSkUhYI260HWL'
p3713
(dp3714
g3
S'Soufiane Eddyani'
p3715
sg4
I2
sg5
S'https://open.spotify.com/track/5NWD3lmFIcSkUhYI260HWL'
p3716
sg6
S'God Vergeef Me'
p3717
ssS'2VgAFgQobMekLk4QJk93og'
p3718
(dp3719
g3
S'OG3NE'
p3720
sg4
I7
sg5
S'https://open.spotify.com/track/2VgAFgQobMekLk4QJk93og'
p3721
sg6
S'Lights and Shadows'
p3722
ssS'1mlQRMX4KwJFvtn7OAxDob'
p3723
(dp3724
g3
S'Valsbezig'
p3725
sg4
I1
sg5
S'https://open.spotify.com/track/1mlQRMX4KwJFvtn7OAxDob'
p3726
sg6
S'Verbazen'
p3727
ssS'1PSBzsahR2AKwLJgx8ehBj'
p3728
(dp3729
g3
S'Machine Gun Kelly'
p3730
sg4
I16
sg5
S'https://open.spotify.com/track/1PSBzsahR2AKwLJgx8ehBj'
p3731
sg6
S'Bad Things (with Camila Cabello)'
p3732
ssS'7oolFzHipTMg2nL7shhdz2'
p3733
(dp3734
g3
S'Ed Sheeran'
p3735
sg4
I7
sg5
S'https://open.spotify.com/track/7oolFzHipTMg2nL7shhdz2'
p3736
sg6
S'Eraser'
p3737
ssS'2cghB5wCM1UROrkJYtAY21'
p3738
(dp3739
g3
S'Ismo'
p3740
sg4
I7
sg5
S'https://open.spotify.com/track/2cghB5wCM1UROrkJYtAY21'
p3741
sg6
S'Media'
p3742
ssS'7KOlJ92bu51cltsD9KU5I7'
p3743
(dp3744
g3
S'Migos'
p3745
sg4
I5
sg5
S'https://open.spotify.com/track/7KOlJ92bu51cltsD9KU5I7'
p3746
sg6
S'T-Shirt'
p3747
ssS'0D8ZpOXVjapLXrjz5VfZSD'
p3748
(dp3749
g3
S'Sam Smith'
p3750
sg4
I1
sg5
S'https://open.spotify.com/track/0D8ZpOXVjapLXrjz5VfZSD'
p3751
sg6
S'Pray'
p3752
ssS'3dyvvwo21ubZjXD9RM3JwC'
p3753
(dp3754
g3
S'Ismo'
p3755
sg4
I8
sg5
S'https://open.spotify.com/track/3dyvvwo21ubZjXD9RM3JwC'
p3756
sg6
S'Comes And Goes'
p3757
ssS'0Wv5wuenRLI3BcwgT3HPIP'
p3758
(dp3759
g3
S'DJ Snake'
p3760
sg4
I3
sg5
S'https://open.spotify.com/track/0Wv5wuenRLI3BcwgT3HPIP'
p3761
sg6
S'A Different Way (with Lauv)'
p3762
ssS'3m660poUr1chesgkkjQM7P'
p3763
(dp3764
g3
S'Demi Lovato'
p3765
sg4
I2
sg5
S'https://open.spotify.com/track/3m660poUr1chesgkkjQM7P'
p3766
sg6
S'Sorry Not Sorry'
p3767
ssS'3SGWp9fJCzgK0WcpcKSQdy'
p3768
(dp3769
g3
S'Stanaj'
p3770
sg4
I9
sg5
S'https://open.spotify.com/track/3SGWp9fJCzgK0WcpcKSQdy'
p3771
sg6
S'Romantic - NOTD Remix'
p3772
ssS'7GnodpaLe9JRbhqNnlt2bO'
p3773
(dp3774
g3
S'Kevin'
p3775
sg4
I9
sg5
S'https://open.spotify.com/track/7GnodpaLe9JRbhqNnlt2bO'
p3776
sg6
S'Allemaal Voor Niks'
p3777
ssS'45R7kJjptcIkgSmDLAzcK7'
p3778
(dp3779
g3
S'3robi'
p3780
sg4
I1
sg5
S'https://open.spotify.com/track/45R7kJjptcIkgSmDLAzcK7'
p3781
sg6
S'Wled Khab'
p3782
ssS'6R3NUiK4loNt5HvIG9BcIp'
p3783
(dp3784
g3
S'Broederliefde'
p3785
sg4
I8
sg5
S'https://open.spotify.com/track/6R3NUiK4loNt5HvIG9BcIp'
p3786
sg6
S"Qu'est Qu'il Ya"
p3787
ssS'2lr2qiZf7jkNUKxFiWVIoZ'
p3788
(dp3789
g3
S'Jozo'
p3790
sg4
I1
sg5
S'https://open.spotify.com/track/2lr2qiZf7jkNUKxFiWVIoZ'
p3791
sg6
S'Fifa'
p3792
ssS'3ebXMykcMXOcLeJ9xZ17XH'
p3793
(dp3794
g3
S'Martin Garrix'
p3795
sg4
I37
sg5
S'https://open.spotify.com/track/3ebXMykcMXOcLeJ9xZ17XH'
p3796
sg6
S'Scared to Be Lonely'
p3797
ssS'6fujklziTHa8uoM5OQSfIo'
p3798
(dp3799
g3
S'Rae Sremmurd'
p3800
sg4
I11
sg5
S'https://open.spotify.com/track/6fujklziTHa8uoM5OQSfIo'
p3801
sg6
S'Black Beatles'
p3802
ssS'19WjVVgXjdKXfLXoaDPwTM'
p3803
(dp3804
g3
S'Taylor Swift'
p3805
sg4
I3
sg5
S'https://open.spotify.com/track/19WjVVgXjdKXfLXoaDPwTM'
p3806
sg6
S'...Ready For It?'
p3807
ssS'6UjfByV1lDLW0SOVQA4NAi'
p3808
(dp3809
g3
S'Drake'
p3810
sg4
I4
sg5
S'https://open.spotify.com/track/6UjfByV1lDLW0SOVQA4NAi'
p3811
sg6
S'Gyalchester'
p3812
ssS'4tNpAeDH7S7cJGEo28Ogi4'
p3813
(dp3814
g3
S'Sevn Alias'
p3815
sg4
I1
sg5
S'https://open.spotify.com/track/4tNpAeDH7S7cJGEo28Ogi4'
p3816
sg6
S'Patsergedrag'
p3817
ssS'3PEgB3fkiojxms35ntsTgs'
p3818
(dp3819
g3
S'Axwell /\\ Ingrosso'
p3820
sg4
I11
sg5
S'https://open.spotify.com/track/3PEgB3fkiojxms35ntsTgs'
p3821
sg6
S'More Than You Know'
p3822
ssS'4Ss4iM3ST9QuJRic27sxBG'
p3823
(dp3824
g3
S'Supergaande'
p3825
sg4
I12
sg5
S'https://open.spotify.com/track/4Ss4iM3ST9QuJRic27sxBG'
p3826
sg6
S'Pardon Doe Normaal'
p3827
ssS'7DkNiEBS5On62BOWQQntdz'
p3828
(dp3829
g3
S'ROLL\xc3\x80N'
p3830
sg4
I1
sg5
S'https://open.spotify.com/track/7DkNiEBS5On62BOWQQntdz'
p3831
sg6
S'Sowieso'
p3832
ssS'4mBNcduSWagbQJk8I14pGW'
p3833
(dp3834
g3
S'Sevn Alias'
p3835
sg4
I36
sg5
S'https://open.spotify.com/track/4mBNcduSWagbQJk8I14pGW'
p3836
sg6
S'Gass'
p3837
ssS'6CfrYuD3YRDYdYvH9jNtXY'
p3838
(dp3839
g3
S'Drake'
p3840
sg4
I2
sg5
S'https://open.spotify.com/track/6CfrYuD3YRDYdYvH9jNtXY'
p3841
sg6
S'No Long Talk'
p3842
ssS'3nAp4IvdMPPWEH9uuXFFV5'
p3843
(dp3844
g3
S'Kelly Clarkson'
p3845
sg4
I1
sg5
S'https://open.spotify.com/track/3nAp4IvdMPPWEH9uuXFFV5'
p3846
sg6
S'Underneath the Tree'
p3847
ssS'7i0f8iE9Qujn2zPHHVWiXY'
p3848
(dp3849
g3
S'Ali B'
p3850
sg4
I3
sg5
S'https://open.spotify.com/track/7i0f8iE9Qujn2zPHHVWiXY'
p3851
sg6
S'Waarheid Op Straat (feat. Glen Faria)'
p3852
ssS'2r9hAxxUpOT1xZe9Cqla5h'
p3853
(dp3854
g3
S'Kevin'
p3855
sg4
I1
sg5
S'https://open.spotify.com/track/2r9hAxxUpOT1xZe9Cqla5h'
p3856
sg6
S'Kleine Jongens'
p3857
ssS'3N2gtTnFx2zH9E9EtZu2Vt'
p3858
(dp3859
g3
S'Sevn Alias'
p3860
sg4
I1
sg5
S'https://open.spotify.com/track/3N2gtTnFx2zH9E9EtZu2Vt'
p3861
sg6
S'Ends'
p3862
ssS'6w96vGUoBsqHYxUGQrBe0f'
p3863
(dp3864
g3
S'F1rstman'
p3865
sg4
I1
sg5
S'https://open.spotify.com/track/6w96vGUoBsqHYxUGQrBe0f'
p3866
sg6
S'Money Money'
p3867
ssS'4aiLpwwZw5Ek9KkBMnt6Zu'
p3868
(dp3869
g3
S'Naughty Boy'
p3870
sg4
I1
sg5
S'https://open.spotify.com/track/4aiLpwwZw5Ek9KkBMnt6Zu'
p3871
sg6
S"Should've Been Me"
p3872
ssS'7aiVBCp1ibIWE5GeHkbtxr'
p3873
(dp3874
g3
S'Britney Spears'
p3875
sg4
I1
sg5
S'https://open.spotify.com/track/7aiVBCp1ibIWE5GeHkbtxr'
p3876
sg6
S'My Only Wish (This Year)'
p3877
ssS'0362SHfDTYXjWFVa8PPY7I'
p3878
(dp3879
g3
S'Sevn Alias'
p3880
sg4
I16
sg5
S'https://open.spotify.com/track/0362SHfDTYXjWFVa8PPY7I'
p3881
sg6
S'Turnen - FISSA anthem'
p3882
ssS'3SqvR3HYLlCTYzbDXJ52OC'
p3883
(dp3884
g3
S'LP'
p3885
sg4
I2
sg5
S'https://open.spotify.com/track/3SqvR3HYLlCTYzbDXJ52OC'
p3886
sg6
S'Lost on You'
p3887
ssS'0UeYCHOETPfai02uskjJ3x'
p3888
(dp3889
g3
S'Bag Raiders'
p3890
sg4
I1
sg5
S'https://open.spotify.com/track/0UeYCHOETPfai02uskjJ3x'
p3891
sg6
S'Shooting Stars'
p3892
ssS'0B8B8cVRFIG1yznoQe7c9s'
p3893
(dp3894
g3
S'The Chainsmokers'
p3895
sg4
I6
sg5
S'https://open.spotify.com/track/0B8B8cVRFIG1yznoQe7c9s'
p3896
sg6
S'Setting Fires'
p3897
ssS'3UjSOJ00E1eLMcayBm827Q'
p3898
(dp3899
g3
S'Salvador Sobral'
p3900
sg4
I1
sg5
S'https://open.spotify.com/track/3UjSOJ00E1eLMcayBm827Q'
p3901
sg6
S'Amar pelos Dois'
p3902
ssS'02WacdrRpm4zlP8H7X6bnQ'
p3903
(dp3904
g3
S'Calum Scott'
p3905
sg4
I28
sg5
S'https://open.spotify.com/track/02WacdrRpm4zlP8H7X6bnQ'
p3906
sg6
S'Dancing On My Own'
p3907
ssS'1mDGDb2fUmUMdqV3tb8VKQ'
p3908
(dp3909
g3
S'Halsey'
p3910
sg4
I1
sg5
S'https://open.spotify.com/track/1mDGDb2fUmUMdqV3tb8VKQ'
p3911
sg6
S'Now Or Never'
p3912
ssS'7tJGqPSzSvJboMS3R9FbOo'
p3913
(dp3914
g3
S'Rotjoch United'
p3915
sg4
I4
sg5
S'https://open.spotify.com/track/7tJGqPSzSvJboMS3R9FbOo'
p3916
sg6
S'Appelsap 2017'
p3917
ssS'2gDV65ofr1HA7iJPWnsXxs'
p3918
(dp3919
g3
S"Lil' Kleine"
p3920
sg4
I1
sg5
S'https://open.spotify.com/track/2gDV65ofr1HA7iJPWnsXxs'
p3921
sg6
S'Vliegtuig'
p3922
ssS'59qgWy8mdoPgDLuFMFxW4u'
p3923
(dp3924
g3
S'Ronnie Flex'
p3925
sg4
I1
sg5
S'https://open.spotify.com/track/59qgWy8mdoPgDLuFMFxW4u'
p3926
sg6
S'In Mijn Bed'
p3927
ssS'3Dd3nUP5XixxZdQE19txDm'
p3928
(dp3929
g3
S'Valsbezig'
p3930
sg4
I2
sg5
S'https://open.spotify.com/track/3Dd3nUP5XixxZdQE19txDm'
p3931
sg6
S'Zitten Op Me'
p3932
ssS'047xSG6BBbo0TYFiQ7Ps6i'
p3933
(dp3934
g3
S'SFB'
p3935
sg4
I10
sg5
S'https://open.spotify.com/track/047xSG6BBbo0TYFiQ7Ps6i'
p3936
sg6
S'On Lock'
p3937
ssS'6OZh916QF8XNunWaP97WEZ'
p3938
(dp3939
g3
S'Jonas Blue'
p3940
sg4
I14
sg5
S'https://open.spotify.com/track/6OZh916QF8XNunWaP97WEZ'
p3941
sg6
S'Fast Car'
p3942
ssS'2rizacJSyD9S1IQUxUxnsK'
p3943
(dp3944
g3
S'The Chainsmokers'
p3945
sg4
I12
sg5
S'https://open.spotify.com/track/2rizacJSyD9S1IQUxUxnsK'
p3946
sg6
S'All We Know'
p3947
ssS'2mcVTyKXJCVJg2fMqGJFcg'
p3948
(dp3949
g3
S'Lijpe'
p3950
sg4
I2
sg5
S'https://open.spotify.com/track/2mcVTyKXJCVJg2fMqGJFcg'
p3951
sg6
S'Luister Goed'
p3952
ssS'79NlESqzFSW0hdBWgls4FX'
p3953
(dp3954
g3
S'Kesha'
p3955
sg4
I5
sg5
S'https://open.spotify.com/track/79NlESqzFSW0hdBWgls4FX'
p3956
sg6
S'Praying'
p3957
ssS'0tgVpDi06FyKpA1z0VMD4v'
p3958
(dp3959
g3
S'Ed Sheeran'
p3960
sg4
I28
sg5
S'https://open.spotify.com/track/0tgVpDi06FyKpA1z0VMD4v'
p3961
sg6
S'Perfect'
p3962
ssS'46pF1zFimM582ss1PrMy68'
p3963
(dp3964
g3
S'Darlene Love'
p3965
sg4
I1
sg5
S'https://open.spotify.com/track/46pF1zFimM582ss1PrMy68'
p3966
sg6
S'Christmas (Baby Please Come Home)'
p3967
ssS'3kPvsR2w3Jx6awojg4jlzX'
p3968
(dp3969
g3
S'armoo'
p3970
sg4
I1
sg5
S'https://open.spotify.com/track/3kPvsR2w3Jx6awojg4jlzX'
p3971
sg6
S'Me Jongens'
p3972
ssS'5ReWXuKUmnUDMbAq0Adgwq'
p3973
(dp3974
g3
S'Sevn Alias'
p3975
sg4
I18
sg5
S'https://open.spotify.com/track/5ReWXuKUmnUDMbAq0Adgwq'
p3976
sg6
S'Qifesh'
p3977
ssS'6cAKeFFYW2aClZSUyvqAEW'
p3978
(dp3979
g3
S'Isaiah'
p3980
sg4
I12
sg5
S'https://open.spotify.com/track/6cAKeFFYW2aClZSUyvqAEW'
p3981
sg6
S"It's Gotta Be You"
p3982
ssS'26hcyzSE154xMZCbFdtInA'
p3983
(dp3984
g3
S'KREAM'
p3985
sg4
I8
sg5
S'https://open.spotify.com/track/26hcyzSE154xMZCbFdtInA'
p3986
sg6
S'Taped Up Heart (feat. Clara Mae)'
p3987
ssS'1ScQoCrLBWZpWUakzwvXc7'
p3988
(dp3989
g3
S'D-Double'
p3990
sg4
I2
sg5
S'https://open.spotify.com/track/1ScQoCrLBWZpWUakzwvXc7'
p3991
sg6
S'AMN'
p3992
ssS'7vAwHQmXNZ326ViPUWbLDg'
p3993
(dp3994
g3
S'JoeyAK'
p3995
sg4
I1
sg5
S'https://open.spotify.com/track/7vAwHQmXNZ326ViPUWbLDg'
p3996
sg6
S'Luitenant'
p3997
ssS'75gJj5hYRFOi5LKCstPcaD'
p3998
(dp3999
g3
S'Boef'
p4000
sg4
I9
sg5
S'https://open.spotify.com/track/75gJj5hYRFOi5LKCstPcaD'
p4001
sg6
S'Fetty Wap'
p4002
ssS'3GpH5Vdf5AOjkkf9Uo7kvd'
p4003
(dp4004
g3
S'Lijpe'
p4005
sg4
I5
sg5
S'https://open.spotify.com/track/3GpH5Vdf5AOjkkf9Uo7kvd'
p4006
sg6
S'Doe Rustig!'
p4007
ssS'2wDjpPW3HZdA9quPPmZAMu'
p4008
(dp4009
g3
S'Cashmere Cat'
p4010
sg4
I5
sg5
S'https://open.spotify.com/track/2wDjpPW3HZdA9quPPmZAMu'
p4011
sg6
S'Trust Nobody (feat. Selena Gomez & Tory Lanez)'
p4012
ssS'6cHYdlHO65h3Dtt2pPKmBF'
p4013
(dp4014
g3
S'Armin van Buuren'
p4015
sg4
I17
sg5
S'https://open.spotify.com/track/6cHYdlHO65h3Dtt2pPKmBF'
p4016
sg6
S'Sunny Days'
p4017
ssS'1hvpDAxZPKjKztOc72sv06'
p4018
(dp4019
g3
S'Band Aid'
p4020
sg4
I1
sg5
S'https://open.spotify.com/track/1hvpDAxZPKjKztOc72sv06'
p4021
sg6
S"Do They Know It's Christmas? - 1984 Version"
p4022
ssS'72Q0FQQo32KJloivv5xge2'
p4023
(dp4024
g3
S'DJ Khaled'
p4025
sg4
I3
sg5
S'https://open.spotify.com/track/72Q0FQQo32KJloivv5xge2'
p4026
sg6
S"I'm the One"
p4027
ssS'54h8xHewdRPnYzmbEHBhOO'
p4028
(dp4029
g3
S'Imagine Dragons'
p4030
sg4
I1
sg5
S'https://open.spotify.com/track/54h8xHewdRPnYzmbEHBhOO'
p4031
sg6
S'I\xe2\x80\x99ll Make It Up To You'
p4032
ssS'0hNduWmlWmEmuwEFcYvRu1'
p4033
(dp4034
g3
S'Petit Biscuit'
p4035
sg4
I13
sg5
S'https://open.spotify.com/track/0hNduWmlWmEmuwEFcYvRu1'
p4036
sg6
S'Sunset Lover'
p4037
ssS'1x5sYLZiu9r5E43kMlt9f8'
p4038
(dp4039
g3
S'Clean Bandit'
p4040
sg4
I30
sg5
S'https://open.spotify.com/track/1x5sYLZiu9r5E43kMlt9f8'
p4041
sg6
S'Symphony (feat. Zara Larsson)'
p4042
ssS'4rBzT4djs1SFBof6C8731r'
p4043
(dp4044
g3
S'F1rstman'
p4045
sg4
I1
sg5
S'https://open.spotify.com/track/4rBzT4djs1SFBof6C8731r'
p4046
sg6
S'Come Ova'
p4047
ssS'3B54sVLJ402zGa6Xm4YGNe'
p4048
(dp4049
g3
S'French Montana'
p4050
sg4
I14
sg5
S'https://open.spotify.com/track/3B54sVLJ402zGa6Xm4YGNe'
p4051
sg6
S'Unforgettable'
p4052
ssS'6IeK3Ap5m3HabwJxgI6eSE'
p4053
(dp4054
g3
S'Perry Como'
p4055
sg4
I1
sg5
S'https://open.spotify.com/track/6IeK3Ap5m3HabwJxgI6eSE'
p4056
sg6
S"It's Beginning to Look a Lot Like Christmas"
p4057
ssS'2NosbpeuoFdKmBZhw7Btoi'
p4058
(dp4059
g3
S'LouiVos'
p4060
sg4
I2
sg5
S'https://open.spotify.com/track/2NosbpeuoFdKmBZhw7Btoi'
p4061
sg6
S'David Beckham'
p4062
ssS'3bVbQvGVIe4n24AzyXovXh'
p4063
(dp4064
g3
g1
sg4
I1
sg5
S'https://open.spotify.com/track/3bVbQvGVIe4n24AzyXovXh'
p4065
sg6
g1
ssS'6520aj0B4FSKGVuKNsOCOi'
p4066
(dp4067
g3
S'Katy Perry'
p4068
sg4
I21
sg5
S'https://open.spotify.com/track/6520aj0B4FSKGVuKNsOCOi'
p4069
sg6
S'Chained To The Rhythm'
p4070
ssS'5DrN2mYOFgINYelYx1P72l'
p4071
(dp4072
g3
S'Ronnie Flex'
p4073
sg4
I8
sg5
S'https://open.spotify.com/track/5DrN2mYOFgINYelYx1P72l'
p4074
sg6
S'In Mijn Bed'
p4075
ssS'6SwRhMLwNqEi6alNPVG00n'
p4076
(dp4077
g3
S'Kendrick Lamar'
p4078
sg4
I5
sg5
S'https://open.spotify.com/track/6SwRhMLwNqEi6alNPVG00n'
p4079
sg6
S'LOYALTY. FEAT. RIHANNA.'
p4080
ssS'2HzfRSfCogBSsgW2CckVA2'
p4081
(dp4082
g3
S'Luke Christopher'
p4083
sg4
I1
sg5
S'https://open.spotify.com/track/2HzfRSfCogBSsgW2CckVA2'
p4084
sg6
S'Lot to Learn'
p4085
ssS'4Jgbeh3kqsKwXyBCrqjkMO'
p4086
(dp4087
g3
S'Jonna Fraser'
p4088
sg4
I5
sg5
S'https://open.spotify.com/track/4Jgbeh3kqsKwXyBCrqjkMO'
p4089
sg6
S'Lover & Best Friend'
p4090
ssS'0tKcYR2II1VCQWT79i5NrW'
p4091
(dp4092
g3
S'Imagine Dragons'
p4093
sg4
I21
sg5
S'https://open.spotify.com/track/0tKcYR2II1VCQWT79i5NrW'
p4094
sg6
S'Thunder'
p4095
ssS'1pRm2I2f08qcqFcmdKHjH8'
p4096
(dp4097
g3
S'Josylvio'
p4098
sg4
I4
sg5
S'https://open.spotify.com/track/1pRm2I2f08qcqFcmdKHjH8'
p4099
sg6
S'Mama'
p4100
ssS'4Rg9TAzx7mq7MEmEFdQzIb'
p4101
(dp4102
g3
S'Lijpe'
p4103
sg4
I1
sg5
S'https://open.spotify.com/track/4Rg9TAzx7mq7MEmEFdQzIb'
p4104
sg6
S'Doe Rustig!'
p4105
ssS'12OrnRsCcfbeLOcidlceFy'
p4106
(dp4107
g3
S'Latifah'
p4108
sg4
I3
sg5
S'https://open.spotify.com/track/12OrnRsCcfbeLOcidlceFy'
p4109
sg6
S'Oeps'
p4110
ssS'0ofbQMrRDsUaVKq2mGLEAb'
p4111
(dp4112
g3
S'Camila Cabello'
p4113
sg4
I9
sg5
S'https://open.spotify.com/track/0ofbQMrRDsUaVKq2mGLEAb'
p4114
sg6
S'Havana'
p4115
ssS'6DNtNfH8hXkqOX1sjqmI7p'
p4116
(dp4117
g3
S'Major Lazer'
p4118
sg4
I24
sg5
S'https://open.spotify.com/track/6DNtNfH8hXkqOX1sjqmI7p'
p4119
sg6
S'Cold Water (feat. Justin Bieber & M\xc3\x98)'
p4120
ssS'2ytH5wDuqhgLTiDVYioteq'
p4121
(dp4122
g3
S'Jax Jones'
p4123
sg4
I2
sg5
S'https://open.spotify.com/track/2ytH5wDuqhgLTiDVYioteq'
p4124
sg6
S'Instruction'
p4125
ssS'5NNlUMcOEOdoOIwwaWXv0k'
p4126
(dp4127
g3
S'Maroon 5'
p4128
sg4
I20
sg5
S'https://open.spotify.com/track/5NNlUMcOEOdoOIwwaWXv0k'
p4129
sg6
S'Cold'
p4130
ssS'3KhvXIuech7itTdjPU3YWS'
p4131
(dp4132
g3
S'Lijpe'
p4133
sg4
I2
sg5
S'https://open.spotify.com/track/3KhvXIuech7itTdjPU3YWS'
p4134
sg6
S"M'n Brada"
p4135
ssS'5XQMr19TL7Mfksq9zihbOu'
p4136
(dp4137
g3
S'Chris Brown'
p4138
sg4
I8
sg5
S'https://open.spotify.com/track/5XQMr19TL7Mfksq9zihbOu'
p4139
sg6
S'Questions'
p4140
ssS'1sXUWdKx03aP9Gmzft58rt'
p4141
(dp4142
g3
S'Julia Michaels'
p4143
sg4
I27
sg5
S'https://open.spotify.com/track/1sXUWdKx03aP9Gmzft58rt'
p4144
sg6
S'Issues'
p4145
ssS'4NXKrNQvQIfwSyNUqi4axr'
p4146
(dp4147
g3
S'Bokoesam'
p4148
sg4
I1
sg5
S'https://open.spotify.com/track/4NXKrNQvQIfwSyNUqi4axr'
p4149
sg6
S'Whoadies'
p4150
ssS'3QiAAp20rPC3dcAtKtMaqQ'
p4151
(dp4152
g3
S'Elvis Presley'
p4153
sg4
I1
sg5
S'https://open.spotify.com/track/3QiAAp20rPC3dcAtKtMaqQ'
p4154
sg6
S'Blue Christmas'
p4155
ssS'7IWkJwX9C0J7tHurTD7ViL'
p4156
(dp4157
g3
S'Adele'
p4158
sg4
I8
sg5
S'https://open.spotify.com/track/7IWkJwX9C0J7tHurTD7ViL'
p4159
sg6
S'When We Were Young'
p4160
ssS'4tM13V5qVHM6nKTx7aMWVj'
p4161
(dp4162
g3
S'Jebroer'
p4163
sg4
I40
sg5
S'https://open.spotify.com/track/4tM13V5qVHM6nKTx7aMWVj'
p4164
sg6
S'Kind Van De Duivel'
p4165
ssS'1zayuwd1YLZsYDArkruHdL'
p4166
(dp4167
g3
S'Kendrick Lamar'
p4168
sg4
I1
sg5
S'https://open.spotify.com/track/1zayuwd1YLZsYDArkruHdL'
p4169
sg6
S'The Heart Part 4'
p4170
ssS'4jH5WLjSoNW8t2GKjv3dn5'
p4171
(dp4172
g3
S'Sevn Alias'
p4173
sg4
I1
sg5
S'https://open.spotify.com/track/4jH5WLjSoNW8t2GKjv3dn5'
p4174
sg6
S'Rijk Moeten Zijn'
p4175
ssS'14oOKFGuXu8DqvOe1W8vao'
p4176
(dp4177
g3
S'Katy Perry'
p4178
sg4
I2
sg5
S'https://open.spotify.com/track/14oOKFGuXu8DqvOe1W8vao'
p4179
sg6
S'Bon App\xc3\xa9tit'
p4180
ssS'4BHSjbYylfOH5WAGusDyni'
p4181
(dp4182
g3
S'Kendrick Lamar'
p4183
sg4
I2
sg5
S'https://open.spotify.com/track/4BHSjbYylfOH5WAGusDyni'
p4184
sg6
S'YAH.'
p4185
ssS'5DYZ46elO2IIpyBUKS4NmL'
p4186
(dp4187
g3
S'Kevin'
p4188
sg4
I7
sg5
S'https://open.spotify.com/track/5DYZ46elO2IIpyBUKS4NmL'
p4189
sg6
S'Ren Voor Ons'
p4190
ssS'1louJpMmzEicAn7lzDalPW'
p4191
(dp4192
g3
S'Cheat Codes'
p4193
sg4
I26
sg5
S'https://open.spotify.com/track/1louJpMmzEicAn7lzDalPW'
p4194
sg6
S'No Promises (feat. Demi Lovato)'
p4195
ssS'2ISl1zekPsc26sUQpVt8UB'
p4196
(dp4197
g3
S"Shakin' Stevens"
p4198
sg4
I1
sg5
S'https://open.spotify.com/track/2ISl1zekPsc26sUQpVt8UB'
p4199
sg6
S'Merry Christmas Everyone - Remastered'
p4200
ssS'2pJZ1v8HezrAoZ0Fhzby92'
p4201
(dp4202
g3
S'Ed Sheeran'
p4203
sg4
I12
sg5
S'https://open.spotify.com/track/2pJZ1v8HezrAoZ0Fhzby92'
p4204
sg6
S'What Do I Know?'
p4205
ssS'6y2Kaz9QI01XBKJ8mTb7Pf'
p4206
(dp4207
g3
S"Rag'n'Bone Man"
p4208
sg4
I26
sg5
S'https://open.spotify.com/track/6y2Kaz9QI01XBKJ8mTb7Pf'
p4209
sg6
S'Skin'
p4210
ssS'1Slwb6dOYkBlWal1PGtnNg'
p4211
(dp4212
g3
S'Ed Sheeran'
p4213
sg4
I32
sg5
S'https://open.spotify.com/track/1Slwb6dOYkBlWal1PGtnNg'
p4214
sg6
S'Thinking Out Loud'
p4215
ssS'4B68u9z3TQ82SzyIJNeAna'
p4216
(dp4217
g3
S'Jonna Fraser'
p4218
sg4
I2
sg5
S'https://open.spotify.com/track/4B68u9z3TQ82SzyIJNeAna'
p4219
sg6
S'Lange Weg'
p4220
ssS'3kXqUXnukwkpsxhW8emNC0'
p4221
(dp4222
g3
S'Blanche'
p4223
sg4
I2
sg5
S'https://open.spotify.com/track/3kXqUXnukwkpsxhW8emNC0'
p4224
sg6
S'City Lights'
p4225
ssS'3zoYkqS4y2BsGVShPL2nTE'
p4226
(dp4227
g3
S'CNCO'
p4228
sg4
I8
sg5
S'https://open.spotify.com/track/3zoYkqS4y2BsGVShPL2nTE'
p4229
sg6
S'Reggaet\xc3\xb3n Lento (Remix) [CNCO & Little Mix]'
p4230
ssS'1hikPCpDhD4e21XzoNlmNZ'
p4231
(dp4232
g3
S'Armoowasright'
p4233
sg4
I30
sg5
S'https://open.spotify.com/track/1hikPCpDhD4e21XzoNlmNZ'
p4234
sg6
S'Louis Vuitton'
p4235
ssS'2B14G7xCynT85NATGK0Skv'
p4236
(dp4237
g3
S'Josylvio'
p4238
sg4
I1
sg5
S'https://open.spotify.com/track/2B14G7xCynT85NATGK0Skv'
p4239
sg6
S'No Long Things'
p4240
ssS'3Ri4BMe03irzuJQQdXAh7U'
p4241
(dp4242
g3
S'The Partysquad'
p4243
sg4
I10
sg5
S'https://open.spotify.com/track/3Ri4BMe03irzuJQQdXAh7U'
p4244
sg6
S"C'est la vie"
p4245
ssS'0swQsbBsUacH1fYt1FxAgx'
p4246
(dp4247
g3
S'Snollebollekes'
p4248
sg4
I1
sg5
S'https://open.spotify.com/track/0swQsbBsUacH1fYt1FxAgx'
p4249
sg6
S'Springen Nondeju'
p4250
ssS'0iuLGMsB9xBbg5D4iabTtT'
p4251
(dp4252
g3
S'Broederliefde'
p4253
sg4
I34
sg5
S'https://open.spotify.com/track/0iuLGMsB9xBbg5D4iabTtT'
p4254
sg6
S'Het Is Een Feit'
p4255
ssS'7vAXN57IQ0sj049wZGIboE'
p4256
(dp4257
g3
S'Imagine Dragons'
p4258
sg4
I1
sg5
S'https://open.spotify.com/track/7vAXN57IQ0sj049wZGIboE'
p4259
sg6
S'Rise Up'
p4260
ssS'39HyltGRsg2q0s5PMA9ala'
p4261
(dp4262
g3
S'Kensington'
p4263
sg4
I25
sg5
S'https://open.spotify.com/track/39HyltGRsg2q0s5PMA9ala'
p4264
sg6
S'Sorry'
p4265
ssS'2habSXqcJGExM6JJyskY7O'
p4266
(dp4267
g3
S'Miley Cyrus'
p4268
sg4
I20
sg5
S'https://open.spotify.com/track/2habSXqcJGExM6JJyskY7O'
p4269
sg6
S'Malibu'
p4270
ssS'5Ua3GXyHwiSfpNTMjq6m2z'
p4271
(dp4272
g3
S'Little Mix'
p4273
sg4
I22
sg5
S'https://open.spotify.com/track/5Ua3GXyHwiSfpNTMjq6m2z'
p4274
sg6
S'Touch'
p4275
ssS'6i0V12jOa3mr6uu4WYhUBr'
p4276
(dp4277
g3
S'Twenty One Pilots'
p4278
sg4
I11
sg5
S'https://open.spotify.com/track/6i0V12jOa3mr6uu4WYhUBr'
p4279
sg6
S'Heathens'
p4280
ssS'7wWLvhuAOS0KGFFPd7MiCE'
p4281
(dp4282
g3
S'Ismo'
p4283
sg4
I1
sg5
S'https://open.spotify.com/track/7wWLvhuAOS0KGFFPd7MiCE'
p4284
sg6
S'The Same'
p4285
ssS'2a5VluIESm1JP4Qwvo02H8'
p4286
(dp4287
g3
S'Jamie Lawson'
p4288
sg4
I4
sg5
S'https://open.spotify.com/track/2a5VluIESm1JP4Qwvo02H8'
p4289
sg6
S"Wasn't Expecting That"
p4290
ssS'40UroIGvsMPLPBYwH8rMNA'
p4291
(dp4292
g3
S'Vice'
p4293
sg4
I7
sg5
S'https://open.spotify.com/track/40UroIGvsMPLPBYwH8rMNA'
p4294
sg6
S'Steady 1234 (feat. Jasmine Thompson & Skizzy Mars)'
p4295
ssS'5nA67Y0XX9JipZwYxX7Gl7'
p4296
(dp4297
g3
S'Niall Horan'
p4298
sg4
I40
sg5
S'https://open.spotify.com/track/5nA67Y0XX9JipZwYxX7Gl7'
p4299
sg6
S'This Town'
p4300
ssS'0tl7qKsg0jdloogYNUj1y9'
p4301
(dp4302
g3
S'Kempi'
p4303
sg4
I1
sg5
S'https://open.spotify.com/track/0tl7qKsg0jdloogYNUj1y9'
p4304
sg6
S'Hallo'
p4305
ssS'2hcwNAyo43TfVzDMquL5Av'
p4306
(dp4307
g3
S'Frenna'
p4308
sg4
I10
sg5
S'https://open.spotify.com/track/2hcwNAyo43TfVzDMquL5Av'
p4309
sg6
S'777'
p4310
ssS'0SuG9kyzGRpDqrCWtgD6Lq'
p4311
(dp4312
g3
S'Ed Sheeran'
p4313
sg4
I1
sg5
S'https://open.spotify.com/track/0SuG9kyzGRpDqrCWtgD6Lq'
p4314
sg6
S'Give Me Love'
p4315
ssS'4EncVGXlw9yTuaPXMRLTw1'
p4316
(dp4317
g3
S'Outsiders'
p4318
sg4
I4
sg5
S'https://open.spotify.com/track/4EncVGXlw9yTuaPXMRLTw1'
p4319
sg6
S'Vaderland'
p4320
ssS'2YsP3FsnEeADADNxjYVMrG'
p4321
(dp4322
g3
S'Armin van Buuren'
p4323
sg4
I25
sg5
S'https://open.spotify.com/track/2YsP3FsnEeADADNxjYVMrG'
p4324
sg6
S'I Need You'
p4325
ssS'7wiESxCGoUkRdgZF2JOLZu'
p4326
(dp4327
g3
S'Phil Spector'
p4328
sg4
I1
sg5
S'https://open.spotify.com/track/7wiESxCGoUkRdgZF2JOLZu'
p4329
sg6
S'Sleigh Ride'
p4330
ssS'4WgkIgAqRpq41AMDQnFNSE'
p4331
(dp4332
g3
S'Rabby Racks'
p4333
sg4
I5
sg5
S'https://open.spotify.com/track/4WgkIgAqRpq41AMDQnFNSE'
p4334
sg6
S'No Drama'
p4335
ssS'2nLtzopw4rPReszdYBJU6h'
p4336
(dp4337
g3
S'Linkin Park'
p4338
sg4
I1
sg5
S'https://open.spotify.com/track/2nLtzopw4rPReszdYBJU6h'
p4339
sg6
S'Numb'
p4340
ssS'5yQHRt2jsjQdj0WNASwvKK'
p4341
(dp4342
g3
S'The Boy Next Door'
p4343
sg4
I14
sg5
S'https://open.spotify.com/track/5yQHRt2jsjQdj0WNASwvKK'
p4344
sg6
S'La Colegiala'
p4345
ssS'6fxVffaTuwjgEk5h9QyRjy'
p4346
(dp4347
g3
S'Ed Sheeran'
p4348
sg4
I14
sg5
S'https://open.spotify.com/track/6fxVffaTuwjgEk5h9QyRjy'
p4349
sg6
S'Photograph'
p4350
ssS'2kVHAQKVtczchKctctzbtK'
p4351
(dp4352
g3
S'Katy Perry'
p4353
sg4
I11
sg5
S'https://open.spotify.com/track/2kVHAQKVtczchKctctzbtK'
p4354
sg6
S'Swish Swish'
p4355
ssS'3FlQZaRomON5BdHQfGPLTH'
p4356
(dp4357
g3
S'Emms'
p4358
sg4
I4
sg5
S'https://open.spotify.com/track/3FlQZaRomON5BdHQfGPLTH'
p4359
sg6
S'Omhoog/Away'
p4360
ssS'2VCHBVUDMi8fkLi22u0jfS'
p4361
(dp4362
g3
S'Vinchenzo'
p4363
sg4
I1
sg5
S'https://open.spotify.com/track/2VCHBVUDMi8fkLi22u0jfS'
p4364
sg6
S'Steady Love'
p4365
ssS'4nomi6sWpSWVIqwS9wgZMi'
p4366
(dp4367
g3
S"Lil' Kleine"
p4368
sg4
I8
sg5
S'https://open.spotify.com/track/4nomi6sWpSWVIqwS9wgZMi'
p4369
sg6
S'Commotie'
p4370
ssS'1VdZ0vKfR5jneCmWIUAMxK'
p4371
(dp4372
g3
S'Ed Sheeran'
p4373
sg4
I9
sg5
S'https://open.spotify.com/track/1VdZ0vKfR5jneCmWIUAMxK'
p4374
sg6
S'The A Team'
p4375
ssS'0t1Oa11pYvWzcdQjSOyq9G'
p4376
(dp4377
g3
S'Momi'
p4378
sg4
I3
sg5
S'https://open.spotify.com/track/0t1Oa11pYvWzcdQjSOyq9G'
p4379
sg6
S'Bando'
p4380
ssS'1wur1SW656paPv7EyTqWu4'
p4381
(dp4382
g3
S'C\xc3\xa9line Dion'
p4383
sg4
I1
sg5
S'https://open.spotify.com/track/1wur1SW656paPv7EyTqWu4'
p4384
sg6
S'Happy Xmas (War Is Over)'
p4385
ssS'13e6f8t7RKXuxZ0JdaaJRG'
p4386
(dp4387
g3
S'Drake'
p4388
sg4
I3
sg5
S'https://open.spotify.com/track/13e6f8t7RKXuxZ0JdaaJRG'
p4389
sg6
S'Jorja Interlude'
p4390
ssS'6nxQdXa1uAL0rY72wPZu89'
p4391
(dp4392
g3
S'John Legend'
p4393
sg4
I19
sg5
S'https://open.spotify.com/track/6nxQdXa1uAL0rY72wPZu89'
p4394
sg6
S'Love Me Now'
p4395
ssS'6kex4EBAj0WHXDKZMEJaaF'
p4396
(dp4397
g3
S'Jason Derulo'
p4398
sg4
I33
sg5
S'https://open.spotify.com/track/6kex4EBAj0WHXDKZMEJaaF'
p4399
sg6
S'Swalla (feat. Nicki Minaj & Ty Dolla $ign)'
p4400
ssS'2SBr3MK1sdMs8IxdRcN6qz'
p4401
(dp4402
g3
S'Kylie Minogue'
p4403
sg4
I1
sg5
S'https://open.spotify.com/track/2SBr3MK1sdMs8IxdRcN6qz'
p4404
sg6
S'Santa Baby'
p4405
ssS'5fNMMDMnBIhKUUdxmyElKb'
p4406
(dp4407
g3
S'Bizzey'
p4408
sg4
I37
sg5
S'https://open.spotify.com/track/5fNMMDMnBIhKUUdxmyElKb'
p4409
sg6
S'Doe Je Dans'
p4410
ssS'1UiVMKcTVb2BDaXLKQFbR8'
p4411
(dp4412
g3
S'Jonna Fraser'
p4413
sg4
I5
sg5
S'https://open.spotify.com/track/1UiVMKcTVb2BDaXLKQFbR8'
p4414
sg6
S'Manoeuvres'
p4415
ssS'6hHdPiJE4sqFAfz3rbNQEm'
p4416
(dp4417
g3
S'Latifah'
p4418
sg4
I1
sg5
S'https://open.spotify.com/track/6hHdPiJE4sqFAfz3rbNQEm'
p4419
sg6
S'Het Gaat Niet'
p4420
ssS'10JBIfvldDR2TnT5sphGc2'
p4421
(dp4422
g3
S'Train'
p4423
sg4
I1
sg5
S'https://open.spotify.com/track/10JBIfvldDR2TnT5sphGc2'
p4424
sg6
S'Shake up Christmas'
p4425
ssS'3CS95zUyP8LhcWRe4PBQNc'
p4426
(dp4427
g3
S'Ronnie Flex'
p4428
sg4
I1
sg5
S'https://open.spotify.com/track/3CS95zUyP8LhcWRe4PBQNc'
p4429
sg6
S'Energie'
p4430
ssS'0f7P48sOfMxTmlLsdBIa6T'
p4431
(dp4432
g3
S'Kempi'
p4433
sg4
I10
sg5
S'https://open.spotify.com/track/0f7P48sOfMxTmlLsdBIa6T'
p4434
sg6
S'Cocaina'
p4435
ssS'70dk23PZ6clBnxYLguOx4w'
p4436
(dp4437
g3
S'F1rstman'
p4438
sg4
I1
sg5
S'https://open.spotify.com/track/70dk23PZ6clBnxYLguOx4w'
p4439
sg6
S'\xc3\x89\xc3\xa9n ding'
p4440
ssS'2jfCy43LsFbCQoB6HyetlY'
p4441
(dp4442
g3
S'SJUR'
p4443
sg4
I32
sg5
S'https://open.spotify.com/track/2jfCy43LsFbCQoB6HyetlY'
p4444
sg6
S'Let Me Love You'
p4445
ssS'54LGxQGf5LPXNGjtzDZ5IE'
p4446
(dp4447
g3
S'Zara Larsson'
p4448
sg4
I6
sg5
S'https://open.spotify.com/track/54LGxQGf5LPXNGjtzDZ5IE'
p4449
sg6
S'So Good'
p4450
ssS'08WPvDEsHvTFuB9w8tC2OS'
p4451
(dp4452
g3
S'Sage The Gemini'
p4453
sg4
I1
sg5
S'https://open.spotify.com/track/08WPvDEsHvTFuB9w8tC2OS'
p4454
sg6
S'Now and Later'
p4455
ssS'5xWZZwFbtuotkPBsY0Km3c'
p4456
(dp4457
g3
S'Jonna Fraser'
p4458
sg4
I11
sg5
S'https://open.spotify.com/track/5xWZZwFbtuotkPBsY0Km3c'
p4459
sg6
S'Ik Kan Je Niet Laten'
p4460
ssS'1YzfE0WsLidP7KHbEAKZF0'
p4461
(dp4462
g3
S'Murda'
p4463
sg4
I19
sg5
S'https://open.spotify.com/track/1YzfE0WsLidP7KHbEAKZF0'
p4464
sg6
S'Brand New'
p4465
ssS'48uizmUTBowYMNMKmlkyKn'
p4466
(dp4467
g3
S"Lil' Kleine"
p4468
sg4
I8
sg5
S'https://open.spotify.com/track/48uizmUTBowYMNMKmlkyKn'
p4469
sg6
S'Nooit Meer / Ooit Weer'
p4470
ssS'2pxgzWsKsQkvQH67qCzDEr'
p4471
(dp4472
g3
S'Hef'
p4473
sg4
I5
sg5
S'https://open.spotify.com/track/2pxgzWsKsQkvQH67qCzDEr'
p4474
sg6
S'Shooter'
p4475
ssS'0Fv5N0cHBsl4bzCbollCAS'
p4476
(dp4477
g3
S'Big Sean'
p4478
sg4
I1
sg5
S'https://open.spotify.com/track/0Fv5N0cHBsl4bzCbollCAS'
p4479
sg6
S'Moves'
p4480
ssS'7KXjTSCq5nL1LoYtL7XAwS'
p4481
(dp4482
g3
S'Kendrick Lamar'
p4483
sg4
I28
sg5
S'https://open.spotify.com/track/7KXjTSCq5nL1LoYtL7XAwS'
p4484
sg6
S'HUMBLE.'
p4485
ssS'0tXPhc8LvM4dPvoRwI66XQ'
p4486
(dp4487
g3
S'Michael Bubl\xc3\xa9'
p4488
sg4
I1
sg5
S'https://open.spotify.com/track/0tXPhc8LvM4dPvoRwI66XQ'
p4489
sg6
S"I'll Be Home For Christmas"
p4490
ssS'2Ae5awwKvQpTBKQHr1TYCg'
p4491
(dp4492
g3
S'Nause'
p4493
sg4
I9
sg5
S'https://open.spotify.com/track/2Ae5awwKvQpTBKQHr1TYCg'
p4494
sg6
S'Dynamite (feat. Pretty Sister)'
p4495
ssS'44aSrDPA8o01fIQYm1XcZB'
p4496
(dp4497
g3
S'Lijpe'
p4498
sg4
I2
sg5
S'https://open.spotify.com/track/44aSrDPA8o01fIQYm1XcZB'
p4499
sg6
S'BrainFreeze'
p4500
ssS'5lDz73KZJPQ0K7NEEeatkb'
p4501
(dp4502
g3
S'Equalz'
p4503
sg4
I13
sg5
S'https://open.spotify.com/track/5lDz73KZJPQ0K7NEEeatkb'
p4504
sg6
S'Ingang'
p4505
ssS'1jYiIOC5d6soxkJP81fxq2'
p4506
(dp4507
g3
S'DJ Khaled'
p4508
sg4
I1
sg5
S'https://open.spotify.com/track/1jYiIOC5d6soxkJP81fxq2'
p4509
sg6
S"I'm the One"
p4510
ssS'0NgHwSPISEpcp1hO92g3Q1'
p4511
(dp4512
g3
S'Minitrapper'
p4513
sg4
I1
sg5
S'https://open.spotify.com/track/0NgHwSPISEpcp1hO92g3Q1'
p4514
sg6
S'Rennen'
p4515
ssS'5n6PqPeh9jHIJDrTJabsDf'
p4516
(dp4517
g3
S"Lil' Kleine"
p4518
sg4
I9
sg5
S'https://open.spotify.com/track/5n6PqPeh9jHIJDrTJabsDf'
p4519
sg6
S'Vliegtuig'
p4520
ssS'6Na5uKk5SsqZimk0hAWo8y'
p4521
(dp4522
g3
S'Drake'
p4523
sg4
I2
sg5
S'https://open.spotify.com/track/6Na5uKk5SsqZimk0hAWo8y'
p4524
sg6
S'Signs'
p4525
ssS'4gavOCQdZ2g86gkvi17FM7'
p4526
(dp4527
g3
S'Paul McCartney'
p4528
sg4
I1
sg5
S'https://open.spotify.com/track/4gavOCQdZ2g86gkvi17FM7'
p4529
sg6
S'Wonderful Christmastime - Remastered 2011 / Edited Version'
p4530
ssS'0leIhGny91OrU4mjcshsjI'
p4531
(dp4532
g3
S'Mud'
p4533
sg4
I1
sg5
S'https://open.spotify.com/track/0leIhGny91OrU4mjcshsjI'
p4534
sg6
S'Lonely This Christmas'
p4535
ssS'66tJYaC5XdwuexpxdBZx0R'
p4536
(dp4537
g3
S'Josylvio'
p4538
sg4
I1
sg5
S'https://open.spotify.com/track/66tJYaC5XdwuexpxdBZx0R'
p4539
sg6
S'Middelvinger'
p4540
ssS'2VYsv42L8evwtxg2FwZpVU'
p4541
(dp4542
g3
S"Lil' Kleine"
p4543
sg4
I3
sg5
S'https://open.spotify.com/track/2VYsv42L8evwtxg2FwZpVU'
p4544
sg6
S'Alleen'
p4545
ssS'0n2bvWvMwr0gbjcuTm92eW'
p4546
(dp4547
g3
S'Lana Del Rey'
p4548
sg4
I1
sg5
S'https://open.spotify.com/track/0n2bvWvMwr0gbjcuTm92eW'
p4549
sg6
S'Love'
p4550
ssS'18CkDfMW10KhueHaqAFgWK'
p4551
(dp4552
g3
S'F1rstman'
p4553
sg4
I1
sg5
S'https://open.spotify.com/track/18CkDfMW10KhueHaqAFgWK'
p4554
sg6
S'Money Money'
p4555
ssS'3AsAuGTaDQzavZZThyYlop'
p4556
(dp4557
g3
S'NEIKED'
p4558
sg4
I9
sg5
S'https://open.spotify.com/track/3AsAuGTaDQzavZZThyYlop'
p4559
sg6
S'Sexual'
p4560
ssS'3Lfiu5sZ4M4B6JaKMBc0FU'
p4561
(dp4562
g3
S'Ed Sheeran'
p4563
sg4
I10
sg5
S'https://open.spotify.com/track/3Lfiu5sZ4M4B6JaKMBc0FU'
p4564
sg6
S'Barcelona'
p4565
ssS'4VoJMNVZWFuJ7G9qKdO7NG'
p4566
(dp4567
g3
S'Sevn Alias'
p4568
sg4
I1
sg5
S'https://open.spotify.com/track/4VoJMNVZWFuJ7G9qKdO7NG'
p4569
sg6
S'Patsergedrag'
p4570
ssS'6N9FSZAEYdWG7rhW8XXbUg'
p4571
(dp4572
g3
S'SFB'
p4573
sg4
I15
sg5
S'https://open.spotify.com/track/6N9FSZAEYdWG7rhW8XXbUg'
p4574
sg6
S'Way It Goes'
p4575
ssS'65ExBcuMthmxRVnPVvWCe3'
p4576
(dp4577
g3
S'SFB'
p4578
sg4
I15
sg5
S'https://open.spotify.com/track/65ExBcuMthmxRVnPVvWCe3'
p4579
sg6
S'Lovely Body'
p4580
ssS'15IfAjPfHrNAD0TDtXSjIY'
p4581
(dp4582
g3
S'Frsh'
p4583
sg4
I1
sg5
S'https://open.spotify.com/track/15IfAjPfHrNAD0TDtXSjIY'
p4584
sg6
S'Frsh'
p4585
ssS'4kfm1uI9QGaoN9qm6CkAMn'
p4586
(dp4587
g3
S'Linkin Park'
p4588
sg4
I1
sg5
S'https://open.spotify.com/track/4kfm1uI9QGaoN9qm6CkAMn'
p4589
sg6
S"What I've Done"
p4590
ssS'69bp2EbF7Q2rqc5N3ylezZ'
p4591
(dp4592
g3
S'Justin Bieber'
p4593
sg4
I11
sg5
S'https://open.spotify.com/track/69bp2EbF7Q2rqc5N3ylezZ'
p4594
sg6
S'Sorry'
p4595
ssS'5A8eo7JROvGadNBrBxdBsl'
p4596
(dp4597
g3
S'Sevn Alias'
p4598
sg4
I17
sg5
S'https://open.spotify.com/track/5A8eo7JROvGadNBrBxdBsl'
p4599
sg6
S'Weg Van Alle Stress'
p4600
ssS'2cnKEkpVUSV4wnjQiTWfH6'
p4601
(dp4602
g3
S'Wisin'
p4603
sg4
I13
sg5
S'https://open.spotify.com/track/2cnKEkpVUSV4wnjQiTWfH6'
p4604
sg6
S'Esc\xc3\xa1pate Conmigo'
p4605
ssS'04CttTezSnv71USiiG9mIo'
p4606
(dp4607
g3
S'Hearts & Colors'
p4608
sg4
I10
sg5
S'https://open.spotify.com/track/04CttTezSnv71USiiG9mIo'
p4609
sg6
S'Lighthouse - Andrelli Remix'
p4610
ssS'4iLqG9SeJSnt0cSPICSjxv'
p4611
(dp4612
g3
S'Charlie Puth'
p4613
sg4
I24
sg5
S'https://open.spotify.com/track/4iLqG9SeJSnt0cSPICSjxv'
p4614
sg6
S'Attention'
p4615
ssS'3s5vPRJOl71dtZ8SjU8SnN'
p4616
(dp4617
g3
S'Sevn Alias'
p4618
sg4
I1
sg5
S'https://open.spotify.com/track/3s5vPRJOl71dtZ8SjU8SnN'
p4619
sg6
S'Mufasa'
p4620
ssS'15dnkAHcHC0vrIUlbiPiqU'
p4621
(dp4622
g3
S'Imagine Dragons'
p4623
sg4
I1
sg5
S'https://open.spotify.com/track/15dnkAHcHC0vrIUlbiPiqU'
p4624
sg6
S'I Don\xe2\x80\x99t Know Why'
p4625
ssS'2VxAfqI3vIOaPSlECBNJa8'
p4626
(dp4627
g3
S'Jayh'
p4628
sg4
I8
sg5
S'https://open.spotify.com/track/2VxAfqI3vIOaPSlECBNJa8'
p4629
sg6
S'Jodge Me Niet - Titelsong Van De Film \xe2\x80\x9cSOOF 2\xe2\x80\x9d'
p4630
ssS'6RUKPb4LETWmmr3iAEQktW'
p4631
(dp4632
g3
S'The Chainsmokers'
p4633
sg4
I34
sg5
S'https://open.spotify.com/track/6RUKPb4LETWmmr3iAEQktW'
p4634
sg6
S'Something Just Like This'
p4635
ssS'1kBNp3sRYJy2bbz5cmSJv5'
p4636
(dp4637
g3
S'Frenna'
p4638
sg4
I15
sg5
S'https://open.spotify.com/track/1kBNp3sRYJy2bbz5cmSJv5'
p4639
sg6
S'Longtime'
p4640
ssS'3mRcWCyteY2133a7xVMrYw'
p4641
(dp4642
g3
S'Future'
p4643
sg4
I1
sg5
S'https://open.spotify.com/track/3mRcWCyteY2133a7xVMrYw'
p4644
sg6
S'Comin Out Strong'
p4645
ssS'4uoumbAMEMaKdtiv763jKz'
p4646
(dp4647
g3
S'Zara Larsson'
p4648
sg4
I1
sg5
S'https://open.spotify.com/track/4uoumbAMEMaKdtiv763jKz'
p4649
sg6
S'TG4M'
p4650
ssS'0m5SWK1mi9y9Vk1KZnJ2wM'
p4651
(dp4652
g3
S'SFB'
p4653
sg4
I10
sg5
S'https://open.spotify.com/track/0m5SWK1mi9y9Vk1KZnJ2wM'
p4654
sg6
S'Badman Flex'
p4655
ssS'2CPqh63wRVscbceKcPxwvv'
p4656
(dp4657
g3
S'Mike Perry'
p4658
sg4
I10
sg5
S'https://open.spotify.com/track/2CPqh63wRVscbceKcPxwvv'
p4659
sg6
S'The Ocean'
p4660
ssS'6x8j5V85ZJHtvOSjSamcVc'
p4661
(dp4662
g3
S'MHD'
p4663
sg4
I17
sg5
S'https://open.spotify.com/track/6x8j5V85ZJHtvOSjSamcVc'
p4664
sg6
S'Afro Trap Pt. 7 (La puissance)'
p4665
ssS'7fwWB6u2BAVKdrTudi5MZt'
p4666
(dp4667
g3
S"Lil' Kleine"
p4668
sg4
I1
sg5
S'https://open.spotify.com/track/7fwWB6u2BAVKdrTudi5MZt'
p4669
sg6
S'Net Iets Meer'
p4670
ssS'6pyIRpxFSGo6iYIwRtj4xG'
p4671
(dp4672
g3
S'Mel Torm\xc3\xa9'
p4673
sg4
I1
sg5
S'https://open.spotify.com/track/6pyIRpxFSGo6iYIwRtj4xG'
p4674
sg6
S'The Christmas Song (Chestnuts Roasting On an Open Fire)'
p4675
ssS'1wOLYsMBvJ2NOYSudRMTSo'
p4676
(dp4677
g3
S"Lil' Kleine"
p4678
sg4
I1
sg5
S'https://open.spotify.com/track/1wOLYsMBvJ2NOYSudRMTSo'
p4679
sg6
S'Gemaakt Voor Dit'
p4680
ssS'1yZeAbEbUz2mCSqnMvCwtC'
p4681
(dp4682
g3
S'Sevn Alias'
p4683
sg4
I17
sg5
S'https://open.spotify.com/track/1yZeAbEbUz2mCSqnMvCwtC'
p4684
sg6
S'Money Like We'
p4685
ssS'7LUcFqm1WUjqmFz1OIKjbM'
p4686
(dp4687
g3
S'Mula B'
p4688
sg4
I1
sg5
S'https://open.spotify.com/track/7LUcFqm1WUjqmFz1OIKjbM'
p4689
sg6
S'Steen'
p4690
ssS'6n2Hr4ieid3D9ajnGX3pdp'
p4691
(dp4692
g3
S'Pietju Bell'
p4693
sg4
I12
sg5
S'https://open.spotify.com/track/6n2Hr4ieid3D9ajnGX3pdp'
p4694
sg6
S'Als Je Wist Dan Je Weet'
p4695
ssS'1xznGGDReH1oQq0xzbwXa3'
p4696
(dp4697
g3
S'Drake'
p4698
sg4
I35
sg5
S'https://open.spotify.com/track/1xznGGDReH1oQq0xzbwXa3'
p4699
sg6
S'One Dance'
p4700
ssS'5GXAXm5YOmYT0kL5jHvYBt'
p4701
(dp4702
g3
S'The Weeknd'
p4703
sg4
I30
sg5
S'https://open.spotify.com/track/5GXAXm5YOmYT0kL5jHvYBt'
p4704
sg6
S'I Feel It Coming'
p4705
ssS'1fMNFmpQjc7CjXlE9LnM8T'
p4706
(dp4707
g3
S'Jairzinho'
p4708
sg4
I7
sg5
S'https://open.spotify.com/track/1fMNFmpQjc7CjXlE9LnM8T'
p4709
sg6
S'Vrij Zijn'
p4710
ssS'6IZvVAP7VPPnsGX6bvgkqg'
p4711
(dp4712
g3
S'Kendrick Lamar'
p4713
sg4
I2
sg5
S'https://open.spotify.com/track/6IZvVAP7VPPnsGX6bvgkqg'
p4714
sg6
S'PRIDE.'
p4715
ssS'0lMbuWUpfTWhEmOKxppEau'
p4716
(dp4717
g3
S'Calvin Harris'
p4718
sg4
I9
sg5
S'https://open.spotify.com/track/0lMbuWUpfTWhEmOKxppEau'
p4719
sg6
S'Rollin'
p4720
ssS'7shAADk9RbPvnwCSkjctFJ'
p4721
(dp4722
g3
S'Bizzey'
p4723
sg4
I22
sg5
S'https://open.spotify.com/track/7shAADk9RbPvnwCSkjctFJ'
p4724
sg6
S'Traag'
p4725
ssS'1BvCzq6ppAF8iL6duMyjdx'
p4726
(dp4727
g3
S"Lil' Kleine"
p4728
sg4
I1
sg5
S'https://open.spotify.com/track/1BvCzq6ppAF8iL6duMyjdx'
p4729
sg6
S'Halen & Trekken'
p4730
ssS'3cFsmM51N5zMAuu1nNY4Tw'
p4731
(dp4732
g3
S'Sean Paul'
p4733
sg4
I32
sg5
S'https://open.spotify.com/track/3cFsmM51N5zMAuu1nNY4Tw'
p4734
sg6
S'No Lie'
p4735
ssS'51ChrwmUPDJvedPQnIU8Ls'
p4736
(dp4737
g3
S'Ed Sheeran'
p4738
sg4
I12
sg5
S'https://open.spotify.com/track/51ChrwmUPDJvedPQnIU8Ls'
p4739
sg6
S'Dive'
p4740
ssS'6NBNTkyUTUWgfjQVrjz0MB'
p4741
(dp4742
g3
S'Dana'
p4743
sg4
I1
sg5
S'https://open.spotify.com/track/6NBNTkyUTUWgfjQVrjz0MB'
p4744
sg6
S'Cold Cold Christmas'
p4745
ssS'7unsFhRcTME5PNGT2RffKC'
p4746
(dp4747
g3
S'3robi'
p4748
sg4
I1
sg5
S'https://open.spotify.com/track/7unsFhRcTME5PNGT2RffKC'
p4749
sg6
S'Dikke Stack'
p4750
ssS'2zpvgMurFjLK6Aoyqv6JtO'
p4751
(dp4752
g3
S'Kensington'
p4753
sg4
I10
sg5
S'https://open.spotify.com/track/2zpvgMurFjLK6Aoyqv6JtO'
p4754
sg6
S'Do I Ever'
p4755
ssS'1CUVN2kn7mW5FjkqXTR2W1'
p4756
(dp4757
g3
S'Jonas Blue'
p4758
sg4
I25
sg5
S'https://open.spotify.com/track/1CUVN2kn7mW5FjkqXTR2W1'
p4759
sg6
S'Perfect Strangers'
p4760
ssS'1vVNlXi8gf8tZ7OhnEs4VE'
p4761
(dp4762
g3
S'French Montana'
p4763
sg4
I1
sg5
S'https://open.spotify.com/track/1vVNlXi8gf8tZ7OhnEs4VE'
p4764
sg6
S'A Lie'
p4765
ssS'0SGkqnVQo9KPytSri1H6cF'
p4766
(dp4767
g3
S'Big Sean'
p4768
sg4
I9
sg5
S'https://open.spotify.com/track/0SGkqnVQo9KPytSri1H6cF'
p4769
sg6
S'Bounce Back'
p4770
ssS'0vQ1FnsdQCTymqifNR55kr'
p4771
(dp4772
g3
S'Josylvio'
p4773
sg4
I1
sg5
S'https://open.spotify.com/track/0vQ1FnsdQCTymqifNR55kr'
p4774
sg6
S'Outro 2 Gezichten'
p4775
ssS'7vIlKSC5fcyNhDBaQyFTxM'
p4776
(dp4777
g3
S'Jayh'
p4778
sg4
I12
sg5
S'https://open.spotify.com/track/7vIlKSC5fcyNhDBaQyFTxM'
p4779
sg6
S'Volgende Stap'
p4780
ssS'7nKBxz47S9SD79N086fuhn'
p4781
(dp4782
g3
S'Enrique Iglesias'
p4783
sg4
I31
sg5
S'https://open.spotify.com/track/7nKBxz47S9SD79N086fuhn'
p4784
sg6
S'SUBEME LA RADIO'
p4785
ssS'27SdWb2rFzO6GWiYDBTD9j'
p4786
(dp4787
g3
S'Sia'
p4788
sg4
I9
sg5
S'https://open.spotify.com/track/27SdWb2rFzO6GWiYDBTD9j'
p4789
sg6
S'Cheap Thrills'
p4790
ssS'7poASuTM1krLDJPpkaqBwp'
p4791
(dp4792
g3
S'Tavi Castro'
p4793
sg4
I7
sg5
S'https://open.spotify.com/track/7poASuTM1krLDJPpkaqBwp'
p4794
sg6
S'Diamond Girl (Remix)'
p4795
ssS'4VpWv7FrMhj5GoHJQRqurZ'
p4796
(dp4797
g3
S'Adje'
p4798
sg4
I1
sg5
S'https://open.spotify.com/track/4VpWv7FrMhj5GoHJQRqurZ'
p4799
sg6
S'Silence'
p4800
ssS'6PJ8FF6UR8FZXfEvpHkIVN'
p4801
(dp4802
g3
S'Ed Sheeran'
p4803
sg4
I14
sg5
S'https://open.spotify.com/track/6PJ8FF6UR8FZXfEvpHkIVN'
p4804
sg6
S'How Would You Feel (Paean)'
p4805
ssS'2mOtx6P21hecOcPoVuZbzF'
p4806
(dp4807
g3
S'Luther Vandross'
p4808
sg4
I1
sg5
S'https://open.spotify.com/track/2mOtx6P21hecOcPoVuZbzF'
p4809
sg6
S'Please Come Home for Christmas'
p4810
ssS'3eFJqPe8VUYrABbFjSauuj'
p4811
(dp4812
g3
g1
sg4
I1
sg5
S'https://open.spotify.com/track/3eFJqPe8VUYrABbFjSauuj'
p4813
sg6
g1
ssS'4WzDbQCMB12GOsjFWVikrO'
p4814
(dp4815
g3
S'Mula B'
p4816
sg4
I3
sg5
S'https://open.spotify.com/track/4WzDbQCMB12GOsjFWVikrO'
p4817
sg6
S'Donnie Bankoe Barkie'
p4818
ssS'4eFq1Nyov3HdNcVGVhwJdM'
p4819
(dp4820
g3
S"Lil' Kleine"
p4821
sg4
I1
sg5
S'https://open.spotify.com/track/4eFq1Nyov3HdNcVGVhwJdM'
p4822
sg6
S'Commotie'
p4823
ssS'2AmjhQbiL663mGtaVDB6Jx'
p4824
(dp4825
g3
S'Yellow Claw'
p4826
sg4
I6
sg5
S'https://open.spotify.com/track/2AmjhQbiL663mGtaVDB6Jx'
p4827
sg6
S'Good Day (feat. DJ Snake & Elliphant)'
p4828
ssS'5ndfVSDyPq90jaIUhNPeby'
p4829
(dp4830
g3
S'Katy Perry'
p4831
sg4
I2
sg5
S'https://open.spotify.com/track/5ndfVSDyPq90jaIUhNPeby'
p4832
sg6
S'Chained To The Rhythm'
p4833
ssS'5uCax9HTNlzGybIStD3vDh'
p4834
(dp4835
g3
S'James Arthur'
p4836
sg4
I42
sg5
S'https://open.spotify.com/track/5uCax9HTNlzGybIStD3vDh'
p4837
sg6
S"Say You Won't Let Go"
p4838
ssS'7qiZfU4dY1lWllzX7mPBI3'
p4839
(dp4840
g3
S'Ed Sheeran'
p4841
sg4
I40
sg5
S'https://open.spotify.com/track/7qiZfU4dY1lWllzX7mPBI3'
p4842
sg6
S'Shape of You'
p4843
ssS'3tIF7WC5lSAzBtFLP8LxQP'
p4844
(dp4845
g3
S'Boef'
p4846
sg4
I6
sg5
S'https://open.spotify.com/track/3tIF7WC5lSAzBtFLP8LxQP'
p4847
sg6
S'Kopzorgen'
p4848
ssS'0iV9yfj1knFNOSEiuTHZwl'
p4849
(dp4850
g3
S'Christina Aguilera'
p4851
sg4
I1
sg5
S'https://open.spotify.com/track/0iV9yfj1knFNOSEiuTHZwl'
p4852
sg6
S'Have Yourself a Merry Little Christmas'
p4853
ssS'3Bwgy4SrCrnp6eaTFhLhvi'
p4854
(dp4855
g3
S'Valsbezig'
p4856
sg4
I1
sg5
S'https://open.spotify.com/track/3Bwgy4SrCrnp6eaTFhLhvi'
p4857
sg6
S'De Mist In'
p4858
ssS'0wfbD5rAksdXUzRvMfM3x5'
p4859
(dp4860
g3
S'The Chainsmokers'
p4861
sg4
I8
sg5
S'https://open.spotify.com/track/0wfbD5rAksdXUzRvMfM3x5'
p4862
sg6
S'The One'
p4863
ssS'0fsmTJldWyMkaCWTWt68yq'
p4864
(dp4865
g3
S'Ronnie Flex'
p4866
sg4
I14
sg5
S'https://open.spotify.com/track/0fsmTJldWyMkaCWTWt68yq'
p4867
sg6
S'Is Dit Over'
p4868
ssS'4WrS6vezaPwOafKJmHqMEU'
p4869
(dp4870
g3
S'Jax Jones'
p4871
sg4
I1
sg5
S'https://open.spotify.com/track/4WrS6vezaPwOafKJmHqMEU'
p4872
sg6
S"You Don't Know Me - Radio Edit"
p4873
ssS'2fQrGHiQOvpL9UgPvtYy6G'
p4874
(dp4875
g3
S'21 Savage'
p4876
sg4
I3
sg5
S'https://open.spotify.com/track/2fQrGHiQOvpL9UgPvtYy6G'
p4877
sg6
S'Bank Account'
p4878
ssS'4Vy2kx4whJpq6ymOMaalNH'
p4879
(dp4880
g3
S"Lil' Kleine"
p4881
sg4
I1
sg5
S'https://open.spotify.com/track/4Vy2kx4whJpq6ymOMaalNH'
p4882
sg6
S'Niet Omdat Het Moet'
p4883
ssS'6CECHCSxq5vS8eCzZEwhtj'
p4884
(dp4885
g3
S'Frsh'
p4886
sg4
I1
sg5
S'https://open.spotify.com/track/6CECHCSxq5vS8eCzZEwhtj'
p4887
sg6
S'Die Guy (feat. LouiVos)'
p4888
ssS'0S85qnw3RypjyvWgfb8cS4'
p4889
(dp4890
g3
S'Lijpe'
p4891
sg4
I1
sg5
S'https://open.spotify.com/track/0S85qnw3RypjyvWgfb8cS4'
p4892
sg6
S'BrainFreeze'
p4893
ssS'6DjV3ev7xNw8y0iwkiTAp9'
p4894
(dp4895
g3
S'Don Diablo'
p4896
sg4
I5
sg5
S'https://open.spotify.com/track/6DjV3ev7xNw8y0iwkiTAp9'
p4897
sg6
S'Children Of A Miracle'
p4898
ssS'2FiSTH0GYpIioUgjfzMIja'
p4899
(dp4900
g3
S'Kygo'
p4901
sg4
I1
sg5
S'https://open.spotify.com/track/2FiSTH0GYpIioUgjfzMIja'
p4902
sg6
S'Stay'
p4903
ssS'0XEHturo9Tyjva2vvLQJcV'
p4904
(dp4905
g3
S'Chip Charlez'
p4906
sg4
I1
sg5
S'https://open.spotify.com/track/0XEHturo9Tyjva2vvLQJcV'
p4907
sg6
S'Geregeld'
p4908
ssS'2eAZfqOm4EnOF9VvN50Tyc'
p4909
(dp4910
g3
S'Lil Uzi Vert'
p4911
sg4
I3
sg5
S'https://open.spotify.com/track/2eAZfqOm4EnOF9VvN50Tyc'
p4912
sg6
S'The Way Life Goes'
p4913
ssS'1F2HXIJrE2Xn81OzT2zZvW'
p4914
(dp4915
g3
S'French Montana'
p4916
sg4
I12
sg5
S'https://open.spotify.com/track/1F2HXIJrE2Xn81OzT2zZvW'
p4917
sg6
S'Unforgettable'
p4918
ssS'6QgjcU0zLnzq5OrUoSZ3OK'
p4919
(dp4920
g3
S'Portugal. The Man'
p4921
sg4
I6
sg5
S'https://open.spotify.com/track/6QgjcU0zLnzq5OrUoSZ3OK'
p4922
sg6
S'Feel It Still'
p4923
ssS'7iwMnRTBGi7SDxKmgBJOL5'
p4924
(dp4925
g3
S'Ronnie Flex'
p4926
sg4
I13
sg5
S'https://open.spotify.com/track/7iwMnRTBGi7SDxKmgBJOL5'
p4927
sg6
S'Achteruit'
p4928
ssS'6Yk3pZPw8hlUBMTeLLLRC1'
p4929
(dp4930
g3
S'The Boy Next Door'
p4931
sg4
I1
sg5
S'https://open.spotify.com/track/6Yk3pZPw8hlUBMTeLLLRC1'
p4932
sg6
S'La Colegiala'
p4933
ssS'2f9LSU0aBW04w6KL26DW8r'
p4934
(dp4935
g3
S'WizKid'
p4936
sg4
I12
sg5
S'https://open.spotify.com/track/2f9LSU0aBW04w6KL26DW8r'
p4937
sg6
S'Come Closer'
p4938
ssS'78rIJddV4X0HkNAInEcYde'
p4939
(dp4940
g3
S'Starley'
p4941
sg4
I40
sg5
S'https://open.spotify.com/track/78rIJddV4X0HkNAInEcYde'
p4942
sg6
S'Call On Me - Ryan Riback Extended Remix'
p4943
ssS'0L7loeTIg6akW84aEQZpCT'
p4944
(dp4945
g3
S'Major Lazer'
p4946
sg4
I6
sg5
S'https://open.spotify.com/track/0L7loeTIg6akW84aEQZpCT'
p4947
sg6
S'Light It Up (feat. Nyla & Fuse ODG) - Remix'
p4948
ssS'3vRKEsv161Ekp1ASrIh70L'
p4949
(dp4950
g3
S'MHD'
p4951
sg4
I2
sg5
S'https://open.spotify.com/track/3vRKEsv161Ekp1ASrIh70L'
p4952
sg6
S'Bravo'
p4953
ssS'5GG3knKdxKWrNboRijxeKF'
p4954
(dp4955
g3
S'Bryson Tiller'
p4956
sg4
I1
sg5
S'https://open.spotify.com/track/5GG3knKdxKWrNboRijxeKF'
p4957
sg6
S'Run Me Dry'
p4958
ssS'4Q5yMlwAfAoitqg4r9oZHN'
p4959
(dp4960
g3
S'Cashmere Cat'
p4961
sg4
I7
sg5
S'https://open.spotify.com/track/4Q5yMlwAfAoitqg4r9oZHN'
p4962
sg6
S'Quit (feat. Ariana Grande)'
p4963
ssS'3WdeIwB7cnLatF4h1QFYaV'
p4964
(dp4965
g3
S'Ismo'
p4966
sg4
I2
sg5
S'https://open.spotify.com/track/3WdeIwB7cnLatF4h1QFYaV'
p4967
sg6
S'Eh Niffo'
p4968
ssS'1Bqxj0aH5KewYHKUg1IdrF'
p4969
(dp4970
g3
S'G-Eazy'
p4971
sg4
I1
sg5
S'https://open.spotify.com/track/1Bqxj0aH5KewYHKUg1IdrF'
p4972
sg6
S'Some Kind Of Drug'
p4973
ssS'2xQIYUIQ4Hob10c5u8tVb7'
p4974
(dp4975
g3
S"Lil' Kleine"
p4976
sg4
I1
sg5
S'https://open.spotify.com/track/2xQIYUIQ4Hob10c5u8tVb7'
p4977
sg6
S'Liegen Voor Jou'
p4978
ssS'167NczpNbRF7oWakJaY3Hh'
p4979
(dp4980
g3
S'Niall Horan'
p4981
sg4
I23
sg5
S'https://open.spotify.com/track/167NczpNbRF7oWakJaY3Hh'
p4982
sg6
S'Slow Hands'
p4983
ssS'4wNl6yUAr6S81XlG4JCPB8'
p4984
(dp4985
g3
S'Bianca Ryan'
p4986
sg4
I1
sg5
S'https://open.spotify.com/track/4wNl6yUAr6S81XlG4JCPB8'
p4987
sg6
S"Why Couldn't It Be Christmas Everyday?"
p4988
ssS'708FE2hU1bDl5agID2m8sS'
p4989
(dp4990
g3
S'Zefanio'
p4991
sg4
I2
sg5
S'https://open.spotify.com/track/708FE2hU1bDl5agID2m8sS'
p4992
sg6
S'Laatste Keer'
p4993
ssS'2YaSObUFWGALYvDAPWIGBY'
p4994
(dp4995
g3
S'Johnny Sellah'
p4996
sg4
I1
sg5
S'https://open.spotify.com/track/2YaSObUFWGALYvDAPWIGBY'
p4997
sg6
S'Pijnlijk'
p4998
ssS'1v3fyyGJRlblbobabiXxIs'
p4999
(dp5000
g3
S'Latifah'
p5001
sg4
I5
sg5
S'https://open.spotify.com/track/1v3fyyGJRlblbobabiXxIs'
p5002
sg6
S'On My Way'
p5003
ssS'53Mz1lKhFtcAdJH0wAvTvm'
p5004
(dp5005
g3
S'SBMG'
p5006
sg4
I11
sg5
S'https://open.spotify.com/track/53Mz1lKhFtcAdJH0wAvTvm'
p5007
sg6
S'Caribbean'
p5008
ssS'5AreJFprYBn0fODzFpH4LD'
p5009
(dp5010
g3
S'Josylvio'
p5011
sg4
I2
sg5
S'https://open.spotify.com/track/5AreJFprYBn0fODzFpH4LD'
p5012
sg6
S'Only Thing'
p5013
ssS'6cREm4bV7V79Yxdilx9HDo'
p5014
(dp5015
g3
S'Timeflies'
p5016
sg4
I1
sg5
S'https://open.spotify.com/track/6cREm4bV7V79Yxdilx9HDo'
p5017
sg6
S'Once In a While'
p5018
ssS'1DGYmHLYkwyCmvDEL3ctti'
p5019
(dp5020
g3
S'Dido'
p5021
sg4
I1
sg5
S'https://open.spotify.com/track/1DGYmHLYkwyCmvDEL3ctti'
p5022
sg6
S'Christmas Day'
p5023
ssS'4HnSHcMuCSiytNZMoO5IGU'
p5024
(dp5025
g3
S'Vinchenzo'
p5026
sg4
I11
sg5
S'https://open.spotify.com/track/4HnSHcMuCSiytNZMoO5IGU'
p5027
sg6
S'Daily'
p5028
ssS'7yHEDfrJNd0zWOfXwydNH0'
p5029
(dp5030
g3
S'Ariana Grande'
p5031
sg4
I1
sg5
S'https://open.spotify.com/track/7yHEDfrJNd0zWOfXwydNH0'
p5032
sg6
S'Into You'
p5033
ssS'5wasgZvi3QdppQ4Q6keNBU'
p5034
(dp5035
g3
S'Kinderen Voor Kinderen'
p5036
sg4
I1
sg5
S'https://open.spotify.com/track/5wasgZvi3QdppQ4Q6keNBU'
p5037
sg6
S'Okido'
p5038
ssS'1lntL1cI2UIWlxjL5QiN8g'
p5039
(dp5040
g3
S'Lauv'
p5041
sg4
I5
sg5
S'https://open.spotify.com/track/1lntL1cI2UIWlxjL5QiN8g'
p5042
sg6
S'The Other'
p5043
ssS'05Wjds52t0xdTqqb9FaatS'
p5044
(dp5045
g3
S'Mula B'
p5046
sg4
I3
sg5
S'https://open.spotify.com/track/05Wjds52t0xdTqqb9FaatS'
p5047
sg6
S'Kenia'
p5048
ssS'2SVQnBgq1pza2bSILgZoMU'
p5049
(dp5050
g3
S'Teske'
p5051
sg4
I1
sg5
S'https://open.spotify.com/track/2SVQnBgq1pza2bSILgZoMU'
p5052
sg6
S'Oesters & Champagne'
p5053
ssS'1OvlkBQVsFtoTmHN1WUFHK'
p5054
(dp5055
g3
S'Lijpe'
p5056
sg4
I2
sg5
S'https://open.spotify.com/track/1OvlkBQVsFtoTmHN1WUFHK'
p5057
sg6
S'Zo Heet'
p5058
ssS'11KJSRSgaDxqydKYiD2Jew'
p5059
(dp5060
g3
S'Drake'
p5061
sg4
I11
sg5
S'https://open.spotify.com/track/11KJSRSgaDxqydKYiD2Jew'
p5062
sg6
S'Too Good'
p5063
ssS'7pYFPMeK0TnaTGdS6qOtEr'
p5064
(dp5065
g3
S'Stargate'
p5066
sg4
I4
sg5
S'https://open.spotify.com/track/7pYFPMeK0TnaTGdS6qOtEr'
p5067
sg6
S'Waterfall'
p5068
ssS'16vslB3t1wWmVOUIDrfqv9'
p5069
(dp5070
g3
S'Fmg'
p5071
sg4
I2
sg5
S'https://open.spotify.com/track/16vslB3t1wWmVOUIDrfqv9'
p5072
sg6
S'Niet Bepalen'
p5073
ssS'1yNyoWWWikbLhwIGWjZuDW'
p5074
(dp5075
g3
S'The Vamps'
p5076
sg4
I16
sg5
S'https://open.spotify.com/track/1yNyoWWWikbLhwIGWjZuDW'
p5077
sg6
S'All Night'
p5078
ssS'26AuyrZGzWWiYZPSd3XBIg'
p5079
(dp5080
g3
S'The Chainsmokers'
p5081
sg4
I1
sg5
S'https://open.spotify.com/track/26AuyrZGzWWiYZPSd3XBIg'
p5082
sg6
S'Bloodstream'
p5083
ssS'51lPx6ZCSalL2kvSrDUyJc'
p5084
(dp5085
g3
S'John Mayer'
p5086
sg4
I1
sg5
S'https://open.spotify.com/track/51lPx6ZCSalL2kvSrDUyJc'
p5087
sg6
S"You're Gonna Live Forever in Me"
p5088
ssS'64zuD57Ev2i70KmggQKNkX'
p5089
(dp5090
g3
S'SBMG'
p5091
sg4
I1
sg5
S'https://open.spotify.com/track/64zuD57Ev2i70KmggQKNkX'
p5092
sg6
S'Who Do U Love'
p5093
ssS'5ZgA4F6aJ3nxKKYZq6KWco'
p5094
(dp5095
g3
S'Jebroer'
p5096
sg4
I17
sg5
S'https://open.spotify.com/track/5ZgA4F6aJ3nxKKYZq6KWco'
p5097
sg6
S'Engeltje'
p5098
ssS'4vb4mFvYsr2h6enhjJsq9Y'
p5099
(dp5100
g3
S'Adele'
p5101
sg4
I12
sg5
S'https://open.spotify.com/track/4vb4mFvYsr2h6enhjJsq9Y'
p5102
sg6
S'Water Under the Bridge'
p5103
ssS'1Tdjuqth02Y1CNeVMb6UwZ'
p5104
(dp5105
g3
S"Lil' Kleine"
p5106
sg4
I16
sg5
S'https://open.spotify.com/track/1Tdjuqth02Y1CNeVMb6UwZ'
p5107
sg6
S'Liegen Voor Jou'
p5108
ssS'17Fd6Yb7mSbinKG8LoWfFl'
p5109
(dp5110
g3
S'Mike Posner'
p5111
sg4
I10
sg5
S'https://open.spotify.com/track/17Fd6Yb7mSbinKG8LoWfFl'
p5112
sg6
S'I Took A Pill In Ibiza - Seeb Remix'
p5113
ssS'7lU6Bsf1wmHUEgnQW6oIlR'
p5114
(dp5115
g3
S'Lijpe'
p5116
sg4
I21
sg5
S'https://open.spotify.com/track/7lU6Bsf1wmHUEgnQW6oIlR'
p5117
sg6
S'Eng'
p5118
ssS'4tCtwWceOPWzenK2HAIJSb'
p5119
(dp5120
g3
S'Fifth Harmony'
p5121
sg4
I8
sg5
S'https://open.spotify.com/track/4tCtwWceOPWzenK2HAIJSb'
p5122
sg6
S'Work from Home'
p5123
ssS'5udXAq5qv3sRRD0L60vJu2'
p5124
(dp5125
g3
S'Jayh'
p5126
sg4
I22
sg5
S'https://open.spotify.com/track/5udXAq5qv3sRRD0L60vJu2'
p5127
sg6
S'Van Mij'
p5128
ssS'7FHswZNIRuGrq58FLFvZsU'
p5129
(dp5130
g3
S'Hansie'
p5131
sg4
I7
sg5
S'https://open.spotify.com/track/7FHswZNIRuGrq58FLFvZsU'
p5132
sg6
S'Non Stop'
p5133
ssS'73DlvCZW8NMiwFejRFOmVZ'
p5134
(dp5135
g3
S'Ismo'
p5136
sg4
I1
sg5
S'https://open.spotify.com/track/73DlvCZW8NMiwFejRFOmVZ'
p5137
sg6
S'Niet Door Jou'
p5138
ssS'4rC3EwpXpCxzPvBG7dJUSe'
p5139
(dp5140
g3
S'Ronnie Flex'
p5141
sg4
I4
sg5
S'https://open.spotify.com/track/4rC3EwpXpCxzPvBG7dJUSe'
p5142
sg6
S'Spook'
p5143
ssS'69X5gWMpn3GpmfAg9hpQXJ'
p5144
(dp5145
g3
S'Sam Feldt'
p5146
sg4
I5
sg5
S'https://open.spotify.com/track/69X5gWMpn3GpmfAg9hpQXJ'
p5147
sg6
S'Summer on You'
p5148
ssS'3hB5DgAiMAQ4DzYbsMq1IT'
p5149
(dp5150
g3
S'Justin Bieber'
p5151
sg4
I20
sg5
S'https://open.spotify.com/track/3hB5DgAiMAQ4DzYbsMq1IT'
p5152
sg6
S'Love Yourself'
p5153
ssS'1foCxQtxBweJtZmdxhEHVO'
p5154
(dp5155
g3
S'Eartha Kitt'
p5156
sg4
I1
sg5
S'https://open.spotify.com/track/1foCxQtxBweJtZmdxhEHVO'
p5157
sg6
S'Santa Baby'
p5158
ssS'32OWobmyAz8J2qA8iWekyS'
p5159
(dp5160
g3
S'Justin Bieber'
p5161
sg4
I1
sg5
S'https://open.spotify.com/track/32OWobmyAz8J2qA8iWekyS'
p5162
sg6
S'Mistletoe'
p5163
ssS'6XOYVSmNDjKUNMXooU4s4z'
p5164
(dp5165
g3
S'OneRepublic'
p5166
sg4
I15
sg5
S'https://open.spotify.com/track/6XOYVSmNDjKUNMXooU4s4z'
p5167
sg6
S'No Vacancy'
p5168
ssS'2r1aFwiRuXQaRXYyGF2Uha'
p5169
(dp5170
g3
S'Sevn Alias'
p5171
sg4
I1
sg5
S'https://open.spotify.com/track/2r1aFwiRuXQaRXYyGF2Uha'
p5172
sg6
S'Flu & Tip'
p5173
ssS'2727HLkoqfBJACwCTl4F21'
p5174
(dp5175
g3
S'Latifah'
p5176
sg4
I1
sg5
S'https://open.spotify.com/track/2727HLkoqfBJACwCTl4F21'
p5177
sg6
S'Twijfels'
p5178
ssS'3Ne28H1H8Q6sSoFIedqZsK'
p5179
(dp5180
g3
S'ChildsPlay'
p5181
sg4
I2
sg5
S'https://open.spotify.com/track/3Ne28H1H8Q6sSoFIedqZsK'
p5182
sg6
S'Puta (feat. 3robi)'
p5183
ssS'7zFa37tBPunbIwhfdoVOzF'
p5184
(dp5185
g3
S'Killer Kamal'
p5186
sg4
I10
sg5
S'https://open.spotify.com/track/7zFa37tBPunbIwhfdoVOzF'
p5187
sg6
S'Hier'
p5188
ssS'3bidbhpOYeV4knp8AIu8Xn'
p5189
(dp5190
g3
S'Macklemore & Ryan Lewis'
p5191
sg4
I9
sg5
S'https://open.spotify.com/track/3bidbhpOYeV4knp8AIu8Xn'
p5192
sg6
S"Can't Hold Us - feat. Ray Dalton"
p5193
ssS'0xG0SHshCStMEyNbNC5d4k'
p5194
(dp5195
g3
S'Julia Michaels'
p5196
sg4
I9
sg5
S'https://open.spotify.com/track/0xG0SHshCStMEyNbNC5d4k'
p5197
sg6
S'Issues'
p5198
ssS'3azwEO4BCBfo2zCiMd10Wo'
p5199
(dp5200
g3
S'Sjaak'
p5201
sg4
I2
sg5
S'https://open.spotify.com/track/3azwEO4BCBfo2zCiMd10Wo'
p5202
sg6
S'Mdma (feat. Louivos & 3robi)'
p5203
ssS'6PGoSes0D9eUDeeAafB2As'
p5204
(dp5205
g3
S'Kendrick Lamar'
p5206
sg4
I5
sg5
S'https://open.spotify.com/track/6PGoSes0D9eUDeeAafB2As'
p5207
sg6
S'LOVE. FEAT. ZACARI.'
p5208
ssS'4oUfwAQJZGPufJHHzUNByB'
p5209
(dp5210
g3
S'ABBA'
p5211
sg4
I1
sg5
S'https://open.spotify.com/track/4oUfwAQJZGPufJHHzUNByB'
p5212
sg6
S'Happy New Year'
p5213
ssS'48mAQMswntFvcdBw7DSaHq'
p5214
(dp5215
g3
S'Ares'
p5216
sg4
I1
sg5
S'https://open.spotify.com/track/48mAQMswntFvcdBw7DSaHq'
p5217
sg6
S'Op Die Rap'
p5218
ssS'3F6whybjFrbMYRUvyZF60a'
p5219
(dp5220
g3
S'Boef'
p5221
sg4
I9
sg5
S'https://open.spotify.com/track/3F6whybjFrbMYRUvyZF60a'
p5222
sg6
S'Kangoeroe'
p5223
ss.