(dp0
S'0mel2N9Ws9r4yLQn5QE21Y'
p1
(dp2
S'artistName'
p3
S'Sam Smith'
p4
sS'weeksOnChart'
p5
I5
sS'track_href'
p6
S'https://open.spotify.com/track/0mel2N9Ws9r4yLQn5QE21Y'
p7
sS'songName'
p8
S'Too Good At Goodbyes'
p9
ssS'37vqCDZ6g5pZ5gqDS90MDP'
p10
(dp11
g3
S'Arcangel'
p12
sg5
I13
sg6
S'https://open.spotify.com/track/37vqCDZ6g5pZ5gqDS90MDP'
p13
sg8
S'M\xc3\xa1s Que Ayer'
p14
ssS'58EQDn2K9Gyj68YIckOLrN'
p15
(dp16
g3
S'Reykon'
p17
sg5
I10
sg6
S'https://open.spotify.com/track/58EQDn2K9Gyj68YIckOLrN'
p18
sg8
S'El Chisme (feat. J Alvarez & Kevin Roldan) - Remix'
p19
ssS'7cvw9YXDn35Ra6xCrIqVNZ'
p20
(dp21
g3
S'Luis Fonsi'
p22
sg5
I1
sg6
S'https://open.spotify.com/track/7cvw9YXDn35Ra6xCrIqVNZ'
p23
sg8
S'Llegaste T\xc3\xba'
p24
ssS'3dqBmUFihufaWii7TGLXyE'
p25
(dp26
g3
S'Franco El Gorilla'
p27
sg5
I4
sg6
S'https://open.spotify.com/track/3dqBmUFihufaWii7TGLXyE'
p28
sg8
S'Bailen (Remix)'
p29
ssS'6HUnnBwYZqcED1eQztxMBN'
p30
(dp31
g3
S'Martin Jensen'
p32
sg5
I14
sg6
S'https://open.spotify.com/track/6HUnnBwYZqcED1eQztxMBN'
p33
sg8
S'Solo Dance'
p34
ssS'0fvke3Xize2XpVUDoZbtyW'
p35
(dp36
g3
S'Camila Gallardo'
p37
sg5
I31
sg6
S'https://open.spotify.com/track/0fvke3Xize2XpVUDoZbtyW'
p38
sg8
S'M\xc3\xa1s De La Mitad'
p39
ssS'0Q8uS8c6cXBO03cyQcv3Xn'
p40
(dp41
g3
S'Hugo Lagos'
p42
sg5
I1
sg6
S'https://open.spotify.com/track/0Q8uS8c6cXBO03cyQcv3Xn'
p43
sg8
S'El Guat\xc3\xb3n Loyola'
p44
ssS'7wGoVu4Dady5GV0Sv4UIsx'
p45
(dp46
g3
S'Post Malone'
p47
sg5
I1
sg6
S'https://open.spotify.com/track/7wGoVu4Dady5GV0Sv4UIsx'
p48
sg8
S'rockstar'
p49
ssS'2TPZomzhdB7toV3cx0hj08'
p50
(dp51
g3
S'Mon Laferte'
p52
sg5
I1
sg6
S'https://open.spotify.com/track/2TPZomzhdB7toV3cx0hj08'
p53
sg8
S'Pa\xe2\x80\x99 D\xc3\xb3nde Se Fue'
p54
ssS'2r9homVqy3ntb7iOoROL88'
p55
(dp56
g3
S'Gepe'
p57
sg5
I2
sg6
S'https://open.spotify.com/track/2r9homVqy3ntb7iOoROL88'
p58
sg8
S'TKM'
p59
ssS'4OZEu0Vwq0RB2LAq14v99n'
p60
(dp61
g3
S'DJ Snake'
p62
sg5
I9
sg6
S'https://open.spotify.com/track/4OZEu0Vwq0RB2LAq14v99n'
p63
sg8
S'Middle'
p64
ssS'1RwoXmQ3RvIdfG8bLeX65g'
p65
(dp66
g3
S'Mario Bautista'
p67
sg5
I3
sg6
S'https://open.spotify.com/track/1RwoXmQ3RvIdfG8bLeX65g'
p68
sg8
S'No Digas Nada'
p69
ssS'3HMYsT5mnqQ57tVjvqlETb'
p70
(dp71
g3
S'Mon Laferte'
p72
sg5
I1
sg6
S'https://open.spotify.com/track/3HMYsT5mnqQ57tVjvqlETb'
p73
sg8
S'Flaco'
p74
ssS'70lnL3QaSOIIyMa2X9aVRL'
p75
(dp76
g3
S'Shakira'
p77
sg5
I19
sg6
S'https://open.spotify.com/track/70lnL3QaSOIIyMa2X9aVRL'
p78
sg8
S'Perro Fiel'
p79
ssS'46HdsiK0uR26B2dY9QPzda'
p80
(dp81
g3
S'Prince Royce'
p82
sg5
I30
sg6
S'https://open.spotify.com/track/46HdsiK0uR26B2dY9QPzda'
p83
sg8
S'Deja vu'
p84
ssS'17nOaHsTn06jxuU9NpHuFU'
p85
(dp86
g3
S'Bad Bunny'
p87
sg5
I38
sg6
S'https://open.spotify.com/track/17nOaHsTn06jxuU9NpHuFU'
p88
sg8
S'Pa Ti'
p89
ssS'2bdD0eYH8XirjVAXq68JAN'
p90
(dp91
g3
S'Yandel'
p92
sg5
I17
sg6
S'https://open.spotify.com/track/2bdD0eYH8XirjVAXq68JAN'
p93
sg8
S'Mi Religi\xc3\xb3n'
p94
ssS'2bJvI42r8EF3wxjOuDav4r'
p95
(dp96
g3
S'Pitbull'
p97
sg5
I2
sg6
S'https://open.spotify.com/track/2bJvI42r8EF3wxjOuDav4r'
p98
sg8
S'Time of Our Lives'
p99
ssS'7tr2za8SQg2CI8EDgrdtNl'
p100
(dp101
g3
S'Calvin Harris'
p102
sg5
I19
sg6
S'https://open.spotify.com/track/7tr2za8SQg2CI8EDgrdtNl'
p103
sg8
S'Slide'
p104
ssS'6IGab4crwh7isfovdM1joQ'
p105
(dp106
g3
S'Banda El Recodo'
p107
sg5
I19
sg6
S'https://open.spotify.com/track/6IGab4crwh7isfovdM1joQ'
p108
sg8
S'Las Fresas - Version Urban'
p109
ssS'7cIkMEpDhT7Vpw1FHOQqKC'
p110
(dp111
g3
S'Justin Quiles'
p112
sg5
I6
sg6
S'https://open.spotify.com/track/7cIkMEpDhT7Vpw1FHOQqKC'
p113
sg8
S'Si Ella Quisiera'
p114
ssS'4G2Hbfwvn3oH7LxxPXjjGn'
p115
(dp116
g3
S'Bruno Mars'
p117
sg5
I1
sg6
S'https://open.spotify.com/track/4G2Hbfwvn3oH7LxxPXjjGn'
p118
sg8
S'Treasure'
p119
ssS'1TxgZRcy3kZ7JaEp88MDbC'
p120
(dp121
g3
S'CNCO'
p122
sg5
I16
sg6
S'https://open.spotify.com/track/1TxgZRcy3kZ7JaEp88MDbC'
p123
sg8
S'Tan F\xc3\xa1cil'
p124
ssS'7kzKAuUzOITUauHAhoMoxA'
p125
(dp126
g3
S'The Strokes'
p127
sg5
I1
sg6
S'https://open.spotify.com/track/7kzKAuUzOITUauHAhoMoxA'
p128
sg8
S'Last Nite'
p129
ssS'20ZAJdsKB5IGbGj4ilRt2o'
p130
(dp131
g3
S'Ozuna'
p132
sg5
I34
sg6
S'https://open.spotify.com/track/20ZAJdsKB5IGbGj4ilRt2o'
p133
sg8
S'Dile Que Tu Me Quieres'
p134
ssS'25khomWgBVamSdKw7hzm3l'
p135
(dp136
g3
S'The Weeknd'
p137
sg5
I2
sg6
S'https://open.spotify.com/track/25khomWgBVamSdKw7hzm3l'
p138
sg8
S'The Hills'
p139
ssS'4pLwZjInHj3SimIyN9SnOz'
p140
(dp141
g3
S'Ariana Grande'
p142
sg5
I35
sg6
S'https://open.spotify.com/track/4pLwZjInHj3SimIyN9SnOz'
p143
sg8
S'Side To Side'
p144
ssS'4qknM1pQz53QOyfDVTjcM9'
p145
(dp146
g3
S'Shakira'
p147
sg5
I26
sg6
S'https://open.spotify.com/track/4qknM1pQz53QOyfDVTjcM9'
p148
sg8
S'Me Enamor\xc3\xa9'
p149
ssS'0OEQGwBfL4b9KX0RwfOiW6'
p150
(dp151
g3
S'Don Omar'
p152
sg5
I10
sg6
S'https://open.spotify.com/track/0OEQGwBfL4b9KX0RwfOiW6'
p153
sg8
S'Encanto'
p154
ssS'4ojwGTehgBRAg52jbFgzJg'
p155
(dp156
g3
S'Mambo Kingz'
p157
sg5
I10
sg6
S'https://open.spotify.com/track/4ojwGTehgBRAg52jbFgzJg'
p158
sg8
S'Me Reclama'
p159
ssS'4BHzQ9C00ceJxfG16AlNWb'
p160
(dp161
g3
S'Adele'
p162
sg5
I4
sg6
S'https://open.spotify.com/track/4BHzQ9C00ceJxfG16AlNWb'
p163
sg8
S'Send My Love (To Your New Lover)'
p164
ssS'10nQ3Pj0o1XotcikgJPVKD'
p165
(dp166
g3
S'Bad Bunny'
p167
sg5
I14
sg6
S'https://open.spotify.com/track/10nQ3Pj0o1XotcikgJPVKD'
p168
sg8
S'Tu No Metes Cabra'
p169
ssS'2RttW7RAu5nOAfq6YFvApB'
p170
(dp171
g3
S'Ed Sheeran'
p172
sg5
I11
sg6
S'https://open.spotify.com/track/2RttW7RAu5nOAfq6YFvApB'
p173
sg8
S'Happier'
p174
ssS'7BEI30TTNhwnkCyNUDmFrr'
p175
(dp176
g3
S'Daddy Yankee'
p177
sg5
I21
sg6
S'https://open.spotify.com/track/7BEI30TTNhwnkCyNUDmFrr'
p178
sg8
S'Hula Hoop'
p179
ssS'3EmmCZoqpWOTY1g2GBwJoR'
p180
(dp181
g3
S'Steve Aoki'
p182
sg5
I20
sg6
S'https://open.spotify.com/track/3EmmCZoqpWOTY1g2GBwJoR'
p183
sg8
S'Just Hold On'
p184
ssS'6Zosz8w6CmdGMZM6p4JlbQ'
p185
(dp186
g3
S'Danny Ocean'
p187
sg5
I2
sg6
S'https://open.spotify.com/track/6Zosz8w6CmdGMZM6p4JlbQ'
p188
sg8
S'Me Reh\xc3\xbaso'
p189
ssS'63RowmYY8kXgCY8KdppOMc'
p190
(dp191
g3
S'El Nene La amenaza'
p192
sg5
I8
sg6
S'https://open.spotify.com/track/63RowmYY8kXgCY8KdppOMc'
p193
sg8
S'Solos (feat. Lary Over)'
p194
ssS'4X3CV9rXo3hQrkb0fzRAux'
p195
(dp196
g3
S'Ozuna'
p197
sg5
I3
sg6
S'https://open.spotify.com/track/4X3CV9rXo3hQrkb0fzRAux'
p198
sg8
S'Ego\xc3\xadsta'
p199
ssS'2bQn1ATsEIWwswbsPpOrp9'
p200
(dp201
g3
S'Los Bunkers'
p202
sg5
I6
sg6
S'https://open.spotify.com/track/2bQn1ATsEIWwswbsPpOrp9'
p203
sg8
S'Llueve Sobre La Ciudad'
p204
ssS'3iDPALl8BoUbuXZgy6EOWY'
p205
(dp206
g3
S'Gigolo Y La Exce'
p207
sg5
I8
sg6
S'https://open.spotify.com/track/3iDPALl8BoUbuXZgy6EOWY'
p208
sg8
S'Sexto Sentido (feat. Bad Bunny)'
p209
ssS'5kRPPEWFJIMox5qIkQkiz5'
p210
(dp211
g3
S'Harry Styles'
p212
sg5
I1
sg6
S'https://open.spotify.com/track/5kRPPEWFJIMox5qIkQkiz5'
p213
sg8
S'Sweet Creature'
p214
ssS'03h8eaVgdJJ14cCKiO4ONX'
p215
(dp216
g3
S'Joey Montana'
p217
sg5
I5
sg6
S'https://open.spotify.com/track/03h8eaVgdJJ14cCKiO4ONX'
p218
sg8
S'Hola'
p219
ssS'30FebxK57vTYaIVJ3qzZ24'
p220
(dp221
g3
S'Hermanos Morales'
p222
sg5
I1
sg6
S'https://open.spotify.com/track/30FebxK57vTYaIVJ3qzZ24'
p223
sg8
S'No Me Mat\xc3\xads Con Acero'
p224
ssS'4xlrALxuaCf9yZBHJeTSG6'
p225
(dp226
g3
S'Jonas Blue'
p227
sg5
I2
sg6
S'https://open.spotify.com/track/4xlrALxuaCf9yZBHJeTSG6'
p228
sg8
S'Mama'
p229
ssS'3RXkboS74UYzN14xTqzPyY'
p230
(dp231
g3
S''
p232
sg5
I1
sg6
S'https://open.spotify.com/track/3RXkboS74UYzN14xTqzPyY'
p233
sg8
g232
ssS'0fm7fJ4aZv6Wx0klIcyXPz'
p234
(dp235
g3
S'Juan Mag\xc3\xa1n'
p236
sg5
I2
sg6
S'https://open.spotify.com/track/0fm7fJ4aZv6Wx0klIcyXPz'
p237
sg8
S'Quiero Que Sepas'
p238
ssS'7FfpP3YZ6fOWMdxkIAtud9'
p239
(dp240
g3
S'Farruko'
p241
sg5
I4
sg6
S'https://open.spotify.com/track/7FfpP3YZ6fOWMdxkIAtud9'
p242
sg8
S'Krippy Kush'
p243
ssS'0mErnrwJUNEMq6X5bu2I0u'
p244
(dp245
g3
S'Noche de Brujas'
p246
sg5
I3
sg6
S'https://open.spotify.com/track/0mErnrwJUNEMq6X5bu2I0u'
p247
sg8
S'Deberia odiarte'
p248
ssS'6pL9DRZGc6WZ0Zto2VmHoQ'
p249
(dp250
g3
S'Hermanos Morales'
p251
sg5
I1
sg6
S'https://open.spotify.com/track/6pL9DRZGc6WZ0Zto2VmHoQ'
p252
sg8
S'Yo V\xc3\xad una Chiquilla Linda'
p253
ssS'2oKjjRzItVu8JZScrpzFTx'
p254
(dp255
g3
S'Pablo Albor\xc3\xa1n'
p256
sg5
I3
sg6
S'https://open.spotify.com/track/2oKjjRzItVu8JZScrpzFTx'
p257
sg8
S'Saturno'
p258
ssS'3pzjHKrQSvXGHQ98dx18HI'
p259
(dp260
g3
S'Justin Bieber'
p261
sg5
I5
sg6
S'https://open.spotify.com/track/3pzjHKrQSvXGHQ98dx18HI'
p262
sg8
S'What Do You Mean?'
p263
ssS'000xQL6tZNLJzIrtIgxqSl'
p264
(dp265
g3
S'ZAYN'
p266
sg5
I10
sg6
S'https://open.spotify.com/track/000xQL6tZNLJzIrtIgxqSl'
p267
sg8
S'Still Got Time'
p268
ssS'2FBUoWkIuQXwayw2RNo5l6'
p269
(dp270
g3
S'Drake'
p271
sg5
I1
sg6
S'https://open.spotify.com/track/2FBUoWkIuQXwayw2RNo5l6'
p272
sg8
S'Hotline Bling'
p273
ssS'1D3ODoXHBLpdxolZRHWV1j'
p274
(dp275
g3
S'Jonas Blue'
p276
sg5
I10
sg6
S'https://open.spotify.com/track/1D3ODoXHBLpdxolZRHWV1j'
p277
sg8
S'By Your Side'
p278
ssS'09QOedW1xozFDsXUI7jTeV'
p279
(dp280
g3
S'Ozuna'
p281
sg5
I12
sg6
S'https://open.spotify.com/track/09QOedW1xozFDsXUI7jTeV'
p282
sg8
S'Dile Que Tu Me Quieres Remix (feat. Yandel)'
p283
ssS'3rPSxRexVxok0rDH9laGgU'
p284
(dp285
g3
S'Roberto Parra'
p286
sg5
I1
sg6
S'https://open.spotify.com/track/3rPSxRexVxok0rDH9laGgU'
p287
sg8
S'Quisiera Ser Como el Perro'
p288
ssS'4QsPTKvdpgkA7mBAvclZTa'
p289
(dp290
g3
S'Maluma'
p291
sg5
I17
sg6
S'https://open.spotify.com/track/4QsPTKvdpgkA7mBAvclZTa'
p292
sg8
S'El Perdedor - The Remix'
p293
ssS'0Dou2nphs2oZYr7uOcW1YI'
p294
(dp295
g3
S'Justin Quiles'
p296
sg5
I1
sg6
S'https://open.spotify.com/track/0Dou2nphs2oZYr7uOcW1YI'
p297
sg8
S'Ropa Interior'
p298
ssS'4yN6xPLopmTLvc27pO9LIE'
p299
(dp300
g3
S'Nicky Jam'
p301
sg5
I35
sg6
S'https://open.spotify.com/track/4yN6xPLopmTLvc27pO9LIE'
p302
sg8
S'Si T\xc3\xba La Ves'
p303
ssS'5CtI0qwDJkDQGwXD1H1cLb'
p304
(dp305
g3
S'Luis Fonsi'
p306
sg5
I25
sg6
S'https://open.spotify.com/track/5CtI0qwDJkDQGwXD1H1cLb'
p307
sg8
S'Despacito - Remix'
p308
ssS'07YFRv1Rj2iTtA7NY3CTcY'
p309
(dp310
g3
S'Zion & Lennox'
p311
sg5
I8
sg6
S'https://open.spotify.com/track/07YFRv1Rj2iTtA7NY3CTcY'
p312
sg8
S'Embri\xc3\xa1game'
p313
ssS'0Vraj7GwMmIXN6pmBygwJE'
p314
(dp315
g3
S'Margot Loyola'
p316
sg5
I1
sg6
S'https://open.spotify.com/track/0Vraj7GwMmIXN6pmBygwJE'
p317
sg8
S'Estando Con Llave el Pecho'
p318
ssS'2Bco9w5AQOGxxM6zWsjE9d'
p319
(dp320
g3
S'Roberto Parra'
p321
sg5
I1
sg6
S'https://open.spotify.com/track/2Bco9w5AQOGxxM6zWsjE9d'
p322
sg8
S'Sin Pasaporte'
p323
ssS'1PGENMzwUy16wlpZiuLS65'
p324
(dp325
g3
S'Karol G'
p326
sg5
I8
sg6
S'https://open.spotify.com/track/1PGENMzwUy16wlpZiuLS65'
p327
sg8
S'Hello'
p328
ssS'3WM3XDNCzEsLvtp59D9oF7'
p329
(dp330
g3
S'Yandel'
p331
sg5
I3
sg6
S'https://open.spotify.com/track/3WM3XDNCzEsLvtp59D9oF7'
p332
sg8
S'S\xc3\xb3lo M\xc3\xada'
p333
ssS'7LABrQFfRYcZUqUwng0Heb'
p334
(dp335
g3
S'Yandel'
p336
sg5
I9
sg6
S'https://open.spotify.com/track/7LABrQFfRYcZUqUwng0Heb'
p337
sg8
S'Encantadora'
p338
ssS'0zCfmceT1YvtZXGbR6Roht'
p339
(dp340
g3
S'La La Land Cast'
p341
sg5
I1
sg6
S'https://open.spotify.com/track/0zCfmceT1YvtZXGbR6Roht'
p342
sg8
S'Another Day Of Sun - From La La Land Soundtrack'
p343
ssS'1a5Yu5L18qNxVhXx38njON'
p344
(dp345
g3
S'Alok'
p346
sg5
I21
sg6
S'https://open.spotify.com/track/1a5Yu5L18qNxVhXx38njON'
p347
sg8
S'Hear Me Now'
p348
ssS'1Eck97uRMlprKOOJN9oO1E'
p349
(dp350
g3
S'G-Eazy'
p351
sg5
I1
sg6
S'https://open.spotify.com/track/1Eck97uRMlprKOOJN9oO1E'
p352
sg8
S'Good Life (with G-Eazy & Kehlani)'
p353
ssS'6IoKSUyNOOheJRjiuGb1ew'
p354
(dp355
g3
S'Anuel Aa'
p356
sg5
I21
sg6
S'https://open.spotify.com/track/6IoKSUyNOOheJRjiuGb1ew'
p357
sg8
S'47 - Remix'
p358
ssS'2ekn2ttSfGqwhhate0LSR0'
p359
(dp360
g3
S'Dua Lipa'
p361
sg5
I13
sg6
S'https://open.spotify.com/track/2ekn2ttSfGqwhhate0LSR0'
p362
sg8
S'New Rules'
p363
ssS'1sCxVKWImDZSZKvG0U9B23'
p364
(dp365
g3
S'Selena Gomez'
p366
sg5
I14
sg6
S'https://open.spotify.com/track/1sCxVKWImDZSZKvG0U9B23'
p367
sg8
S'Bad Liar'
p368
ssS'5QP6YGB7MuVAZBuWKjRLZZ'
p369
(dp370
g3
S'Plan B'
p371
sg5
I3
sg6
S'https://open.spotify.com/track/5QP6YGB7MuVAZBuWKjRLZZ'
p372
sg8
S'Te Acuerdas de M\xc3\xad'
p373
ssS'4aCk50WpvliyFaoRlOe8IM'
p374
(dp375
g3
S'Justin Quiles'
p376
sg5
I2
sg6
S'https://open.spotify.com/track/4aCk50WpvliyFaoRlOe8IM'
p377
sg8
S'Si El Mundo Se Acabara'
p378
ssS'00i0O74dXdaKKdCrqHnfXm'
p379
(dp380
g3
S'Ricky Martin'
p381
sg5
I2
sg6
S'https://open.spotify.com/track/00i0O74dXdaKKdCrqHnfXm'
p382
sg8
S'La Mordidita'
p383
ssS'4vlbjBSMqycZk6t4HVRpnC'
p384
(dp385
g3
S'Ozuna'
p386
sg5
I34
sg6
S'https://open.spotify.com/track/4vlbjBSMqycZk6t4HVRpnC'
p387
sg8
S'No Quiere Enamorarse (Remix) [feat. Daddy Yankee]'
p388
ssS'1RBY0rTVoWMVb3eCTbTSjP'
p389
(dp390
g3
S'Bryant Myers'
p391
sg5
I4
sg6
S'https://open.spotify.com/track/1RBY0rTVoWMVb3eCTbTSjP'
p392
sg8
S'Por Qu\xc3\xa9 Sigues Con \xc3\x89l - Remix'
p393
ssS'3dQDid3IUNhZy1OehIfYfE'
p394
(dp395
g3
S'Wisin'
p396
sg5
I41
sg6
S'https://open.spotify.com/track/3dQDid3IUNhZy1OehIfYfE'
p397
sg8
S'Vacaciones'
p398
ssS'6KlXck7BXcrrHzQVTWPrD3'
p399
(dp400
g3
S'La Otra Fe'
p401
sg5
I1
sg6
S'https://open.spotify.com/track/6KlXck7BXcrrHzQVTWPrD3'
p402
sg8
S'Desde Hoy'
p403
ssS'5X7NqQxR12uvV8Kqz4SsJl'
p404
(dp405
g3
S'Roberto Parra'
p406
sg5
I1
sg6
S'https://open.spotify.com/track/5X7NqQxR12uvV8Kqz4SsJl'
p407
sg8
S'La Ronda'
p408
ssS'4SrcC7RYF496LSwl0XKdi1'
p409
(dp410
g3
S'Alexis & Fido'
p411
sg5
I4
sg6
S'https://open.spotify.com/track/4SrcC7RYF496LSwl0XKdi1'
p412
sg8
S'Una en un Mill\xc3\xb3n'
p413
ssS'1VRjHqcE8ttKtaj8bTaJyS'
p414
(dp415
g3
S'Franco El Gorilla'
p416
sg5
I27
sg6
S'https://open.spotify.com/track/1VRjHqcE8ttKtaj8bTaJyS'
p417
sg8
S'De Vez en Cuando'
p418
ssS'3tWeAH4IYIrxV2jrUk9Ab3'
p419
(dp420
g3
S'J Alvarez'
p421
sg5
I20
sg6
S'https://open.spotify.com/track/3tWeAH4IYIrxV2jrUk9Ab3'
p422
sg8
S'Esa Boquita'
p423
ssS'4mRWozL9txF3MlTqyEbroN'
p424
(dp425
g3
S'Mon Laferte'
p426
sg5
I1
sg6
S'https://open.spotify.com/track/4mRWozL9txF3MlTqyEbroN'
p427
sg8
S'Ana'
p428
ssS'1rIKgCH4H52lrvDcz50hS8'
p429
(dp430
g3
S'Zara Larsson'
p431
sg5
I3
sg6
S'https://open.spotify.com/track/1rIKgCH4H52lrvDcz50hS8'
p432
sg8
S'Lush Life'
p433
ssS'3n58u3LOFw8mITLvfPvQBz'
p434
(dp435
g3
S'Cosculluela'
p436
sg5
I33
sg6
S'https://open.spotify.com/track/3n58u3LOFw8mITLvfPvQBz'
p437
sg8
S'Manicomio'
p438
ssS'2aFiaMXmWsM3Vj72F9ksBl'
p439
(dp440
g3
S'DNCE'
p441
sg5
I22
sg6
S'https://open.spotify.com/track/2aFiaMXmWsM3Vj72F9ksBl'
p442
sg8
S'Cake By The Ocean'
p443
ssS'7vGuf3Y35N4wmASOKLUVVU'
p444
(dp445
g3
S'Marshmello'
p446
sg5
I7
sg6
S'https://open.spotify.com/track/7vGuf3Y35N4wmASOKLUVVU'
p447
sg8
S'Silence'
p448
ssS'10Tf0pmDJDUIfzZf87kwt5'
p449
(dp450
g3
S'Mon Laferte'
p451
sg5
I1
sg6
S'https://open.spotify.com/track/10Tf0pmDJDUIfzZf87kwt5'
p452
sg8
S'La Trenza'
p453
ssS'5hEM0JchdVzQ5PwvSfITeX'
p454
(dp455
g3
S'Piso 21'
p456
sg5
I41
sg6
S'https://open.spotify.com/track/5hEM0JchdVzQ5PwvSfITeX'
p457
sg8
S'Me Llamas (feat. Maluma) - Remix'
p458
ssS'0zsbeQtP0KZ9hXabeCHqo2'
p459
(dp460
g3
S'Noche de Brujas'
p461
sg5
I2
sg6
S'https://open.spotify.com/track/0zsbeQtP0KZ9hXabeCHqo2'
p462
sg8
S'Oyeme'
p463
ssS'7129iqBafaphfc3WPCGC0L'
p464
(dp465
g3
S'Lukas Graham'
p466
sg5
I3
sg6
S'https://open.spotify.com/track/7129iqBafaphfc3WPCGC0L'
p467
sg8
S'7 Years'
p468
ssS'4WjH9Bzt3kx7z8kl0awxh4'
p469
(dp470
g3
S'Major Lazer'
p471
sg5
I18
sg6
S'https://open.spotify.com/track/4WjH9Bzt3kx7z8kl0awxh4'
p472
sg8
S'Lean On (feat. M\xc3\x98 & DJ Snake)'
p473
ssS'57p8CBvPOxrvyCbn6ttl5r'
p474
(dp475
g3
S'Skrillex'
p476
sg5
I5
sg6
S'https://open.spotify.com/track/57p8CBvPOxrvyCbn6ttl5r'
p477
sg8
S'Would You Ever'
p478
ssS'2HNBSacyB6jm04n9dX2Mse'
p479
(dp480
g3
S'Marama'
p481
sg5
I3
sg6
S'https://open.spotify.com/track/2HNBSacyB6jm04n9dX2Mse'
p482
sg8
S'La Quiero Conocer'
p483
ssS'0CcQNd8CINkwQfe1RDtGV6'
p484
(dp485
g3
S'Imagine Dragons'
p486
sg5
I30
sg6
S'https://open.spotify.com/track/0CcQNd8CINkwQfe1RDtGV6'
p487
sg8
S'Believer'
p488
ssS'7oolFzHipTMg2nL7shhdz2'
p489
(dp490
g3
S'Ed Sheeran'
p491
sg5
I1
sg6
S'https://open.spotify.com/track/7oolFzHipTMg2nL7shhdz2'
p492
sg8
S'Eraser'
p493
ssS'1ei3g2hMYh1VKvik9FoUQR'
p494
(dp495
g3
S'Yandel'
p496
sg5
I5
sg6
S'https://open.spotify.com/track/1ei3g2hMYh1VKvik9FoUQR'
p497
sg8
S'S\xc3\xb3lo M\xc3\xada'
p498
ssS'7fURZRPkB2S70sYR1naKTK'
p499
(dp500
g3
S'Soundgarden'
p501
sg5
I1
sg6
S'https://open.spotify.com/track/7fURZRPkB2S70sYR1naKTK'
p502
sg8
S'Black Hole Sun'
p503
ssS'0ERbK7qVqveCaBWIiYCrl3'
p504
(dp505
g3
S'Romeo Santos'
p506
sg5
I12
sg6
S'https://open.spotify.com/track/0ERbK7qVqveCaBWIiYCrl3'
p507
sg8
S'Bella y Sensual'
p508
ssS'3NdDpSvN911VPGivFlV5d0'
p509
(dp510
g3
S'ZAYN'
p511
sg5
I36
sg6
S'https://open.spotify.com/track/3NdDpSvN911VPGivFlV5d0'
p512
sg8
S'I Don\xe2\x80\x99t Wanna Live Forever (Fifty Shades Darker) - From Fifty Shades Darker (Original Motion Picture Soundtrack)'
p513
ssS'1iRvhKiXRElIH2Uf4gd95P'
p514
(dp515
g3
S'Jesse & Joy'
p516
sg5
I40
sg6
S'https://open.spotify.com/track/1iRvhKiXRElIH2Uf4gd95P'
p517
sg8
S'Dueles'
p518
ssS'2HDacpEddhWjYTcADPIEQL'
p519
(dp520
g3
S'Yandel'
p521
sg5
I1
sg6
S'https://open.spotify.com/track/2HDacpEddhWjYTcADPIEQL'
p522
sg8
S'No Pare'
p523
ssS'52qoCyKY9YVQtOYxn5WpbU'
p524
(dp525
g3
S'Los Del Rio'
p526
sg5
I7
sg6
S'https://open.spotify.com/track/52qoCyKY9YVQtOYxn5WpbU'
p527
sg8
S'M\xc3\xa1s Macarena'
p528
ssS'1EK5Sm4E09P1lcdyKsygoV'
p529
(dp530
g3
S'Rombai'
p531
sg5
I6
sg6
S'https://open.spotify.com/track/1EK5Sm4E09P1lcdyKsygoV'
p532
sg8
S'Yo tambien'
p533
ssS'2eMwDehkIC1j68U6FA3Eiq'
p534
(dp535
g3
S'Lil Uzi Vert'
p536
sg5
I4
sg6
S'https://open.spotify.com/track/2eMwDehkIC1j68U6FA3Eiq'
p537
sg8
S'XO TOUR Llif3'
p538
ssS'0Nhu3zSYbEz32IYiobV75e'
p539
(dp540
g3
S'Halsey'
p541
sg5
I3
sg6
S'https://open.spotify.com/track/0Nhu3zSYbEz32IYiobV75e'
p542
sg8
S'Now Or Never'
p543
ssS'6Na5uKk5SsqZimk0hAWo8y'
p544
(dp545
g3
S'Drake'
p546
sg5
I1
sg6
S'https://open.spotify.com/track/6Na5uKk5SsqZimk0hAWo8y'
p547
sg8
S'Signs'
p548
ssS'3CRDbSIZ4r5MsZ0YwxuEkn'
p549
(dp550
g3
S'Twenty One Pilots'
p551
sg5
I34
sg6
S'https://open.spotify.com/track/3CRDbSIZ4r5MsZ0YwxuEkn'
p552
sg8
S'Stressed Out'
p553
ssS'6mICuAdrwEjh6Y6lroV2Kg'
p554
(dp555
g3
S'Shakira'
p556
sg5
I41
sg6
S'https://open.spotify.com/track/6mICuAdrwEjh6Y6lroV2Kg'
p557
sg8
S'Chantaje'
p558
ssS'02IJFWVjLSM811RsySQusA'
p559
(dp560
g3
S'Melendi'
p561
sg5
I2
sg6
S'https://open.spotify.com/track/02IJFWVjLSM811RsySQusA'
p562
sg8
S'Destino o Casualidad'
p563
ssS'5MarqoT4wE5uNITGuEZams'
p564
(dp565
g3
S'Villa Cari\xc3\xb1o'
p566
sg5
I38
sg6
S'https://open.spotify.com/track/5MarqoT4wE5uNITGuEZams'
p567
sg8
S'Para dormir contigo otra vez'
p568
ssS'2eKBklE5CLx5g7XXSXpj3o'
p569
(dp570
g3
S'Anuel Aa'
p571
sg5
I4
sg6
S'https://open.spotify.com/track/2eKBklE5CLx5g7XXSXpj3o'
p572
sg8
S'Nacimos Para Morir (feat. Joryboy)'
p573
ssS'0s6yB0ZFl1LvYHAnGhXFga'
p574
(dp575
g3
S'Alejandro Sanz'
p576
sg5
I16
sg6
S'https://open.spotify.com/track/0s6yB0ZFl1LvYHAnGhXFga'
p577
sg8
S'Deja Que Te Bese'
p578
ssS'0kMI9akTTJnC8oogTuy3Sd'
p579
(dp580
g3
S'Denise Rosenthal'
p581
sg5
I4
sg6
S'https://open.spotify.com/track/0kMI9akTTJnC8oogTuy3Sd'
p582
sg8
S'Cambio De Piel'
p583
ssS'2CsFJYtN6kbVTgOMFRzoii'
p584
(dp585
g3
S'Mon Laferte'
p586
sg5
I3
sg6
S'https://open.spotify.com/track/2CsFJYtN6kbVTgOMFRzoii'
p587
sg8
S'Orgasmo para Dos'
p588
ssS'668oOKqQPe1K4jEuSWdze1'
p589
(dp590
g3
S'Roberto Parra'
p591
sg5
I1
sg6
S'https://open.spotify.com/track/668oOKqQPe1K4jEuSWdze1'
p592
sg8
S'La Perra Con el Perro'
p593
ssS'1gT7zcCS8QeoqwrOawJHlQ'
p594
(dp595
g3
S'Roberto Parra'
p596
sg5
I1
sg6
S'https://open.spotify.com/track/1gT7zcCS8QeoqwrOawJHlQ'
p597
sg8
S'El Cabritilla'
p598
ssS'7JNh1cfm0eXjqFVOzKLyau'
p599
(dp600
g3
S'Becky G'
p601
sg5
I13
sg6
S'https://open.spotify.com/track/7JNh1cfm0eXjqFVOzKLyau'
p602
sg8
S'Mayores'
p603
ssS'0fg8CqpjdojMyXLNzM2PaJ'
p604
(dp605
g3
S'Major Lazer'
p606
sg5
I15
sg6
S'https://open.spotify.com/track/0fg8CqpjdojMyXLNzM2PaJ'
p607
sg8
S'Run Up (feat. PARTYNEXTDOOR & Nicki Minaj)'
p608
ssS'3noN1TxpjbjjmKqssghvg8'
p609
(dp610
g3
S'Cosculluela'
p611
sg5
I33
sg6
S'https://open.spotify.com/track/3noN1TxpjbjjmKqssghvg8'
p612
sg8
S'Si Me Dices Que Si (feat. Nicky Jam)'
p613
ssS'4QYQgJhBryglC2hEpVGrZU'
p614
(dp615
g3
S'Noriel'
p616
sg5
I2
sg6
S'https://open.spotify.com/track/4QYQgJhBryglC2hEpVGrZU'
p617
sg8
S'Desperte Sin Ti (Remix)'
p618
ssS'3umS4y3uQDkqekNjVpiRUs'
p619
(dp620
g3
S'Nicky Jam'
p621
sg5
I38
sg6
S'https://open.spotify.com/track/3umS4y3uQDkqekNjVpiRUs'
p622
sg8
S'El Amante'
p623
ssS'37sexcbewtWiE8PDuLRFrY'
p624
(dp625
g3
S'Yandel'
p626
sg5
I5
sg6
S'https://open.spotify.com/track/37sexcbewtWiE8PDuLRFrY'
p627
sg8
S'No Quiero Amores'
p628
ssS'6uFsE1JgZ20EXyU0JQZbUR'
p629
(dp630
g3
S'Taylor Swift'
p631
sg5
I7
sg6
S'https://open.spotify.com/track/6uFsE1JgZ20EXyU0JQZbUR'
p632
sg8
S'Look What You Made Me Do'
p633
ssS'1M9gupJZxS3LdK8R6UZfYH'
p634
(dp635
g3
S'DJ Luian'
p636
sg5
I7
sg6
S'https://open.spotify.com/track/1M9gupJZxS3LdK8R6UZfYH'
p637
sg8
S'La Ocasi\xc3\xb3n - Remix'
p638
ssS'6SIrNxmmdbv1KUbFBu1PaN'
p639
(dp640
g3
S'Ozuna'
p641
sg5
I16
sg6
S'https://open.spotify.com/track/6SIrNxmmdbv1KUbFBu1PaN'
p642
sg8
S'Bebe (feat. Anuel AA)'
p643
ssS'6rQSrBHf7HlZjtcMZ4S4bO'
p644
(dp645
g3
S'J Balvin'
p646
sg5
I41
sg6
S'https://open.spotify.com/track/6rQSrBHf7HlZjtcMZ4S4bO'
p647
sg8
S'Safari'
p648
ssS'0L87MffumRNWrY2SNUFcvs'
p649
(dp650
g3
S'Milky Chance'
p651
sg5
I2
sg6
S'https://open.spotify.com/track/0L87MffumRNWrY2SNUFcvs'
p652
sg8
S'Cocoon'
p653
ssS'6ciFFQZcrCwSiUBZvEZrJc'
p654
(dp655
g3
S'Major Lazer'
p656
sg5
I7
sg6
S'https://open.spotify.com/track/6ciFFQZcrCwSiUBZvEZrJc'
p657
sg8
S'Know No Better (feat. Travis Scott & Quavo) - Bad Bunny Remix'
p658
ssS'7GX5flRQZVHRAGd6B4TmDO'
p659
(dp660
g3
S'Lil Uzi Vert'
p661
sg5
I6
sg6
S'https://open.spotify.com/track/7GX5flRQZVHRAGd6B4TmDO'
p662
sg8
S'XO TOUR Llif3'
p663
ssS'4F7A0DXBrmUAkp32uenhZt'
p664
(dp665
g3
S'The Weeknd'
p666
sg5
I1
sg6
S'https://open.spotify.com/track/4F7A0DXBrmUAkp32uenhZt'
p667
sg8
S'Party Monster'
p668
ssS'1fiwHsiitsbudIjFgmzrM4'
p669
(dp670
g3
S'Juan Mag\xc3\xa1n'
p671
sg5
I6
sg6
S'https://open.spotify.com/track/1fiwHsiitsbudIjFgmzrM4'
p672
sg8
S'S\xc3\xadgueme Bailando'
p673
ssS'3WHqVVRvPDWz033iPs04md'
p674
(dp675
g3
S'Enzo Ortiz'
p676
sg5
I1
sg6
S'https://open.spotify.com/track/3WHqVVRvPDWz033iPs04md'
p677
sg8
S'6 AM (Remix)'
p678
ssS'4SvxLMDIfihSN0Ea3IPyDN'
p679
(dp680
g3
S'Tito Fern\xc3\xa1ndez'
p681
sg5
I1
sg6
S'https://open.spotify.com/track/4SvxLMDIfihSN0Ea3IPyDN'
p682
sg8
S'Me Gusta el Vino'
p683
ssS'7k5E6xgvleaaPyHh4goL7K'
p684
(dp685
g3
S'Roberto Parra'
p686
sg5
I1
sg6
S'https://open.spotify.com/track/7k5E6xgvleaaPyHh4goL7K'
p687
sg8
S'El Chute Alberto'
p688
ssS'4z3GJkrtH97Bj6fRta983T'
p689
(dp690
g3
S'Carlos Vives'
p691
sg5
I11
sg6
S'https://open.spotify.com/track/4z3GJkrtH97Bj6fRta983T'
p692
sg8
S'Robarte un Beso'
p693
ssS'6r46lnXFbE9fr2d3KNaGbe'
p694
(dp695
g3
S'Romeo Santos'
p696
sg5
I12
sg6
S'https://open.spotify.com/track/6r46lnXFbE9fr2d3KNaGbe'
p697
sg8
S'Imitadora'
p698
ssS'7BKLCZ1jbUBVqRi2FVlTVw'
p699
(dp700
g3
S'The Chainsmokers'
p701
sg5
I34
sg6
S'https://open.spotify.com/track/7BKLCZ1jbUBVqRi2FVlTVw'
p702
sg8
S'Closer'
p703
ssS'5Jt4zdXTd9y1zxihiNYQI1'
p704
(dp705
g3
S'Farruko'
p706
sg5
I5
sg6
S'https://open.spotify.com/track/5Jt4zdXTd9y1zxihiNYQI1'
p707
sg8
S'Obsesionado'
p708
ssS'7hDc8b7IXETo14hHIHdnhd'
p709
(dp710
g3
S'Drake'
p711
sg5
I16
sg6
S'https://open.spotify.com/track/7hDc8b7IXETo14hHIHdnhd'
p712
sg8
S'Passionfruit'
p713
ssS'2webQDZmtGioeu3zUUi9We'
p714
(dp715
g3
S'Sebastian Yatra'
p716
sg5
I36
sg6
S'https://open.spotify.com/track/2webQDZmtGioeu3zUUi9We'
p717
sg8
S'Traicionera - Remix'
p718
ssS'3RiPr603aXAoi4GHyXx0uy'
p719
(dp720
g3
S'Coldplay'
p721
sg5
I1
sg6
S'https://open.spotify.com/track/3RiPr603aXAoi4GHyXx0uy'
p722
sg8
S'Hymn For The Weekend'
p723
ssS'7IRuf7FrdQvOGs0g9mSNGr'
p724
(dp725
g3
S'Carlos Vives'
p726
sg5
I15
sg6
S'https://open.spotify.com/track/7IRuf7FrdQvOGs0g9mSNGr'
p727
sg8
S'La Bicicleta - Remix'
p728
ssS'0tICYNayWWhH9GPeFrfjfD'
p729
(dp730
g3
S'Kungs'
p731
sg5
I3
sg6
S'https://open.spotify.com/track/0tICYNayWWhH9GPeFrfjfD'
p732
sg8
S"This Girl (Kungs Vs. Cookin' On 3 Burners) - Kungs Vs. Cookin' On 3 Burners"
p733
ssS'0QN1rkBy3D6j9Yw3Czlcsc'
p734
(dp735
g3
S'Leka el Poeta'
p736
sg5
I10
sg6
S'https://open.spotify.com/track/0QN1rkBy3D6j9Yw3Czlcsc'
p737
sg8
S'Ella Quiere Hmm... Haa... Hmm... - Yayo Remix'
p738
ssS'4naiGjUW7VmnkuZBavFc4h'
p739
(dp740
g3
S'Hugo Lagos'
p741
sg5
I1
sg6
S'https://open.spotify.com/track/4naiGjUW7VmnkuZBavFc4h'
p742
sg8
S'Adi\xc3\xb3s Santiago Querido'
p743
ssS'1nO4EGuBjR75IGbFYzqPxO'
p744
(dp745
g3
S'Maluma'
p746
sg5
I1
sg6
S'https://open.spotify.com/track/1nO4EGuBjR75IGbFYzqPxO'
p747
sg8
S'Carnaval'
p748
ssS'2eAAEa8pxKF7My0EO4rFgR'
p749
(dp750
g3
S'Dua Lipa'
p751
sg5
I2
sg6
S'https://open.spotify.com/track/2eAAEa8pxKF7My0EO4rFgR'
p752
sg8
S'Blow Your Mind (Mwah)'
p753
ssS'0PE1dlvMZeBqEbm4BtVVSZ'
p754
(dp755
g3
S'Gente De Zona'
p756
sg5
I21
sg6
S'https://open.spotify.com/track/0PE1dlvMZeBqEbm4BtVVSZ'
p757
sg8
S'Si No Vuelves'
p758
ssS'6puxHBNwu2Nmm7uD3Rd2MP'
p759
(dp760
g3
S'C. Tangana'
p761
sg5
I10
sg6
S'https://open.spotify.com/track/6puxHBNwu2Nmm7uD3Rd2MP'
p762
sg8
S'Mala Mujer'
p763
ssS'3A7qX2QjDlPnazUsRk5y0M'
p764
(dp765
g3
S'David Guetta'
p766
sg5
I16
sg6
S'https://open.spotify.com/track/3A7qX2QjDlPnazUsRk5y0M'
p767
sg8
S'2U (feat. Justin Bieber)'
p768
ssS'198qSChSMQFuSimdeeY9gK'
p769
(dp770
g3
S'Los Fabulosos Cadillacs'
p771
sg5
I1
sg6
S'https://open.spotify.com/track/198qSChSMQFuSimdeeY9gK'
p772
sg8
S'Vasos Vac\xc3\xados - Remasterizado 2008'
p773
ssS'01vHGJRvJ6EZW9KO8NtZpi'
p774
(dp775
g3
S'Maluma'
p776
sg5
I31
sg6
S'https://open.spotify.com/track/01vHGJRvJ6EZW9KO8NtZpi'
p777
sg8
S'Un Polvo'
p778
ssS'5nCtCCB5i1OfbADvynNw0i'
p779
(dp780
g3
S'Ed Sheeran'
p781
sg5
I29
sg6
S'https://open.spotify.com/track/5nCtCCB5i1OfbADvynNw0i'
p782
sg8
S'Shape of You (Latin Remix) [feat. Zion & Lennox]'
p783
ssS'5qqabIl2vWzo9ApSC317sa'
p784
(dp785
g3
S'Oasis'
p786
sg5
I28
sg6
S'https://open.spotify.com/track/5qqabIl2vWzo9ApSC317sa'
p787
sg8
S'Wonderwall - Remastered'
p788
ssS'4IWAyPf1KMq7JCyGeCjTeH'
p789
(dp790
g3
S'Imagine Dragons'
p791
sg5
I1
sg6
S'https://open.spotify.com/track/4IWAyPf1KMq7JCyGeCjTeH'
p792
sg8
S'Whatever It Takes'
p793
ssS'3rnVI6t735qm9swZfL3p6q'
p794
(dp795
g3
S'Mym'
p796
sg5
I11
sg6
S'https://open.spotify.com/track/3rnVI6t735qm9swZfL3p6q'
p797
sg8
S'Adderall'
p798
ssS'7fwXWKdDNI5IutOMc5OKYw'
p799
(dp800
g3
S'J Balvin'
p801
sg5
I2
sg6
S'https://open.spotify.com/track/7fwXWKdDNI5IutOMc5OKYw'
p802
sg8
S'Mi Gente (feat. Beyonc\xc3\xa9)'
p803
ssS'2Q2kk3DU9lMeBjdgjvqrXr'
p804
(dp805
g3
S"Los Cadillac's"
p806
sg5
I3
sg6
S'https://open.spotify.com/track/2Q2kk3DU9lMeBjdgjvqrXr'
p807
sg8
S'Me Marchar\xc3\xa9 (feat. Wisin)'
p808
ssS'0XLOf9LhyazPX9Ld8jPiUq'
p809
(dp810
g3
S'Selena Gomez'
p811
sg5
I9
sg6
S'https://open.spotify.com/track/0XLOf9LhyazPX9Ld8jPiUq'
p812
sg8
S'Fetish (feat. Gucci Mane)'
p813
ssS'7LEydI5NfjY6mZfKwYIptZ'
p814
(dp815
g3
S'Fifth Harmony'
p816
sg5
I1
sg6
S'https://open.spotify.com/track/7LEydI5NfjY6mZfKwYIptZ'
p817
sg8
S'Down'
p818
ssS'2VS9pHSX0vSvv7dVNq11Za'
p819
(dp820
g3
S'Hugo Lagos'
p821
sg5
I1
sg6
S'https://open.spotify.com/track/2VS9pHSX0vSvv7dVNq11Za'
p822
sg8
S'La Violeta y la Parra'
p823
ssS'3dnOHn0A5q3ny1LLLnSAty'
p824
(dp825
g3
S'Yandel'
p826
sg5
I5
sg6
S'https://open.spotify.com/track/3dnOHn0A5q3ny1LLLnSAty'
p827
sg8
S'Mi Religi\xc3\xb3n'
p828
ssS'1QLH6vXRH2DrLohuY3U3Vb'
p829
(dp830
g3
S'Shaggy'
p831
sg5
I10
sg6
S'https://open.spotify.com/track/1QLH6vXRH2DrLohuY3U3Vb'
p832
sg8
S'Only Love'
p833
ssS'1OmcAT5Y8eg5bUPv9qJT4R'
p834
(dp835
g3
S'Post Malone'
p836
sg5
I2
sg6
S'https://open.spotify.com/track/1OmcAT5Y8eg5bUPv9qJT4R'
p837
sg8
S'rockstar'
p838
ssS'7HDOS7qOhBxmcsWTv29PSK'
p839
(dp840
g3
S'Maluma'
p841
sg5
I2
sg6
S'https://open.spotify.com/track/7HDOS7qOhBxmcsWTv29PSK'
p842
sg8
S'Pretextos'
p843
ssS'0azC730Exh71aQlOt9Zj3y'
p844
(dp845
g3
S'Calvin Harris'
p846
sg5
I20
sg6
S'https://open.spotify.com/track/0azC730Exh71aQlOt9Zj3y'
p847
sg8
S'This Is What You Came For'
p848
ssS'2Gl0FzuLxflY6nPifJp5Dr'
p849
(dp850
g3
S'Kygo'
p851
sg5
I14
sg6
S'https://open.spotify.com/track/2Gl0FzuLxflY6nPifJp5Dr'
p852
sg8
S'First Time'
p853
ssS'5Y9fnynLlIvqtM710MHzfz'
p854
(dp855
g3
S'Ozuna'
p856
sg5
I2
sg6
S'https://open.spotify.com/track/5Y9fnynLlIvqtM710MHzfz'
p857
sg8
S'S\xc3\xadguelo Bailando'
p858
ssS'7i2DJ88J7jQ8K7zqFX2fW8'
p859
(dp860
g3
S'Halsey'
p861
sg5
I2
sg6
S'https://open.spotify.com/track/7i2DJ88J7jQ8K7zqFX2fW8'
p862
sg8
S'Now Or Never'
p863
ssS'6stYbAJgTszHAHZMPxWWCY'
p864
(dp865
g3
S'IAmChino'
p866
sg5
I41
sg6
S'https://open.spotify.com/track/6stYbAJgTszHAHZMPxWWCY'
p867
sg8
S'Ay Mi Dios'
p868
ssS'5awyrtlRtZFo4kL7EgNdgY'
p869
(dp870
g3
S'Lary Over'
p871
sg5
I2
sg6
S'https://open.spotify.com/track/5awyrtlRtZFo4kL7EgNdgY'
p872
sg8
S'Medusa'
p873
ssS'6uo91eeAS7gijiChXPz7Mu'
p874
(dp875
g3
S'Rvssian'
p876
sg5
I1
sg6
S'https://open.spotify.com/track/6uo91eeAS7gijiChXPz7Mu'
p877
sg8
S'Privado'
p878
ssS'7LFLJWIQFHsaDw5FOltT5Z'
p879
(dp880
g3
S'Xantos'
p881
sg5
I15
sg6
S'https://open.spotify.com/track/7LFLJWIQFHsaDw5FOltT5Z'
p882
sg8
S'Bailame despacio - Piso 21 Remix'
p883
ssS'68EMU2RD1ECNeOeJ5qAXCV'
p884
(dp885
g3
S'Charlie Puth'
p886
sg5
I41
sg6
S'https://open.spotify.com/track/68EMU2RD1ECNeOeJ5qAXCV'
p887
sg8
S"We Don't Talk Anymore (feat. Selena Gomez)"
p888
ssS'7H6OwsBoSI4BVWm5M7MTOQ'
p889
(dp890
g3
S'Alex Rose'
p891
sg5
I10
sg6
S'https://open.spotify.com/track/7H6OwsBoSI4BVWm5M7MTOQ'
p892
sg8
S'Percocet - Remix'
p893
ssS'19CAKZdXVNyZrfmF60RAj3'
p894
(dp895
g3
S'Romeo Santos'
p896
sg5
I4
sg6
S'https://open.spotify.com/track/19CAKZdXVNyZrfmF60RAj3'
p897
sg8
S'Imitadora'
p898
ssS'7Ds48ZCIjmcWWuCeqoDOOO'
p899
(dp900
g3
S'Hugo Lagos'
p901
sg5
I1
sg6
S'https://open.spotify.com/track/7Ds48ZCIjmcWWuCeqoDOOO'
p902
sg8
S'Chicha de Curacav\xc3\xad'
p903
ssS'77a9893yxuz36cBUmBzA8E'
p904
(dp905
g3
S'Carlos Vives'
p906
sg5
I17
sg6
S'https://open.spotify.com/track/77a9893yxuz36cBUmBzA8E'
p907
sg8
S'Al Filo de Tu Amor'
p908
ssS'1j4kHkkpqZRBwE0A4CN4Yv'
p909
(dp910
g3
S'ZAYN'
p911
sg5
I5
sg6
S'https://open.spotify.com/track/1j4kHkkpqZRBwE0A4CN4Yv'
p912
sg8
S'Dusk Till Dawn - Radio Edit'
p913
ssS'21tuvt3CXIsNquc32v8jpc'
p914
(dp915
g3
S'Audioslave'
p916
sg5
I1
sg6
S'https://open.spotify.com/track/21tuvt3CXIsNquc32v8jpc'
p917
sg8
S'Show Me How to Live'
p918
ssS'3DXncPQOG4VBw3QHh3S817'
p919
(dp920
g3
S'DJ Khaled'
p921
sg5
I15
sg6
S'https://open.spotify.com/track/3DXncPQOG4VBw3QHh3S817'
p922
sg8
S"I'm the One"
p923
ssS'2q6tgiA9tpb6DMguABwCWE'
p924
(dp925
g3
S'John Legend'
p926
sg5
I7
sg6
S'https://open.spotify.com/track/2q6tgiA9tpb6DMguABwCWE'
p927
sg8
S'All of Me'
p928
ssS'4VuS959DSpr82t3qBqCrWG'
p929
(dp930
g3
S'Ed Sheeran'
p931
sg5
I1
sg6
S'https://open.spotify.com/track/4VuS959DSpr82t3qBqCrWG'
p932
sg8
S'Supermarket Flowers'
p933
ssS'1gQxoBZiyLK5hRLLoBg89x'
p934
(dp935
g3
S'Mon Laferte'
p936
sg5
I2
sg6
S'https://open.spotify.com/track/1gQxoBZiyLK5hRLLoBg89x'
p937
sg8
S'Primaveral'
p938
ssS'3nqrj9bM1clIkejk7BVPtX'
p939
(dp940
g3
S'Karol G'
p941
sg5
I18
sg6
S'https://open.spotify.com/track/3nqrj9bM1clIkejk7BVPtX'
p942
sg8
S'A Ella'
p943
ssS'7o0CRKO2aKvWaq5qrTi9gD'
p944
(dp945
g3
S'Moral Distraida'
p946
sg5
I1
sg6
S'https://open.spotify.com/track/7o0CRKO2aKvWaq5qrTi9gD'
p947
sg8
S'Probarlo Todo'
p948
ssS'3mxWDt0eKXfl4C1e4oIP0J'
p949
(dp950
g3
S'Ozuna'
p951
sg5
I2
sg6
S'https://open.spotify.com/track/3mxWDt0eKXfl4C1e4oIP0J'
p952
sg8
S'Se Prepar\xc3\xb3'
p953
ssS'7MMRoGvm7uhoUVhGvHJ3yW'
p954
(dp955
g3
S'Manuel Turizo'
p956
sg5
I10
sg6
S'https://open.spotify.com/track/7MMRoGvm7uhoUVhGvHJ3yW'
p957
sg8
S'Una Lady Como T\xc3\xba - Remix'
p958
ssS'1DkZhAkzgp3xk75apNrYnf'
p959
(dp960
g3
S'Hugo Lagos'
p961
sg5
I1
sg6
S'https://open.spotify.com/track/1DkZhAkzgp3xk75apNrYnf'
p962
sg8
S'Esos Dos Que Est\xc3\xa1n Bailando'
p963
ssS'61HHDBLqF3AmSvLfHKNGd2'
p964
(dp965
g3
S'Karol G'
p966
sg5
I19
sg6
S'https://open.spotify.com/track/61HHDBLqF3AmSvLfHKNGd2'
p967
sg8
S'Ahora Me Llama'
p968
ssS'1lxswgIpzV6HhENRvkflES'
p969
(dp970
g3
S'Farruko'
p971
sg5
I41
sg6
S'https://open.spotify.com/track/1lxswgIpzV6HhENRvkflES'
p972
sg8
S'Chillax'
p973
ssS'61WbtB6ujkpNAsAf5LjF4b'
p974
(dp975
g3
S'Katy Perry'
p976
sg5
I9
sg6
S'https://open.spotify.com/track/61WbtB6ujkpNAsAf5LjF4b'
p977
sg8
S'Bon app\xc3\xa9tit'
p978
ssS'7ofxPmTNMj2GP07g1VZa0O'
p979
(dp980
g3
S'Alex Sensation'
p981
sg5
I10
sg6
S'https://open.spotify.com/track/7ofxPmTNMj2GP07g1VZa0O'
p982
sg8
S'Que Va'
p983
ssS'6WMYFEd4MJDIjJARHnOxoN'
p984
(dp985
g3
S'Major Lazer'
p986
sg5
I11
sg6
S'https://open.spotify.com/track/6WMYFEd4MJDIjJARHnOxoN'
p987
sg8
S'Buscando Huellas (feat. J Balvin & Sean Paul)'
p988
ssS'04V9IEnzZ9mrKx6xt3gFOt'
p989
(dp990
g3
S'Los Hidalgos'
p991
sg5
I1
sg6
S'https://open.spotify.com/track/04V9IEnzZ9mrKx6xt3gFOt'
p992
sg8
S'La Cueca de los Santos'
p993
ssS'6mdP5MsUr0JlTki8hEWKI3'
p994
(dp995
g3
S'Mon Laferte'
p996
sg5
I1
sg6
S'https://open.spotify.com/track/6mdP5MsUr0JlTki8hEWKI3'
p997
sg8
S'La Visita'
p998
ssS'3BY2mafsbsoKGqS380Xnuz'
p999
(dp1000
g3
S'Don Omar'
p1001
sg5
I41
sg6
S'https://open.spotify.com/track/3BY2mafsbsoKGqS380Xnuz'
p1002
sg8
S'Te Quiero Pa\xc2\xb4Mi'
p1003
ssS'2DdgM4JLj9S9TBz8s3ggLx'
p1004
(dp1005
g3
S'Noriel'
p1006
sg5
I4
sg6
S'https://open.spotify.com/track/2DdgM4JLj9S9TBz8s3ggLx'
p1007
sg8
S'Desperte Sin Ti'
p1008
ssS'4JAyIDXOqNM6qHuZML01uX'
p1009
(dp1010
g3
g232
sg5
I1
sg6
S'https://open.spotify.com/track/4JAyIDXOqNM6qHuZML01uX'
p1011
sg8
g232
ssS'3b3cLByOZ1vACv78wlGDGJ'
p1012
(dp1013
g3
S'Mon Laferte'
p1014
sg5
I1
sg6
S'https://open.spotify.com/track/3b3cLByOZ1vACv78wlGDGJ'
p1015
sg8
S'Cielito De Abril'
p1016
ssS'6F23RA4YzxmSOS7StCKEXb'
p1017
(dp1018
g3
S'Noriel'
p1019
sg5
I8
sg6
S'https://open.spotify.com/track/6F23RA4YzxmSOS7StCKEXb'
p1020
sg8
S'Doble Personalidad'
p1021
ssS'0EpFfFZpCuqYFzHvxOtrZS'
p1022
(dp1023
g3
S'Yandel'
p1024
sg5
I25
sg6
S'https://open.spotify.com/track/0EpFfFZpCuqYFzHvxOtrZS'
p1025
sg8
S'Encantadora - Remix'
p1026
ssS'5LYQSNHZxEA880URXFHg6h'
p1027
(dp1028
g3
S'Lana Del Rey'
p1029
sg5
I3
sg6
S'https://open.spotify.com/track/5LYQSNHZxEA880URXFHg6h'
p1030
sg8
S'Lust for Life (with The Weeknd)'
p1031
ssS'7JpzzaCzljQdfnG7wPRqSe'
p1032
(dp1033
g3
S'Prince Royce'
p1034
sg5
I22
sg6
S'https://open.spotify.com/track/7JpzzaCzljQdfnG7wPRqSe'
p1035
sg8
S'Ganas Locas'
p1036
ssS'2d8rQXA25Yk5ZE3XW1eTXs'
p1037
(dp1038
g3
S'Kevin Roldan'
p1039
sg5
I11
sg6
S'https://open.spotify.com/track/2d8rQXA25Yk5ZE3XW1eTXs'
p1040
sg8
S'Me Gustas'
p1041
ssS'5hYTyyh2odQKphUbMqc5gN'
p1042
(dp1043
g3
S'Alessia Cara'
p1044
sg5
I11
sg6
S'https://open.spotify.com/track/5hYTyyh2odQKphUbMqc5gN'
p1045
sg8
S"How Far I'll Go - From Moana"
p1046
ssS'1v785WZqLWlA9bwsIfqBJV'
p1047
(dp1048
g3
S'Bryant Myers'
p1049
sg5
I5
sg6
S'https://open.spotify.com/track/1v785WZqLWlA9bwsIfqBJV'
p1050
sg8
S'Pa Pasar El Rato'
p1051
ssS'72jbDTw1piOOj770jWNeaG'
p1052
(dp1053
g3
S'The Chainsmokers'
p1054
sg5
I22
sg6
S'https://open.spotify.com/track/72jbDTw1piOOj770jWNeaG'
p1055
sg8
S'Paris'
p1056
ssS'02yD6Wmpx5kLAoXLQOnuEb'
p1057
(dp1058
g3
S'Jesse & Joy'
p1059
sg5
I5
sg6
S'https://open.spotify.com/track/02yD6Wmpx5kLAoXLQOnuEb'
p1060
sg8
S'Me soltaste'
p1061
ssS'3FvxmESbBOUhabsXYDAmPJ'
p1062
(dp1063
g3
S'SBM'
p1064
sg5
I1
sg6
S'https://open.spotify.com/track/3FvxmESbBOUhabsXYDAmPJ'
p1065
sg8
S'Otra Vez - SBM X KID Remix'
p1066
ssS'0dA2Mk56wEzDgegdC6R17g'
p1067
(dp1068
g3
S'Zedd'
p1069
sg5
I24
sg6
S'https://open.spotify.com/track/0dA2Mk56wEzDgegdC6R17g'
p1070
sg8
S'Stay (with Alessia Cara)'
p1071
ssS'3Ytr1SUCUi6J3L9dRFx5iH'
p1072
(dp1073
g3
S'Major Lazer'
p1074
sg5
I13
sg6
S'https://open.spotify.com/track/3Ytr1SUCUi6J3L9dRFx5iH'
p1075
sg8
S'Know No Better (feat. Quavo)'
p1076
ssS'6La6oWlGposkrgvLjjRJju'
p1077
(dp1078
g3
S'Ozuna'
p1079
sg5
I7
sg6
S'https://open.spotify.com/track/6La6oWlGposkrgvLjjRJju'
p1080
sg8
S'Cumplea\xc3\xb1os'
p1081
ssS'7KhBQ6XFeAGrQzyT28MWvP'
p1082
(dp1083
g3
S'Anuel Aa'
p1084
sg5
I2
sg6
S'https://open.spotify.com/track/7KhBQ6XFeAGrQzyT28MWvP'
p1085
sg8
S'47'
p1086
ssS'6niIPelmGMtJbf2wr6gbwd'
p1087
(dp1088
g3
S'Roberto Parra'
p1089
sg5
I1
sg6
S'https://open.spotify.com/track/6niIPelmGMtJbf2wr6gbwd'
p1090
sg8
S'El Conventillo'
p1091
ssS'58gwGMu7aiOs0zkbVJ8uEh'
p1092
(dp1093
g3
S'Alexandra Stan'
p1094
sg5
I1
sg6
S'https://open.spotify.com/track/58gwGMu7aiOs0zkbVJ8uEh'
p1095
sg8
S'I Did It Mama'
p1096
ssS'7nZmah2llfvLDiUjm0kiyz'
p1097
(dp1098
g3
S'Justin Bieber'
p1099
sg5
I8
sg6
S'https://open.spotify.com/track/7nZmah2llfvLDiUjm0kiyz'
p1100
sg8
S'Friends (with BloodPop\xc2\xae)'
p1101
ssS'6BdAwMv1YorLfkBWlE493X'
p1102
(dp1103
g3
S'Romeo Santos'
p1104
sg5
I1
sg6
S'https://open.spotify.com/track/6BdAwMv1YorLfkBWlE493X'
p1105
sg8
S'H\xc3\xa9roe Favorito'
p1106
ssS'3eFJqPe8VUYrABbFjSauuj'
p1107
(dp1108
g3
g232
sg5
I1
sg6
S'https://open.spotify.com/track/3eFJqPe8VUYrABbFjSauuj'
p1109
sg8
g232
ssS'2SmgFAhQkQCQPyBiBxR6Te'
p1110
(dp1111
g3
S'Natti Natasha'
p1112
sg5
I6
sg6
S'https://open.spotify.com/track/2SmgFAhQkQCQPyBiBxR6Te'
p1113
sg8
S'Criminal'
p1114
ssS'7MHN1aCFtLXjownGhvEQlF'
p1115
(dp1116
g3
S'Manuel Turizo'
p1117
sg5
I20
sg6
S'https://open.spotify.com/track/7MHN1aCFtLXjownGhvEQlF'
p1118
sg8
S'Una Lady Como T\xc3\xba'
p1119
ssS'22eADXu8DfOAUEDw4vU8qy'
p1120
(dp1121
g3
S'Chris Jeday'
p1122
sg5
I29
sg6
S'https://open.spotify.com/track/22eADXu8DfOAUEDw4vU8qy'
p1123
sg8
S'Ahora Dice'
p1124
ssS'347TStOSY6IOqMB84Rpxwk'
p1125
(dp1126
g3
S'Marama'
p1127
sg5
I11
sg6
S'https://open.spotify.com/track/347TStOSY6IOqMB84Rpxwk'
p1128
sg8
S'Nena'
p1129
ssS'2BesEfIHzUb7viZwUkSAhE'
p1130
(dp1131
g3
S'Alexis & Fido'
p1132
sg5
I5
sg6
S'https://open.spotify.com/track/2BesEfIHzUb7viZwUkSAhE'
p1133
sg8
S'Una en un Mill\xc3\xb3n - Remix'
p1134
ssS'2dfHh7ECGxfNqZTQno09Vk'
p1135
(dp1136
g3
S'Ed Sheeran'
p1137
sg5
I1
sg6
S'https://open.spotify.com/track/2dfHh7ECGxfNqZTQno09Vk'
p1138
sg8
S"Hearts Don't Break Around Here"
p1139
ssS'0H7cz1bR7w9PulJL7Na774'
p1140
(dp1141
g3
S'Felipe Pel\xc3\xa1ez'
p1142
sg5
I3
sg6
S'https://open.spotify.com/track/0H7cz1bR7w9PulJL7Na774'
p1143
sg8
S'Vivo Pensando En Ti'
p1144
ssS'7EySX8ldJHoeWjJhJyZ8Tq'
p1145
(dp1146
g3
S'Mon Laferte'
p1147
sg5
I21
sg6
S'https://open.spotify.com/track/7EySX8ldJHoeWjJhJyZ8Tq'
p1148
sg8
S'Si T\xc3\xba Me Quisieras'
p1149
ssS'7d4pdMym8ZBOgf1oVPTiPb'
p1150
(dp1151
g3
S'Los Fabulosos Cadillacs'
p1152
sg5
I1
sg6
S'https://open.spotify.com/track/7d4pdMym8ZBOgf1oVPTiPb'
p1153
sg8
S'Matador - Remasterizado 2008'
p1154
ssS'2SECUGFCU9r4HCSgYRHaIx'
p1155
(dp1156
g3
S'Mike Bah\xc3\xada'
p1157
sg5
I10
sg6
S'https://open.spotify.com/track/2SECUGFCU9r4HCSgYRHaIx'
p1158
sg8
S'Perd\xc3\xb3n'
p1159
ssS'6YZdkObH88npeKrrkb8Ggf'
p1160
(dp1161
g3
S'Enrique Iglesias'
p1162
sg5
I27
sg6
S'https://open.spotify.com/track/6YZdkObH88npeKrrkb8Ggf'
p1163
sg8
S'DUELE EL CORAZON'
p1164
ssS'2sA4woGW5KgEgGXXxOKPAZ'
p1165
(dp1166
g3
S'Noriel'
p1167
sg5
I31
sg6
S'https://open.spotify.com/track/2sA4woGW5KgEgGXXxOKPAZ'
p1168
sg8
S'Amigos y Enemigos - Remix'
p1169
ssS'0NiXXAI876aGImAd6rTj8w'
p1170
(dp1171
g3
S'Jonas Blue'
p1172
sg5
I13
sg6
S'https://open.spotify.com/track/0NiXXAI876aGImAd6rTj8w'
p1173
sg8
S'Mama'
p1174
ssS'343YBumqHu19cGoGARUTsd'
p1175
(dp1176
g3
S'Drake'
p1177
sg5
I7
sg6
S'https://open.spotify.com/track/343YBumqHu19cGoGARUTsd'
p1178
sg8
S'Fake Love'
p1179
ssS'5HDPtsnyb3maFmPL8LLUTG'
p1180
(dp1181
g3
S'Ed Sheeran'
p1182
sg5
I3
sg6
S'https://open.spotify.com/track/5HDPtsnyb3maFmPL8LLUTG'
p1183
sg8
S'New Man'
p1184
ssS'5WdSPcKgxWirPXVM7f6xXZ'
p1185
(dp1186
g3
S'Maluma'
p1187
sg5
I1
sg6
S'https://open.spotify.com/track/5WdSPcKgxWirPXVM7f6xXZ'
p1188
sg8
S'El Tiki'
p1189
ssS'6WTpTl6AnO8Z3EgRDSaCFt'
p1190
(dp1191
g3
S'Hugo Lagos'
p1192
sg5
I1
sg6
S'https://open.spotify.com/track/6WTpTl6AnO8Z3EgRDSaCFt'
p1193
sg8
S'La Rosa y el Clavel'
p1194
ssS'6WbADFqMvR8N5u0BvtsWQE'
p1195
(dp1196
g3
S'Avicii'
p1197
sg5
I9
sg6
S'https://open.spotify.com/track/6WbADFqMvR8N5u0BvtsWQE'
p1198
sg8
S'Without You (feat. Sandro Cavazza)'
p1199
ssS'0QetVR4wwvyiTezQeFNdeZ'
p1200
(dp1201
g3
S'Ozuna'
p1202
sg5
I3
sg6
S'https://open.spotify.com/track/0QetVR4wwvyiTezQeFNdeZ'
p1203
sg8
S'En La Intimidad'
p1204
ssS'75JFxkI2RXiU7L9VXzMkle'
p1205
(dp1206
g3
S'Coldplay'
p1207
sg5
I40
sg6
S'https://open.spotify.com/track/75JFxkI2RXiU7L9VXzMkle'
p1208
sg8
S'The Scientist'
p1209
ssS'4pdPtRcBmOSQDlJ3Fk945m'
p1210
(dp1211
g3
S'DJ Snake'
p1212
sg5
I41
sg6
S'https://open.spotify.com/track/4pdPtRcBmOSQDlJ3Fk945m'
p1213
sg8
S'Let Me Love You'
p1214
ssS'7lRsNbdOGykkMAgsqs4R1C'
p1215
(dp1216
g3
S'Nacho'
p1217
sg5
I25
sg6
S'https://open.spotify.com/track/7lRsNbdOGykkMAgsqs4R1C'
p1218
sg8
S'B\xc3\xa1ilame'
p1219
ssS'4OaTpLJIa2harufGxfOPUu'
p1220
(dp1221
g3
S'Xantos'
p1222
sg5
I41
sg6
S'https://open.spotify.com/track/4OaTpLJIa2harufGxfOPUu'
p1223
sg8
S'Bailame Despacio'
p1224
ssS'5N8nNuTmIzkZOfcxXlygUw'
p1225
(dp1226
g3
S'J Balvin'
p1227
sg5
I16
sg6
S'https://open.spotify.com/track/5N8nNuTmIzkZOfcxXlygUw'
p1228
sg8
S'Ginza'
p1229
ssS'3QwBODjSEzelZyVjxPOHdq'
p1230
(dp1231
g3
S'Zion & Lennox'
p1232
sg5
I41
sg6
S'https://open.spotify.com/track/3QwBODjSEzelZyVjxPOHdq'
p1233
sg8
S'Otra Vez (feat. J Balvin)'
p1234
ssS'1OAiWI2oPmglaOiv9fdioU'
p1235
(dp1236
g3
S'Coldplay'
p1237
sg5
I19
sg6
S'https://open.spotify.com/track/1OAiWI2oPmglaOiv9fdioU'
p1238
sg8
S'Hymn For The Weekend - Seeb Remix'
p1239
ssS'209gZgcfLq2aUuu51vOWBl'
p1240
(dp1241
g3
S'CNCO'
p1242
sg5
I26
sg6
S'https://open.spotify.com/track/209gZgcfLq2aUuu51vOWBl'
p1243
sg8
S'Hey DJ'
p1244
ssS'65Hk2XceETPJwZOiOtvis5'
p1245
(dp1246
g3
S'SantaFeria'
p1247
sg5
I5
sg6
S'https://open.spotify.com/track/65Hk2XceETPJwZOiOtvis5'
p1248
sg8
S'El Gil de Tu Ex'
p1249
ssS'3g8HfTlZYA72i9V2JPwXOb'
p1250
(dp1251
g3
S'Daddy Yankee'
p1252
sg5
I8
sg6
S'https://open.spotify.com/track/3g8HfTlZYA72i9V2JPwXOb'
p1253
sg8
S'Otra Cosa'
p1254
ssS'1y2jGfgALBBNZL6tXPI2Ke'
p1255
(dp1256
g3
S'Rombai'
p1257
sg5
I1
sg6
S'https://open.spotify.com/track/1y2jGfgALBBNZL6tXPI2Ke'
p1258
sg8
S'Segundas Intenciones'
p1259
ssS'2a1o6ZejUi8U3wzzOtCOYw'
p1260
(dp1261
g3
S'Don Omar'
p1262
sg5
I9
sg6
S'https://open.spotify.com/track/2a1o6ZejUi8U3wzzOtCOYw'
p1263
sg8
S'Danza Kuduro'
p1264
ssS'3uMYq07Kj5m564OQwdSCrD'
p1265
(dp1266
g3
S'Soda Stereo'
p1267
sg5
I5
sg6
S'https://open.spotify.com/track/3uMYq07Kj5m564OQwdSCrD'
p1268
sg8
S'Cuando Pase El Temblor - Remasterizado 2007'
p1269
ssS'6urlj8N8TL3MK0ATNGIZYW'
p1270
(dp1271
g3
S'Major Lazer'
p1272
sg5
I6
sg6
S'https://open.spotify.com/track/6urlj8N8TL3MK0ATNGIZYW'
p1273
sg8
S'Buscando Huellas (feat. J Balvin & Sean Paul)'
p1274
ssS'0u13src3QcditRU5VPduML'
p1275
(dp1276
g3
S'Mon Laferte'
p1277
sg5
I34
sg6
S'https://open.spotify.com/track/0u13src3QcditRU5VPduML'
p1278
sg8
S'Am\xc3\xa1rrame'
p1279
ssS'4C5ewaZ05vyXM23jFJdwd4'
p1280
(dp1281
g3
S'Halsey'
p1282
sg5
I1
sg6
S'https://open.spotify.com/track/4C5ewaZ05vyXM23jFJdwd4'
p1283
sg8
S'Strangers'
p1284
ssS'0d9wwtTyMxYzIFJs8CKbiz'
p1285
(dp1286
g3
S'Major Lazer'
p1287
sg5
I1
sg6
S'https://open.spotify.com/track/0d9wwtTyMxYzIFJs8CKbiz'
p1288
sg8
S'Know No Better (feat. Travis Scott & Quavo) - Bad Bunny Remix'
p1289
ssS'31ylK4ek48s9G0RDF8YEx2'
p1290
(dp1291
g3
S'Hugo Lagos'
p1292
sg5
I1
sg6
S'https://open.spotify.com/track/31ylK4ek48s9G0RDF8YEx2'
p1293
sg8
S'Esa Chiquilla Que Baila'
p1294
ssS'3cFsmM51N5zMAuu1nNY4Tw'
p1295
(dp1296
g3
S'Sean Paul'
p1297
sg5
I27
sg6
S'https://open.spotify.com/track/3cFsmM51N5zMAuu1nNY4Tw'
p1298
sg8
S'No Lie'
p1299
ssS'79cuOz3SPQTuFrp8WgftAu'
p1300
(dp1301
g3
S'Shawn Mendes'
p1302
sg5
I24
sg6
S'https://open.spotify.com/track/79cuOz3SPQTuFrp8WgftAu'
p1303
sg8
S"There's Nothing Holdin' Me Back"
p1304
ssS'0XXLwO7YHHTAK3OJkWQ37b'
p1305
(dp1306
g3
S'Justin Bieber'
p1307
sg5
I15
sg6
S'https://open.spotify.com/track/0XXLwO7YHHTAK3OJkWQ37b'
p1308
sg8
S'Sorry - Latino Remix'
p1309
ssS'7AtlMCIauSQZqiXSlbBPW6'
p1310
(dp1311
g3
S'J Balvin'
p1312
sg5
I24
sg6
S'https://open.spotify.com/track/7AtlMCIauSQZqiXSlbBPW6'
p1313
sg8
S'Bobo'
p1314
ssS'2xjcDF21U2ccgE2LEeiMbf'
p1315
(dp1316
g3
S'Marama'
p1317
sg5
I10
sg6
S'https://open.spotify.com/track/2xjcDF21U2ccgE2LEeiMbf'
p1318
sg8
S'Loquita'
p1319
ssS'0gzcET27nREY6aD8LJU9wD'
p1320
(dp1321
g3
S'Marama'
p1322
sg5
I41
sg6
S'https://open.spotify.com/track/0gzcET27nREY6aD8LJU9wD'
p1323
sg8
S'Noche Loca'
p1324
ssS'3eR23VReFzcdmS7TYCrhCe'
p1325
(dp1326
g3
S'Kygo'
p1327
sg5
I22
sg6
S'https://open.spotify.com/track/3eR23VReFzcdmS7TYCrhCe'
p1328
sg8
S"It Ain't Me (with Selena Gomez)"
p1329
ssS'5P45f6HakSHDwdFj5dO5K5'
p1330
(dp1331
g3
S'Wisin'
p1332
sg5
I14
sg6
S'https://open.spotify.com/track/5P45f6HakSHDwdFj5dO5K5'
p1333
sg8
S'Esc\xc3\xa1pate Conmigo - Remix'
p1334
ssS'772io14jrMTxGJbijtDccQ'
p1335
(dp1336
g3
S'Juan Mag\xc3\xa1n'
p1337
sg5
I12
sg6
S'https://open.spotify.com/track/772io14jrMTxGJbijtDccQ'
p1338
sg8
S'Baila Conmigo'
p1339
ssS'6jA8HL9i4QGzsj6fjoxp8Y'
p1340
(dp1341
g3
S'Martin Garrix'
p1342
sg5
I17
sg6
S'https://open.spotify.com/track/6jA8HL9i4QGzsj6fjoxp8Y'
p1343
sg8
S'There for You'
p1344
ssS'58IL315gMSTD37DOZPJ2hf'
p1345
(dp1346
g3
S'Daddy Yankee'
p1347
sg5
I38
sg6
S'https://open.spotify.com/track/58IL315gMSTD37DOZPJ2hf'
p1348
sg8
S'Shaky Shaky'
p1349
ssS'1IsEhyS7beUwBL4Lulo6NL'
p1350
(dp1351
g3
S'Jona Camacho'
p1352
sg5
I2
sg6
S'https://open.spotify.com/track/1IsEhyS7beUwBL4Lulo6NL'
p1353
sg8
S'Dulce Vino'
p1354
ssS'77KHmKnBmVGTjRCeMVXpWH'
p1355
(dp1356
g3
S'Kevin Roldan'
p1357
sg5
I10
sg6
S'https://open.spotify.com/track/77KHmKnBmVGTjRCeMVXpWH'
p1358
sg8
S'Ruleta Rusa'
p1359
ssS'1AhDOtG9vPSOmsWgNW0BEY'
p1360
(dp1361
g3
S'Queen'
p1362
sg5
I4
sg6
S'https://open.spotify.com/track/1AhDOtG9vPSOmsWgNW0BEY'
p1363
sg8
S'Bohemian Rhapsody - Remastered 2011'
p1364
ssS'5bZtRlMBU76vHuDOb1GM5u'
p1365
(dp1366
g3
S'Jonas Blue'
p1367
sg5
I1
sg6
S'https://open.spotify.com/track/5bZtRlMBU76vHuDOb1GM5u'
p1368
sg8
S'Perfect Strangers'
p1369
ssS'3GpvoKKWZyTwgbLEM9RmWM'
p1370
(dp1371
g3
S'Cali Y El Dandee'
p1372
sg5
I33
sg6
S'https://open.spotify.com/track/3GpvoKKWZyTwgbLEM9RmWM'
p1373
sg8
S'Por Fin Te Encontr\xc3\xa9'
p1374
ssS'0yhCWYE6sZkjZMlKDADl0y'
p1375
(dp1376
g3
S'Randy'
p1377
sg5
I2
sg6
S'https://open.spotify.com/track/0yhCWYE6sZkjZMlKDADl0y'
p1378
sg8
S'Fuera del planeta (version reggeaton) [feat. Eloy & Nan2 el maestro de las melodias]'
p1379
ssS'0JiVRyTJcJnmlwCZ854K4p'
p1380
(dp1381
g3
S'Alan Walker'
p1382
sg5
I8
sg6
S'https://open.spotify.com/track/0JiVRyTJcJnmlwCZ854K4p'
p1383
sg8
S'Alone'
p1384
ssS'2SSYqDX8KTgy01NlqtUo0F'
p1385
(dp1386
g3
S'Reik'
p1387
sg5
I40
sg6
S'https://open.spotify.com/track/2SSYqDX8KTgy01NlqtUo0F'
p1388
sg8
S'Ya Me Enter\xc3\xa9 (feat. Nicky Jam) - Urban Version'
p1389
ssS'6sMPwcpYtxm1mlgYbp1B0t'
p1390
(dp1391
g3
S'Jacob Forever'
p1392
sg5
I10
sg6
S'https://open.spotify.com/track/6sMPwcpYtxm1mlgYbp1B0t'
p1393
sg8
S'Hasta Que Se Seque el Malec\xc3\xb3n - Remix'
p1394
ssS'4aWmUDTfIPGksMNLV2rQP2'
p1395
(dp1396
g3
S'Luis Fonsi'
p1397
sg5
I38
sg6
S'https://open.spotify.com/track/4aWmUDTfIPGksMNLV2rQP2'
p1398
sg8
S'Despacito (Featuring Daddy Yankee)'
p1399
ssS'7JZP7kQsuFFWOrtAI7uNiW'
p1400
(dp1401
g3
S'Soda Stereo'
p1402
sg5
I27
sg6
S'https://open.spotify.com/track/7JZP7kQsuFFWOrtAI7uNiW'
p1403
sg8
S'Persiana Americana'
p1404
ssS'35QZaWQRkmnAVqBF1TLCxQ'
p1405
(dp1406
g3
S'Ed Sheeran'
p1407
sg5
I1
sg6
S'https://open.spotify.com/track/35QZaWQRkmnAVqBF1TLCxQ'
p1408
sg8
S'Nancy Mulligan'
p1409
ssS'6LUsEtfv5RsUmJdhY2VNsS'
p1410
(dp1411
g3
S'Mon Laferte'
p1412
sg5
I1
sg6
S'https://open.spotify.com/track/6LUsEtfv5RsUmJdhY2VNsS'
p1413
sg8
S'Un Alma En Pena'
p1414
ssS'3PEgB3fkiojxms35ntsTgs'
p1415
(dp1416
g3
S'Axwell /\\ Ingrosso'
p1417
sg5
I8
sg6
S'https://open.spotify.com/track/3PEgB3fkiojxms35ntsTgs'
p1418
sg8
S'More Than You Know'
p1419
ssS'25C5CowdsfXld2jJanbiex'
p1420
(dp1421
g3
S'Demi Lovato'
p1422
sg5
I11
sg6
S'https://open.spotify.com/track/25C5CowdsfXld2jJanbiex'
p1423
sg8
S'Sorry Not Sorry'
p1424
ssS'2Z8WuEywRWYTKe1NybPQEW'
p1425
(dp1426
g3
S'Twenty One Pilots'
p1427
sg5
I29
sg6
S'https://open.spotify.com/track/2Z8WuEywRWYTKe1NybPQEW'
p1428
sg8
S'Ride'
p1429
ssS'4sWkZXLxb0lPCXNBzw5rsr'
p1430
(dp1431
g3
S'Cosculluela'
p1432
sg5
I5
sg6
S'https://open.spotify.com/track/4sWkZXLxb0lPCXNBzw5rsr'
p1433
sg8
S'23'
p1434
ssS'2FqoR7diymD1Eh7cVb3DMg'
p1435
(dp1436
g3
S'Wisin & Yandel'
p1437
sg5
I4
sg6
S'https://open.spotify.com/track/2FqoR7diymD1Eh7cVb3DMg'
p1438
sg8
S'Algo Me Gusta De Ti'
p1439
ssS'0EhyUkKRh4olNJY0lJ9rhG'
p1440
(dp1441
g3
S'Xantos'
p1442
sg5
I1
sg6
S'https://open.spotify.com/track/0EhyUkKRh4olNJY0lJ9rhG'
p1443
sg8
S'Bailame Despacio - Piso 21 Remix'
p1444
ssS'6JV2JOEocMgcZxYSZelKcc'
p1445
(dp1446
g3
S'Justin Timberlake'
p1447
sg5
I31
sg6
S'https://open.spotify.com/track/6JV2JOEocMgcZxYSZelKcc'
p1448
sg8
S"CAN'T STOP THE FEELING! (Original Song from DreamWorks Animation's TROLLS)"
p1449
ssS'6De0lHrwBfPfrhorm9q1Xl'
p1450
(dp1451
g3
S'Danny Ocean'
p1452
sg5
I34
sg6
S'https://open.spotify.com/track/6De0lHrwBfPfrhorm9q1Xl'
p1453
sg8
S'Me Reh\xc3\xbaso'
p1454
ssS'1sgCslTqPXV7FEtKLkTOlG'
p1455
(dp1456
g3
S'Zion & Lennox'
p1457
sg5
I2
sg6
S'https://open.spotify.com/track/1sgCslTqPXV7FEtKLkTOlG'
p1458
sg8
S'Tuyo y Mio'
p1459
ssS'7aV2mflaASUmGhCErm7kBO'
p1460
(dp1461
g3
S'Nevada'
p1462
sg5
I3
sg6
S'https://open.spotify.com/track/7aV2mflaASUmGhCErm7kBO'
p1463
sg8
S'The Mack'
p1464
ssS'0bYg9bo50gSsH3LtXe2SQn'
p1465
(dp1466
g3
S'Mariah Carey'
p1467
sg5
I1
sg6
S'https://open.spotify.com/track/0bYg9bo50gSsH3LtXe2SQn'
p1468
sg8
S'All I Want for Christmas Is You'
p1469
ssS'1CKd1PnqfYx0H12V9MSaIY'
p1470
(dp1471
g3
S'Zedd'
p1472
sg5
I9
sg6
S'https://open.spotify.com/track/1CKd1PnqfYx0H12V9MSaIY'
p1473
sg8
S'Get Low (with Liam Payne)'
p1474
ssS'3rOSwuTsUlJp0Pu0MkN8r8'
p1475
(dp1476
g3
S'Future'
p1477
sg5
I2
sg6
S'https://open.spotify.com/track/3rOSwuTsUlJp0Pu0MkN8r8'
p1478
sg8
S'Mask Off'
p1479
ssS'5jMvnSyOgGY8JpvHqeyVOg'
p1480
(dp1481
g3
S'Rombai'
p1482
sg5
I25
sg6
S'https://open.spotify.com/track/5jMvnSyOgGY8JpvHqeyVOg'
p1483
sg8
S'Locuras contigo'
p1484
ssS'1qOLh0tI7trd1zdDKxYZTe'
p1485
(dp1486
g3
S'Hailee Steinfeld'
p1487
sg5
I8
sg6
S'https://open.spotify.com/track/1qOLh0tI7trd1zdDKxYZTe'
p1488
sg8
S'Starving'
p1489
ssS'3HVr6jTVwBHBa2flM0eURR'
p1490
(dp1491
g3
S'Macklemore'
p1492
sg5
I5
sg6
S'https://open.spotify.com/track/3HVr6jTVwBHBa2flM0eURR'
p1493
sg8
S'Glorious (feat. Skylar Grey)'
p1494
ssS'7taXf5odg9xCAZERYfyOkS'
p1495
(dp1496
g3
S'Jos\xc3\xa9 Feliciano'
p1497
sg5
I1
sg6
S'https://open.spotify.com/track/7taXf5odg9xCAZERYfyOkS'
p1498
sg8
S'Feliz Navidad'
p1499
ssS'69M7ZcGR8iI57HNOD3bvxM'
p1500
(dp1501
g3
S'Lary Over'
p1502
sg5
I14
sg6
S'https://open.spotify.com/track/69M7ZcGR8iI57HNOD3bvxM'
p1503
sg8
S'Que Tengo Que Hacer'
p1504
ssS'1cG0umU5TKStygKsPFZ9pY'
p1505
(dp1506
g3
S'Robin Schulz'
p1507
sg5
I17
sg6
S'https://open.spotify.com/track/1cG0umU5TKStygKsPFZ9pY'
p1508
sg8
S'Shed a Light'
p1509
ssS'6520aj0B4FSKGVuKNsOCOi'
p1510
(dp1511
g3
S'Katy Perry'
p1512
sg5
I18
sg6
S'https://open.spotify.com/track/6520aj0B4FSKGVuKNsOCOi'
p1513
sg8
S'Chained To The Rhythm'
p1514
ssS'4q8PHoRsPUB52LFylX8Ulz'
p1515
(dp1516
g3
S'Axwell /\\ Ingrosso'
p1517
sg5
I5
sg6
S'https://open.spotify.com/track/4q8PHoRsPUB52LFylX8Ulz'
p1518
sg8
S'More Than You Know'
p1519
ssS'79IXzxnNe0tVXaxiEcbmBH'
p1520
(dp1521
g3
S'Lary Over'
p1522
sg5
I4
sg6
S'https://open.spotify.com/track/79IXzxnNe0tVXaxiEcbmBH'
p1523
sg8
S'Prepago'
p1524
ssS'65mQeg46PBoOzslgpynyzF'
p1525
(dp1526
g3
S'Mon Laferte'
p1527
sg5
I7
sg6
S'https://open.spotify.com/track/65mQeg46PBoOzslgpynyzF'
p1528
sg8
S'El Diablo'
p1529
ssS'51PIvodunv6NmX5250zxAh'
p1530
(dp1531
g3
S'Lady Gaga'
p1532
sg5
I6
sg6
S'https://open.spotify.com/track/51PIvodunv6NmX5250zxAh'
p1533
sg8
S'The Cure'
p1534
ssS'4PdJSsESm34djLfBde9Pr2'
p1535
(dp1536
g3
S'David Guetta'
p1537
sg5
I2
sg6
S'https://open.spotify.com/track/4PdJSsESm34djLfBde9Pr2'
p1538
sg8
S'Would I Lie To You - Radio Edit'
p1539
ssS'7DM4BPaS7uofFul3ywMe46'
p1540
(dp1541
g3
S'Ricky Martin'
p1542
sg5
I41
sg6
S'https://open.spotify.com/track/7DM4BPaS7uofFul3ywMe46'
p1543
sg8
S"Vente Pa' Ca"
p1544
ssS'1QS4201reOvarHePcxOAk1'
p1545
(dp1546
g3
S'Bryant Myers'
p1547
sg5
I13
sg6
S'https://open.spotify.com/track/1QS4201reOvarHePcxOAk1'
p1548
sg8
S'Hablame Claro'
p1549
ssS'4okba5wu9mMLXx79DXLKi3'
p1550
(dp1551
g3
S'Daddy Yankee'
p1552
sg5
I38
sg6
S'https://open.spotify.com/track/4okba5wu9mMLXx79DXLKi3'
p1553
sg8
S'La Rompe Corazones'
p1554
ssS'0qYTZCo5Bwh1nsUFGZP3zn'
p1555
(dp1556
g3
S'Maluma'
p1557
sg5
I24
sg6
S'https://open.spotify.com/track/0qYTZCo5Bwh1nsUFGZP3zn'
p1558
sg8
S'Felices los 4'
p1559
ssS'5MFzQMkrl1FOOng9tq6R9r'
p1560
(dp1561
g3
S'Maroon 5'
p1562
sg5
I40
sg6
S'https://open.spotify.com/track/5MFzQMkrl1FOOng9tq6R9r'
p1563
sg8
S"Don't Wanna Know"
p1564
ssS'4r3itKA9HEJo48RG65OEnt'
p1565
(dp1566
g3
S'J Balvin'
p1567
sg5
I6
sg6
S'https://open.spotify.com/track/4r3itKA9HEJo48RG65OEnt'
p1568
sg8
S'Pierde Los Modales'
p1569
ssS'4zii9cq9ZgxYJFnaxM3Tul'
p1570
(dp1571
g3
S'French Montana'
p1572
sg5
I3
sg6
S'https://open.spotify.com/track/4zii9cq9ZgxYJFnaxM3Tul'
p1573
sg8
S'Unforgettable - Latin Remix'
p1574
ssS'2S9jTH80VA4ruIZ6IFHZLj'
p1575
(dp1576
g3
S'Tito Fern\xc3\xa1ndez'
p1577
sg5
I1
sg6
S'https://open.spotify.com/track/2S9jTH80VA4ruIZ6IFHZLj'
p1578
sg8
S"Cuecas Pa'l Colo Colo 1"
p1579
ssS'5i50gKdLAjjIr7UxRT5IVy'
p1580
(dp1581
g3
S'Sebastian Yatra'
p1582
sg5
I34
sg6
S'https://open.spotify.com/track/5i50gKdLAjjIr7UxRT5IVy'
p1583
sg8
S'Alguien Robo'
p1584
ssS'1WP1r7fuvRqZRnUaTi2I1Q'
p1585
(dp1586
g3
S'Shawn Mendes'
p1587
sg5
I3
sg6
S'https://open.spotify.com/track/1WP1r7fuvRqZRnUaTi2I1Q'
p1588
sg8
S'Stitches'
p1589
ssS'1ozW81PO3FG5BOOx7k76kS'
p1590
(dp1591
g3
S'Maluma'
p1592
sg5
I1
sg6
S'https://open.spotify.com/track/1ozW81PO3FG5BOOx7k76kS'
p1593
sg8
S'La Temperatura'
p1594
ssS'7dl4Nfi0EJsLNieDYQCFv1'
p1595
(dp1596
g3
S'Major Lazer'
p1597
sg5
I1
sg6
S'https://open.spotify.com/track/7dl4Nfi0EJsLNieDYQCFv1'
p1598
sg8
S'Buscando Huellas (feat. J Balvin & Sean Paul)'
p1599
ssS'32OlwWuMpZ6b0aN2RZOeMS'
p1600
(dp1601
g3
S'Mark Ronson'
p1602
sg5
I3
sg6
S'https://open.spotify.com/track/32OlwWuMpZ6b0aN2RZOeMS'
p1603
sg8
S'Uptown Funk'
p1604
ssS'0yyZN5ASdrYu0XYWFzfxUu'
p1605
(dp1606
g3
S'Jesse & Joy'
p1607
sg5
I8
sg6
S'https://open.spotify.com/track/0yyZN5ASdrYu0XYWFzfxUu'
p1608
sg8
S'3 A.M.'
p1609
ssS'6p3yxt0uJJshAS3CT0znQg'
p1610
(dp1611
g3
S'Natalia Lafourcade'
p1612
sg5
I2
sg6
S'https://open.spotify.com/track/6p3yxt0uJJshAS3CT0znQg'
p1613
sg8
S'T\xc3\xba S\xc3\xad Sabes Quererme'
p1614
ssS'3dINUTtt8noTn16rHcpTTp'
p1615
(dp1616
g3
S'Natti Natasha'
p1617
sg5
I2
sg6
S'https://open.spotify.com/track/3dINUTtt8noTn16rHcpTTp'
p1618
sg8
S'Criminal'
p1619
ssS'1oNtIPC2XBWpE7A1x9YjQi'
p1620
(dp1621
g3
S'Yandel'
p1622
sg5
I1
sg6
S'https://open.spotify.com/track/1oNtIPC2XBWpE7A1x9YjQi'
p1623
sg8
S'Muy Personal'
p1624
ssS'0a9b4sUavOWgyc9jeScv7Y'
p1625
(dp1626
g3
S'Chyno Miranda'
p1627
sg5
I16
sg6
S'https://open.spotify.com/track/0a9b4sUavOWgyc9jeScv7Y'
p1628
sg8
S'Qu\xc3\xa9date Conmigo'
p1629
ssS'5RINkcwZdd8UG2VQDRKSJT'
p1630
(dp1631
g3
S'Roberto Parra'
p1632
sg5
I1
sg6
S'https://open.spotify.com/track/5RINkcwZdd8UG2VQDRKSJT'
p1633
sg8
S'Los Pobretones N\xc2\xba 1'
p1634
ssS'7zgqtptZvhf8GEmdsM2vp2'
p1635
(dp1636
g3
S'Taylor Swift'
p1637
sg5
I1
sg6
S'https://open.spotify.com/track/7zgqtptZvhf8GEmdsM2vp2'
p1638
sg8
S'...Ready For It?'
p1639
ssS'7sWdGtYvzlzuQRAoZ7fGeO'
p1640
(dp1641
g3
S'Arcangel'
p1642
sg5
I13
sg6
S'https://open.spotify.com/track/7sWdGtYvzlzuQRAoZ7fGeO'
p1643
sg8
S"Po' encima (feat. Bryant Myers)"
p1644
ssS'3ZGLzkuKPU2ngeicx6LqOb'
p1645
(dp1646
g3
S'Camila Gallardo'
p1647
sg5
I8
sg6
S'https://open.spotify.com/track/3ZGLzkuKPU2ngeicx6LqOb'
p1648
sg8
S'Un Poco M\xc3\xa1s De Fr\xc3\xado'
p1649
ssS'7b59ZUw0TkGZuE0HNeiuc4'
p1650
(dp1651
g3
S'Bad Bunny'
p1652
sg5
I13
sg6
S'https://open.spotify.com/track/7b59ZUw0TkGZuE0HNeiuc4'
p1653
sg8
S'Me Llueven 3.0'
p1654
ssS'7jzpAD8q77nwEmSsqUeUjy'
p1655
(dp1656
g3
S'Reykon'
p1657
sg5
I26
sg6
S'https://open.spotify.com/track/7jzpAD8q77nwEmSsqUeUjy'
p1658
sg8
S'D\xc3\xa9jame te explico'
p1659
ssS'0OnqFl8tNKgkIl489RdfuK'
p1660
(dp1661
g3
S'Daddy Yankee'
p1662
sg5
I6
sg6
S'https://open.spotify.com/track/0OnqFl8tNKgkIl489RdfuK'
p1663
sg8
S'Vaiv\xc3\xa9n'
p1664
ssS'2C0KFbb4v9CNWR5c9jWcKC'
p1665
(dp1666
g3
S'Gorillaz'
p1667
sg5
I1
sg6
S'https://open.spotify.com/track/2C0KFbb4v9CNWR5c9jWcKC'
p1668
sg8
S'Andromeda (feat. DRAM)'
p1669
ssS'2FIm6YsSGL5acOqSuJDh5s'
p1670
(dp1671
g3
S'Arcangel'
p1672
sg5
I25
sg6
S'https://open.spotify.com/track/2FIm6YsSGL5acOqSuJDh5s'
p1673
sg8
S'Me Acostumbre (feat. Bad Bunny)'
p1674
ssS'13X0XdLMOdtbXVtAj2ox4h'
p1675
(dp1676
g3
S'Piso 21'
p1677
sg5
I24
sg6
S'https://open.spotify.com/track/13X0XdLMOdtbXVtAj2ox4h'
p1678
sg8
S'Bes\xc3\xa1ndote'
p1679
ssS'2xNZeeqmwMPVKnD7FSQfgt'
p1680
(dp1681
g3
S'Maluma'
p1682
sg5
I30
sg6
S'https://open.spotify.com/track/2xNZeeqmwMPVKnD7FSQfgt'
p1683
sg8
S'Sin Contrato - Remix'
p1684
ssS'4uBPCMjlHaf8xXGYUjUGma'
p1685
(dp1686
g3
S'Los Hidalgos'
p1687
sg5
I1
sg6
S'https://open.spotify.com/track/4uBPCMjlHaf8xXGYUjUGma'
p1688
sg8
S'Deseng\xc3\xa1\xc3\xb1ame Con Tiempo'
p1689
ssS'5kIcrM3QVD4BQPFMszQnU1'
p1690
(dp1691
g3
S'Jesse & Joy'
p1692
sg5
I1
sg6
S'https://open.spotify.com/track/5kIcrM3QVD4BQPFMszQnU1'
p1693
sg8
S'\xc2\xa1Corre!'
p1694
ssS'60a0Rd6pjrkxjPbaKzXjfq'
p1695
(dp1696
g3
S'Linkin Park'
p1697
sg5
I3
sg6
S'https://open.spotify.com/track/60a0Rd6pjrkxjPbaKzXjfq'
p1698
sg8
S'In The End'
p1699
ssS'1OAh8uOEOvTDqkKFsKksCi'
p1700
(dp1701
g3
S'DJ Khaled'
p1702
sg5
I15
sg6
S'https://open.spotify.com/track/1OAh8uOEOvTDqkKFsKksCi'
p1703
sg8
S'Wild Thoughts'
p1704
ssS'0LFjHJnsZd1B6KPnvTmIVy'
p1705
(dp1706
g3
S'Mon Laferte'
p1707
sg5
I1
sg6
S'https://open.spotify.com/track/0LFjHJnsZd1B6KPnvTmIVy'
p1708
sg8
S'No Te Fumes Mi Mariguana'
p1709
ssS'3VRk65lHSwqd90TAkQqhvB'
p1710
(dp1711
g3
S'Katy Perry'
p1712
sg5
I2
sg6
S'https://open.spotify.com/track/3VRk65lHSwqd90TAkQqhvB'
p1713
sg8
S'Swish Swish'
p1714
ssS'09S64DUkxIX9EwIaULu6yN'
p1715
(dp1716
g3
S'Maluma'
p1717
sg5
I35
sg6
S'https://open.spotify.com/track/09S64DUkxIX9EwIaULu6yN'
p1718
sg8
S'Sin Contrato'
p1719
ssS'2naJy8SKJ27gj6ZhRPDKaz'
p1720
(dp1721
g3
S'Rvssian'
p1722
sg5
I10
sg6
S'https://open.spotify.com/track/2naJy8SKJ27gj6ZhRPDKaz'
p1723
sg8
S'Si Tu Lo Dejas'
p1724
ssS'28UP90XhjCovLtieduYr9P'
p1725
(dp1726
g3
S'Mon Laferte'
p1727
sg5
I10
sg6
S'https://open.spotify.com/track/28UP90XhjCovLtieduYr9P'
p1728
sg8
S'Mi Buen Amor'
p1729
ssS'7GncL3nyKUjsEm8Z5gvTpW'
p1730
(dp1731
g3
S'Shakira'
p1732
sg5
I1
sg6
S'https://open.spotify.com/track/7GncL3nyKUjsEm8Z5gvTpW'
p1733
sg8
S'Trap'
p1734
ssS'4sPmO7WMQUAf45kwMOtONw'
p1735
(dp1736
g3
S'Adele'
p1737
sg5
I5
sg6
S'https://open.spotify.com/track/4sPmO7WMQUAf45kwMOtONw'
p1738
sg8
S'Hello'
p1739
ssS'1krAFMg3LJJud49QlvpiVN'
p1740
(dp1741
g3
S'Tito Fern\xc3\xa1ndez'
p1742
sg5
I1
sg6
S'https://open.spotify.com/track/1krAFMg3LJJud49QlvpiVN'
p1743
sg8
S"Pa' Temuco Mi Cueca"
p1744
ssS'0RFFFGtPn6a58RHY3ccVYX'
p1745
(dp1746
g3
S'J Balvin'
p1747
sg5
I31
sg6
S'https://open.spotify.com/track/0RFFFGtPn6a58RHY3ccVYX'
p1748
sg8
S'Si Tu Novio Te Deja Sola'
p1749
ssS'5dH7o4TP3HYLvCjo4QAhhv'
p1750
(dp1751
g3
S'Sak Noel & Salvi'
p1752
sg5
I16
sg6
S'https://open.spotify.com/track/5dH7o4TP3HYLvCjo4QAhhv'
p1753
sg8
S'Trumpets'
p1754
ssS'378iszndTZAR4dH8kwsLC6'
p1755
(dp1756
g3
S'Sia'
p1757
sg5
I6
sg6
S'https://open.spotify.com/track/378iszndTZAR4dH8kwsLC6'
p1758
sg8
S'Cheap Thrills'
p1759
ssS'3nUNwSYEUv9bmUc3de0Owv'
p1760
(dp1761
g3
S'Chayanne'
p1762
sg5
I24
sg6
S'https://open.spotify.com/track/3nUNwSYEUv9bmUc3de0Owv'
p1763
sg8
S'Qu\xc3\xa9 Me Has Hecho'
p1764
ssS'6mORGLOz79w6VsCRLWYYuK'
p1765
(dp1766
g3
S'Lord Huron'
p1767
sg5
I9
sg6
S'https://open.spotify.com/track/6mORGLOz79w6VsCRLWYYuK'
p1768
sg8
S'The Night We Met'
p1769
ssS'5aAx2yezTd8zXrkmtKl66Z'
p1770
(dp1771
g3
S'The Weeknd'
p1772
sg5
I40
sg6
S'https://open.spotify.com/track/5aAx2yezTd8zXrkmtKl66Z'
p1773
sg8
S'Starboy'
p1774
ssS'1SJtlNRJDeYHioymcvsqev'
p1775
(dp1776
g3
S'Camila Cabello'
p1777
sg5
I11
sg6
S'https://open.spotify.com/track/1SJtlNRJDeYHioymcvsqev'
p1778
sg8
S'Crying in the Club'
p1779
ssS'04DwTuZ2VBdJCCC5TROn7L'
p1780
(dp1781
g3
S'Martin Garrix'
p1782
sg5
I36
sg6
S'https://open.spotify.com/track/04DwTuZ2VBdJCCC5TROn7L'
p1783
sg8
S'In the Name of Love'
p1784
ssS'6VHdcVbiKLYYOcMbIqBcuK'
p1785
(dp1786
g3
S'Cali Y El Dandee'
p1787
sg5
I37
sg6
S'https://open.spotify.com/track/6VHdcVbiKLYYOcMbIqBcuK'
p1788
sg8
S'Lumbra'
p1789
ssS'7Ckhk1XW5NV2k4jpqtQNlz'
p1790
(dp1791
g3
S'Valentino'
p1792
sg5
I5
sg6
S'https://open.spotify.com/track/7Ckhk1XW5NV2k4jpqtQNlz'
p1793
sg8
S'Besame'
p1794
ssS'5o35aPa2xPLLC3rw7Hoc83'
p1795
(dp1796
g3
S'Nicky Jam'
p1797
sg5
I2
sg6
S'https://open.spotify.com/track/5o35aPa2xPLLC3rw7Hoc83'
p1798
sg8
S'Superh\xc3\xa9roe'
p1799
ssS'5hKjEpYrJIJs6uPl7zw6Y6'
p1800
(dp1801
g3
S'Jory Boy'
p1802
sg5
I30
sg6
S'https://open.spotify.com/track/5hKjEpYrJIJs6uPl7zw6Y6'
p1803
sg8
S'No Te Hagas'
p1804
ssS'3VSt7R9LHTomKGP1RhkvuT'
p1805
(dp1806
g3
S'Rombai'
p1807
sg5
I23
sg6
S'https://open.spotify.com/track/3VSt7R9LHTomKGP1RhkvuT'
p1808
sg8
S'Una y Otra Vez'
p1809
ssS'2y8z6WcAWcpYsUSdZidJog'
p1810
(dp1811
g3
S'Roberto Parra'
p1812
sg5
I1
sg6
S'https://open.spotify.com/track/2y8z6WcAWcpYsUSdZidJog'
p1813
sg8
S'La Bebe'
p1814
ssS'4VXejnj5WgM6H72ct2fSgQ'
p1815
(dp1816
g3
S'Reykon'
p1817
sg5
I15
sg6
S'https://open.spotify.com/track/4VXejnj5WgM6H72ct2fSgQ'
p1818
sg8
S'El Chisme'
p1819
ssS'6VRghJeP6I0w1KxkdWFfIh'
p1820
(dp1821
g3
S'Imagine Dragons'
p1822
sg5
I3
sg6
S'https://open.spotify.com/track/6VRghJeP6I0w1KxkdWFfIh'
p1823
sg8
S'Believer'
p1824
ssS'6SznMYPQJHzr3IwsAHLId2'
p1825
(dp1826
g3
S'Ed Sheeran'
p1827
sg5
I1
sg6
S'https://open.spotify.com/track/6SznMYPQJHzr3IwsAHLId2'
p1828
sg8
S'Bibia Be Ye Ye'
p1829
ssS'5J1c3M4EldCfNxXwrwt8mT'
p1830
(dp1831
g3
S'Sebastian Yatra'
p1832
sg5
I41
sg6
S'https://open.spotify.com/track/5J1c3M4EldCfNxXwrwt8mT'
p1833
sg8
S'Traicionera'
p1834
ssS'5zSOVwaY3sVjnmLhuEfsuf'
p1835
(dp1836
g3
S'Ozuna'
p1837
sg5
I7
sg6
S'https://open.spotify.com/track/5zSOVwaY3sVjnmLhuEfsuf'
p1838
sg8
S'T\xc3\xba Foto'
p1839
ssS'2qHiGVZkLDpQr5MsBWspSD'
p1840
(dp1841
g3
S'Gigolo Y La Exce'
p1842
sg5
I11
sg6
S'https://open.spotify.com/track/2qHiGVZkLDpQr5MsBWspSD'
p1843
sg8
S'Te Robo Remix'
p1844
ssS'6NSMQFKgjpQb0KkjMDYIK0'
p1845
(dp1846
g3
S'Arcangel'
p1847
sg5
I41
sg6
S'https://open.spotify.com/track/6NSMQFKgjpQb0KkjMDYIK0'
p1848
sg8
S'Tu No Vive Asi (feat. Mambo Kingz & DJ Luian)'
p1849
ssS'0A2h9QjoPdbVwa9LFiijqM'
p1850
(dp1851
g3
S'Justin Quiles'
p1852
sg5
I23
sg6
S'https://open.spotify.com/track/0A2h9QjoPdbVwa9LFiijqM'
p1853
sg8
S'Si Ella Quisiera - Remix'
p1854
ssS'11zRKpjEZwmcBBBGzB4pMn'
p1855
(dp1856
g3
S'Rvssian'
p1857
sg5
I39
sg6
S'https://open.spotify.com/track/11zRKpjEZwmcBBBGzB4pMn'
p1858
sg8
S'Privado'
p1859
ssS'7m9OqQk4RVRkw9JJdeAw96'
p1860
(dp1861
g3
S'XXXTENTACION'
p1862
sg5
I6
sg6
S'https://open.spotify.com/track/7m9OqQk4RVRkw9JJdeAw96'
p1863
sg8
S'Jocelyn Flores'
p1864
ssS'1uihSnDxZidO3IMM2hmUBW'
p1865
(dp1866
g3
S'Jon Z'
p1867
sg5
I4
sg6
S'https://open.spotify.com/track/1uihSnDxZidO3IMM2hmUBW'
p1868
sg8
S'Nunca Me Amo'
p1869
ssS'2LW4Zu7FcrwjWm3t5Rv3Oq'
p1870
(dp1871
g3
S'Ozuna'
p1872
sg5
I3
sg6
S'https://open.spotify.com/track/2LW4Zu7FcrwjWm3t5Rv3Oq'
p1873
sg8
S'El Farsante'
p1874
ssS'00kIWJu9IHiQ6i0qJAU0Z9'
p1875
(dp1876
g3
S'Mon Laferte'
p1877
sg5
I40
sg6
S'https://open.spotify.com/track/00kIWJu9IHiQ6i0qJAU0Z9'
p1878
sg8
S'Amor Completo'
p1879
ssS'1WbXIpiGBJkCiv3hn40iPB'
p1880
(dp1881
g3
S'Romeo Santos'
p1882
sg5
I8
sg6
S'https://open.spotify.com/track/1WbXIpiGBJkCiv3hn40iPB'
p1883
sg8
S'Sobredosis'
p1884
ssS'5VW1EsUBGGCng7GhBvtElx'
p1885
(dp1886
g3
S'Big Yamo'
p1887
sg5
I3
sg6
S'https://open.spotify.com/track/5VW1EsUBGGCng7GhBvtElx'
p1888
sg8
S'Entre la Playa Ella y Yo (feat. Vato 18k)'
p1889
ssS'0B6GRS3vGtzu6w5BQXqWMq'
p1890
(dp1891
g3
S'Dasoul'
p1892
sg5
I18
sg6
S'https://open.spotify.com/track/0B6GRS3vGtzu6w5BQXqWMq'
p1893
sg8
S'Kung Fu'
p1894
ssS'5Ohxk2dO5COHF1krpoPigN'
p1895
(dp1896
g3
S'Harry Styles'
p1897
sg5
I24
sg6
S'https://open.spotify.com/track/5Ohxk2dO5COHF1krpoPigN'
p1898
sg8
S'Sign of the Times'
p1899
ssS'4JmgbZqnfpQ4pn2OKHgSJb'
p1900
(dp1901
g3
S'Movimiento Original'
p1902
sg5
I1
sg6
S'https://open.spotify.com/track/4JmgbZqnfpQ4pn2OKHgSJb'
p1903
sg8
S'Preparao'
p1904
ssS'2MRv991PzjY2ecCluXoRq9'
p1905
(dp1906
g3
S'Pitbull'
p1907
sg5
I4
sg6
S'https://open.spotify.com/track/2MRv991PzjY2ecCluXoRq9'
p1908
sg8
S'Como Yo Le Doy - Spanglish Version'
p1909
ssS'5Fim1gaXBgsiFfsQAfQSDS'
p1910
(dp1911
g3
S'Nicky Jam'
p1912
sg5
I29
sg6
S'https://open.spotify.com/track/5Fim1gaXBgsiFfsQAfQSDS'
p1913
sg8
S'Hasta el Amanecer'
p1914
ssS'6wHm04cn5HxK6pE2ITEdUS'
p1915
(dp1916
g3
S'Cosculluela'
p1917
sg5
I25
sg6
S'https://open.spotify.com/track/6wHm04cn5HxK6pE2ITEdUS'
p1918
sg8
S'Te Busco (feat. Nicky Jam)'
p1919
ssS'4mxWSdf71VFO52qFeY0fZt'
p1920
(dp1921
g3
S'Maroon 5'
p1922
sg5
I6
sg6
S'https://open.spotify.com/track/4mxWSdf71VFO52qFeY0fZt'
p1923
sg8
S'What Lovers Do (feat. SZA)'
p1924
ssS'4Hf7WnR761jpxPr5D46Bcd'
p1925
(dp1926
g3
S'Shawn Mendes'
p1927
sg5
I28
sg6
S'https://open.spotify.com/track/4Hf7WnR761jpxPr5D46Bcd'
p1928
sg8
S'Treat You Better'
p1929
ssS'2NItmgHAUnsICEWIY5DQmj'
p1930
(dp1931
g3
S'La Combo Tortuga'
p1932
sg5
I1
sg6
S'https://open.spotify.com/track/2NItmgHAUnsICEWIY5DQmj'
p1933
sg8
S'Te Vuelvo a Ver'
p1934
ssS'3AEZUABDXNtecAOSC1qTfo'
p1935
(dp1936
g3
S'CNCO'
p1937
sg5
I41
sg6
S'https://open.spotify.com/track/3AEZUABDXNtecAOSC1qTfo'
p1938
sg8
S'Reggaet\xc3\xb3n Lento (Bailemos)'
p1939
ssS'3A2vH1cqcMW61wVwZFMLaV'
p1940
(dp1941
g3
S'Noche de Brujas'
p1942
sg5
I4
sg6
S'https://open.spotify.com/track/3A2vH1cqcMW61wVwZFMLaV'
p1943
sg8
S'La Bes\xc3\xa9'
p1944
ssS'1T45DsQ4HFLJgthyedAa8V'
p1945
(dp1946
g3
S'CNCO'
p1947
sg5
I11
sg6
S'https://open.spotify.com/track/1T45DsQ4HFLJgthyedAa8V'
p1948
sg8
S'Reggaet\xc3\xb3n Lento (Bailemos) - Remix'
p1949
ssS'4S2JBCs9FfFEJPLEf8YiE7'
p1950
(dp1951
g3
S'Nicky Jam'
p1952
sg5
I1
sg6
S'https://open.spotify.com/track/4S2JBCs9FfFEJPLEf8YiE7'
p1953
sg8
S'Estrella'
p1954
ssS'7xHWNBFm6ObGEQPaUxHuKO'
p1955
(dp1956
g3
S'Sia'
p1957
sg5
I13
sg6
S'https://open.spotify.com/track/7xHWNBFm6ObGEQPaUxHuKO'
p1958
sg8
S'The Greatest'
p1959
ssS'6m2LNopVJKsvBB9l7Z1rwn'
p1960
(dp1961
g3
S'MC Kevinho'
p1962
sg5
I4
sg6
S'https://open.spotify.com/track/6m2LNopVJKsvBB9l7Z1rwn'
p1963
sg8
S'Olha a Explos\xc3\xa3o'
p1964
ssS'5knuzwU65gJK7IF5yJsuaW'
p1965
(dp1966
g3
S'Clean Bandit'
p1967
sg5
I41
sg6
S'https://open.spotify.com/track/5knuzwU65gJK7IF5yJsuaW'
p1968
sg8
S'Rockabye (feat. Sean Paul & Anne-Marie)'
p1969
ssS'5rKEC4enuOXJ37zx9OCz2G'
p1970
(dp1971
g3
S'Cosculluela'
p1972
sg5
I1
sg6
S'https://open.spotify.com/track/5rKEC4enuOXJ37zx9OCz2G'
p1973
sg8
S'A Donde Voy (feat. Daddy Yankee)'
p1974
ssS'4VrWlk8IQxevMvERoX08iC'
p1975
(dp1976
g3
S'Sia'
p1977
sg5
I7
sg6
S'https://open.spotify.com/track/4VrWlk8IQxevMvERoX08iC'
p1978
sg8
S'Chandelier'
p1979
ssS'3MHy2HsvmcoOGsXr4SXajY'
p1980
(dp1981
g3
S'Hugo Lagos'
p1982
sg5
I1
sg6
S'https://open.spotify.com/track/3MHy2HsvmcoOGsXr4SXajY'
p1983
sg8
S'M\xc3\xa1ndame a Quitar la Vida'
p1984
ssS'14WWzenpaEgQZlqPq2nk4v'
p1985
(dp1986
g3
S'Rihanna'
p1987
sg5
I13
sg6
S'https://open.spotify.com/track/14WWzenpaEgQZlqPq2nk4v'
p1988
sg8
S'Work'
p1989
ssS'2HqlnQkOtLFLyQgOVYqWkU'
p1990
(dp1991
g3
S'Juanes'
p1992
sg5
I3
sg6
S'https://open.spotify.com/track/2HqlnQkOtLFLyQgOVYqWkU'
p1993
sg8
S'El Ratico'
p1994
ssS'6b8Be6ljOzmkOmFslEb23P'
p1995
(dp1996
g3
S'Bruno Mars'
p1997
sg5
I41
sg6
S'https://open.spotify.com/track/6b8Be6ljOzmkOmFslEb23P'
p1998
sg8
S'24K Magic'
p1999
ssS'3OYAJDY4mA4pjiwC5X5a5l'
p2000
(dp2001
g3
S'Roberto Parra'
p2002
sg5
I1
sg6
S'https://open.spotify.com/track/3OYAJDY4mA4pjiwC5X5a5l'
p2003
sg8
S"Ya Me Voy d'Espalda E' Loro"
p2004
ssS'0nApFXPoSanA4n7j563Ind'
p2005
(dp2006
g3
S'Moral Distraida'
p2007
sg5
I35
sg6
S'https://open.spotify.com/track/0nApFXPoSanA4n7j563Ind'
p2008
sg8
S'Hacerlo de D\xc3\xada'
p2009
ssS'1i52sh56NRpwyO3qREWMX7'
p2010
(dp2011
g3
S'Mon Laferte'
p2012
sg5
I5
sg6
S'https://open.spotify.com/track/1i52sh56NRpwyO3qREWMX7'
p2013
sg8
S'Yo Te Qui'
p2014
ssS'5mmeEKfSZZiggiRsNF5kot'
p2015
(dp2016
g3
S'Carlitos Rossy'
p2017
sg5
I4
sg6
S'https://open.spotify.com/track/5mmeEKfSZZiggiRsNF5kot'
p2018
sg8
S'Quien Dijo Amigos'
p2019
ssS'2CkHE54EH44Qj945ynQRw7'
p2020
(dp2021
g3
S'Man\xc3\xa1'
p2022
sg5
I15
sg6
S'https://open.spotify.com/track/2CkHE54EH44Qj945ynQRw7'
p2023
sg8
S'De Pies a Cabeza'
p2024
ssS'4hiUYb2nb6NlfTP9CD38Pe'
p2025
(dp2026
g3
S'Ti\xc3\xabsto'
p2027
sg5
I6
sg6
S'https://open.spotify.com/track/4hiUYb2nb6NlfTP9CD38Pe'
p2028
sg8
S'On My Way'
p2029
ssS'5DA77EqppDmCTWGovd4oTP'
p2030
(dp2031
g3
S'Cheat Codes'
p2032
sg5
I7
sg6
S'https://open.spotify.com/track/5DA77EqppDmCTWGovd4oTP'
p2033
sg8
S'Sex'
p2034
ssS'2rrJfOphzn4uQCK9X0x6R6'
p2035
(dp2036
g3
S'El Nene La amenaza'
p2037
sg5
I1
sg6
S'https://open.spotify.com/track/2rrJfOphzn4uQCK9X0x6R6'
p2038
sg8
S'Solo'
p2039
ssS'5LaFsX7xieieqNqMdkifXq'
p2040
(dp2041
g3
S'Roberto Parra'
p2042
sg5
I1
sg6
S'https://open.spotify.com/track/5LaFsX7xieieqNqMdkifXq'
p2043
sg8
S'Los Pobretones N\xc2\xba 2'
p2044
ssS'3pk19nKnFSl9E4X7gqq10A'
p2045
(dp2046
g3
S'Jory Boy'
p2047
sg5
I10
sg6
S'https://open.spotify.com/track/3pk19nKnFSl9E4X7gqq10A'
p2048
sg8
S'Desafio (feat. Maluma)'
p2049
ssS'7F9vK8hNFMml4GtHsaXui6'
p2050
(dp2051
g3
S'Louis Tomlinson'
p2052
sg5
I12
sg6
S'https://open.spotify.com/track/7F9vK8hNFMml4GtHsaXui6'
p2053
sg8
S'Back to You (feat. Bebe Rexha & Digital Farm Animals)'
p2054
ssS'3tVJL94PMydAiNa9Jy549x'
p2055
(dp2056
g3
S'Schuster'
p2057
sg5
I2
sg6
S'https://open.spotify.com/track/3tVJL94PMydAiNa9Jy549x'
p2058
sg8
S'Llore'
p2059
ssS'7FNGvLaI5tivoCAsxFVaMD'
p2060
(dp2061
g3
S'Lil Jon'
p2062
sg5
I5
sg6
S'https://open.spotify.com/track/7FNGvLaI5tivoCAsxFVaMD'
p2063
sg8
S'Gasolina Budda Remix - Remix'
p2064
ssS'4Zke60QJMlW60qnXmYLdC8'
p2065
(dp2066
g3
S'Anuel Aa'
p2067
sg5
I9
sg6
S'https://open.spotify.com/track/4Zke60QJMlW60qnXmYLdC8'
p2068
sg8
S'Sola'
p2069
ssS'3B54sVLJ402zGa6Xm4YGNe'
p2070
(dp2071
g3
S'French Montana'
p2072
sg5
I14
sg6
S'https://open.spotify.com/track/3B54sVLJ402zGa6Xm4YGNe'
p2073
sg8
S'Unforgettable'
p2074
ssS'2Zw7rSucHm0MIph9gmNiSn'
p2075
(dp2076
g3
S'Alejandro Fernandez'
p2077
sg5
I2
sg6
S'https://open.spotify.com/track/2Zw7rSucHm0MIph9gmNiSn'
p2078
sg8
S'Quiero Que Vuelvas'
p2079
ssS'6gpcs5eMhJwax4mIfKDYQk'
p2080
(dp2081
g3
S'Calvin Harris'
p2082
sg5
I3
sg6
S'https://open.spotify.com/track/6gpcs5eMhJwax4mIfKDYQk'
p2083
sg8
S'Slide'
p2084
ssS'5bcTCxgc7xVfSaMV3RuVke'
p2085
(dp2086
g3
S'Calvin Harris'
p2087
sg5
I16
sg6
S'https://open.spotify.com/track/5bcTCxgc7xVfSaMV3RuVke'
p2088
sg8
S'Feels'
p2089
ssS'0QsvXIfqM0zZoerQfsI9lm'
p2090
(dp2091
g3
S'The Chainsmokers'
p2092
sg5
I27
sg6
S'https://open.spotify.com/track/0QsvXIfqM0zZoerQfsI9lm'
p2093
sg8
S"Don't Let Me Down"
p2094
ssS'7w87IxuO7BDcJ3YUqCyMTT'
p2095
(dp2096
g3
S'Foster The People'
p2097
sg5
I1
sg6
S'https://open.spotify.com/track/7w87IxuO7BDcJ3YUqCyMTT'
p2098
sg8
S'Pumped Up Kicks'
p2099
ssS'0YFoSD5VhoVrRbrnFERpVM'
p2100
(dp2101
g3
S'Rombai'
p2102
sg5
I9
sg6
S'https://open.spotify.com/track/0YFoSD5VhoVrRbrnFERpVM'
p2103
sg8
S'Yo te propongo'
p2104
ssS'56lBX2WHqfGuoeZxZvUnVj'
p2105
(dp2106
g3
S'Imagine Dragons'
p2107
sg5
I3
sg6
S'https://open.spotify.com/track/56lBX2WHqfGuoeZxZvUnVj'
p2108
sg8
S'Thunder'
p2109
ssS'4qqArAiTPueDxIp7cf87h7'
p2110
(dp2111
g3
S'M\xc3\x98'
p2112
sg5
I3
sg6
S'https://open.spotify.com/track/4qqArAiTPueDxIp7cf87h7'
p2113
sg8
S'Final Song'
p2114
ssS'2nLtzopw4rPReszdYBJU6h'
p2115
(dp2116
g3
S'Linkin Park'
p2117
sg5
I2
sg6
S'https://open.spotify.com/track/2nLtzopw4rPReszdYBJU6h'
p2118
sg8
S'Numb'
p2119
ssS'3uPLiBTUgz7wrGJ2mw1rzM'
p2120
(dp2121
g3
S'Bad Bunny'
p2122
sg5
I20
sg6
S'https://open.spotify.com/track/3uPLiBTUgz7wrGJ2mw1rzM'
p2123
sg8
S'Blockia'
p2124
ssS'0ofbQMrRDsUaVKq2mGLEAb'
p2125
(dp2126
g3
S'Camila Cabello'
p2127
sg5
I8
sg6
S'https://open.spotify.com/track/0ofbQMrRDsUaVKq2mGLEAb'
p2128
sg8
S'Havana'
p2129
ssS'580gh01pywO8H2p5atKoQj'
p2130
(dp2131
g3
S'Zion & Lennox'
p2132
sg5
I2
sg6
S'https://open.spotify.com/track/580gh01pywO8H2p5atKoQj'
p2133
sg8
S'Dame Tu Amor'
p2134
ssS'2SGdKTPv974Mzsqc2HvRog'
p2135
(dp2136
g3
S'Am\xc3\xa9rico'
p2137
sg5
I2
sg6
S'https://open.spotify.com/track/2SGdKTPv974Mzsqc2HvRog'
p2138
sg8
S'La Duda'
p2139
ssS'6bLopGnirdrilrpdVB6Um1'
p2140
(dp2141
g3
S'Sia'
p2142
sg5
I7
sg6
S'https://open.spotify.com/track/6bLopGnirdrilrpdVB6Um1'
p2143
sg8
S'The Greatest'
p2144
ssS'1AkTW13ysu0AJrwuM6UY0I'
p2145
(dp2146
g3
S'Charly Black'
p2147
sg5
I41
sg6
S'https://open.spotify.com/track/1AkTW13ysu0AJrwuM6UY0I'
p2148
sg8
S'Gyal You A Party Animal - Remix'
p2149
ssS'2PgsOTPkF25VJ9cZmUjSKE'
p2150
(dp2151
g3
S'Pusho'
p2152
sg5
I8
sg6
S'https://open.spotify.com/track/2PgsOTPkF25VJ9cZmUjSKE'
p2153
sg8
S'La Realidad (Remix)'
p2154
ssS'1vvNmPOiUuyCbgWmtc6yfm'
p2155
(dp2156
g3
S'Calvin Harris'
p2157
sg5
I35
sg6
S'https://open.spotify.com/track/1vvNmPOiUuyCbgWmtc6yfm'
p2158
sg8
S'My Way'
p2159
ssS'5ommnX8qOlbjRspCEFkn57'
p2160
(dp2161
g3
S'Alexis & Fido'
p2162
sg5
I25
sg6
S'https://open.spotify.com/track/5ommnX8qOlbjRspCEFkn57'
p2163
sg8
S'La C\xc3\xb3mplice'
p2164
ssS'5vZfgeDfNhlkKeJqjzSAmg'
p2165
(dp2166
g3
S'Alejandro Fernandez'
p2167
sg5
I26
sg6
S'https://open.spotify.com/track/5vZfgeDfNhlkKeJqjzSAmg'
p2168
sg8
S'S\xc3\xa9 Que Te Duele'
p2169
ssS'04f13iELcsYpY2yeLiAcfq'
p2170
(dp2171
g3
S'Nicky Jam'
p2172
sg5
I15
sg6
S'https://open.spotify.com/track/04f13iELcsYpY2yeLiAcfq'
p2173
sg8
S'El Amante - Remix'
p2174
ssS'5u5MvmVtitax9R1Mxh3reC'
p2175
(dp2176
g3
S'Ozuna'
p2177
sg5
I7
sg6
S'https://open.spotify.com/track/5u5MvmVtitax9R1Mxh3reC'
p2178
sg8
S'Dile Que Tu Me Quieres'
p2179
ssS'5YzA563GXTuwQaRq24z1k5'
p2180
(dp2181
g3
S'Yandel'
p2182
sg5
I5
sg6
S'https://open.spotify.com/track/5YzA563GXTuwQaRq24z1k5'
p2183
sg8
S'Como Antes'
p2184
ssS'0afhq8XCExXpqazXczTSve'
p2185
(dp2186
g3
S'Ed Sheeran'
p2187
sg5
I20
sg6
S'https://open.spotify.com/track/0afhq8XCExXpqazXczTSve'
p2188
sg8
S'Galway Girl'
p2189
ssS'7wKrYpEkIa4NNSwkd1YqRQ'
p2190
(dp2191
g3
S'La Combo Tortuga'
p2192
sg5
I2
sg6
S'https://open.spotify.com/track/7wKrYpEkIa4NNSwkd1YqRQ'
p2193
sg8
S'Soy Feo Pero Rico'
p2194
ssS'6F35s1d7QRKjbjBbpccVQp'
p2195
(dp2196
g3
S'CD9'
p2197
sg5
I1
sg6
S'https://open.spotify.com/track/6F35s1d7QRKjbjBbpccVQp'
p2198
sg8
S'No Le Hablen de Amor (Remix)'
p2199
ssS'5TysCiZtv1HnSWcTcUFusI'
p2200
(dp2201
g3
S'Joey Montana'
p2202
sg5
I6
sg6
S'https://open.spotify.com/track/5TysCiZtv1HnSWcTcUFusI'
p2203
sg8
S'Suena El Dembow'
p2204
ssS'4AbYhejCgbjMxCrklOzK6i'
p2205
(dp2206
g3
S'Schuster'
p2207
sg5
I20
sg6
S'https://open.spotify.com/track/4AbYhejCgbjMxCrklOzK6i'
p2208
sg8
S'Me Enamore'
p2209
ssS'4J1e3hbf0e5YUZjkxyJWD3'
p2210
(dp2211
g3
S'Anuel Aa'
p2212
sg5
I22
sg6
S'https://open.spotify.com/track/4J1e3hbf0e5YUZjkxyJWD3'
p2213
sg8
S'La \xc3\x9altima Vez'
p2214
ssS'4TZy1wLyHec06pwgFYDh1a'
p2215
(dp2216
g3
S'Shawn Mendes'
p2217
sg5
I8
sg6
S'https://open.spotify.com/track/4TZy1wLyHec06pwgFYDh1a'
p2218
sg8
S'Mercy'
p2219
ssS'1EqpA8E6HWNXkVvof75oMG'
p2220
(dp2221
g3
S'Movimiento Original'
p2222
sg5
I2
sg6
S'https://open.spotify.com/track/1EqpA8E6HWNXkVvof75oMG'
p2223
sg8
S'Preparao'
p2224
ssS'4sA0dk2U5tJiPYtx3ZrbIf'
p2225
(dp2226
g3
S'Jacob Forever'
p2227
sg5
I12
sg6
S'https://open.spotify.com/track/4sA0dk2U5tJiPYtx3ZrbIf'
p2228
sg8
S'Qui\xc3\xa9reme'
p2229
ssS'5HABnFSYvl6mTmg8nSdzHa'
p2230
(dp2231
g3
S'Zion & Lennox'
p2232
sg5
I41
sg6
S'https://open.spotify.com/track/5HABnFSYvl6mTmg8nSdzHa'
p2233
sg8
S'Mi Tesoro (feat. Nicky Jam)'
p2234
ssS'1mSzZKMIPZIkn3jFV7v62b'
p2235
(dp2236
g3
S'Charly Black'
p2237
sg5
I10
sg6
S'https://open.spotify.com/track/1mSzZKMIPZIkn3jFV7v62b'
p2238
sg8
S'Gyal You A Party Animal'
p2239
ssS'6EpRaXYhGOB3fj4V2uDkMJ'
p2240
(dp2241
g3
S'Liam Payne'
p2242
sg5
I14
sg6
S'https://open.spotify.com/track/6EpRaXYhGOB3fj4V2uDkMJ'
p2243
sg8
S'Strip That Down'
p2244
ssS'0bMRpUsk1IWi5O2NIkWsqR'
p2245
(dp2246
g3
S'Luny Tunes'
p2247
sg5
I38
sg6
S'https://open.spotify.com/track/0bMRpUsk1IWi5O2NIkWsqR'
p2248
sg8
S'Mayor Que Yo 3'
p2249
ssS'4efQTJSX6Jca1hHZNi74Zd'
p2250
(dp2251
g3
S'Carlos Baute'
p2252
sg5
I18
sg6
S'https://open.spotify.com/track/4efQTJSX6Jca1hHZNi74Zd'
p2253
sg8
S'Amor y dolor'
p2254
ssS'2OxUtaKYeahAGNaBiahXtR'
p2255
(dp2256
g3
S'Farruko'
p2257
sg5
I31
sg6
S'https://open.spotify.com/track/2OxUtaKYeahAGNaBiahXtR'
p2258
sg8
S'Diabla - Official Remix'
p2259
ssS'4Q4jmPHwu0wrJvqrld0FQ6'
p2260
(dp2261
g3
S'Zara Larsson'
p2262
sg5
I1
sg6
S'https://open.spotify.com/track/4Q4jmPHwu0wrJvqrld0FQ6'
p2263
sg8
S'I Would Like'
p2264
ssS'1MpKZi1zTXpERKwxmOu1PH'
p2265
(dp2266
g3
S'Rombai'
p2267
sg5
I41
sg6
S'https://open.spotify.com/track/1MpKZi1zTXpERKwxmOu1PH'
p2268
sg8
S'Cuando Se Pone a Bailar'
p2269
ssS'3jpqMaJREkmVDYlRvW1qWC'
p2270
(dp2271
g3
S'Piso 21'
p2272
sg5
I2
sg6
S'https://open.spotify.com/track/3jpqMaJREkmVDYlRvW1qWC'
p2273
sg8
S'Me llamas'
p2274
ssS'2OiwhJfqhP0xuS8n3XQMHR'
p2275
(dp2276
g3
S'Mike Bah\xc3\xada'
p2277
sg5
I2
sg6
S'https://open.spotify.com/track/2OiwhJfqhP0xuS8n3XQMHR'
p2278
sg8
S'D\xc3\xa9jame'
p2279
ssS'3mNK26y57iajGgBnyvzJgp'
p2280
(dp2281
g3
S'Miguel Bos\xc3\xa9'
p2282
sg5
I1
sg6
S'https://open.spotify.com/track/3mNK26y57iajGgBnyvzJgp'
p2283
sg8
S'Libre ya de amores'
p2284
ssS'3D6gA9PDy5D6hTE6UHRd3k'
p2285
(dp2286
g3
S'Hermanos Morales'
p2287
sg5
I1
sg6
S'https://open.spotify.com/track/3D6gA9PDy5D6hTE6UHRd3k'
p2288
sg8
S'Tus Ojos Moreno Vide'
p2289
ssS'1m69ELEgE6k5ZWsap40ozt'
p2290
(dp2291
g3
S'Ozuna'
p2292
sg5
I7
sg6
S'https://open.spotify.com/track/1m69ELEgE6k5ZWsap40ozt'
p2293
sg8
S'Se Prepar\xc3\xb3'
p2294
ssS'72Q0FQQo32KJloivv5xge2'
p2295
(dp2296
g3
S'DJ Khaled'
p2297
sg5
I3
sg6
S'https://open.spotify.com/track/72Q0FQQo32KJloivv5xge2'
p2298
sg8
S"I'm the One"
p2299
ssS'4tPL9PeVZY4c0jUPtSD5nx'
p2300
(dp2301
g3
S'Joey Montana'
p2302
sg5
I9
sg6
S'https://open.spotify.com/track/4tPL9PeVZY4c0jUPtSD5nx'
p2303
sg8
S'Picky'
p2304
ssS'5EId1m4DNwTf3at31w8bPJ'
p2305
(dp2306
g3
S'Ozuna'
p2307
sg5
I7
sg6
S'https://open.spotify.com/track/5EId1m4DNwTf3at31w8bPJ'
p2308
sg8
S'El Farsante'
p2309
ssS'6PCUP3dWmTjcTtXY02oFdT'
p2310
(dp2311
g3
S'Ed Sheeran'
p2312
sg5
I24
sg6
S'https://open.spotify.com/track/6PCUP3dWmTjcTtXY02oFdT'
p2313
sg8
S'Castle on the Hill'
p2314
ssS'4CTjql34LKCJy5WOSgEhvA'
p2315
(dp2316
g3
S'Silvestre Dangond'
p2317
sg5
I4
sg6
S'https://open.spotify.com/track/4CTjql34LKCJy5WOSgEhvA'
p2318
sg8
S'Ya No Me Duele M\xc3\xa1s - Remix'
p2319
ssS'42QpgFFhu8SIKFK2dp0kUj'
p2320
(dp2321
g3
S'Wisin'
p2322
sg5
I14
sg6
S'https://open.spotify.com/track/42QpgFFhu8SIKFK2dp0kUj'
p2323
sg8
S'Vacaciones - Remix'
p2324
ssS'2wgDAPgBhFA7pnIbm0YOhP'
p2325
(dp2326
g3
S'Bad Bunny'
p2327
sg5
I25
sg6
S'https://open.spotify.com/track/2wgDAPgBhFA7pnIbm0YOhP'
p2328
sg8
S'Me Mata'
p2329
ssS'4N1c5rmWOzRmB9SMacr5wB'
p2330
(dp2331
g3
S'Abraham Mateo'
p2332
sg5
I16
sg6
S'https://open.spotify.com/track/4N1c5rmWOzRmB9SMacr5wB'
p2333
sg8
S'Loco Enamorado'
p2334
ssS'104buTcnP2AsxqB7U1FIZ4'
p2335
(dp2336
g3
S'Linkin Park'
p2337
sg5
I1
sg6
S'https://open.spotify.com/track/104buTcnP2AsxqB7U1FIZ4'
p2338
sg8
S'Heavy (feat. Kiiara)'
p2339
ssS'3eJXyMJRMssfZmUP9H0pa3'
p2340
(dp2341
g3
S'Hermanos Morales'
p2342
sg5
I1
sg6
S'https://open.spotify.com/track/3eJXyMJRMssfZmUP9H0pa3'
p2343
sg8
S'En Santiago Se Est\xc3\xa1 Viendo'
p2344
ssS'1PSBzsahR2AKwLJgx8ehBj'
p2345
(dp2346
g3
S'Machine Gun Kelly'
p2347
sg5
I5
sg6
S'https://open.spotify.com/track/1PSBzsahR2AKwLJgx8ehBj'
p2348
sg8
S'Bad Things (with Camila Cabello)'
p2349
ssS'5gFAT2DbEt4TOMXyAMEixG'
p2350
(dp2351
g3
S'Brytiago'
p2352
sg5
I13
sg6
S'https://open.spotify.com/track/5gFAT2DbEt4TOMXyAMEixG'
p2353
sg8
S'Netflixxx'
p2354
ssS'0sXvAOmXgjR2QUqLK1MltU'
p2355
(dp2356
g3
S'Carlos Vives'
p2357
sg5
I41
sg6
S'https://open.spotify.com/track/0sXvAOmXgjR2QUqLK1MltU'
p2358
sg8
S'La Bicicleta'
p2359
ssS'3m660poUr1chesgkkjQM7P'
p2360
(dp2361
g3
S'Demi Lovato'
p2362
sg5
I2
sg6
S'https://open.spotify.com/track/3m660poUr1chesgkkjQM7P'
p2363
sg8
S'Sorry Not Sorry'
p2364
ssS'1GZZELGFwWsi2oLE1v1eyQ'
p2365
(dp2366
g3
S'Nicky Jam'
p2367
sg5
I3
sg6
S'https://open.spotify.com/track/1GZZELGFwWsi2oLE1v1eyQ'
p2368
sg8
S'Por el Momento'
p2369
ssS'05ZXXyeZFhZtA6DAP3Aw7x'
p2370
(dp2371
g3
S'Maite Perroni'
p2372
sg5
I17
sg6
S'https://open.spotify.com/track/05ZXXyeZFhZtA6DAP3Aw7x'
p2373
sg8
S'Loca (feat. Cali Y El Dandee)'
p2374
ssS'72FJjSdfMCXiVcZTgR3Q6G'
p2375
(dp2376
g3
S'Tito El Bambino'
p2377
sg5
I13
sg6
S'https://open.spotify.com/track/72FJjSdfMCXiVcZTgR3Q6G'
p2378
sg8
S'A Que No Te Atreves'
p2379
ssS'3ebXMykcMXOcLeJ9xZ17XH'
p2380
(dp2381
g3
S'Martin Garrix'
p2382
sg5
I35
sg6
S'https://open.spotify.com/track/3ebXMykcMXOcLeJ9xZ17XH'
p2383
sg8
S'Scared to Be Lonely'
p2384
ssS'5j35m0VodPLiRxfG3fmTSP'
p2385
(dp2386
g3
S'Mon Laferte'
p2387
sg5
I4
sg6
S'https://open.spotify.com/track/5j35m0VodPLiRxfG3fmTSP'
p2388
sg8
S'Vuelve por Favor'
p2389
ssS'6fujklziTHa8uoM5OQSfIo'
p2390
(dp2391
g3
S'Rae Sremmurd'
p2392
sg5
I5
sg6
S'https://open.spotify.com/track/6fujklziTHa8uoM5OQSfIo'
p2393
sg8
S'Black Beatles'
p2394
ssS'1WOJTQfNUEkLlsinPP95VM'
p2395
(dp2396
g3
S'Zion & Lennox'
p2397
sg5
I12
sg6
S'https://open.spotify.com/track/1WOJTQfNUEkLlsinPP95VM'
p2398
sg8
S'Embri\xc3\xa1game (feat. Don Omar) - Remix'
p2399
ssS'19WjVVgXjdKXfLXoaDPwTM'
p2400
(dp2401
g3
S'Taylor Swift'
p2402
sg5
I1
sg6
S'https://open.spotify.com/track/19WjVVgXjdKXfLXoaDPwTM'
p2403
sg8
S'...Ready For It?'
p2404
ssS'0JoHqmlqE0W0i9prt6kcHR'
p2405
(dp2406
g3
S'Maluma'
p2407
sg5
I41
sg6
S'https://open.spotify.com/track/0JoHqmlqE0W0i9prt6kcHR'
p2408
sg8
S'Cuatro Babys'
p2409
ssS'3NWdNMJXQm2u1X4BFge4Ag'
p2410
(dp2411
g3
S'El Nene La amenaza'
p2412
sg5
I2
sg6
S'https://open.spotify.com/track/3NWdNMJXQm2u1X4BFge4Ag'
p2413
sg8
S'Lean'
p2414
ssS'7pyEd6g5y7SYdKNgRtleEB'
p2415
(dp2416
g3
S'Yandel'
p2417
sg5
I29
sg6
S'https://open.spotify.com/track/7pyEd6g5y7SYdKNgRtleEB'
p2418
sg8
S'Nunca Me Olvides - Remix'
p2419
ssS'0bdL8X3MrX51dRz231BFtv'
p2420
(dp2421
g3
S'Yandel'
p2422
sg5
I9
sg6
S'https://open.spotify.com/track/0bdL8X3MrX51dRz231BFtv'
p2423
sg8
S'Moviendo Caderas'
p2424
ssS'3LNZSTiwQYL7BnTfHvIOII'
p2425
(dp2426
g3
S'Rafaga'
p2427
sg5
I2
sg6
S'https://open.spotify.com/track/3LNZSTiwQYL7BnTfHvIOII'
p2428
sg8
S'Una Cerveza'
p2429
ssS'2yajAy8Va9VTk3yhF9B3ET'
p2430
(dp2431
g3
S'Pablo Albor\xc3\xa1n'
p2432
sg5
I3
sg6
S'https://open.spotify.com/track/2yajAy8Va9VTk3yhF9B3ET'
p2433
sg8
S'No vaya a ser'
p2434
ssS'3H179O48ynsu9q8LOnFQZY'
p2435
(dp2436
g3
S'Reik'
p2437
sg5
I37
sg6
S'https://open.spotify.com/track/3H179O48ynsu9q8LOnFQZY'
p2438
sg8
S'Qu\xc3\xa9 Gano Olvid\xc3\xa1ndote - Versi\xc3\xb3n Urbana'
p2439
ssS'1BygxKyZjq2xjQiFMkSFGp'
p2440
(dp2441
g3
S'Plan B'
p2442
sg5
I4
sg6
S'https://open.spotify.com/track/1BygxKyZjq2xjQiFMkSFGp'
p2443
sg8
S'Fan\xc3\xa1tica Sensual'
p2444
ssS'0UeYCHOETPfai02uskjJ3x'
p2445
(dp2446
g3
S'Bag Raiders'
p2447
sg5
I1
sg6
S'https://open.spotify.com/track/0UeYCHOETPfai02uskjJ3x'
p2448
sg8
S'Shooting Stars'
p2449
ssS'48yAM9xWBwT4Ac9G1y20rw'
p2450
(dp2451
g3
S'Yandel'
p2452
sg5
I4
sg6
S'https://open.spotify.com/track/48yAM9xWBwT4Ac9G1y20rw'
p2453
sg8
S'Expl\xc3\xadcale'
p2454
ssS'0B8B8cVRFIG1yznoQe7c9s'
p2455
(dp2456
g3
S'The Chainsmokers'
p2457
sg5
I1
sg6
S'https://open.spotify.com/track/0B8B8cVRFIG1yznoQe7c9s'
p2458
sg8
S'Setting Fires'
p2459
ssS'6041gM9Th1ViQcnzkIxnuv'
p2460
(dp2461
g3
S'Ozuna'
p2462
sg5
I41
sg6
S'https://open.spotify.com/track/6041gM9Th1ViQcnzkIxnuv'
p2463
sg8
S'Me Ama Me Odia'
p2464
ssS'0lJCqIx5BhZtf6QtYI2fbv'
p2465
(dp2466
g3
S'Daddy Yankee'
p2467
sg5
I2
sg6
S'https://open.spotify.com/track/0lJCqIx5BhZtf6QtYI2fbv'
p2468
sg8
S'Vuelve'
p2469
ssS'6QilzpKHYPsQFthkhbMI52'
p2470
(dp2471
g3
S'Hugo Lagos'
p2472
sg5
I1
sg6
S'https://open.spotify.com/track/6QilzpKHYPsQFthkhbMI52'
p2473
sg8
S'Al\xc3\xb3 Al\xc3\xb3'
p2474
ssS'2rizacJSyD9S1IQUxUxnsK'
p2475
(dp2476
g3
S'The Chainsmokers'
p2477
sg5
I7
sg6
S'https://open.spotify.com/track/2rizacJSyD9S1IQUxUxnsK'
p2478
sg8
S'All We Know'
p2479
ssS'6RsWqX8zABZLhZydXxEFOm'
p2480
(dp2481
g3
S'The Weeknd'
p2482
sg5
I19
sg6
S'https://open.spotify.com/track/6RsWqX8zABZLhZydXxEFOm'
p2483
sg8
S"Can't Feel My Face"
p2484
ssS'0tgVpDi06FyKpA1z0VMD4v'
p2485
(dp2486
g3
S'Ed Sheeran'
p2487
sg5
I29
sg6
S'https://open.spotify.com/track/0tgVpDi06FyKpA1z0VMD4v'
p2488
sg8
S'Perfect'
p2489
ssS'2Vdub5mY4lad7w64bFPUez'
p2490
(dp2491
g3
S'Pitbull'
p2492
sg5
I30
sg6
S'https://open.spotify.com/track/2Vdub5mY4lad7w64bFPUez'
p2493
sg8
S'Hey Ma (with Pitbull & J Balvin feat. Camila Cabello) - Spanish Version'
p2494
ssS'4PCVVIrUDldF5r7RXtOB5W'
p2495
(dp2496
g3
S'Rombai'
p2497
sg5
I7
sg6
S'https://open.spotify.com/track/4PCVVIrUDldF5r7RXtOB5W'
p2498
sg8
S'Curiosidad'
p2499
ssS'69uxyAqqPIsUyTO8txoP2M'
p2500
(dp2501
g3
S'Coldplay'
p2502
sg5
I14
sg6
S'https://open.spotify.com/track/69uxyAqqPIsUyTO8txoP2M'
p2503
sg8
S'Adventure Of A Lifetime'
p2504
ssS'2OVofI6D65B4FCJuBK8ocJ'
p2505
(dp2506
g3
S'Margot Loyola'
p2507
sg5
I1
sg6
S'https://open.spotify.com/track/2OVofI6D65B4FCJuBK8ocJ'
p2508
sg8
S'Qu\xc3\xa9 Sacar\xc3\xa1n Con Querer'
p2509
ssS'5VMqRp4eN8QzpBXLeOrtnT'
p2510
(dp2511
g3
S'Croni-K'
p2512
sg5
I18
sg6
S'https://open.spotify.com/track/5VMqRp4eN8QzpBXLeOrtnT'
p2513
sg8
S'Me da Igual'
p2514
ssS'5EHRc2WJASyZg3alJqsbqU'
p2515
(dp2516
g3
S'Amar Azul'
p2517
sg5
I1
sg6
S'https://open.spotify.com/track/5EHRc2WJASyZg3alJqsbqU'
p2518
sg8
S'Yo Tomo Licor'
p2519
ssS'1zRqRmZyE0bgXkSoVVaCwK'
p2520
(dp2521
g3
S'Sin Bandera'
p2522
sg5
I1
sg6
S'https://open.spotify.com/track/1zRqRmZyE0bgXkSoVVaCwK'
p2523
sg8
S'En \xc3\x89sta No'
p2524
ssS'7BqBn9nzAq8spo5e7cZ0dJ'
p2525
(dp2526
g3
S'Bruno Mars'
p2527
sg5
I2
sg6
S'https://open.spotify.com/track/7BqBn9nzAq8spo5e7cZ0dJ'
p2528
sg8
S'Just the Way You Are'
p2529
ssS'0bsYQstJEAARIULxRCgm6f'
p2530
(dp2531
g3
S'Mon Laferte'
p2532
sg5
I2
sg6
S'https://open.spotify.com/track/0bsYQstJEAARIULxRCgm6f'
p2533
sg8
S'Salvador'
p2534
ssS'1x5sYLZiu9r5E43kMlt9f8'
p2535
(dp2536
g3
S'Clean Bandit'
p2537
sg5
I16
sg6
S'https://open.spotify.com/track/1x5sYLZiu9r5E43kMlt9f8'
p2538
sg8
S'Symphony (feat. Zara Larsson)'
p2539
ssS'2hgzdQdnfWwtdpZbhZlV72'
p2540
(dp2541
g3
S'Jennifer Lopez'
p2542
sg5
I2
sg6
S'https://open.spotify.com/track/2hgzdQdnfWwtdpZbhZlV72'
p2543
sg8
S"Ain't Your Mama"
p2544
ssS'2rb5MvYT7ZIxbKW5hfcHx8'
p2545
(dp2546
g3
S'J Balvin'
p2547
sg5
I15
sg6
S'https://open.spotify.com/track/2rb5MvYT7ZIxbKW5hfcHx8'
p2548
sg8
S'Mi Gente'
p2549
ssS'5SE57ljOIUJ1ybL9U6CuBH'
p2550
(dp2551
g3
S'BTS'
p2552
sg5
I3
sg6
S'https://open.spotify.com/track/5SE57ljOIUJ1ybL9U6CuBH'
p2553
sg8
S'DNA'
p2554
ssS'3FaqBbYj8arTCdhVABY8mB'
p2555
(dp2556
g3
S'Karol G'
p2557
sg5
I1
sg6
S'https://open.spotify.com/track/3FaqBbYj8arTCdhVABY8mB'
p2558
sg8
S'Ahora Me Llama - Remix'
p2559
ssS'1pWYnQIlqxTh5bxuPmTG4E'
p2560
(dp2561
g3
S'Thal\xc3\xada'
p2562
sg5
I37
sg6
S'https://open.spotify.com/track/1pWYnQIlqxTh5bxuPmTG4E'
p2563
sg8
S'Desde Esa Noche'
p2564
ssS'5ESAML4PZAbsiTK6OgRV2q'
p2565
(dp2566
g3
S'Justin Quiles'
p2567
sg5
I11
sg6
S'https://open.spotify.com/track/5ESAML4PZAbsiTK6OgRV2q'
p2568
sg8
S'Ego\xc3\xadsta'
p2569
ssS'7pueb0FHOYlKAJPXhVhwml'
p2570
(dp2571
g3
S'Alkilados'
p2572
sg5
I13
sg6
S'https://open.spotify.com/track/7pueb0FHOYlKAJPXhVhwml'
p2573
sg8
S'Me Gusta - Remix'
p2574
ssS'0tKcYR2II1VCQWT79i5NrW'
p2575
(dp2576
g3
S'Imagine Dragons'
p2577
sg5
I18
sg6
S'https://open.spotify.com/track/0tKcYR2II1VCQWT79i5NrW'
p2578
sg8
S'Thunder'
p2579
ssS'3rgjBiAMVGnxmsTDmUy8vb'
p2580
(dp2581
g3
S'Farruko'
p2582
sg5
I6
sg6
S'https://open.spotify.com/track/3rgjBiAMVGnxmsTDmUy8vb'
p2583
sg8
S'Krippy Kush'
p2584
ssS'6DNtNfH8hXkqOX1sjqmI7p'
p2585
(dp2586
g3
S'Major Lazer'
p2587
sg5
I29
sg6
S'https://open.spotify.com/track/6DNtNfH8hXkqOX1sjqmI7p'
p2588
sg8
S'Cold Water (feat. Justin Bieber & M\xc3\x98)'
p2589
ssS'5NNlUMcOEOdoOIwwaWXv0k'
p2590
(dp2591
g3
S'Maroon 5'
p2592
sg5
I20
sg6
S'https://open.spotify.com/track/5NNlUMcOEOdoOIwwaWXv0k'
p2593
sg8
S'Cold'
p2594
ssS'1sXUWdKx03aP9Gmzft58rt'
p2595
(dp2596
g3
S'Julia Michaels'
p2597
sg5
I14
sg6
S'https://open.spotify.com/track/1sXUWdKx03aP9Gmzft58rt'
p2598
sg8
S'Issues'
p2599
ssS'4XgcpHJAulT6gSTPFODnB7'
p2600
(dp2601
g3
S'Farruko'
p2602
sg5
I3
sg6
S'https://open.spotify.com/track/4XgcpHJAulT6gSTPFODnB7'
p2603
sg8
S'Pure'
p2604
ssS'3bVbQvGVIe4n24AzyXovXh'
p2605
(dp2606
g3
g232
sg5
I1
sg6
S'https://open.spotify.com/track/3bVbQvGVIe4n24AzyXovXh'
p2607
sg8
g232
ssS'31ltKfBTtOHz1GRcrC5YZF'
p2608
(dp2609
g3
S'Tito Fern\xc3\xa1ndez'
p2610
sg5
I1
sg6
S'https://open.spotify.com/track/31ltKfBTtOHz1GRcrC5YZF'
p2611
sg8
S"Cuecas Pa'l Colo Colo 3"
p2612
ssS'14oOKFGuXu8DqvOe1W8vao'
p2613
(dp2614
g3
S'Katy Perry'
p2615
sg5
I2
sg6
S'https://open.spotify.com/track/14oOKFGuXu8DqvOe1W8vao'
p2616
sg8
S'Bon App\xc3\xa9tit'
p2617
ssS'1rDslxgFKdekMZoPc9y07y'
p2618
(dp2619
g3
S'Yandel'
p2620
sg5
I2
sg6
S'https://open.spotify.com/track/1rDslxgFKdekMZoPc9y07y'
p2621
sg8
S'No Quiero Amores'
p2622
ssS'66gNNRsKkmECPQUrvpMQtS'
p2623
(dp2624
g3
S'DJ Jonathan'
p2625
sg5
I2
sg6
S'https://open.spotify.com/track/66gNNRsKkmECPQUrvpMQtS'
p2626
sg8
S'El Farsante'
p2627
ssS'6f4UPdDBQONKJBRqwZGjaJ'
p2628
(dp2629
g3
S'Silvestre Dangond'
p2630
sg5
I3
sg6
S'https://open.spotify.com/track/6f4UPdDBQONKJBRqwZGjaJ'
p2631
sg8
S'C\xc3\xa1sate Conmigo'
p2632
ssS'1louJpMmzEicAn7lzDalPW'
p2633
(dp2634
g3
S'Cheat Codes'
p2635
sg5
I13
sg6
S'https://open.spotify.com/track/1louJpMmzEicAn7lzDalPW'
p2636
sg8
S'No Promises (feat. Demi Lovato)'
p2637
ssS'0gb1J5UrTpzaU1s3nupgCd'
p2638
(dp2639
g3
S'Galantis'
p2640
sg5
I4
sg6
S'https://open.spotify.com/track/0gb1J5UrTpzaU1s3nupgCd'
p2641
sg8
S'No Money'
p2642
ssS'2pJZ1v8HezrAoZ0Fhzby92'
p2643
(dp2644
g3
S'Ed Sheeran'
p2645
sg5
I2
sg6
S'https://open.spotify.com/track/2pJZ1v8HezrAoZ0Fhzby92'
p2646
sg8
S'What Do I Know?'
p2647
ssS'0KKkJNfGyhkQ5aFogxQAPU'
p2648
(dp2649
g3
S'Bruno Mars'
p2650
sg5
I34
sg6
S'https://open.spotify.com/track/0KKkJNfGyhkQ5aFogxQAPU'
p2651
sg8
S"That's What I Like"
p2652
ssS'2twUPIYOTqVivev47pf7bU'
p2653
(dp2654
g3
S'Ozuna'
p2655
sg5
I21
sg6
S'https://open.spotify.com/track/2twUPIYOTqVivev47pf7bU'
p2656
sg8
S'Te Vas'
p2657
ssS'494OU6M7NOf4ICYb4zWCf5'
p2658
(dp2659
g3
S'Maroon 5'
p2660
sg5
I24
sg6
S'https://open.spotify.com/track/494OU6M7NOf4ICYb4zWCf5'
p2661
sg8
S'Sugar'
p2662
ssS'0gbBzIqrECJOEPvQJIBFs5'
p2663
(dp2664
g3
S'Lorde'
p2665
sg5
I8
sg6
S'https://open.spotify.com/track/0gbBzIqrECJOEPvQJIBFs5'
p2666
sg8
S'Green Light'
p2667
ssS'3VClLWqNn80Llv0PJOsKgr'
p2668
(dp2669
g3
S'Nacho'
p2670
sg5
I11
sg6
S'https://open.spotify.com/track/3VClLWqNn80Llv0PJOsKgr'
p2671
sg8
S'B\xc3\xa1ilame - Remix'
p2672
ssS'3kg9JvQe6QJFKUQCN1oIQz'
p2673
(dp2674
g3
S'Feid'
p2675
sg5
I8
sg6
S'https://open.spotify.com/track/3kg9JvQe6QJFKUQCN1oIQz'
p2676
sg8
S'Que Raro'
p2677
ssS'4GlwFumhEXNTaBh8foBax6'
p2678
(dp2679
g3
S'Mon Laferte'
p2680
sg5
I4
sg6
S'https://open.spotify.com/track/4GlwFumhEXNTaBh8foBax6'
p2681
sg8
S'El Cristal'
p2682
ssS'3B3DVtnVjQmLjC2FZgO2xi'
p2683
(dp2684
g3
S'Hugo Lagos'
p2685
sg5
I1
sg6
S'https://open.spotify.com/track/3B3DVtnVjQmLjC2FZgO2xi'
p2686
sg8
S'Los Lagos de Chile'
p2687
ssS'152U4ecGSiYeKm2gnFc4wA'
p2688
(dp2689
g3
S'Villa Cari\xc3\xb1o'
p2690
sg5
I41
sg6
S'https://open.spotify.com/track/152U4ecGSiYeKm2gnFc4wA'
p2691
sg8
S'Serenata cruel'
p2692
ssS'3pI6VigoXHkcL3VYLJfBhq'
p2693
(dp2694
g3
S'Ricky Martin'
p2695
sg5
I10
sg6
S'https://open.spotify.com/track/3pI6VigoXHkcL3VYLJfBhq'
p2696
sg8
S"Vente Pa' Ca - Urban Remix"
p2697
ssS'6i0V12jOa3mr6uu4WYhUBr'
p2698
(dp2699
g3
S'Twenty One Pilots'
p2700
sg5
I16
sg6
S'https://open.spotify.com/track/6i0V12jOa3mr6uu4WYhUBr'
p2701
sg8
S'Heathens'
p2702
ssS'3cUE3p7E39CzGjQoEsg7sM'
p2703
(dp2704
g3
S'SantaFeria'
p2705
sg5
I5
sg6
S'https://open.spotify.com/track/3cUE3p7E39CzGjQoEsg7sM'
p2706
sg8
S'El Gil de Tu Ex'
p2707
ssS'0B7wvvmu9EISAwZnOpjhNI'
p2708
(dp2709
g3
S'Bruno Mars'
p2710
sg5
I12
sg6
S'https://open.spotify.com/track/0B7wvvmu9EISAwZnOpjhNI'
p2711
sg8
S'When I Was Your Man'
p2712
ssS'6TIU9Ehmi6dMzZK73Ym4yj'
p2713
(dp2714
g3
S'Ed Sheeran'
p2715
sg5
I1
sg6
S'https://open.spotify.com/track/6TIU9Ehmi6dMzZK73Ym4yj'
p2716
sg8
S'Save Myself'
p2717
ssS'64BbK9SFKH2jk86U3dGj2P'
p2718
(dp2719
g3
S'Red Hot Chili Peppers'
p2720
sg5
I1
sg6
S'https://open.spotify.com/track/64BbK9SFKH2jk86U3dGj2P'
p2721
sg8
S'Otherside'
p2722
ssS'4XCQtUoRSh22Ep18ULmDnT'
p2723
(dp2724
g3
S'De La Ghetto'
p2725
sg5
I4
sg6
S'https://open.spotify.com/track/4XCQtUoRSh22Ep18ULmDnT'
p2726
sg8
S'La Formula (feat. Chris Jeday)'
p2727
ssS'0lPXFrKyl8HkdQ2E6NmNja'
p2728
(dp2729
g3
S'Reik'
p2730
sg5
I17
sg6
S'https://open.spotify.com/track/0lPXFrKyl8HkdQ2E6NmNja'
p2731
sg8
S'Ya Me Enter\xc3\xa9'
p2732
ssS'693iqPOQvhI7PobtR8CC8v'
p2733
(dp2734
g3
S'J Balvin'
p2735
sg5
I18
sg6
S'https://open.spotify.com/track/693iqPOQvhI7PobtR8CC8v'
p2736
sg8
S'Bonita'
p2737
ssS'05rJdH2MRLJ3sQoEUO78qs'
p2738
(dp2739
g3
S'Anitta'
p2740
sg5
I1
sg6
S'https://open.spotify.com/track/05rJdH2MRLJ3sQoEUO78qs'
p2741
sg8
S'Paradinha'
p2742
ssS'7q74tyrXApV2S3M1gcPdai'
p2743
(dp2744
g3
S'Mark B.'
p2745
sg5
I3
sg6
S'https://open.spotify.com/track/7q74tyrXApV2S3M1gcPdai'
p2746
sg8
S'Pura Falsedad'
p2747
ssS'6fxVffaTuwjgEk5h9QyRjy'
p2748
(dp2749
g3
S'Ed Sheeran'
p2750
sg5
I40
sg6
S'https://open.spotify.com/track/6fxVffaTuwjgEk5h9QyRjy'
p2751
sg8
S'Photograph'
p2752
ssS'0w5Bdu51Ka25Pf3hojsKHh'
p2753
(dp2754
g3
S'Paramore'
p2755
sg5
I1
sg6
S'https://open.spotify.com/track/0w5Bdu51Ka25Pf3hojsKHh'
p2756
sg8
S'Hard Times'
p2757
ssS'1orgfjGJoycODSItcGVatE'
p2758
(dp2759
g3
S'Los Fabulosos Cadillacs'
p2760
sg5
I1
sg6
S'https://open.spotify.com/track/1orgfjGJoycODSItcGVatE'
p2761
sg8
S'Siguiendo La Luna - Remasterizado 2008'
p2762
ssS'21lnmphofXWWeSSx0PEMjc'
p2763
(dp2764
g3
S'Bryant Myers'
p2765
sg5
I21
sg6
S'https://open.spotify.com/track/21lnmphofXWWeSSx0PEMjc'
p2766
sg8
S'Un Ratito Mas'
p2767
ssS'6kex4EBAj0WHXDKZMEJaaF'
p2768
(dp2769
g3
S'Jason Derulo'
p2770
sg5
I28
sg6
S'https://open.spotify.com/track/6kex4EBAj0WHXDKZMEJaaF'
p2771
sg8
S'Swalla (feat. Nicki Minaj & Ty Dolla $ign)'
p2772
ssS'4skuEIloXWuxxgekKupkEH'
p2773
(dp2774
g3
S'Mon Laferte'
p2775
sg5
I41
sg6
S'https://open.spotify.com/track/4skuEIloXWuxxgekKupkEH'
p2776
sg8
S'Tu Falta De Querer'
p2777
ssS'79Bm3DTEYuQsDpUVHbSRsL'
p2778
(dp2779
g3
S'Sofia Reyes'
p2780
sg5
I12
sg6
S'https://open.spotify.com/track/79Bm3DTEYuQsDpUVHbSRsL'
p2781
sg8
S'Llegaste t\xc3\xba (feat. Reykon)'
p2782
ssS'1Slwb6dOYkBlWal1PGtnNg'
p2783
(dp2784
g3
S'Ed Sheeran'
p2785
sg5
I41
sg6
S'https://open.spotify.com/track/1Slwb6dOYkBlWal1PGtnNg'
p2786
sg8
S'Thinking Out Loud'
p2787
ssS'7ID2dydg1QFuWObmdhwzfm'
p2788
(dp2789
g3
S'The Weeknd'
p2790
sg5
I17
sg6
S'https://open.spotify.com/track/7ID2dydg1QFuWObmdhwzfm'
p2791
sg8
S'Earned It (Fifty Shades Of Grey)'
p2792
ssS'4iPV0gcc8keTFl6qxqP73M'
p2793
(dp2794
g3
S'CNCO'
p2795
sg5
I6
sg6
S'https://open.spotify.com/track/4iPV0gcc8keTFl6qxqP73M'
p2796
sg8
S'Quisiera'
p2797
ssS'7KXjTSCq5nL1LoYtL7XAwS'
p2798
(dp2799
g3
S'Kendrick Lamar'
p2800
sg5
I12
sg6
S'https://open.spotify.com/track/7KXjTSCq5nL1LoYtL7XAwS'
p2801
sg8
S'HUMBLE.'
p2802
ssS'7tA7IQiLWAqTXahUQ9RvfN'
p2803
(dp2804
g3
S'Zion & Lennox'
p2805
sg5
I7
sg6
S'https://open.spotify.com/track/7tA7IQiLWAqTXahUQ9RvfN'
p2806
sg8
S'Pierdo la Cabeza - Official Remix'
p2807
ssS'5MT96Zz0ymUJNm8obKZQr0'
p2808
(dp2809
g3
S'Bad Bunny'
p2810
sg5
I41
sg6
S'https://open.spotify.com/track/5MT96Zz0ymUJNm8obKZQr0'
p2811
sg8
S'Soy Peor'
p2812
ssS'58Jc0OZYkluBoZLjCiVm9C'
p2813
(dp2814
g3
S'Ken-Y'
p2815
sg5
I2
sg6
S'https://open.spotify.com/track/58Jc0OZYkluBoZLjCiVm9C'
p2816
sg8
S'Como Lo Hacia Yo'
p2817
ssS'7BwJtE8KSbCQKOCTIAY3jX'
p2818
(dp2819
g3
S'Carlos Baute'
p2820
sg5
I33
sg6
S'https://open.spotify.com/track/7BwJtE8KSbCQKOCTIAY3jX'
p2821
sg8
S'Ando buscando'
p2822
ssS'0Szp49tpFasIjX04Mcsydp'
p2823
(dp2824
g3
S'Ozuna'
p2825
sg5
I16
sg6
S'https://open.spotify.com/track/0Szp49tpFasIjX04Mcsydp'
p2826
sg8
S'Tu Foto'
p2827
ssS'3slazms3TpwswQBlwZ20hb'
p2828
(dp2829
g3
S'Alexis & Fido'
p2830
sg5
I7
sg6
S'https://open.spotify.com/track/3slazms3TpwswQBlwZ20hb'
p2831
sg8
S'Me Descontrola'
p2832
ssS'2MFIH4yeEsolWbLw9xDPRn'
p2833
(dp2834
g3
S'Denise Rosenthal'
p2835
sg5
I2
sg6
S'https://open.spotify.com/track/2MFIH4yeEsolWbLw9xDPRn'
p2836
sg8
S'Isidora'
p2837
ssS'5nKKpWm0lkrIMn06vlAG29'
p2838
(dp2839
g3
S'Eyci and Cody'
p2840
sg5
I9
sg6
S'https://open.spotify.com/track/5nKKpWm0lkrIMn06vlAG29'
p2841
sg8
S'Me Gusta'
p2842
ssS'4C1opPFRPafp6yj4AJPBRB'
p2843
(dp2844
g3
S'Leslie Grace'
p2845
sg5
I1
sg6
S'https://open.spotify.com/track/4C1opPFRPafp6yj4AJPBRB'
p2846
sg8
S'D\xc3\xadganle'
p2847
ssS'3Lfiu5sZ4M4B6JaKMBc0FU'
p2848
(dp2849
g3
S'Ed Sheeran'
p2850
sg5
I2
sg6
S'https://open.spotify.com/track/3Lfiu5sZ4M4B6JaKMBc0FU'
p2851
sg8
S'Barcelona'
p2852
ssS'4kfm1uI9QGaoN9qm6CkAMn'
p2853
(dp2854
g3
S'Linkin Park'
p2855
sg5
I1
sg6
S'https://open.spotify.com/track/4kfm1uI9QGaoN9qm6CkAMn'
p2856
sg8
S"What I've Done"
p2857
ssS'69bp2EbF7Q2rqc5N3ylezZ'
p2858
(dp2859
g3
S'Justin Bieber'
p2860
sg5
I17
sg6
S'https://open.spotify.com/track/69bp2EbF7Q2rqc5N3ylezZ'
p2861
sg8
S'Sorry'
p2862
ssS'2cnKEkpVUSV4wnjQiTWfH6'
p2863
(dp2864
g3
S'Wisin'
p2865
sg5
I28
sg6
S'https://open.spotify.com/track/2cnKEkpVUSV4wnjQiTWfH6'
p2866
sg8
S'Esc\xc3\xa1pate Conmigo'
p2867
ssS'6qDF4wWL49CAVbgT7yuHl8'
p2868
(dp2869
g3
S'J Balvin'
p2870
sg5
I38
sg6
S'https://open.spotify.com/track/6qDF4wWL49CAVbgT7yuHl8'
p2871
sg8
S'Sigo Extra\xc3\xb1\xc3\xa1ndote'
p2872
ssS'4iLqG9SeJSnt0cSPICSjxv'
p2873
(dp2874
g3
S'Charlie Puth'
p2875
sg5
I23
sg6
S'https://open.spotify.com/track/4iLqG9SeJSnt0cSPICSjxv'
p2876
sg8
S'Attention'
p2877
ssS'4tCtwWceOPWzenK2HAIJSb'
p2878
(dp2879
g3
S'Fifth Harmony'
p2880
sg5
I9
sg6
S'https://open.spotify.com/track/4tCtwWceOPWzenK2HAIJSb'
p2881
sg8
S'Work from Home'
p2882
ssS'6RUKPb4LETWmmr3iAEQktW'
p2883
(dp2884
g3
S'The Chainsmokers'
p2885
sg5
I32
sg6
S'https://open.spotify.com/track/6RUKPb4LETWmmr3iAEQktW'
p2886
sg8
S'Something Just Like This'
p2887
ssS'0MIcPSq9n2z5H8TAfEstri'
p2888
(dp2889
g3
S'Ozuna'
p2890
sg5
I7
sg6
S'https://open.spotify.com/track/0MIcPSq9n2z5H8TAfEstri'
p2891
sg8
S'Quiero Repetir'
p2892
ssS'6WBAwTrUIwWJTlS8e3v5Zx'
p2893
(dp2894
g3
S'Hugo Lagos'
p2895
sg5
I1
sg6
S'https://open.spotify.com/track/6WBAwTrUIwWJTlS8e3v5Zx'
p2896
sg8
S'La Consentida'
p2897
ssS'733ybNEEEXHYxfk8sK6MRO'
p2898
(dp2899
g3
S'Chino & Nacho'
p2900
sg5
I18
sg6
S'https://open.spotify.com/track/733ybNEEEXHYxfk8sK6MRO'
p2901
sg8
S'Andas En Mi Cabeza - Remix'
p2902
ssS'2UxYLI09fvaxzKAcgudK7Z'
p2903
(dp2904
g3
S'Camila Gallardo'
p2905
sg5
I5
sg6
S'https://open.spotify.com/track/2UxYLI09fvaxzKAcgudK7Z'
p2906
sg8
S'Abr\xc3\xa1zame'
p2907
ssS'7qCAVkHWZkF44OzOUKf8Cr'
p2908
(dp2909
g3
S'Nicky Jam'
p2910
sg5
I21
sg6
S'https://open.spotify.com/track/7qCAVkHWZkF44OzOUKf8Cr'
p2911
sg8
S'El Perd\xc3\xb3n'
p2912
ssS'1xznGGDReH1oQq0xzbwXa3'
p2913
(dp2914
g3
S'Drake'
p2915
sg5
I41
sg6
S'https://open.spotify.com/track/1xznGGDReH1oQq0xzbwXa3'
p2916
sg8
S'One Dance'
p2917
ssS'5GXAXm5YOmYT0kL5jHvYBt'
p2918
(dp2919
g3
S'The Weeknd'
p2920
sg5
I41
sg6
S'https://open.spotify.com/track/5GXAXm5YOmYT0kL5jHvYBt'
p2921
sg8
S'I Feel It Coming'
p2922
ssS'2habSXqcJGExM6JJyskY7O'
p2923
(dp2924
g3
S'Miley Cyrus'
p2925
sg5
I11
sg6
S'https://open.spotify.com/track/2habSXqcJGExM6JJyskY7O'
p2926
sg8
S'Malibu'
p2927
ssS'7gHs73wELdeycvS48JfIos'
p2928
(dp2929
g3
S'Alan Walker'
p2930
sg5
I34
sg6
S'https://open.spotify.com/track/7gHs73wELdeycvS48JfIos'
p2931
sg8
S'Faded'
p2932
ssS'51ChrwmUPDJvedPQnIU8Ls'
p2933
(dp2934
g3
S'Ed Sheeran'
p2935
sg5
I16
sg6
S'https://open.spotify.com/track/51ChrwmUPDJvedPQnIU8Ls'
p2936
sg8
S'Dive'
p2937
ssS'5KX51uLJYo1S1MmITG7lHD'
p2938
(dp2939
g3
S'Justin Quiles'
p2940
sg5
I36
sg6
S'https://open.spotify.com/track/5KX51uLJYo1S1MmITG7lHD'
p2941
sg8
S'Otra Copa (feat. Farruko)'
p2942
ssS'2R7858bg0GHuBBxjTyOL7N'
p2943
(dp2944
g3
S'George Michael'
p2945
sg5
I1
sg6
S'https://open.spotify.com/track/2R7858bg0GHuBBxjTyOL7N'
p2946
sg8
S'Careless Whisper'
p2947
ssS'42MoYJb42qprlpJU0OEhAT'
p2948
(dp2949
g3
S'Jencarlos'
p2950
sg5
I10
sg6
S'https://open.spotify.com/track/42MoYJb42qprlpJU0OEhAT'
p2951
sg8
S'Dure Dure'
p2952
ssS'1CUVN2kn7mW5FjkqXTR2W1'
p2953
(dp2954
g3
S'Jonas Blue'
p2955
sg5
I9
sg6
S'https://open.spotify.com/track/1CUVN2kn7mW5FjkqXTR2W1'
p2956
sg8
S'Perfect Strangers'
p2957
ssS'7nKBxz47S9SD79N086fuhn'
p2958
(dp2959
g3
S'Enrique Iglesias'
p2960
sg5
I32
sg6
S'https://open.spotify.com/track/7nKBxz47S9SD79N086fuhn'
p2961
sg8
S'SUBEME LA RADIO'
p2962
ssS'27SdWb2rFzO6GWiYDBTD9j'
p2963
(dp2964
g3
S'Sia'
p2965
sg5
I35
sg6
S'https://open.spotify.com/track/27SdWb2rFzO6GWiYDBTD9j'
p2966
sg8
S'Cheap Thrills'
p2967
ssS'1vV2FBKYvu6sJDqzSCNgbI'
p2968
(dp2969
g3
S'Gepe'
p2970
sg5
I15
sg6
S'https://open.spotify.com/track/1vV2FBKYvu6sJDqzSCNgbI'
p2971
sg8
S'Hablar de Ti'
p2972
ssS'3ibRxEv4KkcU9e259eyNJA'
p2973
(dp2974
g3
S'Major Lazer'
p2975
sg5
I5
sg6
S'https://open.spotify.com/track/3ibRxEv4KkcU9e259eyNJA'
p2976
sg8
S'Sua Cara (feat. Anitta & Pabllo Vittar)'
p2977
ssS'3toP91RkMRQw7M0bScJ4F9'
p2978
(dp2979
g3
S'J Balvin'
p2980
sg5
I1
sg6
S'https://open.spotify.com/track/3toP91RkMRQw7M0bScJ4F9'
p2981
sg8
S'Ay Vamos'
p2982
ssS'6PJ8FF6UR8FZXfEvpHkIVN'
p2983
(dp2984
g3
S'Ed Sheeran'
p2985
sg5
I5
sg6
S'https://open.spotify.com/track/6PJ8FF6UR8FZXfEvpHkIVN'
p2986
sg8
S'How Would You Feel (Paean)'
p2987
ssS'3hB5DgAiMAQ4DzYbsMq1IT'
p2988
(dp2989
g3
S'Justin Bieber'
p2990
sg5
I24
sg6
S'https://open.spotify.com/track/3hB5DgAiMAQ4DzYbsMq1IT'
p2991
sg8
S'Love Yourself'
p2992
ssS'5ndfVSDyPq90jaIUhNPeby'
p2993
(dp2994
g3
S'Katy Perry'
p2995
sg5
I2
sg6
S'https://open.spotify.com/track/5ndfVSDyPq90jaIUhNPeby'
p2996
sg8
S'Chained To The Rhythm'
p2997
ssS'0mwPE0lPOgnWf2bo14xedJ'
p2998
(dp2999
g3
S'Juanes'
p3000
sg5
I25
sg6
S'https://open.spotify.com/track/0mwPE0lPOgnWf2bo14xedJ'
p3001
sg8
S'Fuego'
p3002
ssS'5uCax9HTNlzGybIStD3vDh'
p3003
(dp3004
g3
S'James Arthur'
p3005
sg5
I21
sg6
S'https://open.spotify.com/track/5uCax9HTNlzGybIStD3vDh'
p3006
sg8
S"Say You Won't Let Go"
p3007
ssS'7qiZfU4dY1lWllzX7mPBI3'
p3008
(dp3009
g3
S'Ed Sheeran'
p3010
sg5
I39
sg6
S'https://open.spotify.com/track/7qiZfU4dY1lWllzX7mPBI3'
p3011
sg8
S'Shape of You'
p3012
ssS'7JlNLlXzFbeKusnGJzGawA'
p3013
(dp3014
g3
S'La Sonora De Tommy Rey'
p3015
sg5
I1
sg6
S'https://open.spotify.com/track/7JlNLlXzFbeKusnGJzGawA'
p3016
sg8
S'Un A\xc3\xb1o M\xc3\xa1s'
p3017
ssS'0wfbD5rAksdXUzRvMfM3x5'
p3018
(dp3019
g3
S'The Chainsmokers'
p3020
sg5
I2
sg6
S'https://open.spotify.com/track/0wfbD5rAksdXUzRvMfM3x5'
p3021
sg8
S'The One'
p3022
ssS'6FOE00lDuzxdmGfJ9501ro'
p3023
(dp3024
g3
S'Mon Laferte'
p3025
sg5
I1
sg6
S'https://open.spotify.com/track/6FOE00lDuzxdmGfJ9501ro'
p3026
sg8
S'Que S\xc3\xad'
p3027
ssS'3yHJs5NmQk2ROAWCfjniXV'
p3028
(dp3029
g3
S'Maluma'
p3030
sg5
I7
sg6
S'https://open.spotify.com/track/3yHJs5NmQk2ROAWCfjniXV'
p3031
sg8
S'Sin Contrato'
p3032
ssS'2jVJYU4X3aD8hlTco3MlsN'
p3033
(dp3034
g3
S'Brytiago'
p3035
sg5
I22
sg6
S'https://open.spotify.com/track/2jVJYU4X3aD8hlTco3MlsN'
p3036
sg8
S'Beb\xc3\xa9 - Remix'
p3037
ssS'1F2HXIJrE2Xn81OzT2zZvW'
p3038
(dp3039
g3
S'French Montana'
p3040
sg5
I7
sg6
S'https://open.spotify.com/track/1F2HXIJrE2Xn81OzT2zZvW'
p3041
sg8
S'Unforgettable'
p3042
ssS'0WBpK4TdYkkRtpYaGixO2x'
p3043
(dp3044
g3
S'Noche de Brujas'
p3045
sg5
I2
sg6
S'https://open.spotify.com/track/0WBpK4TdYkkRtpYaGixO2x'
p3046
sg8
S'Me gusta todo de ti'
p3047
ssS'78rIJddV4X0HkNAInEcYde'
p3048
(dp3049
g3
S'Starley'
p3050
sg5
I21
sg6
S'https://open.spotify.com/track/78rIJddV4X0HkNAInEcYde'
p3051
sg8
S'Call On Me - Ryan Riback Extended Remix'
p3052
ssS'0L7loeTIg6akW84aEQZpCT'
p3053
(dp3054
g3
S'Major Lazer'
p3055
sg5
I25
sg6
S'https://open.spotify.com/track/0L7loeTIg6akW84aEQZpCT'
p3056
sg8
S'Light It Up (feat. Nyla & Fuse ODG) - Remix'
p3057
ssS'5Seb5lelcZV6fZVGXxmAZG'
p3058
(dp3059
g3
S'Sonora Palacios'
p3060
sg5
I1
sg6
S'https://open.spotify.com/track/5Seb5lelcZV6fZVGXxmAZG'
p3061
sg8
S'Medley 3: El gale\xc3\xb3n espa\xc3\xb1ol - Un a\xc3\xb1o m\xc3\xa1s - El caminante - La Mafafa - La ara\xc3\xb1ita - Negrito Cumbia'
p3062
ssS'7o2CTH4ctstm8TNelqjb51'
p3063
(dp3064
g3
S"Guns N' Roses"
p3065
sg5
I1
sg6
S'https://open.spotify.com/track/7o2CTH4ctstm8TNelqjb51'
p3066
sg8
S"Sweet Child O' Mine"
p3067
ssS'5Awj8zb74xYGHINl0K5fHq'
p3068
(dp3069
g3
S'Tito Fern\xc3\xa1ndez'
p3070
sg5
I1
sg6
S'https://open.spotify.com/track/5Awj8zb74xYGHINl0K5fHq'
p3071
sg8
S"Cuecas Pa'l Colo Colo 2"
p3072
ssS'6DUdDIRgLqCGq1DwkNWQTN'
p3073
(dp3074
g3
S'Maluma'
p3075
sg5
I41
sg6
S'https://open.spotify.com/track/6DUdDIRgLqCGq1DwkNWQTN'
p3076
sg8
S'Borro Cassette'
p3077
ssS'1LszjjoVwDDZcWUQbzeDLG'
p3078
(dp3079
g3
S'Yandel'
p3080
sg5
I5
sg6
S'https://open.spotify.com/track/1LszjjoVwDDZcWUQbzeDLG'
p3081
sg8
S'Expl\xc3\xadcale'
p3082
ssS'5mey7CLLuFToM2P68Qu1gF'
p3083
(dp3084
g3
S'Chino & Nacho'
p3085
sg5
I41
sg6
S'https://open.spotify.com/track/5mey7CLLuFToM2P68Qu1gF'
p3086
sg8
S'Andas En Mi Cabeza'
p3087
ssS'0twIQEBxVUpACRjOtQxFuv'
p3088
(dp3089
g3
S'Tito Fern\xc3\xa1ndez'
p3090
sg5
I1
sg6
S'https://open.spotify.com/track/0twIQEBxVUpACRjOtQxFuv'
p3091
sg8
S'Cueca de los Perreros'
p3092
ssS'32lm3769IRfcnrQV11LO4E'
p3093
(dp3094
g3
S'Enrique Iglesias'
p3095
sg5
I8
sg6
S'https://open.spotify.com/track/32lm3769IRfcnrQV11LO4E'
p3096
sg8
S'Bailando - Spanish Version'
p3097
ssS'3w7MScOk9yCOS1T6wJfZWa'
p3098
(dp3099
g3
S'Mon Laferte'
p3100
sg5
I3
sg6
S'https://open.spotify.com/track/3w7MScOk9yCOS1T6wJfZWa'
p3101
sg8
S'Bonita - Bonus Track'
p3102
ssS'35OC6rMxa8lJi8eDiUVShS'
p3103
(dp3104
g3
S'De La Ghetto'
p3105
sg5
I18
sg6
S'https://open.spotify.com/track/35OC6rMxa8lJi8eDiUVShS'
p3106
sg8
S'Ac\xc3\xa9rcate (feat. Nicky Jam) - Remix'
p3107
ssS'7yHEDfrJNd0zWOfXwydNH0'
p3108
(dp3109
g3
S'Ariana Grande'
p3110
sg5
I4
sg6
S'https://open.spotify.com/track/7yHEDfrJNd0zWOfXwydNH0'
p3111
sg8
S'Into You'
p3112
ssS'0LtVx5vsq9nfpGsWgjUin6'
p3113
(dp3114
g3
S'Ryan Gosling'
p3115
sg5
I2
sg6
S'https://open.spotify.com/track/0LtVx5vsq9nfpGsWgjUin6'
p3116
sg8
S'City Of Stars - From La La Land Soundtrack'
p3117
ssS'28N37XoO2HaPO7SVeG5ky5'
p3118
(dp3119
g3
S'Mon Laferte'
p3120
sg5
I2
sg6
S'https://open.spotify.com/track/28N37XoO2HaPO7SVeG5ky5'
p3121
sg8
S'Flor de Amapola'
p3122
ssS'69MuDgCcfrYvnxkxFJ0pEN'
p3123
(dp3124
g3
S'Roberto Parra'
p3125
sg5
I1
sg6
S'https://open.spotify.com/track/69MuDgCcfrYvnxkxFJ0pEN'
p3126
sg8
S'Ya Se Fue el 71'
p3127
ssS'626rYyBfeAeleh1F5t4B70'
p3128
(dp3129
g3
S'Revol'
p3130
sg5
I39
sg6
S'https://open.spotify.com/track/626rYyBfeAeleh1F5t4B70'
p3131
sg8
S'Caile (feat. Zion & De La Ghetto)'
p3132
ssS'11KJSRSgaDxqydKYiD2Jew'
p3133
(dp3134
g3
S'Drake'
p3135
sg5
I7
sg6
S'https://open.spotify.com/track/11KJSRSgaDxqydKYiD2Jew'
p3136
sg8
S'Too Good'
p3137
ssS'3ITEjanytmAGeNYsjFXqCV'
p3138
(dp3139
g3
S'Los Hidalgos'
p3140
sg5
I1
sg6
S'https://open.spotify.com/track/3ITEjanytmAGeNYsjFXqCV'
p3141
sg8
S'El Volant\xc3\xadn'
p3142
ssS'3zoYkqS4y2BsGVShPL2nTE'
p3143
(dp3144
g3
S'CNCO'
p3145
sg5
I8
sg6
S'https://open.spotify.com/track/3zoYkqS4y2BsGVShPL2nTE'
p3146
sg8
S'Reggaet\xc3\xb3n Lento (Remix) [CNCO & Little Mix]'
p3147
ssS'2xt2piJx6jlFkjS77YiqpL'
p3148
(dp3149
g3
S'Audioslave'
p3150
sg5
I3
sg6
S'https://open.spotify.com/track/2xt2piJx6jlFkjS77YiqpL'
p3151
sg8
S'Like a Stone'
p3152
ssS'1yNyoWWWikbLhwIGWjZuDW'
p3153
(dp3154
g3
S'The Vamps'
p3155
sg5
I7
sg6
S'https://open.spotify.com/track/1yNyoWWWikbLhwIGWjZuDW'
p3156
sg8
S'All Night'
p3157
ssS'5xMzazov0IHYllrc8U2K6F'
p3158
(dp3159
g3
S'Jennifer Lopez'
p3160
sg5
I14
sg6
S'https://open.spotify.com/track/5xMzazov0IHYllrc8U2K6F'
p3161
sg8
S'Ni T\xc3\xba Ni Yo'
p3162
ssS'1iEwyiSLAunPR6uouANE0O'
p3163
(dp3164
g3
S'Maluma'
p3165
sg5
I22
sg6
S'https://open.spotify.com/track/1iEwyiSLAunPR6uouANE0O'
p3166
sg8
S'El Perdedor'
p3167
ssS'4vb4mFvYsr2h6enhjJsq9Y'
p3168
(dp3169
g3
S'Adele'
p3170
sg5
I7
sg6
S'https://open.spotify.com/track/4vb4mFvYsr2h6enhjJsq9Y'
p3171
sg8
S'Water Under the Bridge'
p3172
ssS'2kVHAQKVtczchKctctzbtK'
p3173
(dp3174
g3
S'Katy Perry'
p3175
sg5
I10
sg6
S'https://open.spotify.com/track/2kVHAQKVtczchKctctzbtK'
p3176
sg8
S'Swish Swish'
p3177
ssS'17Fd6Yb7mSbinKG8LoWfFl'
p3178
(dp3179
g3
S'Mike Posner'
p3180
sg5
I39
sg6
S'https://open.spotify.com/track/17Fd6Yb7mSbinKG8LoWfFl'
p3181
sg8
S'I Took A Pill In Ibiza - Seeb Remix'
p3182
ssS'3lI5dscCDez8cF6LF3Me7F'
p3183
(dp3184
g3
S'Jesse & Joy'
p3185
sg5
I1
sg6
S'https://open.spotify.com/track/3lI5dscCDez8cF6LF3Me7F'
p3186
sg8
S'Ecos de amor'
p3187
ssS'10E0qEebBnTrBHx4DvFoTq'
p3188
(dp3189
g3
S'Nicky Jam'
p3190
sg5
I2
sg6
S'https://open.spotify.com/track/10E0qEebBnTrBHx4DvFoTq'
p3191
sg8
S'Donde Estan Las Gatas'
p3192
ssS'5ZF3889W92eTBOROe0lPNN'
p3193
(dp3194
g3
S'Anuel Aa'
p3195
sg5
I16
sg6
S'https://open.spotify.com/track/5ZF3889W92eTBOROe0lPNN'
p3196
sg8
S'Ayer 2'
p3197
ssS'27ebni0DfbT5Owz6W42HP8'
p3198
(dp3199
g3
S'Yandel'
p3200
sg5
I14
sg6
S'https://open.spotify.com/track/27ebni0DfbT5Owz6W42HP8'
p3201
sg8
S'Nunca Me Olvides'
p3202
ssS'6RFJxVj9tL0Xrd3Jve4Vo4'
p3203
(dp3204
g3
S'Romeo Santos'
p3205
sg5
I2
sg6
S'https://open.spotify.com/track/6RFJxVj9tL0Xrd3Jve4Vo4'
p3206
sg8
S'H\xc3\xa9roe Favorito'
p3207
ssS'0pR6N68RkIGKxitlTqraZ3'
p3208
(dp3209
g3
S'Mon Laferte'
p3210
sg5
I13
sg6
S'https://open.spotify.com/track/0pR6N68RkIGKxitlTqraZ3'
p3211
sg8
S'Tormento'
p3212
ssS'6XOYVSmNDjKUNMXooU4s4z'
p3213
(dp3214
g3
S'OneRepublic'
p3215
sg5
I2
sg6
S'https://open.spotify.com/track/6XOYVSmNDjKUNMXooU4s4z'
p3216
sg8
S'No Vacancy'
p3217
ssS'5g7sDjBhZ4I3gcFIpkrLuI'
p3218
(dp3219
g3
S'Bruno Mars'
p3220
sg5
I1
sg6
S'https://open.spotify.com/track/5g7sDjBhZ4I3gcFIpkrLuI'
p3221
sg8
S'Locked Out Of Heaven'
p3222
ssS'5EnYT6F7wEcdege6mDHEfO'
p3223
(dp3224
g3
S'Drake'
p3225
sg5
I5
sg6
S'https://open.spotify.com/track/5EnYT6F7wEcdege6mDHEfO'
p3226
sg8
S'Signs'
p3227
ssS'0OMRAvrtLWE2TvcXorRiB9'
p3228
(dp3229
g3
S'Gente De Zona'
p3230
sg5
I36
sg6
S'https://open.spotify.com/track/0OMRAvrtLWE2TvcXorRiB9'
p3231
sg8
S'La Gozadera'
p3232
ss.