(dp0
S'0mel2N9Ws9r4yLQn5QE21Y'
p1
(dp2
S'artistName'
p3
S'Sam Smith'
p4
sS'weeksOnChart'
p5
I5
sS'track_href'
p6
S'https://open.spotify.com/track/0mel2N9Ws9r4yLQn5QE21Y'
p7
sS'songName'
p8
S'Too Good At Goodbyes'
p9
ssS'5GXAXm5YOmYT0kL5jHvYBt'
p10
(dp11
g3
S'The Weeknd'
p12
sg5
I42
sg6
S'https://open.spotify.com/track/5GXAXm5YOmYT0kL5jHvYBt'
p13
sg8
S'I Feel It Coming'
p14
ssS'58EQDn2K9Gyj68YIckOLrN'
p15
(dp16
g3
S'Reykon'
p17
sg5
I5
sg6
S'https://open.spotify.com/track/58EQDn2K9Gyj68YIckOLrN'
p18
sg8
S'El Chisme (feat. J Alvarez & Kevin Roldan) - Remix'
p19
ssS'60a0Rd6pjrkxjPbaKzXjfq'
p20
(dp21
g3
S'Linkin Park'
p22
sg5
I2
sg6
S'https://open.spotify.com/track/60a0Rd6pjrkxjPbaKzXjfq'
p23
sg8
S'In The End'
p24
ssS'66NNoydhDCKHjBZjO4OnNm'
p25
(dp26
g3
S'Los Angeles Azules'
p27
sg5
I2
sg6
S'https://open.spotify.com/track/66NNoydhDCKHjBZjO4OnNm'
p28
sg8
S'Mis Sentimientos'
p29
ssS'6HUnnBwYZqcED1eQztxMBN'
p30
(dp31
g3
S'Martin Jensen'
p32
sg5
I9
sg6
S'https://open.spotify.com/track/6HUnnBwYZqcED1eQztxMBN'
p33
sg8
S'Solo Dance'
p34
ssS'2aksifNn5ph8igDOkPBA02'
p35
(dp36
g3
S'Rihanna'
p37
sg5
I4
sg6
S'https://open.spotify.com/track/2aksifNn5ph8igDOkPBA02'
p38
sg8
S'Love On The Brain'
p39
ssS'7wGoVu4Dady5GV0Sv4UIsx'
p40
(dp41
g3
S'Post Malone'
p42
sg5
I1
sg6
S'https://open.spotify.com/track/7wGoVu4Dady5GV0Sv4UIsx'
p43
sg8
S'rockstar'
p44
ssS'7c4gRQ1xIsIB9JhVvtWWIq'
p45
(dp46
g3
S'Carlos Rivera'
p47
sg5
I7
sg6
S'https://open.spotify.com/track/7c4gRQ1xIsIB9JhVvtWWIq'
p48
sg8
S'Lo Digo'
p49
ssS'4OZEu0Vwq0RB2LAq14v99n'
p50
(dp51
g3
S'DJ Snake'
p52
sg5
I42
sg6
S'https://open.spotify.com/track/4OZEu0Vwq0RB2LAq14v99n'
p53
sg8
S'Middle'
p54
ssS'1RwoXmQ3RvIdfG8bLeX65g'
p55
(dp56
g3
S'Mario Bautista'
p57
sg5
I31
sg6
S'https://open.spotify.com/track/1RwoXmQ3RvIdfG8bLeX65g'
p58
sg8
S'No Digas Nada'
p59
ssS'70lnL3QaSOIIyMa2X9aVRL'
p60
(dp61
g3
S'Shakira'
p62
sg5
I8
sg6
S'https://open.spotify.com/track/70lnL3QaSOIIyMa2X9aVRL'
p63
sg8
S'Perro Fiel'
p64
ssS'46HdsiK0uR26B2dY9QPzda'
p65
(dp66
g3
S'Prince Royce'
p67
sg5
I31
sg6
S'https://open.spotify.com/track/46HdsiK0uR26B2dY9QPzda'
p68
sg8
S'Deja vu'
p69
ssS'6KzeSLDKK4DuFUHy3l9vqv'
p70
(dp71
g3
S'Virlan Garcia'
p72
sg5
I2
sg6
S'https://open.spotify.com/track/6KzeSLDKK4DuFUHy3l9vqv'
p73
sg8
S'Y Cambi\xc3\xb3 Mi Suerte'
p74
ssS'7tr2za8SQg2CI8EDgrdtNl'
p75
(dp76
g3
S'Calvin Harris'
p77
sg5
I22
sg6
S'https://open.spotify.com/track/7tr2za8SQg2CI8EDgrdtNl'
p78
sg8
S'Slide'
p79
ssS'20ZAJdsKB5IGbGj4ilRt2o'
p80
(dp81
g3
S'Ozuna'
p82
sg5
I35
sg6
S'https://open.spotify.com/track/20ZAJdsKB5IGbGj4ilRt2o'
p83
sg8
S'Dile Que Tu Me Quieres'
p84
ssS'4pLwZjInHj3SimIyN9SnOz'
p85
(dp86
g3
S'Ariana Grande'
p87
sg5
I38
sg6
S'https://open.spotify.com/track/4pLwZjInHj3SimIyN9SnOz'
p88
sg8
S'Side To Side'
p89
ssS'0KHDthR0XvPoeJaqBc7Sg5'
p90
(dp91
g3
S'La Arrolladora Banda El Lim\xc3\xb3n De Rene Camacho'
p92
sg5
I1
sg6
S'https://open.spotify.com/track/0KHDthR0XvPoeJaqBc7Sg5'
p93
sg8
S'Ya Te Perd\xc3\xad La Fe'
p94
ssS'4qknM1pQz53QOyfDVTjcM9'
p95
(dp96
g3
S'Shakira'
p97
sg5
I27
sg6
S'https://open.spotify.com/track/4qknM1pQz53QOyfDVTjcM9'
p98
sg8
S'Me Enamor\xc3\xa9'
p99
ssS'0OEQGwBfL4b9KX0RwfOiW6'
p100
(dp101
g3
S'Don Omar'
p102
sg5
I6
sg6
S'https://open.spotify.com/track/0OEQGwBfL4b9KX0RwfOiW6'
p103
sg8
S'Encanto'
p104
ssS'4BHzQ9C00ceJxfG16AlNWb'
p105
(dp106
g3
S'Adele'
p107
sg5
I5
sg6
S'https://open.spotify.com/track/4BHzQ9C00ceJxfG16AlNWb'
p108
sg8
S'Send My Love (To Your New Lover)'
p109
ssS'4Km5HrUvYTaSUfiSGPJeQR'
p110
(dp111
g3
S'Migos'
p112
sg5
I3
sg6
S'https://open.spotify.com/track/4Km5HrUvYTaSUfiSGPJeQR'
p113
sg8
S'Bad and Boujee (feat. Lil Uzi Vert)'
p114
ssS'50PWlIBU7PlGGwzgN8TiFJ'
p115
(dp116
g3
S'Lady Gaga'
p117
sg5
I15
sg6
S'https://open.spotify.com/track/50PWlIBU7PlGGwzgN8TiFJ'
p118
sg8
S'Million Reasons'
p119
ssS'2RttW7RAu5nOAfq6YFvApB'
p120
(dp121
g3
S'Ed Sheeran'
p122
sg5
I5
sg6
S'https://open.spotify.com/track/2RttW7RAu5nOAfq6YFvApB'
p123
sg8
S'Happier'
p124
ssS'5LYQSNHZxEA880URXFHg6h'
p125
(dp126
g3
S'Lana Del Rey'
p127
sg5
I5
sg6
S'https://open.spotify.com/track/5LYQSNHZxEA880URXFHg6h'
p128
sg8
S'Lust for Life (with The Weeknd)'
p129
ssS'3EmmCZoqpWOTY1g2GBwJoR'
p130
(dp131
g3
S'Steve Aoki'
p132
sg5
I29
sg6
S'https://open.spotify.com/track/3EmmCZoqpWOTY1g2GBwJoR'
p133
sg8
S'Just Hold On'
p134
ssS'0y8Wf6ltWpGCpgqVa21QNX'
p135
(dp136
g3
S'Charli XCX'
p137
sg5
I2
sg6
S'https://open.spotify.com/track/0y8Wf6ltWpGCpgqVa21QNX'
p138
sg8
S'After The Afterparty (feat. Lil Yachty)'
p139
ssS'6Zosz8w6CmdGMZM6p4JlbQ'
p140
(dp141
g3
S'Danny Ocean'
p142
sg5
I2
sg6
S'https://open.spotify.com/track/6Zosz8w6CmdGMZM6p4JlbQ'
p143
sg8
S'Me Reh\xc3\xbaso'
p144
ssS'3eFJqPe8VUYrABbFjSauuj'
p145
(dp146
g3
S''
p147
sg5
I1
sg6
S'https://open.spotify.com/track/3eFJqPe8VUYrABbFjSauuj'
p148
sg8
g147
ssS'1pKuoNmq0282BNd7NRSJ9M'
p149
(dp150
g3
S'Cartel De Santa'
p151
sg5
I18
sg6
S'https://open.spotify.com/track/1pKuoNmq0282BNd7NRSJ9M'
p152
sg8
S'Mucha Marihuana'
p153
ssS'3iDPALl8BoUbuXZgy6EOWY'
p154
(dp155
g3
S'Gigolo Y La Exce'
p156
sg5
I4
sg6
S'https://open.spotify.com/track/3iDPALl8BoUbuXZgy6EOWY'
p157
sg8
S'Sexto Sentido (feat. Bad Bunny)'
p158
ssS'5kRPPEWFJIMox5qIkQkiz5'
p159
(dp160
g3
S'Harry Styles'
p161
sg5
I3
sg6
S'https://open.spotify.com/track/5kRPPEWFJIMox5qIkQkiz5'
p162
sg8
S'Sweet Creature'
p163
ssS'4muWZq9U4nQ9GP6LQglgWs'
p164
(dp165
g3
S'Alfredo Olivas'
p166
sg5
I8
sg6
S'https://open.spotify.com/track/4muWZq9U4nQ9GP6LQglgWs'
p167
sg8
S'En Definitiva'
p168
ssS'5tz69p7tJuGPeMGwNTxYuV'
p169
(dp170
g3
S'Logic'
p171
sg5
I6
sg6
S'https://open.spotify.com/track/5tz69p7tJuGPeMGwNTxYuV'
p172
sg8
S'1-800-273-8255'
p173
ssS'4xlrALxuaCf9yZBHJeTSG6'
p174
(dp175
g3
S'Jonas Blue'
p176
sg5
I3
sg6
S'https://open.spotify.com/track/4xlrALxuaCf9yZBHJeTSG6'
p177
sg8
S'Mama'
p178
ssS'3RXkboS74UYzN14xTqzPyY'
p179
(dp180
g3
g147
sg5
I1
sg6
S'https://open.spotify.com/track/3RXkboS74UYzN14xTqzPyY'
p181
sg8
g147
ssS'7FfpP3YZ6fOWMdxkIAtud9'
p182
(dp183
g3
S'Farruko'
p184
sg5
I4
sg6
S'https://open.spotify.com/track/7FfpP3YZ6fOWMdxkIAtud9'
p185
sg8
S'Krippy Kush'
p186
ssS'54lOVJJ98nfVFDK1u1csgo'
p187
(dp188
g3
S'Dvicio'
p189
sg5
I14
sg6
S'https://open.spotify.com/track/54lOVJJ98nfVFDK1u1csgo'
p190
sg8
S'Casi Humanos'
p191
ssS'2oKjjRzItVu8JZScrpzFTx'
p192
(dp193
g3
S'Pablo Albor\xc3\xa1n'
p194
sg5
I2
sg6
S'https://open.spotify.com/track/2oKjjRzItVu8JZScrpzFTx'
p195
sg8
S'Saturno'
p196
ssS'3pzjHKrQSvXGHQ98dx18HI'
p197
(dp198
g3
S'Justin Bieber'
p199
sg5
I10
sg6
S'https://open.spotify.com/track/3pzjHKrQSvXGHQ98dx18HI'
p200
sg8
S'What Do You Mean?'
p201
ssS'000xQL6tZNLJzIrtIgxqSl'
p202
(dp203
g3
S'ZAYN'
p204
sg5
I3
sg6
S'https://open.spotify.com/track/000xQL6tZNLJzIrtIgxqSl'
p205
sg8
S'Still Got Time'
p206
ssS'2FBUoWkIuQXwayw2RNo5l6'
p207
(dp208
g3
S'Drake'
p209
sg5
I6
sg6
S'https://open.spotify.com/track/2FBUoWkIuQXwayw2RNo5l6'
p210
sg8
S'Hotline Bling'
p211
ssS'1D3ODoXHBLpdxolZRHWV1j'
p212
(dp213
g3
S'Jonas Blue'
p214
sg5
I13
sg6
S'https://open.spotify.com/track/1D3ODoXHBLpdxolZRHWV1j'
p215
sg8
S'By Your Side'
p216
ssS'1CKd1PnqfYx0H12V9MSaIY'
p217
(dp218
g3
S'Zedd'
p219
sg5
I14
sg6
S'https://open.spotify.com/track/1CKd1PnqfYx0H12V9MSaIY'
p220
sg8
S'Get Low (with Liam Payne)'
p221
ssS'5c4tB0saSkNHX5CyDosuF7'
p222
(dp223
g3
S'Burak Yeter'
p224
sg5
I2
sg6
S'https://open.spotify.com/track/5c4tB0saSkNHX5CyDosuF7'
p225
sg8
S'Tuesday'
p226
ssS'4QsPTKvdpgkA7mBAvclZTa'
p227
(dp228
g3
S'Maluma'
p229
sg5
I14
sg6
S'https://open.spotify.com/track/4QsPTKvdpgkA7mBAvclZTa'
p230
sg8
S'El Perdedor - The Remix'
p231
ssS'22LGgFochmXJw5vVr5knDl'
p232
(dp233
g3
S'Caloncho'
p234
sg5
I8
sg6
S'https://open.spotify.com/track/22LGgFochmXJw5vVr5knDl'
p235
sg8
S'Optimista'
p236
ssS'4yN6xPLopmTLvc27pO9LIE'
p237
(dp238
g3
S'Nicky Jam'
p239
sg5
I29
sg6
S'https://open.spotify.com/track/4yN6xPLopmTLvc27pO9LIE'
p240
sg8
S'Si T\xc3\xba La Ves'
p241
ssS'5CtI0qwDJkDQGwXD1H1cLb'
p242
(dp243
g3
S'Luis Fonsi'
p244
sg5
I26
sg6
S'https://open.spotify.com/track/5CtI0qwDJkDQGwXD1H1cLb'
p245
sg8
S'Despacito - Remix'
p246
ssS'7m9OqQk4RVRkw9JJdeAw96'
p247
(dp248
g3
S'XXXTENTACION'
p249
sg5
I6
sg6
S'https://open.spotify.com/track/7m9OqQk4RVRkw9JJdeAw96'
p250
sg8
S'Jocelyn Flores'
p251
ssS'3WM3XDNCzEsLvtp59D9oF7'
p252
(dp253
g3
S'Yandel'
p254
sg5
I3
sg6
S'https://open.spotify.com/track/3WM3XDNCzEsLvtp59D9oF7'
p255
sg8
S'S\xc3\xb3lo M\xc3\xada'
p256
ssS'7LABrQFfRYcZUqUwng0Heb'
p257
(dp258
g3
S'Yandel'
p259
sg5
I15
sg6
S'https://open.spotify.com/track/7LABrQFfRYcZUqUwng0Heb'
p260
sg8
S'Encantadora'
p261
ssS'53Y0kdCa1CZ9gRqEuknfwy'
p262
(dp263
g3
S'David Guetta'
p264
sg5
I1
sg6
S'https://open.spotify.com/track/53Y0kdCa1CZ9gRqEuknfwy'
p265
sg8
S'Bang My Head (feat. Sia & Fetty Wap)'
p266
ssS'2ekn2ttSfGqwhhate0LSR0'
p267
(dp268
g3
S'Dua Lipa'
p269
sg5
I12
sg6
S'https://open.spotify.com/track/2ekn2ttSfGqwhhate0LSR0'
p270
sg8
S'New Rules'
p271
ssS'1sCxVKWImDZSZKvG0U9B23'
p272
(dp273
g3
S'Selena Gomez'
p274
sg5
I19
sg6
S'https://open.spotify.com/track/1sCxVKWImDZSZKvG0U9B23'
p275
sg8
S'Bad Liar'
p276
ssS'6jmngk8Fwup05JZ6kgXEGX'
p277
(dp278
g3
S'Imagine Dragons'
p279
sg5
I1
sg6
S'https://open.spotify.com/track/6jmngk8Fwup05JZ6kgXEGX'
p280
sg8
S'Walking The Wire'
p281
ssS'00i0O74dXdaKKdCrqHnfXm'
p282
(dp283
g3
S'Ricky Martin'
p284
sg5
I1
sg6
S'https://open.spotify.com/track/00i0O74dXdaKKdCrqHnfXm'
p285
sg8
S'La Mordidita'
p286
ssS'4vlbjBSMqycZk6t4HVRpnC'
p287
(dp288
g3
S'Ozuna'
p289
sg5
I18
sg6
S'https://open.spotify.com/track/4vlbjBSMqycZk6t4HVRpnC'
p290
sg8
S'No Quiere Enamorarse (Remix) [feat. Daddy Yankee]'
p291
ssS'3lGMtkONrZdJ8kTCg6KIFf'
p292
(dp293
g3
S'Natalia Lafourcade'
p294
sg5
I42
sg6
S'https://open.spotify.com/track/3lGMtkONrZdJ8kTCg6KIFf'
p295
sg8
S'Hasta la Ra\xc3\xadz'
p296
ssS'1TojBnaen0BzIoZfVccGng'
p297
(dp298
g3
S'Alejandro Fernandez'
p299
sg5
I1
sg6
S'https://open.spotify.com/track/1TojBnaen0BzIoZfVccGng'
p300
sg8
S'M\xc3\xa1talas'
p301
ssS'3dQDid3IUNhZy1OehIfYfE'
p302
(dp303
g3
S'Wisin'
p304
sg5
I42
sg6
S'https://open.spotify.com/track/3dQDid3IUNhZy1OehIfYfE'
p305
sg8
S'Vacaciones'
p306
ssS'4VrWlk8IQxevMvERoX08iC'
p307
(dp308
g3
S'Sia'
p309
sg5
I1
sg6
S'https://open.spotify.com/track/4VrWlk8IQxevMvERoX08iC'
p310
sg8
S'Chandelier'
p311
ssS'4hiUYb2nb6NlfTP9CD38Pe'
p312
(dp313
g3
S'Ti\xc3\xabsto'
p314
sg5
I14
sg6
S'https://open.spotify.com/track/4hiUYb2nb6NlfTP9CD38Pe'
p315
sg8
S'On My Way'
p316
ssS'6O6M7pJLABmfBRoGZMu76Y'
p317
(dp318
g3
S'The Chainsmokers'
p319
sg5
I1
sg6
S'https://open.spotify.com/track/6O6M7pJLABmfBRoGZMu76Y'
p320
sg8
S'Roses'
p321
ssS'2Zw7rSucHm0MIph9gmNiSn'
p322
(dp323
g3
S'Alejandro Fernandez'
p324
sg5
I39
sg6
S'https://open.spotify.com/track/2Zw7rSucHm0MIph9gmNiSn'
p325
sg8
S'Quiero Que Vuelvas'
p326
ssS'3n58u3LOFw8mITLvfPvQBz'
p327
(dp328
g3
S'Cosculluela'
p329
sg5
I15
sg6
S'https://open.spotify.com/track/3n58u3LOFw8mITLvfPvQBz'
p330
sg8
S'Manicomio'
p331
ssS'7vGuf3Y35N4wmASOKLUVVU'
p332
(dp333
g3
S'Marshmello'
p334
sg5
I8
sg6
S'https://open.spotify.com/track/7vGuf3Y35N4wmASOKLUVVU'
p335
sg8
S'Silence'
p336
ssS'0xXhgLXfEHnWJHVgRvFvdn'
p337
(dp338
g3
S'Reik'
p339
sg5
I14
sg6
S'https://open.spotify.com/track/0xXhgLXfEHnWJHVgRvFvdn'
p340
sg8
S'Creo en Ti'
p341
ssS'5hEM0JchdVzQ5PwvSfITeX'
p342
(dp343
g3
S'Piso 21'
p344
sg5
I42
sg6
S'https://open.spotify.com/track/5hEM0JchdVzQ5PwvSfITeX'
p345
sg8
S'Me Llamas (feat. Maluma) - Remix'
p346
ssS'1yeQ4dastKQ6yCjVMn62rR'
p347
(dp348
g3
S'Cartel De Santa'
p349
sg5
I4
sg6
S'https://open.spotify.com/track/1yeQ4dastKQ6yCjVMn62rR'
p350
sg8
S'Bailar y Volar'
p351
ssS'7129iqBafaphfc3WPCGC0L'
p352
(dp353
g3
S'Lukas Graham'
p354
sg5
I4
sg6
S'https://open.spotify.com/track/7129iqBafaphfc3WPCGC0L'
p355
sg8
S'7 Years'
p356
ssS'4WjH9Bzt3kx7z8kl0awxh4'
p357
(dp358
g3
S'Major Lazer'
p359
sg5
I22
sg6
S'https://open.spotify.com/track/4WjH9Bzt3kx7z8kl0awxh4'
p360
sg8
S'Lean On (feat. M\xc3\x98 & DJ Snake)'
p361
ssS'57p8CBvPOxrvyCbn6ttl5r'
p362
(dp363
g3
S'Skrillex'
p364
sg5
I9
sg6
S'https://open.spotify.com/track/57p8CBvPOxrvyCbn6ttl5r'
p365
sg8
S'Would You Ever'
p366
ssS'0CcQNd8CINkwQfe1RDtGV6'
p367
(dp368
g3
S'Imagine Dragons'
p369
sg5
I33
sg6
S'https://open.spotify.com/track/0CcQNd8CINkwQfe1RDtGV6'
p370
sg8
S'Believer'
p371
ssS'7oolFzHipTMg2nL7shhdz2'
p372
(dp373
g3
S'Ed Sheeran'
p374
sg5
I1
sg6
S'https://open.spotify.com/track/7oolFzHipTMg2nL7shhdz2'
p375
sg8
S'Eraser'
p376
ssS'3OnGuXCS9TkrJDzlWNmmNX'
p377
(dp378
g3
S'Vicente Fern\xc3\xa1ndez'
p379
sg5
I1
sg6
S'https://open.spotify.com/track/3OnGuXCS9TkrJDzlWNmmNX'
p380
sg8
S'Mujeres Divinas'
p381
ssS'1ei3g2hMYh1VKvik9FoUQR'
p382
(dp383
g3
S'Yandel'
p384
sg5
I2
sg6
S'https://open.spotify.com/track/1ei3g2hMYh1VKvik9FoUQR'
p385
sg8
S'S\xc3\xb3lo M\xc3\xada'
p386
ssS'0ERbK7qVqveCaBWIiYCrl3'
p387
(dp388
g3
S'Romeo Santos'
p389
sg5
I12
sg6
S'https://open.spotify.com/track/0ERbK7qVqveCaBWIiYCrl3'
p390
sg8
S'Bella y Sensual'
p391
ssS'3NdDpSvN911VPGivFlV5d0'
p392
(dp393
g3
S'ZAYN'
p394
sg5
I41
sg6
S'https://open.spotify.com/track/3NdDpSvN911VPGivFlV5d0'
p395
sg8
S'I Don\xe2\x80\x99t Wanna Live Forever (Fifty Shades Darker) - From Fifty Shades Darker (Original Motion Picture Soundtrack)'
p396
ssS'1iRvhKiXRElIH2Uf4gd95P'
p397
(dp398
g3
S'Jesse & Joy'
p399
sg5
I36
sg6
S'https://open.spotify.com/track/1iRvhKiXRElIH2Uf4gd95P'
p400
sg8
S'Dueles'
p401
ssS'0gb1J5UrTpzaU1s3nupgCd'
p402
(dp403
g3
S'Galantis'
p404
sg5
I5
sg6
S'https://open.spotify.com/track/0gb1J5UrTpzaU1s3nupgCd'
p405
sg8
S'No Money'
p406
ssS'4gEg092KBuj6T6RfABNBbc'
p407
(dp408
g3
S'Regulo Caro'
p409
sg5
I17
sg6
S'https://open.spotify.com/track/4gEg092KBuj6T6RfABNBbc'
p410
sg8
S'Ser\xc3\xada Un Error'
p411
ssS'1UZOjK1BwmwWU14Erba9CZ'
p412
(dp413
g3
S'Miley Cyrus'
p414
sg5
I1
sg6
S'https://open.spotify.com/track/1UZOjK1BwmwWU14Erba9CZ'
p415
sg8
S'Malibu'
p416
ssS'7lRsNbdOGykkMAgsqs4R1C'
p417
(dp418
g3
S'Nacho'
p419
sg5
I25
sg6
S'https://open.spotify.com/track/7lRsNbdOGykkMAgsqs4R1C'
p420
sg8
S'B\xc3\xa1ilame'
p421
ssS'2eMwDehkIC1j68U6FA3Eiq'
p422
(dp423
g3
S'Lil Uzi Vert'
p424
sg5
I11
sg6
S'https://open.spotify.com/track/2eMwDehkIC1j68U6FA3Eiq'
p425
sg8
S'XO TOUR Llif3'
p426
ssS'5KhJdJKz3WXuiiftKTDR3b'
p427
(dp428
g3
S'Los Plebes del Rancho de Ariel Camacho'
p429
sg5
I9
sg6
S'https://open.spotify.com/track/5KhJdJKz3WXuiiftKTDR3b'
p430
sg8
S'Como Fue'
p431
ssS'2KklXplRtxMsBYo474Es0w'
p432
(dp433
g3
S'Ofenbach'
p434
sg5
I11
sg6
S'https://open.spotify.com/track/2KklXplRtxMsBYo474Es0w'
p435
sg8
S'Be Mine'
p436
ssS'1PPswVdqYYvfBIk5MdB4Lo'
p437
(dp438
g3
S'Banda Los Recoditos'
p439
sg5
I19
sg6
S'https://open.spotify.com/track/1PPswVdqYYvfBIk5MdB4Lo'
p440
sg8
S'Me Est\xc3\xa1 Gustando'
p441
ssS'3CRDbSIZ4r5MsZ0YwxuEkn'
p442
(dp443
g3
S'Twenty One Pilots'
p444
sg5
I42
sg6
S'https://open.spotify.com/track/3CRDbSIZ4r5MsZ0YwxuEkn'
p445
sg8
S'Stressed Out'
p446
ssS'6mICuAdrwEjh6Y6lroV2Kg'
p447
(dp448
g3
S'Shakira'
p449
sg5
I42
sg6
S'https://open.spotify.com/track/6mICuAdrwEjh6Y6lroV2Kg'
p450
sg8
S'Chantaje'
p451
ssS'02IJFWVjLSM811RsySQusA'
p452
(dp453
g3
S'Melendi'
p454
sg5
I14
sg6
S'https://open.spotify.com/track/02IJFWVjLSM811RsySQusA'
p455
sg8
S'Destino o Casualidad'
p456
ssS'4okba5wu9mMLXx79DXLKi3'
p457
(dp458
g3
S'Daddy Yankee'
p459
sg5
I38
sg6
S'https://open.spotify.com/track/4okba5wu9mMLXx79DXLKi3'
p460
sg8
S'La Rompe Corazones'
p461
ssS'2tergQtVsHUBYlL76Kx93c'
p462
(dp463
g3
S'Jennifer Lopez'
p464
sg5
I2
sg6
S'https://open.spotify.com/track/2tergQtVsHUBYlL76Kx93c'
p465
sg8
S'Olv\xc3\xaddame y Pega la Vuelta'
p466
ssS'0s6yB0ZFl1LvYHAnGhXFga'
p467
(dp468
g3
S'Alejandro Sanz'
p469
sg5
I19
sg6
S'https://open.spotify.com/track/0s6yB0ZFl1LvYHAnGhXFga'
p470
sg8
S'Deja Que Te Bese'
p471
ssS'7obrra8VutMXPktd7zGZlA'
p472
(dp473
g3
S'Moenia'
p474
sg5
I5
sg6
S'https://open.spotify.com/track/7obrra8VutMXPktd7zGZlA'
p475
sg8
S'Morir Tres Veces'
p476
ssS'00lNx0OcTJrS3MKHcB80HY'
p477
(dp478
g3
S'Jax Jones'
p479
sg5
I3
sg6
S'https://open.spotify.com/track/00lNx0OcTJrS3MKHcB80HY'
p480
sg8
S"You Don't Know Me - Radio Edit"
p481
ssS'0tICYNayWWhH9GPeFrfjfD'
p482
(dp483
g3
S'Kungs'
p484
sg5
I22
sg6
S'https://open.spotify.com/track/0tICYNayWWhH9GPeFrfjfD'
p485
sg8
S"This Girl (Kungs Vs. Cookin' On 3 Burners) - Kungs Vs. Cookin' On 3 Burners"
p486
ssS'7JNh1cfm0eXjqFVOzKLyau'
p487
(dp488
g3
S'Becky G'
p489
sg5
I13
sg6
S'https://open.spotify.com/track/7JNh1cfm0eXjqFVOzKLyau'
p490
sg8
S'Mayores'
p491
ssS'0fg8CqpjdojMyXLNzM2PaJ'
p492
(dp493
g3
S'Major Lazer'
p494
sg5
I12
sg6
S'https://open.spotify.com/track/0fg8CqpjdojMyXLNzM2PaJ'
p495
sg8
S'Run Up (feat. PARTYNEXTDOOR & Nicki Minaj)'
p496
ssS'3noN1TxpjbjjmKqssghvg8'
p497
(dp498
g3
S'Cosculluela'
p499
sg5
I22
sg6
S'https://open.spotify.com/track/3noN1TxpjbjjmKqssghvg8'
p500
sg8
S'Si Me Dices Que Si (feat. Nicky Jam)'
p501
ssS'3umS4y3uQDkqekNjVpiRUs'
p502
(dp503
g3
S'Nicky Jam'
p504
sg5
I38
sg6
S'https://open.spotify.com/track/3umS4y3uQDkqekNjVpiRUs'
p505
sg8
S'El Amante'
p506
ssS'6uFsE1JgZ20EXyU0JQZbUR'
p507
(dp508
g3
S'Taylor Swift'
p509
sg5
I7
sg6
S'https://open.spotify.com/track/6uFsE1JgZ20EXyU0JQZbUR'
p510
sg8
S'Look What You Made Me Do'
p511
ssS'6SIrNxmmdbv1KUbFBu1PaN'
p512
(dp513
g3
S'Ozuna'
p514
sg5
I14
sg6
S'https://open.spotify.com/track/6SIrNxmmdbv1KUbFBu1PaN'
p515
sg8
S'Bebe (feat. Anuel AA)'
p516
ssS'5CPqOpKSk0QcJ3dGdaWcRB'
p517
(dp518
g3
S'The xx'
p519
sg5
I1
sg6
S'https://open.spotify.com/track/5CPqOpKSk0QcJ3dGdaWcRB'
p520
sg8
S'On Hold'
p521
ssS'0L87MffumRNWrY2SNUFcvs'
p522
(dp523
g3
S'Milky Chance'
p524
sg5
I6
sg6
S'https://open.spotify.com/track/0L87MffumRNWrY2SNUFcvs'
p525
sg8
S'Cocoon'
p526
ssS'4xBjsLUSjcx2h7PcRikpQp'
p527
(dp528
g3
S'Camila Cabello'
p529
sg5
I1
sg6
S'https://open.spotify.com/track/4xBjsLUSjcx2h7PcRikpQp'
p530
sg8
S'OMG'
p531
ssS'6ciFFQZcrCwSiUBZvEZrJc'
p532
(dp533
g3
S'Major Lazer'
p534
sg5
I1
sg6
S'https://open.spotify.com/track/6ciFFQZcrCwSiUBZvEZrJc'
p535
sg8
S'Know No Better (feat. Travis Scott & Quavo) - Bad Bunny Remix'
p536
ssS'7GX5flRQZVHRAGd6B4TmDO'
p537
(dp538
g3
S'Lil Uzi Vert'
p539
sg5
I7
sg6
S'https://open.spotify.com/track/7GX5flRQZVHRAGd6B4TmDO'
p540
sg8
S'XO TOUR Llif3'
p541
ssS'3Tshb8DCw7TEdnNMJc8Yuw'
p542
(dp543
g3
S'Banda Sinaloense MS de Sergio Liz\xc3\xa1rraga'
p544
sg5
I30
sg6
S'https://open.spotify.com/track/3Tshb8DCw7TEdnNMJc8Yuw'
p545
sg8
S'Es Tuyo Mi Amor'
p546
ssS'3WHqVVRvPDWz033iPs04md'
p547
(dp548
g3
S'Enzo Ortiz'
p549
sg5
I5
sg6
S'https://open.spotify.com/track/3WHqVVRvPDWz033iPs04md'
p550
sg8
S'6 AM (Remix)'
p551
ssS'0CokSRCu5hZgPxcZBaEzVE'
p552
(dp553
g3
S'Macklemore'
p554
sg5
I3
sg6
S'https://open.spotify.com/track/0CokSRCu5hZgPxcZBaEzVE'
p555
sg8
S'Glorious (feat. Skylar Grey)'
p556
ssS'4z3GJkrtH97Bj6fRta983T'
p557
(dp558
g3
S'Carlos Vives'
p559
sg5
I11
sg6
S'https://open.spotify.com/track/4z3GJkrtH97Bj6fRta983T'
p560
sg8
S'Robarte un Beso'
p561
ssS'3VK8copXwqvAueMPhnBe6K'
p562
(dp563
g3
S'Calibre 50'
p564
sg5
I42
sg6
S'https://open.spotify.com/track/3VK8copXwqvAueMPhnBe6K'
p565
sg8
S'Siempre Te Voy A Querer'
p566
ssS'3GSMdtJphymHEsR8K9jT5Q'
p567
(dp568
g3
S'Le\xc3\xb3n Larregui'
p569
sg5
I42
sg6
S'https://open.spotify.com/track/3GSMdtJphymHEsR8K9jT5Q'
p570
sg8
S'Locos'
p571
ssS'5CI2bMAdlP9rwCVUHXhHQV'
p572
(dp573
g3
S'El Komander'
p574
sg5
I2
sg6
S'https://open.spotify.com/track/5CI2bMAdlP9rwCVUHXhHQV'
p575
sg8
S'Prohibida'
p576
ssS'7BKLCZ1jbUBVqRi2FVlTVw'
p577
(dp578
g3
S'The Chainsmokers'
p579
sg5
I42
sg6
S'https://open.spotify.com/track/7BKLCZ1jbUBVqRi2FVlTVw'
p580
sg8
S'Closer'
p581
ssS'7hDc8b7IXETo14hHIHdnhd'
p582
(dp583
g3
S'Drake'
p584
sg5
I28
sg6
S'https://open.spotify.com/track/7hDc8b7IXETo14hHIHdnhd'
p585
sg8
S'Passionfruit'
p586
ssS'2webQDZmtGioeu3zUUi9We'
p587
(dp588
g3
S'Sebastian Yatra'
p589
sg5
I26
sg6
S'https://open.spotify.com/track/2webQDZmtGioeu3zUUi9We'
p590
sg8
S'Traicionera - Remix'
p591
ssS'3RiPr603aXAoi4GHyXx0uy'
p592
(dp593
g3
S'Coldplay'
p594
sg5
I5
sg6
S'https://open.spotify.com/track/3RiPr603aXAoi4GHyXx0uy'
p595
sg8
S'Hymn For The Weekend'
p596
ssS'2Ef6uEWmlcCSaZD3hBpkIF'
p597
(dp598
g3
S'Los Plebes del Rancho de Ariel Camacho'
p599
sg5
I27
sg6
S'https://open.spotify.com/track/2Ef6uEWmlcCSaZD3hBpkIF'
p600
sg8
S'Que Se Canse de Llamar'
p601
ssS'2yGNkkwU2iT0doFxkxhcXH'
p602
(dp603
g3
S'Banda Sinaloense MS de Sergio Liz\xc3\xa1rraga'
p604
sg5
I42
sg6
S'https://open.spotify.com/track/2yGNkkwU2iT0doFxkxhcXH'
p605
sg8
S'Tengo Que Colgar'
p606
ssS'0XLOf9LhyazPX9Ld8jPiUq'
p607
(dp608
g3
S'Selena Gomez'
p609
sg5
I10
sg6
S'https://open.spotify.com/track/0XLOf9LhyazPX9Ld8jPiUq'
p610
sg8
S'Fetish (feat. Gucci Mane)'
p611
ssS'0PE1dlvMZeBqEbm4BtVVSZ'
p612
(dp613
g3
S'Gente De Zona'
p614
sg5
I8
sg6
S'https://open.spotify.com/track/0PE1dlvMZeBqEbm4BtVVSZ'
p615
sg8
S'Si No Vuelves'
p616
ssS'6puxHBNwu2Nmm7uD3Rd2MP'
p617
(dp618
g3
S'C. Tangana'
p619
sg5
I9
sg6
S'https://open.spotify.com/track/6puxHBNwu2Nmm7uD3Rd2MP'
p620
sg8
S'Mala Mujer'
p621
ssS'3A7qX2QjDlPnazUsRk5y0M'
p622
(dp623
g3
S'David Guetta'
p624
sg5
I17
sg6
S'https://open.spotify.com/track/3A7qX2QjDlPnazUsRk5y0M'
p625
sg8
S'2U (feat. Justin Bieber)'
p626
ssS'2OALaHcDdKkjYEpAr0Qzab'
p627
(dp628
g3
S'Avicii'
p629
sg5
I2
sg6
S'https://open.spotify.com/track/2OALaHcDdKkjYEpAr0Qzab'
p630
sg8
S'Lonely Together (feat. Rita Ora)'
p631
ssS'2d8rQXA25Yk5ZE3XW1eTXs'
p632
(dp633
g3
S'Kevin Roldan'
p634
sg5
I10
sg6
S'https://open.spotify.com/track/2d8rQXA25Yk5ZE3XW1eTXs'
p635
sg8
S'Me Gustas'
p636
ssS'56lBX2WHqfGuoeZxZvUnVj'
p637
(dp638
g3
S'Imagine Dragons'
p639
sg5
I3
sg6
S'https://open.spotify.com/track/56lBX2WHqfGuoeZxZvUnVj'
p640
sg8
S'Thunder'
p641
ssS'5nCtCCB5i1OfbADvynNw0i'
p642
(dp643
g3
S'Ed Sheeran'
p644
sg5
I17
sg6
S'https://open.spotify.com/track/5nCtCCB5i1OfbADvynNw0i'
p645
sg8
S'Shape of You (Latin Remix) [feat. Zion & Lennox]'
p646
ssS'5qqabIl2vWzo9ApSC317sa'
p647
(dp648
g3
S'Oasis'
p649
sg5
I4
sg6
S'https://open.spotify.com/track/5qqabIl2vWzo9ApSC317sa'
p650
sg8
S'Wonderwall - Remastered'
p651
ssS'4IWAyPf1KMq7JCyGeCjTeH'
p652
(dp653
g3
S'Imagine Dragons'
p654
sg5
I1
sg6
S'https://open.spotify.com/track/4IWAyPf1KMq7JCyGeCjTeH'
p655
sg8
S'Whatever It Takes'
p656
ssS'3pJfnBjO3kjudEchcPEDxS'
p657
(dp658
g3
S'Caifanes'
p659
sg5
I16
sg6
S'https://open.spotify.com/track/3pJfnBjO3kjudEchcPEDxS'
p660
sg8
S'Afuera'
p661
ssS'7fwXWKdDNI5IutOMc5OKYw'
p662
(dp663
g3
S'J Balvin'
p664
sg5
I2
sg6
S'https://open.spotify.com/track/7fwXWKdDNI5IutOMc5OKYw'
p665
sg8
S'Mi Gente (feat. Beyonc\xc3\xa9)'
p666
ssS'4058DPUoC7sLPQ05pr3e4C'
p667
(dp668
g3
S'Cartel De Santa'
p669
sg5
I27
sg6
S'https://open.spotify.com/track/4058DPUoC7sLPQ05pr3e4C'
p670
sg8
S'Si Te Vienen a Contar'
p671
ssS'6YZdkObH88npeKrrkb8Ggf'
p672
(dp673
g3
S'Enrique Iglesias'
p674
sg5
I32
sg6
S'https://open.spotify.com/track/6YZdkObH88npeKrrkb8Ggf'
p675
sg8
S'DUELE EL CORAZON'
p676
ssS'339uAILdMichzBzKd45Gju'
p677
(dp678
g3
S'Cartel De Santa'
p679
sg5
I10
sg6
S'https://open.spotify.com/track/339uAILdMichzBzKd45Gju'
p680
sg8
S'Desde Cu\xc3\xa1ndo'
p681
ssS'3OQXAp3uGQvkPi4DAMaM5p'
p682
(dp683
g3
S'Christian Nodal'
p684
sg5
I35
sg6
S'https://open.spotify.com/track/3OQXAp3uGQvkPi4DAMaM5p'
p685
sg8
S'Adi\xc3\xb3s Amor'
p686
ssS'7LEydI5NfjY6mZfKwYIptZ'
p687
(dp688
g3
S'Fifth Harmony'
p689
sg5
I1
sg6
S'https://open.spotify.com/track/7LEydI5NfjY6mZfKwYIptZ'
p690
sg8
S'Down'
p691
ssS'3FiE2d325mIOc4YjkSLVJR'
p692
(dp693
g3
S'Ariana Grande'
p694
sg5
I4
sg6
S'https://open.spotify.com/track/3FiE2d325mIOc4YjkSLVJR'
p695
sg8
S'Everyday'
p696
ssS'3dnOHn0A5q3ny1LLLnSAty'
p697
(dp698
g3
S'Yandel'
p699
sg5
I3
sg6
S'https://open.spotify.com/track/3dnOHn0A5q3ny1LLLnSAty'
p700
sg8
S'Mi Religi\xc3\xb3n'
p701
ssS'211mktDmIq7g2Q4gBTXphj'
p702
(dp703
g3
S'Los Plebes del Rancho de Ariel Camacho'
p704
sg5
I21
sg6
S'https://open.spotify.com/track/211mktDmIq7g2Q4gBTXphj'
p705
sg8
S'No Lo Hice Bien'
p706
ssS'53IpyJOqUIcCzCUtMjP9oy'
p707
(dp708
g3
S'Intocable'
p709
sg5
I1
sg6
S'https://open.spotify.com/track/53IpyJOqUIcCzCUtMjP9oy'
p710
sg8
S'\xc2\xbfY Todo Para Qu\xc3\xa9?'
p711
ssS'0Zbbxnx4SGGHoIow4PpISP'
p712
(dp713
g3
S'Kygo'
p714
sg5
I1
sg6
S'https://open.spotify.com/track/0Zbbxnx4SGGHoIow4PpISP'
p715
sg8
S'Stargazing'
p716
ssS'7JDfRDOmvfoh3wYChrgVHV'
p717
(dp718
g3
S'Juli\xc3\xb3n \xc3\x81lvarez y su Norte\xc3\xb1o Banda'
p719
sg5
I1
sg6
S'https://open.spotify.com/track/7JDfRDOmvfoh3wYChrgVHV'
p720
sg8
S'Y Me Pregunto'
p721
ssS'0azC730Exh71aQlOt9Zj3y'
p722
(dp723
g3
S'Calvin Harris'
p724
sg5
I29
sg6
S'https://open.spotify.com/track/0azC730Exh71aQlOt9Zj3y'
p725
sg8
S'This Is What You Came For'
p726
ssS'2Gl0FzuLxflY6nPifJp5Dr'
p727
(dp728
g3
S'Kygo'
p729
sg5
I18
sg6
S'https://open.spotify.com/track/2Gl0FzuLxflY6nPifJp5Dr'
p730
sg8
S'First Time'
p731
ssS'7i2DJ88J7jQ8K7zqFX2fW8'
p732
(dp733
g3
S'Halsey'
p734
sg5
I1
sg6
S'https://open.spotify.com/track/7i2DJ88J7jQ8K7zqFX2fW8'
p735
sg8
S'Now Or Never'
p736
ssS'6stYbAJgTszHAHZMPxWWCY'
p737
(dp738
g3
S'IAmChino'
p739
sg5
I42
sg6
S'https://open.spotify.com/track/6stYbAJgTszHAHZMPxWWCY'
p740
sg8
S'Ay Mi Dios'
p741
ssS'5JaMGjY9Ltvo9CFQfmUdYW'
p742
(dp743
g3
S'Banda Sinaloense MS de Sergio Liz\xc3\xa1rraga'
p744
sg5
I14
sg6
S'https://open.spotify.com/track/5JaMGjY9Ltvo9CFQfmUdYW'
p745
sg8
S'Mi Raz\xc3\xb3n De Ser'
p746
ssS'7if2mDYRGkYTUMzlNgiNqv'
p747
(dp748
g3
S'Joan Sebastian'
p749
sg5
I1
sg6
S'https://open.spotify.com/track/7if2mDYRGkYTUMzlNgiNqv'
p750
sg8
S'Tatuajes'
p751
ssS'68EMU2RD1ECNeOeJ5qAXCV'
p752
(dp753
g3
S'Charlie Puth'
p754
sg5
I42
sg6
S'https://open.spotify.com/track/68EMU2RD1ECNeOeJ5qAXCV'
p755
sg8
S"We Don't Talk Anymore (feat. Selena Gomez)"
p756
ssS'105pLwtYErO64sPyXsPPAP'
p757
(dp758
g3
S'Morat'
p759
sg5
I19
sg6
S'https://open.spotify.com/track/105pLwtYErO64sPyXsPPAP'
p760
sg8
S'Amor Con Hielo'
p761
ssS'19CAKZdXVNyZrfmF60RAj3'
p762
(dp763
g3
S'Romeo Santos'
p764
sg5
I4
sg6
S'https://open.spotify.com/track/19CAKZdXVNyZrfmF60RAj3'
p765
sg8
S'Imitadora'
p766
ssS'77a9893yxuz36cBUmBzA8E'
p767
(dp768
g3
S'Carlos Vives'
p769
sg5
I8
sg6
S'https://open.spotify.com/track/77a9893yxuz36cBUmBzA8E'
p770
sg8
S'Al Filo de Tu Amor'
p771
ssS'1j4kHkkpqZRBwE0A4CN4Yv'
p772
(dp773
g3
S'ZAYN'
p774
sg5
I5
sg6
S'https://open.spotify.com/track/1j4kHkkpqZRBwE0A4CN4Yv'
p775
sg8
S'Dusk Till Dawn - Radio Edit'
p776
ssS'4yZf3ui3Jc8dx8MMVZtHWE'
p777
(dp778
g3
S'Cartel De Santa'
p779
sg5
I17
sg6
S'https://open.spotify.com/track/4yZf3ui3Jc8dx8MMVZtHWE'
p780
sg8
S'Los Mensajes del Whatsapp'
p781
ssS'3DXncPQOG4VBw3QHh3S817'
p782
(dp783
g3
S'DJ Khaled'
p784
sg5
I19
sg6
S'https://open.spotify.com/track/3DXncPQOG4VBw3QHh3S817'
p785
sg8
S"I'm the One"
p786
ssS'2q6tgiA9tpb6DMguABwCWE'
p787
(dp788
g3
S'John Legend'
p789
sg5
I9
sg6
S'https://open.spotify.com/track/2q6tgiA9tpb6DMguABwCWE'
p790
sg8
S'All of Me'
p791
ssS'4VuS959DSpr82t3qBqCrWG'
p792
(dp793
g3
S'Ed Sheeran'
p794
sg5
I1
sg6
S'https://open.spotify.com/track/4VuS959DSpr82t3qBqCrWG'
p795
sg8
S'Supermarket Flowers'
p796
ssS'3AJwUDP919kvQ9QcozQPxg'
p797
(dp798
g3
S'Coldplay'
p799
sg5
I1
sg6
S'https://open.spotify.com/track/3AJwUDP919kvQ9QcozQPxg'
p800
sg8
S'Yellow'
p801
ssS'3mxWDt0eKXfl4C1e4oIP0J'
p802
(dp803
g3
S'Ozuna'
p804
sg5
I2
sg6
S'https://open.spotify.com/track/3mxWDt0eKXfl4C1e4oIP0J'
p805
sg8
S'Se Prepar\xc3\xb3'
p806
ssS'7MMRoGvm7uhoUVhGvHJ3yW'
p807
(dp808
g3
S'Manuel Turizo'
p809
sg5
I10
sg6
S'https://open.spotify.com/track/7MMRoGvm7uhoUVhGvHJ3yW'
p810
sg8
S'Una Lady Como T\xc3\xba - Remix'
p811
ssS'61HHDBLqF3AmSvLfHKNGd2'
p812
(dp813
g3
S'Karol G'
p814
sg5
I16
sg6
S'https://open.spotify.com/track/61HHDBLqF3AmSvLfHKNGd2'
p815
sg8
S'Ahora Me Llama'
p816
ssS'1lxswgIpzV6HhENRvkflES'
p817
(dp818
g3
S'Farruko'
p819
sg5
I41
sg6
S'https://open.spotify.com/track/1lxswgIpzV6HhENRvkflES'
p820
sg8
S'Chillax'
p821
ssS'10nQ3Pj0o1XotcikgJPVKD'
p822
(dp823
g3
S'Bad Bunny'
p824
sg5
I13
sg6
S'https://open.spotify.com/track/10nQ3Pj0o1XotcikgJPVKD'
p825
sg8
S'Tu No Metes Cabra'
p826
ssS'3QHMxEOAGD51PDlbFPHLyJ'
p827
(dp828
g3
S'Marc Anthony'
p829
sg5
I2
sg6
S'https://open.spotify.com/track/3QHMxEOAGD51PDlbFPHLyJ'
p830
sg8
S'Vivir Mi Vida'
p831
ssS'2bBMODHVTXGwE2aZYfbgCt'
p832
(dp833
g3
S'Gorillaz'
p834
sg5
I2
sg6
S'https://open.spotify.com/track/2bBMODHVTXGwE2aZYfbgCt'
p835
sg8
S'Ascension (feat. Vince Staples)'
p836
ssS'7ofxPmTNMj2GP07g1VZa0O'
p837
(dp838
g3
S'Alex Sensation'
p839
sg5
I10
sg6
S'https://open.spotify.com/track/7ofxPmTNMj2GP07g1VZa0O'
p840
sg8
S'Que Va'
p841
ssS'1OmcAT5Y8eg5bUPv9qJT4R'
p842
(dp843
g3
S'Post Malone'
p844
sg5
I3
sg6
S'https://open.spotify.com/track/1OmcAT5Y8eg5bUPv9qJT4R'
p845
sg8
S'rockstar'
p846
ssS'7nAvryV9PVCt9PQGPx7I0z'
p847
(dp848
g3
S'Luis Miguel'
p849
sg5
I1
sg6
S'https://open.spotify.com/track/7nAvryV9PVCt9PQGPx7I0z'
p850
sg8
S'Si Nos Dejan'
p851
ssS'21Ullb4TU8qMsQd0Iselng'
p852
(dp853
g3
S'Luis Miguel'
p854
sg5
I1
sg6
S'https://open.spotify.com/track/21Ullb4TU8qMsQd0Iselng'
p855
sg8
S'Sabes Una Cosa'
p856
ssS'5tf1VVWniHgryyumXyJM7w'
p857
(dp858
g3
S'Robin Schulz'
p859
sg5
I5
sg6
S'https://open.spotify.com/track/5tf1VVWniHgryyumXyJM7w'
p860
sg8
S'Sugar (feat. Francesco Yates)'
p861
ssS'4BzTdCoD7hikdvNIo1k6W4'
p862
(dp863
g3
S'Ricardo Montaner'
p864
sg5
I8
sg6
S'https://open.spotify.com/track/4BzTdCoD7hikdvNIo1k6W4'
p865
sg8
S'Aunque Ahora Est\xc3\xa9s Con El'
p866
ssS'3BY2mafsbsoKGqS380Xnuz'
p867
(dp868
g3
S'Don Omar'
p869
sg5
I42
sg6
S'https://open.spotify.com/track/3BY2mafsbsoKGqS380Xnuz'
p870
sg8
S'Te Quiero Pa\xc2\xb4Mi'
p871
ssS'0EpFfFZpCuqYFzHvxOtrZS'
p872
(dp873
g3
S'Yandel'
p874
sg5
I19
sg6
S'https://open.spotify.com/track/0EpFfFZpCuqYFzHvxOtrZS'
p875
sg8
S'Encantadora - Remix'
p876
ssS'7BEI30TTNhwnkCyNUDmFrr'
p877
(dp878
g3
S'Daddy Yankee'
p879
sg5
I15
sg6
S'https://open.spotify.com/track/7BEI30TTNhwnkCyNUDmFrr'
p880
sg8
S'Hula Hoop'
p881
ssS'7JpzzaCzljQdfnG7wPRqSe'
p882
(dp883
g3
S'Prince Royce'
p884
sg5
I2
sg6
S'https://open.spotify.com/track/7JpzzaCzljQdfnG7wPRqSe'
p885
sg8
S'Ganas Locas'
p886
ssS'198qSChSMQFuSimdeeY9gK'
p887
(dp888
g3
S'Los Fabulosos Cadillacs'
p889
sg5
I2
sg6
S'https://open.spotify.com/track/198qSChSMQFuSimdeeY9gK'
p890
sg8
S'Vasos Vac\xc3\xados - Remasterizado 2008'
p891
ssS'1O18MtSAMUk7JfAVB8gGzs'
p892
(dp893
g3
S'Banda Sinaloense MS de Sergio Liz\xc3\xa1rraga'
p894
sg5
I11
sg6
S'https://open.spotify.com/track/1O18MtSAMUk7JfAVB8gGzs'
p895
sg8
S'Ha\xcc\x81blame De Ti'
p896
ssS'5hYTyyh2odQKphUbMqc5gN'
p897
(dp898
g3
S'Alessia Cara'
p899
sg5
I9
sg6
S'https://open.spotify.com/track/5hYTyyh2odQKphUbMqc5gN'
p900
sg8
S"How Far I'll Go - From Moana"
p901
ssS'72jbDTw1piOOj770jWNeaG'
p902
(dp903
g3
S'The Chainsmokers'
p904
sg5
I29
sg6
S'https://open.spotify.com/track/72jbDTw1piOOj770jWNeaG'
p905
sg8
S'Paris'
p906
ssS'02yD6Wmpx5kLAoXLQOnuEb'
p907
(dp908
g3
S'Jesse & Joy'
p909
sg5
I22
sg6
S'https://open.spotify.com/track/02yD6Wmpx5kLAoXLQOnuEb'
p910
sg8
S'Me soltaste'
p911
ssS'13C7afV2SBHsR583SEktoP'
p912
(dp913
g3
S'Fidel Rueda'
p914
sg5
I1
sg6
S'https://open.spotify.com/track/13C7afV2SBHsR583SEktoP'
p915
sg8
S'Como No Queriendo'
p916
ssS'6VuUMo1TusnqBxLTnr3hOI'
p917
(dp918
g3
S'Le\xc3\xb3n Larregui'
p919
sg5
I42
sg6
S'https://open.spotify.com/track/6VuUMo1TusnqBxLTnr3hOI'
p920
sg8
S'Brillas'
p921
ssS'0dA2Mk56wEzDgegdC6R17g'
p922
(dp923
g3
S'Zedd'
p924
sg5
I29
sg6
S'https://open.spotify.com/track/0dA2Mk56wEzDgegdC6R17g'
p925
sg8
S'Stay (with Alessia Cara)'
p926
ssS'3Ytr1SUCUi6J3L9dRFx5iH'
p927
(dp928
g3
S'Major Lazer'
p929
sg5
I15
sg6
S'https://open.spotify.com/track/3Ytr1SUCUi6J3L9dRFx5iH'
p930
sg8
S'Know No Better (feat. Quavo)'
p931
ssS'6La6oWlGposkrgvLjjRJju'
p932
(dp933
g3
S'Ozuna'
p934
sg5
I1
sg6
S'https://open.spotify.com/track/6La6oWlGposkrgvLjjRJju'
p935
sg8
S'Cumplea\xc3\xb1os'
p936
ssS'3w2G5Gw8OrgIS3GVC84JqF'
p937
(dp938
g3
S'Alfredo Olivas'
p939
sg5
I8
sg6
S'https://open.spotify.com/track/3w2G5Gw8OrgIS3GVC84JqF'
p940
sg8
S'El Paciente'
p941
ssS'7nZmah2llfvLDiUjm0kiyz'
p942
(dp943
g3
S'Justin Bieber'
p944
sg5
I8
sg6
S'https://open.spotify.com/track/7nZmah2llfvLDiUjm0kiyz'
p945
sg8
S'Friends (with BloodPop\xc2\xae)'
p946
ssS'6SRg6MfhnXxXwxtufnCGuV'
p947
(dp948
g3
S'Gerardo Ortiz'
p949
sg5
I21
sg6
S'https://open.spotify.com/track/6SRg6MfhnXxXwxtufnCGuV'
p950
sg8
S'Regresa Hermosa'
p951
ssS'2LsbizbOeNa4x6qsi2jAMb'
p952
(dp953
g3
S'Jarabe De Palo'
p954
sg5
I38
sg6
S'https://open.spotify.com/track/2LsbizbOeNa4x6qsi2jAMb'
p955
sg8
S'La flaca'
p956
ssS'7MHN1aCFtLXjownGhvEQlF'
p957
(dp958
g3
S'Manuel Turizo'
p959
sg5
I21
sg6
S'https://open.spotify.com/track/7MHN1aCFtLXjownGhvEQlF'
p960
sg8
S'Una Lady Como T\xc3\xba'
p961
ssS'22eADXu8DfOAUEDw4vU8qy'
p962
(dp963
g3
S'Chris Jeday'
p964
sg5
I29
sg6
S'https://open.spotify.com/track/22eADXu8DfOAUEDw4vU8qy'
p965
sg8
S'Ahora Dice'
p966
ssS'0OMRAvrtLWE2TvcXorRiB9'
p967
(dp968
g3
S'Gente De Zona'
p969
sg5
I40
sg6
S'https://open.spotify.com/track/0OMRAvrtLWE2TvcXorRiB9'
p970
sg8
S'La Gozadera'
p971
ssS'2dfHh7ECGxfNqZTQno09Vk'
p972
(dp973
g3
S'Ed Sheeran'
p974
sg5
I1
sg6
S'https://open.spotify.com/track/2dfHh7ECGxfNqZTQno09Vk'
p975
sg8
S"Hearts Don't Break Around Here"
p976
ssS'6lanRgr6wXibZr8KgzXxBl'
p977
(dp978
g3
S'Christina Perri'
p979
sg5
I9
sg6
S'https://open.spotify.com/track/6lanRgr6wXibZr8KgzXxBl'
p980
sg8
S'A Thousand Years'
p981
ssS'0H7cz1bR7w9PulJL7Na774'
p982
(dp983
g3
S'Felipe Pel\xc3\xa1ez'
p984
sg5
I13
sg6
S'https://open.spotify.com/track/0H7cz1bR7w9PulJL7Na774'
p985
sg8
S'Vivo Pensando En Ti'
p986
ssS'33F4IHQ2JcXWSDXNA9b4tK'
p987
(dp988
g3
S'Maluma'
p989
sg5
I5
sg6
S'https://open.spotify.com/track/33F4IHQ2JcXWSDXNA9b4tK'
p990
sg8
S'Felices los 4 - Salsa Version'
p991
ssS'7EySX8ldJHoeWjJhJyZ8Tq'
p992
(dp993
g3
S'Mon Laferte'
p994
sg5
I5
sg6
S'https://open.spotify.com/track/7EySX8ldJHoeWjJhJyZ8Tq'
p995
sg8
S'Si T\xc3\xba Me Quisieras'
p996
ssS'0mvocLIWUnT10znvIXwHGr'
p997
(dp998
g3
S'Man\xc3\xa1'
p999
sg5
I2
sg6
S'https://open.spotify.com/track/0mvocLIWUnT10znvIXwHGr'
p1000
sg8
S'En El Muelle De San Blas'
p1001
ssS'7l9CE3wmEGOUYw1j4ETjnL'
p1002
(dp1003
g3
S'Gorillaz'
p1004
sg5
I2
sg6
S'https://open.spotify.com/track/7l9CE3wmEGOUYw1j4ETjnL'
p1005
sg8
S'Saturnz Barz (feat. Popcaan)'
p1006
ssS'0NiXXAI876aGImAd6rTj8w'
p1007
(dp1008
g3
S'Jonas Blue'
p1009
sg5
I14
sg6
S'https://open.spotify.com/track/0NiXXAI876aGImAd6rTj8w'
p1010
sg8
S'Mama'
p1011
ssS'343YBumqHu19cGoGARUTsd'
p1012
(dp1013
g3
S'Drake'
p1014
sg5
I15
sg6
S'https://open.spotify.com/track/343YBumqHu19cGoGARUTsd'
p1015
sg8
S'Fake Love'
p1016
ssS'5HDPtsnyb3maFmPL8LLUTG'
p1017
(dp1018
g3
S'Ed Sheeran'
p1019
sg5
I2
sg6
S'https://open.spotify.com/track/5HDPtsnyb3maFmPL8LLUTG'
p1020
sg8
S'New Man'
p1021
ssS'6WbADFqMvR8N5u0BvtsWQE'
p1022
(dp1023
g3
S'Avicii'
p1024
sg5
I9
sg6
S'https://open.spotify.com/track/6WbADFqMvR8N5u0BvtsWQE'
p1025
sg8
S'Without You (feat. Sandro Cavazza)'
p1026
ssS'75JFxkI2RXiU7L9VXzMkle'
p1027
(dp1028
g3
S'Coldplay'
p1029
sg5
I42
sg6
S'https://open.spotify.com/track/75JFxkI2RXiU7L9VXzMkle'
p1030
sg8
S'The Scientist'
p1031
ssS'4pdPtRcBmOSQDlJ3Fk945m'
p1032
(dp1033
g3
S'DJ Snake'
p1034
sg5
I42
sg6
S'https://open.spotify.com/track/4pdPtRcBmOSQDlJ3Fk945m'
p1035
sg8
S'Let Me Love You'
p1036
ssS'1I8tHoNBFTuoJAlh4hfVVE'
p1037
(dp1038
g3
S'Kygo'
p1039
sg5
I3
sg6
S'https://open.spotify.com/track/1I8tHoNBFTuoJAlh4hfVVE'
p1040
sg8
S'Firestone'
p1041
ssS'4OaTpLJIa2harufGxfOPUu'
p1042
(dp1043
g3
S'Xantos'
p1044
sg5
I25
sg6
S'https://open.spotify.com/track/4OaTpLJIa2harufGxfOPUu'
p1045
sg8
S'Bailame Despacio'
p1046
ssS'5N8nNuTmIzkZOfcxXlygUw'
p1047
(dp1048
g3
S'J Balvin'
p1049
sg5
I7
sg6
S'https://open.spotify.com/track/5N8nNuTmIzkZOfcxXlygUw'
p1050
sg8
S'Ginza'
p1051
ssS'3QwBODjSEzelZyVjxPOHdq'
p1052
(dp1053
g3
S'Zion & Lennox'
p1054
sg5
I42
sg6
S'https://open.spotify.com/track/3QwBODjSEzelZyVjxPOHdq'
p1055
sg8
S'Otra Vez (feat. J Balvin)'
p1056
ssS'3feHcIEPryXd1nlrdAaJVN'
p1057
(dp1058
g3
S'CD9'
p1059
sg5
I3
sg6
S'https://open.spotify.com/track/3feHcIEPryXd1nlrdAaJVN'
p1060
sg8
S'No Le Hablen de Amor'
p1061
ssS'1OAiWI2oPmglaOiv9fdioU'
p1062
(dp1063
g3
S'Coldplay'
p1064
sg5
I6
sg6
S'https://open.spotify.com/track/1OAiWI2oPmglaOiv9fdioU'
p1065
sg8
S'Hymn For The Weekend - Seeb Remix'
p1066
ssS'209gZgcfLq2aUuu51vOWBl'
p1067
(dp1068
g3
S'CNCO'
p1069
sg5
I27
sg6
S'https://open.spotify.com/track/209gZgcfLq2aUuu51vOWBl'
p1070
sg8
S'Hey DJ'
p1071
ssS'4czY6DucD5rKY1y0uvHLws'
p1072
(dp1073
g3
S'Caf\xc3\xa9 Tacvba'
p1074
sg5
I7
sg6
S'https://open.spotify.com/track/4czY6DucD5rKY1y0uvHLws'
p1075
sg8
S'Futuro'
p1076
ssS'3sxokptpTvk4rGdU9XeRUV'
p1077
(dp1078
g3
S'Caf\xc3\xa9 Tacvba'
p1079
sg5
I21
sg6
S'https://open.spotify.com/track/3sxokptpTvk4rGdU9XeRUV'
p1080
sg8
S'Eres'
p1081
ssS'5OOkp4U9P9oL23maHFHL1h'
p1082
(dp1083
g3
S'Desiigner'
p1084
sg5
I8
sg6
S'https://open.spotify.com/track/5OOkp4U9P9oL23maHFHL1h'
p1085
sg8
S'Panda'
p1086
ssS'6urlj8N8TL3MK0ATNGIZYW'
p1087
(dp1088
g3
S'Major Lazer'
p1089
sg5
I6
sg6
S'https://open.spotify.com/track/6urlj8N8TL3MK0ATNGIZYW'
p1090
sg8
S'Buscando Huellas (feat. J Balvin & Sean Paul)'
p1091
ssS'0u13src3QcditRU5VPduML'
p1092
(dp1093
g3
S'Mon Laferte'
p1094
sg5
I35
sg6
S'https://open.spotify.com/track/0u13src3QcditRU5VPduML'
p1095
sg8
S'Am\xc3\xa1rrame'
p1096
ssS'0d9wwtTyMxYzIFJs8CKbiz'
p1097
(dp1098
g3
S'Major Lazer'
p1099
sg5
I1
sg6
S'https://open.spotify.com/track/0d9wwtTyMxYzIFJs8CKbiz'
p1100
sg8
S'Know No Better (feat. Travis Scott & Quavo) - Bad Bunny Remix'
p1101
ssS'1JmHWmgrE2YbkyX8PTd0Ko'
p1102
(dp1103
g3
S'Remmy Valenzuela'
p1104
sg5
I3
sg6
S'https://open.spotify.com/track/1JmHWmgrE2YbkyX8PTd0Ko'
p1105
sg8
S'Loco Enamorado'
p1106
ssS'79cuOz3SPQTuFrp8WgftAu'
p1107
(dp1108
g3
S'Shawn Mendes'
p1109
sg5
I25
sg6
S'https://open.spotify.com/track/79cuOz3SPQTuFrp8WgftAu'
p1110
sg8
S"There's Nothing Holdin' Me Back"
p1111
ssS'0lmdsH1MIoLsMymnNpd6HU'
p1112
(dp1113
g3
S'Dante Klein'
p1114
sg5
I5
sg6
S'https://open.spotify.com/track/0lmdsH1MIoLsMymnNpd6HU'
p1115
sg8
S'Let Me Hold You (Turn Me On)'
p1116
ssS'7AtlMCIauSQZqiXSlbBPW6'
p1117
(dp1118
g3
S'J Balvin'
p1119
sg5
I29
sg6
S'https://open.spotify.com/track/7AtlMCIauSQZqiXSlbBPW6'
p1120
sg8
S'Bobo'
p1121
ssS'5z4O1H0vFY0Nh4ZMtfgapP'
p1122
(dp1123
g3
S'Banda Sinaloense MS de Sergio Liz\xc3\xa1rraga'
p1124
sg5
I19
sg6
S'https://open.spotify.com/track/5z4O1H0vFY0Nh4ZMtfgapP'
p1125
sg8
S'Solo Con Verte'
p1126
ssS'3eR23VReFzcdmS7TYCrhCe'
p1127
(dp1128
g3
S'Kygo'
p1129
sg5
I33
sg6
S'https://open.spotify.com/track/3eR23VReFzcdmS7TYCrhCe'
p1130
sg8
S"It Ain't Me (with Selena Gomez)"
p1131
ssS'5P45f6HakSHDwdFj5dO5K5'
p1132
(dp1133
g3
S'Wisin'
p1134
sg5
I13
sg6
S'https://open.spotify.com/track/5P45f6HakSHDwdFj5dO5K5'
p1135
sg8
S'Esc\xc3\xa1pate Conmigo - Remix'
p1136
ssS'772io14jrMTxGJbijtDccQ'
p1137
(dp1138
g3
S'Juan Mag\xc3\xa1n'
p1139
sg5
I7
sg6
S'https://open.spotify.com/track/772io14jrMTxGJbijtDccQ'
p1140
sg8
S'Baila Conmigo'
p1141
ssS'1JU9KfQidaLyx80ixZr66t'
p1142
(dp1143
g3
S'Los Plebes del Rancho de Ariel Camacho'
p1144
sg5
I7
sg6
S'https://open.spotify.com/track/1JU9KfQidaLyx80ixZr66t'
p1145
sg8
S'Qu\xc3\xa9 Caro Estoy Pagando'
p1146
ssS'58IL315gMSTD37DOZPJ2hf'
p1147
(dp1148
g3
S'Daddy Yankee'
p1149
sg5
I32
sg6
S'https://open.spotify.com/track/58IL315gMSTD37DOZPJ2hf'
p1150
sg8
S'Shaky Shaky'
p1151
ssS'77KHmKnBmVGTjRCeMVXpWH'
p1152
(dp1153
g3
S'Kevin Roldan'
p1154
sg5
I10
sg6
S'https://open.spotify.com/track/77KHmKnBmVGTjRCeMVXpWH'
p1155
sg8
S'Ruleta Rusa'
p1156
ssS'1AhDOtG9vPSOmsWgNW0BEY'
p1157
(dp1158
g3
S'Queen'
p1159
sg5
I41
sg6
S'https://open.spotify.com/track/1AhDOtG9vPSOmsWgNW0BEY'
p1160
sg8
S'Bohemian Rhapsody - Remastered 2011'
p1161
ssS'5bZtRlMBU76vHuDOb1GM5u'
p1162
(dp1163
g3
S'Jonas Blue'
p1164
sg5
I1
sg6
S'https://open.spotify.com/track/5bZtRlMBU76vHuDOb1GM5u'
p1165
sg8
S'Perfect Strangers'
p1166
ssS'1uKjQoh8JZj9ryuYRhpd7E'
p1167
(dp1168
g3
S'Luis Miguel'
p1169
sg5
I42
sg6
S'https://open.spotify.com/track/1uKjQoh8JZj9ryuYRhpd7E'
p1170
sg8
S'Ahora Te Puedes Marchar'
p1171
ssS'1KT0xdIjm7t053xByACrrg'
p1172
(dp1173
g3
S'Ariana Grande'
p1174
sg5
I1
sg6
S'https://open.spotify.com/track/1KT0xdIjm7t053xByACrrg'
p1175
sg8
S'\xe7\xbe\x8e\xe5\xa5\xb3\xe3\x81\xa8\xe9\x87\x8e\xe7\x8d\xa3'
p1176
ssS'6CmFzaTvg7lRSAWwHmBDfj'
p1177
(dp1178
g3
S'Calibre 50'
p1179
sg5
I15
sg6
S'https://open.spotify.com/track/6CmFzaTvg7lRSAWwHmBDfj'
p1180
sg8
S'Amor Del Bueno'
p1181
ssS'7taXf5odg9xCAZERYfyOkS'
p1182
(dp1183
g3
S'Jos\xc3\xa9 Feliciano'
p1184
sg5
I1
sg6
S'https://open.spotify.com/track/7taXf5odg9xCAZERYfyOkS'
p1185
sg8
S'Feliz Navidad'
p1186
ssS'2SSYqDX8KTgy01NlqtUo0F'
p1187
(dp1188
g3
S'Reik'
p1189
sg5
I34
sg6
S'https://open.spotify.com/track/2SSYqDX8KTgy01NlqtUo0F'
p1190
sg8
S'Ya Me Enter\xc3\xa9 (feat. Nicky Jam) - Urban Version'
p1191
ssS'3hRZsdTF5uyGA2uhNqEuhm'
p1192
(dp1193
g3
S'Niall Horan'
p1194
sg5
I4
sg6
S'https://open.spotify.com/track/3hRZsdTF5uyGA2uhNqEuhm'
p1195
sg8
S'Too Much To Ask'
p1196
ssS'0nNTCEOzFlBTlDCx5IfLWP'
p1197
(dp1198
g3
S'Ariel Camacho y Los Plebes Del Rancho'
p1199
sg5
I20
sg6
S'https://open.spotify.com/track/0nNTCEOzFlBTlDCx5IfLWP'
p1200
sg8
S'Te Metiste'
p1201
ssS'4aWmUDTfIPGksMNLV2rQP2'
p1202
(dp1203
g3
S'Luis Fonsi'
p1204
sg5
I39
sg6
S'https://open.spotify.com/track/4aWmUDTfIPGksMNLV2rQP2'
p1205
sg8
S'Despacito (Featuring Daddy Yankee)'
p1206
ssS'7JZP7kQsuFFWOrtAI7uNiW'
p1207
(dp1208
g3
S'Soda Stereo'
p1209
sg5
I16
sg6
S'https://open.spotify.com/track/7JZP7kQsuFFWOrtAI7uNiW'
p1210
sg8
S'Persiana Americana'
p1211
ssS'35QZaWQRkmnAVqBF1TLCxQ'
p1212
(dp1213
g3
S'Ed Sheeran'
p1214
sg5
I1
sg6
S'https://open.spotify.com/track/35QZaWQRkmnAVqBF1TLCxQ'
p1215
sg8
S'Nancy Mulligan'
p1216
ssS'25C5CowdsfXld2jJanbiex'
p1217
(dp1218
g3
S'Demi Lovato'
p1219
sg5
I11
sg6
S'https://open.spotify.com/track/25C5CowdsfXld2jJanbiex'
p1220
sg8
S'Sorry Not Sorry'
p1221
ssS'18J1Ke20aBiyK0nv9gnjez'
p1222
(dp1223
g3
S'Ulices Chaidez Y Sus Plebes'
p1224
sg5
I21
sg6
S'https://open.spotify.com/track/18J1Ke20aBiyK0nv9gnjez'
p1225
sg8
S'\xc2\xbfPor Que Me Enamor\xc3\xa9?'
p1226
ssS'48yFrzTcnTCklWL9PRVZJj'
p1227
(dp1228
g3
S'Cartel De Santa'
p1229
sg5
I42
sg6
S'https://open.spotify.com/track/48yFrzTcnTCklWL9PRVZJj'
p1230
sg8
S'Leve'
p1231
ssS'2Z8WuEywRWYTKe1NybPQEW'
p1232
(dp1233
g3
S'Twenty One Pilots'
p1234
sg5
I41
sg6
S'https://open.spotify.com/track/2Z8WuEywRWYTKe1NybPQEW'
p1235
sg8
S'Ride'
p1236
ssS'3rtxFFGZ10e2vYBo7PsPf2'
p1237
(dp1238
g3
S'Carlos Rivera'
p1239
sg5
I36
sg6
S'https://open.spotify.com/track/3rtxFFGZ10e2vYBo7PsPf2'
p1240
sg8
S'Que Lo Nuestro Se Quede Nuestro'
p1241
ssS'6JV2JOEocMgcZxYSZelKcc'
p1242
(dp1243
g3
S'Justin Timberlake'
p1244
sg5
I24
sg6
S'https://open.spotify.com/track/6JV2JOEocMgcZxYSZelKcc'
p1245
sg8
S"CAN'T STOP THE FEELING! (Original Song from DreamWorks Animation's TROLLS)"
p1246
ssS'3GpvoKKWZyTwgbLEM9RmWM'
p1247
(dp1248
g3
S'Cali Y El Dandee'
p1249
sg5
I1
sg6
S'https://open.spotify.com/track/3GpvoKKWZyTwgbLEM9RmWM'
p1250
sg8
S'Por Fin Te Encontr\xc3\xa9'
p1251
ssS'6De0lHrwBfPfrhorm9q1Xl'
p1252
(dp1253
g3
S'Danny Ocean'
p1254
sg5
I35
sg6
S'https://open.spotify.com/track/6De0lHrwBfPfrhorm9q1Xl'
p1255
sg8
S'Me Reh\xc3\xbaso'
p1256
ssS'7aV2mflaASUmGhCErm7kBO'
p1257
(dp1258
g3
S'Nevada'
p1259
sg5
I7
sg6
S'https://open.spotify.com/track/7aV2mflaASUmGhCErm7kBO'
p1260
sg8
S'The Mack'
p1261
ssS'0bYg9bo50gSsH3LtXe2SQn'
p1262
(dp1263
g3
S'Mariah Carey'
p1264
sg5
I1
sg6
S'https://open.spotify.com/track/0bYg9bo50gSsH3LtXe2SQn'
p1265
sg8
S'All I Want for Christmas Is You'
p1266
ssS'3rOSwuTsUlJp0Pu0MkN8r8'
p1267
(dp1268
g3
S'Future'
p1269
sg5
I10
sg6
S'https://open.spotify.com/track/3rOSwuTsUlJp0Pu0MkN8r8'
p1270
sg8
S'Mask Off'
p1271
ssS'1qOLh0tI7trd1zdDKxYZTe'
p1272
(dp1273
g3
S'Hailee Steinfeld'
p1274
sg5
I7
sg6
S'https://open.spotify.com/track/1qOLh0tI7trd1zdDKxYZTe'
p1275
sg8
S'Starving'
p1276
ssS'3HVr6jTVwBHBa2flM0eURR'
p1277
(dp1278
g3
S'Macklemore'
p1279
sg5
I6
sg6
S'https://open.spotify.com/track/3HVr6jTVwBHBa2flM0eURR'
p1280
sg8
S'Glorious (feat. Skylar Grey)'
p1281
ssS'5BPq1UQa1NSN647R6IzD3n'
p1282
(dp1283
g3
S'Luis Miguel'
p1284
sg5
I1
sg6
S'https://open.spotify.com/track/5BPq1UQa1NSN647R6IzD3n'
p1285
sg8
S'Mexico En La Piel'
p1286
ssS'0JiVRyTJcJnmlwCZ854K4p'
p1287
(dp1288
g3
S'Alan Walker'
p1289
sg5
I20
sg6
S'https://open.spotify.com/track/0JiVRyTJcJnmlwCZ854K4p'
p1290
sg8
S'Alone'
p1291
ssS'1cG0umU5TKStygKsPFZ9pY'
p1292
(dp1293
g3
S'Robin Schulz'
p1294
sg5
I21
sg6
S'https://open.spotify.com/track/1cG0umU5TKStygKsPFZ9pY'
p1295
sg8
S'Shed a Light'
p1296
ssS'6520aj0B4FSKGVuKNsOCOi'
p1297
(dp1298
g3
S'Katy Perry'
p1299
sg5
I20
sg6
S'https://open.spotify.com/track/6520aj0B4FSKGVuKNsOCOi'
p1300
sg8
S'Chained To The Rhythm'
p1301
ssS'4q8PHoRsPUB52LFylX8Ulz'
p1302
(dp1303
g3
S'Axwell /\\ Ingrosso'
p1304
sg5
I6
sg6
S'https://open.spotify.com/track/4q8PHoRsPUB52LFylX8Ulz'
p1305
sg8
S'More Than You Know'
p1306
ssS'1JGd1dh5lHBDQYqZSkOKlZ'
p1307
(dp1308
g3
S'La Adictiva Banda San Jos\xc3\xa9 de Mesillas'
p1309
sg5
I20
sg6
S'https://open.spotify.com/track/1JGd1dh5lHBDQYqZSkOKlZ'
p1310
sg8
S'Durmiendo en el Lugar Equivocado'
p1311
ssS'1wjzFQodRWrPcQ0AnYnvQ9'
p1312
(dp1313
g3
S'Lauv'
p1314
sg5
I7
sg6
S'https://open.spotify.com/track/1wjzFQodRWrPcQ0AnYnvQ9'
p1315
sg8
S'I Like Me Better'
p1316
ssS'51PIvodunv6NmX5250zxAh'
p1317
(dp1318
g3
S'Lady Gaga'
p1319
sg5
I7
sg6
S'https://open.spotify.com/track/51PIvodunv6NmX5250zxAh'
p1320
sg8
S'The Cure'
p1321
ssS'4PdJSsESm34djLfBde9Pr2'
p1322
(dp1323
g3
S'David Guetta'
p1324
sg5
I5
sg6
S'https://open.spotify.com/track/4PdJSsESm34djLfBde9Pr2'
p1325
sg8
S'Would I Lie To You - Radio Edit'
p1326
ssS'7DM4BPaS7uofFul3ywMe46'
p1327
(dp1328
g3
S'Ricky Martin'
p1329
sg5
I42
sg6
S'https://open.spotify.com/track/7DM4BPaS7uofFul3ywMe46'
p1330
sg8
S"Vente Pa' Ca"
p1331
ssS'0qYTZCo5Bwh1nsUFGZP3zn'
p1332
(dp1333
g3
S'Maluma'
p1334
sg5
I25
sg6
S'https://open.spotify.com/track/0qYTZCo5Bwh1nsUFGZP3zn'
p1335
sg8
S'Felices los 4'
p1336
ssS'5MFzQMkrl1FOOng9tq6R9r'
p1337
(dp1338
g3
S'Maroon 5'
p1339
sg5
I37
sg6
S'https://open.spotify.com/track/5MFzQMkrl1FOOng9tq6R9r'
p1340
sg8
S"Don't Wanna Know"
p1341
ssS'5Z3GHaZ6ec9bsiI5BenrbY'
p1342
(dp1343
g3
S'Khalid'
p1344
sg5
I1
sg6
S'https://open.spotify.com/track/5Z3GHaZ6ec9bsiI5BenrbY'
p1345
sg8
S'Young Dumb & Broke'
p1346
ssS'5B5tNyIXRMsIKQqKoSzpt0'
p1347
(dp1348
g3
S'Cartel De Santa'
p1349
sg5
I42
sg6
S'https://open.spotify.com/track/5B5tNyIXRMsIKQqKoSzpt0'
p1350
sg8
S'Cul\xc3\xb3n Culito'
p1351
ssS'0B7wvvmu9EISAwZnOpjhNI'
p1352
(dp1353
g3
S'Bruno Mars'
p1354
sg5
I5
sg6
S'https://open.spotify.com/track/0B7wvvmu9EISAwZnOpjhNI'
p1355
sg8
S'When I Was Your Man'
p1356
ssS'7dl4Nfi0EJsLNieDYQCFv1'
p1357
(dp1358
g3
S'Major Lazer'
p1359
sg5
I1
sg6
S'https://open.spotify.com/track/7dl4Nfi0EJsLNieDYQCFv1'
p1360
sg8
S'Buscando Huellas (feat. J Balvin & Sean Paul)'
p1361
ssS'5NZDQErD8SKBQTWokxFNSk'
p1362
(dp1363
g3
S'Joan Sebastian'
p1364
sg5
I1
sg6
S'https://open.spotify.com/track/5NZDQErD8SKBQTWokxFNSk'
p1365
sg8
S'Secreto De Amor'
p1366
ssS'1jYiIOC5d6soxkJP81fxq2'
p1367
(dp1368
g3
S'DJ Khaled'
p1369
sg5
I1
sg6
S'https://open.spotify.com/track/1jYiIOC5d6soxkJP81fxq2'
p1370
sg8
S"I'm the One"
p1371
ssS'0yyZN5ASdrYu0XYWFzfxUu'
p1372
(dp1373
g3
S'Jesse & Joy'
p1374
sg5
I8
sg6
S'https://open.spotify.com/track/0yyZN5ASdrYu0XYWFzfxUu'
p1375
sg8
S'3 A.M.'
p1376
ssS'6p3yxt0uJJshAS3CT0znQg'
p1377
(dp1378
g3
S'Natalia Lafourcade'
p1379
sg5
I37
sg6
S'https://open.spotify.com/track/6p3yxt0uJJshAS3CT0znQg'
p1380
sg8
S'T\xc3\xba S\xc3\xad Sabes Quererme'
p1381
ssS'3Gqj86AgnD8EiIOFIGLubs'
p1382
(dp1383
g3
S'OneRepublic'
p1384
sg5
I15
sg6
S'https://open.spotify.com/track/3Gqj86AgnD8EiIOFIGLubs'
p1385
sg8
S'No Vacancy (with Sebasti\xc3\xa1n Yatra)'
p1386
ssS'3dINUTtt8noTn16rHcpTTp'
p1387
(dp1388
g3
S'Natti Natasha'
p1389
sg5
I1
sg6
S'https://open.spotify.com/track/3dINUTtt8noTn16rHcpTTp'
p1390
sg8
S'Criminal'
p1391
ssS'4tfawx7oL39IUS0GyOlmcP'
p1392
(dp1393
g3
S'Alejandro Fernandez'
p1394
sg5
I1
sg6
S'https://open.spotify.com/track/4tfawx7oL39IUS0GyOlmcP'
p1395
sg8
S'Como Quien Pierde una Estrella'
p1396
ssS'7zgqtptZvhf8GEmdsM2vp2'
p1397
(dp1398
g3
S'Taylor Swift'
p1399
sg5
I1
sg6
S'https://open.spotify.com/track/7zgqtptZvhf8GEmdsM2vp2'
p1400
sg8
S'...Ready For It?'
p1401
ssS'6sMPwcpYtxm1mlgYbp1B0t'
p1402
(dp1403
g3
S'Jacob Forever'
p1404
sg5
I9
sg6
S'https://open.spotify.com/track/6sMPwcpYtxm1mlgYbp1B0t'
p1405
sg8
S'Hasta Que Se Seque el Malec\xc3\xb3n - Remix'
p1406
ssS'7DhYjNLksXZhbRQeheAums'
p1407
(dp1408
g3
S'Bacilos'
p1409
sg5
I39
sg6
S'https://open.spotify.com/track/7DhYjNLksXZhbRQeheAums'
p1410
sg8
S'Caraluna'
p1411
ssS'7jzpAD8q77nwEmSsqUeUjy'
p1412
(dp1413
g3
S'Reykon'
p1414
sg5
I24
sg6
S'https://open.spotify.com/track/7jzpAD8q77nwEmSsqUeUjy'
p1415
sg8
S'D\xc3\xa9jame te explico'
p1416
ssS'2C0KFbb4v9CNWR5c9jWcKC'
p1417
(dp1418
g3
S'Gorillaz'
p1419
sg5
I3
sg6
S'https://open.spotify.com/track/2C0KFbb4v9CNWR5c9jWcKC'
p1420
sg8
S'Andromeda (feat. DRAM)'
p1421
ssS'2FIm6YsSGL5acOqSuJDh5s'
p1422
(dp1423
g3
S'Arcangel'
p1424
sg5
I15
sg6
S'https://open.spotify.com/track/2FIm6YsSGL5acOqSuJDh5s'
p1425
sg8
S'Me Acostumbre (feat. Bad Bunny)'
p1426
ssS'13X0XdLMOdtbXVtAj2ox4h'
p1427
(dp1428
g3
S'Piso 21'
p1429
sg5
I25
sg6
S'https://open.spotify.com/track/13X0XdLMOdtbXVtAj2ox4h'
p1430
sg8
S'Bes\xc3\xa1ndote'
p1431
ssS'6cPyTS0Kk2sc4xQwC93kOg'
p1432
(dp1433
g3
S'The Chainsmokers'
p1434
sg5
I1
sg6
S'https://open.spotify.com/track/6cPyTS0Kk2sc4xQwC93kOg'
p1435
sg8
S'Break Up Every Night'
p1436
ssS'6r46lnXFbE9fr2d3KNaGbe'
p1437
(dp1438
g3
S'Romeo Santos'
p1439
sg5
I12
sg6
S'https://open.spotify.com/track/6r46lnXFbE9fr2d3KNaGbe'
p1440
sg8
S'Imitadora'
p1441
ssS'0PDUDa38GO8lMxLCRc4lL1'
p1442
(dp1443
g3
S'ZAYN'
p1444
sg5
I2
sg6
S'https://open.spotify.com/track/0PDUDa38GO8lMxLCRc4lL1'
p1445
sg8
S'PILLOWTALK'
p1446
ssS'1OAh8uOEOvTDqkKFsKksCi'
p1447
(dp1448
g3
S'DJ Khaled'
p1449
sg5
I16
sg6
S'https://open.spotify.com/track/1OAh8uOEOvTDqkKFsKksCi'
p1450
sg8
S'Wild Thoughts'
p1451
ssS'1PB6yA6o4CuJZUcVQ8UWh8'
p1452
(dp1453
g3
S'La Adictiva Banda San Jos\xc3\xa9 de Mesillas'
p1454
sg5
I13
sg6
S'https://open.spotify.com/track/1PB6yA6o4CuJZUcVQ8UWh8'
p1455
sg8
S'Te Dir\xc3\xa1n'
p1456
ssS'5dKyZWlgjWw1oJgLa4GCZD'
p1457
(dp1458
g3
S'Tove Lo'
p1459
sg5
I3
sg6
S'https://open.spotify.com/track/5dKyZWlgjWw1oJgLa4GCZD'
p1460
sg8
S'Cool Girl'
p1461
ssS'6c5ghmeB5B3eUwO9Gr4Dgx'
p1462
(dp1463
g3
S'Gerardo Ortiz'
p1464
sg5
I24
sg6
S'https://open.spotify.com/track/6c5ghmeB5B3eUwO9Gr4Dgx'
p1465
sg8
S'Para Qu\xc3\xa9 Lastimarme'
p1466
ssS'3VRk65lHSwqd90TAkQqhvB'
p1467
(dp1468
g3
S'Katy Perry'
p1469
sg5
I2
sg6
S'https://open.spotify.com/track/3VRk65lHSwqd90TAkQqhvB'
p1470
sg8
S'Swish Swish'
p1471
ssS'1a5Yu5L18qNxVhXx38njON'
p1472
(dp1473
g3
S'Alok'
p1474
sg5
I38
sg6
S'https://open.spotify.com/track/1a5Yu5L18qNxVhXx38njON'
p1475
sg8
S'Hear Me Now'
p1476
ssS'09S64DUkxIX9EwIaULu6yN'
p1477
(dp1478
g3
S'Maluma'
p1479
sg5
I40
sg6
S'https://open.spotify.com/track/09S64DUkxIX9EwIaULu6yN'
p1480
sg8
S'Sin Contrato'
p1481
ssS'2naJy8SKJ27gj6ZhRPDKaz'
p1482
(dp1483
g3
S'Rvssian'
p1484
sg5
I4
sg6
S'https://open.spotify.com/track/2naJy8SKJ27gj6ZhRPDKaz'
p1485
sg8
S'Si Tu Lo Dejas'
p1486
ssS'28UP90XhjCovLtieduYr9P'
p1487
(dp1488
g3
S'Mon Laferte'
p1489
sg5
I21
sg6
S'https://open.spotify.com/track/28UP90XhjCovLtieduYr9P'
p1490
sg8
S'Mi Buen Amor'
p1491
ssS'7GncL3nyKUjsEm8Z5gvTpW'
p1492
(dp1493
g3
S'Shakira'
p1494
sg5
I1
sg6
S'https://open.spotify.com/track/7GncL3nyKUjsEm8Z5gvTpW'
p1495
sg8
S'Trap'
p1496
ssS'4sPmO7WMQUAf45kwMOtONw'
p1497
(dp1498
g3
S'Adele'
p1499
sg5
I6
sg6
S'https://open.spotify.com/track/4sPmO7WMQUAf45kwMOtONw'
p1500
sg8
S'Hello'
p1501
ssS'6BaCraQ9xeLYg4Sb9TBT2X'
p1502
(dp1503
g3
S'Calvin Harris'
p1504
sg5
I1
sg6
S'https://open.spotify.com/track/6BaCraQ9xeLYg4Sb9TBT2X'
p1505
sg8
S'Feels'
p1506
ssS'0RFFFGtPn6a58RHY3ccVYX'
p1507
(dp1508
g3
S'J Balvin'
p1509
sg5
I32
sg6
S'https://open.spotify.com/track/0RFFFGtPn6a58RHY3ccVYX'
p1510
sg8
S'Si Tu Novio Te Deja Sola'
p1511
ssS'5dH7o4TP3HYLvCjo4QAhhv'
p1512
(dp1513
g3
S'Sak Noel & Salvi'
p1514
sg5
I1
sg6
S'https://open.spotify.com/track/5dH7o4TP3HYLvCjo4QAhhv'
p1515
sg8
S'Trumpets'
p1516
ssS'3nUNwSYEUv9bmUc3de0Owv'
p1517
(dp1518
g3
S'Chayanne'
p1519
sg5
I9
sg6
S'https://open.spotify.com/track/3nUNwSYEUv9bmUc3de0Owv'
p1520
sg8
S'Qu\xc3\xa9 Me Has Hecho'
p1521
ssS'6mORGLOz79w6VsCRLWYYuK'
p1522
(dp1523
g3
S'Lord Huron'
p1524
sg5
I7
sg6
S'https://open.spotify.com/track/6mORGLOz79w6VsCRLWYYuK'
p1525
sg8
S'The Night We Met'
p1526
ssS'1Wrzhfa5bNlqvsnCztz190'
p1527
(dp1528
g3
S'Hombres G'
p1529
sg5
I16
sg6
S'https://open.spotify.com/track/1Wrzhfa5bNlqvsnCztz190'
p1530
sg8
S'Devuelveme a mi chica'
p1531
ssS'5aAx2yezTd8zXrkmtKl66Z'
p1532
(dp1533
g3
S'The Weeknd'
p1534
sg5
I42
sg6
S'https://open.spotify.com/track/5aAx2yezTd8zXrkmtKl66Z'
p1535
sg8
S'Starboy'
p1536
ssS'1SJtlNRJDeYHioymcvsqev'
p1537
(dp1538
g3
S'Camila Cabello'
p1539
sg5
I12
sg6
S'https://open.spotify.com/track/1SJtlNRJDeYHioymcvsqev'
p1540
sg8
S'Crying in the Club'
p1541
ssS'04DwTuZ2VBdJCCC5TROn7L'
p1542
(dp1543
g3
S'Martin Garrix'
p1544
sg5
I37
sg6
S'https://open.spotify.com/track/04DwTuZ2VBdJCCC5TROn7L'
p1545
sg8
S'In the Name of Love'
p1546
ssS'1Pk27SJFLKsyqMJDQrOe5B'
p1547
(dp1548
g3
S'Yuridia'
p1549
sg5
I23
sg6
S'https://open.spotify.com/track/1Pk27SJFLKsyqMJDQrOe5B'
p1550
sg8
S'Cobarde'
p1551
ssS'6VHdcVbiKLYYOcMbIqBcuK'
p1552
(dp1553
g3
S'Cali Y El Dandee'
p1554
sg5
I27
sg6
S'https://open.spotify.com/track/6VHdcVbiKLYYOcMbIqBcuK'
p1555
sg8
S'Lumbra'
p1556
ssS'2SmgFAhQkQCQPyBiBxR6Te'
p1557
(dp1558
g3
S'Natti Natasha'
p1559
sg5
I6
sg6
S'https://open.spotify.com/track/2SmgFAhQkQCQPyBiBxR6Te'
p1560
sg8
S'Criminal'
p1561
ssS'7Ckhk1XW5NV2k4jpqtQNlz'
p1562
(dp1563
g3
S'Valentino'
p1564
sg5
I5
sg6
S'https://open.spotify.com/track/7Ckhk1XW5NV2k4jpqtQNlz'
p1565
sg8
S'Besame'
p1566
ssS'07T5sZOqViC15F9XBNre4L'
p1567
(dp1568
g3
S'Ha*Ash'
p1569
sg5
I4
sg6
S'https://open.spotify.com/track/07T5sZOqViC15F9XBNre4L'
p1570
sg8
S'S\xc3\xa9 Que Te Vas'
p1571
ssS'5hKjEpYrJIJs6uPl7zw6Y6'
p1572
(dp1573
g3
S'Jory Boy'
p1574
sg5
I24
sg6
S'https://open.spotify.com/track/5hKjEpYrJIJs6uPl7zw6Y6'
p1575
sg8
S'No Te Hagas'
p1576
ssS'4JAyIDXOqNM6qHuZML01uX'
p1577
(dp1578
g3
g147
sg5
I1
sg6
S'https://open.spotify.com/track/4JAyIDXOqNM6qHuZML01uX'
p1579
sg8
g147
ssS'4VXejnj5WgM6H72ct2fSgQ'
p1580
(dp1581
g3
S'Reykon'
p1582
sg5
I42
sg6
S'https://open.spotify.com/track/4VXejnj5WgM6H72ct2fSgQ'
p1583
sg8
S'El Chisme'
p1584
ssS'6VRghJeP6I0w1KxkdWFfIh'
p1585
(dp1586
g3
S'Imagine Dragons'
p1587
sg5
I3
sg6
S'https://open.spotify.com/track/6VRghJeP6I0w1KxkdWFfIh'
p1588
sg8
S'Believer'
p1589
ssS'6SznMYPQJHzr3IwsAHLId2'
p1590
(dp1591
g3
S'Ed Sheeran'
p1592
sg5
I1
sg6
S'https://open.spotify.com/track/6SznMYPQJHzr3IwsAHLId2'
p1593
sg8
S'Bibia Be Ye Ye'
p1594
ssS'5J1c3M4EldCfNxXwrwt8mT'
p1595
(dp1596
g3
S'Sebastian Yatra'
p1597
sg5
I42
sg6
S'https://open.spotify.com/track/5J1c3M4EldCfNxXwrwt8mT'
p1598
sg8
S'Traicionera'
p1599
ssS'5zSOVwaY3sVjnmLhuEfsuf'
p1600
(dp1601
g3
S'Ozuna'
p1602
sg5
I7
sg6
S'https://open.spotify.com/track/5zSOVwaY3sVjnmLhuEfsuf'
p1603
sg8
S'T\xc3\xba Foto'
p1604
ssS'46NBoIAHrmR7qcUGCIFEjR'
p1605
(dp1606
g3
S'David Guetta'
p1607
sg5
I2
sg6
S'https://open.spotify.com/track/46NBoIAHrmR7qcUGCIFEjR'
p1608
sg8
S"This One's For You (feat. Zara Larsson) - Official Song UEFA EURO 2016"
p1609
ssS'6NSMQFKgjpQb0KkjMDYIK0'
p1610
(dp1611
g3
S'Arcangel'
p1612
sg5
I10
sg6
S'https://open.spotify.com/track/6NSMQFKgjpQb0KkjMDYIK0'
p1613
sg8
S'Tu No Vive Asi (feat. Mambo Kingz & DJ Luian)'
p1614
ssS'2LW4Zu7FcrwjWm3t5Rv3Oq'
p1615
(dp1616
g3
S'Ozuna'
p1617
sg5
I2
sg6
S'https://open.spotify.com/track/2LW4Zu7FcrwjWm3t5Rv3Oq'
p1618
sg8
S'El Farsante'
p1619
ssS'00kIWJu9IHiQ6i0qJAU0Z9'
p1620
(dp1621
g3
S'Mon Laferte'
p1622
sg5
I21
sg6
S'https://open.spotify.com/track/00kIWJu9IHiQ6i0qJAU0Z9'
p1623
sg8
S'Amor Completo'
p1624
ssS'5Ohxk2dO5COHF1krpoPigN'
p1625
(dp1626
g3
S'Harry Styles'
p1627
sg5
I27
sg6
S'https://open.spotify.com/track/5Ohxk2dO5COHF1krpoPigN'
p1628
sg8
S'Sign of the Times'
p1629
ssS'5Fim1gaXBgsiFfsQAfQSDS'
p1630
(dp1631
g3
S'Nicky Jam'
p1632
sg5
I40
sg6
S'https://open.spotify.com/track/5Fim1gaXBgsiFfsQAfQSDS'
p1633
sg8
S'Hasta el Amanecer'
p1634
ssS'6O85MfGECKBqAK2MgSbCaj'
p1635
(dp1636
g3
S'Martin Solveig'
p1637
sg5
I2
sg6
S'https://open.spotify.com/track/6O85MfGECKBqAK2MgSbCaj'
p1638
sg8
S'Places'
p1639
ssS'4mxWSdf71VFO52qFeY0fZt'
p1640
(dp1641
g3
S'Maroon 5'
p1642
sg5
I6
sg6
S'https://open.spotify.com/track/4mxWSdf71VFO52qFeY0fZt'
p1643
sg8
S'What Lovers Do (feat. SZA)'
p1644
ssS'4Hf7WnR761jpxPr5D46Bcd'
p1645
(dp1646
g3
S'Shawn Mendes'
p1647
sg5
I28
sg6
S'https://open.spotify.com/track/4Hf7WnR761jpxPr5D46Bcd'
p1648
sg8
S'Treat You Better'
p1649
ssS'3AEZUABDXNtecAOSC1qTfo'
p1650
(dp1651
g3
S'CNCO'
p1652
sg5
I42
sg6
S'https://open.spotify.com/track/3AEZUABDXNtecAOSC1qTfo'
p1653
sg8
S'Reggaet\xc3\xb3n Lento (Bailemos)'
p1654
ssS'7qKtcEDbth6kOM5s4uJzw3'
p1655
(dp1656
g3
S'Panteon Rococo'
p1657
sg5
I42
sg6
S'https://open.spotify.com/track/7qKtcEDbth6kOM5s4uJzw3'
p1658
sg8
S'La Dosis Perfecta'
p1659
ssS'3XOirfRA6N4eBy0c0e1QdJ'
p1660
(dp1661
g3
S'Juli\xc3\xb3n \xc3\x81lvarez y su Norte\xc3\xb1o Banda'
p1662
sg5
I12
sg6
S'https://open.spotify.com/track/3XOirfRA6N4eBy0c0e1QdJ'
p1663
sg8
S'Esta Noche Se Me Olvida'
p1664
ssS'5knuzwU65gJK7IF5yJsuaW'
p1665
(dp1666
g3
S'Clean Bandit'
p1667
sg5
I42
sg6
S'https://open.spotify.com/track/5knuzwU65gJK7IF5yJsuaW'
p1668
sg8
S'Rockabye (feat. Sean Paul & Anne-Marie)'
p1669
ssS'14WWzenpaEgQZlqPq2nk4v'
p1670
(dp1671
g3
S'Rihanna'
p1672
sg5
I7
sg6
S'https://open.spotify.com/track/14WWzenpaEgQZlqPq2nk4v'
p1673
sg8
S'Work'
p1674
ssS'36YCdzT57us0LhDmCYtrNE'
p1675
(dp1676
g3
S'The Weeknd'
p1677
sg5
I1
sg6
S'https://open.spotify.com/track/36YCdzT57us0LhDmCYtrNE'
p1678
sg8
S'Rockin\xe2\x80\x99'
p1679
ssS'6b8Be6ljOzmkOmFslEb23P'
p1680
(dp1681
g3
S'Bruno Mars'
p1682
sg5
I38
sg6
S'https://open.spotify.com/track/6b8Be6ljOzmkOmFslEb23P'
p1683
sg8
S'24K Magic'
p1684
ssS'4prmUBle7TtAeeUgCnsc3Z'
p1685
(dp1686
g3
S'Christian Nodal'
p1687
sg5
I7
sg6
S'https://open.spotify.com/track/4prmUBle7TtAeeUgCnsc3Z'
p1688
sg8
S'Probablemente'
p1689
ssS'7c36pInnsI3DzAGDQcTW99'
p1690
(dp1691
g3
S'Ulices Chaidez Y Sus Plebes'
p1692
sg5
I39
sg6
S'https://open.spotify.com/track/7c36pInnsI3DzAGDQcTW99'
p1693
sg8
S'Te Regalo'
p1694
ssS'1i52sh56NRpwyO3qREWMX7'
p1695
(dp1696
g3
S'Mon Laferte'
p1697
sg5
I1
sg6
S'https://open.spotify.com/track/1i52sh56NRpwyO3qREWMX7'
p1698
sg8
S'Yo Te Qui'
p1699
ssS'2CkHE54EH44Qj945ynQRw7'
p1700
(dp1701
g3
S'Man\xc3\xa1'
p1702
sg5
I15
sg6
S'https://open.spotify.com/track/2CkHE54EH44Qj945ynQRw7'
p1703
sg8
S'De Pies a Cabeza'
p1704
ssS'2Ye46ZY2LKOQTPXaauQisB'
p1705
(dp1706
g3
S'Carla Morrison'
p1707
sg5
I17
sg6
S'https://open.spotify.com/track/2Ye46ZY2LKOQTPXaauQisB'
p1708
sg8
S'Te Regalo'
p1709
ssS'5DA77EqppDmCTWGovd4oTP'
p1710
(dp1711
g3
S'Cheat Codes'
p1712
sg5
I6
sg6
S'https://open.spotify.com/track/5DA77EqppDmCTWGovd4oTP'
p1713
sg8
S'Sex'
p1714
ssS'3gqgSM82j6NMAj4Jllr06T'
p1715
(dp1716
g3
S'Valent\xc3\xadn Elizalde'
p1717
sg5
I1
sg6
S'https://open.spotify.com/track/3gqgSM82j6NMAj4Jllr06T'
p1718
sg8
S'Vete Ya'
p1719
ssS'6HZILIRieu8S0iqY8kIKhj'
p1720
(dp1721
g3
S'Kendrick Lamar'
p1722
sg5
I2
sg6
S'https://open.spotify.com/track/6HZILIRieu8S0iqY8kIKhj'
p1723
sg8
S'DNA.'
p1724
ssS'7F9vK8hNFMml4GtHsaXui6'
p1725
(dp1726
g3
S'Louis Tomlinson'
p1727
sg5
I12
sg6
S'https://open.spotify.com/track/7F9vK8hNFMml4GtHsaXui6'
p1728
sg8
S'Back to You (feat. Bebe Rexha & Digital Farm Animals)'
p1729
ssS'3B54sVLJ402zGa6Xm4YGNe'
p1730
(dp1731
g3
S'French Montana'
p1732
sg5
I14
sg6
S'https://open.spotify.com/track/3B54sVLJ402zGa6Xm4YGNe'
p1733
sg8
S'Unforgettable'
p1734
ssS'6WMYFEd4MJDIjJARHnOxoN'
p1735
(dp1736
g3
S'Major Lazer'
p1737
sg5
I5
sg6
S'https://open.spotify.com/track/6WMYFEd4MJDIjJARHnOxoN'
p1738
sg8
S'Buscando Huellas (feat. J Balvin & Sean Paul)'
p1739
ssS'6gpcs5eMhJwax4mIfKDYQk'
p1740
(dp1741
g3
S'Calvin Harris'
p1742
sg5
I4
sg6
S'https://open.spotify.com/track/6gpcs5eMhJwax4mIfKDYQk'
p1743
sg8
S'Slide'
p1744
ssS'4TZy1wLyHec06pwgFYDh1a'
p1745
(dp1746
g3
S'Shawn Mendes'
p1747
sg5
I12
sg6
S'https://open.spotify.com/track/4TZy1wLyHec06pwgFYDh1a'
p1748
sg8
S'Mercy'
p1749
ssS'0QsvXIfqM0zZoerQfsI9lm'
p1750
(dp1751
g3
S'The Chainsmokers'
p1752
sg5
I30
sg6
S'https://open.spotify.com/track/0QsvXIfqM0zZoerQfsI9lm'
p1753
sg8
S"Don't Let Me Down"
p1754
ssS'7w87IxuO7BDcJ3YUqCyMTT'
p1755
(dp1756
g3
S'Foster The People'
p1757
sg5
I40
sg6
S'https://open.spotify.com/track/7w87IxuO7BDcJ3YUqCyMTT'
p1758
sg8
S'Pumped Up Kicks'
p1759
ssS'0fioLzGM8ngbD1w6fMmm45'
p1760
(dp1761
g3
S'Sam Smith'
p1762
sg5
I5
sg6
S'https://open.spotify.com/track/0fioLzGM8ngbD1w6fMmm45'
p1763
sg8
S"I'm Not The Only One"
p1764
ssS'2nLtzopw4rPReszdYBJU6h'
p1765
(dp1766
g3
S'Linkin Park'
p1767
sg5
I1
sg6
S'https://open.spotify.com/track/2nLtzopw4rPReszdYBJU6h'
p1768
sg8
S'Numb'
p1769
ssS'3a1lNhkSLSkpJE4MSHpDu9'
p1770
(dp1771
g3
S'Post Malone'
p1772
sg5
I23
sg6
S'https://open.spotify.com/track/3a1lNhkSLSkpJE4MSHpDu9'
p1773
sg8
S'Congratulations'
p1774
ssS'61WbtB6ujkpNAsAf5LjF4b'
p1775
(dp1776
g3
S'Katy Perry'
p1777
sg5
I12
sg6
S'https://open.spotify.com/track/61WbtB6ujkpNAsAf5LjF4b'
p1778
sg8
S'Bon app\xc3\xa9tit'
p1779
ssS'7ee2FbCIkLtNyAXrnXZy5G'
p1780
(dp1781
g3
S'Alejandro Fernandez'
p1782
sg5
I16
sg6
S'https://open.spotify.com/track/7ee2FbCIkLtNyAXrnXZy5G'
p1783
sg8
S'Tienes Que Entender'
p1784
ssS'3bhE8f2wsd26qEvYAiUlrQ'
p1785
(dp1786
g3
S'Juli\xc3\xb3n \xc3\x81lvarez y su Norte\xc3\xb1o Banda'
p1787
sg5
I1
sg6
S'https://open.spotify.com/track/3bhE8f2wsd26qEvYAiUlrQ'
p1788
sg8
S'Esta Noche Se Me Olvida'
p1789
ssS'0ofbQMrRDsUaVKq2mGLEAb'
p1790
(dp1791
g3
S'Camila Cabello'
p1792
sg5
I8
sg6
S'https://open.spotify.com/track/0ofbQMrRDsUaVKq2mGLEAb'
p1793
sg8
S'Havana'
p1794
ssS'6bLopGnirdrilrpdVB6Um1'
p1795
(dp1796
g3
S'Sia'
p1797
sg5
I2
sg6
S'https://open.spotify.com/track/6bLopGnirdrilrpdVB6Um1'
p1798
sg8
S'The Greatest'
p1799
ssS'1AkTW13ysu0AJrwuM6UY0I'
p1800
(dp1801
g3
S'Charly Black'
p1802
sg5
I41
sg6
S'https://open.spotify.com/track/1AkTW13ysu0AJrwuM6UY0I'
p1803
sg8
S'Gyal You A Party Animal - Remix'
p1804
ssS'7cCRlUf8ayOJtTlWN7g8Ni'
p1805
(dp1806
g3
S'R\xc3\xado Roma'
p1807
sg5
I13
sg6
S'https://open.spotify.com/track/7cCRlUf8ayOJtTlWN7g8Ni'
p1808
sg8
S'Caminar de Tu Mano'
p1809
ssS'1vvNmPOiUuyCbgWmtc6yfm'
p1810
(dp1811
g3
S'Calvin Harris'
p1812
sg5
I31
sg6
S'https://open.spotify.com/track/1vvNmPOiUuyCbgWmtc6yfm'
p1813
sg8
S'My Way'
p1814
ssS'5k5HXMmbU31I6cMOWnMgSQ'
p1815
(dp1816
g3
S'Paulina Rubio'
p1817
sg5
I8
sg6
S'https://open.spotify.com/track/5k5HXMmbU31I6cMOWnMgSQ'
p1818
sg8
S'Me Quema'
p1819
ssS'5vZfgeDfNhlkKeJqjzSAmg'
p1820
(dp1821
g3
S'Alejandro Fernandez'
p1822
sg5
I36
sg6
S'https://open.spotify.com/track/5vZfgeDfNhlkKeJqjzSAmg'
p1823
sg8
S'S\xc3\xa9 Que Te Duele'
p1824
ssS'04f13iELcsYpY2yeLiAcfq'
p1825
(dp1826
g3
S'Nicky Jam'
p1827
sg5
I15
sg6
S'https://open.spotify.com/track/04f13iELcsYpY2yeLiAcfq'
p1828
sg8
S'El Amante - Remix'
p1829
ssS'5u5MvmVtitax9R1Mxh3reC'
p1830
(dp1831
g3
S'Ozuna'
p1832
sg5
I7
sg6
S'https://open.spotify.com/track/5u5MvmVtitax9R1Mxh3reC'
p1833
sg8
S'Dile Que Tu Me Quieres'
p1834
ssS'5YzA563GXTuwQaRq24z1k5'
p1835
(dp1836
g3
S'Yandel'
p1837
sg5
I5
sg6
S'https://open.spotify.com/track/5YzA563GXTuwQaRq24z1k5'
p1838
sg8
S'Como Antes'
p1839
ssS'0afhq8XCExXpqazXczTSve'
p1840
(dp1841
g3
S'Ed Sheeran'
p1842
sg5
I16
sg6
S'https://open.spotify.com/track/0afhq8XCExXpqazXczTSve'
p1843
sg8
S'Galway Girl'
p1844
ssS'6F35s1d7QRKjbjBbpccVQp'
p1845
(dp1846
g3
S'CD9'
p1847
sg5
I8
sg6
S'https://open.spotify.com/track/6F35s1d7QRKjbjBbpccVQp'
p1848
sg8
S'No Le Hablen de Amor (Remix)'
p1849
ssS'52RIwrVO4z30hkTsSWOYyL'
p1850
(dp1851
g3
S'Banda Tierra Sagrada'
p1852
sg5
I1
sg6
S'https://open.spotify.com/track/52RIwrVO4z30hkTsSWOYyL'
p1853
sg8
S'La Buena y la Mala'
p1854
ssS'5TysCiZtv1HnSWcTcUFusI'
p1855
(dp1856
g3
S'Joey Montana'
p1857
sg5
I6
sg6
S'https://open.spotify.com/track/5TysCiZtv1HnSWcTcUFusI'
p1858
sg8
S'Suena El Dembow'
p1859
ssS'2aFiaMXmWsM3Vj72F9ksBl'
p1860
(dp1861
g3
S'DNCE'
p1862
sg5
I25
sg6
S'https://open.spotify.com/track/2aFiaMXmWsM3Vj72F9ksBl'
p1863
sg8
S'Cake By The Ocean'
p1864
ssS'7xHWNBFm6ObGEQPaUxHuKO'
p1865
(dp1866
g3
S'Sia'
p1867
sg5
I12
sg6
S'https://open.spotify.com/track/7xHWNBFm6ObGEQPaUxHuKO'
p1868
sg8
S'The Greatest'
p1869
ssS'5ZbxyKp49vtZMOXYoMr8o8'
p1870
(dp1871
g3
S'OneRepublic'
p1872
sg5
I4
sg6
S'https://open.spotify.com/track/5ZbxyKp49vtZMOXYoMr8o8'
p1873
sg8
S'No Vacancy (with Sebasti\xc3\xa1n Yatra)'
p1874
ssS'5HABnFSYvl6mTmg8nSdzHa'
p1875
(dp1876
g3
S'Zion & Lennox'
p1877
sg5
I30
sg6
S'https://open.spotify.com/track/5HABnFSYvl6mTmg8nSdzHa'
p1878
sg8
S'Mi Tesoro (feat. Nicky Jam)'
p1879
ssS'1mSzZKMIPZIkn3jFV7v62b'
p1880
(dp1881
g3
S'Charly Black'
p1882
sg5
I2
sg6
S'https://open.spotify.com/track/1mSzZKMIPZIkn3jFV7v62b'
p1883
sg8
S'Gyal You A Party Animal'
p1884
ssS'6EpRaXYhGOB3fj4V2uDkMJ'
p1885
(dp1886
g3
S'Liam Payne'
p1887
sg5
I21
sg6
S'https://open.spotify.com/track/6EpRaXYhGOB3fj4V2uDkMJ'
p1888
sg8
S'Strip That Down'
p1889
ssS'0ntQJM78wzOLVeCUAW7Y45'
p1890
(dp1891
g3
S'Kings of Leon'
p1892
sg5
I3
sg6
S'https://open.spotify.com/track/0ntQJM78wzOLVeCUAW7Y45'
p1893
sg8
S'Sex on Fire'
p1894
ssS'45RaWQq1WhTt8D03FBKHHK'
p1895
(dp1896
g3
S'Los Plebes del Rancho de Ariel Camacho'
p1897
sg5
I7
sg6
S'https://open.spotify.com/track/45RaWQq1WhTt8D03FBKHHK'
p1898
sg8
S'Por Enamorarme'
p1899
ssS'6rQSrBHf7HlZjtcMZ4S4bO'
p1900
(dp1901
g3
S'J Balvin'
p1902
sg5
I42
sg6
S'https://open.spotify.com/track/6rQSrBHf7HlZjtcMZ4S4bO'
p1903
sg8
S'Safari'
p1904
ssS'1m69ELEgE6k5ZWsap40ozt'
p1905
(dp1906
g3
S'Ozuna'
p1907
sg5
I7
sg6
S'https://open.spotify.com/track/1m69ELEgE6k5ZWsap40ozt'
p1908
sg8
S'Se Prepar\xc3\xb3'
p1909
ssS'4tPL9PeVZY4c0jUPtSD5nx'
p1910
(dp1911
g3
S'Joey Montana'
p1912
sg5
I7
sg6
S'https://open.spotify.com/track/4tPL9PeVZY4c0jUPtSD5nx'
p1913
sg8
S'Picky'
p1914
ssS'5EId1m4DNwTf3at31w8bPJ'
p1915
(dp1916
g3
S'Ozuna'
p1917
sg5
I7
sg6
S'https://open.spotify.com/track/5EId1m4DNwTf3at31w8bPJ'
p1918
sg8
S'El Farsante'
p1919
ssS'6PCUP3dWmTjcTtXY02oFdT'
p1920
(dp1921
g3
S'Ed Sheeran'
p1922
sg5
I15
sg6
S'https://open.spotify.com/track/6PCUP3dWmTjcTtXY02oFdT'
p1923
sg8
S'Castle on the Hill'
p1924
ssS'3QjkcFDVHOB4Z43esP5A8N'
p1925
(dp1926
g3
S'Jesse & Joy'
p1927
sg5
I1
sg6
S'https://open.spotify.com/track/3QjkcFDVHOB4Z43esP5A8N'
p1928
sg8
S'No soy una de esas - feat. Alejandro Sanz'
p1929
ssS'71RL6jIJ10rJuR0kfK1eut'
p1930
(dp1931
g3
S'Cartel De Santa'
p1932
sg5
I13
sg6
S'https://open.spotify.com/track/71RL6jIJ10rJuR0kfK1eut'
p1933
sg8
S'Volvi\xc3\xb3 el Sensei'
p1934
ssS'0v8QpLDCw2n7ikFuiRKIx5'
p1935
(dp1936
g3
S'Pepe Aguilar'
p1937
sg5
I1
sg6
S'https://open.spotify.com/track/0v8QpLDCw2n7ikFuiRKIx5'
p1938
sg8
S'Por Mujeres Como Tu'
p1939
ssS'2wgDAPgBhFA7pnIbm0YOhP'
p1940
(dp1941
g3
S'Bad Bunny'
p1942
sg5
I24
sg6
S'https://open.spotify.com/track/2wgDAPgBhFA7pnIbm0YOhP'
p1943
sg8
S'Me Mata'
p1944
ssS'4N1c5rmWOzRmB9SMacr5wB'
p1945
(dp1946
g3
S'Abraham Mateo'
p1947
sg5
I16
sg6
S'https://open.spotify.com/track/4N1c5rmWOzRmB9SMacr5wB'
p1948
sg8
S'Loco Enamorado'
p1949
ssS'104buTcnP2AsxqB7U1FIZ4'
p1950
(dp1951
g3
S'Linkin Park'
p1952
sg5
I1
sg6
S'https://open.spotify.com/track/104buTcnP2AsxqB7U1FIZ4'
p1953
sg8
S'Heavy (feat. Kiiara)'
p1954
ssS'1PSBzsahR2AKwLJgx8ehBj'
p1955
(dp1956
g3
S'Machine Gun Kelly'
p1957
sg5
I8
sg6
S'https://open.spotify.com/track/1PSBzsahR2AKwLJgx8ehBj'
p1958
sg8
S'Bad Things (with Camila Cabello)'
p1959
ssS'5gFAT2DbEt4TOMXyAMEixG'
p1960
(dp1961
g3
S'Brytiago'
p1962
sg5
I10
sg6
S'https://open.spotify.com/track/5gFAT2DbEt4TOMXyAMEixG'
p1963
sg8
S'Netflixxx'
p1964
ssS'2UDoZZSrs3NxlmvFZbffr4'
p1965
(dp1966
g3
S'Christian Nodal'
p1967
sg5
I1
sg6
S'https://open.spotify.com/track/2UDoZZSrs3NxlmvFZbffr4'
p1968
sg8
S'Te Fall\xc3\xa9'
p1969
ssS'31MkGwj0SWgZaTvEt5Hgxv'
p1970
(dp1971
g3
S'P!nk'
p1972
sg5
I2
sg6
S'https://open.spotify.com/track/31MkGwj0SWgZaTvEt5Hgxv'
p1973
sg8
S'What About Us'
p1974
ssS'5fo4LbJ8lOaB54wcM5wPMv'
p1975
(dp1976
g3
S'Terror Jr'
p1977
sg5
I3
sg6
S'https://open.spotify.com/track/5fo4LbJ8lOaB54wcM5wPMv'
p1978
sg8
S'Come First'
p1979
ssS'0sXvAOmXgjR2QUqLK1MltU'
p1980
(dp1981
g3
S'Carlos Vives'
p1982
sg5
I42
sg6
S'https://open.spotify.com/track/0sXvAOmXgjR2QUqLK1MltU'
p1983
sg8
S'La Bicicleta'
p1984
ssS'4NUt1fcnO9aQAELBgXq3Kr'
p1985
(dp1986
g3
S'Alejandro Fernandez'
p1987
sg5
I42
sg6
S'https://open.spotify.com/track/4NUt1fcnO9aQAELBgXq3Kr'
p1988
sg8
S'Me Dediqu\xc3\xa9 a Perderte'
p1989
ssS'3m660poUr1chesgkkjQM7P'
p1990
(dp1991
g3
S'Demi Lovato'
p1992
sg5
I2
sg6
S'https://open.spotify.com/track/3m660poUr1chesgkkjQM7P'
p1993
sg8
S'Sorry Not Sorry'
p1994
ssS'5EnYT6F7wEcdege6mDHEfO'
p1995
(dp1996
g3
S'Drake'
p1997
sg5
I5
sg6
S'https://open.spotify.com/track/5EnYT6F7wEcdege6mDHEfO'
p1998
sg8
S'Signs'
p1999
ssS'05ZXXyeZFhZtA6DAP3Aw7x'
p2000
(dp2001
g3
S'Maite Perroni'
p2002
sg5
I19
sg6
S'https://open.spotify.com/track/05ZXXyeZFhZtA6DAP3Aw7x'
p2003
sg8
S'Loca (feat. Cali Y El Dandee)'
p2004
ssS'3ebXMykcMXOcLeJ9xZ17XH'
p2005
(dp2006
g3
S'Martin Garrix'
p2007
sg5
I37
sg6
S'https://open.spotify.com/track/3ebXMykcMXOcLeJ9xZ17XH'
p2008
sg8
S'Scared to Be Lonely'
p2009
ssS'6fujklziTHa8uoM5OQSfIo'
p2010
(dp2011
g3
S'Rae Sremmurd'
p2012
sg5
I9
sg6
S'https://open.spotify.com/track/6fujklziTHa8uoM5OQSfIo'
p2013
sg8
S'Black Beatles'
p2014
ssS'19WjVVgXjdKXfLXoaDPwTM'
p2015
(dp2016
g3
S'Taylor Swift'
p2017
sg5
I2
sg6
S'https://open.spotify.com/track/19WjVVgXjdKXfLXoaDPwTM'
p2018
sg8
S'...Ready For It?'
p2019
ssS'0JoHqmlqE0W0i9prt6kcHR'
p2020
(dp2021
g3
S'Maluma'
p2022
sg5
I42
sg6
S'https://open.spotify.com/track/0JoHqmlqE0W0i9prt6kcHR'
p2023
sg8
S'Cuatro Babys'
p2024
ssS'7abpmGpF7PGep2rDU68GBR'
p2025
(dp2026
g3
S'Burak Yeter'
p2027
sg5
I28
sg6
S'https://open.spotify.com/track/7abpmGpF7PGep2rDU68GBR'
p2028
sg8
S'Tuesday'
p2029
ssS'6YHAExoi0JVSknKbFiT6Kr'
p2030
(dp2031
g3
S'Zo\xc3\xa9'
p2032
sg5
I15
sg6
S'https://open.spotify.com/track/6YHAExoi0JVSknKbFiT6Kr'
p2033
sg8
S'Luna'
p2034
ssS'3PEgB3fkiojxms35ntsTgs'
p2035
(dp2036
g3
S'Axwell /\\ Ingrosso'
p2037
sg5
I11
sg6
S'https://open.spotify.com/track/3PEgB3fkiojxms35ntsTgs'
p2038
sg8
S'More Than You Know'
p2039
ssS'3juru5egWzRkNk0yI8ilBZ'
p2040
(dp2041
g3
S'El Ezequiel'
p2042
sg5
I5
sg6
S'https://open.spotify.com/track/3juru5egWzRkNk0yI8ilBZ'
p2043
sg8
S'Chico Enamorado'
p2044
ssS'4eOUnn9bKgUVx6fsbFhuZO'
p2045
(dp2046
g3
S'Alta Consigna'
p2047
sg5
I42
sg6
S'https://open.spotify.com/track/4eOUnn9bKgUVx6fsbFhuZO'
p2048
sg8
S'Culpable Tu'
p2049
ssS'2yajAy8Va9VTk3yhF9B3ET'
p2050
(dp2051
g3
S'Pablo Albor\xc3\xa1n'
p2052
sg5
I5
sg6
S'https://open.spotify.com/track/2yajAy8Va9VTk3yhF9B3ET'
p2053
sg8
S'No vaya a ser'
p2054
ssS'5KUaLrnJZrdUMbggfu7I4m'
p2055
(dp2056
g3
S'Beatriz Luengo'
p2057
sg5
I6
sg6
S'https://open.spotify.com/track/5KUaLrnJZrdUMbggfu7I4m'
p2058
sg8
S'M\xc3\xa1s Que Suerte'
p2059
ssS'3H179O48ynsu9q8LOnFQZY'
p2060
(dp2061
g3
S'Reik'
p2062
sg5
I30
sg6
S'https://open.spotify.com/track/3H179O48ynsu9q8LOnFQZY'
p2063
sg8
S'Qu\xc3\xa9 Gano Olvid\xc3\xa1ndote - Versi\xc3\xb3n Urbana'
p2064
ssS'0UeYCHOETPfai02uskjJ3x'
p2065
(dp2066
g3
S'Bag Raiders'
p2067
sg5
I9
sg6
S'https://open.spotify.com/track/0UeYCHOETPfai02uskjJ3x'
p2068
sg8
S'Shooting Stars'
p2069
ssS'48yAM9xWBwT4Ac9G1y20rw'
p2070
(dp2071
g3
S'Yandel'
p2072
sg5
I4
sg6
S'https://open.spotify.com/track/48yAM9xWBwT4Ac9G1y20rw'
p2073
sg8
S'Expl\xc3\xadcale'
p2074
ssS'0B8B8cVRFIG1yznoQe7c9s'
p2075
(dp2076
g3
S'The Chainsmokers'
p2077
sg5
I4
sg6
S'https://open.spotify.com/track/0B8B8cVRFIG1yznoQe7c9s'
p2078
sg8
S'Setting Fires'
p2079
ssS'6041gM9Th1ViQcnzkIxnuv'
p2080
(dp2081
g3
S'Ozuna'
p2082
sg5
I36
sg6
S'https://open.spotify.com/track/6041gM9Th1ViQcnzkIxnuv'
p2083
sg8
S'Me Ama Me Odia'
p2084
ssS'0lJCqIx5BhZtf6QtYI2fbv'
p2085
(dp2086
g3
S'Daddy Yankee'
p2087
sg5
I2
sg6
S'https://open.spotify.com/track/0lJCqIx5BhZtf6QtYI2fbv'
p2088
sg8
S'Vuelve'
p2089
ssS'6OZh916QF8XNunWaP97WEZ'
p2090
(dp2091
g3
S'Jonas Blue'
p2092
sg5
I6
sg6
S'https://open.spotify.com/track/6OZh916QF8XNunWaP97WEZ'
p2093
sg8
S'Fast Car'
p2094
ssS'2rizacJSyD9S1IQUxUxnsK'
p2095
(dp2096
g3
S'The Chainsmokers'
p2097
sg5
I8
sg6
S'https://open.spotify.com/track/2rizacJSyD9S1IQUxUxnsK'
p2098
sg8
S'All We Know'
p2099
ssS'6RsWqX8zABZLhZydXxEFOm'
p2100
(dp2101
g3
S'The Weeknd'
p2102
sg5
I8
sg6
S'https://open.spotify.com/track/6RsWqX8zABZLhZydXxEFOm'
p2103
sg8
S"Can't Feel My Face"
p2104
ssS'0tgVpDi06FyKpA1z0VMD4v'
p2105
(dp2106
g3
S'Ed Sheeran'
p2107
sg5
I32
sg6
S'https://open.spotify.com/track/0tgVpDi06FyKpA1z0VMD4v'
p2108
sg8
S'Perfect'
p2109
ssS'2Vdub5mY4lad7w64bFPUez'
p2110
(dp2111
g3
S'Pitbull'
p2112
sg5
I31
sg6
S'https://open.spotify.com/track/2Vdub5mY4lad7w64bFPUez'
p2113
sg8
S'Hey Ma (with Pitbull & J Balvin feat. Camila Cabello) - Spanish Version'
p2114
ssS'5i50gKdLAjjIr7UxRT5IVy'
p2115
(dp2116
g3
S'Sebastian Yatra'
p2117
sg5
I35
sg6
S'https://open.spotify.com/track/5i50gKdLAjjIr7UxRT5IVy'
p2118
sg8
S'Alguien Robo'
p2119
ssS'69uxyAqqPIsUyTO8txoP2M'
p2120
(dp2121
g3
S'Coldplay'
p2122
sg5
I12
sg6
S'https://open.spotify.com/track/69uxyAqqPIsUyTO8txoP2M'
p2123
sg8
S'Adventure Of A Lifetime'
p2124
ssS'1zRqRmZyE0bgXkSoVVaCwK'
p2125
(dp2126
g3
S'Sin Bandera'
p2127
sg5
I15
sg6
S'https://open.spotify.com/track/1zRqRmZyE0bgXkSoVVaCwK'
p2128
sg8
S'En \xc3\x89sta No'
p2129
ssS'72Q0FQQo32KJloivv5xge2'
p2130
(dp2131
g3
S'DJ Khaled'
p2132
sg5
I3
sg6
S'https://open.spotify.com/track/72Q0FQQo32KJloivv5xge2'
p2133
sg8
S"I'm the One"
p2134
ssS'1x5sYLZiu9r5E43kMlt9f8'
p2135
(dp2136
g3
S'Clean Bandit'
p2137
sg5
I22
sg6
S'https://open.spotify.com/track/1x5sYLZiu9r5E43kMlt9f8'
p2138
sg8
S'Symphony (feat. Zara Larsson)'
p2139
ssS'2rb5MvYT7ZIxbKW5hfcHx8'
p2140
(dp2141
g3
S'J Balvin'
p2142
sg5
I15
sg6
S'https://open.spotify.com/track/2rb5MvYT7ZIxbKW5hfcHx8'
p2143
sg8
S'Mi Gente'
p2144
ssS'63bmZnBN1CiJ9sA4qTEe8y'
p2145
(dp2146
g3
S'Christian Nodal'
p2147
sg5
I7
sg6
S'https://open.spotify.com/track/63bmZnBN1CiJ9sA4qTEe8y'
p2148
sg8
S'Adi\xc3\xb3s Amor'
p2149
ssS'5SE57ljOIUJ1ybL9U6CuBH'
p2150
(dp2151
g3
S'BTS'
p2152
sg5
I1
sg6
S'https://open.spotify.com/track/5SE57ljOIUJ1ybL9U6CuBH'
p2153
sg8
S'DNA'
p2154
ssS'1pWYnQIlqxTh5bxuPmTG4E'
p2155
(dp2156
g3
S'Thal\xc3\xada'
p2157
sg5
I38
sg6
S'https://open.spotify.com/track/1pWYnQIlqxTh5bxuPmTG4E'
p2158
sg8
S'Desde Esa Noche'
p2159
ssS'6SwRhMLwNqEi6alNPVG00n'
p2160
(dp2161
g3
S'Kendrick Lamar'
p2162
sg5
I1
sg6
S'https://open.spotify.com/track/6SwRhMLwNqEi6alNPVG00n'
p2163
sg8
S'LOYALTY. FEAT. RIHANNA.'
p2164
ssS'0VYFakqQG8p6yHrqq9TAoY'
p2165
(dp2166
g3
S'Crecer German'
p2167
sg5
I30
sg6
S'https://open.spotify.com/track/0VYFakqQG8p6yHrqq9TAoY'
p2168
sg8
S'Qui\xc3\xa9n Te Entiende'
p2169
ssS'0tKcYR2II1VCQWT79i5NrW'
p2170
(dp2171
g3
S'Imagine Dragons'
p2172
sg5
I21
sg6
S'https://open.spotify.com/track/0tKcYR2II1VCQWT79i5NrW'
p2173
sg8
S'Thunder'
p2174
ssS'3jK9UGmZEjHnO2IAOduZ5U'
p2175
(dp2176
g3
S'Gerardo Ortiz'
p2177
sg5
I3
sg6
S'https://open.spotify.com/track/3jK9UGmZEjHnO2IAOduZ5U'
p2178
sg8
S'Para Qu\xc3\xa9 Lastimarme'
p2179
ssS'3rgjBiAMVGnxmsTDmUy8vb'
p2180
(dp2181
g3
S'Farruko'
p2182
sg5
I6
sg6
S'https://open.spotify.com/track/3rgjBiAMVGnxmsTDmUy8vb'
p2183
sg8
S'Krippy Kush'
p2184
ssS'6DNtNfH8hXkqOX1sjqmI7p'
p2185
(dp2186
g3
S'Major Lazer'
p2187
sg5
I25
sg6
S'https://open.spotify.com/track/6DNtNfH8hXkqOX1sjqmI7p'
p2188
sg8
S'Cold Water (feat. Justin Bieber & M\xc3\x98)'
p2189
ssS'5NNlUMcOEOdoOIwwaWXv0k'
p2190
(dp2191
g3
S'Maroon 5'
p2192
sg5
I20
sg6
S'https://open.spotify.com/track/5NNlUMcOEOdoOIwwaWXv0k'
p2193
sg8
S'Cold'
p2194
ssS'5bcTCxgc7xVfSaMV3RuVke'
p2195
(dp2196
g3
S'Calvin Harris'
p2197
sg5
I16
sg6
S'https://open.spotify.com/track/5bcTCxgc7xVfSaMV3RuVke'
p2198
sg8
S'Feels'
p2199
ssS'1sXUWdKx03aP9Gmzft58rt'
p2200
(dp2201
g3
S'Julia Michaels'
p2202
sg5
I21
sg6
S'https://open.spotify.com/track/1sXUWdKx03aP9Gmzft58rt'
p2203
sg8
S'Issues'
p2204
ssS'3bVbQvGVIe4n24AzyXovXh'
p2205
(dp2206
g3
g147
sg5
I1
sg6
S'https://open.spotify.com/track/3bVbQvGVIe4n24AzyXovXh'
p2207
sg8
g147
ssS'4L7Y2OAPiY2I2GndZjAs5K'
p2208
(dp2209
g3
S'Lana Del Rey'
p2210
sg5
I1
sg6
S'https://open.spotify.com/track/4L7Y2OAPiY2I2GndZjAs5K'
p2211
sg8
S'Lust For Life (with The Weeknd)'
p2212
ssS'14oOKFGuXu8DqvOe1W8vao'
p2213
(dp2214
g3
S'Katy Perry'
p2215
sg5
I2
sg6
S'https://open.spotify.com/track/14oOKFGuXu8DqvOe1W8vao'
p2216
sg8
S'Bon App\xc3\xa9tit'
p2217
ssS'66gNNRsKkmECPQUrvpMQtS'
p2218
(dp2219
g3
S'DJ Jonathan'
p2220
sg5
I2
sg6
S'https://open.spotify.com/track/66gNNRsKkmECPQUrvpMQtS'
p2221
sg8
S'El Farsante'
p2222
ssS'1louJpMmzEicAn7lzDalPW'
p2223
(dp2224
g3
S'Cheat Codes'
p2225
sg5
I19
sg6
S'https://open.spotify.com/track/1louJpMmzEicAn7lzDalPW'
p2226
sg8
S'No Promises (feat. Demi Lovato)'
p2227
ssS'6TIU9Ehmi6dMzZK73Ym4yj'
p2228
(dp2229
g3
S'Ed Sheeran'
p2230
sg5
I1
sg6
S'https://open.spotify.com/track/6TIU9Ehmi6dMzZK73Ym4yj'
p2231
sg8
S'Save Myself'
p2232
ssS'2pJZ1v8HezrAoZ0Fhzby92'
p2233
(dp2234
g3
S'Ed Sheeran'
p2235
sg5
I2
sg6
S'https://open.spotify.com/track/2pJZ1v8HezrAoZ0Fhzby92'
p2236
sg8
S'What Do I Know?'
p2237
ssS'0KKkJNfGyhkQ5aFogxQAPU'
p2238
(dp2239
g3
S'Bruno Mars'
p2240
sg5
I35
sg6
S'https://open.spotify.com/track/0KKkJNfGyhkQ5aFogxQAPU'
p2241
sg8
S"That's What I Like"
p2242
ssS'2twUPIYOTqVivev47pf7bU'
p2243
(dp2244
g3
S'Ozuna'
p2245
sg5
I22
sg6
S'https://open.spotify.com/track/2twUPIYOTqVivev47pf7bU'
p2246
sg8
S'Te Vas'
p2247
ssS'7wWEyaC6nNPiYVGUi4fSmK'
p2248
(dp2249
g3
S'Matisse'
p2250
sg5
I1
sg6
S'https://open.spotify.com/track/7wWEyaC6nNPiYVGUi4fSmK'
p2251
sg8
S'Todav\xc3\xada'
p2252
ssS'494OU6M7NOf4ICYb4zWCf5'
p2253
(dp2254
g3
S'Maroon 5'
p2255
sg5
I18
sg6
S'https://open.spotify.com/track/494OU6M7NOf4ICYb4zWCf5'
p2256
sg8
S'Sugar'
p2257
ssS'0gbBzIqrECJOEPvQJIBFs5'
p2258
(dp2259
g3
S'Lorde'
p2260
sg5
I5
sg6
S'https://open.spotify.com/track/0gbBzIqrECJOEPvQJIBFs5'
p2261
sg8
S'Green Light'
p2262
ssS'3VClLWqNn80Llv0PJOsKgr'
p2263
(dp2264
g3
S'Nacho'
p2265
sg5
I10
sg6
S'https://open.spotify.com/track/3VClLWqNn80Llv0PJOsKgr'
p2266
sg8
S'B\xc3\xa1ilame - Remix'
p2267
ssS'29csiYMOfBmLmGwxmISrMy'
p2268
(dp2269
g3
S'Ricardo Arjona'
p2270
sg5
I1
sg6
S'https://open.spotify.com/track/29csiYMOfBmLmGwxmISrMy'
p2271
sg8
S'Fuiste T\xc3\xba'
p2272
ssS'3kg9JvQe6QJFKUQCN1oIQz'
p2273
(dp2274
g3
S'Feid'
p2275
sg5
I7
sg6
S'https://open.spotify.com/track/3kg9JvQe6QJFKUQCN1oIQz'
p2276
sg8
S'Que Raro'
p2277
ssS'46UhTfdy7LhAFK8BalnJid'
p2278
(dp2279
g3
S'Zo\xc3\xa9'
p2280
sg5
I38
sg6
S'https://open.spotify.com/track/46UhTfdy7LhAFK8BalnJid'
p2281
sg8
S'So\xc3\xb1\xc3\xa9'
p2282
ssS'0ib1eHSccu3AZ9UnL4JZdc'
p2283
(dp2284
g3
S'Christian Nodal'
p2285
sg5
I11
sg6
S'https://open.spotify.com/track/0ib1eHSccu3AZ9UnL4JZdc'
p2286
sg8
S'Probablemente'
p2287
ssS'2habSXqcJGExM6JJyskY7O'
p2288
(dp2289
g3
S'Miley Cyrus'
p2290
sg5
I17
sg6
S'https://open.spotify.com/track/2habSXqcJGExM6JJyskY7O'
p2291
sg8
S'Malibu'
p2292
ssS'6i0V12jOa3mr6uu4WYhUBr'
p2293
(dp2294
g3
S'Twenty One Pilots'
p2295
sg5
I24
sg6
S'https://open.spotify.com/track/6i0V12jOa3mr6uu4WYhUBr'
p2296
sg8
S'Heathens'
p2297
ssS'5nA67Y0XX9JipZwYxX7Gl7'
p2298
(dp2299
g3
S'Niall Horan'
p2300
sg5
I2
sg6
S'https://open.spotify.com/track/5nA67Y0XX9JipZwYxX7Gl7'
p2301
sg8
S'This Town'
p2302
ssS'3H0Vda4LvcNlwRQpNd8MHJ'
p2303
(dp2304
g3
S'Juanes'
p2305
sg5
I4
sg6
S'https://open.spotify.com/track/3H0Vda4LvcNlwRQpNd8MHJ'
p2306
sg8
S'Hermosa Ingrata'
p2307
ssS'4XCQtUoRSh22Ep18ULmDnT'
p2308
(dp2309
g3
S'De La Ghetto'
p2310
sg5
I4
sg6
S'https://open.spotify.com/track/4XCQtUoRSh22Ep18ULmDnT'
p2311
sg8
S'La Formula (feat. Chris Jeday)'
p2312
ssS'0N4jis8aNOjiIfkBl4mGje'
p2313
(dp2314
g3
S'R\xc3\xado Roma'
p2315
sg5
I4
sg6
S'https://open.spotify.com/track/0N4jis8aNOjiIfkBl4mGje'
p2316
sg8
S'Princesa'
p2317
ssS'0lPXFrKyl8HkdQ2E6NmNja'
p2318
(dp2319
g3
S'Reik'
p2320
sg5
I29
sg6
S'https://open.spotify.com/track/0lPXFrKyl8HkdQ2E6NmNja'
p2321
sg8
S'Ya Me Enter\xc3\xa9'
p2322
ssS'693iqPOQvhI7PobtR8CC8v'
p2323
(dp2324
g3
S'J Balvin'
p2325
sg5
I19
sg6
S'https://open.spotify.com/track/693iqPOQvhI7PobtR8CC8v'
p2326
sg8
S'Bonita'
p2327
ssS'6fxVffaTuwjgEk5h9QyRjy'
p2328
(dp2329
g3
S'Ed Sheeran'
p2330
sg5
I42
sg6
S'https://open.spotify.com/track/6fxVffaTuwjgEk5h9QyRjy'
p2331
sg8
S'Photograph'
p2332
ssS'0w5Bdu51Ka25Pf3hojsKHh'
p2333
(dp2334
g3
S'Paramore'
p2335
sg5
I1
sg6
S'https://open.spotify.com/track/0w5Bdu51Ka25Pf3hojsKHh'
p2336
sg8
S'Hard Times'
p2337
ssS'6kex4EBAj0WHXDKZMEJaaF'
p2338
(dp2339
g3
S'Jason Derulo'
p2340
sg5
I29
sg6
S'https://open.spotify.com/track/6kex4EBAj0WHXDKZMEJaaF'
p2341
sg8
S'Swalla (feat. Nicki Minaj & Ty Dolla $ign)'
p2342
ssS'4skuEIloXWuxxgekKupkEH'
p2343
(dp2344
g3
S'Mon Laferte'
p2345
sg5
I42
sg6
S'https://open.spotify.com/track/4skuEIloXWuxxgekKupkEH'
p2346
sg8
S'Tu Falta De Querer'
p2347
ssS'1iEwyiSLAunPR6uouANE0O'
p2348
(dp2349
g3
S'Maluma'
p2350
sg5
I40
sg6
S'https://open.spotify.com/track/1iEwyiSLAunPR6uouANE0O'
p2351
sg8
S'El Perdedor'
p2352
ssS'2omJSQbSy5nFNVj1qAQ64M'
p2353
(dp2354
g3
S'Alfredo Olivas'
p2355
sg5
I32
sg6
S'https://open.spotify.com/track/2omJSQbSy5nFNVj1qAQ64M'
p2356
sg8
S'El Paciente'
p2357
ssS'79Bm3DTEYuQsDpUVHbSRsL'
p2358
(dp2359
g3
S'Sofia Reyes'
p2360
sg5
I30
sg6
S'https://open.spotify.com/track/79Bm3DTEYuQsDpUVHbSRsL'
p2361
sg8
S'Llegaste t\xc3\xba (feat. Reykon)'
p2362
ssS'1Slwb6dOYkBlWal1PGtnNg'
p2363
(dp2364
g3
S'Ed Sheeran'
p2365
sg5
I42
sg6
S'https://open.spotify.com/track/1Slwb6dOYkBlWal1PGtnNg'
p2366
sg8
S'Thinking Out Loud'
p2367
ssS'7KXjTSCq5nL1LoYtL7XAwS'
p2368
(dp2369
g3
S'Kendrick Lamar'
p2370
sg5
I28
sg6
S'https://open.spotify.com/track/7KXjTSCq5nL1LoYtL7XAwS'
p2371
sg8
S'HUMBLE.'
p2372
ssS'3FhuPkzBM6VMLvc6rcer8v'
p2373
(dp2374
g3
S'Juli\xc3\xb3n \xc3\x81lvarez y su Norte\xc3\xb1o Banda'
p2375
sg5
I7
sg6
S'https://open.spotify.com/track/3FhuPkzBM6VMLvc6rcer8v'
p2376
sg8
S'Pong\xc3\xa1monos De Acuerdo'
p2377
ssS'5MT96Zz0ymUJNm8obKZQr0'
p2378
(dp2379
g3
S'Bad Bunny'
p2380
sg5
I38
sg6
S'https://open.spotify.com/track/5MT96Zz0ymUJNm8obKZQr0'
p2381
sg8
S'Soy Peor'
p2382
ssS'6Na5uKk5SsqZimk0hAWo8y'
p2383
(dp2384
g3
S'Drake'
p2385
sg5
I1
sg6
S'https://open.spotify.com/track/6Na5uKk5SsqZimk0hAWo8y'
p2386
sg8
S'Signs'
p2387
ssS'17Fd6Yb7mSbinKG8LoWfFl'
p2388
(dp2389
g3
S'Mike Posner'
p2390
sg5
I42
sg6
S'https://open.spotify.com/track/17Fd6Yb7mSbinKG8LoWfFl'
p2391
sg8
S'I Took A Pill In Ibiza - Seeb Remix'
p2392
ssS'7BwJtE8KSbCQKOCTIAY3jX'
p2393
(dp2394
g3
S'Carlos Baute'
p2395
sg5
I29
sg6
S'https://open.spotify.com/track/7BwJtE8KSbCQKOCTIAY3jX'
p2396
sg8
S'Ando buscando'
p2397
ssS'0Szp49tpFasIjX04Mcsydp'
p2398
(dp2399
g3
S'Ozuna'
p2400
sg5
I17
sg6
S'https://open.spotify.com/track/0Szp49tpFasIjX04Mcsydp'
p2401
sg8
S'Tu Foto'
p2402
ssS'0n2bvWvMwr0gbjcuTm92eW'
p2403
(dp2404
g3
S'Lana Del Rey'
p2405
sg5
I3
sg6
S'https://open.spotify.com/track/0n2bvWvMwr0gbjcuTm92eW'
p2406
sg8
S'Love'
p2407
ssS'0hlXUgUiIfedkY56EktGpd'
p2408
(dp2409
g3
S'Inspector'
p2410
sg5
I1
sg6
S'https://open.spotify.com/track/0hlXUgUiIfedkY56EktGpd'
p2411
sg8
S'Amargo Adi\xc3\xb3s'
p2412
ssS'3Lfiu5sZ4M4B6JaKMBc0FU'
p2413
(dp2414
g3
S'Ed Sheeran'
p2415
sg5
I1
sg6
S'https://open.spotify.com/track/3Lfiu5sZ4M4B6JaKMBc0FU'
p2416
sg8
S'Barcelona'
p2417
ssS'7iXRsjttPa62GpOcqsx1aE'
p2418
(dp2419
g3
S'Reik'
p2420
sg5
I17
sg6
S'https://open.spotify.com/track/7iXRsjttPa62GpOcqsx1aE'
p2421
sg8
S'Qu\xc3\xa9 Gano Olvid\xc3\xa1ndote'
p2422
ssS'4kfm1uI9QGaoN9qm6CkAMn'
p2423
(dp2424
g3
S'Linkin Park'
p2425
sg5
I1
sg6
S'https://open.spotify.com/track/4kfm1uI9QGaoN9qm6CkAMn'
p2426
sg8
S"What I've Done"
p2427
ssS'69bp2EbF7Q2rqc5N3ylezZ'
p2428
(dp2429
g3
S'Justin Bieber'
p2430
sg5
I23
sg6
S'https://open.spotify.com/track/69bp2EbF7Q2rqc5N3ylezZ'
p2431
sg8
S'Sorry'
p2432
ssS'2cnKEkpVUSV4wnjQiTWfH6'
p2433
(dp2434
g3
S'Wisin'
p2435
sg5
I29
sg6
S'https://open.spotify.com/track/2cnKEkpVUSV4wnjQiTWfH6'
p2436
sg8
S'Esc\xc3\xa1pate Conmigo'
p2437
ssS'6qDF4wWL49CAVbgT7yuHl8'
p2438
(dp2439
g3
S'J Balvin'
p2440
sg5
I36
sg6
S'https://open.spotify.com/track/6qDF4wWL49CAVbgT7yuHl8'
p2441
sg8
S'Sigo Extra\xc3\xb1\xc3\xa1ndote'
p2442
ssS'4iLqG9SeJSnt0cSPICSjxv'
p2443
(dp2444
g3
S'Charlie Puth'
p2445
sg5
I25
sg6
S'https://open.spotify.com/track/4iLqG9SeJSnt0cSPICSjxv'
p2446
sg8
S'Attention'
p2447
ssS'15dnkAHcHC0vrIUlbiPiqU'
p2448
(dp2449
g3
S'Imagine Dragons'
p2450
sg5
I1
sg6
S'https://open.spotify.com/track/15dnkAHcHC0vrIUlbiPiqU'
p2451
sg8
S'I Don\xe2\x80\x99t Know Why'
p2452
ssS'6RUKPb4LETWmmr3iAEQktW'
p2453
(dp2454
g3
S'The Chainsmokers'
p2455
sg5
I33
sg6
S'https://open.spotify.com/track/6RUKPb4LETWmmr3iAEQktW'
p2456
sg8
S'Something Just Like This'
p2457
ssS'2CPqh63wRVscbceKcPxwvv'
p2458
(dp2459
g3
S'Mike Perry'
p2460
sg5
I2
sg6
S'https://open.spotify.com/track/2CPqh63wRVscbceKcPxwvv'
p2461
sg8
S'The Ocean'
p2462
ssS'7qCAVkHWZkF44OzOUKf8Cr'
p2463
(dp2464
g3
S'Nicky Jam'
p2465
sg5
I37
sg6
S'https://open.spotify.com/track/7qCAVkHWZkF44OzOUKf8Cr'
p2466
sg8
S'El Perd\xc3\xb3n'
p2467
ssS'4UuVcf9nvpqyPsOk0P9oBH'
p2468
(dp2469
g3
S'Pepe Aguilar'
p2470
sg5
I11
sg6
S'https://open.spotify.com/track/4UuVcf9nvpqyPsOk0P9oBH'
p2471
sg8
S'Prometiste - MTV Unplugged [En Vivo]'
p2472
ssS'1xznGGDReH1oQq0xzbwXa3'
p2473
(dp2474
g3
S'Drake'
p2475
sg5
I42
sg6
S'https://open.spotify.com/track/1xznGGDReH1oQq0xzbwXa3'
p2476
sg8
S'One Dance'
p2477
ssS'7ETBp75Sc6ZT6XHVN783aq'
p2478
(dp2479
g3
S'Alta Consigna'
p2480
sg5
I42
sg6
S'https://open.spotify.com/track/7ETBp75Sc6ZT6XHVN783aq'
p2481
sg8
S'Te Deseo Lo Mejor'
p2482
ssS'4g3Ax56IslQkI6XVfYKVc5'
p2483
(dp2484
g3
S'Tame Impala'
p2485
sg5
I1
sg6
S'https://open.spotify.com/track/4g3Ax56IslQkI6XVfYKVc5'
p2486
sg8
S'The Less I Know The Better'
p2487
ssS'0lMbuWUpfTWhEmOKxppEau'
p2488
(dp2489
g3
S'Calvin Harris'
p2490
sg5
I4
sg6
S'https://open.spotify.com/track/0lMbuWUpfTWhEmOKxppEau'
p2491
sg8
S'Rollin'
p2492
ssS'7gHs73wELdeycvS48JfIos'
p2493
(dp2494
g3
S'Alan Walker'
p2495
sg5
I42
sg6
S'https://open.spotify.com/track/7gHs73wELdeycvS48JfIos'
p2496
sg8
S'Faded'
p2497
ssS'51ChrwmUPDJvedPQnIU8Ls'
p2498
(dp2499
g3
S'Ed Sheeran'
p2500
sg5
I4
sg6
S'https://open.spotify.com/track/51ChrwmUPDJvedPQnIU8Ls'
p2501
sg8
S'Dive'
p2502
ssS'4B1rpPmQXwj78wk6aIGwwU'
p2503
(dp2504
g3
S'Harry Styles'
p2505
sg5
I1
sg6
S'https://open.spotify.com/track/4B1rpPmQXwj78wk6aIGwwU'
p2506
sg8
S'Two Ghosts'
p2507
ssS'6jA8HL9i4QGzsj6fjoxp8Y'
p2508
(dp2509
g3
S'Martin Garrix'
p2510
sg5
I20
sg6
S'https://open.spotify.com/track/6jA8HL9i4QGzsj6fjoxp8Y'
p2511
sg8
S'There for You'
p2512
ssS'6Pur3hWy6Nzc27ilmsp5HA'
p2513
(dp2514
g3
S'Los Enanitos Verdes'
p2515
sg5
I2
sg6
S'https://open.spotify.com/track/6Pur3hWy6Nzc27ilmsp5HA'
p2516
sg8
S'Lamento Boliviano'
p2517
ssS'1CUVN2kn7mW5FjkqXTR2W1'
p2518
(dp2519
g3
S'Jonas Blue'
p2520
sg5
I25
sg6
S'https://open.spotify.com/track/1CUVN2kn7mW5FjkqXTR2W1'
p2521
sg8
S'Perfect Strangers'
p2522
ssS'2MN641SexYaEM1neDbHrWe'
p2523
(dp2524
g3
S'La Arrolladora Banda El Lim\xc3\xb3n De Rene Camacho'
p2525
sg5
I34
sg6
S'https://open.spotify.com/track/2MN641SexYaEM1neDbHrWe'
p2526
sg8
S'Me Va A Pesar'
p2527
ssS'7nKBxz47S9SD79N086fuhn'
p2528
(dp2529
g3
S'Enrique Iglesias'
p2530
sg5
I33
sg6
S'https://open.spotify.com/track/7nKBxz47S9SD79N086fuhn'
p2531
sg8
S'SUBEME LA RADIO'
p2532
ssS'27SdWb2rFzO6GWiYDBTD9j'
p2533
(dp2534
g3
S'Sia'
p2535
sg5
I29
sg6
S'https://open.spotify.com/track/27SdWb2rFzO6GWiYDBTD9j'
p2536
sg8
S'Cheap Thrills'
p2537
ssS'6PJ8FF6UR8FZXfEvpHkIVN'
p2538
(dp2539
g3
S'Ed Sheeran'
p2540
sg5
I4
sg6
S'https://open.spotify.com/track/6PJ8FF6UR8FZXfEvpHkIVN'
p2541
sg8
S'How Would You Feel (Paean)'
p2542
ssS'57tdYLxIPDGcjEQFBK8pjn'
p2543
(dp2544
g3
S'Alfredo Olivas'
p2545
sg5
I4
sg6
S'https://open.spotify.com/track/57tdYLxIPDGcjEQFBK8pjn'
p2546
sg8
S'En Definitiva'
p2547
ssS'5ndfVSDyPq90jaIUhNPeby'
p2548
(dp2549
g3
S'Katy Perry'
p2550
sg5
I2
sg6
S'https://open.spotify.com/track/5ndfVSDyPq90jaIUhNPeby'
p2551
sg8
S'Chained To The Rhythm'
p2552
ssS'0mwPE0lPOgnWf2bo14xedJ'
p2553
(dp2554
g3
S'Juanes'
p2555
sg5
I25
sg6
S'https://open.spotify.com/track/0mwPE0lPOgnWf2bo14xedJ'
p2556
sg8
S'Fuego'
p2557
ssS'5uCax9HTNlzGybIStD3vDh'
p2558
(dp2559
g3
S'James Arthur'
p2560
sg5
I17
sg6
S'https://open.spotify.com/track/5uCax9HTNlzGybIStD3vDh'
p2561
sg8
S"Say You Won't Let Go"
p2562
ssS'7qiZfU4dY1lWllzX7mPBI3'
p2563
(dp2564
g3
S'Ed Sheeran'
p2565
sg5
I40
sg6
S'https://open.spotify.com/track/7qiZfU4dY1lWllzX7mPBI3'
p2566
sg8
S'Shape of You'
p2567
ssS'0wfbD5rAksdXUzRvMfM3x5'
p2568
(dp2569
g3
S'The Chainsmokers'
p2570
sg5
I5
sg6
S'https://open.spotify.com/track/0wfbD5rAksdXUzRvMfM3x5'
p2571
sg8
S'The One'
p2572
ssS'1vjtDYDwGKKncp0XAdDphk'
p2573
(dp2574
g3
S'Cartel De Santa'
p2575
sg5
I2
sg6
S'https://open.spotify.com/track/1vjtDYDwGKKncp0XAdDphk'
p2576
sg8
S'Clika Nostra'
p2577
ssS'2jVJYU4X3aD8hlTco3MlsN'
p2578
(dp2579
g3
S'Brytiago'
p2580
sg5
I5
sg6
S'https://open.spotify.com/track/2jVJYU4X3aD8hlTco3MlsN'
p2581
sg8
S'Beb\xc3\xa9 - Remix'
p2582
ssS'1F2HXIJrE2Xn81OzT2zZvW'
p2583
(dp2584
g3
S'French Montana'
p2585
sg5
I5
sg6
S'https://open.spotify.com/track/1F2HXIJrE2Xn81OzT2zZvW'
p2586
sg8
S'Unforgettable'
p2587
ssS'6QgjcU0zLnzq5OrUoSZ3OK'
p2588
(dp2589
g3
S'Portugal. The Man'
p2590
sg5
I1
sg6
S'https://open.spotify.com/track/6QgjcU0zLnzq5OrUoSZ3OK'
p2591
sg8
S'Feel It Still'
p2592
ssS'7jltqRIyxLXBDNZ1QlmnBp'
p2593
(dp2594
g3
S'Ryan Gosling'
p2595
sg5
I1
sg6
S'https://open.spotify.com/track/7jltqRIyxLXBDNZ1QlmnBp'
p2596
sg8
S'City Of Stars - From La La Land Soundtrack/Pier'
p2597
ssS'78rIJddV4X0HkNAInEcYde'
p2598
(dp2599
g3
S'Starley'
p2600
sg5
I21
sg6
S'https://open.spotify.com/track/78rIJddV4X0HkNAInEcYde'
p2601
sg8
S'Call On Me - Ryan Riback Extended Remix'
p2602
ssS'0L7loeTIg6akW84aEQZpCT'
p2603
(dp2604
g3
S'Major Lazer'
p2605
sg5
I17
sg6
S'https://open.spotify.com/track/0L7loeTIg6akW84aEQZpCT'
p2606
sg8
S'Light It Up (feat. Nyla & Fuse ODG) - Remix'
p2607
ssS'0VjbN2rfs40mHQ5mZN9UCE'
p2608
(dp2609
g3
S'Paulina Rubio'
p2610
sg5
I1
sg6
S'https://open.spotify.com/track/0VjbN2rfs40mHQ5mZN9UCE'
p2611
sg8
S'Me Quema'
p2612
ssS'6DUdDIRgLqCGq1DwkNWQTN'
p2613
(dp2614
g3
S'Maluma'
p2615
sg5
I42
sg6
S'https://open.spotify.com/track/6DUdDIRgLqCGq1DwkNWQTN'
p2616
sg8
S'Borro Cassette'
p2617
ssS'167NczpNbRF7oWakJaY3Hh'
p2618
(dp2619
g3
S'Niall Horan'
p2620
sg5
I18
sg6
S'https://open.spotify.com/track/167NczpNbRF7oWakJaY3Hh'
p2621
sg8
S'Slow Hands'
p2622
ssS'1LszjjoVwDDZcWUQbzeDLG'
p2623
(dp2624
g3
S'Yandel'
p2625
sg5
I5
sg6
S'https://open.spotify.com/track/1LszjjoVwDDZcWUQbzeDLG'
p2626
sg8
S'Expl\xc3\xadcale'
p2627
ssS'5mey7CLLuFToM2P68Qu1gF'
p2628
(dp2629
g3
S'Chino & Nacho'
p2630
sg5
I42
sg6
S'https://open.spotify.com/track/5mey7CLLuFToM2P68Qu1gF'
p2631
sg8
S'Andas En Mi Cabeza'
p2632
ssS'3Pl8hFbxhNvvYDsMTawmVL'
p2633
(dp2634
g3
S'Juli\xc3\xb3n \xc3\x81lvarez y su Norte\xc3\xb1o Banda'
p2635
sg5
I1
sg6
S'https://open.spotify.com/track/3Pl8hFbxhNvvYDsMTawmVL'
p2636
sg8
S'Afuera Est\xc3\xa1 Lloviendo'
p2637
ssS'32lm3769IRfcnrQV11LO4E'
p2638
(dp2639
g3
S'Enrique Iglesias'
p2640
sg5
I17
sg6
S'https://open.spotify.com/track/32lm3769IRfcnrQV11LO4E'
p2641
sg8
S'Bailando - Spanish Version'
p2642
ssS'3xrpI0GqWNMjMDOdXUOnK3'
p2643
(dp2644
g3
S'Ha*Ash'
p2645
sg5
I1
sg6
S'https://open.spotify.com/track/3xrpI0GqWNMjMDOdXUOnK3'
p2646
sg8
S'Lo Aprend\xc3\xad de Ti - HA-ASH Primera Fila - Hecho Realidad [En Vivo]'
p2647
ssS'7yHEDfrJNd0zWOfXwydNH0'
p2648
(dp2649
g3
S'Ariana Grande'
p2650
sg5
I7
sg6
S'https://open.spotify.com/track/7yHEDfrJNd0zWOfXwydNH0'
p2651
sg8
S'Into You'
p2652
ssS'0LtVx5vsq9nfpGsWgjUin6'
p2653
(dp2654
g3
S'Ryan Gosling'
p2655
sg5
I6
sg6
S'https://open.spotify.com/track/0LtVx5vsq9nfpGsWgjUin6'
p2656
sg8
S'City Of Stars - From La La Land Soundtrack'
p2657
ssS'6vVlJvDUGiF2w6XxJtDZUC'
p2658
(dp2659
g3
S'Juli\xc3\xb3n \xc3\x81lvarez y su Norte\xc3\xb1o Banda'
p2660
sg5
I33
sg6
S'https://open.spotify.com/track/6vVlJvDUGiF2w6XxJtDZUC'
p2661
sg8
S'Afuera Est\xc3\xa1 Lloviendo'
p2662
ssS'2DWzn0kVcV9iKkiiee4rRE'
p2663
(dp2664
g3
S'Zo\xc3\xa9'
p2665
sg5
I39
sg6
S'https://open.spotify.com/track/2DWzn0kVcV9iKkiiee4rRE'
p2666
sg8
S'Labios Rotos'
p2667
ssS'11KJSRSgaDxqydKYiD2Jew'
p2668
(dp2669
g3
S'Drake'
p2670
sg5
I3
sg6
S'https://open.spotify.com/track/11KJSRSgaDxqydKYiD2Jew'
p2671
sg8
S'Too Good'
p2672
ssS'3zoYkqS4y2BsGVShPL2nTE'
p2673
(dp2674
g3
S'CNCO'
p2675
sg5
I8
sg6
S'https://open.spotify.com/track/3zoYkqS4y2BsGVShPL2nTE'
p2676
sg8
S'Reggaet\xc3\xb3n Lento (Remix) [CNCO & Little Mix]'
p2677
ssS'2xt2piJx6jlFkjS77YiqpL'
p2678
(dp2679
g3
S'Audioslave'
p2680
sg5
I1
sg6
S'https://open.spotify.com/track/2xt2piJx6jlFkjS77YiqpL'
p2681
sg8
S'Like a Stone'
p2682
ssS'1yNyoWWWikbLhwIGWjZuDW'
p2683
(dp2684
g3
S'The Vamps'
p2685
sg5
I7
sg6
S'https://open.spotify.com/track/1yNyoWWWikbLhwIGWjZuDW'
p2686
sg8
S'All Night'
p2687
ssS'5xMzazov0IHYllrc8U2K6F'
p2688
(dp2689
g3
S'Jennifer Lopez'
p2690
sg5
I12
sg6
S'https://open.spotify.com/track/5xMzazov0IHYllrc8U2K6F'
p2691
sg8
S'Ni T\xc3\xba Ni Yo'
p2692
ssS'3Dwq1oiOFys6Sxr5SslmXw'
p2693
(dp2694
g3
S'Harry Styles'
p2695
sg5
I1
sg6
S'https://open.spotify.com/track/3Dwq1oiOFys6Sxr5SslmXw'
p2696
sg8
S'Carolina'
p2697
ssS'2z0EshEO4XptiepEb9j3Og'
p2698
(dp2699
g3
S'Morat'
p2700
sg5
I42
sg6
S'https://open.spotify.com/track/2z0EshEO4XptiepEb9j3Og'
p2701
sg8
S'C\xc3\xb3mo Te Atreves'
p2702
ssS'4vb4mFvYsr2h6enhjJsq9Y'
p2703
(dp2704
g3
S'Adele'
p2705
sg5
I3
sg6
S'https://open.spotify.com/track/4vb4mFvYsr2h6enhjJsq9Y'
p2706
sg8
S'Water Under the Bridge'
p2707
ssS'2kVHAQKVtczchKctctzbtK'
p2708
(dp2709
g3
S'Katy Perry'
p2710
sg5
I19
sg6
S'https://open.spotify.com/track/2kVHAQKVtczchKctctzbtK'
p2711
sg8
S'Swish Swish'
p2712
ssS'049wfFS3kAsdmGOH8ktYJ3'
p2713
(dp2714
g3
S'Ariel Camacho y Los Plebes Del Rancho'
p2715
sg5
I2
sg6
S'https://open.spotify.com/track/049wfFS3kAsdmGOH8ktYJ3'
p2716
sg8
S'Hablemos'
p2717
ssS'4tCtwWceOPWzenK2HAIJSb'
p2718
(dp2719
g3
S'Fifth Harmony'
p2720
sg5
I10
sg6
S'https://open.spotify.com/track/4tCtwWceOPWzenK2HAIJSb'
p2721
sg8
S'Work from Home'
p2722
ssS'3hB5DgAiMAQ4DzYbsMq1IT'
p2723
(dp2724
g3
S'Justin Bieber'
p2725
sg5
I28
sg6
S'https://open.spotify.com/track/3hB5DgAiMAQ4DzYbsMq1IT'
p2726
sg8
S'Love Yourself'
p2727
ssS'6XOYVSmNDjKUNMXooU4s4z'
p2728
(dp2729
g3
S'OneRepublic'
p2730
sg5
I1
sg6
S'https://open.spotify.com/track/6XOYVSmNDjKUNMXooU4s4z'
p2731
sg8
S'No Vacancy'
p2732
ssS'7hydwXc3IVJIItIif6ZuLH'
p2733
(dp2734
g3
S'Ricardo Arjona'
p2735
sg5
I1
sg6
S'https://open.spotify.com/track/7hydwXc3IVJIItIif6ZuLH'
p2736
sg8
S'Ella'
p2737
ssS'2yS8aYWXEWJ1NlZ7VPDroT'
p2738
(dp2739
g3
S'Banda Sinaloense MS de Sergio Liz\xc3\xa1rraga'
p2740
sg5
I41
sg6
S'https://open.spotify.com/track/2yS8aYWXEWJ1NlZ7VPDroT'
p2741
sg8
S'Me Vas a Extran\xcc\x83ar'
p2742
ssS'22mek4IiqubGD9ctzxc69s'
p2743
(dp2744
g3
S'Calvin Harris'
p2745
sg5
I2
sg6
S'https://open.spotify.com/track/22mek4IiqubGD9ctzxc69s'
p2746
sg8
S'How Deep Is Your Love'
p2747
ssS'1lItf5ZXJc1by9SbPeljFd'
p2748
(dp2749
g3
S'Zay Hilfigerrr'
p2750
sg5
I1
sg6
S'https://open.spotify.com/track/1lItf5ZXJc1by9SbPeljFd'
p2751
sg8
S'Juju On That Beat (TZ Anthem)'
p2752
ss.