(dp0
S'0mel2N9Ws9r4yLQn5QE21Y'
p1
(dp2
S'artistName'
p3
S'Sam Smith'
p4
sS'weeksOnChart'
p5
I5
sS'track_href'
p6
S'https://open.spotify.com/track/0mel2N9Ws9r4yLQn5QE21Y'
p7
sS'songName'
p8
S'Too Good At Goodbyes'
p9
ssS'728zbo72kOoYdGR3AhNsyF'
p10
(dp11
g3
S'The xx'
p12
sg5
I1
sg6
S'https://open.spotify.com/track/728zbo72kOoYdGR3AhNsyF'
p13
sg8
S'Say Something Loving'
p14
ssS'3sJHkcxojoJD2Ytbo1yLLF'
p15
(dp16
g3
S'Moon Taxi'
p17
sg5
I2
sg6
S'https://open.spotify.com/track/3sJHkcxojoJD2Ytbo1yLLF'
p18
sg8
S'Two High'
p19
ssS'0jdny0dhgjUwoIp5GkqEaA'
p20
(dp21
g3
S'Kesha'
p22
sg5
I9
sg6
S'https://open.spotify.com/track/0jdny0dhgjUwoIp5GkqEaA'
p23
sg8
S'Praying'
p24
ssS'60a0Rd6pjrkxjPbaKzXjfq'
p25
(dp26
g3
S'Linkin Park'
p27
sg5
I3
sg6
S'https://open.spotify.com/track/60a0Rd6pjrkxjPbaKzXjfq'
p28
sg8
S'In The End'
p29
ssS'74fpNVAJrKGQuqHETi4WSt'
p30
(dp31
g3
S'Lorde'
p32
sg5
I1
sg6
S'https://open.spotify.com/track/74fpNVAJrKGQuqHETi4WSt'
p33
sg8
S'Tennis Court'
p34
ssS'0prNGof3XqfTvNDxHonvdK'
p35
(dp36
g3
S'Alessia Cara'
p37
sg5
I38
sg6
S'https://open.spotify.com/track/0prNGof3XqfTvNDxHonvdK'
p38
sg8
S'Scars To Your Beautiful'
p39
ssS'6HUnnBwYZqcED1eQztxMBN'
p40
(dp41
g3
S'Martin Jensen'
p42
sg5
I38
sg6
S'https://open.spotify.com/track/6HUnnBwYZqcED1eQztxMBN'
p43
sg8
S'Solo Dance'
p44
ssS'0RYXEibxMami3QuT8kn4Iz'
p45
(dp46
g3
S'Macklemore'
p47
sg5
I5
sg6
S'https://open.spotify.com/track/0RYXEibxMami3QuT8kn4Iz'
p48
sg8
S'Marmalade (feat. Lil Yachty)'
p49
ssS'0F1Rc18rZcJOALxIIQPTYd'
p50
(dp51
g3
S'Maty Noyes'
p52
sg5
I10
sg6
S'https://open.spotify.com/track/0F1Rc18rZcJOALxIIQPTYd'
p53
sg8
S'in my miNd'
p54
ssS'3QWjljChcOMkRDYSzF33Qr'
p55
(dp56
g3
S'Kiiara'
p57
sg5
I6
sg6
S'https://open.spotify.com/track/3QWjljChcOMkRDYSzF33Qr'
p58
sg8
S'Whippin (feat. Felix Snow)'
p59
ssS'0lLdorYw7lVrJydTINhWdI'
p60
(dp61
g3
S'Michael Bubl\xc3\xa9'
p62
sg5
I1
sg6
S'https://open.spotify.com/track/0lLdorYw7lVrJydTINhWdI'
p63
sg8
S"It's Beginning To Look A Lot Like Christmas"
p64
ssS'1OAh8uOEOvTDqkKFsKksCi'
p65
(dp66
g3
S'DJ Khaled'
p67
sg5
I17
sg6
S'https://open.spotify.com/track/1OAh8uOEOvTDqkKFsKksCi'
p68
sg8
S'Wild Thoughts'
p69
ssS'2aksifNn5ph8igDOkPBA02'
p70
(dp71
g3
S'Rihanna'
p72
sg5
I40
sg6
S'https://open.spotify.com/track/2aksifNn5ph8igDOkPBA02'
p73
sg8
S'Love On The Brain'
p74
ssS'0IM7W9Uj3tDepqO2Ey042W'
p75
(dp76
g3
S'Six60'
p77
sg5
I1
sg6
S'https://open.spotify.com/track/0IM7W9Uj3tDepqO2Ey042W'
p78
sg8
S'Special'
p79
ssS'4b4KcovePX8Ke2cLIQTLM0'
p80
(dp81
g3
S'The Vamps'
p82
sg5
I14
sg6
S'https://open.spotify.com/track/4b4KcovePX8Ke2cLIQTLM0'
p83
sg8
S'All Night'
p84
ssS'7wGoVu4Dady5GV0Sv4UIsx'
p85
(dp86
g3
S'Post Malone'
p87
sg5
I1
sg6
S'https://open.spotify.com/track/7wGoVu4Dady5GV0Sv4UIsx'
p88
sg8
S'rockstar'
p89
ssS'7KcGEssn7BnJdTgildK5y0'
p90
(dp91
g3
S'Nicki Minaj'
p92
sg5
I3
sg6
S'https://open.spotify.com/track/7KcGEssn7BnJdTgildK5y0'
p93
sg8
S'No Frauds'
p94
ssS'1CnPYaKxTVb4LWOtiGOm0m'
p95
(dp96
g3
S'Jon Bellion'
p97
sg5
I40
sg6
S'https://open.spotify.com/track/1CnPYaKxTVb4LWOtiGOm0m'
p98
sg8
S'All Time Low'
p99
ssS'4OZEu0Vwq0RB2LAq14v99n'
p100
(dp101
g3
S'DJ Snake'
p102
sg5
I7
sg6
S'https://open.spotify.com/track/4OZEu0Vwq0RB2LAq14v99n'
p103
sg8
S'Middle'
p104
ssS'5Ber68jZ7ytegr2UISEdb7'
p105
(dp106
g3
S'Michael Bubl\xc3\xa9'
p107
sg5
I1
sg6
S'https://open.spotify.com/track/5Ber68jZ7ytegr2UISEdb7'
p108
sg8
S'Santa Claus Is Coming To Town'
p109
ssS'1KcDFbTdaKLqw06DBkrslH'
p110
(dp111
g3
S'Maimoa'
p112
sg5
I3
sg6
S'https://open.spotify.com/track/1KcDFbTdaKLqw06DBkrslH'
p113
sg8
S'Wairua'
p114
ssS'6Pw3Gvw4wNMZfTYZa6IQal'
p115
(dp116
g3
S'Bebe Rexha'
p117
sg5
I2
sg6
S'https://open.spotify.com/track/6Pw3Gvw4wNMZfTYZa6IQal'
p118
sg8
S'The Way I Are (Dance With Somebody) [feat. Lil Wayne]'
p119
ssS'7G7tgVYORlDuVprcYHuFJh'
p120
(dp121
g3
S'Crowded House'
p122
sg5
I1
sg6
S'https://open.spotify.com/track/7G7tgVYORlDuVprcYHuFJh'
p123
sg8
S"Don't Dream It's Over"
p124
ssS'5JwLhFNrXw49pn3HQqu02G'
p125
(dp126
g3
S'Lana Del Rey'
p127
sg5
I1
sg6
S'https://open.spotify.com/track/5JwLhFNrXw49pn3HQqu02G'
p128
sg8
S'Summer Bummer (feat. A$AP Rocky & Playboi Carti)'
p129
ssS'6kl1qtQXQsFiIWRBK24Cfp'
p130
(dp131
g3
S'A$AP Mob'
p132
sg5
I1
sg6
S'https://open.spotify.com/track/6kl1qtQXQsFiIWRBK24Cfp'
p133
sg8
S'RAF'
p134
ssS'2FRnf9qhLbvw8fu4IBXx78'
p135
(dp136
g3
S'Wham!'
p137
sg5
I1
sg6
S'https://open.spotify.com/track/2FRnf9qhLbvw8fu4IBXx78'
p138
sg8
S'Last Christmas'
p139
ssS'2bJvI42r8EF3wxjOuDav4r'
p140
(dp141
g3
S'Pitbull'
p142
sg5
I1
sg6
S'https://open.spotify.com/track/2bJvI42r8EF3wxjOuDav4r'
p143
sg8
S'Time of Our Lives'
p144
ssS'7tr2za8SQg2CI8EDgrdtNl'
p145
(dp146
g3
S'Calvin Harris'
p147
sg5
I29
sg6
S'https://open.spotify.com/track/7tr2za8SQg2CI8EDgrdtNl'
p148
sg8
S'Slide'
p149
ssS'0Ie5uiv54KgCr7P4sYDTHl'
p150
(dp151
g3
S'Idina Menzel'
p152
sg5
I1
sg6
S'https://open.spotify.com/track/0Ie5uiv54KgCr7P4sYDTHl'
p153
sg8
S"Baby It's Cold Outside (duet with Michael Bubl\xc3\xa9)"
p154
ssS'1vxw6aYJls2oq3gW0DujAo'
p155
(dp156
g3
S'Gnarls Barkley'
p157
sg5
I2
sg6
S'https://open.spotify.com/track/1vxw6aYJls2oq3gW0DujAo'
p158
sg8
S'Crazy'
p159
ssS'06FCvd7rrRcF3DdvWH5Isp'
p160
(dp161
g3
S'Kendrick Lamar'
p162
sg5
I5
sg6
S'https://open.spotify.com/track/06FCvd7rrRcF3DdvWH5Isp'
p163
sg8
S'LUST.'
p164
ssS'4pLwZjInHj3SimIyN9SnOz'
p165
(dp166
g3
S'Ariana Grande'
p167
sg5
I40
sg6
S'https://open.spotify.com/track/4pLwZjInHj3SimIyN9SnOz'
p168
sg8
S'Side To Side'
p169
ssS'6C7RJEIUDqKkJRZVWdkfkH'
p170
(dp171
g3
S'Kanye West'
p172
sg5
I1
sg6
S'https://open.spotify.com/track/6C7RJEIUDqKkJRZVWdkfkH'
p173
sg8
S'Stronger'
p174
ssS'3E2Zh20GDCR9B1EYjfXWyv'
p175
(dp176
g3
S'AJR'
p177
sg5
I20
sg6
S'https://open.spotify.com/track/3E2Zh20GDCR9B1EYjfXWyv'
p178
sg8
S'Weak'
p179
ssS'2Gl0FzuLxflY6nPifJp5Dr'
p180
(dp181
g3
S'Kygo'
p182
sg5
I23
sg6
S'https://open.spotify.com/track/2Gl0FzuLxflY6nPifJp5Dr'
p183
sg8
S'First Time'
p184
ssS'0xl1w2q4VLojeXp4JfazPL'
p185
(dp186
g3
S'Drake'
p187
sg5
I3
sg6
S'https://open.spotify.com/track/0xl1w2q4VLojeXp4JfazPL'
p188
sg8
S'Sacrifices'
p189
ssS'4BHzQ9C00ceJxfG16AlNWb'
p190
(dp191
g3
S'Adele'
p192
sg5
I32
sg6
S'https://open.spotify.com/track/4BHzQ9C00ceJxfG16AlNWb'
p193
sg8
S'Send My Love (To Your New Lover)'
p194
ssS'4Km5HrUvYTaSUfiSGPJeQR'
p195
(dp196
g3
S'Migos'
p197
sg5
I42
sg6
S'https://open.spotify.com/track/4Km5HrUvYTaSUfiSGPJeQR'
p198
sg8
S'Bad and Boujee (feat. Lil Uzi Vert)'
p199
ssS'3WrG9BpOPQWUus3FjA1Tny'
p200
(dp201
g3
S"Destiny's Child"
p202
sg5
I1
sg6
S'https://open.spotify.com/track/3WrG9BpOPQWUus3FjA1Tny'
p203
sg8
S'8 Days of Christmas - Live'
p204
ssS'2RttW7RAu5nOAfq6YFvApB'
p205
(dp206
g3
S'Ed Sheeran'
p207
sg5
I32
sg6
S'https://open.spotify.com/track/2RttW7RAu5nOAfq6YFvApB'
p208
sg8
S'Happier'
p209
ssS'5LYQSNHZxEA880URXFHg6h'
p210
(dp211
g3
S'Lana Del Rey'
p212
sg5
I2
sg6
S'https://open.spotify.com/track/5LYQSNHZxEA880URXFHg6h'
p213
sg8
S'Lust for Life (with The Weeknd)'
p214
ssS'3EmmCZoqpWOTY1g2GBwJoR'
p215
(dp216
g3
S'Steve Aoki'
p217
sg5
I15
sg6
S'https://open.spotify.com/track/3EmmCZoqpWOTY1g2GBwJoR'
p218
sg8
S'Just Hold On'
p219
ssS'3YQUpKTmtgPJf8u6ooi9KA'
p220
(dp221
g3
S'Elton John'
p222
sg5
I1
sg6
S'https://open.spotify.com/track/3YQUpKTmtgPJf8u6ooi9KA'
p223
sg8
S'Step Into Christmas'
p224
ssS'6u0oHknFYrnUd42A6rvFly'
p225
(dp226
g3
S'Ed Sheeran'
p227
sg5
I1
sg6
S'https://open.spotify.com/track/6u0oHknFYrnUd42A6rvFly'
p228
sg8
S'Sing'
p229
ssS'0gbBzIqrECJOEPvQJIBFs5'
p230
(dp231
g3
S'Lorde'
p232
sg5
I31
sg6
S'https://open.spotify.com/track/0gbBzIqrECJOEPvQJIBFs5'
p233
sg8
S'Green Light'
p234
ssS'20dP2DaMHIAmwWAbp7peSr'
p235
(dp236
g3
S'Young Thug'
p237
sg5
I11
sg6
S'https://open.spotify.com/track/20dP2DaMHIAmwWAbp7peSr'
p238
sg8
S'pick up the phone'
p239
ssS'5kRPPEWFJIMox5qIkQkiz5'
p240
(dp241
g3
S'Harry Styles'
p242
sg5
I9
sg6
S'https://open.spotify.com/track/5kRPPEWFJIMox5qIkQkiz5'
p243
sg8
S'Sweet Creature'
p244
ssS'5tz69p7tJuGPeMGwNTxYuV'
p245
(dp246
g3
S'Logic'
p247
sg5
I24
sg6
S'https://open.spotify.com/track/5tz69p7tJuGPeMGwNTxYuV'
p248
sg8
S'1-800-273-8255'
p249
ssS'5dNfHmqgr128gMY2tc5CeJ'
p250
(dp251
g3
S'R. Kelly'
p252
sg5
I42
sg6
S'https://open.spotify.com/track/5dNfHmqgr128gMY2tc5CeJ'
p253
sg8
S'Ignition - Remix'
p254
ssS'4xlrALxuaCf9yZBHJeTSG6'
p255
(dp256
g3
S'Jonas Blue'
p257
sg5
I8
sg6
S'https://open.spotify.com/track/4xlrALxuaCf9yZBHJeTSG6'
p258
sg8
S'Mama'
p259
ssS'6Nle9hKrkL1wQpwNfEkxjh'
p260
(dp261
g3
S'Frank Ocean'
p262
sg5
I3
sg6
S'https://open.spotify.com/track/6Nle9hKrkL1wQpwNfEkxjh'
p263
sg8
S'Chanel'
p264
ssS'1IZwCzAmaFmmdJj0cmhaax'
p265
(dp266
g3
S'Jemaine Clement'
p267
sg5
I1
sg6
S'https://open.spotify.com/track/1IZwCzAmaFmmdJj0cmhaax'
p268
sg8
S'Shiny'
p269
ssS'2oUuLLKS8WbF7ELJcwbqms'
p270
(dp271
g3
S'XXXTENTACION'
p272
sg5
I2
sg6
S'https://open.spotify.com/track/2oUuLLKS8WbF7ELJcwbqms'
p273
sg8
S'Look at Me!'
p274
ssS'3pzjHKrQSvXGHQ98dx18HI'
p275
(dp276
g3
S'Justin Bieber'
p277
sg5
I18
sg6
S'https://open.spotify.com/track/3pzjHKrQSvXGHQ98dx18HI'
p278
sg8
S'What Do You Mean?'
p279
ssS'000xQL6tZNLJzIrtIgxqSl'
p280
(dp281
g3
S'ZAYN'
p282
sg5
I29
sg6
S'https://open.spotify.com/track/000xQL6tZNLJzIrtIgxqSl'
p283
sg8
S'Still Got Time'
p284
ssS'2FBUoWkIuQXwayw2RNo5l6'
p285
(dp286
g3
S'Drake'
p287
sg5
I8
sg6
S'https://open.spotify.com/track/2FBUoWkIuQXwayw2RNo5l6'
p288
sg8
S'Hotline Bling'
p289
ssS'1D3ODoXHBLpdxolZRHWV1j'
p290
(dp291
g3
S'Jonas Blue'
p292
sg5
I11
sg6
S'https://open.spotify.com/track/1D3ODoXHBLpdxolZRHWV1j'
p293
sg8
S'By Your Side'
p294
ssS'1CKd1PnqfYx0H12V9MSaIY'
p295
(dp296
g3
S'Zedd'
p297
sg5
I13
sg6
S'https://open.spotify.com/track/1CKd1PnqfYx0H12V9MSaIY'
p298
sg8
S'Get Low (with Liam Payne)'
p299
ssS'0VJYhKhrHgJ7fgjGaC2k07'
p300
(dp301
g3
S'XXXTENTACION'
p302
sg5
I1
sg6
S'https://open.spotify.com/track/0VJYhKhrHgJ7fgjGaC2k07'
p303
sg8
S'The Explanation'
p304
ssS'042x9bsUBWW2fJgJ6fUh61'
p305
(dp306
g3
S'DVBBS'
p307
sg5
I6
sg6
S'https://open.spotify.com/track/042x9bsUBWW2fJgJ6fUh61'
p308
sg8
S'Not Going Home'
p309
ssS'5Z01UMMf7V1o0MzF86s6WJ'
p310
(dp311
g3
S'Eminem'
p312
sg5
I42
sg6
S'https://open.spotify.com/track/5Z01UMMf7V1o0MzF86s6WJ'
p313
sg8
S'Lose Yourself - Soundtrack Version'
p314
ssS'5CtI0qwDJkDQGwXD1H1cLb'
p315
(dp316
g3
S'Luis Fonsi'
p317
sg5
I25
sg6
S'https://open.spotify.com/track/5CtI0qwDJkDQGwXD1H1cLb'
p318
sg8
S'Despacito - Remix'
p319
ssS'7m9OqQk4RVRkw9JJdeAw96'
p320
(dp321
g3
S'XXXTENTACION'
p322
sg5
I7
sg6
S'https://open.spotify.com/track/7m9OqQk4RVRkw9JJdeAw96'
p323
sg8
S'Jocelyn Flores'
p324
ssS'5o4yGlG0PfeVUa6ClIyOxq'
p325
(dp326
g3
S'Charli XCX'
p327
sg5
I8
sg6
S'https://open.spotify.com/track/5o4yGlG0PfeVUa6ClIyOxq'
p328
sg8
S'Boys'
p329
ssS'1N90cV79gbBgO0bOs74Y0t'
p330
(dp331
g3
S'Calvin Harris'
p332
sg5
I4
sg6
S'https://open.spotify.com/track/1N90cV79gbBgO0bOs74Y0t'
p333
sg8
S'Heatstroke'
p334
ssS'53968oKecrFxkErocab2Al'
p335
(dp336
g3
S"Guns N' Roses"
p337
sg5
I1
sg6
S'https://open.spotify.com/track/53968oKecrFxkErocab2Al'
p338
sg8
S'November Rain'
p339
ssS'0NyOeqzqjVM9j7IuWp2oJ6'
p340
(dp341
g3
S'Gryffin'
p342
sg5
I13
sg6
S'https://open.spotify.com/track/0NyOeqzqjVM9j7IuWp2oJ6'
p343
sg8
S'Feel Good (feat. Daya)'
p344
ssS'0Nhu3zSYbEz32IYiobV75e'
p345
(dp346
g3
S'Halsey'
p347
sg5
I10
sg6
S'https://open.spotify.com/track/0Nhu3zSYbEz32IYiobV75e'
p348
sg8
S'Now Or Never'
p349
ssS'7gHs73wELdeycvS48JfIos'
p350
(dp351
g3
S'Alan Walker'
p352
sg5
I13
sg6
S'https://open.spotify.com/track/7gHs73wELdeycvS48JfIos'
p353
sg8
S'Faded'
p354
ssS'3zJw3rugfpVrmBeDDnUYzy'
p355
(dp356
g3
S'John Lennon'
p357
sg5
I1
sg6
S'https://open.spotify.com/track/3zJw3rugfpVrmBeDDnUYzy'
p358
sg8
S'Happy Xmas (War Is Over) - 2010 Digital Remaster'
p359
ssS'1a5Yu5L18qNxVhXx38njON'
p360
(dp361
g3
S'Alok'
p362
sg5
I7
sg6
S'https://open.spotify.com/track/1a5Yu5L18qNxVhXx38njON'
p363
sg8
S'Hear Me Now'
p364
ssS'1Eck97uRMlprKOOJN9oO1E'
p365
(dp366
g3
S'G-Eazy'
p367
sg5
I20
sg6
S'https://open.spotify.com/track/1Eck97uRMlprKOOJN9oO1E'
p368
sg8
S'Good Life (with G-Eazy & Kehlani)'
p369
ssS'6U4VqEHy4n5VeiH4pQPL24'
p370
(dp371
g3
S'Dwayne Johnson'
p372
sg5
I21
sg6
S'https://open.spotify.com/track/6U4VqEHy4n5VeiH4pQPL24'
p373
sg8
S"You're Welcome"
p374
ssS'2ekn2ttSfGqwhhate0LSR0'
p375
(dp376
g3
S'Dua Lipa'
p377
sg5
I13
sg6
S'https://open.spotify.com/track/2ekn2ttSfGqwhhate0LSR0'
p378
sg8
S'New Rules'
p379
ssS'5humEOJehpAwMJEJmb0JJ2'
p380
(dp381
g3
S'Nat King Cole'
p382
sg5
I1
sg6
S'https://open.spotify.com/track/5humEOJehpAwMJEJmb0JJ2'
p383
sg8
S'The Christmas Song (Merry Christmas To You)'
p384
ssS'2dfqS3MRtbLZSZA1IL8xY5'
p385
(dp386
g3
S'Drake'
p387
sg5
I2
sg6
S'https://open.spotify.com/track/2dfqS3MRtbLZSZA1IL8xY5'
p388
sg8
S'Skepta Interlude'
p389
ssS'1sCxVKWImDZSZKvG0U9B23'
p390
(dp391
g3
S'Selena Gomez'
p392
sg5
I20
sg6
S'https://open.spotify.com/track/1sCxVKWImDZSZKvG0U9B23'
p393
sg8
S'Bad Liar'
p394
ssS'6jmngk8Fwup05JZ6kgXEGX'
p395
(dp396
g3
S'Imagine Dragons'
p397
sg5
I1
sg6
S'https://open.spotify.com/track/6jmngk8Fwup05JZ6kgXEGX'
p398
sg8
S'Walking The Wire'
p399
ssS'2nUJvBO87SkxCViQsLc9Zr'
p400
(dp401
g3
S'Big Shaq'
p402
sg5
I1
sg6
S'https://open.spotify.com/track/2nUJvBO87SkxCViQsLc9Zr'
p403
sg8
S"Man's Not Hot"
p404
ssS'2vI6iYiRQMFopeohZ0rlJt'
p405
(dp406
g3
S'Twista'
p407
sg5
I1
sg6
S'https://open.spotify.com/track/2vI6iYiRQMFopeohZ0rlJt'
p408
sg8
S'Next to You'
p409
ssS'2uSLx5uwRIhiA3sJJraNqX'
p410
(dp411
g3
S'Maroon 5'
p412
sg5
I1
sg6
S'https://open.spotify.com/track/2uSLx5uwRIhiA3sJJraNqX'
p413
sg8
S'Help Me Out (with Julia Michaels)'
p414
ssS'0ADG9OgdVTL7fgREP75BrZ'
p415
(dp416
g3
S'Zara Larsson'
p417
sg5
I12
sg6
S'https://open.spotify.com/track/0ADG9OgdVTL7fgREP75BrZ'
p418
sg8
S"Ain't My Fault"
p419
ssS'2zvot9pY2FNl1E94kc4K8M'
p420
(dp421
g3
S'Elton John'
p422
sg5
I13
sg6
S'https://open.spotify.com/track/2zvot9pY2FNl1E94kc4K8M'
p423
sg8
S"Rocket Man (I Think It's Going To Be A Long Long Time)"
p424
ssS'1DRW9bQzt2SE8f7H4KJZyL'
p425
(dp426
g3
S'Miguel'
p427
sg5
I7
sg6
S'https://open.spotify.com/track/1DRW9bQzt2SE8f7H4KJZyL'
p428
sg8
S'Sky Walker'
p429
ssS'26H5lCAcFqSSZHGi5iFm71'
p430
(dp431
g3
S'Bob Dylan'
p432
sg5
I1
sg6
S'https://open.spotify.com/track/26H5lCAcFqSSZHGi5iFm71'
p433
sg8
S'Must Be Santa'
p434
ssS'6s2wpWPFPAgKg2LXxi1Oee'
p435
(dp436
g3
S'Bruce Springsteen'
p437
sg5
I1
sg6
S'https://open.spotify.com/track/6s2wpWPFPAgKg2LXxi1Oee'
p438
sg8
S"Santa Claus Is Comin' to Town - Single Version"
p439
ssS'6O6M7pJLABmfBRoGZMu76Y'
p440
(dp441
g3
S'The Chainsmokers'
p442
sg5
I10
sg6
S'https://open.spotify.com/track/6O6M7pJLABmfBRoGZMu76Y'
p443
sg8
S'Roses'
p444
ssS'1rIKgCH4H52lrvDcz50hS8'
p445
(dp446
g3
S'Zara Larsson'
p447
sg5
I39
sg6
S'https://open.spotify.com/track/1rIKgCH4H52lrvDcz50hS8'
p448
sg8
S'Lush Life'
p449
ssS'76gUmNLXGQVOsGhfcshkFP'
p450
(dp451
g3
S'Drake'
p452
sg5
I3
sg6
S'https://open.spotify.com/track/76gUmNLXGQVOsGhfcshkFP'
p453
sg8
S'Madiba Riddim'
p454
ssS'1wMALZpuqAy7amQsFBWQ8m'
p455
(dp456
g3
S'Adele'
p457
sg5
I1
sg6
S'https://open.spotify.com/track/1wMALZpuqAy7amQsFBWQ8m'
p458
sg8
S'All I Ask'
p459
ssS'7vGuf3Y35N4wmASOKLUVVU'
p460
(dp461
g3
S'Marshmello'
p462
sg5
I9
sg6
S'https://open.spotify.com/track/7vGuf3Y35N4wmASOKLUVVU'
p463
sg8
S'Silence'
p464
ssS'3EfugazgSddQvzZpkof5I4'
p465
(dp466
g3
S'Anne-Marie'
p467
sg5
I8
sg6
S'https://open.spotify.com/track/3EfugazgSddQvzZpkof5I4'
p468
sg8
S'Ciao Adios'
p469
ssS'0xPaZrF25ltzvz1a2Pm5DQ'
p470
(dp471
g3
S'Michael Bubl\xc3\xa9'
p472
sg5
I1
sg6
S'https://open.spotify.com/track/0xPaZrF25ltzvz1a2Pm5DQ'
p473
sg8
S'All I Want For Christmas Is You'
p474
ssS'7iDxZ5Cd0Yg08d4fI5WVtG'
p475
(dp476
g3
S'Calvin Harris'
p477
sg5
I1
sg6
S'https://open.spotify.com/track/7iDxZ5Cd0Yg08d4fI5WVtG'
p478
sg8
S'Skrt On Me'
p479
ssS'7129iqBafaphfc3WPCGC0L'
p480
(dp481
g3
S'Lukas Graham'
p482
sg5
I42
sg6
S'https://open.spotify.com/track/7129iqBafaphfc3WPCGC0L'
p483
sg8
S'7 Years'
p484
ssS'4WjH9Bzt3kx7z8kl0awxh4'
p485
(dp486
g3
S'Major Lazer'
p487
sg5
I32
sg6
S'https://open.spotify.com/track/4WjH9Bzt3kx7z8kl0awxh4'
p488
sg8
S'Lean On (feat. M\xc3\x98 & DJ Snake)'
p489
ssS'3jAoLij05OiNndX2XlSRdS'
p490
(dp491
g3
S'Sticky Fingers'
p492
sg5
I11
sg6
S'https://open.spotify.com/track/3jAoLij05OiNndX2XlSRdS'
p493
sg8
S'How To Fly'
p494
ssS'57p8CBvPOxrvyCbn6ttl5r'
p495
(dp496
g3
S'Skrillex'
p497
sg5
I11
sg6
S'https://open.spotify.com/track/57p8CBvPOxrvyCbn6ttl5r'
p498
sg8
S'Would You Ever'
p499
ssS'0CcQNd8CINkwQfe1RDtGV6'
p500
(dp501
g3
S'Imagine Dragons'
p502
sg5
I33
sg6
S'https://open.spotify.com/track/0CcQNd8CINkwQfe1RDtGV6'
p503
sg8
S'Believer'
p504
ssS'7oolFzHipTMg2nL7shhdz2'
p505
(dp506
g3
S'Ed Sheeran'
p507
sg5
I14
sg6
S'https://open.spotify.com/track/7oolFzHipTMg2nL7shhdz2'
p508
sg8
S'Eraser'
p509
ssS'0HAync7j6BXaO27pumGoff'
p510
(dp511
g3
S'SACHI'
p512
sg5
I12
sg6
S'https://open.spotify.com/track/0HAync7j6BXaO27pumGoff'
p513
sg8
S'Shelter'
p514
ssS'7fURZRPkB2S70sYR1naKTK'
p515
(dp516
g3
S'Soundgarden'
p517
sg5
I1
sg6
S'https://open.spotify.com/track/7fURZRPkB2S70sYR1naKTK'
p518
sg8
S'Black Hole Sun'
p519
ssS'3B7udSGy2PfgoCniMSb523'
p520
(dp521
g3
S'Ed Sheeran'
p522
sg5
I20
sg6
S'https://open.spotify.com/track/3B7udSGy2PfgoCniMSb523'
p523
sg8
S'I See Fire'
p524
ssS'4kflIGfjdZJW4ot2ioixTB'
p525
(dp526
g3
S'Adele'
p527
sg5
I5
sg6
S'https://open.spotify.com/track/4kflIGfjdZJW4ot2ioixTB'
p528
sg8
S'Someone Like You'
p529
ssS'3NdDpSvN911VPGivFlV5d0'
p530
(dp531
g3
S'ZAYN'
p532
sg5
I42
sg6
S'https://open.spotify.com/track/3NdDpSvN911VPGivFlV5d0'
p533
sg8
S'I Don\xe2\x80\x99t Wanna Live Forever (Fifty Shades Darker) - From Fifty Shades Darker (Original Motion Picture Soundtrack)'
p534
ssS'37F0uwRSrdzkBiuj0D5UHI'
p535
(dp536
g3
S'The Weeknd'
p537
sg5
I2
sg6
S'https://open.spotify.com/track/37F0uwRSrdzkBiuj0D5UHI'
p538
sg8
S'Reminder'
p539
ssS'1wC93sZRGcTgKLN2UWRSwW'
p540
(dp541
g3
S'Lorde'
p542
sg5
I17
sg6
S'https://open.spotify.com/track/1wC93sZRGcTgKLN2UWRSwW'
p543
sg8
S'Perfect Places'
p544
ssS'6wV12xIUb8oFY7lBy4KuQe'
p545
(dp546
g3
S'Aaron Carter'
p547
sg5
I2
sg6
S'https://open.spotify.com/track/6wV12xIUb8oFY7lBy4KuQe'
p548
sg8
S'Sooner Or Later'
p549
ssS'1UZOjK1BwmwWU14Erba9CZ'
p550
(dp551
g3
S'Miley Cyrus'
p552
sg5
I2
sg6
S'https://open.spotify.com/track/1UZOjK1BwmwWU14Erba9CZ'
p553
sg8
S'Malibu'
p554
ssS'48UPSzbZjgc449aqz8bxox'
p555
(dp556
g3
S'Red Hot Chili Peppers'
p557
sg5
I2
sg6
S'https://open.spotify.com/track/48UPSzbZjgc449aqz8bxox'
p558
sg8
S'Californication'
p559
ssS'5v9N8Rx3QsFvr50cxyQcA3'
p560
(dp561
g3
S'Mura Masa'
p562
sg5
I24
sg6
S'https://open.spotify.com/track/5v9N8Rx3QsFvr50cxyQcA3'
p563
sg8
S'Love$ick'
p564
ssS'6yf3MxEOScNBTYCHOAIiNQ'
p565
(dp566
g3
S'Jax Jones'
p567
sg5
I1
sg6
S'https://open.spotify.com/track/6yf3MxEOScNBTYCHOAIiNQ'
p568
sg8
S'Instruction (feat. Demi Lovato & Stefflon Don)'
p569
ssS'3CRDbSIZ4r5MsZ0YwxuEkn'
p570
(dp571
g3
S'Twenty One Pilots'
p572
sg5
I26
sg6
S'https://open.spotify.com/track/3CRDbSIZ4r5MsZ0YwxuEkn'
p573
sg8
S'Stressed Out'
p574
ssS'2TdJsyNijI5jUvMnsjQcb3'
p575
(dp576
g3
S'PON CHO'
p577
sg5
I6
sg6
S'https://open.spotify.com/track/2TdJsyNijI5jUvMnsjQcb3'
p578
sg8
S'Frozen'
p579
ssS'4dVpf9jZjcORqGTLUaeYj9'
p580
(dp581
g3
S'A$AP Ferg'
p582
sg5
I1
sg6
S'https://open.spotify.com/track/4dVpf9jZjcORqGTLUaeYj9'
p583
sg8
S'Plain Jane'
p584
ssS'6mICuAdrwEjh6Y6lroV2Kg'
p585
(dp586
g3
S'Shakira'
p587
sg5
I6
sg6
S'https://open.spotify.com/track/6mICuAdrwEjh6Y6lroV2Kg'
p588
sg8
S'Chantaje'
p589
ssS'6F609ICg9Spjrw1epsAnpa'
p590
(dp591
g3
S'Drake'
p592
sg5
I12
sg6
S'https://open.spotify.com/track/6F609ICg9Spjrw1epsAnpa'
p593
sg8
S'Controlla'
p594
ssS'2pnPe4pJtq7689i5ydzvJJ'
p595
(dp596
g3
S'Chuck Berry'
p597
sg5
I1
sg6
S'https://open.spotify.com/track/2pnPe4pJtq7689i5ydzvJJ'
p598
sg8
S'Run Rudolph Run - Single Version'
p599
ssS'1WC5UN1U79gJlxGLYDGIO7'
p600
(dp601
g3
S'Lorde'
p602
sg5
I2
sg6
S'https://open.spotify.com/track/1WC5UN1U79gJlxGLYDGIO7'
p603
sg8
S'Green Light'
p604
ssS'7MlsupISEKsEsvNcMgc06Y'
p605
(dp606
g3
S"Opetaia Foa'i"
p607
sg5
I11
sg6
S'https://open.spotify.com/track/7MlsupISEKsEsvNcMgc06Y'
p608
sg8
S'We Know The Way - From Vaiana'
p609
ssS'1wLQwg0mloy3yXjL0jPE0N'
p610
(dp611
g3
S'Foo Fighters'
p612
sg5
I1
sg6
S'https://open.spotify.com/track/1wLQwg0mloy3yXjL0jPE0N'
p613
sg8
S'Run'
p614
ssS'3uMB82o0qa7erhiZBW9KQC'
p615
(dp616
g3
S'Stormzy'
p617
sg5
I1
sg6
S'https://open.spotify.com/track/3uMB82o0qa7erhiZBW9KQC'
p618
sg8
S'Big For Your Boots'
p619
ssS'3OoZagIW3YK8vjt0ws6NOI'
p620
(dp621
g3
S'DJ Khaled'
p622
sg5
I4
sg6
S'https://open.spotify.com/track/3OoZagIW3YK8vjt0ws6NOI'
p623
sg8
S'Shining'
p624
ssS'00lNx0OcTJrS3MKHcB80HY'
p625
(dp626
g3
S'Jax Jones'
p627
sg5
I26
sg6
S'https://open.spotify.com/track/00lNx0OcTJrS3MKHcB80HY'
p628
sg8
S"You Don't Know Me - Radio Edit"
p629
ssS'0d28khcov6AiegSCpG5TuT'
p630
(dp631
g3
S'Gorillaz'
p632
sg5
I1
sg6
S'https://open.spotify.com/track/0d28khcov6AiegSCpG5TuT'
p633
sg8
S'Feel Good Inc'
p634
ssS'6t2ubAB4iSYOuIpRAOGd4t'
p635
(dp636
g3
S'Flo Rida'
p637
sg5
I9
sg6
S'https://open.spotify.com/track/6t2ubAB4iSYOuIpRAOGd4t'
p638
sg8
S'Cake'
p639
ssS'4nDfc6F2uVcc6wdG7kBzWO'
p640
(dp641
g3
S'Nick Jonas'
p642
sg5
I3
sg6
S'https://open.spotify.com/track/4nDfc6F2uVcc6wdG7kBzWO'
p643
sg8
S'Bom Bidi Bom - From Fifty Shades Darker (Original Motion Picture Soundtrack)'
p644
ssS'0tICYNayWWhH9GPeFrfjfD'
p645
(dp646
g3
S'Kungs'
p647
sg5
I10
sg6
S'https://open.spotify.com/track/0tICYNayWWhH9GPeFrfjfD'
p648
sg8
S"This Girl (Kungs Vs. Cookin' On 3 Burners) - Kungs Vs. Cookin' On 3 Burners"
p649
ssS'2bWrml86uwGVvznX8KKtwx'
p650
(dp651
g3
S'Illy'
p652
sg5
I6
sg6
S'https://open.spotify.com/track/2bWrml86uwGVvznX8KKtwx'
p653
sg8
S'Catch 22 (feat. Anne-Marie)'
p654
ssS'0fg8CqpjdojMyXLNzM2PaJ'
p655
(dp656
g3
S'Major Lazer'
p657
sg5
I25
sg6
S'https://open.spotify.com/track/0fg8CqpjdojMyXLNzM2PaJ'
p658
sg8
S'Run Up (feat. PARTYNEXTDOOR & Nicki Minaj)'
p659
ssS'6uFsE1JgZ20EXyU0JQZbUR'
p660
(dp661
g3
S'Taylor Swift'
p662
sg5
I7
sg6
S'https://open.spotify.com/track/6uFsE1JgZ20EXyU0JQZbUR'
p663
sg8
S'Look What You Made Me Do'
p664
ssS'0L87MffumRNWrY2SNUFcvs'
p665
(dp666
g3
S'Milky Chance'
p667
sg5
I16
sg6
S'https://open.spotify.com/track/0L87MffumRNWrY2SNUFcvs'
p668
sg8
S'Cocoon'
p669
ssS'4xBjsLUSjcx2h7PcRikpQp'
p670
(dp671
g3
S'Camila Cabello'
p672
sg5
I10
sg6
S'https://open.spotify.com/track/4xBjsLUSjcx2h7PcRikpQp'
p673
sg8
S'OMG'
p674
ssS'7GX5flRQZVHRAGd6B4TmDO'
p675
(dp676
g3
S'Lil Uzi Vert'
p677
sg5
I7
sg6
S'https://open.spotify.com/track/7GX5flRQZVHRAGd6B4TmDO'
p678
sg8
S'XO TOUR Llif3'
p679
ssS'4F7A0DXBrmUAkp32uenhZt'
p680
(dp681
g3
S'The Weeknd'
p682
sg5
I12
sg6
S'https://open.spotify.com/track/4F7A0DXBrmUAkp32uenhZt'
p683
sg8
S'Party Monster'
p684
ssS'4rex1k9pBVFaIVKBBssZzi'
p685
(dp686
g3
S'Pnau'
p687
sg5
I24
sg6
S'https://open.spotify.com/track/4rex1k9pBVFaIVKBBssZzi'
p688
sg8
S'Chameleon'
p689
ssS'0CokSRCu5hZgPxcZBaEzVE'
p690
(dp691
g3
S'Macklemore'
p692
sg5
I3
sg6
S'https://open.spotify.com/track/0CokSRCu5hZgPxcZBaEzVE'
p693
sg8
S'Glorious (feat. Skylar Grey)'
p694
ssS'4nMlau89VAjmV7agkl7OY3'
p695
(dp696
g3
S'Andy Grammer'
p697
sg5
I42
sg6
S'https://open.spotify.com/track/4nMlau89VAjmV7agkl7OY3'
p698
sg8
S'Fresh Eyes'
p699
ssS'4qBejt9FeqLI9blHI1Nq1x'
p700
(dp701
g3
S'Michael Bubl\xc3\xa9'
p702
sg5
I1
sg6
S'https://open.spotify.com/track/4qBejt9FeqLI9blHI1Nq1x'
p703
sg8
S'Jingle Bells (feat. The Puppini Sisters)'
p704
ssS'5tVA6TkbaAH9QMITTQRrNv'
p705
(dp706
g3
S'Tom Petty'
p707
sg5
I2
sg6
S'https://open.spotify.com/track/5tVA6TkbaAH9QMITTQRrNv'
p708
sg8
S"Free Fallin'"
p709
ssS'75ZvA4QfFiZvzhj2xkaWAh'
p710
(dp711
g3
S'Post Malone'
p712
sg5
I3
sg6
S'https://open.spotify.com/track/75ZvA4QfFiZvzhj2xkaWAh'
p713
sg8
S'I Fall Apart'
p714
ssS'1sTUEdVO85YU8Ymk2jeAls'
p715
(dp716
g3
S'MiC LOWRY'
p717
sg5
I5
sg6
S'https://open.spotify.com/track/1sTUEdVO85YU8Ymk2jeAls'
p718
sg8
S'Oh Lord'
p719
ssS'7BKLCZ1jbUBVqRi2FVlTVw'
p720
(dp721
g3
S'The Chainsmokers'
p722
sg5
I42
sg6
S'https://open.spotify.com/track/7BKLCZ1jbUBVqRi2FVlTVw'
p723
sg8
S'Closer'
p724
ssS'7hDc8b7IXETo14hHIHdnhd'
p725
(dp726
g3
S'Drake'
p727
sg5
I30
sg6
S'https://open.spotify.com/track/7hDc8b7IXETo14hHIHdnhd'
p728
sg8
S'Passionfruit'
p729
ssS'5H2avIx356wQpgG7HnPEHM'
p730
(dp731
g3
S'Six60'
p732
sg5
I9
sg6
S'https://open.spotify.com/track/5H2avIx356wQpgG7HnPEHM'
p733
sg8
S'White Lines'
p734
ssS'47X9nPgLBHEGts5tFwpF6S'
p735
(dp736
g3
S'Ella Fitzgerald'
p737
sg5
I1
sg6
S'https://open.spotify.com/track/47X9nPgLBHEGts5tFwpF6S'
p738
sg8
S'Have Yourself A Merry Little Christmas'
p739
ssS'3Lfiu5sZ4M4B6JaKMBc0FU'
p740
(dp741
g3
S'Ed Sheeran'
p742
sg5
I20
sg6
S'https://open.spotify.com/track/3Lfiu5sZ4M4B6JaKMBc0FU'
p743
sg8
S'Barcelona'
p744
ssS'2LTlO3NuNVN70lp2ZbVswF'
p745
(dp746
g3
S'Kendrick Lamar'
p747
sg5
I4
sg6
S'https://open.spotify.com/track/2LTlO3NuNVN70lp2ZbVswF'
p748
sg8
S'FEEL.'
p749
ssS'1lzr43nnXAijIGYnCT8M8H'
p750
(dp751
g3
S'Shaggy'
p752
sg5
I1
sg6
S'https://open.spotify.com/track/1lzr43nnXAijIGYnCT8M8H'
p753
sg8
S"It Wasn't Me"
p754
ssS'6y2Kaz9QI01XBKJ8mTb7Pf'
p755
(dp756
g3
S"Rag'n'Bone Man"
p757
sg5
I16
sg6
S'https://open.spotify.com/track/6y2Kaz9QI01XBKJ8mTb7Pf'
p758
sg8
S'Skin'
p759
ssS'65Q2mv3UlVi9eO70OpsmSe'
p760
(dp761
g3
S'Burl Ives'
p762
sg5
I1
sg6
S'https://open.spotify.com/track/65Q2mv3UlVi9eO70OpsmSe'
p763
sg8
S'A Holly Jolly Christmas - Single Version'
p764
ssS'0XLOf9LhyazPX9Ld8jPiUq'
p765
(dp766
g3
S'Selena Gomez'
p767
sg5
I12
sg6
S'https://open.spotify.com/track/0XLOf9LhyazPX9Ld8jPiUq'
p768
sg8
S'Fetish (feat. Gucci Mane)'
p769
ssS'05Z7jet4VDNVgNQWcYHnrk'
p770
(dp771
g3
S'Chris Brown'
p772
sg5
I26
sg6
S'https://open.spotify.com/track/05Z7jet4VDNVgNQWcYHnrk'
p773
sg8
S'Party'
p774
ssS'2eAAEa8pxKF7My0EO4rFgR'
p775
(dp776
g3
S'Dua Lipa'
p777
sg5
I2
sg6
S'https://open.spotify.com/track/2eAAEa8pxKF7My0EO4rFgR'
p778
sg8
S'Blow Your Mind (Mwah)'
p779
ssS'1yxgsra98r3qAtxqiGZPiX'
p780
(dp781
g3
S'Travis Scott'
p782
sg5
I20
sg6
S'https://open.spotify.com/track/1yxgsra98r3qAtxqiGZPiX'
p783
sg8
S'Butterfly Effect'
p784
ssS'550rQQCGkrTzvp4SfpOPzx'
p785
(dp786
g3
S'Pentatonix'
p787
sg5
I1
sg6
S'https://open.spotify.com/track/550rQQCGkrTzvp4SfpOPzx'
p788
sg8
S'Hallelujah'
p789
ssS'3xXBsjrbG1xQIm1xv1cKOt'
p790
(dp791
g3
S'Linkin Park'
p792
sg5
I1
sg6
S'https://open.spotify.com/track/3xXBsjrbG1xQIm1xv1cKOt'
p793
sg8
S'One More Light'
p794
ssS'3A7qX2QjDlPnazUsRk5y0M'
p795
(dp796
g3
S'David Guetta'
p797
sg5
I17
sg6
S'https://open.spotify.com/track/3A7qX2QjDlPnazUsRk5y0M'
p798
sg8
S'2U (feat. Justin Bieber)'
p799
ssS'4kfm1uI9QGaoN9qm6CkAMn'
p800
(dp801
g3
S'Linkin Park'
p802
sg5
I1
sg6
S'https://open.spotify.com/track/4kfm1uI9QGaoN9qm6CkAMn'
p803
sg8
S"What I've Done"
p804
ssS'2OALaHcDdKkjYEpAr0Qzab'
p805
(dp806
g3
S'Avicii'
p807
sg5
I9
sg6
S'https://open.spotify.com/track/2OALaHcDdKkjYEpAr0Qzab'
p808
sg8
S'Lonely Together (feat. Rita Ora)'
p809
ssS'56lBX2WHqfGuoeZxZvUnVj'
p810
(dp811
g3
S'Imagine Dragons'
p812
sg5
I3
sg6
S'https://open.spotify.com/track/56lBX2WHqfGuoeZxZvUnVj'
p813
sg8
S'Thunder'
p814
ssS'0XfOi87h82i09rQjWYG0Bm'
p815
(dp816
g3
S'Jax Jones'
p817
sg5
I13
sg6
S'https://open.spotify.com/track/0XfOi87h82i09rQjWYG0Bm'
p818
sg8
S'Instruction (feat. Demi Lovato & Stefflon Don)'
p819
ssS'5qqabIl2vWzo9ApSC317sa'
p820
(dp821
g3
S'Oasis'
p822
sg5
I3
sg6
S'https://open.spotify.com/track/5qqabIl2vWzo9ApSC317sa'
p823
sg8
S'Wonderwall - Remastered'
p824
ssS'28irpKCCK9nn9DZSik2zEx'
p825
(dp826
g3
S'Drake'
p827
sg5
I2
sg6
S'https://open.spotify.com/track/28irpKCCK9nn9DZSik2zEx'
p828
sg8
S'Glow'
p829
ssS'5JUu0unA8VwhTZ9LkMWUVI'
p830
(dp831
g3
S'Drake'
p832
sg5
I1
sg6
S'https://open.spotify.com/track/5JUu0unA8VwhTZ9LkMWUVI'
p833
sg8
S'Since Way Back'
p834
ssS'4IWAyPf1KMq7JCyGeCjTeH'
p835
(dp836
g3
S'Imagine Dragons'
p837
sg5
I8
sg6
S'https://open.spotify.com/track/4IWAyPf1KMq7JCyGeCjTeH'
p838
sg8
S'Whatever It Takes'
p839
ssS'6dVZCbi9CYtD9LjAHXRjIG'
p840
(dp841
g3
S'Future'
p842
sg5
I1
sg6
S'https://open.spotify.com/track/6dVZCbi9CYtD9LjAHXRjIG'
p843
sg8
S'Mask Off - Remix'
p844
ssS'0ZExP2I5Ej92PsnG4G1jVG'
p845
(dp846
g3
S'Julia Michaels'
p847
sg5
I1
sg6
S'https://open.spotify.com/track/0ZExP2I5Ej92PsnG4G1jVG'
p848
sg8
S'Uh Huh'
p849
ssS'7MUNNBJKYo3cdokp06wEOB'
p850
(dp851
g3
S'Vance Joy'
p852
sg5
I13
sg6
S'https://open.spotify.com/track/7MUNNBJKYo3cdokp06wEOB'
p853
sg8
S'Lay It On Me'
p854
ssS'3Q3myFA7q4Op95DOpHplaY'
p855
(dp856
g3
S'blackbear'
p857
sg5
I18
sg6
S'https://open.spotify.com/track/3Q3myFA7q4Op95DOpHplaY'
p858
sg8
S'do re mi'
p859
ssS'2jYmK1cb3Uya6FFsocdpzO'
p860
(dp861
g3
S'Sabrina Carpenter'
p862
sg5
I11
sg6
S'https://open.spotify.com/track/2jYmK1cb3Uya6FFsocdpzO'
p863
sg8
S'Why'
p864
ssS'3pndPhlQWjuSoXhcIIdBjv'
p865
(dp866
g3
S'Russ'
p867
sg5
I34
sg6
S'https://open.spotify.com/track/3pndPhlQWjuSoXhcIIdBjv'
p868
sg8
S'What They Want'
p869
ssS'0WCEaydwN65cvwaW8aqptF'
p870
(dp871
g3
S'Olivia Holt'
p872
sg5
I12
sg6
S'https://open.spotify.com/track/0WCEaydwN65cvwaW8aqptF'
p873
sg8
S'History'
p874
ssS'3FiE2d325mIOc4YjkSLVJR'
p875
(dp876
g3
S'Ariana Grande'
p877
sg5
I15
sg6
S'https://open.spotify.com/track/3FiE2d325mIOc4YjkSLVJR'
p878
sg8
S'Everyday'
p879
ssS'4STCTQ1h0VuWfvDyhGOxkv'
p880
(dp881
g3
S'Otis Redding'
p882
sg5
I1
sg6
S'https://open.spotify.com/track/4STCTQ1h0VuWfvDyhGOxkv'
p883
sg8
S'Merry Christmas Baby'
p884
ssS'2bjwRfXMk4uRgOD9IBYl9h'
p885
(dp886
g3
S'Drake'
p887
sg5
I28
sg6
S'https://open.spotify.com/track/2bjwRfXMk4uRgOD9IBYl9h'
p888
sg8
S'Portland'
p889
ssS'0FuTx2s3YH1ppmtiM6l0zI'
p890
(dp891
g3
S'JP Cooper'
p892
sg5
I32
sg6
S'https://open.spotify.com/track/0FuTx2s3YH1ppmtiM6l0zI'
p893
sg8
S'September Song'
p894
ssS'0Zbbxnx4SGGHoIow4PpISP'
p895
(dp896
g3
S'Kygo'
p897
sg5
I3
sg6
S'https://open.spotify.com/track/0Zbbxnx4SGGHoIow4PpISP'
p898
sg8
S'Stargazing'
p899
ssS'1OmcAT5Y8eg5bUPv9qJT4R'
p900
(dp901
g3
S'Post Malone'
p902
sg5
I3
sg6
S'https://open.spotify.com/track/1OmcAT5Y8eg5bUPv9qJT4R'
p903
sg8
S'rockstar'
p904
ssS'66WPXyhXqMlkM1kZhyEXWK'
p905
(dp906
g3
S'Michael Bubl\xc3\xa9'
p907
sg5
I1
sg6
S'https://open.spotify.com/track/66WPXyhXqMlkM1kZhyEXWK'
p908
sg8
S'Christmas (Baby Please Come Home)'
p909
ssS'5GFDrUTLGJix84sNhjCG0g'
p910
(dp911
g3
S'Amin\xc3\xa9'
p912
sg5
I30
sg6
S'https://open.spotify.com/track/5GFDrUTLGJix84sNhjCG0g'
p913
sg8
S'Caroline'
p914
ssS'1HTtUBEY3tuw2btgwwI2Ja'
p915
(dp916
g3
S'Gucci Mane'
p917
sg5
I7
sg6
S'https://open.spotify.com/track/1HTtUBEY3tuw2btgwwI2Ja'
p918
sg8
S'I Get The Bag (feat. Migos)'
p919
ssS'0kN8xEmgMW9mh7UmDYHlJP'
p920
(dp921
g3
S'Bruno Mars'
p922
sg5
I38
sg6
S'https://open.spotify.com/track/0kN8xEmgMW9mh7UmDYHlJP'
p923
sg8
S'Versace On The Floor'
p924
ssS'2HJQcyUpmUuvzS5vBAICIc'
p925
(dp926
g3
S'ZHU'
p927
sg5
I1
sg6
S'https://open.spotify.com/track/2HJQcyUpmUuvzS5vBAICIc'
p928
sg8
S'Working For It - Bonus Track'
p929
ssS'2jyjhRf6DVbMPU5zxagN2h'
p930
(dp931
g3
S'Passenger'
p932
sg5
I18
sg6
S'https://open.spotify.com/track/2jyjhRf6DVbMPU5zxagN2h'
p933
sg8
S'Let Her Go'
p934
ssS'7i2DJ88J7jQ8K7zqFX2fW8'
p935
(dp936
g3
S'Halsey'
p937
sg5
I16
sg6
S'https://open.spotify.com/track/7i2DJ88J7jQ8K7zqFX2fW8'
p938
sg8
S'Now Or Never'
p939
ssS'43ZyHQITOjhciSUUNPVRHc'
p940
(dp941
g3
S'Lil Pump'
p942
sg5
I1
sg6
S'https://open.spotify.com/track/43ZyHQITOjhciSUUNPVRHc'
p943
sg8
S'Gucci Gang'
p944
ssS'3y9cCbnBn0zjkJa2YkOj70'
p945
(dp946
g3
S'Nicki Minaj'
p947
sg5
I2
sg6
S'https://open.spotify.com/track/3y9cCbnBn0zjkJa2YkOj70'
p948
sg8
S'Black Barbies'
p949
ssS'5sNESr6pQfIhL3krM8CtZn'
p950
(dp951
g3
S'JAY Z'
p952
sg5
I1
sg6
S'https://open.spotify.com/track/5sNESr6pQfIhL3krM8CtZn'
p953
sg8
S'Numb / Encore'
p954
ssS'68EMU2RD1ECNeOeJ5qAXCV'
p955
(dp956
g3
S'Charlie Puth'
p957
sg5
I36
sg6
S'https://open.spotify.com/track/68EMU2RD1ECNeOeJ5qAXCV'
p958
sg8
S"We Don't Talk Anymore (feat. Selena Gomez)"
p959
ssS'2dqLk7ezV15LEJEwUmEbXB'
p960
(dp961
g3
S'Marian Hill'
p962
sg5
I3
sg6
S'https://open.spotify.com/track/2dqLk7ezV15LEJEwUmEbXB'
p963
sg8
S'Down'
p964
ssS'2fmCA13dwQQOGBIbIOWRiJ'
p965
(dp966
g3
S'Panic! At The Disco'
p967
sg5
I1
sg6
S'https://open.spotify.com/track/2fmCA13dwQQOGBIbIOWRiJ'
p968
sg8
S'LA Devotee'
p969
ssS'6vSwxzO2Qf4BinHSXRwZJe'
p970
(dp971
g3
S'Ed Sheeran'
p972
sg5
I6
sg6
S'https://open.spotify.com/track/6vSwxzO2Qf4BinHSXRwZJe'
p973
sg8
S'Tenerife Sea'
p974
ssS'6R6ihJhRbgu7JxJKIbW57w'
p975
(dp976
g3
S'Frank Ocean'
p977
sg5
I1
sg6
S'https://open.spotify.com/track/6R6ihJhRbgu7JxJKIbW57w'
p978
sg8
S'Provider'
p979
ssS'1cImYkHOQMFE7AZC9aOk4y'
p980
(dp981
g3
S'Bobby Helms'
p982
sg5
I1
sg6
S'https://open.spotify.com/track/1cImYkHOQMFE7AZC9aOk4y'
p983
sg8
S'Jingle Bell Rock'
p984
ssS'6MbH1QiphMCPTqVEVC7UYi'
p985
(dp986
g3
S'Drake'
p987
sg5
I1
sg6
S'https://open.spotify.com/track/6MbH1QiphMCPTqVEVC7UYi'
p988
sg8
S'Nothings Into Somethings'
p989
ssS'7dk8N7ZpSU5tUwbmZPnAiG'
p990
(dp991
g3
S'Kings'
p992
sg5
I29
sg6
S'https://open.spotify.com/track/7dk8N7ZpSU5tUwbmZPnAiG'
p993
sg8
S"Don't Worry Bout' It"
p994
ssS'1jNOi6m3Hn8nLEeHCp5Msr'
p995
(dp996
g3
S'The White Stripes'
p997
sg5
I10
sg6
S'https://open.spotify.com/track/1jNOi6m3Hn8nLEeHCp5Msr'
p998
sg8
S'Seven Nation Army'
p999
ssS'4VuS959DSpr82t3qBqCrWG'
p1000
(dp1001
g3
S'Ed Sheeran'
p1002
sg5
I27
sg6
S'https://open.spotify.com/track/4VuS959DSpr82t3qBqCrWG'
p1003
sg8
S'Supermarket Flowers'
p1004
ssS'7bJwvubZZaoGE1AGEfu8Fi'
p1005
(dp1006
g3
S'Ariana Grande'
p1007
sg5
I2
sg6
S'https://open.spotify.com/track/7bJwvubZZaoGE1AGEfu8Fi'
p1008
sg8
S'One Last Time'
p1009
ssS'2Za1AlJNvksouPPWbXpR2X'
p1010
(dp1011
g3
S'Macklemore'
p1012
sg5
I3
sg6
S'https://open.spotify.com/track/2Za1AlJNvksouPPWbXpR2X'
p1013
sg8
S'Good Old Days (feat. Kesha)'
p1014
ssS'0Zx8khUcEfCFK2AEoIhC92'
p1015
(dp1016
g3
S'Snakehips'
p1017
sg5
I35
sg6
S'https://open.spotify.com/track/0Zx8khUcEfCFK2AEoIhC92'
p1018
sg8
S"Don't Leave"
p1019
ssS'2BTw5ZxeBygVJpdMK1Ur3c'
p1020
(dp1021
g3
S'Kita Alexander'
p1022
sg5
I3
sg6
S'https://open.spotify.com/track/2BTw5ZxeBygVJpdMK1Ur3c'
p1023
sg8
S'Hotel'
p1024
ssS'7Dm3dV3WPNdTgxoNY7YFnc'
p1025
(dp1026
g3
S'Fleetwood Mac'
p1027
sg5
I2
sg6
S'https://open.spotify.com/track/7Dm3dV3WPNdTgxoNY7YFnc'
p1028
sg8
S'The Chain - Remastered'
p1029
ssS'33SNO8AaciGbNaQFkxvPrW'
p1030
(dp1031
g3
S'Harry Styles'
p1032
sg5
I5
sg6
S'https://open.spotify.com/track/33SNO8AaciGbNaQFkxvPrW'
p1033
sg8
S'Kiwi'
p1034
ssS'6n3HGiq4v35D6eFOSwqYuo'
p1035
(dp1036
g3
S'Drake'
p1037
sg5
I4
sg6
S'https://open.spotify.com/track/6n3HGiq4v35D6eFOSwqYuo'
p1038
sg8
S'Teenage Fever'
p1039
ssS'2KpCpk6HjXXLb7nnXoXA5O'
p1040
(dp1041
g3
S'JAY Z'
p1042
sg5
I10
sg6
S'https://open.spotify.com/track/2KpCpk6HjXXLb7nnXoXA5O'
p1043
sg8
S'Ni**as In Paris'
p1044
ssS'0YHUITU3w6ws1v8ehT264g'
p1045
(dp1046
g3
S'Little Mix'
p1047
sg5
I18
sg6
S'https://open.spotify.com/track/0YHUITU3w6ws1v8ehT264g'
p1048
sg8
S'Shout Out to My Ex'
p1049
ssS'5yuShbu70mtHXY0yLzCQLQ'
p1050
(dp1051
g3
S'Post Malone'
p1052
sg5
I22
sg6
S'https://open.spotify.com/track/5yuShbu70mtHXY0yLzCQLQ'
p1053
sg8
S'Go Flex'
p1054
ssS'50PWlIBU7PlGGwzgN8TiFJ'
p1055
(dp1056
g3
S'Lady Gaga'
p1057
sg5
I8
sg6
S'https://open.spotify.com/track/50PWlIBU7PlGGwzgN8TiFJ'
p1058
sg8
S'Million Reasons'
p1059
ssS'2bwSCIuNtVrQPVddCi8sOW'
p1060
(dp1061
g3
S'Christopher Jackson'
p1062
sg5
I1
sg6
S'https://open.spotify.com/track/2bwSCIuNtVrQPVddCi8sOW'
p1063
sg8
S'Where You Are'
p1064
ssS'193Dm5SqYy3hTSbuzxbwKc'
p1065
(dp1066
g3
S'Lorde'
p1067
sg5
I4
sg6
S'https://open.spotify.com/track/193Dm5SqYy3hTSbuzxbwKc'
p1068
sg8
S'Writer In The Dark'
p1069
ssS'7xHWNBFm6ObGEQPaUxHuKO'
p1070
(dp1071
g3
S'Sia'
p1072
sg5
I11
sg6
S'https://open.spotify.com/track/7xHWNBFm6ObGEQPaUxHuKO'
p1073
sg8
S'The Greatest'
p1074
ssS'5tf1VVWniHgryyumXyJM7w'
p1075
(dp1076
g3
S'Robin Schulz'
p1077
sg5
I7
sg6
S'https://open.spotify.com/track/5tf1VVWniHgryyumXyJM7w'
p1078
sg8
S'Sugar (feat. Francesco Yates)'
p1079
ssS'32DGGj6KlNuBr6WaqRxpxi'
p1080
(dp1081
g3
S'Charlie Puth'
p1082
sg5
I1
sg6
S'https://open.spotify.com/track/32DGGj6KlNuBr6WaqRxpxi'
p1083
sg8
S'How Long'
p1084
ssS'2XlHu0HcujBCkWMdIAvrqt'
p1085
(dp1086
g3
S'Drake'
p1087
sg5
I6
sg6
S'https://open.spotify.com/track/2XlHu0HcujBCkWMdIAvrqt'
p1088
sg8
S'Blem'
p1089
ssS'5f5r2N4Lp9WoULWPH9zp2W'
p1090
(dp1091
g3
S'Drake'
p1092
sg5
I2
sg6
S'https://open.spotify.com/track/5f5r2N4Lp9WoULWPH9zp2W'
p1093
sg8
S"Can't Have Everything"
p1094
ssS'6DwnAl6l63e83dDgIzY8P4'
p1095
(dp1096
g3
S'Michael Bubl\xc3\xa9'
p1097
sg5
I1
sg6
S'https://open.spotify.com/track/6DwnAl6l63e83dDgIzY8P4'
p1098
sg8
S'Santa Baby'
p1099
ssS'5hYTyyh2odQKphUbMqc5gN'
p1100
(dp1101
g3
S'Alessia Cara'
p1102
sg5
I42
sg6
S'https://open.spotify.com/track/5hYTyyh2odQKphUbMqc5gN'
p1103
sg8
S"How Far I'll Go - From Moana"
p1104
ssS'1u8c2t2Cy7UBoG4ArRcF5g'
p1105
(dp1106
g3
S'Taylor Swift'
p1107
sg5
I3
sg6
S'https://open.spotify.com/track/1u8c2t2Cy7UBoG4ArRcF5g'
p1108
sg8
S'Blank Space'
p1109
ssS'72jbDTw1piOOj770jWNeaG'
p1110
(dp1111
g3
S'The Chainsmokers'
p1112
sg5
I33
sg6
S'https://open.spotify.com/track/72jbDTw1piOOj770jWNeaG'
p1113
sg8
S'Paris'
p1114
ssS'12REd1n8PeiHHWOh066tpr'
p1115
(dp1116
g3
S'Flume'
p1117
sg5
I42
sg6
S'https://open.spotify.com/track/12REd1n8PeiHHWOh066tpr'
p1118
sg8
S'Never Be Like You'
p1119
ssS'11EDhDAVDtGPoSar6ootYA'
p1120
(dp1121
g3
S'Halsey'
p1122
sg5
I1
sg6
S'https://open.spotify.com/track/11EDhDAVDtGPoSar6ootYA'
p1123
sg8
S'Strangers'
p1124
ssS'7FIcV2kEiO2mvvMbxU5Jkn'
p1125
(dp1126
g3
S'Johnny Cash'
p1127
sg5
I1
sg6
S'https://open.spotify.com/track/7FIcV2kEiO2mvvMbxU5Jkn'
p1128
sg8
S'The Little Drummer Boy - Mono Version'
p1129
ssS'12o6dxWGk29uIAP3OWY0pM'
p1130
(dp1131
g3
S'Lorde'
p1132
sg5
I9
sg6
S'https://open.spotify.com/track/12o6dxWGk29uIAP3OWY0pM'
p1133
sg8
S'Homemade Dynamite'
p1134
ssS'6YnzBV7YkaXZNCK3tlnCfg'
p1135
(dp1136
g3
S'Boney M.'
p1137
sg5
I1
sg6
S'https://open.spotify.com/track/6YnzBV7YkaXZNCK3tlnCfg'
p1138
sg8
S"Mary's Boy Child / Oh My Lord"
p1139
ssS'6p8NuHm8uCGnn2Dtbtf7zE'
p1140
(dp1141
g3
S'Migos'
p1142
sg5
I21
sg6
S'https://open.spotify.com/track/6p8NuHm8uCGnn2Dtbtf7zE'
p1143
sg8
S'Slippery (feat. Gucci Mane)'
p1144
ssS'2KvHC9z14GSl4YpkNMX384'
p1145
(dp1146
g3
S'Drake'
p1147
sg5
I2
sg6
S'https://open.spotify.com/track/2KvHC9z14GSl4YpkNMX384'
p1148
sg8
S'Do Not Disturb'
p1149
ssS'2gbCG4Rt9984UZ7Tc0dIFd'
p1150
(dp1151
g3
S'Michael Bubl\xc3\xa9'
p1152
sg5
I1
sg6
S'https://open.spotify.com/track/2gbCG4Rt9984UZ7Tc0dIFd'
p1153
sg8
S'White Christmas (Duet With Shania Twain)'
p1154
ssS'248OFOZef6ShXv6DGgbnxU'
p1155
(dp1156
g3
S'Khalid'
p1157
sg5
I16
sg6
S'https://open.spotify.com/track/248OFOZef6ShXv6DGgbnxU'
p1158
sg8
S'Saved'
p1159
ssS'64xJ1MMFxxK6osZxJH857T'
p1160
(dp1161
g3
S'Dean Lewis'
p1162
sg5
I24
sg6
S'https://open.spotify.com/track/64xJ1MMFxxK6osZxJH857T'
p1163
sg8
S'Waves'
p1164
ssS'77lGafvlU68CeHgB2pkHC9'
p1165
(dp1166
g3
S'Machine Gun Kelly'
p1167
sg5
I11
sg6
S'https://open.spotify.com/track/77lGafvlU68CeHgB2pkHC9'
p1168
sg8
S'At My Best (feat. Hailee Steinfeld)'
p1169
ssS'0dA2Mk56wEzDgegdC6R17g'
p1170
(dp1171
g3
S'Zedd'
p1172
sg5
I33
sg6
S'https://open.spotify.com/track/0dA2Mk56wEzDgegdC6R17g'
p1173
sg8
S'Stay (with Alessia Cara)'
p1174
ssS'3kGfazcbVvVkuZunzlLgTD'
p1175
(dp1176
g3
S'Sigala'
p1177
sg5
I13
sg6
S'https://open.spotify.com/track/3kGfazcbVvVkuZunzlLgTD'
p1178
sg8
S'Came Here for Love'
p1179
ssS'2Vf2Pflg5rTWSvSCK4qq4A'
p1180
(dp1181
g3
S'Chris Brown'
p1182
sg5
I29
sg6
S'https://open.spotify.com/track/2Vf2Pflg5rTWSvSCK4qq4A'
p1183
sg8
S'Privacy'
p1184
ssS'7wyth9JXDTFiAaofiIdzx6'
p1185
(dp1186
g3
S'Sons Of Zion'
p1187
sg5
I3
sg6
S'https://open.spotify.com/track/7wyth9JXDTFiAaofiIdzx6'
p1188
sg8
S'Now'
p1189
ssS'3eDk8vNTpDnoso8D2qmYFi'
p1190
(dp1191
g3
S'Fetty Wap'
p1192
sg5
I10
sg6
S'https://open.spotify.com/track/3eDk8vNTpDnoso8D2qmYFi'
p1193
sg8
S'Make You Feel Good'
p1194
ssS'5ZnJsoJGkQ5K15W7Rcr5JO'
p1195
(dp1196
g3
S'Little Mix'
p1197
sg5
I3
sg6
S'https://open.spotify.com/track/5ZnJsoJGkQ5K15W7Rcr5JO'
p1198
sg8
S'No More Sad Songs (feat. Machine Gun Kelly)'
p1199
ssS'7nZmah2llfvLDiUjm0kiyz'
p1200
(dp1201
g3
S'Justin Bieber'
p1202
sg5
I8
sg6
S'https://open.spotify.com/track/7nZmah2llfvLDiUjm0kiyz'
p1203
sg8
S'Friends (with BloodPop\xc2\xae)'
p1204
ssS'1KGi9sZVMeszgZOWivFpxs'
p1205
(dp1206
g3
S'TLC'
p1207
sg5
I2
sg6
S'https://open.spotify.com/track/1KGi9sZVMeszgZOWivFpxs'
p1208
sg8
S'No Scrubs'
p1209
ssS'13HVjjWUZFaWilh2QUJKsP'
p1210
(dp1211
g3
S'James Bay'
p1212
sg5
I38
sg6
S'https://open.spotify.com/track/13HVjjWUZFaWilh2QUJKsP'
p1213
sg8
S'Let It Go'
p1214
ssS'0y9uTzK9cNKSAEHnpeRG8C'
p1215
(dp1216
g3
S'Kendrick Lamar'
p1217
sg5
I4
sg6
S'https://open.spotify.com/track/0y9uTzK9cNKSAEHnpeRG8C'
p1218
sg8
S'DUCKWORTH.'
p1219
ssS'2vQwlW8H1jFveGNXwZfJCV'
p1220
(dp1221
g3
S'XXXTENTACION'
p1222
sg5
I2
sg6
S'https://open.spotify.com/track/2vQwlW8H1jFveGNXwZfJCV'
p1223
sg8
S'Dead Inside (Interlude)'
p1224
ssS'3eFJqPe8VUYrABbFjSauuj'
p1225
(dp1226
g3
S''
p1227
sg5
I1
sg6
S'https://open.spotify.com/track/3eFJqPe8VUYrABbFjSauuj'
p1228
sg8
g1227
ssS'5XJJdNPkwmbUwE79gv0NxK'
p1229
(dp1230
g3
S'Kanye West'
p1231
sg5
I10
sg6
S'https://open.spotify.com/track/5XJJdNPkwmbUwE79gv0NxK'
p1232
sg8
S'Gold Digger'
p1233
ssS'76N7FdzCI9OsiUnzJVLY2m'
p1234
(dp1235
g3
S'Adele'
p1236
sg5
I1
sg6
S'https://open.spotify.com/track/76N7FdzCI9OsiUnzJVLY2m'
p1237
sg8
S'Rumour Has It'
p1238
ssS'6D0b04NJIKfEMg040WioJQ'
p1239
(dp1240
g3
S'Julia Michaels'
p1241
sg5
I2
sg6
S'https://open.spotify.com/track/6D0b04NJIKfEMg040WioJQ'
p1242
sg8
S'Issues'
p1243
ssS'4sOT0ksc174RY6GJUu8Wjy'
p1244
(dp1245
g3
S'Jessica Mauboy'
p1246
sg5
I1
sg6
S'https://open.spotify.com/track/4sOT0ksc174RY6GJUu8Wjy'
p1247
sg8
S"Fallin' - Original Song from the TV Series The Secret Daughter"
p1248
ssS'7fwXWKdDNI5IutOMc5OKYw'
p1249
(dp1250
g3
S'J Balvin'
p1251
sg5
I2
sg6
S'https://open.spotify.com/track/7fwXWKdDNI5IutOMc5OKYw'
p1252
sg8
S'Mi Gente (feat. Beyonc\xc3\xa9)'
p1253
ssS'60xaS8mYBKUW4VQQ666N0T'
p1254
(dp1255
g3
S'Chance The Rapper'
p1256
sg5
I26
sg6
S'https://open.spotify.com/track/60xaS8mYBKUW4VQQ666N0T'
p1257
sg8
S'All Night (feat. Knox Fortune)'
p1258
ssS'6CUBgX8bXC5YQCkdgRHqyg'
p1259
(dp1260
g3
S'blackbear'
p1261
sg5
I4
sg6
S'https://open.spotify.com/track/6CUBgX8bXC5YQCkdgRHqyg'
p1262
sg8
S'do re mi'
p1263
ssS'2dfHh7ECGxfNqZTQno09Vk'
p1264
(dp1265
g3
S'Ed Sheeran'
p1266
sg5
I15
sg6
S'https://open.spotify.com/track/2dfHh7ECGxfNqZTQno09Vk'
p1267
sg8
S"Hearts Don't Break Around Here"
p1268
ssS'1xznGGDReH1oQq0xzbwXa3'
p1269
(dp1270
g3
S'Drake'
p1271
sg5
I42
sg6
S'https://open.spotify.com/track/1xznGGDReH1oQq0xzbwXa3'
p1272
sg8
S'One Dance'
p1273
ssS'0N3W5peJUQtI4eyR6GJT5O'
p1274
(dp1275
g3
S'Kendrick Lamar'
p1276
sg5
I13
sg6
S'https://open.spotify.com/track/0N3W5peJUQtI4eyR6GJT5O'
p1277
sg8
S'King Kunta'
p1278
ssS'7l9CE3wmEGOUYw1j4ETjnL'
p1279
(dp1280
g3
S'Gorillaz'
p1281
sg5
I2
sg6
S'https://open.spotify.com/track/7l9CE3wmEGOUYw1j4ETjnL'
p1282
sg8
S'Saturnz Barz (feat. Popcaan)'
p1283
ssS'343YBumqHu19cGoGARUTsd'
p1284
(dp1285
g3
S'Drake'
p1286
sg5
I42
sg6
S'https://open.spotify.com/track/343YBumqHu19cGoGARUTsd'
p1287
sg8
S'Fake Love'
p1288
ssS'5HDPtsnyb3maFmPL8LLUTG'
p1289
(dp1290
g3
S'Ed Sheeran'
p1291
sg5
I20
sg6
S'https://open.spotify.com/track/5HDPtsnyb3maFmPL8LLUTG'
p1292
sg8
S'New Man'
p1293
ssS'4xyNG8vZR3g8FnphVkbjRo'
p1294
(dp1295
g3
S'Lana Del Rey'
p1296
sg5
I1
sg6
S'https://open.spotify.com/track/4xyNG8vZR3g8FnphVkbjRo'
p1297
sg8
S'Love'
p1298
ssS'6V9kwssTrwkKT72imgowj9'
p1299
(dp1300
g3
S'The Chainsmokers'
p1301
sg5
I1
sg6
S'https://open.spotify.com/track/6V9kwssTrwkKT72imgowj9'
p1302
sg8
S'My Type'
p1303
ssS'2fGxYYMQbVqgIdaqfz2OwA'
p1304
(dp1305
g3
S'Miley Cyrus'
p1306
sg5
I2
sg6
S'https://open.spotify.com/track/2fGxYYMQbVqgIdaqfz2OwA'
p1307
sg8
S'Younger Now'
p1308
ssS'6WbADFqMvR8N5u0BvtsWQE'
p1309
(dp1310
g3
S'Avicii'
p1311
sg5
I9
sg6
S'https://open.spotify.com/track/6WbADFqMvR8N5u0BvtsWQE'
p1312
sg8
S'Without You (feat. Sandro Cavazza)'
p1313
ssS'1vYew137WJ69SFp9oez3xm'
p1314
(dp1315
g3
S'UB40'
p1316
sg5
I2
sg6
S'https://open.spotify.com/track/1vYew137WJ69SFp9oez3xm'
p1317
sg8
S'Red Red Wine - Edit'
p1318
ssS'1DnSNqCQM3LUxqFuXt184Q'
p1319
(dp1320
g3
S'Michael Bubl\xc3\xa9'
p1321
sg5
I1
sg6
S'https://open.spotify.com/track/1DnSNqCQM3LUxqFuXt184Q'
p1322
sg8
S'Have Yourself A Merry Little Christmas'
p1323
ssS'5uDASfU19gDxSjW8cnCaBp'
p1324
(dp1325
g3
S'Rob $tone'
p1326
sg5
I14
sg6
S'https://open.spotify.com/track/5uDASfU19gDxSjW8cnCaBp'
p1327
sg8
S'Chill Bill'
p1328
ssS'4pdPtRcBmOSQDlJ3Fk945m'
p1329
(dp1330
g3
S'DJ Snake'
p1331
sg5
I42
sg6
S'https://open.spotify.com/track/4pdPtRcBmOSQDlJ3Fk945m'
p1332
sg8
S'Let Me Love You'
p1333
ssS'5EnYT6F7wEcdege6mDHEfO'
p1334
(dp1335
g3
S'Drake'
p1336
sg5
I12
sg6
S'https://open.spotify.com/track/5EnYT6F7wEcdege6mDHEfO'
p1337
sg8
S'Signs'
p1338
ssS'6H0AwSQ20mo62jGlPGB8S6'
p1339
(dp1340
g3
S'2 Chainz'
p1341
sg5
I21
sg6
S'https://open.spotify.com/track/6H0AwSQ20mo62jGlPGB8S6'
p1342
sg8
S"It's A Vibe"
p1343
ssS'1OAiWI2oPmglaOiv9fdioU'
p1344
(dp1345
g3
S'Coldplay'
p1346
sg5
I8
sg6
S'https://open.spotify.com/track/1OAiWI2oPmglaOiv9fdioU'
p1347
sg8
S'Hymn For The Weekend - Seeb Remix'
p1348
ssS'6Ll3qUTssdGWMxbwhMud2N'
p1349
(dp1350
g3
S'Nick Jonas'
p1351
sg5
I1
sg6
S'https://open.spotify.com/track/6Ll3qUTssdGWMxbwhMud2N'
p1352
sg8
S'Find You'
p1353
ssS'5XzmZjXhMjDHr7ZfJ6DELQ'
p1354
(dp1355
g3
S'Rihanna'
p1356
sg5
I1
sg6
S'https://open.spotify.com/track/5XzmZjXhMjDHr7ZfJ6DELQ'
p1357
sg8
S'FourFiveSeconds'
p1358
ssS'7LEydI5NfjY6mZfKwYIptZ'
p1359
(dp1360
g3
S'Fifth Harmony'
p1361
sg5
I12
sg6
S'https://open.spotify.com/track/7LEydI5NfjY6mZfKwYIptZ'
p1362
sg8
S'Down'
p1363
ssS'7y9iMe8SOB6z3NoHE2OfXl'
p1364
(dp1365
g3
S'Halsey'
p1366
sg5
I7
sg6
S'https://open.spotify.com/track/7y9iMe8SOB6z3NoHE2OfXl'
p1367
sg8
S'Bad At Love'
p1368
ssS'2Na0z2gfN67Rzf0vp74Wi3'
p1369
(dp1370
g3
S'Drake'
p1371
sg5
I1
sg6
S'https://open.spotify.com/track/2Na0z2gfN67Rzf0vp74Wi3'
p1372
sg8
S'Lose You'
p1373
ssS'23e6ly5nFanMQOk4cAwJj2'
p1374
(dp1375
g3
S'Mura Masa'
p1376
sg5
I2
sg6
S'https://open.spotify.com/track/23e6ly5nFanMQOk4cAwJj2'
p1377
sg8
S'Love$ick'
p1378
ssS'3K4HG9evC7dg3N0R9cYqk4'
p1379
(dp1380
g3
S'Linkin Park'
p1381
sg5
I1
sg6
S'https://open.spotify.com/track/3K4HG9evC7dg3N0R9cYqk4'
p1382
sg8
S'One Step Closer'
p1383
ssS'59m84qYfFmnP4fWmvUtWWw'
p1384
(dp1385
g3
S'The Royal Guardsmen'
p1386
sg5
I1
sg6
S'https://open.spotify.com/track/59m84qYfFmnP4fWmvUtWWw'
p1387
sg8
S"Snoopy's Christmas"
p1388
ssS'7oK9VyNzrYvRFo7nQEYkWN'
p1389
(dp1390
g3
S'The Killers'
p1391
sg5
I42
sg6
S'https://open.spotify.com/track/7oK9VyNzrYvRFo7nQEYkWN'
p1392
sg8
S'Mr. Brightside'
p1393
ssS'4iYRa2btalAzPZoSYfROqF'
p1394
(dp1395
g3
S'Kendrick Lamar'
p1396
sg5
I6
sg6
S'https://open.spotify.com/track/4iYRa2btalAzPZoSYfROqF'
p1397
sg8
S'XXX. FEAT. U2.'
p1398
ssS'1rPCgtaIF0CyKRgAwhtpbF'
p1399
(dp1400
g3
S'Amy Shark'
p1401
sg5
I14
sg6
S'https://open.spotify.com/track/1rPCgtaIF0CyKRgAwhtpbF'
p1402
sg8
S'Adore'
p1403
ssS'5OOkp4U9P9oL23maHFHL1h'
p1404
(dp1405
g3
S'Desiigner'
p1406
sg5
I16
sg6
S'https://open.spotify.com/track/5OOkp4U9P9oL23maHFHL1h'
p1407
sg8
S'Panda'
p1408
ssS'3qmvK8QARSPkFTuKeIXSbs'
p1409
(dp1410
g3
S'Linkin Park'
p1411
sg5
I1
sg6
S'https://open.spotify.com/track/3qmvK8QARSPkFTuKeIXSbs'
p1412
sg8
S'Bleed It Out'
p1413
ssS'7y6c07pgjZvtHI9kuMVqk1'
p1414
(dp1415
g3
S'Drake'
p1416
sg5
I4
sg6
S'https://open.spotify.com/track/7y6c07pgjZvtHI9kuMVqk1'
p1417
sg8
S'Get It Together'
p1418
ssS'79cuOz3SPQTuFrp8WgftAu'
p1419
(dp1420
g3
S'Shawn Mendes'
p1421
sg5
I25
sg6
S'https://open.spotify.com/track/79cuOz3SPQTuFrp8WgftAu'
p1422
sg8
S"There's Nothing Holdin' Me Back"
p1423
ssS'4c2W3VKsOFoIg2SFaO6DY5'
p1424
(dp1425
g3
S'Rita Ora'
p1426
sg5
I20
sg6
S'https://open.spotify.com/track/4c2W3VKsOFoIg2SFaO6DY5'
p1427
sg8
S'Your Song'
p1428
ssS'0lmdsH1MIoLsMymnNpd6HU'
p1429
(dp1430
g3
S'Dante Klein'
p1431
sg5
I7
sg6
S'https://open.spotify.com/track/0lmdsH1MIoLsMymnNpd6HU'
p1432
sg8
S'Let Me Hold You (Turn Me On)'
p1433
ssS'4ARPvK8DHLwt4oX65ZAFMw'
p1434
(dp1435
g3
S'XXXTENTACION'
p1436
sg5
I30
sg6
S'https://open.spotify.com/track/4ARPvK8DHLwt4oX65ZAFMw'
p1437
sg8
S'Look At Me!'
p1438
ssS'0QLXkoV7vX86QEibgLe6zQ'
p1439
(dp1440
g3
S'Adele'
p1441
sg5
I1
sg6
S'https://open.spotify.com/track/0QLXkoV7vX86QEibgLe6zQ'
p1442
sg8
S'I Miss You'
p1443
ssS'3HBvs6g8WgT8KT1gZzGSX1'
p1444
(dp1445
g3
S'U2'
p1446
sg5
I1
sg6
S'https://open.spotify.com/track/3HBvs6g8WgT8KT1gZzGSX1'
p1447
sg8
S'Christmas (Baby Please Come Home)'
p1448
ssS'4izg6Hydc6XGErWW6nbdsV'
p1449
(dp1450
g3
S'Imagine Dragons'
p1451
sg5
I3
sg6
S'https://open.spotify.com/track/4izg6Hydc6XGErWW6nbdsV'
p1452
sg8
S'Whatever It Takes'
p1453
ssS'3eR23VReFzcdmS7TYCrhCe'
p1454
(dp1455
g3
S'Kygo'
p1456
sg5
I33
sg6
S'https://open.spotify.com/track/3eR23VReFzcdmS7TYCrhCe'
p1457
sg8
S"It Ain't Me (with Selena Gomez)"
p1458
ssS'2eAZfqOm4EnOF9VvN50Tyc'
p1459
(dp1460
g3
S'Lil Uzi Vert'
p1461
sg5
I7
sg6
S'https://open.spotify.com/track/2eAZfqOm4EnOF9VvN50Tyc'
p1462
sg8
S'The Way Life Goes'
p1463
ssS'66hayvUbTotekKU3H4ta1f'
p1464
(dp1465
g3
S'Skrillex'
p1466
sg5
I2
sg6
S'https://open.spotify.com/track/66hayvUbTotekKU3H4ta1f'
p1467
sg8
S'Where Are \xc3\x9c Now (with Justin Bieber)'
p1468
ssS'1AhDOtG9vPSOmsWgNW0BEY'
p1469
(dp1470
g3
S'Queen'
p1471
sg5
I5
sg6
S'https://open.spotify.com/track/1AhDOtG9vPSOmsWgNW0BEY'
p1472
sg8
S'Bohemian Rhapsody - Remastered 2011'
p1473
ssS'5bZtRlMBU76vHuDOb1GM5u'
p1474
(dp1475
g3
S'Jonas Blue'
p1476
sg5
I1
sg6
S'https://open.spotify.com/track/5bZtRlMBU76vHuDOb1GM5u'
p1477
sg8
S'Perfect Strangers'
p1478
ssS'1KT0xdIjm7t053xByACrrg'
p1479
(dp1480
g3
S'Ariana Grande'
p1481
sg5
I1
sg6
S'https://open.spotify.com/track/1KT0xdIjm7t053xByACrrg'
p1482
sg8
S'\xe7\xbe\x8e\xe5\xa5\xb3\xe3\x81\xa8\xe9\x87\x8e\xe7\x8d\xa3'
p1483
ssS'6TIU9Ehmi6dMzZK73Ym4yj'
p1484
(dp1485
g3
S'Ed Sheeran'
p1486
sg5
I11
sg6
S'https://open.spotify.com/track/6TIU9Ehmi6dMzZK73Ym4yj'
p1487
sg8
S'Save Myself'
p1488
ssS'7taXf5odg9xCAZERYfyOkS'
p1489
(dp1490
g3
S'Jos\xc3\xa9 Feliciano'
p1491
sg5
I1
sg6
S'https://open.spotify.com/track/7taXf5odg9xCAZERYfyOkS'
p1492
sg8
S'Feliz Navidad'
p1493
ssS'3hRZsdTF5uyGA2uhNqEuhm'
p1494
(dp1495
g3
S'Niall Horan'
p1496
sg5
I4
sg6
S'https://open.spotify.com/track/3hRZsdTF5uyGA2uhNqEuhm'
p1497
sg8
S'Too Much To Ask'
p1498
ssS'0bVtevEgtDIeRjCJbK3Lmv'
p1499
(dp1500
g3
S"Guns N' Roses"
p1501
sg5
I1
sg6
S'https://open.spotify.com/track/0bVtevEgtDIeRjCJbK3Lmv'
p1502
sg8
S'Welcome To The Jungle'
p1503
ssS'2mfUa8bLs2s5N4VaqJZ4lZ'
p1504
(dp1505
g3
S'Hailee Steinfeld'
p1506
sg5
I24
sg6
S'https://open.spotify.com/track/2mfUa8bLs2s5N4VaqJZ4lZ'
p1507
sg8
S'Most Girls'
p1508
ssS'4aWmUDTfIPGksMNLV2rQP2'
p1509
(dp1510
g3
S'Luis Fonsi'
p1511
sg5
I28
sg6
S'https://open.spotify.com/track/4aWmUDTfIPGksMNLV2rQP2'
p1512
sg8
S'Despacito (Featuring Daddy Yankee)'
p1513
ssS'58zsLZPvfflaiIbNWoA22O'
p1514
(dp1515
g3
S"Rag'n'Bone Man"
p1516
sg5
I41
sg6
S'https://open.spotify.com/track/58zsLZPvfflaiIbNWoA22O'
p1517
sg8
S'Human'
p1518
ssS'5dKyZWlgjWw1oJgLa4GCZD'
p1519
(dp1520
g3
S'Tove Lo'
p1521
sg5
I8
sg6
S'https://open.spotify.com/track/5dKyZWlgjWw1oJgLa4GCZD'
p1522
sg8
S'Cool Girl'
p1523
ssS'60APt5N2NRaKWf5xzJdzyC'
p1524
(dp1525
g3
S'Calvin Harris'
p1526
sg5
I14
sg6
S'https://open.spotify.com/track/60APt5N2NRaKWf5xzJdzyC'
p1527
sg8
S'Heatstroke'
p1528
ssS'25C5CowdsfXld2jJanbiex'
p1529
(dp1530
g3
S'Demi Lovato'
p1531
sg5
I12
sg6
S'https://open.spotify.com/track/25C5CowdsfXld2jJanbiex'
p1532
sg8
S'Sorry Not Sorry'
p1533
ssS'6IcrwGdIvRsrImOnoYfG9Z'
p1534
(dp1535
g3
S'Wiz Khalifa'
p1536
sg5
I4
sg6
S'https://open.spotify.com/track/6IcrwGdIvRsrImOnoYfG9Z'
p1537
sg8
S'See You Again (feat. Charlie Puth) - From Furious 7'
p1538
ssS'0azC730Exh71aQlOt9Zj3y'
p1539
(dp1540
g3
S'Calvin Harris'
p1541
sg5
I35
sg6
S'https://open.spotify.com/track/0azC730Exh71aQlOt9Zj3y'
p1542
sg8
S'This Is What You Came For'
p1543
ssS'2Z8WuEywRWYTKe1NybPQEW'
p1544
(dp1545
g3
S'Twenty One Pilots'
p1546
sg5
I20
sg6
S'https://open.spotify.com/track/2Z8WuEywRWYTKe1NybPQEW'
p1547
sg8
S'Ride'
p1548
ssS'07GvNcU1WdyZJq3XxP0kZa'
p1549
(dp1550
g3
S'Fleetwood Mac'
p1551
sg5
I4
sg6
S'https://open.spotify.com/track/07GvNcU1WdyZJq3XxP0kZa'
p1552
sg8
S'Go Your Own Way - 2004 Remastered Edition'
p1553
ssS'52okn5MNA47tk87PeZJLEL'
p1554
(dp1555
g3
S'NF'
p1556
sg5
I1
sg6
S'https://open.spotify.com/track/52okn5MNA47tk87PeZJLEL'
p1557
sg8
S'Let You Down'
p1558
ssS'3d9DChrdc6BOeFsbrZ3Is0'
p1559
(dp1560
g3
S'Red Hot Chili Peppers'
p1561
sg5
I2
sg6
S'https://open.spotify.com/track/3d9DChrdc6BOeFsbrZ3Is0'
p1562
sg8
S'Under The Bridge'
p1563
ssS'6JV2JOEocMgcZxYSZelKcc'
p1564
(dp1565
g3
S'Justin Timberlake'
p1566
sg5
I42
sg6
S'https://open.spotify.com/track/6JV2JOEocMgcZxYSZelKcc'
p1567
sg8
S"CAN'T STOP THE FEELING! (Original Song from DreamWorks Animation's TROLLS)"
p1568
ssS'05KOgYg8PGeJyyWBPi5ja8'
p1569
(dp1570
g3
S'Drake'
p1571
sg5
I4
sg6
S'https://open.spotify.com/track/05KOgYg8PGeJyyWBPi5ja8'
p1572
sg8
S'Free Smoke'
p1573
ssS'5bgwqaRSS3M8WHWruHgSL5'
p1574
(dp1575
g3
S'Khalid'
p1576
sg5
I5
sg6
S'https://open.spotify.com/track/5bgwqaRSS3M8WHWruHgSL5'
p1577
sg8
S'8TEEN'
p1578
ssS'3GVkPk8mqxz0itaAriG1L7'
p1579
(dp1580
g3
S'XXXTENTACION'
p1581
sg5
I7
sg6
S'https://open.spotify.com/track/3GVkPk8mqxz0itaAriG1L7'
p1582
sg8
S'Everybody Dies In Their Nightmares'
p1583
ssS'7aV2mflaASUmGhCErm7kBO'
p1584
(dp1585
g3
S'Nevada'
p1586
sg5
I22
sg6
S'https://open.spotify.com/track/7aV2mflaASUmGhCErm7kBO'
p1587
sg8
S'The Mack'
p1588
ssS'6a1hzBiTkgqTsDA0Xgfh9z'
p1589
(dp1590
g3
S'The Jackson 5'
p1591
sg5
I1
sg6
S'https://open.spotify.com/track/6a1hzBiTkgqTsDA0Xgfh9z'
p1592
sg8
S'Santa Claus Is Coming To Town'
p1593
ssS'41onDks2UPbyjer5fMeUWf'
p1594
(dp1595
g3
S'Run\xe2\x80\x93D.M.C.'
p1596
sg5
I1
sg6
S'https://open.spotify.com/track/41onDks2UPbyjer5fMeUWf'
p1597
sg8
S'Christmas in Hollis'
p1598
ssS'2nYwV62UABTH0NanrwVIdQ'
p1599
(dp1600
g3
S'Rae Sremmurd'
p1601
sg5
I1
sg6
S'https://open.spotify.com/track/2nYwV62UABTH0NanrwVIdQ'
p1602
sg8
S'Perplexing Pegasus'
p1603
ssS'2aibwv5hGXSgw7Yru8IYTO'
p1604
(dp1605
g3
S'Red Hot Chili Peppers'
p1606
sg5
I11
sg6
S'https://open.spotify.com/track/2aibwv5hGXSgw7Yru8IYTO'
p1607
sg8
S'Snow (Hey Oh)'
p1608
ssS'1qOLh0tI7trd1zdDKxYZTe'
p1609
(dp1610
g3
S'Hailee Steinfeld'
p1611
sg5
I35
sg6
S'https://open.spotify.com/track/1qOLh0tI7trd1zdDKxYZTe'
p1612
sg8
S'Starving'
p1613
ssS'0cqRj7pUJDkTCEsJkx8snD'
p1614
(dp1615
g3
S'Taylor Swift'
p1616
sg5
I1
sg6
S'https://open.spotify.com/track/0cqRj7pUJDkTCEsJkx8snD'
p1617
sg8
S'Shake It Off'
p1618
ssS'3HVr6jTVwBHBa2flM0eURR'
p1619
(dp1620
g3
S'Macklemore'
p1621
sg5
I14
sg6
S'https://open.spotify.com/track/3HVr6jTVwBHBa2flM0eURR'
p1622
sg8
S'Glorious (feat. Skylar Grey)'
p1623
ssS'7inXu0Eaeg02VsM8kHNvzM'
p1624
(dp1625
g3
S'Frank Sinatra'
p1626
sg5
I1
sg6
S'https://open.spotify.com/track/7inXu0Eaeg02VsM8kHNvzM'
p1627
sg8
S'Let It Snow! Let It Snow! Let It Snow!'
p1628
ssS'0JiVRyTJcJnmlwCZ854K4p'
p1629
(dp1630
g3
S'Alan Walker'
p1631
sg5
I5
sg6
S'https://open.spotify.com/track/0JiVRyTJcJnmlwCZ854K4p'
p1632
sg8
S'Alone'
p1633
ssS'1cG0umU5TKStygKsPFZ9pY'
p1634
(dp1635
g3
S'Robin Schulz'
p1636
sg5
I23
sg6
S'https://open.spotify.com/track/1cG0umU5TKStygKsPFZ9pY'
p1637
sg8
S'Shed a Light'
p1638
ssS'6520aj0B4FSKGVuKNsOCOi'
p1639
(dp1640
g3
S'Katy Perry'
p1641
sg5
I17
sg6
S'https://open.spotify.com/track/6520aj0B4FSKGVuKNsOCOi'
p1642
sg8
S'Chained To The Rhythm'
p1643
ssS'4q8PHoRsPUB52LFylX8Ulz'
p1644
(dp1645
g3
S'Axwell /\\ Ingrosso'
p1646
sg5
I6
sg6
S'https://open.spotify.com/track/4q8PHoRsPUB52LFylX8Ulz'
p1647
sg8
S'More Than You Know'
p1648
ssS'40riOy7x9W7GXjyGp4pjAv'
p1649
(dp1650
g3
S'Eagles'
p1651
sg5
I35
sg6
S'https://open.spotify.com/track/40riOy7x9W7GXjyGp4pjAv'
p1652
sg8
S'Hotel California - Remastered'
p1653
ssS'2MX30RliaxJDgmQ3C3rrJX'
p1654
(dp1655
g3
S'blackbear'
p1656
sg5
I1
sg6
S'https://open.spotify.com/track/2MX30RliaxJDgmQ3C3rrJX'
p1657
sg8
S'do re mi'
p1658
ssS'05X6aMCQR09E6smUmw9qms'
p1659
(dp1660
g3
S'Queen'
p1661
sg5
I1
sg6
S'https://open.spotify.com/track/05X6aMCQR09E6smUmw9qms'
p1662
sg8
S"Thank God It's Christmas - Non-Album Single"
p1663
ssS'1wjzFQodRWrPcQ0AnYnvQ9'
p1664
(dp1665
g3
S'Lauv'
p1666
sg5
I18
sg6
S'https://open.spotify.com/track/1wjzFQodRWrPcQ0AnYnvQ9'
p1667
sg8
S'I Like Me Better'
p1668
ssS'5mUiad5pDU1wFvIbtKgJKB'
p1669
(dp1670
g3
S'Six60'
p1671
sg5
I2
sg6
S'https://open.spotify.com/track/5mUiad5pDU1wFvIbtKgJKB'
p1672
sg8
S'Don\xe2\x80\x99t Forget Your Roots'
p1673
ssS'03hqMhmCZiNKMSPmVabPLP'
p1674
(dp1675
g3
S'Lana Del Rey'
p1676
sg5
I1
sg6
S'https://open.spotify.com/track/03hqMhmCZiNKMSPmVabPLP'
p1677
sg8
S'Groupie Love (feat. A$AP Rocky)'
p1678
ssS'0utlOiJy2weVl9WTkcEWHy'
p1679
(dp1680
g3
S'J. Cole'
p1681
sg5
I42
sg6
S'https://open.spotify.com/track/0utlOiJy2weVl9WTkcEWHy'
p1682
sg8
S'Neighbors'
p1683
ssS'60jkAyuEyOnQKlrppOTYYx'
p1684
(dp1685
g3
S'Adele'
p1686
sg5
I1
sg6
S'https://open.spotify.com/track/60jkAyuEyOnQKlrppOTYYx'
p1687
sg8
S'River Lea'
p1688
ssS'5r011NB07RHjABbuVGVIbd'
p1689
(dp1690
g3
S'Lorde'
p1691
sg5
I9
sg6
S'https://open.spotify.com/track/5r011NB07RHjABbuVGVIbd'
p1692
sg8
S'The Louvre'
p1693
ssS'6TaqooOXAEcijL6G1AWS2K'
p1694
(dp1695
g3
S'Snakehips'
p1696
sg5
I23
sg6
S'https://open.spotify.com/track/6TaqooOXAEcijL6G1AWS2K'
p1697
sg8
S'All My Friends'
p1698
ssS'5MFzQMkrl1FOOng9tq6R9r'
p1699
(dp1700
g3
S'Maroon 5'
p1701
sg5
I30
sg6
S'https://open.spotify.com/track/5MFzQMkrl1FOOng9tq6R9r'
p1702
sg8
S"Don't Wanna Know"
p1703
ssS'5Z3GHaZ6ec9bsiI5BenrbY'
p1704
(dp1705
g3
S'Khalid'
p1706
sg5
I16
sg6
S'https://open.spotify.com/track/5Z3GHaZ6ec9bsiI5BenrbY'
p1707
sg8
S'Young Dumb & Broke'
p1708
ssS'3FDrI0FLKzrYQiWxPhqV2W'
p1709
(dp1710
g3
S'Calvin Harris'
p1711
sg5
I4
sg6
S'https://open.spotify.com/track/3FDrI0FLKzrYQiWxPhqV2W'
p1712
sg8
S'Rollin'
p1713
ssS'1FgmP7AOTcn7MGYmImj0kn'
p1714
(dp1715
g3
S'Macklemore'
p1716
sg5
I1
sg6
S'https://open.spotify.com/track/1FgmP7AOTcn7MGYmImj0kn'
p1717
sg8
S"Ain't Gonna Die Tonight (feat. Eric Nally)"
p1718
ssS'7FCfMXYTIiQ9b4hDYs4Iol'
p1719
(dp1720
g3
S'Dua Lipa'
p1721
sg5
I5
sg6
S'https://open.spotify.com/track/7FCfMXYTIiQ9b4hDYs4Iol'
p1722
sg8
S'Be The One'
p1723
ssS'6eT7xZZlB2mwyzJ2sUKG6w'
p1724
(dp1725
g3
S'Post Malone'
p1726
sg5
I33
sg6
S'https://open.spotify.com/track/6eT7xZZlB2mwyzJ2sUKG6w'
p1727
sg8
S'White Iverson'
p1728
ssS'1WP1r7fuvRqZRnUaTi2I1Q'
p1729
(dp1730
g3
S'Shawn Mendes'
p1731
sg5
I4
sg6
S'https://open.spotify.com/track/1WP1r7fuvRqZRnUaTi2I1Q'
p1732
sg8
S'Stitches'
p1733
ssS'32OlwWuMpZ6b0aN2RZOeMS'
p1734
(dp1735
g3
S'Mark Ronson'
p1736
sg5
I20
sg6
S'https://open.spotify.com/track/32OlwWuMpZ6b0aN2RZOeMS'
p1737
sg8
S'Uptown Funk'
p1738
ssS'0v9Wz8o0BT8DU38R4ddjeH'
p1739
(dp1740
g3
S'Chance The Rapper'
p1741
sg5
I18
sg6
S'https://open.spotify.com/track/0v9Wz8o0BT8DU38R4ddjeH'
p1742
sg8
S'No Problem (feat. Lil Wayne & 2 Chainz)'
p1743
ssS'0eZBeB2xFIS65jQHerispi'
p1744
(dp1745
g3
S'Disturbed'
p1746
sg5
I5
sg6
S'https://open.spotify.com/track/0eZBeB2xFIS65jQHerispi'
p1747
sg8
S'The Sound Of Silence'
p1748
ssS'6SlJooJullmwjBsrnRNROA'
p1749
(dp1750
g3
S'Bliss n Eso'
p1751
sg5
I28
sg6
S'https://open.spotify.com/track/6SlJooJullmwjBsrnRNROA'
p1752
sg8
S'Moments (feat. Gavin James)'
p1753
ssS'5QqyRUZeBE04yJxsD1OC0I'
p1754
(dp1755
g3
S'Lana Del Rey'
p1756
sg5
I1
sg6
S'https://open.spotify.com/track/5QqyRUZeBE04yJxsD1OC0I'
p1757
sg8
S'Summer Bummer (feat. A$AP Rocky & Playboi Carti)'
p1758
ssS'2jTujnt0y344ai1rNOywgr'
p1759
(dp1760
g3
S'Drake'
p1761
sg5
I3
sg6
S'https://open.spotify.com/track/2jTujnt0y344ai1rNOywgr'
p1762
sg8
S'KMT'
p1763
ssS'6pVW5LRWgeLaHudxauOTJU'
p1764
(dp1765
g3
S'Daryl Hall & John Oates'
p1766
sg5
I1
sg6
S'https://open.spotify.com/track/6pVW5LRWgeLaHudxauOTJU'
p1767
sg8
S'Jingle Bell Rock from Daryl'
p1768
ssS'6gBFPUFcJLzWGx4lenP6h2'
p1769
(dp1770
g3
S'Travis Scott'
p1771
sg5
I40
sg6
S'https://open.spotify.com/track/6gBFPUFcJLzWGx4lenP6h2'
p1772
sg8
S'goosebumps'
p1773
ssS'7zgqtptZvhf8GEmdsM2vp2'
p1774
(dp1775
g3
S'Taylor Swift'
p1776
sg5
I1
sg6
S'https://open.spotify.com/track/7zgqtptZvhf8GEmdsM2vp2'
p1777
sg8
S'...Ready For It?'
p1778
ssS'3UDXkdQquqCEAJdNAsA1wO'
p1779
(dp1780
g3
S'Cash Cash'
p1781
sg5
I5
sg6
S'https://open.spotify.com/track/3UDXkdQquqCEAJdNAsA1wO'
p1782
sg8
S'Millionaire (feat. Nelly)'
p1783
ssS'2374M0fQpWi3dLnB54qaLX'
p1784
(dp1785
g3
S'Toto'
p1786
sg5
I2
sg6
S'https://open.spotify.com/track/2374M0fQpWi3dLnB54qaLX'
p1787
sg8
S'Africa'
p1788
ssS'3S0OXQeoh0w6AY8WQVckRW'
p1789
(dp1790
g3
S'Jason Mraz'
p1791
sg5
I2
sg6
S'https://open.spotify.com/track/3S0OXQeoh0w6AY8WQVckRW'
p1792
sg8
S"I'm Yours"
p1793
ssS'7AQim7LbvFVZJE3O8TYgf2'
p1794
(dp1795
g3
S'XXXTENTACION'
p1796
sg5
I7
sg6
S'https://open.spotify.com/track/7AQim7LbvFVZJE3O8TYgf2'
p1797
sg8
S'Fuck Love (feat. Trippie Redd)'
p1798
ssS'7vFoFDWqTX0mHzLfrF1Cfy'
p1799
(dp1800
g3
S'OMI'
p1801
sg5
I8
sg6
S'https://open.spotify.com/track/7vFoFDWqTX0mHzLfrF1Cfy'
p1802
sg8
S'Cheerleader - Felix Jaehn Remix Radio Edit'
p1803
ssS'6O8I0ffpEtyMQmMYo0bj4N'
p1804
(dp1805
g3
S'Justin Bieber'
p1806
sg5
I1
sg6
S'https://open.spotify.com/track/6O8I0ffpEtyMQmMYo0bj4N'
p1807
sg8
S'Children'
p1808
ssS'6cPyTS0Kk2sc4xQwC93kOg'
p1809
(dp1810
g3
S'The Chainsmokers'
p1811
sg5
I4
sg6
S'https://open.spotify.com/track/6cPyTS0Kk2sc4xQwC93kOg'
p1812
sg8
S'Break Up Every Night'
p1813
ssS'6eUncuJutsFi9BGO1JaBHh'
p1814
(dp1815
g3
S'Jason Derulo'
p1816
sg5
I6
sg6
S'https://open.spotify.com/track/6eUncuJutsFi9BGO1JaBHh'
p1817
sg8
S"If I'm Lucky"
p1818
ssS'31MkGwj0SWgZaTvEt5Hgxv'
p1819
(dp1820
g3
S'P!nk'
p1821
sg5
I9
sg6
S'https://open.spotify.com/track/31MkGwj0SWgZaTvEt5Hgxv'
p1822
sg8
S'What About Us'
p1823
ssS'0PDUDa38GO8lMxLCRc4lL1'
p1824
(dp1825
g3
S'ZAYN'
p1826
sg5
I13
sg6
S'https://open.spotify.com/track/0PDUDa38GO8lMxLCRc4lL1'
p1827
sg8
S'PILLOWTALK'
p1828
ssS'60lwJa695S26FsYbhCVFVa'
p1829
(dp1830
g3
S'Astrid S'
p1831
sg5
I2
sg6
S'https://open.spotify.com/track/60lwJa695S26FsYbhCVFVa'
p1832
sg8
S'Hurts So Good'
p1833
ssS'3pC1ILr9KzmQLMe8Kn5QBG'
p1834
(dp1835
g3
S'DJ Khaled'
p1836
sg5
I1
sg6
S'https://open.spotify.com/track/3pC1ILr9KzmQLMe8Kn5QBG'
p1837
sg8
S'To the Max'
p1838
ssS'6LOCAhFzZiavHcLJucLuDy'
p1839
(dp1840
g3
S'DJ Khaled'
p1841
sg5
I1
sg6
S'https://open.spotify.com/track/6LOCAhFzZiavHcLJucLuDy'
p1842
sg8
S"Don't Quit"
p1843
ssS'35QZaWQRkmnAVqBF1TLCxQ'
p1844
(dp1845
g3
S'Ed Sheeran'
p1846
sg5
I15
sg6
S'https://open.spotify.com/track/35QZaWQRkmnAVqBF1TLCxQ'
p1847
sg8
S'Nancy Mulligan'
p1848
ssS'1e1JKLEDKP7hEQzJfNAgPl'
p1849
(dp1850
g3
S'Playboi Carti'
p1851
sg5
I19
sg6
S'https://open.spotify.com/track/1e1JKLEDKP7hEQzJfNAgPl'
p1852
sg8
S'Magnolia'
p1853
ssS'5q4BpnMrYEFzLO0dYODj6J'
p1854
(dp1855
g3
S'Lorde'
p1856
sg5
I1
sg6
S'https://open.spotify.com/track/5q4BpnMrYEFzLO0dYODj6J'
p1857
sg8
S'The Louvre'
p1858
ssS'3VRk65lHSwqd90TAkQqhvB'
p1859
(dp1860
g3
S'Katy Perry'
p1861
sg5
I2
sg6
S'https://open.spotify.com/track/3VRk65lHSwqd90TAkQqhvB'
p1862
sg8
S'Swish Swish'
p1863
ssS'5eqK0tbzUPo2SoeZsov04s'
p1864
(dp1865
g3
S'21 Savage'
p1866
sg5
I10
sg6
S'https://open.spotify.com/track/5eqK0tbzUPo2SoeZsov04s'
p1867
sg8
S'Bank Account'
p1868
ssS'2MHCiOohBZEQuLgDTPvSzF'
p1869
(dp1870
g3
S'Galantis'
p1871
sg5
I12
sg6
S'https://open.spotify.com/track/2MHCiOohBZEQuLgDTPvSzF'
p1872
sg8
S'Love On Me'
p1873
ssS'0rlFL6bxIWcCn9gk9GExFA'
p1874
(dp1875
g3
S'Ty Dolla $ign'
p1876
sg5
I8
sg6
S'https://open.spotify.com/track/0rlFL6bxIWcCn9gk9GExFA'
p1877
sg8
S'Love U Better (feat. Lil Wayne & The-Dream)'
p1878
ssS'3kxfsdsCpFgN412fpnW85Y'
p1879
(dp1880
g3
S'Childish Gambino'
p1881
sg5
I42
sg6
S'https://open.spotify.com/track/3kxfsdsCpFgN412fpnW85Y'
p1882
sg8
S'Redbone'
p1883
ssS'5hTpBe8h35rJ67eAWHQsJx'
p1884
(dp1885
g3
S'Amin\xc3\xa9'
p1886
sg5
I12
sg6
S'https://open.spotify.com/track/5hTpBe8h35rJ67eAWHQsJx'
p1887
sg8
S'Caroline'
p1888
ssS'2LawezPeJhN4AWuSB0GtAU'
p1889
(dp1890
g3
S'Creedence Clearwater Revival'
p1891
sg5
I2
sg6
S'https://open.spotify.com/track/2LawezPeJhN4AWuSB0GtAU'
p1892
sg8
S'Have You Ever Seen The Rain?'
p1893
ssS'0vbbhcA6okLzvsy6WSTlLg'
p1894
(dp1895
g3
S'Rudimental'
p1896
sg5
I5
sg6
S'https://open.spotify.com/track/0vbbhcA6okLzvsy6WSTlLg'
p1897
sg8
S'Lay It All On Me (feat. Ed Sheeran)'
p1898
ssS'4sPmO7WMQUAf45kwMOtONw'
p1899
(dp1900
g3
S'Adele'
p1901
sg5
I36
sg6
S'https://open.spotify.com/track/4sPmO7WMQUAf45kwMOtONw'
p1902
sg8
S'Hello'
p1903
ssS'1j4kHkkpqZRBwE0A4CN4Yv'
p1904
(dp1905
g3
S'ZAYN'
p1906
sg5
I5
sg6
S'https://open.spotify.com/track/1j4kHkkpqZRBwE0A4CN4Yv'
p1907
sg8
S'Dusk Till Dawn - Radio Edit'
p1908
ssS'0wfbD5rAksdXUzRvMfM3x5'
p1909
(dp1910
g3
S'The Chainsmokers'
p1911
sg5
I10
sg6
S'https://open.spotify.com/track/0wfbD5rAksdXUzRvMfM3x5'
p1912
sg8
S'The One'
p1913
ssS'6BaCraQ9xeLYg4Sb9TBT2X'
p1914
(dp1915
g3
S'Calvin Harris'
p1916
sg5
I1
sg6
S'https://open.spotify.com/track/6BaCraQ9xeLYg4Sb9TBT2X'
p1917
sg8
S'Feels'
p1918
ssS'7ARveOiD31w2Nq0n5FsSf8'
p1919
(dp1920
g3
S'Lorde'
p1921
sg5
I1
sg6
S'https://open.spotify.com/track/7ARveOiD31w2Nq0n5FsSf8'
p1922
sg8
S'Perfect Places'
p1923
ssS'6875MeXyCW0wLyT72Eetmo'
p1924
(dp1925
g3
S'Hailee Steinfeld'
p1926
sg5
I7
sg6
S'https://open.spotify.com/track/6875MeXyCW0wLyT72Eetmo'
p1927
sg8
S'Starving'
p1928
ssS'6Knv6wdA0luoMUuuoYi2i1'
p1929
(dp1930
g3
S'Flo Rida'
p1931
sg5
I4
sg6
S'https://open.spotify.com/track/6Knv6wdA0luoMUuuoYi2i1'
p1932
sg8
S'My House'
p1933
ssS'6gTJaPuj8DT8RjuDJyBgzP'
p1934
(dp1935
g3
S'Ed Sheeran'
p1936
sg5
I3
sg6
S'https://open.spotify.com/track/6gTJaPuj8DT8RjuDJyBgzP'
p1937
sg8
S"Don't"
p1938
ssS'3T7dNA7O8c3Axj5WyDNcH3'
p1939
(dp1940
g3
S'Brenda Lee'
p1941
sg5
I1
sg6
S'https://open.spotify.com/track/3T7dNA7O8c3Axj5WyDNcH3'
p1942
sg8
S"Rockin' Around The Christmas Tree - Single Version"
p1943
ssS'5q5gzmbBS5yQzos2BvVr1t'
p1944
(dp1945
g3
S'M\xc3\x98'
p1946
sg5
I21
sg6
S'https://open.spotify.com/track/5q5gzmbBS5yQzos2BvVr1t'
p1947
sg8
S'Nights With You'
p1948
ssS'3DXncPQOG4VBw3QHh3S817'
p1949
(dp1950
g3
S'DJ Khaled'
p1951
sg5
I20
sg6
S'https://open.spotify.com/track/3DXncPQOG4VBw3QHh3S817'
p1952
sg8
S"I'm the One"
p1953
ssS'5Lbsc65org0b85kNsPkluY'
p1954
(dp1955
g3
S'Harry Styles'
p1956
sg5
I2
sg6
S'https://open.spotify.com/track/5Lbsc65org0b85kNsPkluY'
p1957
sg8
S'Only Angel'
p1958
ssS'6mapJIPnQ23RTAevUoE0DL'
p1959
(dp1960
g3
S'Rae Sremmurd'
p1961
sg5
I23
sg6
S'https://open.spotify.com/track/6mapJIPnQ23RTAevUoE0DL'
p1962
sg8
S'Swang'
p1963
ssS'51w95jAPQDOWN3M7xopWWh'
p1964
(dp1965
g3
S'Logan Paul'
p1966
sg5
I3
sg6
S'https://open.spotify.com/track/51w95jAPQDOWN3M7xopWWh'
p1967
sg8
S"Help Me Help You (feat. Why Don't We)"
p1968
ssS'6mORGLOz79w6VsCRLWYYuK'
p1969
(dp1970
g3
S'Lord Huron'
p1971
sg5
I19
sg6
S'https://open.spotify.com/track/6mORGLOz79w6VsCRLWYYuK'
p1972
sg8
S'The Night We Met'
p1973
ssS'5aAx2yezTd8zXrkmtKl66Z'
p1974
(dp1975
g3
S'The Weeknd'
p1976
sg5
I42
sg6
S'https://open.spotify.com/track/5aAx2yezTd8zXrkmtKl66Z'
p1977
sg8
S'Starboy'
p1978
ssS'2BrzlUj1u1CtvaJDGIKpsP'
p1979
(dp1980
g3
S'Noah Cyrus'
p1981
sg5
I12
sg6
S'https://open.spotify.com/track/2BrzlUj1u1CtvaJDGIKpsP'
p1982
sg8
S'Make Me (Cry)'
p1983
ssS'1SJtlNRJDeYHioymcvsqev'
p1984
(dp1985
g3
S'Camila Cabello'
p1986
sg5
I21
sg6
S'https://open.spotify.com/track/1SJtlNRJDeYHioymcvsqev'
p1987
sg8
S'Crying in the Club'
p1988
ssS'0Wv5wuenRLI3BcwgT3HPIP'
p1989
(dp1990
g3
S'DJ Snake'
p1991
sg5
I3
sg6
S'https://open.spotify.com/track/0Wv5wuenRLI3BcwgT3HPIP'
p1992
sg8
S'A Different Way (with Lauv)'
p1993
ssS'04DwTuZ2VBdJCCC5TROn7L'
p1994
(dp1995
g3
S'Martin Garrix'
p1996
sg5
I29
sg6
S'https://open.spotify.com/track/04DwTuZ2VBdJCCC5TROn7L'
p1997
sg8
S'In the Name of Love'
p1998
ssS'4fzyvSu73BhGvi96p2zwjL'
p1999
(dp2000
g3
S'Coldplay'
p2001
sg5
I1
sg6
S'https://open.spotify.com/track/4fzyvSu73BhGvi96p2zwjL'
p2002
sg8
S'Christmas Lights'
p2003
ssS'7bJ4mu7MHa3rHiNyKjOoSl'
p2004
(dp2005
g3
S'Drake'
p2006
sg5
I2
sg6
S'https://open.spotify.com/track/7bJ4mu7MHa3rHiNyKjOoSl'
p2007
sg8
S'Ice Melts'
p2008
ssS'0pSBuHjILhNEo55xK1zrRt'
p2009
(dp2010
g3
S'Ayo & Teo'
p2011
sg5
I19
sg6
S'https://open.spotify.com/track/0pSBuHjILhNEo55xK1zrRt'
p2012
sg8
S'Rolex'
p2013
ssS'4JAyIDXOqNM6qHuZML01uX'
p2014
(dp2015
g3
g1227
sg5
I1
sg6
S'https://open.spotify.com/track/4JAyIDXOqNM6qHuZML01uX'
p2016
sg8
g1227
ssS'6VRghJeP6I0w1KxkdWFfIh'
p2017
(dp2018
g3
S'Imagine Dragons'
p2019
sg5
I3
sg6
S'https://open.spotify.com/track/6VRghJeP6I0w1KxkdWFfIh'
p2020
sg8
S'Believer'
p2021
ssS'1B0DvDgNgvmccdfdEK4wB5'
p2022
(dp2023
g3
S'Pitbull'
p2024
sg5
I32
sg6
S'https://open.spotify.com/track/1B0DvDgNgvmccdfdEK4wB5'
p2025
sg8
S'Options'
p2026
ssS'6SznMYPQJHzr3IwsAHLId2'
p2027
(dp2028
g3
S'Ed Sheeran'
p2029
sg5
I12
sg6
S'https://open.spotify.com/track/6SznMYPQJHzr3IwsAHLId2'
p2030
sg8
S'Bibia Be Ye Ye'
p2031
ssS'5xbrhx2tMMcN68IT3cJbhS'
p2032
(dp2033
g3
S'XXXTENTACION'
p2034
sg5
I1
sg6
S'https://open.spotify.com/track/5xbrhx2tMMcN68IT3cJbhS'
p2035
sg8
S'Ayala (Outro)'
p2036
ssS'3GgT5Au03iV45iGfTpzdhu'
p2037
(dp2038
g3
S'Meek Mill'
p2039
sg5
I6
sg6
S'https://open.spotify.com/track/3GgT5Au03iV45iGfTpzdhu'
p2040
sg8
S'Whatever You Need (feat. Chris Brown & Ty Dolla $ign)'
p2041
ssS'0NiXXAI876aGImAd6rTj8w'
p2042
(dp2043
g3
S'Jonas Blue'
p2044
sg5
I14
sg6
S'https://open.spotify.com/track/0NiXXAI876aGImAd6rTj8w'
p2045
sg8
S'Mama'
p2046
ssS'0y8Wf6ltWpGCpgqVa21QNX'
p2047
(dp2048
g3
S'Charli XCX'
p2049
sg5
I4
sg6
S'https://open.spotify.com/track/0y8Wf6ltWpGCpgqVa21QNX'
p2050
sg8
S'After The Afterparty (feat. Lil Yachty)'
p2051
ssS'0mBKv9DkYfQHjdMcw2jdyI'
p2052
(dp2053
g3
S'Bruno Mars'
p2054
sg5
I30
sg6
S'https://open.spotify.com/track/0mBKv9DkYfQHjdMcw2jdyI'
p2055
sg8
S'Chunky'
p2056
ssS'4BJ5T8ZZZ3UrPG7k0OVQrp'
p2057
(dp2058
g3
S'Little Mix'
p2059
sg5
I12
sg6
S'https://open.spotify.com/track/4BJ5T8ZZZ3UrPG7k0OVQrp'
p2060
sg8
S'Power (feat. Stormzy)'
p2061
ssS'1n4jwRVXdkK2U34nBDUKKT'
p2062
(dp2063
g3
S'Kendrick Lamar'
p2064
sg5
I3
sg6
S'https://open.spotify.com/track/1n4jwRVXdkK2U34nBDUKKT'
p2065
sg8
S'BLOOD.'
p2066
ssS'7ynCQo1KpBOyTdTdAnjSLZ'
p2067
(dp2068
g3
S'Sia'
p2069
sg5
I13
sg6
S'https://open.spotify.com/track/7ynCQo1KpBOyTdTdAnjSLZ'
p2070
sg8
S'Move Your Body - Single Mix'
p2071
ssS'5uBK8Ap1BCEc4GgMcEjeic'
p2072
(dp2073
g3
S'Sticky Fingers'
p2074
sg5
I3
sg6
S'https://open.spotify.com/track/5uBK8Ap1BCEc4GgMcEjeic'
p2075
sg8
S'Rum Rage'
p2076
ssS'5Ohxk2dO5COHF1krpoPigN'
p2077
(dp2078
g3
S'Harry Styles'
p2079
sg5
I27
sg6
S'https://open.spotify.com/track/5Ohxk2dO5COHF1krpoPigN'
p2080
sg8
S'Sign of the Times'
p2081
ssS'6B14wYcEpWhyDvxWRb9Df8'
p2082
(dp2083
g3
S'Michael Bubl\xc3\xa9'
p2084
sg5
I1
sg6
S'https://open.spotify.com/track/6B14wYcEpWhyDvxWRb9Df8'
p2085
sg8
S'Silent Night'
p2086
ssS'0ofHAoxe9vBkTCp2UQIavz'
p2087
(dp2088
g3
S'Fleetwood Mac'
p2089
sg5
I12
sg6
S'https://open.spotify.com/track/0ofHAoxe9vBkTCp2UQIavz'
p2090
sg8
S'Dreams - 2004 Remastered Edition'
p2091
ssS'7Kq16WtEJzdRSNQgdXsn7Y'
p2092
(dp2093
g3
S'Mura Masa'
p2094
sg5
I14
sg6
S'https://open.spotify.com/track/7Kq16WtEJzdRSNQgdXsn7Y'
p2095
sg8
S'Love$ick (feat. A$AP Rocky)'
p2096
ssS'4mxWSdf71VFO52qFeY0fZt'
p2097
(dp2098
g3
S'Maroon 5'
p2099
sg5
I6
sg6
S'https://open.spotify.com/track/4mxWSdf71VFO52qFeY0fZt'
p2100
sg8
S'What Lovers Do (feat. SZA)'
p2101
ssS'1ADjWm8QNhgNV8yCNNgQ1T'
p2102
(dp2103
g3
S'Ariana Grande'
p2104
sg5
I1
sg6
S'https://open.spotify.com/track/1ADjWm8QNhgNV8yCNNgQ1T'
p2105
sg8
S'Santa Tell Me'
p2106
ssS'4Hf7WnR761jpxPr5D46Bcd'
p2107
(dp2108
g3
S'Shawn Mendes'
p2109
sg5
I38
sg6
S'https://open.spotify.com/track/4Hf7WnR761jpxPr5D46Bcd'
p2110
sg8
S'Treat You Better'
p2111
ssS'4fhVodXZARPX0oTuQh8V9l'
p2112
(dp2113
g3
S'Astrid S'
p2114
sg5
I2
sg6
S'https://open.spotify.com/track/4fhVodXZARPX0oTuQh8V9l'
p2115
sg8
S'Breathe'
p2116
ssS'0dXNQ8dckG4eYfEtq9zcva'
p2117
(dp2118
g3
S'The Vamps'
p2119
sg5
I1
sg6
S'https://open.spotify.com/track/0dXNQ8dckG4eYfEtq9zcva'
p2120
sg8
S'All Night'
p2121
ssS'1Tt4sE4pXi57mTD1GCzsqm'
p2122
(dp2123
g3
S'Rihanna'
p2124
sg5
I20
sg6
S'https://open.spotify.com/track/1Tt4sE4pXi57mTD1GCzsqm'
p2125
sg8
S'Needed Me'
p2126
ssS'6Ius4TC0L3cN74HT7ENE6e'
p2127
(dp2128
g3
S'J. Cole'
p2129
sg5
I32
sg6
S'https://open.spotify.com/track/6Ius4TC0L3cN74HT7ENE6e'
p2130
sg8
S'Wet Dreamz'
p2131
ssS'1MksGqIztTT6M9R1ErKVs8'
p2132
(dp2133
g3
S'Big Sean'
p2134
sg5
I3
sg6
S'https://open.spotify.com/track/1MksGqIztTT6M9R1ErKVs8'
p2135
sg8
S'No Favors'
p2136
ssS'1EaKU4dMbesXXd3BrLCtYG'
p2137
(dp2138
g3
S'Kendrick Lamar'
p2139
sg5
I19
sg6
S'https://open.spotify.com/track/1EaKU4dMbesXXd3BrLCtYG'
p2140
sg8
S'ELEMENT.'
p2141
ssS'2Ce5IyMlVRVvN997ZJjJJA'
p2142
(dp2143
g3
S'Future'
p2144
sg5
I33
sg6
S'https://open.spotify.com/track/2Ce5IyMlVRVvN997ZJjJJA'
p2145
sg8
S'Selfish'
p2146
ssS'2qoZNAP3JLyIOtbsPtBjvV'
p2147
(dp2148
g3
S'Stevie Wonder'
p2149
sg5
I1
sg6
S'https://open.spotify.com/track/2qoZNAP3JLyIOtbsPtBjvV'
p2150
sg8
S'What Christmas Means To Me'
p2151
ssS'5knuzwU65gJK7IF5yJsuaW'
p2152
(dp2153
g3
S'Clean Bandit'
p2154
sg5
I42
sg6
S'https://open.spotify.com/track/5knuzwU65gJK7IF5yJsuaW'
p2155
sg8
S'Rockabye (feat. Sean Paul & Anne-Marie)'
p2156
ssS'7aF09WaavZAmAWuUeYxlYD'
p2157
(dp2158
g3
S'OneRepublic'
p2159
sg5
I12
sg6
S'https://open.spotify.com/track/7aF09WaavZAmAWuUeYxlYD'
p2160
sg8
S'Rich Love (with Seeb)'
p2161
ssS'2UwbhMie1EAYuTZ0QXeMwl'
p2162
(dp2163
g3
S'XXXTENTACION'
p2164
sg5
I3
sg6
S'https://open.spotify.com/track/2UwbhMie1EAYuTZ0QXeMwl'
p2165
sg8
S'Save Me'
p2166
ssS'14WWzenpaEgQZlqPq2nk4v'
p2167
(dp2168
g3
S'Rihanna'
p2169
sg5
I12
sg6
S'https://open.spotify.com/track/14WWzenpaEgQZlqPq2nk4v'
p2170
sg8
S'Work'
p2171
ssS'36YCdzT57us0LhDmCYtrNE'
p2172
(dp2173
g3
S'The Weeknd'
p2174
sg5
I4
sg6
S'https://open.spotify.com/track/36YCdzT57us0LhDmCYtrNE'
p2175
sg8
S'Rockin\xe2\x80\x99'
p2176
ssS'6b8Be6ljOzmkOmFslEb23P'
p2177
(dp2178
g3
S'Bruno Mars'
p2179
sg5
I42
sg6
S'https://open.spotify.com/track/6b8Be6ljOzmkOmFslEb23P'
p2180
sg8
S'24K Magic'
p2181
ssS'1IF5UcqRO42D12vYwceOY6'
p2182
(dp2183
g3
S'Harry Styles'
p2184
sg5
I2
sg6
S'https://open.spotify.com/track/1IF5UcqRO42D12vYwceOY6'
p2185
sg8
S'From the Dining Table'
p2186
ssS'0bYg9bo50gSsH3LtXe2SQn'
p2187
(dp2188
g3
S'Mariah Carey'
p2189
sg5
I1
sg6
S'https://open.spotify.com/track/0bYg9bo50gSsH3LtXe2SQn'
p2190
sg8
S'All I Want for Christmas Is You'
p2191
ssS'7GgQi7JTG4b6J4iEF4RTjF'
p2192
(dp2193
g3
S'Adele'
p2194
sg5
I1
sg6
S'https://open.spotify.com/track/7GgQi7JTG4b6J4iEF4RTjF'
p2195
sg8
S'Remedy'
p2196
ssS'4so0Wek9Ig1p6CRCHuINwW'
p2197
(dp2198
g3
S'Bing Crosby'
p2199
sg5
I1
sg6
S'https://open.spotify.com/track/4so0Wek9Ig1p6CRCHuINwW'
p2200
sg8
S'White Christmas'
p2201
ssS'4FPrAERfkPKOBKrRoyuxLu'
p2202
(dp2203
g3
S'Michael Bubl\xc3\xa9'
p2204
sg5
I1
sg6
S'https://open.spotify.com/track/4FPrAERfkPKOBKrRoyuxLu'
p2205
sg8
S'Cold December Night'
p2206
ssS'4u9Y4Z9i9VaAbBK7rW1Rha'
p2207
(dp2208
g3
S'Harry Styles'
p2209
sg5
I2
sg6
S'https://open.spotify.com/track/4u9Y4Z9i9VaAbBK7rW1Rha'
p2210
sg8
S'Meet Me in the Hallway'
p2211
ssS'23luOrEVHMfoX0AhfbQuS6'
p2212
(dp2213
g3
S'Kendrick Lamar'
p2214
sg5
I4
sg6
S'https://open.spotify.com/track/23luOrEVHMfoX0AhfbQuS6'
p2215
sg8
S'FEAR.'
p2216
ssS'3TRFq09DUgYj1mug6RRqJW'
p2217
(dp2218
g3
S'Luke Christopher'
p2219
sg5
I5
sg6
S'https://open.spotify.com/track/3TRFq09DUgYj1mug6RRqJW'
p2220
sg8
S'Lot to Learn'
p2221
ssS'5DA77EqppDmCTWGovd4oTP'
p2222
(dp2223
g3
S'Cheat Codes'
p2224
sg5
I5
sg6
S'https://open.spotify.com/track/5DA77EqppDmCTWGovd4oTP'
p2225
sg8
S'Sex'
p2226
ssS'4h90qkbnW1Qq6pBhoPvwko'
p2227
(dp2228
g3
S'The Weeknd'
p2229
sg5
I7
sg6
S'https://open.spotify.com/track/4h90qkbnW1Qq6pBhoPvwko'
p2230
sg8
S'Sidewalks'
p2231
ssS'6HZILIRieu8S0iqY8kIKhj'
p2232
(dp2233
g3
S'Kendrick Lamar'
p2234
sg5
I26
sg6
S'https://open.spotify.com/track/6HZILIRieu8S0iqY8kIKhj'
p2235
sg8
S'DNA.'
p2236
ssS'7F9vK8hNFMml4GtHsaXui6'
p2237
(dp2238
g3
S'Louis Tomlinson'
p2239
sg5
I12
sg6
S'https://open.spotify.com/track/7F9vK8hNFMml4GtHsaXui6'
p2240
sg8
S'Back to You (feat. Bebe Rexha & Digital Farm Animals)'
p2241
ssS'7yq4Qj7cqayVTp3FF9CWbm'
p2242
(dp2243
g3
S'Vance Joy'
p2244
sg5
I40
sg6
S'https://open.spotify.com/track/7yq4Qj7cqayVTp3FF9CWbm'
p2245
sg8
S'Riptide'
p2246
ssS'3fqwjXwUGN6vbzIwvyFMhx'
p2247
(dp2248
g3
S'Chris Stapleton'
p2249
sg5
I36
sg6
S'https://open.spotify.com/track/3fqwjXwUGN6vbzIwvyFMhx'
p2250
sg8
S'Tennessee Whiskey'
p2251
ssS'0B48113ZG9UfkWWt7qD9xX'
p2252
(dp2253
g3
S'Miley Cyrus'
p2254
sg5
I6
sg6
S'https://open.spotify.com/track/0B48113ZG9UfkWWt7qD9xX'
p2255
sg8
S'Younger Now'
p2256
ssS'1Bqxj0aH5KewYHKUg1IdrF'
p2257
(dp2258
g3
S'G-Eazy'
p2259
sg5
I9
sg6
S'https://open.spotify.com/track/1Bqxj0aH5KewYHKUg1IdrF'
p2260
sg8
S'Some Kind Of Drug'
p2261
ssS'3d9JucRI60arArgQXqtfjJ'
p2262
(dp2263
g3
S'Alesso'
p2264
sg5
I1
sg6
S'https://open.spotify.com/track/3d9JucRI60arArgQXqtfjJ'
p2265
sg8
S'Falling'
p2266
ssS'2H3wWrnO758y0fPH7Ilerg'
p2267
(dp2268
g3
S'XXXTENTACION'
p2269
sg5
I4
sg6
S'https://open.spotify.com/track/2H3wWrnO758y0fPH7Ilerg'
p2270
sg8
S'Depression & Obsession'
p2271
ssS'3rOSwuTsUlJp0Pu0MkN8r8'
p2272
(dp2273
g3
S'Future'
p2274
sg5
I32
sg6
S'https://open.spotify.com/track/3rOSwuTsUlJp0Pu0MkN8r8'
p2275
sg8
S'Mask Off'
p2276
ssS'6gpcs5eMhJwax4mIfKDYQk'
p2277
(dp2278
g3
S'Calvin Harris'
p2279
sg5
I4
sg6
S'https://open.spotify.com/track/6gpcs5eMhJwax4mIfKDYQk'
p2280
sg8
S'Slide'
p2281
ssS'5bcTCxgc7xVfSaMV3RuVke'
p2282
(dp2283
g3
S'Calvin Harris'
p2284
sg5
I16
sg6
S'https://open.spotify.com/track/5bcTCxgc7xVfSaMV3RuVke'
p2285
sg8
S'Feels'
p2286
ssS'0QsvXIfqM0zZoerQfsI9lm'
p2287
(dp2288
g3
S'The Chainsmokers'
p2289
sg5
I42
sg6
S'https://open.spotify.com/track/0QsvXIfqM0zZoerQfsI9lm'
p2290
sg8
S"Don't Let Me Down"
p2291
ssS'7w87IxuO7BDcJ3YUqCyMTT'
p2292
(dp2293
g3
S'Foster The People'
p2294
sg5
I15
sg6
S'https://open.spotify.com/track/7w87IxuO7BDcJ3YUqCyMTT'
p2295
sg8
S'Pumped Up Kicks'
p2296
ssS'7cGFbx7MP0H23iHZTZpqMM'
p2297
(dp2298
g3
S'Logic'
p2299
sg5
I10
sg6
S'https://open.spotify.com/track/7cGFbx7MP0H23iHZTZpqMM'
p2300
sg8
S'Everybody'
p2301
ssS'0fioLzGM8ngbD1w6fMmm45'
p2302
(dp2303
g3
S'Sam Smith'
p2304
sg5
I6
sg6
S'https://open.spotify.com/track/0fioLzGM8ngbD1w6fMmm45'
p2305
sg8
S"I'm Not The Only One"
p2306
ssS'4qqArAiTPueDxIp7cf87h7'
p2307
(dp2308
g3
S'M\xc3\x98'
p2309
sg5
I18
sg6
S'https://open.spotify.com/track/4qqArAiTPueDxIp7cf87h7'
p2310
sg8
S'Final Song'
p2311
ssS'5hslUAKq9I9CG2bAulFkHN'
p2312
(dp2313
g3
S'Andy Williams'
p2314
sg5
I1
sg6
S'https://open.spotify.com/track/5hslUAKq9I9CG2bAulFkHN'
p2315
sg8
S"It's the Most Wonderful Time of the Year"
p2316
ssS'2nLtzopw4rPReszdYBJU6h'
p2317
(dp2318
g3
S'Linkin Park'
p2319
sg5
I2
sg6
S'https://open.spotify.com/track/2nLtzopw4rPReszdYBJU6h'
p2320
sg8
S'Numb'
p2321
ssS'2PpruBYCo4H7WOBJ7Q2EwM'
p2322
(dp2323
g3
S'OutKast'
p2324
sg5
I3
sg6
S'https://open.spotify.com/track/2PpruBYCo4H7WOBJ7Q2EwM'
p2325
sg8
S'Hey Ya! - Radio Mix / Club Mix'
p2326
ssS'3a1lNhkSLSkpJE4MSHpDu9'
p2327
(dp2328
g3
S'Post Malone'
p2329
sg5
I36
sg6
S'https://open.spotify.com/track/3a1lNhkSLSkpJE4MSHpDu9'
p2330
sg8
S'Congratulations'
p2331
ssS'61WbtB6ujkpNAsAf5LjF4b'
p2332
(dp2333
g3
S'Katy Perry'
p2334
sg5
I6
sg6
S'https://open.spotify.com/track/61WbtB6ujkpNAsAf5LjF4b'
p2335
sg8
S'Bon app\xc3\xa9tit'
p2336
ssS'0dyiHoYbYjYaOEXLpmzQZG'
p2337
(dp2338
g3
S'Lorde'
p2339
sg5
I5
sg6
S'https://open.spotify.com/track/0dyiHoYbYjYaOEXLpmzQZG'
p2340
sg8
S'Supercut'
p2341
ssS'6foxplXS0YEq8cO374Lty4'
p2342
(dp2343
g3
S'Lil Pump'
p2344
sg5
I2
sg6
S'https://open.spotify.com/track/6foxplXS0YEq8cO374Lty4'
p2345
sg8
S'Gucci Gang'
p2346
ssS'6yr8GiTHWvFfi4o6Q5ebdT'
p2347
(dp2348
g3
S'Eminem'
p2349
sg5
I5
sg6
S'https://open.spotify.com/track/6yr8GiTHWvFfi4o6Q5ebdT'
p2350
sg8
S"'Till I Collapse"
p2351
ssS'2fkeWbM6iqTw7oGHTYm2lw'
p2352
(dp2353
g3
S'Drake'
p2354
sg5
I3
sg6
S'https://open.spotify.com/track/2fkeWbM6iqTw7oGHTYm2lw'
p2355
sg8
S'4422'
p2356
ssS'0ofbQMrRDsUaVKq2mGLEAb'
p2357
(dp2358
g3
S'Camila Cabello'
p2359
sg5
I9
sg6
S'https://open.spotify.com/track/0ofbQMrRDsUaVKq2mGLEAb'
p2360
sg8
S'Havana'
p2361
ssS'6I6NX6tjGsxFAsIfGzY9lJ'
p2362
(dp2363
g3
S'J. Cole'
p2364
sg5
I35
sg6
S'https://open.spotify.com/track/6I6NX6tjGsxFAsIfGzY9lJ'
p2365
sg8
S'Deja Vu'
p2366
ssS'32xx0fAv3CIeGmNaWTHvEF'
p2367
(dp2368
g3
S'Amin\xc3\xa9'
p2369
sg5
I6
sg6
S'https://open.spotify.com/track/32xx0fAv3CIeGmNaWTHvEF'
p2370
sg8
S'Heebiejeebies - Bonus'
p2371
ssS'6bLopGnirdrilrpdVB6Um1'
p2372
(dp2373
g3
S'Sia'
p2374
sg5
I3
sg6
S'https://open.spotify.com/track/6bLopGnirdrilrpdVB6Um1'
p2375
sg8
S'The Greatest'
p2376
ssS'4KaIJ1FWXUoAAnOts1YWjD'
p2377
(dp2378
g3
S'Calvin Harris'
p2379
sg5
I1
sg6
S'https://open.spotify.com/track/4KaIJ1FWXUoAAnOts1YWjD'
p2380
sg8
S'Prayers Up'
p2381
ssS'1vvNmPOiUuyCbgWmtc6yfm'
p2382
(dp2383
g3
S'Calvin Harris'
p2384
sg5
I30
sg6
S'https://open.spotify.com/track/1vvNmPOiUuyCbgWmtc6yfm'
p2385
sg8
S'My Way'
p2386
ssS'1Ba0ucfKPaRzS3AKvX3X3r'
p2387
(dp2388
g3
S"Cosmo's Midnight"
p2389
sg5
I1
sg6
S'https://open.spotify.com/track/1Ba0ucfKPaRzS3AKvX3X3r'
p2390
sg8
S'History'
p2391
ssS'2smsxmhYl7zmyEIPXsna5v'
p2392
(dp2393
g3
S'Sons Of Zion'
p2394
sg5
I7
sg6
S'https://open.spotify.com/track/2smsxmhYl7zmyEIPXsna5v'
p2395
sg8
S'Is That Enough'
p2396
ssS'4WrS6vezaPwOafKJmHqMEU'
p2397
(dp2398
g3
S'Jax Jones'
p2399
sg5
I1
sg6
S'https://open.spotify.com/track/4WrS6vezaPwOafKJmHqMEU'
p2400
sg8
S"You Don't Know Me - Radio Edit"
p2401
ssS'57BrRMwf9LrcmuOsyGilwr'
p2402
(dp2403
g3
S'Linkin Park'
p2404
sg5
I1
sg6
S'https://open.spotify.com/track/57BrRMwf9LrcmuOsyGilwr'
p2405
sg8
S'Crawling'
p2406
ssS'6c7D34787LOtPm8tzhsLgH'
p2407
(dp2408
g3
S'Yo Gotti'
p2409
sg5
I7
sg6
S'https://open.spotify.com/track/6c7D34787LOtPm8tzhsLgH'
p2410
sg8
S'Rake It Up'
p2411
ssS'0afhq8XCExXpqazXczTSve'
p2412
(dp2413
g3
S'Ed Sheeran'
p2414
sg5
I32
sg6
S'https://open.spotify.com/track/0afhq8XCExXpqazXczTSve'
p2415
sg8
S'Galway Girl'
p2416
ssS'09OojFvtrM9YRzRjnXqJjA'
p2417
(dp2418
g3
S'Brenda Lee'
p2419
sg5
I1
sg6
S'https://open.spotify.com/track/09OojFvtrM9YRzRjnXqJjA'
p2420
sg8
S"Rockin' Around The Christmas Tree - Rerecorded Version"
p2421
ssS'1NDxZ7cFAo481dtYWdrUnR'
p2422
(dp2423
g3
S'Maggie Lindemann'
p2424
sg5
I27
sg6
S'https://open.spotify.com/track/1NDxZ7cFAo481dtYWdrUnR'
p2425
sg8
S'Pretty Girl - Cheat Codes X CADE Remix'
p2426
ssS'2aFiaMXmWsM3Vj72F9ksBl'
p2427
(dp2428
g3
S'DNCE'
p2429
sg5
I12
sg6
S'https://open.spotify.com/track/2aFiaMXmWsM3Vj72F9ksBl'
p2430
sg8
S'Cake By The Ocean'
p2431
ssS'152lZdxL1OR0ZMW6KquMif'
p2432
(dp2433
g3
S'Khalid'
p2434
sg5
I34
sg6
S'https://open.spotify.com/track/152lZdxL1OR0ZMW6KquMif'
p2435
sg8
S'Location'
p2436
ssS'2dOTkLZFbpNXrhc24CnTFd'
p2437
(dp2438
g3
S'David Guetta'
p2439
sg5
I6
sg6
S'https://open.spotify.com/track/2dOTkLZFbpNXrhc24CnTFd'
p2440
sg8
S'Titanium (feat. Sia) - feat. Sia'
p2441
ssS'4TZy1wLyHec06pwgFYDh1a'
p2442
(dp2443
g3
S'Shawn Mendes'
p2444
sg5
I39
sg6
S'https://open.spotify.com/track/4TZy1wLyHec06pwgFYDh1a'
p2445
sg8
S'Mercy'
p2446
ssS'4QdovcM8j50QPlyR7tH4xe'
p2447
(dp2448
g3
S'Marc E. Bassy'
p2449
sg5
I13
sg6
S'https://open.spotify.com/track/4QdovcM8j50QPlyR7tH4xe'
p2450
sg8
S'You & Me'
p2451
ssS'3RXkboS74UYzN14xTqzPyY'
p2452
(dp2453
g3
g1227
sg5
I1
sg6
S'https://open.spotify.com/track/3RXkboS74UYzN14xTqzPyY'
p2454
sg8
g1227
ssS'4Q3N4Ct4zCuIHuZ65E3BD4'
p2455
(dp2456
g3
S'Kodak Black'
p2457
sg5
I24
sg6
S'https://open.spotify.com/track/4Q3N4Ct4zCuIHuZ65E3BD4'
p2458
sg8
S'Tunnel Vision'
p2459
ssS'20H2Hd5AkUcRjB4yL3UQtJ'
p2460
(dp2461
g3
S'Fifth Harmony'
p2462
sg5
I7
sg6
S'https://open.spotify.com/track/20H2Hd5AkUcRjB4yL3UQtJ'
p2463
sg8
S'Down'
p2464
ssS'4ntsD33Pgsgk8rUyZLLiUV'
p2465
(dp2466
g3
S'Joey Bada$$'
p2467
sg5
I1
sg6
S'https://open.spotify.com/track/4ntsD33Pgsgk8rUyZLLiUV'
p2468
sg8
S'DEVASTATED'
p2469
ssS'6EpRaXYhGOB3fj4V2uDkMJ'
p2470
(dp2471
g3
S'Liam Payne'
p2472
sg5
I21
sg6
S'https://open.spotify.com/track/6EpRaXYhGOB3fj4V2uDkMJ'
p2473
sg8
S'Strip That Down'
p2474
ssS'1FUViuNSldssMIawrOXF2i'
p2475
(dp2476
g3
S'Bebe Rexha'
p2477
sg5
I19
sg6
S'https://open.spotify.com/track/1FUViuNSldssMIawrOXF2i'
p2478
sg8
S'I Got You'
p2479
ssS'0O0M44llUQuPdJAkROQRch'
p2480
(dp2481
g3
S'Sticky Fingers'
p2482
sg5
I1
sg6
S'https://open.spotify.com/track/0O0M44llUQuPdJAkROQRch'
p2483
sg8
S'Australia Street'
p2484
ssS'3cNjgVBKTJ1SvKhunrCdVy'
p2485
(dp2486
g3
S'Joel Adams'
p2487
sg5
I2
sg6
S'https://open.spotify.com/track/3cNjgVBKTJ1SvKhunrCdVy'
p2488
sg8
S"Please Don't Go"
p2489
ssS'4Q4jmPHwu0wrJvqrld0FQ6'
p2490
(dp2491
g3
S'Zara Larsson'
p2492
sg5
I19
sg6
S'https://open.spotify.com/track/4Q4jmPHwu0wrJvqrld0FQ6'
p2493
sg8
S'I Would Like'
p2494
ssS'6KjbNLbRjuoa8rEq5yNA6H'
p2495
(dp2496
g3
S'The Chainsmokers'
p2497
sg5
I2
sg6
S'https://open.spotify.com/track/6KjbNLbRjuoa8rEq5yNA6H'
p2498
sg8
S'Honest'
p2499
ssS'5xlS0QkVrSH7ssEbBgBzbM'
p2500
(dp2501
g3
S'The Beach Boys'
p2502
sg5
I1
sg6
S'https://open.spotify.com/track/5xlS0QkVrSH7ssEbBgBzbM'
p2503
sg8
S'Little Saint Nick'
p2504
ssS'7yyRTcZmCiyzzJlNzGC9Ol'
p2505
(dp2506
g3
S'DRAM'
p2507
sg5
I24
sg6
S'https://open.spotify.com/track/7yyRTcZmCiyzzJlNzGC9Ol'
p2508
sg8
S'Broccoli (feat. Lil Yachty)'
p2509
ssS'2CvOqDpQIMw69cCzWqr5yr'
p2510
(dp2511
g3
S'Beyonc\xc3\xa9'
p2512
sg5
I1
sg6
S'https://open.spotify.com/track/2CvOqDpQIMw69cCzWqr5yr'
p2513
sg8
S'Halo'
p2514
ssS'4ricyQVd20UQde1jpXCSuJ'
p2515
(dp2516
g3
S'Tony Bennett'
p2517
sg5
I1
sg6
S'https://open.spotify.com/track/4ricyQVd20UQde1jpXCSuJ'
p2518
sg8
S'Winter Wonderland'
p2519
ssS'2771LMNxwf62FTAdpJMQfM'
p2520
(dp2521
g3
S'Cardi B'
p2522
sg5
I9
sg6
S'https://open.spotify.com/track/2771LMNxwf62FTAdpJMQfM'
p2523
sg8
S'Bodak Yellow'
p2524
ssS'6PCUP3dWmTjcTtXY02oFdT'
p2525
(dp2526
g3
S'Ed Sheeran'
p2527
sg5
I40
sg6
S'https://open.spotify.com/track/6PCUP3dWmTjcTtXY02oFdT'
p2528
sg8
S'Castle on the Hill'
p2529
ssS'51PIvodunv6NmX5250zxAh'
p2530
(dp2531
g3
S'Lady Gaga'
p2532
sg5
I17
sg6
S'https://open.spotify.com/track/51PIvodunv6NmX5250zxAh'
p2533
sg8
S'The Cure'
p2534
ssS'5LABCxgmP7DATATIJXOh6n'
p2535
(dp2536
g3
S'Harry Styles'
p2537
sg5
I2
sg6
S'https://open.spotify.com/track/5LABCxgmP7DATATIJXOh6n'
p2538
sg8
S'Ever Since New York'
p2539
ssS'3G6hD9B2ZHOsgf4WfNu7X1'
p2540
(dp2541
g3
S'Lorde'
p2542
sg5
I1
sg6
S'https://open.spotify.com/track/3G6hD9B2ZHOsgf4WfNu7X1'
p2543
sg8
S'Team'
p2544
ssS'104buTcnP2AsxqB7U1FIZ4'
p2545
(dp2546
g3
S'Linkin Park'
p2547
sg5
I12
sg6
S'https://open.spotify.com/track/104buTcnP2AsxqB7U1FIZ4'
p2548
sg8
S'Heavy (feat. Kiiara)'
p2549
ssS'70mIuBKGTPrWMwWq9D4F56'
p2550
(dp2551
g3
S'Ty Dolla $ign'
p2552
sg5
I6
sg6
S'https://open.spotify.com/track/70mIuBKGTPrWMwWq9D4F56'
p2553
sg8
S'Wavy (feat. Joe Moses)'
p2554
ssS'43jBqV3j3Xi1g6wO0bhIMd'
p2555
(dp2556
g3
S'Sage The Gemini'
p2557
sg5
I21
sg6
S'https://open.spotify.com/track/43jBqV3j3Xi1g6wO0bhIMd'
p2558
sg8
S'Now and Later'
p2559
ssS'650OeHTLxZAQmb4aEbGmaA'
p2560
(dp2561
g3
S'Linkin Park'
p2562
sg5
I1
sg6
S'https://open.spotify.com/track/650OeHTLxZAQmb4aEbGmaA'
p2563
sg8
S'Good Goodbye (feat. Pusha T and Stormzy)'
p2564
ssS'1PSBzsahR2AKwLJgx8ehBj'
p2565
(dp2566
g3
S'Machine Gun Kelly'
p2567
sg5
I25
sg6
S'https://open.spotify.com/track/1PSBzsahR2AKwLJgx8ehBj'
p2568
sg8
S'Bad Things (with Camila Cabello)'
p2569
ssS'53mrVsi49rLHIaKBiSvElG'
p2570
(dp2571
g3
S'blackbear'
p2572
sg5
I9
sg6
S'https://open.spotify.com/track/53mrVsi49rLHIaKBiSvElG'
p2573
sg8
S'do re mi (feat. Gucci Mane)'
p2574
ssS'7KOlJ92bu51cltsD9KU5I7'
p2575
(dp2576
g3
S'Migos'
p2577
sg5
I22
sg6
S'https://open.spotify.com/track/7KOlJ92bu51cltsD9KU5I7'
p2578
sg8
S'T-Shirt'
p2579
ssS'0D8ZpOXVjapLXrjz5VfZSD'
p2580
(dp2581
g3
S'Sam Smith'
p2582
sg5
I1
sg6
S'https://open.spotify.com/track/0D8ZpOXVjapLXrjz5VfZSD'
p2583
sg8
S'Pray'
p2584
ssS'3m660poUr1chesgkkjQM7P'
p2585
(dp2586
g3
S'Demi Lovato'
p2587
sg5
I2
sg6
S'https://open.spotify.com/track/3m660poUr1chesgkkjQM7P'
p2588
sg8
S'Sorry Not Sorry'
p2589
ssS'3SGWp9fJCzgK0WcpcKSQdy'
p2590
(dp2591
g3
S'Stanaj'
p2592
sg5
I8
sg6
S'https://open.spotify.com/track/3SGWp9fJCzgK0WcpcKSQdy'
p2593
sg8
S'Romantic - NOTD Remix'
p2594
ssS'7rPLZ8Krm6CZIbraFUlnWZ'
p2595
(dp2596
g3
S'Adele'
p2597
sg5
I3
sg6
S'https://open.spotify.com/track/7rPLZ8Krm6CZIbraFUlnWZ'
p2598
sg8
S'Make You Feel My Love'
p2599
ssS'0xG0SHshCStMEyNbNC5d4k'
p2600
(dp2601
g3
S'Julia Michaels'
p2602
sg5
I9
sg6
S'https://open.spotify.com/track/0xG0SHshCStMEyNbNC5d4k'
p2603
sg8
S'Issues'
p2604
ssS'4C5ewaZ05vyXM23jFJdwd4'
p2605
(dp2606
g3
S'Halsey'
p2607
sg5
I1
sg6
S'https://open.spotify.com/track/4C5ewaZ05vyXM23jFJdwd4'
p2608
sg8
S'Strangers'
p2609
ssS'3gfmFoJgmn9LiIj5mV8oSS'
p2610
(dp2611
g3
S'R3HAB'
p2612
sg5
I1
sg6
S'https://open.spotify.com/track/3gfmFoJgmn9LiIj5mV8oSS'
p2613
sg8
S"I Just Can't"
p2614
ssS'3ebXMykcMXOcLeJ9xZ17XH'
p2615
(dp2616
g3
S'Martin Garrix'
p2617
sg5
I37
sg6
S'https://open.spotify.com/track/3ebXMykcMXOcLeJ9xZ17XH'
p2618
sg8
S'Scared to Be Lonely'
p2619
ssS'6fujklziTHa8uoM5OQSfIo'
p2620
(dp2621
g3
S'Rae Sremmurd'
p2622
sg5
I21
sg6
S'https://open.spotify.com/track/6fujklziTHa8uoM5OQSfIo'
p2623
sg8
S'Black Beatles'
p2624
ssS'19WjVVgXjdKXfLXoaDPwTM'
p2625
(dp2626
g3
S'Taylor Swift'
p2627
sg5
I5
sg6
S'https://open.spotify.com/track/19WjVVgXjdKXfLXoaDPwTM'
p2628
sg8
S'...Ready For It?'
p2629
ssS'6UjfByV1lDLW0SOVQA4NAi'
p2630
(dp2631
g3
S'Drake'
p2632
sg5
I6
sg6
S'https://open.spotify.com/track/6UjfByV1lDLW0SOVQA4NAi'
p2633
sg8
S'Gyalchester'
p2634
ssS'7floNISpH8VF4z4459Qo18'
p2635
(dp2636
g3
S'XXXTENTACION'
p2637
sg5
I2
sg6
S'https://open.spotify.com/track/7floNISpH8VF4z4459Qo18'
p2638
sg8
S'Look At Me!'
p2639
ssS'3PEgB3fkiojxms35ntsTgs'
p2640
(dp2641
g3
S'Axwell /\\ Ingrosso'
p2642
sg5
I11
sg6
S'https://open.spotify.com/track/3PEgB3fkiojxms35ntsTgs'
p2643
sg8
S'More Than You Know'
p2644
ssS'6CfrYuD3YRDYdYvH9jNtXY'
p2645
(dp2646
g3
S'Drake'
p2647
sg5
I3
sg6
S'https://open.spotify.com/track/6CfrYuD3YRDYdYvH9jNtXY'
p2648
sg8
S'No Long Talk'
p2649
ssS'6SUocL0caib4mLHe8ZrZzi'
p2650
(dp2651
g3
S'Rudimental'
p2652
sg5
I13
sg6
S'https://open.spotify.com/track/6SUocL0caib4mLHe8ZrZzi'
p2653
sg8
S'Sun Comes Up'
p2654
ssS'1Wuwsq0BK4Abd7gRitOhXl'
p2655
(dp2656
g3
S'Diplo'
p2657
sg5
I9
sg6
S'https://open.spotify.com/track/1Wuwsq0BK4Abd7gRitOhXl'
p2658
sg8
S'Be Right There'
p2659
ssS'6MdqqkQ8sSC0WB4i8PyRuQ'
p2660
(dp2661
g3
S'Blackstreet'
p2662
sg5
I1
sg6
S'https://open.spotify.com/track/6MdqqkQ8sSC0WB4i8PyRuQ'
p2663
sg8
S'No Diggity'
p2664
ssS'7iDa6hUg2VgEL1o1HjmfBn'
p2665
(dp2666
g3
S'Bebe Rexha'
p2667
sg5
I3
sg6
S'https://open.spotify.com/track/7iDa6hUg2VgEL1o1HjmfBn'
p2668
sg8
S'Meant to Be (feat. Florida Georgia Line)'
p2669
ssS'7aiVBCp1ibIWE5GeHkbtxr'
p2670
(dp2671
g3
S'Britney Spears'
p2672
sg5
I1
sg6
S'https://open.spotify.com/track/7aiVBCp1ibIWE5GeHkbtxr'
p2673
sg8
S'My Only Wish (This Year)'
p2674
ssS'4gmmRb6bZJffOOiww1JGTO'
p2675
(dp2676
g3
S'21 Savage'
p2677
sg5
I2
sg6
S'https://open.spotify.com/track/4gmmRb6bZJffOOiww1JGTO'
p2678
sg8
S'No Heart'
p2679
ssS'0UeYCHOETPfai02uskjJ3x'
p2680
(dp2681
g3
S'Bag Raiders'
p2682
sg5
I7
sg6
S'https://open.spotify.com/track/0UeYCHOETPfai02uskjJ3x'
p2683
sg8
S'Shooting Stars'
p2684
ssS'0B8B8cVRFIG1yznoQe7c9s'
p2685
(dp2686
g3
S'The Chainsmokers'
p2687
sg5
I9
sg6
S'https://open.spotify.com/track/0B8B8cVRFIG1yznoQe7c9s'
p2688
sg8
S'Setting Fires'
p2689
ssS'4CJVkjo5WpmUAKp3R44LNb'
p2690
(dp2691
g3
S'Lynyrd Skynyrd'
p2692
sg5
I3
sg6
S'https://open.spotify.com/track/4CJVkjo5WpmUAKp3R44LNb'
p2693
sg8
S'Sweet Home Alabama'
p2694
ssS'02WacdrRpm4zlP8H7X6bnQ'
p2695
(dp2696
g3
S'Calum Scott'
p2697
sg5
I40
sg6
S'https://open.spotify.com/track/02WacdrRpm4zlP8H7X6bnQ'
p2698
sg8
S'Dancing On My Own'
p2699
ssS'1mDGDb2fUmUMdqV3tb8VKQ'
p2700
(dp2701
g3
S'Halsey'
p2702
sg5
I1
sg6
S'https://open.spotify.com/track/1mDGDb2fUmUMdqV3tb8VKQ'
p2703
sg8
S'Now Or Never'
p2704
ssS'0Ws8D3EWUDgY962Xftb0h5'
p2705
(dp2706
g3
S'Calvin Harris'
p2707
sg5
I1
sg6
S'https://open.spotify.com/track/0Ws8D3EWUDgY962Xftb0h5'
p2708
sg8
S'Cash Out'
p2709
ssS'5p3NP9mQblDsVJLdfNZJ3I'
p2710
(dp2711
g3
S'Kendrick Lamar'
p2712
sg5
I4
sg6
S'https://open.spotify.com/track/5p3NP9mQblDsVJLdfNZJ3I'
p2713
sg8
S'GOD.'
p2714
ssS'42NpUvd0I2kdIuMXX4nobE'
p2715
(dp2716
g3
S'Nick Jonas'
p2717
sg5
I1
sg6
S'https://open.spotify.com/track/42NpUvd0I2kdIuMXX4nobE'
p2718
sg8
S'Remember I Told You'
p2719
ssS'0K7Dd9DP6fvOl0mrlX0aUa'
p2720
(dp2721
g3
S'Galantis'
p2722
sg5
I1
sg6
S'https://open.spotify.com/track/0K7Dd9DP6fvOl0mrlX0aUa'
p2723
sg8
S'Rich Boy'
p2724
ssS'6OZh916QF8XNunWaP97WEZ'
p2725
(dp2726
g3
S'Jonas Blue'
p2727
sg5
I32
sg6
S'https://open.spotify.com/track/6OZh916QF8XNunWaP97WEZ'
p2728
sg8
S'Fast Car'
p2729
ssS'2rizacJSyD9S1IQUxUxnsK'
p2730
(dp2731
g3
S'The Chainsmokers'
p2732
sg5
I17
sg6
S'https://open.spotify.com/track/2rizacJSyD9S1IQUxUxnsK'
p2733
sg8
S'All We Know'
p2734
ssS'2yZax79pOrYuyIFVW2cZY2'
p2735
(dp2736
g3
S'XXXTENTACION'
p2737
sg5
I5
sg6
S'https://open.spotify.com/track/2yZax79pOrYuyIFVW2cZY2'
p2738
sg8
S'Carry On'
p2739
ssS'6RsWqX8zABZLhZydXxEFOm'
p2740
(dp2741
g3
S'The Weeknd'
p2742
sg5
I6
sg6
S'https://open.spotify.com/track/6RsWqX8zABZLhZydXxEFOm'
p2743
sg8
S"Can't Feel My Face"
p2744
ssS'79NlESqzFSW0hdBWgls4FX'
p2745
(dp2746
g3
S'Kesha'
p2747
sg5
I5
sg6
S'https://open.spotify.com/track/79NlESqzFSW0hdBWgls4FX'
p2748
sg8
S'Praying'
p2749
ssS'0tgVpDi06FyKpA1z0VMD4v'
p2750
(dp2751
g3
S'Ed Sheeran'
p2752
sg5
I32
sg6
S'https://open.spotify.com/track/0tgVpDi06FyKpA1z0VMD4v'
p2753
sg8
S'Perfect'
p2754
ssS'6cAKeFFYW2aClZSUyvqAEW'
p2755
(dp2756
g3
S'Isaiah'
p2757
sg5
I20
sg6
S'https://open.spotify.com/track/6cAKeFFYW2aClZSUyvqAEW'
p2758
sg8
S"It's Gotta Be You"
p2759
ssS'4BLpd6QINAs4UXd1lVtdhj'
p2760
(dp2761
g3
S'Charlie Puth'
p2762
sg5
I6
sg6
S'https://open.spotify.com/track/4BLpd6QINAs4UXd1lVtdhj'
p2763
sg8
S'Dangerously'
p2764
ssS'0H8XeaJunhvpBdBFIYi6Sh'
p2765
(dp2766
g3
S'Post Malone'
p2767
sg5
I13
sg6
S'https://open.spotify.com/track/0H8XeaJunhvpBdBFIYi6Sh'
p2768
sg8
S'Deja Vu'
p2769
ssS'0t2myRMEMCi2SRyg5TEFLp'
p2770
(dp2771
g3
S'Mura Masa'
p2772
sg5
I1
sg6
S'https://open.spotify.com/track/0t2myRMEMCi2SRyg5TEFLp'
p2773
sg8
S'Love$ick'
p2774
ssS'2XMTqoHHSH0lvuXrvIEdco'
p2775
(dp2776
g3
S'FRENSHIP'
p2777
sg5
I38
sg6
S'https://open.spotify.com/track/2XMTqoHHSH0lvuXrvIEdco'
p2778
sg8
S'Capsize'
p2779
ssS'2wDjpPW3HZdA9quPPmZAMu'
p2780
(dp2781
g3
S'Cashmere Cat'
p2782
sg5
I9
sg6
S'https://open.spotify.com/track/2wDjpPW3HZdA9quPPmZAMu'
p2783
sg8
S'Trust Nobody (feat. Selena Gomez & Tory Lanez)'
p2784
ssS'54ucfuN596MU25jQD3KjCL'
p2785
(dp2786
g3
S'Lorde'
p2787
sg5
I3
sg6
S'https://open.spotify.com/track/54ucfuN596MU25jQD3KjCL'
p2788
sg8
S'Sober II (Melodrama)'
p2789
ssS'1hvpDAxZPKjKztOc72sv06'
p2790
(dp2791
g3
S'Band Aid'
p2792
sg5
I1
sg6
S'https://open.spotify.com/track/1hvpDAxZPKjKztOc72sv06'
p2793
sg8
S"Do They Know It's Christmas? - 1984 Version"
p2794
ssS'72Q0FQQo32KJloivv5xge2'
p2795
(dp2796
g3
S'DJ Khaled'
p2797
sg5
I3
sg6
S'https://open.spotify.com/track/72Q0FQQo32KJloivv5xge2'
p2798
sg8
S"I'm the One"
p2799
ssS'0hNduWmlWmEmuwEFcYvRu1'
p2800
(dp2801
g3
S'Petit Biscuit'
p2802
sg5
I23
sg6
S'https://open.spotify.com/track/0hNduWmlWmEmuwEFcYvRu1'
p2803
sg8
S'Sunset Lover'
p2804
ssS'1x5sYLZiu9r5E43kMlt9f8'
p2805
(dp2806
g3
S'Clean Bandit'
p2807
sg5
I30
sg6
S'https://open.spotify.com/track/1x5sYLZiu9r5E43kMlt9f8'
p2808
sg8
S'Symphony (feat. Zara Larsson)'
p2809
ssS'3B54sVLJ402zGa6Xm4YGNe'
p2810
(dp2811
g3
S'French Montana'
p2812
sg5
I14
sg6
S'https://open.spotify.com/track/3B54sVLJ402zGa6Xm4YGNe'
p2813
sg8
S'Unforgettable'
p2814
ssS'2rb5MvYT7ZIxbKW5hfcHx8'
p2815
(dp2816
g3
S'J Balvin'
p2817
sg5
I14
sg6
S'https://open.spotify.com/track/2rb5MvYT7ZIxbKW5hfcHx8'
p2818
sg8
S'Mi Gente'
p2819
ssS'0lvXfUug5YmOHOyHgXufqF'
p2820
(dp2821
g3
S'Peking Duk'
p2822
sg5
I16
sg6
S'https://open.spotify.com/track/0lvXfUug5YmOHOyHgXufqF'
p2823
sg8
S'Fake Magic'
p2824
ssS'5SE57ljOIUJ1ybL9U6CuBH'
p2825
(dp2826
g3
S'BTS'
p2827
sg5
I4
sg6
S'https://open.spotify.com/track/5SE57ljOIUJ1ybL9U6CuBH'
p2828
sg8
S'DNA'
p2829
ssS'3bVbQvGVIe4n24AzyXovXh'
p2830
(dp2831
g3
g1227
sg5
I1
sg6
S'https://open.spotify.com/track/3bVbQvGVIe4n24AzyXovXh'
p2832
sg8
g1227
ssS'6SwRhMLwNqEi6alNPVG00n'
p2833
(dp2834
g3
S'Kendrick Lamar'
p2835
sg5
I26
sg6
S'https://open.spotify.com/track/6SwRhMLwNqEi6alNPVG00n'
p2836
sg8
S'LOYALTY. FEAT. RIHANNA.'
p2837
ssS'439TlnnznSiBbQbgXiBqAd'
p2838
(dp2839
g3
S'Kendrick Lamar'
p2840
sg5
I4
sg6
S'https://open.spotify.com/track/439TlnnznSiBbQbgXiBqAd'
p2841
sg8
S'm.A.A.d city'
p2842
ssS'6mb6lVLNrcUgLnEN8QnDJd'
p2843
(dp2844
g3
S"Auli'i Cravalho"
p2845
sg5
I17
sg6
S'https://open.spotify.com/track/6mb6lVLNrcUgLnEN8QnDJd'
p2846
sg8
S"How Far I'll Go"
p2847
ssS'7F1LWA9sIlTorHUo4amGqk'
p2848
(dp2849
g3
S'The Weeknd'
p2850
sg5
I1
sg6
S'https://open.spotify.com/track/7F1LWA9sIlTorHUo4amGqk'
p2851
sg8
S'Reminder - Remix'
p2852
ssS'0tKcYR2II1VCQWT79i5NrW'
p2853
(dp2854
g3
S'Imagine Dragons'
p2855
sg5
I21
sg6
S'https://open.spotify.com/track/0tKcYR2II1VCQWT79i5NrW'
p2856
sg8
S'Thunder'
p2857
ssS'31mqc7EKPsJf3pe6H5jEfC'
p2858
(dp2859
g3
S'Joey Bada$$'
p2860
sg5
I1
sg6
S'https://open.spotify.com/track/31mqc7EKPsJf3pe6H5jEfC'
p2861
sg8
S'ROCKABYE BABY (feat. ScHoolboy Q)'
p2862
ssS'6DNtNfH8hXkqOX1sjqmI7p'
p2863
(dp2864
g3
S'Major Lazer'
p2865
sg5
I42
sg6
S'https://open.spotify.com/track/6DNtNfH8hXkqOX1sjqmI7p'
p2866
sg8
S'Cold Water (feat. Justin Bieber & M\xc3\x98)'
p2867
ssS'5NNlUMcOEOdoOIwwaWXv0k'
p2868
(dp2869
g3
S'Maroon 5'
p2870
sg5
I18
sg6
S'https://open.spotify.com/track/5NNlUMcOEOdoOIwwaWXv0k'
p2871
sg8
S'Cold'
p2872
ssS'5R4HqXCZ6uTjxxnGdLt2S6'
p2873
(dp2874
g3
S'Noah Cyrus'
p2875
sg5
I2
sg6
S'https://open.spotify.com/track/5R4HqXCZ6uTjxxnGdLt2S6'
p2876
sg8
S'Stay Together'
p2877
ssS'5XQMr19TL7Mfksq9zihbOu'
p2878
(dp2879
g3
S'Chris Brown'
p2880
sg5
I8
sg6
S'https://open.spotify.com/track/5XQMr19TL7Mfksq9zihbOu'
p2881
sg8
S'Questions'
p2882
ssS'1sXUWdKx03aP9Gmzft58rt'
p2883
(dp2884
g3
S'Julia Michaels'
p2885
sg5
I27
sg6
S'https://open.spotify.com/track/1sXUWdKx03aP9Gmzft58rt'
p2886
sg8
S'Issues'
p2887
ssS'1eq1wUnLVLg4pdEfx9kajC'
p2888
(dp2889
g3
S'Adele'
p2890
sg5
I3
sg6
S'https://open.spotify.com/track/1eq1wUnLVLg4pdEfx9kajC'
p2891
sg8
S'Rolling In The Deep'
p2892
ssS'3QiAAp20rPC3dcAtKtMaqQ'
p2893
(dp2894
g3
S'Elvis Presley'
p2895
sg5
I1
sg6
S'https://open.spotify.com/track/3QiAAp20rPC3dcAtKtMaqQ'
p2896
sg8
S'Blue Christmas'
p2897
ssS'7IWkJwX9C0J7tHurTD7ViL'
p2898
(dp2899
g3
S'Adele'
p2900
sg5
I13
sg6
S'https://open.spotify.com/track/7IWkJwX9C0J7tHurTD7ViL'
p2901
sg8
S'When We Were Young'
p2902
ssS'1zayuwd1YLZsYDArkruHdL'
p2903
(dp2904
g3
S'Kendrick Lamar'
p2905
sg5
I4
sg6
S'https://open.spotify.com/track/1zayuwd1YLZsYDArkruHdL'
p2906
sg8
S'The Heart Part 4'
p2907
ssS'4L7Y2OAPiY2I2GndZjAs5K'
p2908
(dp2909
g3
S'Lana Del Rey'
p2910
sg5
I1
sg6
S'https://open.spotify.com/track/4L7Y2OAPiY2I2GndZjAs5K'
p2911
sg8
S'Lust For Life (with The Weeknd)'
p2912
ssS'14oOKFGuXu8DqvOe1W8vao'
p2913
(dp2914
g3
S'Katy Perry'
p2915
sg5
I2
sg6
S'https://open.spotify.com/track/14oOKFGuXu8DqvOe1W8vao'
p2916
sg8
S'Bon App\xc3\xa9tit'
p2917
ssS'4BHSjbYylfOH5WAGusDyni'
p2918
(dp2919
g3
S'Kendrick Lamar'
p2920
sg5
I5
sg6
S'https://open.spotify.com/track/4BHSjbYylfOH5WAGusDyni'
p2921
sg8
S'YAH.'
p2922
ssS'4uoumbAMEMaKdtiv763jKz'
p2923
(dp2924
g3
S'Zara Larsson'
p2925
sg5
I10
sg6
S'https://open.spotify.com/track/4uoumbAMEMaKdtiv763jKz'
p2926
sg8
S'TG4M'
p2927
ssS'7ygfhHBOf63eYK0WSEzOP9'
p2928
(dp2929
g3
S'Blackstreet'
p2930
sg5
I1
sg6
S'https://open.spotify.com/track/7ygfhHBOf63eYK0WSEzOP9'
p2931
sg8
S'No Diggity (feat. Dr. Dre)'
p2932
ssS'6WhzFzROw3aq3rPWjgYlxr'
p2933
(dp2934
g3
S'Kiiara'
p2935
sg5
I10
sg6
S'https://open.spotify.com/track/6WhzFzROw3aq3rPWjgYlxr'
p2936
sg8
S'Gold'
p2937
ssS'2ISl1zekPsc26sUQpVt8UB'
p2938
(dp2939
g3
S"Shakin' Stevens"
p2940
sg5
I1
sg6
S'https://open.spotify.com/track/2ISl1zekPsc26sUQpVt8UB'
p2941
sg8
S'Merry Christmas Everyone - Remastered'
p2942
ssS'2pJZ1v8HezrAoZ0Fhzby92'
p2943
(dp2944
g3
S'Ed Sheeran'
p2945
sg5
I23
sg6
S'https://open.spotify.com/track/2pJZ1v8HezrAoZ0Fhzby92'
p2946
sg8
S'What Do I Know?'
p2947
ssS'0KKkJNfGyhkQ5aFogxQAPU'
p2948
(dp2949
g3
S'Bruno Mars'
p2950
sg5
I42
sg6
S'https://open.spotify.com/track/0KKkJNfGyhkQ5aFogxQAPU'
p2951
sg8
S"That's What I Like"
p2952
ssS'494OU6M7NOf4ICYb4zWCf5'
p2953
(dp2954
g3
S'Maroon 5'
p2955
sg5
I1
sg6
S'https://open.spotify.com/track/494OU6M7NOf4ICYb4zWCf5'
p2956
sg8
S'Sugar'
p2957
ssS'1Slwb6dOYkBlWal1PGtnNg'
p2958
(dp2959
g3
S'Ed Sheeran'
p2960
sg5
I42
sg6
S'https://open.spotify.com/track/1Slwb6dOYkBlWal1PGtnNg'
p2961
sg8
S'Thinking Out Loud'
p2962
ssS'2mNbgyi0gori4b1rFSPgIb'
p2963
(dp2964
g3
S'Lorde'
p2965
sg5
I8
sg6
S'https://open.spotify.com/track/2mNbgyi0gori4b1rFSPgIb'
p2966
sg8
S'Sober'
p2967
ssS'3zoYkqS4y2BsGVShPL2nTE'
p2968
(dp2969
g3
S'CNCO'
p2970
sg5
I5
sg6
S'https://open.spotify.com/track/3zoYkqS4y2BsGVShPL2nTE'
p2971
sg8
S'Reggaet\xc3\xb3n Lento (Remix) [CNCO & Little Mix]'
p2972
ssS'3YBZIN3rekqsKxbJc9FZko'
p2973
(dp2974
g3
S"Guns N' Roses"
p2975
sg5
I1
sg6
S'https://open.spotify.com/track/3YBZIN3rekqsKxbJc9FZko'
p2976
sg8
S'Paradise City'
p2977
ssS'6lFDB0BFDRV58qaQDX85jV'
p2978
(dp2979
g3
S'Lorde'
p2980
sg5
I2
sg6
S'https://open.spotify.com/track/6lFDB0BFDRV58qaQDX85jV'
p2981
sg8
S'Liability (Reprise)'
p2982
ssS'2habSXqcJGExM6JJyskY7O'
p2983
(dp2984
g3
S'Miley Cyrus'
p2985
sg5
I20
sg6
S'https://open.spotify.com/track/2habSXqcJGExM6JJyskY7O'
p2986
sg8
S'Malibu'
p2987
ssS'5Ua3GXyHwiSfpNTMjq6m2z'
p2988
(dp2989
g3
S'Little Mix'
p2990
sg5
I32
sg6
S'https://open.spotify.com/track/5Ua3GXyHwiSfpNTMjq6m2z'
p2991
sg8
S'Touch'
p2992
ssS'6i0V12jOa3mr6uu4WYhUBr'
p2993
(dp2994
g3
S'Twenty One Pilots'
p2995
sg5
I30
sg6
S'https://open.spotify.com/track/6i0V12jOa3mr6uu4WYhUBr'
p2996
sg8
S'Heathens'
p2997
ssS'1p5B1jJk75RAblZCTnzUTU'
p2998
(dp2999
g3
S'2 Chainz'
p3000
sg5
I2
sg6
S'https://open.spotify.com/track/1p5B1jJk75RAblZCTnzUTU'
p3001
sg8
S"It's A Vibe"
p3002
ssS'1louJpMmzEicAn7lzDalPW'
p3003
(dp3004
g3
S'Cheat Codes'
p3005
sg5
I28
sg6
S'https://open.spotify.com/track/1louJpMmzEicAn7lzDalPW'
p3006
sg8
S'No Promises (feat. Demi Lovato)'
p3007
ssS'6yMxfx9wpiuhhdb8vHDVMu'
p3008
(dp3009
g3
S'Meek Mill'
p3010
sg5
I9
sg6
S'https://open.spotify.com/track/6yMxfx9wpiuhhdb8vHDVMu'
p3011
sg8
S'Whatever You Need (feat. Chris Brown & Ty Dolla $ign)'
p3012
ssS'5nA67Y0XX9JipZwYxX7Gl7'
p3013
(dp3014
g3
S'Niall Horan'
p3015
sg5
I6
sg6
S'https://open.spotify.com/track/5nA67Y0XX9JipZwYxX7Gl7'
p3016
sg8
S'This Town'
p3017
ssS'2eMwDehkIC1j68U6FA3Eiq'
p3018
(dp3019
g3
S'Lil Uzi Vert'
p3020
sg5
I21
sg6
S'https://open.spotify.com/track/2eMwDehkIC1j68U6FA3Eiq'
p3021
sg8
S'XO TOUR Llif3'
p3022
ssS'0SuG9kyzGRpDqrCWtgD6Lq'
p3023
(dp3024
g3
S'Ed Sheeran'
p3025
sg5
I2
sg6
S'https://open.spotify.com/track/0SuG9kyzGRpDqrCWtgD6Lq'
p3026
sg8
S'Give Me Love'
p3027
ssS'4eQvrHRAG4WoGYFNe3pCLu'
p3028
(dp3029
g3
S'Darlene Love'
p3030
sg5
I1
sg6
S'https://open.spotify.com/track/4eQvrHRAG4WoGYFNe3pCLu'
p3031
sg8
S'All Alone on Christmas'
p3032
ssS'7wiESxCGoUkRdgZF2JOLZu'
p3033
(dp3034
g3
S'Phil Spector'
p3035
sg5
I1
sg6
S'https://open.spotify.com/track/7wiESxCGoUkRdgZF2JOLZu'
p3036
sg8
S'Sleigh Ride'
p3037
ssS'6fxVffaTuwjgEk5h9QyRjy'
p3038
(dp3039
g3
S'Ed Sheeran'
p3040
sg5
I42
sg6
S'https://open.spotify.com/track/6fxVffaTuwjgEk5h9QyRjy'
p3041
sg8
S'Photograph'
p3042
ssS'0w5Bdu51Ka25Pf3hojsKHh'
p3043
(dp3044
g3
S'Paramore'
p3045
sg5
I3
sg6
S'https://open.spotify.com/track/0w5Bdu51Ka25Pf3hojsKHh'
p3046
sg8
S'Hard Times'
p3047
ssS'1tp1xMJ1uaOktksskS0Fzs'
p3048
(dp3049
g3
S'Gucci Mane'
p3050
sg5
I1
sg6
S'https://open.spotify.com/track/1tp1xMJ1uaOktksskS0Fzs'
p3051
sg8
S'Curve (feat. The Weeknd)'
p3052
ssS'1VdZ0vKfR5jneCmWIUAMxK'
p3053
(dp3054
g3
S'Ed Sheeran'
p3055
sg5
I3
sg6
S'https://open.spotify.com/track/1VdZ0vKfR5jneCmWIUAMxK'
p3056
sg8
S'The A Team'
p3057
ssS'1wur1SW656paPv7EyTqWu4'
p3058
(dp3059
g3
S'C\xc3\xa9line Dion'
p3060
sg5
I1
sg6
S'https://open.spotify.com/track/1wur1SW656paPv7EyTqWu4'
p3061
sg8
S'Happy Xmas (War Is Over)'
p3062
ssS'13e6f8t7RKXuxZ0JdaaJRG'
p3063
(dp3064
g3
S'Drake'
p3065
sg5
I2
sg6
S'https://open.spotify.com/track/13e6f8t7RKXuxZ0JdaaJRG'
p3066
sg8
S'Jorja Interlude'
p3067
ssS'6nxQdXa1uAL0rY72wPZu89'
p3068
(dp3069
g3
S'John Legend'
p3070
sg5
I16
sg6
S'https://open.spotify.com/track/6nxQdXa1uAL0rY72wPZu89'
p3071
sg8
S'Love Me Now'
p3072
ssS'69f1steoIMhN1skPkBR6rB'
p3073
(dp3074
g3
S'Omarion'
p3075
sg5
I18
sg6
S'https://open.spotify.com/track/69f1steoIMhN1skPkBR6rB'
p3076
sg8
S'Distance'
p3077
ssS'6kex4EBAj0WHXDKZMEJaaF'
p3078
(dp3079
g3
S'Jason Derulo'
p3080
sg5
I33
sg6
S'https://open.spotify.com/track/6kex4EBAj0WHXDKZMEJaaF'
p3081
sg8
S'Swalla (feat. Nicki Minaj & Ty Dolla $ign)'
p3082
ssS'54h8xHewdRPnYzmbEHBhOO'
p3083
(dp3084
g3
S'Imagine Dragons'
p3085
sg5
I1
sg6
S'https://open.spotify.com/track/54h8xHewdRPnYzmbEHBhOO'
p3086
sg8
S'I\xe2\x80\x99ll Make It Up To You'
p3087
ssS'2jfCy43LsFbCQoB6HyetlY'
p3088
(dp3089
g3
S'SJUR'
p3090
sg5
I7
sg6
S'https://open.spotify.com/track/2jfCy43LsFbCQoB6HyetlY'
p3091
sg8
S'Let Me Love You'
p3092
ssS'54LGxQGf5LPXNGjtzDZ5IE'
p3093
(dp3094
g3
S'Zara Larsson'
p3095
sg5
I11
sg6
S'https://open.spotify.com/track/54LGxQGf5LPXNGjtzDZ5IE'
p3096
sg8
S'So Good'
p3097
ssS'08WPvDEsHvTFuB9w8tC2OS'
p3098
(dp3099
g3
S'Sage The Gemini'
p3100
sg5
I1
sg6
S'https://open.spotify.com/track/08WPvDEsHvTFuB9w8tC2OS'
p3101
sg8
S'Now and Later'
p3102
ssS'4ZJPwET9Jrgpkqi4Vo3Yg8'
p3103
(dp3104
g3
S'Bebe Rexha'
p3105
sg5
I6
sg6
S'https://open.spotify.com/track/4ZJPwET9Jrgpkqi4Vo3Yg8'
p3106
sg8
S'Bad Bitch (feat. Ty Dolla $ign)'
p3107
ssS'1Dp7JGFNjvg8Nk0CtMCcnr'
p3108
(dp3109
g3
S'Lorde'
p3110
sg5
I4
sg6
S'https://open.spotify.com/track/1Dp7JGFNjvg8Nk0CtMCcnr'
p3111
sg8
S'Hard Feelings/Loveless'
p3112
ssS'0Fv5N0cHBsl4bzCbollCAS'
p3113
(dp3114
g3
S'Big Sean'
p3115
sg5
I5
sg6
S'https://open.spotify.com/track/0Fv5N0cHBsl4bzCbollCAS'
p3116
sg8
S'Moves'
p3117
ssS'7KXjTSCq5nL1LoYtL7XAwS'
p3118
(dp3119
g3
S'Kendrick Lamar'
p3120
sg5
I28
sg6
S'https://open.spotify.com/track/7KXjTSCq5nL1LoYtL7XAwS'
p3121
sg8
S'HUMBLE.'
p3122
ssS'6tjituizSxwSmBB5vtgHZE'
p3123
(dp3124
g3
S'Michael Bubl\xc3\xa9'
p3125
sg5
I1
sg6
S'https://open.spotify.com/track/6tjituizSxwSmBB5vtgHZE'
p3126
sg8
S'Holly Jolly Christmas'
p3127
ssS'5SFTZsHW3HdCp9f1zbzitS'
p3128
(dp3129
g3
S'XXXTENTACION'
p3130
sg5
I7
sg6
S'https://open.spotify.com/track/5SFTZsHW3HdCp9f1zbzitS'
p3131
sg8
S'Revenge'
p3132
ssS'1jYiIOC5d6soxkJP81fxq2'
p3133
(dp3134
g3
S'DJ Khaled'
p3135
sg5
I1
sg6
S'https://open.spotify.com/track/1jYiIOC5d6soxkJP81fxq2'
p3136
sg8
S"I'm the One"
p3137
ssS'6Na5uKk5SsqZimk0hAWo8y'
p3138
(dp3139
g3
S'Drake'
p3140
sg5
I2
sg6
S'https://open.spotify.com/track/6Na5uKk5SsqZimk0hAWo8y'
p3141
sg8
S'Signs'
p3142
ssS'74ODGXs4byLTRdnKGM4s6E'
p3143
(dp3144
g3
S'LANY'
p3145
sg5
I11
sg6
S'https://open.spotify.com/track/74ODGXs4byLTRdnKGM4s6E'
p3146
sg8
S'Super Far'
p3147
ssS'5wTM2Bm8phDwHAuOsfBwhU'
p3148
(dp3149
g3
S'Pretenders'
p3150
sg5
I1
sg6
S'https://open.spotify.com/track/5wTM2Bm8phDwHAuOsfBwhU'
p3151
sg8
S'2000 Miles - 2007 Remastered Version'
p3152
ssS'16qYlQ6koFxYVbiJbGHblz'
p3153
(dp3154
g3
S'J. Cole'
p3155
sg5
I1
sg6
S'https://open.spotify.com/track/16qYlQ6koFxYVbiJbGHblz'
p3156
sg8
S'G.O.M.D.'
p3157
ssS'0n2bvWvMwr0gbjcuTm92eW'
p3158
(dp3159
g3
S'Lana Del Rey'
p3160
sg5
I4
sg6
S'https://open.spotify.com/track/0n2bvWvMwr0gbjcuTm92eW'
p3161
sg8
S'Love'
p3162
ssS'3AsAuGTaDQzavZZThyYlop'
p3163
(dp3164
g3
S'NEIKED'
p3165
sg5
I36
sg6
S'https://open.spotify.com/track/3AsAuGTaDQzavZZThyYlop'
p3166
sg8
S'Sexual'
p3167
ssS'0IqKeD8ZSP72KbGYyzEcAs'
p3168
(dp3169
g3
S'Hozier'
p3170
sg5
I11
sg6
S'https://open.spotify.com/track/0IqKeD8ZSP72KbGYyzEcAs'
p3171
sg8
S'Take Me To Church'
p3172
ssS'0xBsZrUrsZcCCrpxryZDHc'
p3173
(dp3174
g3
S'Lorde'
p3175
sg5
I2
sg6
S'https://open.spotify.com/track/0xBsZrUrsZcCCrpxryZDHc'
p3176
sg8
S'Liability'
p3177
ssS'33bURv895AN4FkBvgFo2dx'
p3178
(dp3179
g3
S'Harry Styles'
p3180
sg5
I2
sg6
S'https://open.spotify.com/track/33bURv895AN4FkBvgFo2dx'
p3181
sg8
S'Woman'
p3182
ssS'69bp2EbF7Q2rqc5N3ylezZ'
p3183
(dp3184
g3
S'Justin Bieber'
p3185
sg5
I42
sg6
S'https://open.spotify.com/track/69bp2EbF7Q2rqc5N3ylezZ'
p3186
sg8
S'Sorry'
p3187
ssS'6eL1ncVDtQHgSm3E288TS7'
p3188
(dp3189
g3
S'Vince Staples'
p3190
sg5
I1
sg6
S'https://open.spotify.com/track/6eL1ncVDtQHgSm3E288TS7'
p3191
sg8
S'Big Fish'
p3192
ssS'2GsteFRbq6UyW0WfUWgQtX'
p3193
(dp3194
g3
S'Jessica Mauboy'
p3195
sg5
I9
sg6
S'https://open.spotify.com/track/2GsteFRbq6UyW0WfUWgQtX'
p3196
sg8
S"Fallin' - Original Song from the TV Series The Secret Daughter"
p3197
ssS'2dLLR6qlu5UJ5gk0dKz0h3'
p3198
(dp3199
g3
S'Lorde'
p3200
sg5
I2
sg6
S'https://open.spotify.com/track/2dLLR6qlu5UJ5gk0dKz0h3'
p3201
sg8
S'Royals'
p3202
ssS'04CttTezSnv71USiiG9mIo'
p3203
(dp3204
g3
S'Hearts & Colors'
p3205
sg5
I1
sg6
S'https://open.spotify.com/track/04CttTezSnv71USiiG9mIo'
p3206
sg8
S'Lighthouse - Andrelli Remix'
p3207
ssS'2mC4jCjqSp4uHwYkDeOzXf'
p3208
(dp3209
g3
S'Twista'
p3210
sg5
I8
sg6
S'https://open.spotify.com/track/2mC4jCjqSp4uHwYkDeOzXf'
p3211
sg8
S'Next To You'
p3212
ssS'4iLqG9SeJSnt0cSPICSjxv'
p3213
(dp3214
g3
S'Charlie Puth'
p3215
sg5
I25
sg6
S'https://open.spotify.com/track/4iLqG9SeJSnt0cSPICSjxv'
p3216
sg8
S'Attention'
p3217
ssS'15dnkAHcHC0vrIUlbiPiqU'
p3218
(dp3219
g3
S'Imagine Dragons'
p3220
sg5
I1
sg6
S'https://open.spotify.com/track/15dnkAHcHC0vrIUlbiPiqU'
p3221
sg8
S'I Don\xe2\x80\x99t Know Why'
p3222
ssS'2C0KFbb4v9CNWR5c9jWcKC'
p3223
(dp3224
g3
S'Gorillaz'
p3225
sg5
I1
sg6
S'https://open.spotify.com/track/2C0KFbb4v9CNWR5c9jWcKC'
p3226
sg8
S'Andromeda (feat. DRAM)'
p3227
ssS'6RUKPb4LETWmmr3iAEQktW'
p3228
(dp3229
g3
S'The Chainsmokers'
p3230
sg5
I33
sg6
S'https://open.spotify.com/track/6RUKPb4LETWmmr3iAEQktW'
p3231
sg8
S'Something Just Like This'
p3232
ssS'7M16mAuWuFA5rC9HvkXaGx'
p3233
(dp3234
g3
S'Jax Jones'
p3235
sg5
I5
sg6
S'https://open.spotify.com/track/7M16mAuWuFA5rC9HvkXaGx'
p3236
sg8
S"You Don't Know Me - Radio Edit"
p3237
ssS'0VhgEqMTNZwYL1ARDLLNCX'
p3238
(dp3239
g3
S'James Arthur'
p3240
sg5
I5
sg6
S'https://open.spotify.com/track/0VhgEqMTNZwYL1ARDLLNCX'
p3241
sg8
S'Can I Be Him'
p3242
ssS'2CPqh63wRVscbceKcPxwvv'
p3243
(dp3244
g3
S'Mike Perry'
p3245
sg5
I19
sg6
S'https://open.spotify.com/track/2CPqh63wRVscbceKcPxwvv'
p3246
sg8
S'The Ocean'
p3247
ssS'5abwHwUhywLGNli5NDcEN7'
p3248
(dp3249
g3
S'Thomas Gold'
p3250
sg5
I2
sg6
S'https://open.spotify.com/track/5abwHwUhywLGNli5NDcEN7'
p3251
sg8
S'Magic'
p3252
ssS'4YkwUfWSIxdKNLDXw0caFO'
p3253
(dp3254
g3
S'Chris Brown'
p3255
sg5
I1
sg6
S'https://open.spotify.com/track/4YkwUfWSIxdKNLDXw0caFO'
p3256
sg8
S'Pills & Automobiles'
p3257
ssS'3VTNVsTTu05dmTsVFrmGpK'
p3258
(dp3259
g3
S'The Pogues'
p3260
sg5
I1
sg6
S'https://open.spotify.com/track/3VTNVsTTu05dmTsVFrmGpK'
p3261
sg8
S'Fairytale of New York (feat. Kirsty MacColl)'
p3262
ssS'4vv1KjUzPwrtDbozizSfQc'
p3263
(dp3264
g3
S'DJ Khaled'
p3265
sg5
I1
sg6
S'https://open.spotify.com/track/4vv1KjUzPwrtDbozizSfQc'
p3266
sg8
S"Don't Quit"
p3267
ssS'4bHsxqR3GMrXTxEPLuK5ue'
p3268
(dp3269
g3
S'Journey'
p3270
sg5
I10
sg6
S'https://open.spotify.com/track/4bHsxqR3GMrXTxEPLuK5ue'
p3271
sg8
S"Don't Stop Believin'"
p3272
ssS'5GXAXm5YOmYT0kL5jHvYBt'
p3273
(dp3274
g3
S'The Weeknd'
p3275
sg5
I42
sg6
S'https://open.spotify.com/track/5GXAXm5YOmYT0kL5jHvYBt'
p3276
sg8
S'I Feel It Coming'
p3277
ssS'6IZvVAP7VPPnsGX6bvgkqg'
p3278
(dp3279
g3
S'Kendrick Lamar'
p3280
sg5
I5
sg6
S'https://open.spotify.com/track/6IZvVAP7VPPnsGX6bvgkqg'
p3281
sg8
S'PRIDE.'
p3282
ssS'0lMbuWUpfTWhEmOKxppEau'
p3283
(dp3284
g3
S'Calvin Harris'
p3285
sg5
I18
sg6
S'https://open.spotify.com/track/0lMbuWUpfTWhEmOKxppEau'
p3286
sg8
S'Rollin'
p3287
ssS'3Ytr1SUCUi6J3L9dRFx5iH'
p3288
(dp3289
g3
S'Major Lazer'
p3290
sg5
I19
sg6
S'https://open.spotify.com/track/3Ytr1SUCUi6J3L9dRFx5iH'
p3291
sg8
S'Know No Better (feat. Quavo)'
p3292
ssS'508hbpTQ7wclT2JDpKBUSV'
p3293
(dp3294
g3
S'Lorde'
p3295
sg5
I1
sg6
S'https://open.spotify.com/track/508hbpTQ7wclT2JDpKBUSV'
p3296
sg8
S'Perfect Places'
p3297
ssS'62vpWI1CHwFy7tMIcSStl8'
p3298
(dp3299
g3
S'J. Cole'
p3300
sg5
I42
sg6
S'https://open.spotify.com/track/62vpWI1CHwFy7tMIcSStl8'
p3301
sg8
S'No Role Modelz'
p3302
ssS'4sQMalN597HdggTu196aL0'
p3303
(dp3304
g3
S'Flume'
p3305
sg5
I23
sg6
S'https://open.spotify.com/track/4sQMalN597HdggTu196aL0'
p3306
sg8
S'Say It (feat. Tove Lo)'
p3307
ssS'51ChrwmUPDJvedPQnIU8Ls'
p3308
(dp3309
g3
S'Ed Sheeran'
p3310
sg5
I32
sg6
S'https://open.spotify.com/track/51ChrwmUPDJvedPQnIU8Ls'
p3311
sg8
S'Dive'
p3312
ssS'3CKCZ9pfwAfoMZlMncA1Nc'
p3313
(dp3314
g3
S'Adele'
p3315
sg5
I1
sg6
S'https://open.spotify.com/track/3CKCZ9pfwAfoMZlMncA1Nc'
p3316
sg8
S'Set Fire to the Rain'
p3317
ssS'4B1rpPmQXwj78wk6aIGwwU'
p3318
(dp3319
g3
S'Harry Styles'
p3320
sg5
I2
sg6
S'https://open.spotify.com/track/4B1rpPmQXwj78wk6aIGwwU'
p3321
sg8
S'Two Ghosts'
p3322
ssS'6jA8HL9i4QGzsj6fjoxp8Y'
p3323
(dp3324
g3
S'Martin Garrix'
p3325
sg5
I20
sg6
S'https://open.spotify.com/track/6jA8HL9i4QGzsj6fjoxp8Y'
p3326
sg8
S'There for You'
p3327
ssS'1CUVN2kn7mW5FjkqXTR2W1'
p3328
(dp3329
g3
S'Jonas Blue'
p3330
sg5
I22
sg6
S'https://open.spotify.com/track/1CUVN2kn7mW5FjkqXTR2W1'
p3331
sg8
S'Perfect Strangers'
p3332
ssS'0SGkqnVQo9KPytSri1H6cF'
p3333
(dp3334
g3
S'Big Sean'
p3335
sg5
I42
sg6
S'https://open.spotify.com/track/0SGkqnVQo9KPytSri1H6cF'
p3336
sg8
S'Bounce Back'
p3337
ssS'0Tel1fmuCxEFV6wBLXsEdk'
p3338
(dp3339
g3
S'Ed Sheeran'
p3340
sg5
I1
sg6
S'https://open.spotify.com/track/0Tel1fmuCxEFV6wBLXsEdk'
p3341
sg8
S'Kiss Me'
p3342
ssS'27SdWb2rFzO6GWiYDBTD9j'
p3343
(dp3344
g3
S'Sia'
p3345
sg5
I42
sg6
S'https://open.spotify.com/track/27SdWb2rFzO6GWiYDBTD9j'
p3346
sg8
S'Cheap Thrills'
p3347
ssS'3vgNmjuRDnGLxUFGCLkwpm'
p3348
(dp3349
g3
S'David Guetta'
p3350
sg5
I3
sg6
S'https://open.spotify.com/track/3vgNmjuRDnGLxUFGCLkwpm'
p3351
sg8
S'Light My Body Up (feat. Nicki Minaj & Lil Wayne)'
p3352
ssS'6PJ8FF6UR8FZXfEvpHkIVN'
p3353
(dp3354
g3
S'Ed Sheeran'
p3355
sg5
I27
sg6
S'https://open.spotify.com/track/6PJ8FF6UR8FZXfEvpHkIVN'
p3356
sg8
S'How Would You Feel (Paean)'
p3357
ssS'4VJ7mnW4wjjIgPBM6KWvPu'
p3358
(dp3359
g3
S'DJ Khaled'
p3360
sg5
I4
sg6
S'https://open.spotify.com/track/4VJ7mnW4wjjIgPBM6KWvPu'
p3361
sg8
S'Do You Mind'
p3362
ssS'3kdMzXOcrDIdSWLdONHNK5'
p3363
(dp3364
g3
S'Foo Fighters'
p3365
sg5
I1
sg6
S'https://open.spotify.com/track/3kdMzXOcrDIdSWLdONHNK5'
p3366
sg8
S'The Sky Is A Neighborhood'
p3367
ssS'5ndfVSDyPq90jaIUhNPeby'
p3368
(dp3369
g3
S'Katy Perry'
p3370
sg5
I2
sg6
S'https://open.spotify.com/track/5ndfVSDyPq90jaIUhNPeby'
p3371
sg8
S'Chained To The Rhythm'
p3372
ssS'5uCax9HTNlzGybIStD3vDh'
p3373
(dp3374
g3
S'James Arthur'
p3375
sg5
I42
sg6
S'https://open.spotify.com/track/5uCax9HTNlzGybIStD3vDh'
p3376
sg8
S"Say You Won't Let Go"
p3377
ssS'7qiZfU4dY1lWllzX7mPBI3'
p3378
(dp3379
g3
S'Ed Sheeran'
p3380
sg5
I40
sg6
S'https://open.spotify.com/track/7qiZfU4dY1lWllzX7mPBI3'
p3381
sg8
S'Shape of You'
p3382
ssS'70f0ToGXTEtLKFSwHMbHoC'
p3383
(dp3384
g3
S'Eagles'
p3385
sg5
I1
sg6
S'https://open.spotify.com/track/70f0ToGXTEtLKFSwHMbHoC'
p3386
sg8
S'Please Come Home For Christmas - Bonus Track'
p3387
ssS'0iV9yfj1knFNOSEiuTHZwl'
p3388
(dp3389
g3
S'Christina Aguilera'
p3390
sg5
I1
sg6
S'https://open.spotify.com/track/0iV9yfj1knFNOSEiuTHZwl'
p3391
sg8
S'Have Yourself a Merry Little Christmas'
p3392
ssS'0jVPEBd4wyHupkTHwzQRyc'
p3393
(dp3394
g3
S'Peking Duk'
p3395
sg5
I21
sg6
S'https://open.spotify.com/track/0jVPEBd4wyHupkTHwzQRyc'
p3396
sg8
S'Stranger'
p3397
ssS'0k93MXOj0kSXo84SvSDeUz'
p3398
(dp3399
g3
S'Duke Dumont'
p3400
sg5
I1
sg6
S'https://open.spotify.com/track/0k93MXOj0kSXo84SvSDeUz'
p3401
sg8
S'Ocean Drive'
p3402
ssS'0q75NwOoFiARAVp4EXU4Bs'
p3403
(dp3404
g3
S'SZA'
p3405
sg5
I17
sg6
S'https://open.spotify.com/track/0q75NwOoFiARAVp4EXU4Bs'
p3406
sg8
S'Love Galore'
p3407
ssS'2fQrGHiQOvpL9UgPvtYy6G'
p3408
(dp3409
g3
S'21 Savage'
p3410
sg5
I3
sg6
S'https://open.spotify.com/track/2fQrGHiQOvpL9UgPvtYy6G'
p3411
sg8
S'Bank Account'
p3412
ssS'05bnEv2dpFzmGVLGdjD9UP'
p3413
(dp3414
g3
S'XXXTENTACION'
p3415
sg5
I2
sg6
S'https://open.spotify.com/track/05bnEv2dpFzmGVLGdjD9UP'
p3416
sg8
S'Orlando'
p3417
ssS'7bsnTsbiwOymZWjPF9v6Di'
p3418
(dp3419
g3
S'Macklemore'
p3420
sg5
I3
sg6
S'https://open.spotify.com/track/7bsnTsbiwOymZWjPF9v6Di'
p3421
sg8
S'Marmalade (feat. Lil Yachty)'
p3422
ssS'6DB2KOEwHnjkgEnBt5SdeJ'
p3423
(dp3424
g3
S'Future'
p3425
sg5
I4
sg6
S'https://open.spotify.com/track/6DB2KOEwHnjkgEnBt5SdeJ'
p3426
sg8
S'Mask Off - Remix'
p3427
ssS'1F2HXIJrE2Xn81OzT2zZvW'
p3428
(dp3429
g3
S'French Montana'
p3430
sg5
I10
sg6
S'https://open.spotify.com/track/1F2HXIJrE2Xn81OzT2zZvW'
p3431
sg8
S'Unforgettable'
p3432
ssS'6QgjcU0zLnzq5OrUoSZ3OK'
p3433
(dp3434
g3
S'Portugal. The Man'
p3435
sg5
I12
sg6
S'https://open.spotify.com/track/6QgjcU0zLnzq5OrUoSZ3OK'
p3436
sg8
S'Feel It Still'
p3437
ssS'33z5crv3IO5U2BOi8xod92'
p3438
(dp3439
g3
S'Wiz Khalifa'
p3440
sg5
I9
sg6
S'https://open.spotify.com/track/33z5crv3IO5U2BOi8xod92'
p3441
sg8
S'Something New (feat. Ty Dolla $ign)'
p3442
ssS'78rIJddV4X0HkNAInEcYde'
p3443
(dp3444
g3
S'Starley'
p3445
sg5
I42
sg6
S'https://open.spotify.com/track/78rIJddV4X0HkNAInEcYde'
p3446
sg8
S'Call On Me - Ryan Riback Extended Remix'
p3447
ssS'0L7loeTIg6akW84aEQZpCT'
p3448
(dp3449
g3
S'Major Lazer'
p3450
sg5
I12
sg6
S'https://open.spotify.com/track/0L7loeTIg6akW84aEQZpCT'
p3451
sg8
S'Light It Up (feat. Nyla & Fuse ODG) - Remix'
p3452
ssS'4Q5yMlwAfAoitqg4r9oZHN'
p3453
(dp3454
g3
S'Cashmere Cat'
p3455
sg5
I9
sg6
S'https://open.spotify.com/track/4Q5yMlwAfAoitqg4r9oZHN'
p3456
sg8
S'Quit (feat. Ariana Grande)'
p3457
ssS'7o2CTH4ctstm8TNelqjb51'
p3458
(dp3459
g3
S"Guns N' Roses"
p3460
sg5
I6
sg6
S'https://open.spotify.com/track/7o2CTH4ctstm8TNelqjb51'
p3461
sg8
S"Sweet Child O' Mine"
p3462
ssS'2EEeOnHehOozLq4aS0n6SL'
p3463
(dp3464
g3
S'KYLE'
p3465
sg5
I36
sg6
S'https://open.spotify.com/track/2EEeOnHehOozLq4aS0n6SL'
p3466
sg8
S'iSpy (feat. Lil Yachty)'
p3467
ssS'3sTN90bIP2cJ1783ctHykO'
p3468
(dp3469
g3
S'Mura Masa'
p3470
sg5
I1
sg6
S'https://open.spotify.com/track/3sTN90bIP2cJ1783ctHykO'
p3471
sg8
S'Love$ick (feat. A$AP Rocky)'
p3472
ssS'5TXDeTFVRVY7Cvt0Dw4vWW'
p3473
(dp3474
g3
S'XXXTENTACION'
p3475
sg5
I7
sg6
S'https://open.spotify.com/track/5TXDeTFVRVY7Cvt0Dw4vWW'
p3476
sg8
S'Revenge'
p3477
ssS'167NczpNbRF7oWakJaY3Hh'
p3478
(dp3479
g3
S'Niall Horan'
p3480
sg5
I23
sg6
S'https://open.spotify.com/track/167NczpNbRF7oWakJaY3Hh'
p3481
sg8
S'Slow Hands'
p3482
ssS'0or0gNaKAXYYCsOrpvRzAu'
p3483
(dp3484
g3
S'Lorde'
p3485
sg5
I23
sg6
S'https://open.spotify.com/track/0or0gNaKAXYYCsOrpvRzAu'
p3486
sg8
S'Liability'
p3487
ssS'19a3JfW8BQwqHWUMbcqSx8'
p3488
(dp3489
g3
S'Kanye West'
p3490
sg5
I1
sg6
S'https://open.spotify.com/track/19a3JfW8BQwqHWUMbcqSx8'
p3491
sg8
S'Famous'
p3492
ssS'09mhA1SJjMHniZPF4Hcihn'
p3493
(dp3494
g3
S'Justin Bieber'
p3495
sg5
I1
sg6
S'https://open.spotify.com/track/09mhA1SJjMHniZPF4Hcihn'
p3496
sg8
S'Company'
p3497
ssS'6kig1UFggPUyZBCvXD3Wod'
p3498
(dp3499
g3
S'Metro Boomin'
p3500
sg5
I1
sg6
S'https://open.spotify.com/track/6kig1UFggPUyZBCvXD3Wod'
p3501
sg8
S'No Complaints'
p3502
ssS'7yHEDfrJNd0zWOfXwydNH0'
p3503
(dp3504
g3
S'Ariana Grande'
p3505
sg5
I12
sg6
S'https://open.spotify.com/track/7yHEDfrJNd0zWOfXwydNH0'
p3506
sg8
S'Into You'
p3507
ssS'5Db9VIdDsN5yu3Eu7CT0i4'
p3508
(dp3509
g3
S'Sam Smith'
p3510
sg5
I20
sg6
S'https://open.spotify.com/track/5Db9VIdDsN5yu3Eu7CT0i4'
p3511
sg8
S'Stay With Me'
p3512
ssS'11KJSRSgaDxqydKYiD2Jew'
p3513
(dp3514
g3
S'Drake'
p3515
sg5
I16
sg6
S'https://open.spotify.com/track/11KJSRSgaDxqydKYiD2Jew'
p3516
sg8
S'Too Good'
p3517
ssS'7pYFPMeK0TnaTGdS6qOtEr'
p3518
(dp3519
g3
S'Stargate'
p3520
sg5
I3
sg6
S'https://open.spotify.com/track/7pYFPMeK0TnaTGdS6qOtEr'
p3521
sg8
S'Waterfall'
p3522
ssS'2xt2piJx6jlFkjS77YiqpL'
p3523
(dp3524
g3
S'Audioslave'
p3525
sg5
I1
sg6
S'https://open.spotify.com/track/2xt2piJx6jlFkjS77YiqpL'
p3526
sg8
S'Like a Stone'
p3527
ssS'1yNyoWWWikbLhwIGWjZuDW'
p3528
(dp3529
g3
S'The Vamps'
p3530
sg5
I27
sg6
S'https://open.spotify.com/track/1yNyoWWWikbLhwIGWjZuDW'
p3531
sg8
S'All Night'
p3532
ssS'26AuyrZGzWWiYZPSd3XBIg'
p3533
(dp3534
g3
S'The Chainsmokers'
p3535
sg5
I1
sg6
S'https://open.spotify.com/track/26AuyrZGzWWiYZPSd3XBIg'
p3536
sg8
S'Bloodstream'
p3537
ssS'3Dwq1oiOFys6Sxr5SslmXw'
p3538
(dp3539
g3
S'Harry Styles'
p3540
sg5
I2
sg6
S'https://open.spotify.com/track/3Dwq1oiOFys6Sxr5SslmXw'
p3541
sg8
S'Carolina'
p3542
ssS'4vb4mFvYsr2h6enhjJsq9Y'
p3543
(dp3544
g3
S'Adele'
p3545
sg5
I38
sg6
S'https://open.spotify.com/track/4vb4mFvYsr2h6enhjJsq9Y'
p3546
sg8
S'Water Under the Bridge'
p3547
ssS'2kVHAQKVtczchKctctzbtK'
p3548
(dp3549
g3
S'Katy Perry'
p3550
sg5
I12
sg6
S'https://open.spotify.com/track/2kVHAQKVtczchKctctzbtK'
p3551
sg8
S'Swish Swish'
p3552
ssS'17Fd6Yb7mSbinKG8LoWfFl'
p3553
(dp3554
g3
S'Mike Posner'
p3555
sg5
I30
sg6
S'https://open.spotify.com/track/17Fd6Yb7mSbinKG8LoWfFl'
p3556
sg8
S'I Took A Pill In Ibiza - Seeb Remix'
p3557
ssS'7zTx8ePYAmPFQuxP3xlXZn'
p3558
(dp3559
g3
S'San Holo'
p3560
sg5
I7
sg6
S'https://open.spotify.com/track/7zTx8ePYAmPFQuxP3xlXZn'
p3561
sg8
S'Light'
p3562
ssS'4tCtwWceOPWzenK2HAIJSb'
p3563
(dp3564
g3
S'Fifth Harmony'
p3565
sg5
I40
sg6
S'https://open.spotify.com/track/4tCtwWceOPWzenK2HAIJSb'
p3566
sg8
S'Work from Home'
p3567
ssS'41jDpQ9b2VnVdsYEy2nC7z'
p3568
(dp3569
g3
S'2 Chainz'
p3570
sg5
I1
sg6
S'https://open.spotify.com/track/41jDpQ9b2VnVdsYEy2nC7z'
p3571
sg8
S"It's A Vibe"
p3572
ssS'7mldq42yDuxiUNn08nvzHO'
p3573
(dp3574
g3
S'Sam Hunt'
p3575
sg5
I21
sg6
S'https://open.spotify.com/track/7mldq42yDuxiUNn08nvzHO'
p3576
sg8
S'Body Like A Back Road'
p3577
ssS'3hB5DgAiMAQ4DzYbsMq1IT'
p3578
(dp3579
g3
S'Justin Bieber'
p3580
sg5
I42
sg6
S'https://open.spotify.com/track/3hB5DgAiMAQ4DzYbsMq1IT'
p3581
sg8
S'Love Yourself'
p3582
ssS'1foCxQtxBweJtZmdxhEHVO'
p3583
(dp3584
g3
S'Eartha Kitt'
p3585
sg5
I1
sg6
S'https://open.spotify.com/track/1foCxQtxBweJtZmdxhEHVO'
p3586
sg8
S'Santa Baby'
p3587
ssS'32OWobmyAz8J2qA8iWekyS'
p3588
(dp3589
g3
S'Justin Bieber'
p3590
sg5
I1
sg6
S'https://open.spotify.com/track/32OWobmyAz8J2qA8iWekyS'
p3591
sg8
S'Mistletoe'
p3592
ssS'6XOYVSmNDjKUNMXooU4s4z'
p3593
(dp3594
g3
S'OneRepublic'
p3595
sg5
I7
sg6
S'https://open.spotify.com/track/6XOYVSmNDjKUNMXooU4s4z'
p3596
sg8
S'No Vacancy'
p3597
ssS'0NZUqq4iLQddokgtiC44Kb'
p3598
(dp3599
g3
S'Future'
p3600
sg5
I8
sg6
S'https://open.spotify.com/track/0NZUqq4iLQddokgtiC44Kb'
p3601
sg8
S'PIE'
p3602
ssS'3bidbhpOYeV4knp8AIu8Xn'
p3603
(dp3604
g3
S'Macklemore & Ryan Lewis'
p3605
sg5
I23
sg6
S'https://open.spotify.com/track/3bidbhpOYeV4knp8AIu8Xn'
p3606
sg8
S"Can't Hold Us - feat. Ray Dalton"
p3607
ssS'6AGON2BGdPmPMJGiiNuuwl'
p3608
(dp3609
g3
S'J. Cole'
p3610
sg5
I6
sg6
S'https://open.spotify.com/track/6AGON2BGdPmPMJGiiNuuwl'
p3611
sg8
S'Immortal'
p3612
ssS'6PGoSes0D9eUDeeAafB2As'
p3613
(dp3614
g3
S'Kendrick Lamar'
p3615
sg5
I26
sg6
S'https://open.spotify.com/track/6PGoSes0D9eUDeeAafB2As'
p3616
sg8
S'LOVE. FEAT. ZACARI.'
p3617
ssS'1lItf5ZXJc1by9SbPeljFd'
p3618
(dp3619
g3
S'Zay Hilfigerrr'
p3620
sg5
I8
sg6
S'https://open.spotify.com/track/1lItf5ZXJc1by9SbPeljFd'
p3621
sg8
S'Juju On That Beat (TZ Anthem)'
p3622
ss.