(dp0
S'0mel2N9Ws9r4yLQn5QE21Y'
p1
(dp2
S'artistName'
p3
S'Sam Smith'
p4
sS'weeksOnChart'
p5
I5
sS'track_href'
p6
S'https://open.spotify.com/track/0mel2N9Ws9r4yLQn5QE21Y'
p7
sS'songName'
p8
S'Too Good At Goodbyes'
p9
ssS'1pJQAHpD51J7GYaFrrFO9S'
p10
(dp11
g3
S'The Chainsmokers'
p12
sg5
I2
sg6
S'https://open.spotify.com/track/1pJQAHpD51J7GYaFrrFO9S'
p13
sg8
S"Don't Say"
p14
ssS'0jdny0dhgjUwoIp5GkqEaA'
p15
(dp16
g3
S'Kesha'
p17
sg5
I4
sg6
S'https://open.spotify.com/track/0jdny0dhgjUwoIp5GkqEaA'
p18
sg8
S'Praying'
p19
ssS'60a0Rd6pjrkxjPbaKzXjfq'
p20
(dp21
g3
S'Linkin Park'
p22
sg5
I12
sg6
S'https://open.spotify.com/track/60a0Rd6pjrkxjPbaKzXjfq'
p23
sg8
S'In The End'
p24
ssS'0prNGof3XqfTvNDxHonvdK'
p25
(dp26
g3
S'Alessia Cara'
p27
sg5
I42
sg6
S'https://open.spotify.com/track/0prNGof3XqfTvNDxHonvdK'
p28
sg8
S'Scars To Your Beautiful'
p29
ssS'7FpwJEve44YORFJ04Obu63'
p30
(dp31
g3
S'Cenderawasih'
p32
sg5
I2
sg6
S'https://open.spotify.com/track/7FpwJEve44YORFJ04Obu63'
p33
sg8
S'Bersama Di Hari Raya'
p34
ssS'6HUnnBwYZqcED1eQztxMBN'
p35
(dp36
g3
S'Martin Jensen'
p37
sg5
I30
sg6
S'https://open.spotify.com/track/6HUnnBwYZqcED1eQztxMBN'
p38
sg8
S'Solo Dance'
p39
ssS'4Tulf6yVo59f2ofSi3YUqW'
p40
(dp41
g3
S'Rich Chigga'
p42
sg5
I5
sg6
S'https://open.spotify.com/track/4Tulf6yVo59f2ofSi3YUqW'
p43
sg8
S'Glow Like Dat'
p44
ssS'4A4A6dwl5DqdqrZaEtKGPR'
p45
(dp46
g3
S'Taylor Swift'
p47
sg5
I1
sg6
S'https://open.spotify.com/track/4A4A6dwl5DqdqrZaEtKGPR'
p48
sg8
S'Wildest Dreams'
p49
ssS'0F1Rc18rZcJOALxIIQPTYd'
p50
(dp51
g3
S'Maty Noyes'
p52
sg5
I15
sg6
S'https://open.spotify.com/track/0F1Rc18rZcJOALxIIQPTYd'
p53
sg8
S'in my miNd'
p54
ssS'3QWjljChcOMkRDYSzF33Qr'
p55
(dp56
g3
S'Kiiara'
p57
sg5
I10
sg6
S'https://open.spotify.com/track/3QWjljChcOMkRDYSzF33Qr'
p58
sg8
S'Whippin (feat. Felix Snow)'
p59
ssS'1qAPA8TooLVEqAZ58fhcrt'
p60
(dp61
g3
S'BLACKPINK'
p62
sg5
I6
sg6
S'https://open.spotify.com/track/1qAPA8TooLVEqAZ58fhcrt'
p63
sg8
S'BOOMBAYAH - KR Ver.'
p64
ssS'0lLdorYw7lVrJydTINhWdI'
p65
(dp66
g3
S'Michael Bubl\xc3\xa9'
p67
sg5
I1
sg6
S'https://open.spotify.com/track/0lLdorYw7lVrJydTINhWdI'
p68
sg8
S"It's Beginning To Look A Lot Like Christmas"
p69
ssS'6CdUgvL597jWmW4w8P5kHs'
p70
(dp71
g3
S'TAEYEON'
p72
sg5
I5
sg6
S'https://open.spotify.com/track/6CdUgvL597jWmW4w8P5kHs'
p73
sg8
S'Fine'
p74
ssS'2aksifNn5ph8igDOkPBA02'
p75
(dp76
g3
S'Rihanna'
p77
sg5
I13
sg6
S'https://open.spotify.com/track/2aksifNn5ph8igDOkPBA02'
p78
sg8
S'Love On The Brain'
p79
ssS'5o4yGlG0PfeVUa6ClIyOxq'
p80
(dp81
g3
S'Charli XCX'
p82
sg5
I11
sg6
S'https://open.spotify.com/track/5o4yGlG0PfeVUa6ClIyOxq'
p83
sg8
S'Boys'
p84
ssS'4b4KcovePX8Ke2cLIQTLM0'
p85
(dp86
g3
S'The Vamps'
p87
sg5
I4
sg6
S'https://open.spotify.com/track/4b4KcovePX8Ke2cLIQTLM0'
p88
sg8
S'All Night'
p89
ssS'7wGoVu4Dady5GV0Sv4UIsx'
p90
(dp91
g3
S'Post Malone'
p92
sg5
I1
sg6
S'https://open.spotify.com/track/7wGoVu4Dady5GV0Sv4UIsx'
p93
sg8
S'rockstar'
p94
ssS'7LJjWqhqK594nN7qJzLVXE'
p95
(dp96
g3
S'BLACKPINK'
p97
sg5
I10
sg6
S'https://open.spotify.com/track/7LJjWqhqK594nN7qJzLVXE'
p98
sg8
S"As If It's Your Last"
p99
ssS'7rGfXJN92ttB0FX0FWtHGR'
p100
(dp101
g3
S'Saloma'
p102
sg5
I3
sg6
S'https://open.spotify.com/track/7rGfXJN92ttB0FX0FWtHGR'
p103
sg8
S'Selamat Hari Raya'
p104
ssS'5mS0BGxAAebA3amJg6LkVk'
p105
(dp106
g3
S'Namewee'
p107
sg5
I27
sg6
S'https://open.spotify.com/track/5mS0BGxAAebA3amJg6LkVk'
p108
sg8
S'\xe9\xa3\x84\xe5\x90\x91\xe5\x8c\x97\xe6\x96\xb9'
p109
ssS'1CnPYaKxTVb4LWOtiGOm0m'
p110
(dp111
g3
S'Jon Bellion'
p112
sg5
I27
sg6
S'https://open.spotify.com/track/1CnPYaKxTVb4LWOtiGOm0m'
p113
sg8
S'All Time Low'
p114
ssS'4OZEu0Vwq0RB2LAq14v99n'
p115
(dp116
g3
S'DJ Snake'
p117
sg5
I7
sg6
S'https://open.spotify.com/track/4OZEu0Vwq0RB2LAq14v99n'
p118
sg8
S'Middle'
p119
ssS'51VVGOs2dv8dQhycnxr9pa'
p120
(dp121
g3
S'BTS'
p122
sg5
I2
sg6
S'https://open.spotify.com/track/51VVGOs2dv8dQhycnxr9pa'
p123
sg8
S'A Supplementary Story : You Never Walk Alone'
p124
ssS'3brV0xXqxX3NHvqY1QJ3xj'
p125
(dp126
g3
S"Dato' Sudirman"
p127
sg5
I3
sg6
S'https://open.spotify.com/track/3brV0xXqxX3NHvqY1QJ3xj'
p128
sg8
S'Dari Jauh Kupohon Maaf'
p129
ssS'4ioNqWWd8Ivz4bLfrn3bBN'
p130
(dp131
g3
S'Craig David'
p132
sg5
I3
sg6
S'https://open.spotify.com/track/4ioNqWWd8Ivz4bLfrn3bBN'
p133
sg8
S'Heartline'
p134
ssS'6Pw3Gvw4wNMZfTYZa6IQal'
p135
(dp136
g3
S'Bebe Rexha'
p137
sg5
I21
sg6
S'https://open.spotify.com/track/6Pw3Gvw4wNMZfTYZa6IQal'
p138
sg8
S'The Way I Are (Dance With Somebody) [feat. Lil Wayne]'
p139
ssS'1s7voXUxRTw98pmy1J8urv'
p140
(dp141
g3
S'Mike Perry'
p142
sg5
I1
sg6
S'https://open.spotify.com/track/1s7voXUxRTw98pmy1J8urv'
p143
sg8
S'Hands'
p144
ssS'6c0I7CfL9ziGZN8yYkLppP'
p145
(dp146
g3
S'Linkin Park'
p147
sg5
I1
sg6
S'https://open.spotify.com/track/6c0I7CfL9ziGZN8yYkLppP'
p148
sg8
S'Sharp Edges'
p149
ssS'2FRnf9qhLbvw8fu4IBXx78'
p150
(dp151
g3
S'Wham!'
p152
sg5
I1
sg6
S'https://open.spotify.com/track/2FRnf9qhLbvw8fu4IBXx78'
p153
sg8
S'Last Christmas'
p154
ssS'7tr2za8SQg2CI8EDgrdtNl'
p155
(dp156
g3
S'Calvin Harris'
p157
sg5
I27
sg6
S'https://open.spotify.com/track/7tr2za8SQg2CI8EDgrdtNl'
p158
sg8
S'Slide'
p159
ssS'2pU5p0i8r0QunStnUVtC1m'
p160
(dp161
g3
S'Khai Bahar'
p162
sg5
I39
sg6
S'https://open.spotify.com/track/2pU5p0i8r0QunStnUVtC1m'
p163
sg8
S'Bayang'
p164
ssS'4xBjsLUSjcx2h7PcRikpQp'
p165
(dp166
g3
S'Camila Cabello'
p167
sg5
I9
sg6
S'https://open.spotify.com/track/4xBjsLUSjcx2h7PcRikpQp'
p168
sg8
S'OMG'
p169
ssS'7L605WhF5EGf34ggj87yK6'
p170
(dp171
g3
S'Lifehouse'
p172
sg5
I13
sg6
S'https://open.spotify.com/track/7L605WhF5EGf34ggj87yK6'
p173
sg8
S'You And Me'
p174
ssS'06FCvd7rrRcF3DdvWH5Isp'
p175
(dp176
g3
S'Kendrick Lamar'
p177
sg5
I1
sg6
S'https://open.spotify.com/track/06FCvd7rrRcF3DdvWH5Isp'
p178
sg8
S'LUST.'
p179
ssS'4pLwZjInHj3SimIyN9SnOz'
p180
(dp181
g3
S'Ariana Grande'
p182
sg5
I38
sg6
S'https://open.spotify.com/track/4pLwZjInHj3SimIyN9SnOz'
p183
sg8
S'Side To Side'
p184
ssS'3llHPPHKJ9bBYh9pg9TBbf'
p185
(dp186
g3
S'Petit Biscuit'
p187
sg5
I1
sg6
S'https://open.spotify.com/track/3llHPPHKJ9bBYh9pg9TBbf'
p188
sg8
S'Waterfall'
p189
ssS'3E2Zh20GDCR9B1EYjfXWyv'
p190
(dp191
g3
S'AJR'
p192
sg5
I22
sg6
S'https://open.spotify.com/track/3E2Zh20GDCR9B1EYjfXWyv'
p193
sg8
S'Weak'
p194
ssS'2Gl0FzuLxflY6nPifJp5Dr'
p195
(dp196
g3
S'Kygo'
p197
sg5
I24
sg6
S'https://open.spotify.com/track/2Gl0FzuLxflY6nPifJp5Dr'
p198
sg8
S'First Time'
p199
ssS'34isqXjbTstbYwl2MfdzDq'
p200
(dp201
g3
S'Linkin Park'
p202
sg5
I1
sg6
S'https://open.spotify.com/track/34isqXjbTstbYwl2MfdzDq'
p203
sg8
S'Sorry for Now'
p204
ssS'5bUabhDYpMqgppTZTYVqp1'
p205
(dp206
g3
S'Hael Husaini'
p207
sg5
I27
sg6
S'https://open.spotify.com/track/5bUabhDYpMqgppTZTYVqp1'
p208
sg8
S'Jampi'
p209
ssS'4BHzQ9C00ceJxfG16AlNWb'
p210
(dp211
g3
S'Adele'
p212
sg5
I12
sg6
S'https://open.spotify.com/track/4BHzQ9C00ceJxfG16AlNWb'
p213
sg8
S'Send My Love (To Your New Lover)'
p214
ssS'4Km5HrUvYTaSUfiSGPJeQR'
p215
(dp216
g3
S'Migos'
p217
sg5
I15
sg6
S'https://open.spotify.com/track/4Km5HrUvYTaSUfiSGPJeQR'
p218
sg8
S'Bad and Boujee (feat. Lil Uzi Vert)'
p219
ssS'50PWlIBU7PlGGwzgN8TiFJ'
p220
(dp221
g3
S'Lady Gaga'
p222
sg5
I9
sg6
S'https://open.spotify.com/track/50PWlIBU7PlGGwzgN8TiFJ'
p223
sg8
S'Million Reasons'
p224
ssS'2RttW7RAu5nOAfq6YFvApB'
p225
(dp226
g3
S'Ed Sheeran'
p227
sg5
I32
sg6
S'https://open.spotify.com/track/2RttW7RAu5nOAfq6YFvApB'
p228
sg8
S'Happier'
p229
ssS'0zqmCAx4rhIkKXFzKaVscd'
p230
(dp231
g3
S'Han Suji'
p232
sg5
I3
sg6
S'https://open.spotify.com/track/0zqmCAx4rhIkKXFzKaVscd'
p233
sg8
S'Winter Is Coming'
p234
ssS'1cOyWWUr3oXJIxY0AjJEx9'
p235
(dp236
g3
S'Troye Sivan'
p237
sg5
I7
sg6
S'https://open.spotify.com/track/1cOyWWUr3oXJIxY0AjJEx9'
p238
sg8
S'YOUTH'
p239
ssS'3EmmCZoqpWOTY1g2GBwJoR'
p240
(dp241
g3
S'Steve Aoki'
p242
sg5
I27
sg6
S'https://open.spotify.com/track/3EmmCZoqpWOTY1g2GBwJoR'
p243
sg8
S'Just Hold On'
p244
ssS'2Ce5IyMlVRVvN997ZJjJJA'
p245
(dp246
g3
S'Future'
p247
sg5
I14
sg6
S'https://open.spotify.com/track/2Ce5IyMlVRVvN997ZJjJJA'
p248
sg8
S'Selfish'
p249
ssS'4R3BqGWGboh1b6RaRVXxWE'
p250
(dp251
g3
S'Ahmad Jais'
p252
sg5
I3
sg6
S'https://open.spotify.com/track/4R3BqGWGboh1b6RaRVXxWE'
p253
sg8
S'Selamat hari raya'
p254
ssS'60awlN6okp8FyD0pdU38dc'
p255
(dp256
g3
S'SonaOne'
p257
sg5
I4
sg6
S'https://open.spotify.com/track/60awlN6okp8FyD0pdU38dc'
p258
sg8
S'Again'
p259
ssS'3eFJqPe8VUYrABbFjSauuj'
p260
(dp261
g3
S''
p262
sg5
I1
sg6
S'https://open.spotify.com/track/3eFJqPe8VUYrABbFjSauuj'
p263
sg8
g262
ssS'2mhGj2SVdLhDanD5KH7YzC'
p264
(dp265
g3
S'Floor 88'
p266
sg5
I15
sg6
S'https://open.spotify.com/track/2mhGj2SVdLhDanD5KH7YzC'
p267
sg8
S'Zalikha'
p268
ssS'7KlTFTpy7dXLzr2NtLkvG6'
p269
(dp270
g3
S'BTS'
p271
sg5
I17
sg6
S'https://open.spotify.com/track/7KlTFTpy7dXLzr2NtLkvG6'
p272
sg8
S'Not Today'
p273
ssS'5eqK0tbzUPo2SoeZsov04s'
p274
(dp275
g3
S'21 Savage'
p276
sg5
I7
sg6
S'https://open.spotify.com/track/5eqK0tbzUPo2SoeZsov04s'
p277
sg8
S'Bank Account'
p278
ssS'54LGxQGf5LPXNGjtzDZ5IE'
p279
(dp280
g3
S'Zara Larsson'
p281
sg5
I1
sg6
S'https://open.spotify.com/track/54LGxQGf5LPXNGjtzDZ5IE'
p282
sg8
S'So Good'
p283
ssS'4iYRa2btalAzPZoSYfROqF'
p284
(dp285
g3
S'Kendrick Lamar'
p286
sg5
I1
sg6
S'https://open.spotify.com/track/4iYRa2btalAzPZoSYfROqF'
p287
sg8
S'XXX. FEAT. U2.'
p288
ssS'4xlrALxuaCf9yZBHJeTSG6'
p289
(dp290
g3
S'Jonas Blue'
p291
sg5
I9
sg6
S'https://open.spotify.com/track/4xlrALxuaCf9yZBHJeTSG6'
p292
sg8
S'Mama'
p293
ssS'4kRD8eEDO8Fb0mCpCErrfu'
p294
(dp295
g3
S'Nyanyian Ramai'
p296
sg5
I1
sg6
S'https://open.spotify.com/track/4kRD8eEDO8Fb0mCpCErrfu'
p297
sg8
S'Warna Warni Aidilfitri'
p298
ssS'4izg6Hydc6XGErWW6nbdsV'
p299
(dp300
g3
S'Imagine Dragons'
p301
sg5
I3
sg6
S'https://open.spotify.com/track/4izg6Hydc6XGErWW6nbdsV'
p302
sg8
S'Whatever It Takes'
p303
ssS'5GIyCpbdhQ5QC17jNUbWbn'
p304
(dp305
g3
S"Dato' Sudirman"
p306
sg5
I3
sg6
S'https://open.spotify.com/track/5GIyCpbdhQ5QC17jNUbWbn'
p307
sg8
S'Balik Kampung'
p308
ssS'5eI3a4RJ5Qfum61vdQMy6B'
p309
(dp310
g3
S'Aman Shah'
p311
sg5
I1
sg6
S'https://open.spotify.com/track/5eI3a4RJ5Qfum61vdQMy6B'
p312
sg8
S'Kepulangan Yang Dinanti'
p313
ssS'3pzjHKrQSvXGHQ98dx18HI'
p314
(dp315
g3
S'Justin Bieber'
p316
sg5
I1
sg6
S'https://open.spotify.com/track/3pzjHKrQSvXGHQ98dx18HI'
p317
sg8
S'What Do You Mean?'
p318
ssS'000xQL6tZNLJzIrtIgxqSl'
p319
(dp320
g3
S'ZAYN'
p321
sg5
I11
sg6
S'https://open.spotify.com/track/000xQL6tZNLJzIrtIgxqSl'
p322
sg8
S'Still Got Time'
p323
ssS'52okn5MNA47tk87PeZJLEL'
p324
(dp325
g3
S'NF'
p326
sg5
I1
sg6
S'https://open.spotify.com/track/52okn5MNA47tk87PeZJLEL'
p327
sg8
S'Let You Down'
p328
ssS'1D3ODoXHBLpdxolZRHWV1j'
p329
(dp330
g3
S'Jonas Blue'
p331
sg5
I28
sg6
S'https://open.spotify.com/track/1D3ODoXHBLpdxolZRHWV1j'
p332
sg8
S'By Your Side'
p333
ssS'1CKd1PnqfYx0H12V9MSaIY'
p334
(dp335
g3
S'Zedd'
p336
sg5
I10
sg6
S'https://open.spotify.com/track/1CKd1PnqfYx0H12V9MSaIY'
p337
sg8
S'Get Low (with Liam Payne)'
p338
ssS'57kmvJCjIgtFSLjXBRTkz7'
p339
(dp340
g3
S'Ayda Jebat'
p341
sg5
I15
sg6
S'https://open.spotify.com/track/57kmvJCjIgtFSLjXBRTkz7'
p342
sg8
S'Nakal Nakal Nakal'
p343
ssS'042x9bsUBWW2fJgJ6fUh61'
p344
(dp345
g3
S'DVBBS'
p346
sg5
I13
sg6
S'https://open.spotify.com/track/042x9bsUBWW2fJgJ6fUh61'
p347
sg8
S'Not Going Home'
p348
ssS'2DGa7iaidT5s0qnINlwMjJ'
p349
(dp350
g3
S'Alan Walker'
p351
sg5
I4
sg6
S'https://open.spotify.com/track/2DGa7iaidT5s0qnINlwMjJ'
p352
sg8
S'The Spectre'
p353
ssS'5CtI0qwDJkDQGwXD1H1cLb'
p354
(dp355
g3
S'Luis Fonsi'
p356
sg5
I26
sg6
S'https://open.spotify.com/track/5CtI0qwDJkDQGwXD1H1cLb'
p357
sg8
S'Despacito - Remix'
p358
ssS'5MvM36hgc1c1Z6z24a9gPo'
p359
(dp360
g3
S'Laudya Cynthia Bella'
p361
sg5
I1
sg6
S'https://open.spotify.com/track/5MvM36hgc1c1Z6z24a9gPo'
p362
sg8
S'Surga Yang Kurindukan - From Surga Yang Tak Dirindukan 2'
p363
ssS'0Nhu3zSYbEz32IYiobV75e'
p364
(dp365
g3
S'Halsey'
p366
sg5
I10
sg6
S'https://open.spotify.com/track/0Nhu3zSYbEz32IYiobV75e'
p367
sg8
S'Now Or Never'
p368
ssS'0zCfmceT1YvtZXGbR6Roht'
p369
(dp370
g3
S'La La Land Cast'
p371
sg5
I4
sg6
S'https://open.spotify.com/track/0zCfmceT1YvtZXGbR6Roht'
p372
sg8
S'Another Day Of Sun - From La La Land Soundtrack'
p373
ssS'1a5Yu5L18qNxVhXx38njON'
p374
(dp375
g3
S'Alok'
p376
sg5
I14
sg6
S'https://open.spotify.com/track/1a5Yu5L18qNxVhXx38njON'
p377
sg8
S'Hear Me Now'
p378
ssS'1Eck97uRMlprKOOJN9oO1E'
p379
(dp380
g3
S'G-Eazy'
p381
sg5
I30
sg6
S'https://open.spotify.com/track/1Eck97uRMlprKOOJN9oO1E'
p382
sg8
S'Good Life (with G-Eazy & Kehlani)'
p383
ssS'7ARveOiD31w2Nq0n5FsSf8'
p384
(dp385
g3
S'Lorde'
p386
sg5
I1
sg6
S'https://open.spotify.com/track/7ARveOiD31w2Nq0n5FsSf8'
p387
sg8
S'Perfect Places'
p388
ssS'2ekn2ttSfGqwhhate0LSR0'
p389
(dp390
g3
S'Dua Lipa'
p391
sg5
I16
sg6
S'https://open.spotify.com/track/2ekn2ttSfGqwhhate0LSR0'
p392
sg8
S'New Rules'
p393
ssS'1sCxVKWImDZSZKvG0U9B23'
p394
(dp395
g3
S'Selena Gomez'
p396
sg5
I20
sg6
S'https://open.spotify.com/track/1sCxVKWImDZSZKvG0U9B23'
p397
sg8
S'Bad Liar'
p398
ssS'6jmngk8Fwup05JZ6kgXEGX'
p399
(dp400
g3
S'Imagine Dragons'
p401
sg5
I1
sg6
S'https://open.spotify.com/track/6jmngk8Fwup05JZ6kgXEGX'
p402
sg8
S'Walking The Wire'
p403
ssS'5egqKwgK5r5rvGD1LrtR7J'
p404
(dp405
g3
S'Linkin Park'
p406
sg5
I1
sg6
S'https://open.spotify.com/track/5egqKwgK5r5rvGD1LrtR7J'
p407
sg8
S'Points Of Authority'
p408
ssS'2uSLx5uwRIhiA3sJJraNqX'
p409
(dp410
g3
S'Maroon 5'
p411
sg5
I1
sg6
S'https://open.spotify.com/track/2uSLx5uwRIhiA3sJJraNqX'
p412
sg8
S'Help Me Out (with Julia Michaels)'
p413
ssS'7oVEtyuv9NBmnytsCIsY5I'
p414
(dp415
g3
S'Linkin Park'
p416
sg5
I1
sg6
S'https://open.spotify.com/track/7oVEtyuv9NBmnytsCIsY5I'
p417
sg8
S'BURN IT DOWN'
p418
ssS'0ADG9OgdVTL7fgREP75BrZ'
p419
(dp420
g3
S'Zara Larsson'
p421
sg5
I6
sg6
S'https://open.spotify.com/track/0ADG9OgdVTL7fgREP75BrZ'
p422
sg8
S"Ain't My Fault"
p423
ssS'1vrd6UOGamcKNGnSHJQlSt'
p424
(dp425
g3
S'Taylor Swift'
p426
sg5
I1
sg6
S'https://open.spotify.com/track/1vrd6UOGamcKNGnSHJQlSt'
p427
sg8
S'Love Story'
p428
ssS'0YVsrgp4OOUhFuYMAVQazV'
p429
(dp430
g3
S'BIGBANG'
p431
sg5
I22
sg6
S'https://open.spotify.com/track/0YVsrgp4OOUhFuYMAVQazV'
p432
sg8
S'FXXK IT'
p433
ssS'7KXjTSCq5nL1LoYtL7XAwS'
p434
(dp435
g3
S'Kendrick Lamar'
p436
sg5
I28
sg6
S'https://open.spotify.com/track/7KXjTSCq5nL1LoYtL7XAwS'
p437
sg8
S'HUMBLE.'
p438
ssS'3TRFq09DUgYj1mug6RRqJW'
p439
(dp440
g3
S'Luke Christopher'
p441
sg5
I21
sg6
S'https://open.spotify.com/track/3TRFq09DUgYj1mug6RRqJW'
p442
sg8
S'Lot to Learn'
p443
ssS'6O6M7pJLABmfBRoGZMu76Y'
p444
(dp445
g3
S'The Chainsmokers'
p446
sg5
I19
sg6
S'https://open.spotify.com/track/6O6M7pJLABmfBRoGZMu76Y'
p447
sg8
S'Roses'
p448
ssS'1rIKgCH4H52lrvDcz50hS8'
p449
(dp450
g3
S'Zara Larsson'
p451
sg5
I5
sg6
S'https://open.spotify.com/track/1rIKgCH4H52lrvDcz50hS8'
p452
sg8
S'Lush Life'
p453
ssS'7vGuf3Y35N4wmASOKLUVVU'
p454
(dp455
g3
S'Marshmello'
p456
sg5
I9
sg6
S'https://open.spotify.com/track/7vGuf3Y35N4wmASOKLUVVU'
p457
sg8
S'Silence'
p458
ssS'7pstxLUhvsJC3M4TxHe2aI'
p459
(dp460
g3
S'Ti\xc3\xabsto'
p461
sg5
I2
sg6
S'https://open.spotify.com/track/7pstxLUhvsJC3M4TxHe2aI'
p462
sg8
S'Carry You Home'
p463
ssS'0RrvuJL62o4vAnevXusPr9'
p464
(dp465
g3
S'Nastia'
p466
sg5
I13
sg6
S'https://open.spotify.com/track/0RrvuJL62o4vAnevXusPr9'
p467
sg8
S'Rapuh'
p468
ssS'0Rg6hoXD1wBiOFZ4pmzoWh'
p469
(dp470
g3
S'C\xc3\xa9line Dion'
p471
sg5
I2
sg6
S'https://open.spotify.com/track/0Rg6hoXD1wBiOFZ4pmzoWh'
p472
sg8
S'How Does A Moment Last Forever'
p473
ssS'7iDxZ5Cd0Yg08d4fI5WVtG'
p474
(dp475
g3
S'Calvin Harris'
p476
sg5
I1
sg6
S'https://open.spotify.com/track/7iDxZ5Cd0Yg08d4fI5WVtG'
p477
sg8
S'Skrt On Me'
p478
ssS'69xmMtzLEVxACrVckHBrY3'
p479
(dp480
g3
S'Datuk Sharifah Aini'
p481
sg5
I3
sg6
S'https://open.spotify.com/track/69xmMtzLEVxACrVckHBrY3'
p482
sg8
S'Suasana Hari Raya'
p483
ssS'7129iqBafaphfc3WPCGC0L'
p484
(dp485
g3
S'Lukas Graham'
p486
sg5
I10
sg6
S'https://open.spotify.com/track/7129iqBafaphfc3WPCGC0L'
p487
sg8
S'7 Years'
p488
ssS'4WjH9Bzt3kx7z8kl0awxh4'
p489
(dp490
g3
S'Major Lazer'
p491
sg5
I3
sg6
S'https://open.spotify.com/track/4WjH9Bzt3kx7z8kl0awxh4'
p492
sg8
S'Lean On (feat. M\xc3\x98 & DJ Snake)'
p493
ssS'1liq9fnB5siKzxqajo5hxm'
p494
(dp495
g3
S'Dato Siti Nurhaliza'
p496
sg5
I1
sg6
S'https://open.spotify.com/track/1liq9fnB5siKzxqajo5hxm'
p497
sg8
S'Nazam Lebaran'
p498
ssS'3xfwh8VNnBmeh7HdIkzl1x'
p499
(dp500
g3
S'Gamma1'
p501
sg5
I15
sg6
S'https://open.spotify.com/track/3xfwh8VNnBmeh7HdIkzl1x'
p502
sg8
S'Jomblo Happy'
p503
ssS'43jBqV3j3Xi1g6wO0bhIMd'
p504
(dp505
g3
S'Sage The Gemini'
p506
sg5
I9
sg6
S'https://open.spotify.com/track/43jBqV3j3Xi1g6wO0bhIMd'
p507
sg8
S'Now and Later'
p508
ssS'7oolFzHipTMg2nL7shhdz2'
p509
(dp510
g3
S'Ed Sheeran'
p511
sg5
I3
sg6
S'https://open.spotify.com/track/7oolFzHipTMg2nL7shhdz2'
p512
sg8
S'Eraser'
p513
ssS'4Yf5bqU3NK4kNOypcrLYwU'
p514
(dp515
g3
S'Linkin Park'
p516
sg5
I1
sg6
S'https://open.spotify.com/track/4Yf5bqU3NK4kNOypcrLYwU'
p517
sg8
S'Faint'
p518
ssS'2i3CjQcwO6rv6rUvCtX17w'
p519
(dp520
g3
S'Cakra Khan'
p521
sg5
I15
sg6
S'https://open.spotify.com/track/2i3CjQcwO6rv6rUvCtX17w'
p522
sg8
S'Mencari Cinta Sejati'
p523
ssS'2TRFeXP9DIXV1gp5vFvLSD'
p524
(dp525
g3
S'Aziz Harun'
p526
sg5
I2
sg6
S'https://open.spotify.com/track/2TRFeXP9DIXV1gp5vFvLSD'
p527
sg8
S'Jangan'
p528
ssS'3tBwccJ48BaRuymkdmheaz'
p529
(dp530
g3
S'Syamel'
p531
sg5
I1
sg6
S'https://open.spotify.com/track/3tBwccJ48BaRuymkdmheaz'
p532
sg8
S'Hidup Dalam Mati'
p533
ssS'37F0uwRSrdzkBiuj0D5UHI'
p534
(dp535
g3
S'The Weeknd'
p536
sg5
I2
sg6
S'https://open.spotify.com/track/37F0uwRSrdzkBiuj0D5UHI'
p537
sg8
S'Reminder'
p538
ssS'39afswHs17v53znQm1gDTY'
p539
(dp540
g3
S'Rihanna'
p541
sg5
I8
sg6
S'https://open.spotify.com/track/39afswHs17v53znQm1gDTY'
p542
sg8
S'Take A Bow - Main'
p543
ssS'0xWcxp3BFrKSsAgpGtaseK'
p544
(dp545
g3
S'Zizan Razak'
p546
sg5
I12
sg6
S'https://open.spotify.com/track/0xWcxp3BFrKSsAgpGtaseK'
p547
sg8
S'Chentaku (feat. SonaOne)'
p548
ssS'6wV12xIUb8oFY7lBy4KuQe'
p549
(dp550
g3
S'Aaron Carter'
p551
sg5
I9
sg6
S'https://open.spotify.com/track/6wV12xIUb8oFY7lBy4KuQe'
p552
sg8
S'Sooner Or Later'
p553
ssS'7q8jJ1XZEliBakZSUMFde5'
p554
(dp555
g3
S'Cheat Codes'
p556
sg5
I20
sg6
S'https://open.spotify.com/track/7q8jJ1XZEliBakZSUMFde5'
p557
sg8
S'Stay With You'
p558
ssS'2eMwDehkIC1j68U6FA3Eiq'
p559
(dp560
g3
S'Lil Uzi Vert'
p561
sg5
I18
sg6
S'https://open.spotify.com/track/2eMwDehkIC1j68U6FA3Eiq'
p562
sg8
S'XO TOUR Llif3'
p563
ssS'3CRDbSIZ4r5MsZ0YwxuEkn'
p564
(dp565
g3
S'Twenty One Pilots'
p566
sg5
I7
sg6
S'https://open.spotify.com/track/3CRDbSIZ4r5MsZ0YwxuEkn'
p567
sg8
S'Stressed Out'
p568
ssS'7mDaLg0efKjbRyB4zseB27'
p569
(dp570
g3
S'Hyper Act'
p571
sg5
I3
sg6
S'https://open.spotify.com/track/7mDaLg0efKjbRyB4zseB27'
p572
sg8
S'Kasih'
p573
ssS'6mICuAdrwEjh6Y6lroV2Kg'
p574
(dp575
g3
S'Shakira'
p576
sg5
I8
sg6
S'https://open.spotify.com/track/6mICuAdrwEjh6Y6lroV2Kg'
p577
sg8
S'Chantaje'
p578
ssS'5V7mTIcXVU9k2JNu0mE6vy'
p579
(dp580
g3
S'Secondhand Serenade'
p581
sg5
I42
sg6
S'https://open.spotify.com/track/5V7mTIcXVU9k2JNu0mE6vy'
p582
sg8
S'Fall for You (Acoustic)'
p583
ssS'7gHs73wELdeycvS48JfIos'
p584
(dp585
g3
S'Alan Walker'
p586
sg5
I42
sg6
S'https://open.spotify.com/track/7gHs73wELdeycvS48JfIos'
p587
sg8
S'Faded'
p588
ssS'27zrFrtUtWl2urlvjOn5xc'
p589
(dp590
g3
S'Loco'
p591
sg5
I4
sg6
S'https://open.spotify.com/track/27zrFrtUtWl2urlvjOn5xc'
p592
sg8
S'Say Yes'
p593
ssS'3RiPr603aXAoi4GHyXx0uy'
p594
(dp595
g3
S'Coldplay'
p596
sg5
I25
sg6
S'https://open.spotify.com/track/3RiPr603aXAoi4GHyXx0uy'
p597
sg8
S'Hymn For The Weekend'
p598
ssS'1Zyd6zQnC6XIIzmg3hP7Ot'
p599
(dp600
g3
S'BLACKPINK'
p601
sg5
I6
sg6
S'https://open.spotify.com/track/1Zyd6zQnC6XIIzmg3hP7Ot'
p602
sg8
S"As If It's Your Last"
p603
ssS'00lNx0OcTJrS3MKHcB80HY'
p604
(dp605
g3
S'Jax Jones'
p606
sg5
I10
sg6
S'https://open.spotify.com/track/00lNx0OcTJrS3MKHcB80HY'
p607
sg8
S"You Don't Know Me - Radio Edit"
p608
ssS'2s76aKBWKShlwPC4xTtEEE'
p609
(dp610
g3
S'State of Sound'
p611
sg5
I5
sg6
S'https://open.spotify.com/track/2s76aKBWKShlwPC4xTtEEE'
p612
sg8
S'Wake Up Where You Are'
p613
ssS'2SYa5Lx1uoCvyDIW4oee9b'
p614
(dp615
g3
S'BTS'
p616
sg5
I4
sg6
S'https://open.spotify.com/track/2SYa5Lx1uoCvyDIW4oee9b'
p617
sg8
S'MIC Drop'
p618
ssS'2zjEMw9kkROEbAxIXk6Ivp'
p619
(dp620
g3
S'Linkin Park'
p621
sg5
I1
sg6
S'https://open.spotify.com/track/2zjEMw9kkROEbAxIXk6Ivp'
p622
sg8
S'Shadow Of The Day'
p623
ssS'6t2ubAB4iSYOuIpRAOGd4t'
p624
(dp625
g3
S'Flo Rida'
p626
sg5
I12
sg6
S'https://open.spotify.com/track/6t2ubAB4iSYOuIpRAOGd4t'
p627
sg8
S'Cake'
p628
ssS'63YwwfIXQr1FQRpPZXMkEk'
p629
(dp630
g3
S'Noorkumalasari'
p631
sg5
I3
sg6
S'https://open.spotify.com/track/63YwwfIXQr1FQRpPZXMkEk'
p632
sg8
S'Pulang Di Hari Raya'
p633
ssS'3gcYAkN1HyV7QwfRKApIka'
p634
(dp635
g3
S'Aiman Tino'
p636
sg5
I18
sg6
S'https://open.spotify.com/track/3gcYAkN1HyV7QwfRKApIka'
p637
sg8
S'Ku Rela Dibenci'
p638
ssS'0dj1CtyRxZ4bnIT4Q20jNT'
p639
(dp640
g3
S'The Chainsmokers'
p641
sg5
I1
sg6
S'https://open.spotify.com/track/0dj1CtyRxZ4bnIT4Q20jNT'
p642
sg8
S'Wake Up Alone'
p643
ssS'0fg8CqpjdojMyXLNzM2PaJ'
p644
(dp645
g3
S'Major Lazer'
p646
sg5
I15
sg6
S'https://open.spotify.com/track/0fg8CqpjdojMyXLNzM2PaJ'
p647
sg8
S'Run Up (feat. PARTYNEXTDOOR & Nicki Minaj)'
p648
ssS'6uFsE1JgZ20EXyU0JQZbUR'
p649
(dp650
g3
S'Taylor Swift'
p651
sg5
I7
sg6
S'https://open.spotify.com/track/6uFsE1JgZ20EXyU0JQZbUR'
p652
sg8
S'Look What You Made Me Do'
p653
ssS'5CwcXgsF9jcyqwkl5uxKnD'
p654
(dp655
g3
S'Payung Teduh'
p656
sg5
I2
sg6
S'https://open.spotify.com/track/5CwcXgsF9jcyqwkl5uxKnD'
p657
sg8
S'Akad'
p658
ssS'0jFHMDRXxKaREor3hBEEST'
p659
(dp660
g3
S'SUNMI'
p661
sg5
I6
sg6
S'https://open.spotify.com/track/0jFHMDRXxKaREor3hBEEST'
p662
sg8
S'Gashina'
p663
ssS'2BPXILn0MqOe5WroVXlvN1'
p664
(dp665
g3
S'Ailee'
p666
sg5
I14
sg6
S'https://open.spotify.com/track/2BPXILn0MqOe5WroVXlvN1'
p667
sg8
S'I will go to you like the first snow'
p668
ssS'4QtOB0x5U8zz9gn9gDvu79'
p669
(dp670
g3
S'Wany Hasrita'
p671
sg5
I37
sg6
S'https://open.spotify.com/track/4QtOB0x5U8zz9gn9gDvu79'
p672
sg8
S'Menahan Rindu'
p673
ssS'7GX5flRQZVHRAGd6B4TmDO'
p674
(dp675
g3
S'Lil Uzi Vert'
p676
sg5
I7
sg6
S'https://open.spotify.com/track/7GX5flRQZVHRAGd6B4TmDO'
p677
sg8
S'XO TOUR Llif3'
p678
ssS'0oSNOJEcBIKNcQzRc5TfyR'
p679
(dp680
g3
S'BTS'
p681
sg5
I30
sg6
S'https://open.spotify.com/track/0oSNOJEcBIKNcQzRc5TfyR'
p682
sg8
S'Blood Sweat & Tears'
p683
ssS'4F7A0DXBrmUAkp32uenhZt'
p684
(dp685
g3
S'The Weeknd'
p686
sg5
I6
sg6
S'https://open.spotify.com/track/4F7A0DXBrmUAkp32uenhZt'
p687
sg8
S'Party Monster'
p688
ssS'5kRPPEWFJIMox5qIkQkiz5'
p689
(dp690
g3
S'Harry Styles'
p691
sg5
I3
sg6
S'https://open.spotify.com/track/5kRPPEWFJIMox5qIkQkiz5'
p692
sg8
S'Sweet Creature'
p693
ssS'3V9DfRoS7JfSkuTyNEsCxQ'
p694
(dp695
g3
S'Martin Jensen'
p696
sg5
I4
sg6
S'https://open.spotify.com/track/3V9DfRoS7JfSkuTyNEsCxQ'
p697
sg8
S'Wait'
p698
ssS'4nMlau89VAjmV7agkl7OY3'
p699
(dp700
g3
S'Andy Grammer'
p701
sg5
I18
sg6
S'https://open.spotify.com/track/4nMlau89VAjmV7agkl7OY3'
p702
sg8
S'Fresh Eyes'
p703
ssS'75ZvA4QfFiZvzhj2xkaWAh'
p704
(dp705
g3
S'Post Malone'
p706
sg5
I2
sg6
S'https://open.spotify.com/track/75ZvA4QfFiZvzhj2xkaWAh'
p707
sg8
S'I Fall Apart'
p708
ssS'7BKLCZ1jbUBVqRi2FVlTVw'
p709
(dp710
g3
S'The Chainsmokers'
p711
sg5
I42
sg6
S'https://open.spotify.com/track/7BKLCZ1jbUBVqRi2FVlTVw'
p712
sg8
S'Closer'
p713
ssS'4LSkEJ5P5MV0y3PZqw7guJ'
p714
(dp715
g3
S'Cheat Codes'
p716
sg5
I10
sg6
S'https://open.spotify.com/track/4LSkEJ5P5MV0y3PZqw7guJ'
p717
sg8
S'Sober'
p718
ssS'7hDc8b7IXETo14hHIHdnhd'
p719
(dp720
g3
S'Drake'
p721
sg5
I18
sg6
S'https://open.spotify.com/track/7hDc8b7IXETo14hHIHdnhd'
p722
sg8
S'Passionfruit'
p723
ssS'6BHipP6z0SEES9KbhTUxr1'
p724
(dp725
g3
S'Anuar Zain'
p726
sg5
I20
sg6
S'https://open.spotify.com/track/6BHipP6z0SEES9KbhTUxr1'
p727
sg8
S'Andainya Takdir'
p728
ssS'7nKQ5WAcjnG48knyLuo8gO'
p729
(dp730
g3
S'Red Velvet'
p731
sg5
I5
sg6
S'https://open.spotify.com/track/7nKQ5WAcjnG48knyLuo8gO'
p732
sg8
S'\xeb\xb9\xa8\xea\xb0\x84 \xeb\xa7\x9b Red Flavor'
p733
ssS'2LTlO3NuNVN70lp2ZbVswF'
p734
(dp735
g3
S'Kendrick Lamar'
p736
sg5
I1
sg6
S'https://open.spotify.com/track/2LTlO3NuNVN70lp2ZbVswF'
p737
sg8
S'FEEL.'
p738
ssS'69ZEgPX0hxWXJIqkTlYz41'
p739
(dp740
g3
S'Linkin Park'
p741
sg5
I1
sg6
S'https://open.spotify.com/track/69ZEgPX0hxWXJIqkTlYz41'
p742
sg8
S'Iridescent'
p743
ssS'1eVRnmGhDPATPxz6kqWuCP'
p744
(dp745
g3
S'Julia Michaels'
p746
sg5
I2
sg6
S'https://open.spotify.com/track/1eVRnmGhDPATPxz6kqWuCP'
p747
sg8
S'Uh Huh'
p748
ssS'3CEs5Jnov3YkmYn0Vezrcr'
p749
(dp750
g3
S'Wanna One'
p751
sg5
I1
sg6
S'https://open.spotify.com/track/3CEs5Jnov3YkmYn0Vezrcr'
p752
sg8
S'Energetic'
p753
ssS'2Abh3TNjvVW7OsKYDwQpiP'
p754
(dp755
g3
S'Dato Siti Nurhaliza'
p756
sg5
I1
sg6
S'https://open.spotify.com/track/2Abh3TNjvVW7OsKYDwQpiP'
p757
sg8
S'Bila Hari Raya Menjelma'
p758
ssS'5Uobn7TdbSjUZWANSAHyWa'
p759
(dp760
g3
S'Yuna'
p761
sg5
I1
sg6
S'https://open.spotify.com/track/5Uobn7TdbSjUZWANSAHyWa'
p762
sg8
S'Pulang'
p763
ssS'0XLOf9LhyazPX9Ld8jPiUq'
p764
(dp765
g3
S'Selena Gomez'
p766
sg5
I12
sg6
S'https://open.spotify.com/track/0XLOf9LhyazPX9Ld8jPiUq'
p767
sg8
S'Fetish (feat. Gucci Mane)'
p768
ssS'0ZPfDxZn5O0L84wvPSN2iG'
p769
(dp770
g3
S'Ellie Goulding'
p771
sg5
I3
sg6
S'https://open.spotify.com/track/0ZPfDxZn5O0L84wvPSN2iG'
p772
sg8
S'How Long Will I Love You - Bonus Track'
p773
ssS'0kN8xEmgMW9mh7UmDYHlJP'
p774
(dp775
g3
S'Bruno Mars'
p776
sg5
I42
sg6
S'https://open.spotify.com/track/0kN8xEmgMW9mh7UmDYHlJP'
p777
sg8
S'Versace On The Floor'
p778
ssS'1yxgsra98r3qAtxqiGZPiX'
p779
(dp780
g3
S'Travis Scott'
p781
sg5
I10
sg6
S'https://open.spotify.com/track/1yxgsra98r3qAtxqiGZPiX'
p782
sg8
S'Butterfly Effect'
p783
ssS'0Clb9aiXWa0dvVff5aN4VN'
p784
(dp785
g3
S'Astrid S'
p786
sg5
I2
sg6
S'https://open.spotify.com/track/0Clb9aiXWa0dvVff5aN4VN'
p787
sg8
S'Think Before I Talk'
p788
ssS'3xXBsjrbG1xQIm1xv1cKOt'
p789
(dp790
g3
S'Linkin Park'
p791
sg5
I5
sg6
S'https://open.spotify.com/track/3xXBsjrbG1xQIm1xv1cKOt'
p792
sg8
S'One More Light'
p793
ssS'0uqPG793dkDDN7sCUJJIVC'
p794
(dp795
g3
S'The Black Eyed Peas'
p796
sg5
I1
sg6
S'https://open.spotify.com/track/0uqPG793dkDDN7sCUJJIVC'
p797
sg8
S'Where Is The Love?'
p798
ssS'3A7qX2QjDlPnazUsRk5y0M'
p799
(dp800
g3
S'David Guetta'
p801
sg5
I17
sg6
S'https://open.spotify.com/track/3A7qX2QjDlPnazUsRk5y0M'
p802
sg8
S'2U (feat. Justin Bieber)'
p803
ssS'6A8dnC0xkiuWN4BshmTB2I'
p804
(dp805
g3
S'A R I Z O N A'
p806
sg5
I10
sg6
S'https://open.spotify.com/track/6A8dnC0xkiuWN4BshmTB2I'
p807
sg8
S'Oceans Away'
p808
ssS'2OALaHcDdKkjYEpAr0Qzab'
p809
(dp810
g3
S'Avicii'
p811
sg5
I9
sg6
S'https://open.spotify.com/track/2OALaHcDdKkjYEpAr0Qzab'
p812
sg8
S'Lonely Together (feat. Rita Ora)'
p813
ssS'56lBX2WHqfGuoeZxZvUnVj'
p814
(dp815
g3
S'Imagine Dragons'
p816
sg5
I3
sg6
S'https://open.spotify.com/track/56lBX2WHqfGuoeZxZvUnVj'
p817
sg8
S'Thunder'
p818
ssS'262Q20zX8BmAOIA6cFB2t9'
p819
(dp820
g3
S'Li Yugang'
p821
sg5
I15
sg6
S'https://open.spotify.com/track/262Q20zX8BmAOIA6cFB2t9'
p822
sg8
S'\xe5\x88\x9a\xe5\xa5\xbd\xe9\x81\x87\xe8\xa7\x81\xe4\xbd\xa0'
p823
ssS'4IWAyPf1KMq7JCyGeCjTeH'
p824
(dp825
g3
S'Imagine Dragons'
p826
sg5
I6
sg6
S'https://open.spotify.com/track/4IWAyPf1KMq7JCyGeCjTeH'
p827
sg8
S'Whatever It Takes'
p828
ssS'7z1uKD8M4vPwO1ouhcJJ7e'
p829
(dp830
g3
S'IamNeeta'
p831
sg5
I42
sg6
S'https://open.spotify.com/track/7z1uKD8M4vPwO1ouhcJJ7e'
p832
sg8
S'Sakit'
p833
ssS'1AJQ97yAt6xfeF7nQaE1t8'
p834
(dp835
g3
S'Imagine Dragons'
p836
sg5
I1
sg6
S'https://open.spotify.com/track/1AJQ97yAt6xfeF7nQaE1t8'
p837
sg8
S'Walking The Wire'
p838
ssS'0ZExP2I5Ej92PsnG4G1jVG'
p839
(dp840
g3
S'Julia Michaels'
p841
sg5
I4
sg6
S'https://open.spotify.com/track/0ZExP2I5Ej92PsnG4G1jVG'
p842
sg8
S'Uh Huh'
p843
ssS'3Q3myFA7q4Op95DOpHplaY'
p844
(dp845
g3
S'blackbear'
p846
sg5
I6
sg6
S'https://open.spotify.com/track/3Q3myFA7q4Op95DOpHplaY'
p847
sg8
S'do re mi'
p848
ssS'0WCEaydwN65cvwaW8aqptF'
p849
(dp850
g3
S'Olivia Holt'
p851
sg5
I18
sg6
S'https://open.spotify.com/track/0WCEaydwN65cvwaW8aqptF'
p852
sg8
S'History'
p853
ssS'3FiE2d325mIOc4YjkSLVJR'
p854
(dp855
g3
S'Ariana Grande'
p856
sg5
I11
sg6
S'https://open.spotify.com/track/3FiE2d325mIOc4YjkSLVJR'
p857
sg8
S'Everyday'
p858
ssS'2bjwRfXMk4uRgOD9IBYl9h'
p859
(dp860
g3
S'Drake'
p861
sg5
I4
sg6
S'https://open.spotify.com/track/2bjwRfXMk4uRgOD9IBYl9h'
p862
sg8
S'Portland'
p863
ssS'0FuTx2s3YH1ppmtiM6l0zI'
p864
(dp865
g3
S'JP Cooper'
p866
sg5
I23
sg6
S'https://open.spotify.com/track/0FuTx2s3YH1ppmtiM6l0zI'
p867
sg8
S'September Song'
p868
ssS'0Zbbxnx4SGGHoIow4PpISP'
p869
(dp870
g3
S'Kygo'
p871
sg5
I3
sg6
S'https://open.spotify.com/track/0Zbbxnx4SGGHoIow4PpISP'
p872
sg8
S'Stargazing'
p873
ssS'2tdq0CeAGSfhI2l4Gwkvgx'
p874
(dp875
g3
S'BTS'
p876
sg5
I4
sg6
S'https://open.spotify.com/track/2tdq0CeAGSfhI2l4Gwkvgx'
p877
sg8
S'Best Of Me'
p878
ssS'5GFDrUTLGJix84sNhjCG0g'
p879
(dp880
g3
S'Amin\xc3\xa9'
p881
sg5
I5
sg6
S'https://open.spotify.com/track/5GFDrUTLGJix84sNhjCG0g'
p882
sg8
S'Caroline'
p883
ssS'0azC730Exh71aQlOt9Zj3y'
p884
(dp885
g3
S'Calvin Harris'
p886
sg5
I21
sg6
S'https://open.spotify.com/track/0azC730Exh71aQlOt9Zj3y'
p887
sg8
S'This Is What You Came For'
p888
ssS'53YZi9zgTnF0Py0K6ejyWz'
p889
(dp890
g3
S'EXO'
p891
sg5
I3
sg6
S'https://open.spotify.com/track/53YZi9zgTnF0Py0K6ejyWz'
p892
sg8
S'Power'
p893
ssS'2jyjhRf6DVbMPU5zxagN2h'
p894
(dp895
g3
S'Passenger'
p896
sg5
I39
sg6
S'https://open.spotify.com/track/2jyjhRf6DVbMPU5zxagN2h'
p897
sg8
S'Let Her Go'
p898
ssS'7i2DJ88J7jQ8K7zqFX2fW8'
p899
(dp900
g3
S'Halsey'
p901
sg5
I12
sg6
S'https://open.spotify.com/track/7i2DJ88J7jQ8K7zqFX2fW8'
p902
sg8
S'Now Or Never'
p903
ssS'3Txcx4jhuiTZSvhAL0WaRc'
p904
(dp905
g3
S'Yuna'
p906
sg5
I5
sg6
S'https://open.spotify.com/track/3Txcx4jhuiTZSvhAL0WaRc'
p907
sg8
S'Crush'
p908
ssS'7EbpUdQ4nQ5VnnFlZjvqYl'
p909
(dp910
g3
S'Linkin Park'
p911
sg5
I1
sg6
S'https://open.spotify.com/track/7EbpUdQ4nQ5VnnFlZjvqYl'
p912
sg8
S'New Divide'
p913
ssS'5sNESr6pQfIhL3krM8CtZn'
p914
(dp915
g3
S'JAY Z'
p916
sg5
I1
sg6
S'https://open.spotify.com/track/5sNESr6pQfIhL3krM8CtZn'
p917
sg8
S'Numb / Encore'
p918
ssS'7bvDDKQlBWpSnnhUb9ZCLh'
p919
(dp920
g3
S'Ismail Izzani'
p921
sg5
I8
sg6
S'https://open.spotify.com/track/7bvDDKQlBWpSnnhUb9ZCLh'
p922
sg8
S'Demi Kita'
p923
ssS'68EMU2RD1ECNeOeJ5qAXCV'
p924
(dp925
g3
S'Charlie Puth'
p926
sg5
I42
sg6
S'https://open.spotify.com/track/68EMU2RD1ECNeOeJ5qAXCV'
p927
sg8
S"We Don't Talk Anymore (feat. Selena Gomez)"
p928
ssS'3XI2m6F7r5Wg61dx8RZM3Q'
p929
(dp930
g3
S'Tajul'
p931
sg5
I23
sg6
S'https://open.spotify.com/track/3XI2m6F7r5Wg61dx8RZM3Q'
p932
sg8
S'Di Sana Cinta Di Sini Rindu'
p933
ssS'3b5Li4QKDVBx1x7fQuu54a'
p934
(dp935
g3
S'Alan Walker'
p936
sg5
I21
sg6
S'https://open.spotify.com/track/3b5Li4QKDVBx1x7fQuu54a'
p937
sg8
S'Tired'
p938
ssS'2dqLk7ezV15LEJEwUmEbXB'
p939
(dp940
g3
S'Marian Hill'
p941
sg5
I10
sg6
S'https://open.spotify.com/track/2dqLk7ezV15LEJEwUmEbXB'
p942
sg8
S'Down'
p943
ssS'1j4kHkkpqZRBwE0A4CN4Yv'
p944
(dp945
g3
S'ZAYN'
p946
sg5
I5
sg6
S'https://open.spotify.com/track/1j4kHkkpqZRBwE0A4CN4Yv'
p947
sg8
S'Dusk Till Dawn - Radio Edit'
p948
ssS'3y7ByLZ05tluscOTRgEJ9Y'
p949
(dp950
g3
S'IU'
p951
sg5
I11
sg6
S'https://open.spotify.com/track/3y7ByLZ05tluscOTRgEJ9Y'
p952
sg8
S'Palette (Feat. G-DRAGON)'
p953
ssS'5XiZK7m9PLppgIzJBpw2x5'
p954
(dp955
g3
S'Martin Jensen'
p956
sg5
I4
sg6
S'https://open.spotify.com/track/5XiZK7m9PLppgIzJBpw2x5'
p957
sg8
S'Wait'
p958
ssS'1cImYkHOQMFE7AZC9aOk4y'
p959
(dp960
g3
S'Bobby Helms'
p961
sg5
I1
sg6
S'https://open.spotify.com/track/1cImYkHOQMFE7AZC9aOk4y'
p962
sg8
S'Jingle Bell Rock'
p963
ssS'51w95jAPQDOWN3M7xopWWh'
p964
(dp965
g3
S'Logan Paul'
p966
sg5
I4
sg6
S'https://open.spotify.com/track/51w95jAPQDOWN3M7xopWWh'
p967
sg8
S"Help Me Help You (feat. Why Don't We)"
p968
ssS'4VuS959DSpr82t3qBqCrWG'
p969
(dp970
g3
S'Ed Sheeran'
p971
sg5
I12
sg6
S'https://open.spotify.com/track/4VuS959DSpr82t3qBqCrWG'
p972
sg8
S'Supermarket Flowers'
p973
ssS'4xFM9ET7fPtYgbp9QyzrHl'
p974
(dp975
g3
S'Jaz'
p976
sg5
I25
sg6
S'https://open.spotify.com/track/4xFM9ET7fPtYgbp9QyzrHl'
p977
sg8
S'Dari Mata'
p978
ssS'7bJwvubZZaoGE1AGEfu8Fi'
p979
(dp980
g3
S'Ariana Grande'
p981
sg5
I1
sg6
S'https://open.spotify.com/track/7bJwvubZZaoGE1AGEfu8Fi'
p982
sg8
S'One Last Time'
p983
ssS'2Za1AlJNvksouPPWbXpR2X'
p984
(dp985
g3
S'Macklemore'
p986
sg5
I3
sg6
S'https://open.spotify.com/track/2Za1AlJNvksouPPWbXpR2X'
p987
sg8
S'Good Old Days (feat. Kesha)'
p988
ssS'41dswHw9sCLChDgXyVS4kC'
p989
(dp990
g3
S'Armada'
p991
sg5
I4
sg6
S'https://open.spotify.com/track/41dswHw9sCLChDgXyVS4kC'
p992
sg8
S'Asal Kau Bahagia'
p993
ssS'6gGp4A2a6TUWhzYrhQQbk4'
p994
(dp995
g3
S'iKON'
p996
sg5
I1
sg6
S'https://open.spotify.com/track/6gGp4A2a6TUWhzYrhQQbk4'
p997
sg8
S'BLING BLING'
p998
ssS'0Zx8khUcEfCFK2AEoIhC92'
p999
(dp1000
g3
S'Snakehips'
p1001
sg5
I22
sg6
S'https://open.spotify.com/track/0Zx8khUcEfCFK2AEoIhC92'
p1002
sg8
S"Don't Leave"
p1003
ssS'1crSsvtU9wZB15dIQXV2QH'
p1004
(dp1005
g3
S'John Mayer'
p1006
sg5
I1
sg6
S'https://open.spotify.com/track/1crSsvtU9wZB15dIQXV2QH'
p1007
sg8
S'Moving On and Getting Over'
p1008
ssS'1r1fPuhj9H4VdXr7OK6FL5'
p1009
(dp1010
g3
S'Linkin Park'
p1011
sg5
I1
sg6
S'https://open.spotify.com/track/1r1fPuhj9H4VdXr7OK6FL5'
p1012
sg8
S'CASTLE OF GLASS'
p1013
ssS'7JY9ui8INcNIshpqY91WDB'
p1014
(dp1015
g3
S'Irfan Haris'
p1016
sg5
I20
sg6
S'https://open.spotify.com/track/7JY9ui8INcNIshpqY91WDB'
p1017
sg8
S'Pesan'
p1018
ssS'0NeNAcCVtGqLAAmf4FhWWT'
p1019
(dp1020
g3
S'BLACKPINK'
p1021
sg5
I26
sg6
S'https://open.spotify.com/track/0NeNAcCVtGqLAAmf4FhWWT'
p1022
sg8
S'BOOMBAYAH'
p1023
ssS'61WbtB6ujkpNAsAf5LjF4b'
p1024
(dp1025
g3
S'Katy Perry'
p1026
sg5
I5
sg6
S'https://open.spotify.com/track/61WbtB6ujkpNAsAf5LjF4b'
p1027
sg8
S'Bon app\xc3\xa9tit'
p1028
ssS'5ANbXf5qR48a4jfFnSq80w'
p1029
(dp1030
g3
S'BLACKPINK'
p1031
sg5
I29
sg6
S'https://open.spotify.com/track/5ANbXf5qR48a4jfFnSq80w'
p1032
sg8
S'PLAYING WITH FIRE'
p1033
ssS'0YHUITU3w6ws1v8ehT264g'
p1034
(dp1035
g3
S'Little Mix'
p1036
sg5
I10
sg6
S'https://open.spotify.com/track/0YHUITU3w6ws1v8ehT264g'
p1037
sg8
S'Shout Out to My Ex'
p1038
ssS'1zJ0nTdaw6Blkpe2zFFsEr'
p1039
(dp1040
g3
S'Sha\xc3\xa2'
p1041
sg5
I4
sg6
S'https://open.spotify.com/track/1zJ0nTdaw6Blkpe2zFFsEr'
p1042
sg8
S'Pertama Kali'
p1043
ssS'3dJj6o9o1fRgrojWjailuz'
p1044
(dp1045
g3
S'Linkin Park'
p1046
sg5
I2
sg6
S'https://open.spotify.com/track/3dJj6o9o1fRgrojWjailuz'
p1047
sg8
S'Nobody Can Save Me'
p1048
ssS'2XlHu0HcujBCkWMdIAvrqt'
p1049
(dp1050
g3
S'Drake'
p1051
sg5
I4
sg6
S'https://open.spotify.com/track/2XlHu0HcujBCkWMdIAvrqt'
p1052
sg8
S'Blem'
p1053
ssS'58n0XsxxL8PpWqSS5fCD1P'
p1054
(dp1055
g3
S'Atmosfera'
p1056
sg5
I1
sg6
S'https://open.spotify.com/track/58n0XsxxL8PpWqSS5fCD1P'
p1057
sg8
S'Tak Tau Malu'
p1058
ssS'2QWP8NYYplOqEFBYGCcq0S'
p1059
(dp1060
g3
S'The Script'
p1061
sg5
I6
sg6
S'https://open.spotify.com/track/2QWP8NYYplOqEFBYGCcq0S'
p1062
sg8
S'Rain'
p1063
ssS'2Sru5y6R0mYhV9nEHMDWJ7'
p1064
(dp1065
g3
S'Linkin Park'
p1066
sg5
I1
sg6
S'https://open.spotify.com/track/2Sru5y6R0mYhV9nEHMDWJ7'
p1067
sg8
S'Given Up'
p1068
ssS'3o8QzWsiiqTUVgBZfHgF58'
p1069
(dp1070
g3
S'NCT 127'
p1071
sg5
I2
sg6
S'https://open.spotify.com/track/3o8QzWsiiqTUVgBZfHgF58'
p1072
sg8
S'Cherry Bomb'
p1073
ssS'5LYQSNHZxEA880URXFHg6h'
p1074
(dp1075
g3
S'Lana Del Rey'
p1076
sg5
I7
sg6
S'https://open.spotify.com/track/5LYQSNHZxEA880URXFHg6h'
p1077
sg8
S'Lust for Life (with The Weeknd)'
p1078
ssS'2hX6HlfJeQFc39T5WI99Kw'
p1079
(dp1080
g3
S'Kim Kyunghee'
p1081
sg5
I5
sg6
S'https://open.spotify.com/track/2hX6HlfJeQFc39T5WI99Kw'
p1082
sg8
S"And I'm here"
p1083
ssS'5hYTyyh2odQKphUbMqc5gN'
p1084
(dp1085
g3
S'Alessia Cara'
p1086
sg5
I31
sg6
S'https://open.spotify.com/track/5hYTyyh2odQKphUbMqc5gN'
p1087
sg8
S"How Far I'll Go - From Moana"
p1088
ssS'1u8c2t2Cy7UBoG4ArRcF5g'
p1089
(dp1090
g3
S'Taylor Swift'
p1091
sg5
I6
sg6
S'https://open.spotify.com/track/1u8c2t2Cy7UBoG4ArRcF5g'
p1092
sg8
S'Blank Space'
p1093
ssS'72jbDTw1piOOj770jWNeaG'
p1094
(dp1095
g3
S'The Chainsmokers'
p1096
sg5
I39
sg6
S'https://open.spotify.com/track/72jbDTw1piOOj770jWNeaG'
p1097
sg8
S'Paris'
p1098
ssS'12REd1n8PeiHHWOh066tpr'
p1099
(dp1100
g3
S'Flume'
p1101
sg5
I2
sg6
S'https://open.spotify.com/track/12REd1n8PeiHHWOh066tpr'
p1102
sg8
S'Never Be Like You'
p1103
ssS'7uvKupP8xo3uq17ObZvbZz'
p1104
(dp1105
g3
S'Junainah'
p1106
sg5
I3
sg6
S'https://open.spotify.com/track/7uvKupP8xo3uq17ObZvbZz'
p1107
sg8
S'Suasana Riang Di Hari Raya'
p1108
ssS'11EDhDAVDtGPoSar6ootYA'
p1109
(dp1110
g3
S'Halsey'
p1111
sg5
I1
sg6
S'https://open.spotify.com/track/11EDhDAVDtGPoSar6ootYA'
p1112
sg8
S'Strangers'
p1113
ssS'6FemVsNUb2lzWsDRm14FUJ'
p1114
(dp1115
g3
S'The Script'
p1116
sg5
I7
sg6
S'https://open.spotify.com/track/6FemVsNUb2lzWsDRm14FUJ'
p1117
sg8
S'Rain'
p1118
ssS'43ogAyFAzG58KW7rhWeGQE'
p1119
(dp1120
g3
S'Jung joonil'
p1121
sg5
I6
sg6
S'https://open.spotify.com/track/43ogAyFAzG58KW7rhWeGQE'
p1122
sg8
S'The first snow'
p1123
ssS'04qqfjPWDqrg9q3HTToCfZ'
p1124
(dp1125
g3
S'Urban Zakapa'
p1126
sg5
I6
sg6
S'https://open.spotify.com/track/04qqfjPWDqrg9q3HTToCfZ'
p1127
sg8
S'Wish'
p1128
ssS'12o6dxWGk29uIAP3OWY0pM'
p1129
(dp1130
g3
S'Lorde'
p1131
sg5
I5
sg6
S'https://open.spotify.com/track/12o6dxWGk29uIAP3OWY0pM'
p1132
sg8
S'Homemade Dynamite'
p1133
ssS'7yCm5uEZcQ6uzt9E5Py6IR'
p1134
(dp1135
g3
S'The Vamps'
p1136
sg5
I9
sg6
S'https://open.spotify.com/track/7yCm5uEZcQ6uzt9E5Py6IR'
p1137
sg8
S'Middle Of The Night'
p1138
ssS'0qepAQsUGIzofBj82iP17C'
p1139
(dp1140
g3
S'Mayday'
p1141
sg5
I24
sg6
S'https://open.spotify.com/track/0qepAQsUGIzofBj82iP17C'
p1142
sg8
S'\xe5\xbe\x8c\xe4\xbe\x86\xe7\x9a\x84\xe6\x88\x91\xe5\x80\x91'
p1143
ssS'7iV733e1KacKrFRaBNxVEf'
p1144
(dp1145
g3
S'BTS'
p1146
sg5
I4
sg6
S'https://open.spotify.com/track/7iV733e1KacKrFRaBNxVEf'
p1147
sg8
S'Intro: Serendipity'
p1148
ssS'77lGafvlU68CeHgB2pkHC9'
p1149
(dp1150
g3
S'Machine Gun Kelly'
p1151
sg5
I10
sg6
S'https://open.spotify.com/track/77lGafvlU68CeHgB2pkHC9'
p1152
sg8
S'At My Best (feat. Hailee Steinfeld)'
p1153
ssS'0dA2Mk56wEzDgegdC6R17g'
p1154
(dp1155
g3
S'Zedd'
p1156
sg5
I33
sg6
S'https://open.spotify.com/track/0dA2Mk56wEzDgegdC6R17g'
p1157
sg8
S'Stay (with Alessia Cara)'
p1158
ssS'3kGfazcbVvVkuZunzlLgTD'
p1159
(dp1160
g3
S'Sigala'
p1161
sg5
I5
sg6
S'https://open.spotify.com/track/3kGfazcbVvVkuZunzlLgTD'
p1162
sg8
S'Came Here for Love'
p1163
ssS'2kLf4myxQME1Nd0voeKZri'
p1164
(dp1165
g3
S'Mike Perry'
p1166
sg5
I6
sg6
S'https://open.spotify.com/track/2kLf4myxQME1Nd0voeKZri'
p1167
sg8
S'Stay Young'
p1168
ssS'2nJDePK69THatYkjkjQFE8'
p1169
(dp1170
g3
S'Eddy Kim'
p1171
sg5
I9
sg6
S'https://open.spotify.com/track/2nJDePK69THatYkjkjQFE8'
p1172
sg8
S'You are so beautiful'
p1173
ssS'3Ytr1SUCUi6J3L9dRFx5iH'
p1174
(dp1175
g3
S'Major Lazer'
p1176
sg5
I13
sg6
S'https://open.spotify.com/track/3Ytr1SUCUi6J3L9dRFx5iH'
p1177
sg8
S'Know No Better (feat. Quavo)'
p1178
ssS'1sl5tSzfK1JrcQIcA8rYDy'
p1179
(dp1180
g3
S'Grey'
p1181
sg5
I3
sg6
S'https://open.spotify.com/track/1sl5tSzfK1JrcQIcA8rYDy'
p1182
sg8
S'I Miss You'
p1183
ssS'2NcIzHF5abrURe1IPldnD0'
p1184
(dp1185
g3
S'Lukas Graham'
p1186
sg5
I4
sg6
S'https://open.spotify.com/track/2NcIzHF5abrURe1IPldnD0'
p1187
sg8
S"You're Not There"
p1188
ssS'71fkXsB3jlNbQ8p2R4HEsc'
p1189
(dp1190
g3
S'Fattah Amin'
p1191
sg5
I30
sg6
S'https://open.spotify.com/track/71fkXsB3jlNbQ8p2R4HEsc'
p1192
sg8
S'Wanita Terakhir'
p1193
ssS'7nZmah2llfvLDiUjm0kiyz'
p1194
(dp1195
g3
S'Justin Bieber'
p1196
sg5
I8
sg6
S'https://open.spotify.com/track/7nZmah2llfvLDiUjm0kiyz'
p1197
sg8
S'Friends (with BloodPop\xc2\xae)'
p1198
ssS'13HVjjWUZFaWilh2QUJKsP'
p1199
(dp1200
g3
S'James Bay'
p1201
sg5
I39
sg6
S'https://open.spotify.com/track/13HVjjWUZFaWilh2QUJKsP'
p1202
sg8
S'Let It Go'
p1203
ssS'6mzF8HvHdVrzJNd8M1uFCS'
p1204
(dp1205
g3
S'Crush'
p1206
sg5
I27
sg6
S'https://open.spotify.com/track/6mzF8HvHdVrzJNd8M1uFCS'
p1207
sg8
S'Beautiful'
p1208
ssS'6D0b04NJIKfEMg040WioJQ'
p1209
(dp1210
g3
S'Julia Michaels'
p1211
sg5
I2
sg6
S'https://open.spotify.com/track/6D0b04NJIKfEMg040WioJQ'
p1212
sg8
S'Issues'
p1213
ssS'6GK9UX5iAjALpVRgtjR3MV'
p1214
(dp1215
g3
S'Kim Kyunghee'
p1216
sg5
I3
sg6
S'https://open.spotify.com/track/6GK9UX5iAjALpVRgtjR3MV'
p1217
sg8
S'Stuck In Love'
p1218
ssS'64GRDrL1efgXclrhVCeuA0'
p1219
(dp1220
g3
S'Sam Smith'
p1221
sg5
I1
sg6
S'https://open.spotify.com/track/64GRDrL1efgXclrhVCeuA0'
p1222
sg8
S'Lay Me Down'
p1223
ssS'5VaLhE67iBHeuPKbyGS2wk'
p1224
(dp1225
g3
S'Mike Perry'
p1226
sg5
I5
sg6
S'https://open.spotify.com/track/5VaLhE67iBHeuPKbyGS2wk'
p1227
sg8
S'Hands'
p1228
ssS'3hRZsdTF5uyGA2uhNqEuhm'
p1229
(dp1230
g3
S'Niall Horan'
p1231
sg5
I4
sg6
S'https://open.spotify.com/track/3hRZsdTF5uyGA2uhNqEuhm'
p1232
sg8
S'Too Much To Ask'
p1233
ssS'2dfHh7ECGxfNqZTQno09Vk'
p1234
(dp1235
g3
S'Ed Sheeran'
p1236
sg5
I5
sg6
S'https://open.spotify.com/track/2dfHh7ECGxfNqZTQno09Vk'
p1237
sg8
S"Hearts Don't Break Around Here"
p1238
ssS'6lanRgr6wXibZr8KgzXxBl'
p1239
(dp1240
g3
S'Christina Perri'
p1241
sg5
I42
sg6
S'https://open.spotify.com/track/6lanRgr6wXibZr8KgzXxBl'
p1242
sg8
S'A Thousand Years'
p1243
ssS'5s2CSPhd8WzOnFsZNFtzl1'
p1244
(dp1245
g3
S'Ismail Izzani'
p1246
sg5
I34
sg6
S'https://open.spotify.com/track/5s2CSPhd8WzOnFsZNFtzl1'
p1247
sg8
S'Sabar'
p1248
ssS'0D8ZpOXVjapLXrjz5VfZSD'
p1249
(dp1250
g3
S'Sam Smith'
p1251
sg5
I1
sg6
S'https://open.spotify.com/track/0D8ZpOXVjapLXrjz5VfZSD'
p1252
sg8
S'Pray'
p1253
ssS'3iVX6XiS0J31HIbZIzeF4R'
p1254
(dp1255
g3
S'G-DRAGON'
p1256
sg5
I1
sg6
S'https://open.spotify.com/track/3iVX6XiS0J31HIbZIzeF4R'
p1257
sg8
S'\xea\xb0\x9c\xec\x86\x8c\xeb\xa6\xac (BULLSHIT)'
p1258
ssS'5tz69p7tJuGPeMGwNTxYuV'
p1259
(dp1260
g3
S'Logic'
p1261
sg5
I23
sg6
S'https://open.spotify.com/track/5tz69p7tJuGPeMGwNTxYuV'
p1262
sg8
S'1-800-273-8255'
p1263
ssS'2OYPmFpM4DrqzdZO9M8XFd'
p1264
(dp1265
g3
S'NYK'
p1266
sg5
I1
sg6
S'https://open.spotify.com/track/2OYPmFpM4DrqzdZO9M8XFd'
p1267
sg8
S'FWB'
p1268
ssS'0ffweDHrg4bZqdG4IfGYuo'
p1269
(dp1270
g3
S'BTS'
p1271
sg5
I4
sg6
S'https://open.spotify.com/track/0ffweDHrg4bZqdG4IfGYuo'
p1272
sg8
S'Pied Piper'
p1273
ssS'343YBumqHu19cGoGARUTsd'
p1274
(dp1275
g3
S'Drake'
p1276
sg5
I22
sg6
S'https://open.spotify.com/track/343YBumqHu19cGoGARUTsd'
p1277
sg8
S'Fake Love'
p1278
ssS'5HDPtsnyb3maFmPL8LLUTG'
p1279
(dp1280
g3
S'Ed Sheeran'
p1281
sg5
I5
sg6
S'https://open.spotify.com/track/5HDPtsnyb3maFmPL8LLUTG'
p1282
sg8
S'New Man'
p1283
ssS'6V9kwssTrwkKT72imgowj9'
p1284
(dp1285
g3
S'The Chainsmokers'
p1286
sg5
I1
sg6
S'https://open.spotify.com/track/6V9kwssTrwkKT72imgowj9'
p1287
sg8
S'My Type'
p1288
ssS'3aLSrx8qhssXrh5yjB6oy9'
p1289
(dp1290
g3
S'Martin Solveig'
p1291
sg5
I3
sg6
S'https://open.spotify.com/track/3aLSrx8qhssXrh5yjB6oy9'
p1292
sg8
S'All Stars'
p1293
ssS'6WbADFqMvR8N5u0BvtsWQE'
p1294
(dp1295
g3
S'Avicii'
p1296
sg5
I9
sg6
S'https://open.spotify.com/track/6WbADFqMvR8N5u0BvtsWQE'
p1297
sg8
S'Without You (feat. Sandro Cavazza)'
p1298
ssS'75JFxkI2RXiU7L9VXzMkle'
p1299
(dp1300
g3
S'Coldplay'
p1301
sg5
I42
sg6
S'https://open.spotify.com/track/75JFxkI2RXiU7L9VXzMkle'
p1302
sg8
S'The Scientist'
p1303
ssS'3m660poUr1chesgkkjQM7P'
p1304
(dp1305
g3
S'Demi Lovato'
p1306
sg5
I2
sg6
S'https://open.spotify.com/track/3m660poUr1chesgkkjQM7P'
p1307
sg8
S'Sorry Not Sorry'
p1308
ssS'4pdPtRcBmOSQDlJ3Fk945m'
p1309
(dp1310
g3
S'DJ Snake'
p1311
sg5
I42
sg6
S'https://open.spotify.com/track/4pdPtRcBmOSQDlJ3Fk945m'
p1312
sg8
S'Let Me Love You'
p1313
ssS'20gz9dYTVbtnDUFV2YmJC0'
p1314
(dp1315
g3
S'Dato Siti Nurhaliza'
p1316
sg5
I2
sg6
S'https://open.spotify.com/track/20gz9dYTVbtnDUFV2YmJC0'
p1317
sg8
S'Sesuci Lebaran'
p1318
ssS'3eR23VReFzcdmS7TYCrhCe'
p1319
(dp1320
g3
S'Kygo'
p1321
sg5
I33
sg6
S'https://open.spotify.com/track/3eR23VReFzcdmS7TYCrhCe'
p1322
sg8
S"It Ain't Me (with Selena Gomez)"
p1323
ssS'5EnYT6F7wEcdege6mDHEfO'
p1324
(dp1325
g3
S'Drake'
p1326
sg5
I5
sg6
S'https://open.spotify.com/track/5EnYT6F7wEcdege6mDHEfO'
p1327
sg8
S'Signs'
p1328
ssS'1uoL9GX45dTnmrWQ7Ii1Ft'
p1329
(dp1330
g3
S'Halsey'
p1331
sg5
I1
sg6
S'https://open.spotify.com/track/1uoL9GX45dTnmrWQ7Ii1Ft'
p1332
sg8
S'Not Afraid Anymore'
p1333
ssS'1OAiWI2oPmglaOiv9fdioU'
p1334
(dp1335
g3
S'Coldplay'
p1336
sg5
I17
sg6
S'https://open.spotify.com/track/1OAiWI2oPmglaOiv9fdioU'
p1337
sg8
S'Hymn For The Weekend - Seeb Remix'
p1338
ssS'6Ll3qUTssdGWMxbwhMud2N'
p1339
(dp1340
g3
S'Nick Jonas'
p1341
sg5
I4
sg6
S'https://open.spotify.com/track/6Ll3qUTssdGWMxbwhMud2N'
p1342
sg8
S'Find You'
p1343
ssS'7LEydI5NfjY6mZfKwYIptZ'
p1344
(dp1345
g3
S'Fifth Harmony'
p1346
sg5
I12
sg6
S'https://open.spotify.com/track/7LEydI5NfjY6mZfKwYIptZ'
p1347
sg8
S'Down'
p1348
ssS'7y9iMe8SOB6z3NoHE2OfXl'
p1349
(dp1350
g3
S'Halsey'
p1351
sg5
I7
sg6
S'https://open.spotify.com/track/7y9iMe8SOB6z3NoHE2OfXl'
p1352
sg8
S'Bad At Love'
p1353
ssS'3K4HG9evC7dg3N0R9cYqk4'
p1354
(dp1355
g3
S'Linkin Park'
p1356
sg5
I1
sg6
S'https://open.spotify.com/track/3K4HG9evC7dg3N0R9cYqk4'
p1357
sg8
S'One Step Closer'
p1358
ssS'0oZT2aKB40fzyHzqcXE3H3'
p1359
(dp1360
g3
S'BIGBANG'
p1361
sg5
I2
sg6
S'https://open.spotify.com/track/0oZT2aKB40fzyHzqcXE3H3'
p1362
sg8
S"Let's not fall in love - KR ver."
p1363
ssS'2YlZnw2ikdb837oKMKjBkW'
p1364
(dp1365
g3
S'Meghan Trainor'
p1366
sg5
I42
sg6
S'https://open.spotify.com/track/2YlZnw2ikdb837oKMKjBkW'
p1367
sg8
S"Like I'm Gonna Lose You"
p1368
ssS'0o7glLPfZgns8ZF14Wlpf7'
p1369
(dp1370
g3
S'Kelly Clarkson'
p1371
sg5
I1
sg6
S'https://open.spotify.com/track/0o7glLPfZgns8ZF14Wlpf7'
p1372
sg8
S'Love So Soft'
p1373
ssS'2jYmK1cb3Uya6FFsocdpzO'
p1374
(dp1375
g3
S'Sabrina Carpenter'
p1376
sg5
I14
sg6
S'https://open.spotify.com/track/2jYmK1cb3Uya6FFsocdpzO'
p1377
sg8
S'Why'
p1378
ssS'5OOkp4U9P9oL23maHFHL1h'
p1379
(dp1380
g3
S'Desiigner'
p1381
sg5
I3
sg6
S'https://open.spotify.com/track/5OOkp4U9P9oL23maHFHL1h'
p1382
sg8
S'Panda'
p1383
ssS'0RYXEibxMami3QuT8kn4Iz'
p1384
(dp1385
g3
S'Macklemore'
p1386
sg5
I2
sg6
S'https://open.spotify.com/track/0RYXEibxMami3QuT8kn4Iz'
p1387
sg8
S'Marmalade (feat. Lil Yachty)'
p1388
ssS'72Q0FQQo32KJloivv5xge2'
p1389
(dp1390
g3
S'DJ Khaled'
p1391
sg5
I3
sg6
S'https://open.spotify.com/track/72Q0FQQo32KJloivv5xge2'
p1392
sg8
S"I'm the One"
p1393
ssS'3qmvK8QARSPkFTuKeIXSbs'
p1394
(dp1395
g3
S'Linkin Park'
p1396
sg5
I1
sg6
S'https://open.spotify.com/track/3qmvK8QARSPkFTuKeIXSbs'
p1397
sg8
S'Bleed It Out'
p1398
ssS'7y6c07pgjZvtHI9kuMVqk1'
p1399
(dp1400
g3
S'Drake'
p1401
sg5
I2
sg6
S'https://open.spotify.com/track/7y6c07pgjZvtHI9kuMVqk1'
p1402
sg8
S'Get It Together'
p1403
ssS'0FVPOqIivjXR49CyJZAw7g'
p1404
(dp1405
g3
S'BIGBANG'
p1406
sg5
I2
sg6
S'https://open.spotify.com/track/0FVPOqIivjXR49CyJZAw7g'
p1407
sg8
S'IF YOU - KR ver.'
p1408
ssS'4LeP389CNcbrQX8ZECZlPw'
p1409
(dp1410
g3
S'Sufian Suhaimi'
p1411
sg5
I22
sg6
S'https://open.spotify.com/track/4LeP389CNcbrQX8ZECZlPw'
p1412
sg8
S'Terakhir'
p1413
ssS'7LyCtbxher5m97MImn5M3l'
p1414
(dp1415
g3
S'Jay Chou'
p1416
sg5
I8
sg6
S'https://open.spotify.com/track/7LyCtbxher5m97MImn5M3l'
p1417
sg8
S'\xe4\xb8\x8d\xe8\xa9\xb2'
p1418
ssS'79cuOz3SPQTuFrp8WgftAu'
p1419
(dp1420
g3
S'Shawn Mendes'
p1421
sg5
I25
sg6
S'https://open.spotify.com/track/79cuOz3SPQTuFrp8WgftAu'
p1422
sg8
S"There's Nothing Holdin' Me Back"
p1423
ssS'4c2W3VKsOFoIg2SFaO6DY5'
p1424
(dp1425
g3
S'Rita Ora'
p1426
sg5
I20
sg6
S'https://open.spotify.com/track/4c2W3VKsOFoIg2SFaO6DY5'
p1427
sg8
S'Your Song'
p1428
ssS'0lmdsH1MIoLsMymnNpd6HU'
p1429
(dp1430
g3
S'Dante Klein'
p1431
sg5
I1
sg6
S'https://open.spotify.com/track/0lmdsH1MIoLsMymnNpd6HU'
p1432
sg8
S'Let Me Hold You (Turn Me On)'
p1433
ssS'23cmynYpkrZ5paey3yQEGq'
p1434
(dp1435
g3
S'Irfan Haris'
p1436
sg5
I39
sg6
S'https://open.spotify.com/track/23cmynYpkrZ5paey3yQEGq'
p1437
sg8
S'Redha'
p1438
ssS'62HFUYpmzbNzCA2WjKAzTW'
p1439
(dp1440
g3
S'Haqiem Rusli'
p1441
sg5
I24
sg6
S'https://open.spotify.com/track/62HFUYpmzbNzCA2WjKAzTW'
p1442
sg8
S'Tergantung Sepi'
p1443
ssS'1YjQShsj2O5XwxZQYOhuLa'
p1444
(dp1445
g3
S'Mawi'
p1446
sg5
I3
sg6
S'https://open.spotify.com/track/1YjQShsj2O5XwxZQYOhuLa'
p1447
sg8
S'Kalah Dalam Menang (OST Filem MUNAFIK)'
p1448
ssS'3UjJP4ludb74a29P5EHEIo'
p1449
(dp1450
g3
S'Sabrina Carpenter'
p1451
sg5
I9
sg6
S'https://open.spotify.com/track/3UjJP4ludb74a29P5EHEIo'
p1452
sg8
S'Thumbs'
p1453
ssS'1HYzRuWjmS9LXCkdVHi25K'
p1454
(dp1455
g3
S'Chanyeol'
p1456
sg5
I42
sg6
S'https://open.spotify.com/track/1HYzRuWjmS9LXCkdVHi25K'
p1457
sg8
S'Stay With Me'
p1458
ssS'4JIo8RztBbELr2gWJ5OGK6'
p1459
(dp1460
g3
S'Little Mix'
p1461
sg5
I26
sg6
S'https://open.spotify.com/track/4JIo8RztBbELr2gWJ5OGK6'
p1462
sg8
S'Secret Love Song'
p1463
ssS'44IkyiXGWUpSPws9nvKOOq'
p1464
(dp1465
g3
S'Black'
p1466
sg5
I7
sg6
S'https://open.spotify.com/track/44IkyiXGWUpSPws9nvKOOq'
p1467
sg8
S'Anugerah Terindah'
p1468
ssS'5qfZRNjt2TkHEL12r3sDEU'
p1469
(dp1470
g3
S'Coldplay'
p1471
sg5
I1
sg6
S'https://open.spotify.com/track/5qfZRNjt2TkHEL12r3sDEU'
p1472
sg8
S'Everglow'
p1473
ssS'4ifzLaIjOAxbFMC12T7xxi'
p1474
(dp1475
g3
S'Haqiem Rusli'
p1476
sg5
I42
sg6
S'https://open.spotify.com/track/4ifzLaIjOAxbFMC12T7xxi'
p1477
sg8
S'Segalanya'
p1478
ssS'2eAZfqOm4EnOF9VvN50Tyc'
p1479
(dp1480
g3
S'Lil Uzi Vert'
p1481
sg5
I3
sg6
S'https://open.spotify.com/track/2eAZfqOm4EnOF9VvN50Tyc'
p1482
sg8
S'The Way Life Goes'
p1483
ssS'44trZ7w2tZhI56keenaT42'
p1484
(dp1485
g3
S'G-DRAGON'
p1486
sg5
I2
sg6
S'https://open.spotify.com/track/44trZ7w2tZhI56keenaT42'
p1487
sg8
S'BULLSHIT - KR Ver.'
p1488
ssS'0zMzyHAeMvwq5CRstru1Fp'
p1489
(dp1490
g3
S'Ruth B.'
p1491
sg5
I14
sg6
S'https://open.spotify.com/track/0zMzyHAeMvwq5CRstru1Fp'
p1492
sg8
S'Lost Boy'
p1493
ssS'12mGwph2YzDIlChtq3EdXP'
p1494
(dp1495
g3
S'Marshmello'
p1496
sg5
I21
sg6
S'https://open.spotify.com/track/12mGwph2YzDIlChtq3EdXP'
p1497
sg8
S'Alone'
p1498
ssS'4sasqE4lDhBhm4ER7EsQaf'
p1499
(dp1500
g3
S'JP Cooper'
p1501
sg5
I1
sg6
S'https://open.spotify.com/track/4sasqE4lDhBhm4ER7EsQaf'
p1502
sg8
S'Passport Home'
p1503
ssS'6iu311jZAJFLPgoIWgrA72'
p1504
(dp1505
g3
S'BIGBANG'
p1506
sg5
I11
sg6
S'https://open.spotify.com/track/6iu311jZAJFLPgoIWgrA72'
p1507
sg8
S'BANG BANG BANG - KR ver.'
p1508
ssS'5LBxMvApPk3HdsQdi6DT9L'
p1509
(dp1510
g3
S'BLACKPINK'
p1511
sg5
I4
sg6
S'https://open.spotify.com/track/5LBxMvApPk3HdsQdi6DT9L'
p1512
sg8
S'STAY'
p1513
ssS'7iJgqdg9eletm9rIZL56qA'
p1514
(dp1515
g3
S'Misha Omar'
p1516
sg5
I1
sg6
S'https://open.spotify.com/track/7iJgqdg9eletm9rIZL56qA'
p1517
sg8
S'Terimaku Seadanya'
p1518
ssS'5LXj9Ch3O9ATm1NoHT8GXn'
p1519
(dp1520
g3
S'Coldplay'
p1521
sg5
I2
sg6
S'https://open.spotify.com/track/5LXj9Ch3O9ATm1NoHT8GXn'
p1522
sg8
S'Hypnotised'
p1523
ssS'2gkQ2yVzaer5qx2NzJnHXh'
p1524
(dp1525
g3
S'Sufian Suhaimi'
p1526
sg5
I31
sg6
S'https://open.spotify.com/track/2gkQ2yVzaer5qx2NzJnHXh'
p1527
sg8
S'Harus Aku'
p1528
ssS'5bZtRlMBU76vHuDOb1GM5u'
p1529
(dp1530
g3
S'Jonas Blue'
p1531
sg5
I1
sg6
S'https://open.spotify.com/track/5bZtRlMBU76vHuDOb1GM5u'
p1532
sg8
S'Perfect Strangers'
p1533
ssS'2OWKDTonST8HNko3dBlPPp'
p1534
(dp1535
g3
S'Dua Lipa'
p1536
sg5
I2
sg6
S'https://open.spotify.com/track/2OWKDTonST8HNko3dBlPPp'
p1537
sg8
S'Lost In Your Light (feat. Miguel)'
p1538
ssS'67EY6aDoIx8czEPS6a2AaI'
p1539
(dp1540
g3
S'The Script'
p1541
sg5
I42
sg6
S'https://open.spotify.com/track/67EY6aDoIx8czEPS6a2AaI'
p1542
sg8
S"The Man Who Can't Be Moved"
p1543
ssS'1KT0xdIjm7t053xByACrrg'
p1544
(dp1545
g3
S'Ariana Grande'
p1546
sg5
I21
sg6
S'https://open.spotify.com/track/1KT0xdIjm7t053xByACrrg'
p1547
sg8
S'\xe7\xbe\x8e\xe5\xa5\xb3\xe3\x81\xa8\xe9\x87\x8e\xe7\x8d\xa3'
p1548
ssS'3hfN1wQSiLPa6b1RX5Kfbj'
p1549
(dp1550
g3
S'BLACKPINK'
p1551
sg5
I21
sg6
S'https://open.spotify.com/track/3hfN1wQSiLPa6b1RX5Kfbj'
p1552
sg8
S'WHISTLE'
p1553
ssS'1ivCIgrYZyE0BvItL4Z8lk'
p1554
(dp1555
g3
S'Jay Chou'
p1556
sg5
I42
sg6
S'https://open.spotify.com/track/1ivCIgrYZyE0BvItL4Z8lk'
p1557
sg8
S'\xe5\x91\x8a\xe7\x99\xbd\xe6\xb0\xa3\xe7\x90\x83'
p1558
ssS'0JiVRyTJcJnmlwCZ854K4p'
p1559
(dp1560
g3
S'Alan Walker'
p1561
sg5
I42
sg6
S'https://open.spotify.com/track/0JiVRyTJcJnmlwCZ854K4p'
p1562
sg8
S'Alone'
p1563
ssS'5EzitieoPnjyKHAq0gfRMa'
p1564
(dp1565
g3
S'EXO'
p1566
sg5
I12
sg6
S'https://open.spotify.com/track/5EzitieoPnjyKHAq0gfRMa'
p1567
sg8
S'Ko Ko Bop'
p1568
ssS'1OmcAT5Y8eg5bUPv9qJT4R'
p1569
(dp1570
g3
S'Post Malone'
p1571
sg5
I3
sg6
S'https://open.spotify.com/track/1OmcAT5Y8eg5bUPv9qJT4R'
p1572
sg8
S'rockstar'
p1573
ssS'6GeD5g9vZTz25Egf8kxoIY'
p1574
(dp1575
g3
S'The Chainsmokers'
p1576
sg5
I1
sg6
S'https://open.spotify.com/track/6GeD5g9vZTz25Egf8kxoIY'
p1577
sg8
S'Last Day Alive'
p1578
ssS'4v6euJjkezw7RBPjOm9kQe'
p1579
(dp1580
g3
S'Hez Hazmi'
p1581
sg5
I11
sg6
S'https://open.spotify.com/track/4v6euJjkezw7RBPjOm9kQe'
p1582
sg8
S'Aku Mula Rindu'
p1583
ssS'2mfUa8bLs2s5N4VaqJZ4lZ'
p1584
(dp1585
g3
S'Hailee Steinfeld'
p1586
sg5
I24
sg6
S'https://open.spotify.com/track/2mfUa8bLs2s5N4VaqJZ4lZ'
p1587
sg8
S'Most Girls'
p1588
ssS'7BpYWzZwrsljT1eIjb0TqR'
p1589
(dp1590
g3
S'Paramore'
p1591
sg5
I1
sg6
S'https://open.spotify.com/track/7BpYWzZwrsljT1eIjb0TqR'
p1592
sg8
S'Told You So'
p1593
ssS'4aWmUDTfIPGksMNLV2rQP2'
p1594
(dp1595
g3
S'Luis Fonsi'
p1596
sg5
I37
sg6
S'https://open.spotify.com/track/4aWmUDTfIPGksMNLV2rQP2'
p1597
sg8
S'Despacito (Featuring Daddy Yankee)'
p1598
ssS'4LfkoDOt4mhrbo8Ndk37sQ'
p1599
(dp1600
g3
S'Charlie Puth'
p1601
sg5
I1
sg6
S'https://open.spotify.com/track/4LfkoDOt4mhrbo8Ndk37sQ'
p1602
sg8
S'Marvin Gaye (feat. Wale) - Remix'
p1603
ssS'35QZaWQRkmnAVqBF1TLCxQ'
p1604
(dp1605
g3
S'Ed Sheeran'
p1606
sg5
I3
sg6
S'https://open.spotify.com/track/35QZaWQRkmnAVqBF1TLCxQ'
p1607
sg8
S'Nancy Mulligan'
p1608
ssS'60APt5N2NRaKWf5xzJdzyC'
p1609
(dp1610
g3
S'Calvin Harris'
p1611
sg5
I6
sg6
S'https://open.spotify.com/track/60APt5N2NRaKWf5xzJdzyC'
p1612
sg8
S'Heatstroke'
p1613
ssS'3HMesevL5DK01uEpHrn9IO'
p1614
(dp1615
g3
S'Kayee Tam'
p1616
sg5
I1
sg6
S'https://open.spotify.com/track/3HMesevL5DK01uEpHrn9IO'
p1617
sg8
S'\xe9\x99\xaa\xe8\x91\x97\xe4\xbd\xa0\xe8\xb5\xb0 - \xe5\x8a\x87\xe9\x9b\x86 \xe4\xb8\x8d\xe6\x87\x82\xe6\x92\x92\xe5\xac\x8c\xe7\x9a\x84\xe5\xa5\xb3\xe4\xba\xba \xe6\x8f\x92\xe6\x9b\xb2'
p1618
ssS'25C5CowdsfXld2jJanbiex'
p1619
(dp1620
g3
S'Demi Lovato'
p1621
sg5
I11
sg6
S'https://open.spotify.com/track/25C5CowdsfXld2jJanbiex'
p1622
sg8
S'Sorry Not Sorry'
p1623
ssS'2Z8WuEywRWYTKe1NybPQEW'
p1624
(dp1625
g3
S'Twenty One Pilots'
p1626
sg5
I8
sg6
S'https://open.spotify.com/track/2Z8WuEywRWYTKe1NybPQEW'
p1627
sg8
S'Ride'
p1628
ssS'0wNWzeA2HtZbUz6nrFhors'
p1629
(dp1630
g3
S'Joe Flizzow'
p1631
sg5
I18
sg6
S'https://open.spotify.com/track/0wNWzeA2HtZbUz6nrFhors'
p1632
sg8
S'Negaraku'
p1633
ssS'6JV2JOEocMgcZxYSZelKcc'
p1634
(dp1635
g3
S'Justin Timberlake'
p1636
sg5
I22
sg6
S'https://open.spotify.com/track/6JV2JOEocMgcZxYSZelKcc'
p1637
sg8
S"CAN'T STOP THE FEELING! (Original Song from DreamWorks Animation's TROLLS)"
p1638
ssS'05KOgYg8PGeJyyWBPi5ja8'
p1639
(dp1640
g3
S'Drake'
p1641
sg5
I2
sg6
S'https://open.spotify.com/track/05KOgYg8PGeJyyWBPi5ja8'
p1642
sg8
S'Free Smoke'
p1643
ssS'3vsNteZn6E5qBSSBO78W7b'
p1644
(dp1645
g3
S'James Blunt'
p1646
sg5
I1
sg6
S'https://open.spotify.com/track/3vsNteZn6E5qBSSBO78W7b'
p1647
sg8
S"You're Beautiful"
p1648
ssS'7aV2mflaASUmGhCErm7kBO'
p1649
(dp1650
g3
S'Nevada'
p1651
sg5
I4
sg6
S'https://open.spotify.com/track/7aV2mflaASUmGhCErm7kBO'
p1652
sg8
S'The Mack'
p1653
ssS'6cwSbxCqAwBNbCqaLMZgbT'
p1654
(dp1655
g3
S'BIGBANG'
p1656
sg5
I2
sg6
S'https://open.spotify.com/track/6cwSbxCqAwBNbCqaLMZgbT'
p1657
sg8
S'LOSER - KR ver.'
p1658
ssS'2YMyVYNLmFDD0KGtNkkgFa'
p1659
(dp1660
g3
S'DNCE'
p1661
sg5
I10
sg6
S'https://open.spotify.com/track/2YMyVYNLmFDD0KGtNkkgFa'
p1662
sg8
S'Kissing Strangers'
p1663
ssS'2B2h0JOv0X2lH2CvtciZI6'
p1664
(dp1665
g3
S'Sam Feldt'
p1666
sg5
I10
sg6
S'https://open.spotify.com/track/2B2h0JOv0X2lH2CvtciZI6'
p1667
sg8
S'Fade Away'
p1668
ssS'0gAbzOOXtsOIJBKzK8H6VT'
p1669
(dp1670
g3
S'EXO'
p1671
sg5
I1
sg6
S'https://open.spotify.com/track/0gAbzOOXtsOIJBKzK8H6VT'
p1672
sg8
S'For Life'
p1673
ssS'3rOSwuTsUlJp0Pu0MkN8r8'
p1674
(dp1675
g3
S'Future'
p1676
sg5
I24
sg6
S'https://open.spotify.com/track/3rOSwuTsUlJp0Pu0MkN8r8'
p1677
sg8
S'Mask Off'
p1678
ssS'3ryjLm3oupIjJFGc39naNi'
p1679
(dp1680
g3
S'BTS'
p1681
sg5
I4
sg6
S'https://open.spotify.com/track/3ryjLm3oupIjJFGc39naNi'
p1682
sg8
S'dimple'
p1683
ssS'1qOLh0tI7trd1zdDKxYZTe'
p1684
(dp1685
g3
S'Hailee Steinfeld'
p1686
sg5
I35
sg6
S'https://open.spotify.com/track/1qOLh0tI7trd1zdDKxYZTe'
p1687
sg8
S'Starving'
p1688
ssS'0cqRj7pUJDkTCEsJkx8snD'
p1689
(dp1690
g3
S'Taylor Swift'
p1691
sg5
I2
sg6
S'https://open.spotify.com/track/0cqRj7pUJDkTCEsJkx8snD'
p1692
sg8
S'Shake It Off'
p1693
ssS'3HVr6jTVwBHBa2flM0eURR'
p1694
(dp1695
g3
S'Macklemore'
p1696
sg5
I10
sg6
S'https://open.spotify.com/track/3HVr6jTVwBHBa2flM0eURR'
p1697
sg8
S'Glorious (feat. Skylar Grey)'
p1698
ssS'7inXu0Eaeg02VsM8kHNvzM'
p1699
(dp1700
g3
S'Frank Sinatra'
p1701
sg5
I1
sg6
S'https://open.spotify.com/track/7inXu0Eaeg02VsM8kHNvzM'
p1702
sg8
S'Let It Snow! Let It Snow! Let It Snow!'
p1703
ssS'1wMALZpuqAy7amQsFBWQ8m'
p1704
(dp1705
g3
S'Adele'
p1706
sg5
I2
sg6
S'https://open.spotify.com/track/1wMALZpuqAy7amQsFBWQ8m'
p1707
sg8
S'All I Ask'
p1708
ssS'1cG0umU5TKStygKsPFZ9pY'
p1709
(dp1710
g3
S'Robin Schulz'
p1711
sg5
I11
sg6
S'https://open.spotify.com/track/1cG0umU5TKStygKsPFZ9pY'
p1712
sg8
S'Shed a Light'
p1713
ssS'6520aj0B4FSKGVuKNsOCOi'
p1714
(dp1715
g3
S'Katy Perry'
p1716
sg5
I21
sg6
S'https://open.spotify.com/track/6520aj0B4FSKGVuKNsOCOi'
p1717
sg8
S'Chained To The Rhythm'
p1718
ssS'4q8PHoRsPUB52LFylX8Ulz'
p1719
(dp1720
g3
S'Axwell /\\ Ingrosso'
p1721
sg5
I8
sg6
S'https://open.spotify.com/track/4q8PHoRsPUB52LFylX8Ulz'
p1722
sg8
S'More Than You Know'
p1723
ssS'6EpRaXYhGOB3fj4V2uDkMJ'
p1724
(dp1725
g3
S'Liam Payne'
p1726
sg5
I21
sg6
S'https://open.spotify.com/track/6EpRaXYhGOB3fj4V2uDkMJ'
p1727
sg8
S'Strip That Down'
p1728
ssS'6g4ZuCOfJyY48vCaxA4yRu'
p1729
(dp1730
g3
S'Dayang Nurfaizah'
p1731
sg5
I18
sg6
S'https://open.spotify.com/track/6g4ZuCOfJyY48vCaxA4yRu'
p1732
sg8
S'Lelaki Teragung'
p1733
ssS'3vAncbML0jhNrp63DKhsCo'
p1734
(dp1735
g3
S'HEIZE'
p1736
sg5
I7
sg6
S'https://open.spotify.com/track/3vAncbML0jhNrp63DKhsCo'
p1737
sg8
S'Round and round (feat. Han Suji)'
p1738
ssS'0ndIZ2XvGtXV0PIbEAwoIv'
p1739
(dp1740
g3
S'10cm'
p1741
sg5
I3
sg6
S'https://open.spotify.com/track/0ndIZ2XvGtXV0PIbEAwoIv'
p1742
sg8
S'My eyes'
p1743
ssS'6pwvH9LfroBLqd3dez9vBz'
p1744
(dp1745
g3
S'Coldplay'
p1746
sg5
I1
sg6
S'https://open.spotify.com/track/6pwvH9LfroBLqd3dez9vBz'
p1747
sg8
S'A L I E N S'
p1748
ssS'7iDa6hUg2VgEL1o1HjmfBn'
p1749
(dp1750
g3
S'Bebe Rexha'
p1751
sg5
I4
sg6
S'https://open.spotify.com/track/7iDa6hUg2VgEL1o1HjmfBn'
p1752
sg8
S'Meant to Be (feat. Florida Georgia Line)'
p1753
ssS'5mnevkfhOWDzuvIIfRqv1c'
p1754
(dp1755
g3
S'WINNER'
p1756
sg5
I2
sg6
S'https://open.spotify.com/track/5mnevkfhOWDzuvIIfRqv1c'
p1757
sg8
S'FOOL'
p1758
ssS'5JuA3wlm0kn7IHfbeHV0i6'
p1759
(dp1760
g3
S'Kodaline'
p1761
sg5
I2
sg6
S'https://open.spotify.com/track/5JuA3wlm0kn7IHfbeHV0i6'
p1762
sg8
S'All I Want'
p1763
ssS'2uWx84DNKWmstqgLRSBkEw'
p1764
(dp1765
g3
S'TAEYANG'
p1766
sg5
I1
sg6
S'https://open.spotify.com/track/2uWx84DNKWmstqgLRSBkEw'
p1767
sg8
S'WHITE NIGHT'
p1768
ssS'2XMTqoHHSH0lvuXrvIEdco'
p1769
(dp1770
g3
S'FRENSHIP'
p1771
sg5
I16
sg6
S'https://open.spotify.com/track/2XMTqoHHSH0lvuXrvIEdco'
p1772
sg8
S'Capsize'
p1773
ssS'5MFzQMkrl1FOOng9tq6R9r'
p1774
(dp1775
g3
S'Maroon 5'
p1776
sg5
I27
sg6
S'https://open.spotify.com/track/5MFzQMkrl1FOOng9tq6R9r'
p1777
sg8
S"Don't Wanna Know"
p1778
ssS'5Z3GHaZ6ec9bsiI5BenrbY'
p1779
(dp1780
g3
S'Khalid'
p1781
sg5
I15
sg6
S'https://open.spotify.com/track/5Z3GHaZ6ec9bsiI5BenrbY'
p1782
sg8
S'Young Dumb & Broke'
p1783
ssS'3FDrI0FLKzrYQiWxPhqV2W'
p1784
(dp1785
g3
S'Calvin Harris'
p1786
sg5
I4
sg6
S'https://open.spotify.com/track/3FDrI0FLKzrYQiWxPhqV2W'
p1787
sg8
S'Rollin'
p1788
ssS'5xYVqJ7ppf4bTbbztvVOYx'
p1789
(dp1790
g3
S'Timeflies'
p1791
sg5
I3
sg6
S'https://open.spotify.com/track/5xYVqJ7ppf4bTbbztvVOYx'
p1792
sg8
S'Raincoat (feat. Shy Martin)'
p1793
ssS'0B7wvvmu9EISAwZnOpjhNI'
p1794
(dp1795
g3
S'Bruno Mars'
p1796
sg5
I37
sg6
S'https://open.spotify.com/track/0B7wvvmu9EISAwZnOpjhNI'
p1797
sg8
S'When I Was Your Man'
p1798
ssS'3SfbB0Y3saMIQnNctxMVhj'
p1799
(dp1800
g3
S'SOYOU'
p1801
sg5
I16
sg6
S'https://open.spotify.com/track/3SfbB0Y3saMIQnNctxMVhj'
p1802
sg8
S'I Miss You'
p1803
ssS'1CmzpXH78pZl7n3rEjJXUo'
p1804
(dp1805
g3
S'G-DRAGON'
p1806
sg5
I1
sg6
S'https://open.spotify.com/track/1CmzpXH78pZl7n3rEjJXUo'
p1807
sg8
S'SUPER STAR'
p1808
ssS'1yW89MAFjSEMHoChGKzIzb'
p1809
(dp1810
g3
S'Altimet'
p1811
sg5
I14
sg6
S'https://open.spotify.com/track/1yW89MAFjSEMHoChGKzIzb'
p1812
sg8
S'Amboi'
p1813
ssS'2eAAEa8pxKF7My0EO4rFgR'
p1814
(dp1815
g3
S'Dua Lipa'
p1816
sg5
I6
sg6
S'https://open.spotify.com/track/2eAAEa8pxKF7My0EO4rFgR'
p1817
sg8
S'Blow Your Mind (Mwah)'
p1818
ssS'1almCHdsfikRPfVB9VrEdT'
p1819
(dp1820
g3
S'Alex & Sierra'
p1821
sg5
I11
sg6
S'https://open.spotify.com/track/1almCHdsfikRPfVB9VrEdT'
p1822
sg8
S'Little Do You Know'
p1823
ssS'3NgCzSW98SsqBdpYcnm4kv'
p1824
(dp1825
g3
S'Camila Cabello'
p1826
sg5
I1
sg6
S'https://open.spotify.com/track/3NgCzSW98SsqBdpYcnm4kv'
p1827
sg8
S'I Have Questions'
p1828
ssS'0IFV9VPRBvqpUP52ksLzzE'
p1829
(dp1830
g3
S'Porter Robinson & Madeon'
p1831
sg5
I1
sg6
S'https://open.spotify.com/track/0IFV9VPRBvqpUP52ksLzzE'
p1832
sg8
S'\xe3\x82\xb7\xe3\x82\xa7\xe3\x83\xab\xe3\x82\xbf\xe3\x83\xbc'
p1833
ssS'5JHNg1hxZFT7TDEphhM4wj'
p1834
(dp1835
g3
S'Linkin Park'
p1836
sg5
I1
sg6
S'https://open.spotify.com/track/5JHNg1hxZFT7TDEphhM4wj'
p1837
sg8
S'Waiting For The End'
p1838
ssS'6fOPuabPdAJ0HgqJFcDGb1'
p1839
(dp1840
g3
S'OneRepublic'
p1841
sg5
I3
sg6
S'https://open.spotify.com/track/6fOPuabPdAJ0HgqJFcDGb1'
p1842
sg8
S'Apologize'
p1843
ssS'1mea3bSkSGXuIRvnydlB5b'
p1844
(dp1845
g3
S'Coldplay'
p1846
sg5
I2
sg6
S'https://open.spotify.com/track/1mea3bSkSGXuIRvnydlB5b'
p1847
sg8
S'Viva La Vida'
p1848
ssS'1ipE3bBLWeLkIvxWUaxpSu'
p1849
(dp1850
g3
S'P!nk'
p1851
sg5
I2
sg6
S'https://open.spotify.com/track/1ipE3bBLWeLkIvxWUaxpSu'
p1852
sg8
S'Beautiful Trauma'
p1853
ssS'7zgqtptZvhf8GEmdsM2vp2'
p1854
(dp1855
g3
S'Taylor Swift'
p1856
sg5
I1
sg6
S'https://open.spotify.com/track/7zgqtptZvhf8GEmdsM2vp2'
p1857
sg8
S'...Ready For It?'
p1858
ssS'3S0OXQeoh0w6AY8WQVckRW'
p1859
(dp1860
g3
S'Jason Mraz'
p1861
sg5
I40
sg6
S'https://open.spotify.com/track/3S0OXQeoh0w6AY8WQVckRW'
p1862
sg8
S"I'm Yours"
p1863
ssS'3VC1IEz9M1txlMSx3h3tPM'
p1864
(dp1865
g3
S'KARD'
p1866
sg5
I3
sg6
S'https://open.spotify.com/track/3VC1IEz9M1txlMSx3h3tPM'
p1867
sg8
S'Hola Hola'
p1868
ssS'2qLMf6TuEC3ruGJg4SMMN6'
p1869
(dp1870
g3
S'Jason Mraz'
p1871
sg5
I41
sg6
S'https://open.spotify.com/track/2qLMf6TuEC3ruGJg4SMMN6'
p1872
sg8
S'Lucky'
p1873
ssS'6cPyTS0Kk2sc4xQwC93kOg'
p1874
(dp1875
g3
S'The Chainsmokers'
p1876
sg5
I7
sg6
S'https://open.spotify.com/track/6cPyTS0Kk2sc4xQwC93kOg'
p1877
sg8
S'Break Up Every Night'
p1878
ssS'6eUncuJutsFi9BGO1JaBHh'
p1879
(dp1880
g3
S'Jason Derulo'
p1881
sg5
I2
sg6
S'https://open.spotify.com/track/6eUncuJutsFi9BGO1JaBHh'
p1882
sg8
S"If I'm Lucky"
p1883
ssS'7Jo5oEViT27zCkdRI5hEuG'
p1884
(dp1885
g3
S'Sam Kim'
p1886
sg5
I9
sg6
S'https://open.spotify.com/track/7Jo5oEViT27zCkdRI5hEuG'
p1887
sg8
S'Who are you'
p1888
ssS'4gDyoe1FImDlXVt58ssnMf'
p1889
(dp1890
g3
S'Coldplay'
p1891
sg5
I2
sg6
S'https://open.spotify.com/track/4gDyoe1FImDlXVt58ssnMf'
p1892
sg8
S'All I Can Think About Is You'
p1893
ssS'31MkGwj0SWgZaTvEt5Hgxv'
p1894
(dp1895
g3
S'P!nk'
p1896
sg5
I9
sg6
S'https://open.spotify.com/track/31MkGwj0SWgZaTvEt5Hgxv'
p1897
sg8
S'What About Us'
p1898
ssS'0PDUDa38GO8lMxLCRc4lL1'
p1899
(dp1900
g3
S'ZAYN'
p1901
sg5
I6
sg6
S'https://open.spotify.com/track/0PDUDa38GO8lMxLCRc4lL1'
p1902
sg8
S'PILLOWTALK'
p1903
ssS'3pC1ILr9KzmQLMe8Kn5QBG'
p1904
(dp1905
g3
S'DJ Khaled'
p1906
sg5
I1
sg6
S'https://open.spotify.com/track/3pC1ILr9KzmQLMe8Kn5QBG'
p1907
sg8
S'To the Max'
p1908
ssS'0Ry81FrvFbMQ9tA5k59AF8'
p1909
(dp1910
g3
S'Fara Hezel'
p1911
sg5
I3
sg6
S'https://open.spotify.com/track/0Ry81FrvFbMQ9tA5k59AF8'
p1912
sg8
S'Setiaku Pasti'
p1913
ssS'5VKesrhjbKQNfsI4NIxZCi'
p1914
(dp1915
g3
S"Dato' DJ Dave"
p1916
sg5
I3
sg6
S'https://open.spotify.com/track/5VKesrhjbKQNfsI4NIxZCi'
p1917
sg8
S'Menjelang Hari Raya'
p1918
ssS'3iZxKJN2AYtCsEYCaUa86w'
p1919
(dp1920
g3
S'Rafeah Buang'
p1921
sg5
I3
sg6
S'https://open.spotify.com/track/3iZxKJN2AYtCsEYCaUa86w'
p1922
sg8
S'Bila Takbir Bergema'
p1923
ssS'3VRk65lHSwqd90TAkQqhvB'
p1924
(dp1925
g3
S'Katy Perry'
p1926
sg5
I2
sg6
S'https://open.spotify.com/track/3VRk65lHSwqd90TAkQqhvB'
p1927
sg8
S'Swish Swish'
p1928
ssS'3sGn74bHO14lznKAftyJID'
p1929
(dp1930
g3
S'Khairil Johari Johar'
p1931
sg5
I1
sg6
S'https://open.spotify.com/track/3sGn74bHO14lznKAftyJID'
p1932
sg8
S'Sepasang Kurung Biru'
p1933
ssS'0W363qrIc4GwuwOqa0WAEO'
p1934
(dp1935
g3
S'Gryffin'
p1936
sg5
I1
sg6
S'https://open.spotify.com/track/0W363qrIc4GwuwOqa0WAEO'
p1937
sg8
S'Nobody Compares To You'
p1938
ssS'3kxfsdsCpFgN412fpnW85Y'
p1939
(dp1940
g3
S'Childish Gambino'
p1941
sg5
I20
sg6
S'https://open.spotify.com/track/3kxfsdsCpFgN412fpnW85Y'
p1942
sg8
S'Redbone'
p1943
ssS'4muWMo7PgfPnDqWMCaPwOi'
p1944
(dp1945
g3
S'Putera Band'
p1946
sg5
I25
sg6
S'https://open.spotify.com/track/4muWMo7PgfPnDqWMCaPwOi'
p1947
sg8
S'Rebahku Tanpamu'
p1948
ssS'1OAh8uOEOvTDqkKFsKksCi'
p1949
(dp1950
g3
S'DJ Khaled'
p1951
sg5
I17
sg6
S'https://open.spotify.com/track/1OAh8uOEOvTDqkKFsKksCi'
p1952
sg8
S'Wild Thoughts'
p1953
ssS'3qyeNnFY67zX6VmmIbzPsL'
p1954
(dp1955
g3
S'Mike Perry'
p1956
sg5
I6
sg6
S'https://open.spotify.com/track/3qyeNnFY67zX6VmmIbzPsL'
p1957
sg8
S'Body to Body'
p1958
ssS'1KeZgPUr54C8iz3FjqzVoz'
p1959
(dp1960
g3
S'The Chainsmokers'
p1961
sg5
I3
sg6
S'https://open.spotify.com/track/1KeZgPUr54C8iz3FjqzVoz'
p1962
sg8
S'Young'
p1963
ssS'4sPmO7WMQUAf45kwMOtONw'
p1964
(dp1965
g3
S'Adele'
p1966
sg5
I7
sg6
S'https://open.spotify.com/track/4sPmO7WMQUAf45kwMOtONw'
p1967
sg8
S'Hello'
p1968
ssS'3agtg0x11wPvLIWkYR39nZ'
p1969
(dp1970
g3
S'Linkin Park'
p1971
sg5
I1
sg6
S'https://open.spotify.com/track/3agtg0x11wPvLIWkYR39nZ'
p1972
sg8
S'Somewhere I Belong'
p1973
ssS'6BaCraQ9xeLYg4Sb9TBT2X'
p1974
(dp1975
g3
S'Calvin Harris'
p1976
sg5
I1
sg6
S'https://open.spotify.com/track/6BaCraQ9xeLYg4Sb9TBT2X'
p1977
sg8
S'Feels'
p1978
ssS'6875MeXyCW0wLyT72Eetmo'
p1979
(dp1980
g3
S'Hailee Steinfeld'
p1981
sg5
I7
sg6
S'https://open.spotify.com/track/6875MeXyCW0wLyT72Eetmo'
p1982
sg8
S'Starving'
p1983
ssS'5q5gzmbBS5yQzos2BvVr1t'
p1984
(dp1985
g3
S'M\xc3\x98'
p1986
sg5
I11
sg6
S'https://open.spotify.com/track/5q5gzmbBS5yQzos2BvVr1t'
p1987
sg8
S'Nights With You'
p1988
ssS'3DXncPQOG4VBw3QHh3S817'
p1989
(dp1990
g3
S'DJ Khaled'
p1991
sg5
I20
sg6
S'https://open.spotify.com/track/3DXncPQOG4VBw3QHh3S817'
p1992
sg8
S"I'm the One"
p1993
ssS'3dWOuReL6DhczDfhsYXxat'
p1994
(dp1995
g3
S'Sigrid'
p1996
sg5
I1
sg6
S'https://open.spotify.com/track/3dWOuReL6DhczDfhsYXxat'
p1997
sg8
S'Plot Twist'
p1998
ssS'7m9OqQk4RVRkw9JJdeAw96'
p1999
(dp2000
g3
S'XXXTENTACION'
p2001
sg5
I7
sg6
S'https://open.spotify.com/track/7m9OqQk4RVRkw9JJdeAw96'
p2002
sg8
S'Jocelyn Flores'
p2003
ssS'6mORGLOz79w6VsCRLWYYuK'
p2004
(dp2005
g3
S'Lord Huron'
p2006
sg5
I7
sg6
S'https://open.spotify.com/track/6mORGLOz79w6VsCRLWYYuK'
p2007
sg8
S'The Night We Met'
p2008
ssS'5aAx2yezTd8zXrkmtKl66Z'
p2009
(dp2010
g3
S'The Weeknd'
p2011
sg5
I42
sg6
S'https://open.spotify.com/track/5aAx2yezTd8zXrkmtKl66Z'
p2012
sg8
S'Starboy'
p2013
ssS'3vxgKOmAOVl11Csw4ehkmJ'
p2014
(dp2015
g3
S'NCT 127'
p2016
sg5
I1
sg6
S'https://open.spotify.com/track/3vxgKOmAOVl11Csw4ehkmJ'
p2017
sg8
S'\xe7\x84\xa1\xe9\x99\x90\xe7\x9a\x84\xe6\x88\x91 \xeb\xac\xb4\xed\x95\x9c\xec\xa0\x81\xec\x95\x84; LIMITLESS'
p2018
ssS'2BrzlUj1u1CtvaJDGIKpsP'
p2019
(dp2020
g3
S'Noah Cyrus'
p2021
sg5
I15
sg6
S'https://open.spotify.com/track/2BrzlUj1u1CtvaJDGIKpsP'
p2022
sg8
S'Make Me (Cry)'
p2023
ssS'1SJtlNRJDeYHioymcvsqev'
p2024
(dp2025
g3
S'Camila Cabello'
p2026
sg5
I21
sg6
S'https://open.spotify.com/track/1SJtlNRJDeYHioymcvsqev'
p2027
sg8
S'Crying in the Club'
p2028
ssS'0Wv5wuenRLI3BcwgT3HPIP'
p2029
(dp2030
g3
S'DJ Snake'
p2031
sg5
I3
sg6
S'https://open.spotify.com/track/0Wv5wuenRLI3BcwgT3HPIP'
p2032
sg8
S'A Different Way (with Lauv)'
p2033
ssS'04DwTuZ2VBdJCCC5TROn7L'
p2034
(dp2035
g3
S'Martin Garrix'
p2036
sg5
I37
sg6
S'https://open.spotify.com/track/04DwTuZ2VBdJCCC5TROn7L'
p2037
sg8
S'In the Name of Love'
p2038
ssS'0m2orA1i5lLZUOt9XLwSd0'
p2039
(dp2040
g3
S'Fifth Harmony'
p2041
sg5
I1
sg6
S'https://open.spotify.com/track/0m2orA1i5lLZUOt9XLwSd0'
p2042
sg8
S'He Like That'
p2043
ssS'3AJwUDP919kvQ9QcozQPxg'
p2044
(dp2045
g3
S'Coldplay'
p2046
sg5
I42
sg6
S'https://open.spotify.com/track/3AJwUDP919kvQ9QcozQPxg'
p2047
sg8
S'Yellow'
p2048
ssS'1UwERmn5UogyCz6qo21BmA'
p2049
(dp2050
g3
S"Girls' Generation"
p2051
sg5
I2
sg6
S'https://open.spotify.com/track/1UwERmn5UogyCz6qo21BmA'
p2052
sg8
S'All Night'
p2053
ssS'2twoFxUOWQ1pnqigZLcYkL'
p2054
(dp2055
g3
S'Ayda Jebat'
p2056
sg5
I3
sg6
S'https://open.spotify.com/track/2twoFxUOWQ1pnqigZLcYkL'
p2057
sg8
S'Pencuri Hati'
p2058
ssS'1eKmJEsa84dDylOjd3VFoa'
p2059
(dp2060
g3
S'Hez Hazmi'
p2061
sg5
I15
sg6
S'https://open.spotify.com/track/1eKmJEsa84dDylOjd3VFoa'
p2062
sg8
S'Setiaku'
p2063
ssS'4JAyIDXOqNM6qHuZML01uX'
p2064
(dp2065
g3
g262
sg5
I1
sg6
S'https://open.spotify.com/track/4JAyIDXOqNM6qHuZML01uX'
p2066
sg8
g262
ssS'6VRghJeP6I0w1KxkdWFfIh'
p2067
(dp2068
g3
S'Imagine Dragons'
p2069
sg5
I3
sg6
S'https://open.spotify.com/track/6VRghJeP6I0w1KxkdWFfIh'
p2070
sg8
S'Believer'
p2071
ssS'5oq6nAmWWvj0pxRKjBmIOa'
p2072
(dp2073
g3
S'Khai Bahar'
p2074
sg5
I11
sg6
S'https://open.spotify.com/track/5oq6nAmWWvj0pxRKjBmIOa'
p2075
sg8
S'Luluh'
p2076
ssS'7LVHVU3tWfcxj5aiPFEW4Q'
p2077
(dp2078
g3
S'Coldplay'
p2079
sg5
I42
sg6
S'https://open.spotify.com/track/7LVHVU3tWfcxj5aiPFEW4Q'
p2080
sg8
S'Fix You'
p2081
ssS'6SznMYPQJHzr3IwsAHLId2'
p2082
(dp2083
g3
S'Ed Sheeran'
p2084
sg5
I3
sg6
S'https://open.spotify.com/track/6SznMYPQJHzr3IwsAHLId2'
p2085
sg8
S'Bibia Be Ye Ye'
p2086
ssS'6LunoYd3xpZ19sICOXS8Xd'
p2087
(dp2088
g3
S'Joker Xue'
p2089
sg5
I36
sg6
S'https://open.spotify.com/track/6LunoYd3xpZ19sICOXS8Xd'
p2090
sg8
S'\xe6\xbc\x94\xe5\x93\xa1'
p2091
ssS'70qgVPZygKKzclcl5r6jjc'
p2092
(dp2093
g3
S'Asfan Shah'
p2094
sg5
I1
sg6
S'https://open.spotify.com/track/70qgVPZygKKzclcl5r6jjc'
p2095
sg8
S'Sumpah Cintaku'
p2096
ssS'0NiXXAI876aGImAd6rTj8w'
p2097
(dp2098
g3
S'Jonas Blue'
p2099
sg5
I14
sg6
S'https://open.spotify.com/track/0NiXXAI876aGImAd6rTj8w'
p2100
sg8
S'Mama'
p2101
ssS'6oPIg3ql5chwh04iS9JfX9'
p2102
(dp2103
g3
S'Dayangku Intan'
p2104
sg5
I2
sg6
S'https://open.spotify.com/track/6oPIg3ql5chwh04iS9JfX9'
p2105
sg8
S'Senandung Hari Raya Untukmu'
p2106
ssS'1fmj1mJzqYMGscgPo1pTYG'
p2107
(dp2108
g3
S'Sufie Rashid'
p2109
sg5
I23
sg6
S'https://open.spotify.com/track/1fmj1mJzqYMGscgPo1pTYG'
p2110
sg8
S'Aku Sanggup'
p2111
ssS'0LGCloCfw3fk1XQh0zbrs1'
p2112
(dp2113
g3
S'Mike Perry'
p2114
sg5
I1
sg6
S'https://open.spotify.com/track/0LGCloCfw3fk1XQh0zbrs1'
p2115
sg8
S'Hands'
p2116
ssS'1n4jwRVXdkK2U34nBDUKKT'
p2117
(dp2118
g3
S'Kendrick Lamar'
p2119
sg5
I1
sg6
S'https://open.spotify.com/track/1n4jwRVXdkK2U34nBDUKKT'
p2120
sg8
S'BLOOD.'
p2121
ssS'2F4x7TRtf5K3LNSpEuKGhY'
p2122
(dp2123
g3
S'Armada'
p2124
sg5
I11
sg6
S'https://open.spotify.com/track/2F4x7TRtf5K3LNSpEuKGhY'
p2125
sg8
S'Asal Kau Bahagia'
p2126
ssS'1rw8VCZDhSjbuFTJvDhpeW'
p2127
(dp2128
g3
S'Faizal Tahir'
p2129
sg5
I39
sg6
S'https://open.spotify.com/track/1rw8VCZDhSjbuFTJvDhpeW'
p2130
sg8
S'Dirgahayu'
p2131
ssS'1sYSP7gKa5kdKIfhANfori'
p2132
(dp2133
g3
S'MAX'
p2134
sg5
I11
sg6
S'https://open.spotify.com/track/1sYSP7gKa5kdKIfhANfori'
p2135
sg8
S'Lights Down Low'
p2136
ssS'5Ohxk2dO5COHF1krpoPigN'
p2137
(dp2138
g3
S'Harry Styles'
p2139
sg5
I27
sg6
S'https://open.spotify.com/track/5Ohxk2dO5COHF1krpoPigN'
p2140
sg8
S'Sign of the Times'
p2141
ssS'6Upu6yjkdi0DVI8E3IBZEU'
p2142
(dp2143
g3
S'SEVENTEEN'
p2144
sg5
I11
sg6
S'https://open.spotify.com/track/6Upu6yjkdi0DVI8E3IBZEU'
p2145
sg8
S"Don't Wanna Cry"
p2146
ssS'23MVwlPrWjlfqWZ7EOedwF'
p2147
(dp2148
g3
S'XPOSE'
p2149
sg5
I1
sg6
S'https://open.spotify.com/track/23MVwlPrWjlfqWZ7EOedwF'
p2150
sg8
S'Sandiwara'
p2151
ssS'7FCfMXYTIiQ9b4hDYs4Iol'
p2152
(dp2153
g3
S'Dua Lipa'
p2154
sg5
I4
sg6
S'https://open.spotify.com/track/7FCfMXYTIiQ9b4hDYs4Iol'
p2155
sg8
S'Be The One'
p2156
ssS'1UVVPtvtUXeVzbNKjlcVht'
p2157
(dp2158
g3
S'TAEYANG'
p2159
sg5
I1
sg6
S'https://open.spotify.com/track/1UVVPtvtUXeVzbNKjlcVht'
p2160
sg8
S'DARLING'
p2161
ssS'4mxWSdf71VFO52qFeY0fZt'
p2162
(dp2163
g3
S'Maroon 5'
p2164
sg5
I6
sg6
S'https://open.spotify.com/track/4mxWSdf71VFO52qFeY0fZt'
p2165
sg8
S'What Lovers Do (feat. SZA)'
p2166
ssS'0vtoxqoBCW99eV9RAarbSP'
p2167
(dp2168
g3
S'Harris Baba'
p2169
sg5
I15
sg6
S'https://open.spotify.com/track/0vtoxqoBCW99eV9RAarbSP'
p2170
sg8
S'Katakan'
p2171
ssS'4Hf7WnR761jpxPr5D46Bcd'
p2172
(dp2173
g3
S'Shawn Mendes'
p2174
sg5
I42
sg6
S'https://open.spotify.com/track/4Hf7WnR761jpxPr5D46Bcd'
p2175
sg8
S'Treat You Better'
p2176
ssS'76cX1GFe7MHAxcfNDOckuS'
p2177
(dp2178
g3
S'Leroy Styles'
p2179
sg5
I18
sg6
S'https://open.spotify.com/track/76cX1GFe7MHAxcfNDOckuS'
p2180
sg8
S'Golden Youth'
p2181
ssS'0dXNQ8dckG4eYfEtq9zcva'
p2182
(dp2183
g3
S'The Vamps'
p2184
sg5
I1
sg6
S'https://open.spotify.com/track/0dXNQ8dckG4eYfEtq9zcva'
p2185
sg8
S'All Night'
p2186
ssS'1Tt4sE4pXi57mTD1GCzsqm'
p2187
(dp2188
g3
S'Rihanna'
p2189
sg5
I1
sg6
S'https://open.spotify.com/track/1Tt4sE4pXi57mTD1GCzsqm'
p2190
sg8
S'Needed Me'
p2191
ssS'3CJvmtWw2bJsudbAC5uCQk'
p2192
(dp2193
g3
S'Selena Gomez'
p2194
sg5
I1
sg6
S'https://open.spotify.com/track/3CJvmtWw2bJsudbAC5uCQk'
p2195
sg8
S'Hands To Myself'
p2196
ssS'6QgjcU0zLnzq5OrUoSZ3OK'
p2197
(dp2198
g3
S'Portugal. The Man'
p2199
sg5
I11
sg6
S'https://open.spotify.com/track/6QgjcU0zLnzq5OrUoSZ3OK'
p2200
sg8
S'Feel It Still'
p2201
ssS'5ubfQzhabDSLYyohz2ozaN'
p2202
(dp2203
g3
S'Red Velvet'
p2204
sg5
I2
sg6
S'https://open.spotify.com/track/5ubfQzhabDSLYyohz2ozaN'
p2205
sg8
S'Rookie'
p2206
ssS'6vSforRhuzsA0D0SO9fG1S'
p2207
(dp2208
g3
S'Charlie Puth'
p2209
sg5
I37
sg6
S'https://open.spotify.com/track/6vSforRhuzsA0D0SO9fG1S'
p2210
sg8
S'One Call Away'
p2211
ssS'69uxyAqqPIsUyTO8txoP2M'
p2212
(dp2213
g3
S'Coldplay'
p2214
sg5
I2
sg6
S'https://open.spotify.com/track/69uxyAqqPIsUyTO8txoP2M'
p2215
sg8
S'Adventure Of A Lifetime'
p2216
ssS'65MOTX6uSFAnqXl7dlAuId'
p2217
(dp2218
g3
S'Demi Lovato'
p2219
sg5
I1
sg6
S'https://open.spotify.com/track/65MOTX6uSFAnqXl7dlAuId'
p2220
sg8
S'Tell Me You Love Me'
p2221
ssS'1EaKU4dMbesXXd3BrLCtYG'
p2222
(dp2223
g3
S'Kendrick Lamar'
p2224
sg5
I2
sg6
S'https://open.spotify.com/track/1EaKU4dMbesXXd3BrLCtYG'
p2225
sg8
S'ELEMENT.'
p2226
ssS'7xHWNBFm6ObGEQPaUxHuKO'
p2227
(dp2228
g3
S'Sia'
p2229
sg5
I14
sg6
S'https://open.spotify.com/track/7xHWNBFm6ObGEQPaUxHuKO'
p2230
sg8
S'The Greatest'
p2231
ssS'2fXH2iei02pBaSIdn5X4zJ'
p2232
(dp2233
g3
S'Ryan Gosling'
p2234
sg5
I1
sg6
S'https://open.spotify.com/track/2fXH2iei02pBaSIdn5X4zJ'
p2235
sg8
S'A Lovely Night - From La La Land Soundtrack'
p2236
ssS'5knuzwU65gJK7IF5yJsuaW'
p2237
(dp2238
g3
S'Clean Bandit'
p2239
sg5
I42
sg6
S'https://open.spotify.com/track/5knuzwU65gJK7IF5yJsuaW'
p2240
sg8
S'Rockabye (feat. Sean Paul & Anne-Marie)'
p2241
ssS'7aF09WaavZAmAWuUeYxlYD'
p2242
(dp2243
g3
S'OneRepublic'
p2244
sg5
I13
sg6
S'https://open.spotify.com/track/7aF09WaavZAmAWuUeYxlYD'
p2245
sg8
S'Rich Love (with Seeb)'
p2246
ssS'67QGnT1Vdfuuy4HkLTUVjj'
p2247
(dp2248
g3
S'TAEYEON'
p2249
sg5
I1
sg6
S'https://open.spotify.com/track/67QGnT1Vdfuuy4HkLTUVjj'
p2250
sg8
S'11:11'
p2251
ssS'5VBjDJXadDmj13aDXE98SJ'
p2252
(dp2253
g3
S'Gamma1'
p2254
sg5
I15
sg6
S'https://open.spotify.com/track/5VBjDJXadDmj13aDXE98SJ'
p2255
sg8
S'Dari Hati Ke Hati'
p2256
ssS'14WWzenpaEgQZlqPq2nk4v'
p2257
(dp2258
g3
S'Rihanna'
p2259
sg5
I2
sg6
S'https://open.spotify.com/track/14WWzenpaEgQZlqPq2nk4v'
p2260
sg8
S'Work'
p2261
ssS'4v1jAfui9gHygoPSs1B6Lz'
p2262
(dp2263
g3
S'Dato Siti Nurhaliza'
p2264
sg5
I2
sg6
S'https://open.spotify.com/track/4v1jAfui9gHygoPSs1B6Lz'
p2265
sg8
S'Air Mata Syawal'
p2266
ssS'6b8Be6ljOzmkOmFslEb23P'
p2267
(dp2268
g3
S'Bruno Mars'
p2269
sg5
I36
sg6
S'https://open.spotify.com/track/6b8Be6ljOzmkOmFslEb23P'
p2270
sg8
S'24K Magic'
p2271
ssS'1bkvGbgK4HU8B7Ue4k7O7I'
p2272
(dp2273
g3
S'G.E.M.'
p2274
sg5
I32
sg6
S'https://open.spotify.com/track/1bkvGbgK4HU8B7Ue4k7O7I'
p2275
sg8
S'\xe5\x85\x89\xe5\xb9\xb4\xe4\xb9\x8b\xe5\xa4\x96 (\xe9\x9b\xbb\xe5\xbd\xb1 \xe3\x80\x8aPassengers\xe3\x80\x8b \xe4\xb8\xad\xe5\x9c\x8b\xe5\x8d\x80\xe4\xb8\xbb\xe9\xa1\x8c\xe6\x9b\xb2)'
p2276
ssS'0bYg9bo50gSsH3LtXe2SQn'
p2277
(dp2278
g3
S'Mariah Carey'
p2279
sg5
I1
sg6
S'https://open.spotify.com/track/0bYg9bo50gSsH3LtXe2SQn'
p2280
sg8
S'All I Want for Christmas Is You'
p2281
ssS'6uJwPeBGb3swi85TSr9iIz'
p2282
(dp2283
g3
S'Coldplay'
p2284
sg5
I2
sg6
S'https://open.spotify.com/track/6uJwPeBGb3swi85TSr9iIz'
p2285
sg8
S'Miracles (Someone Special)'
p2286
ssS'1GwiuoyJzlEuGw0yrLuF6H'
p2287
(dp2288
g3
S'BTS'
p2289
sg5
I2
sg6
S'https://open.spotify.com/track/1GwiuoyJzlEuGw0yrLuF6H'
p2290
sg8
S'Outro : Wings'
p2291
ssS'6rRtiujgKHYesXiAEVLjMm'
p2292
(dp2293
g3
S'G-DRAGON'
p2294
sg5
I1
sg6
S'https://open.spotify.com/track/6rRtiujgKHYesXiAEVLjMm'
p2295
sg8
S'OUTRO. \xec\x8b\xa0\xea\xb3\xa1(\xe7\xa5\x9e\xe6\x9b\xb2) (Divina Commedia)'
p2296
ssS'6HZILIRieu8S0iqY8kIKhj'
p2297
(dp2298
g3
S'Kendrick Lamar'
p2299
sg5
I14
sg6
S'https://open.spotify.com/track/6HZILIRieu8S0iqY8kIKhj'
p2300
sg8
S'DNA.'
p2301
ssS'4gqMQftUs22F8pOGVn5Acr'
p2302
(dp2303
g3
S'Shawn Hook'
p2304
sg5
I21
sg6
S'https://open.spotify.com/track/4gqMQftUs22F8pOGVn5Acr'
p2305
sg8
S'Reminding Me'
p2306
ssS'7F9vK8hNFMml4GtHsaXui6'
p2307
(dp2308
g3
S'Louis Tomlinson'
p2309
sg5
I12
sg6
S'https://open.spotify.com/track/7F9vK8hNFMml4GtHsaXui6'
p2310
sg8
S'Back to You (feat. Bebe Rexha & Digital Farm Animals)'
p2311
ssS'5E5MqaS6eOsbaJibl3YeMZ'
p2312
(dp2313
g3
S'Dua Lipa'
p2314
sg5
I1
sg6
S'https://open.spotify.com/track/5E5MqaS6eOsbaJibl3YeMZ'
p2315
sg8
S'Homesick'
p2316
ssS'2EEeOnHehOozLq4aS0n6SL'
p2317
(dp2318
g3
S'KYLE'
p2319
sg5
I17
sg6
S'https://open.spotify.com/track/2EEeOnHehOozLq4aS0n6SL'
p2320
sg8
S'iSpy (feat. Lil Yachty)'
p2321
ssS'3B54sVLJ402zGa6Xm4YGNe'
p2322
(dp2323
g3
S'French Montana'
p2324
sg5
I14
sg6
S'https://open.spotify.com/track/3B54sVLJ402zGa6Xm4YGNe'
p2325
sg8
S'Unforgettable'
p2326
ssS'32DGGj6KlNuBr6WaqRxpxi'
p2327
(dp2328
g3
S'Charlie Puth'
p2329
sg5
I1
sg6
S'https://open.spotify.com/track/32DGGj6KlNuBr6WaqRxpxi'
p2330
sg8
S'How Long'
p2331
ssS'0ug5NqcwcFR2xrfTkc7k8e'
p2332
(dp2333
g3
S'Taylor Swift'
p2334
sg5
I1
sg6
S'https://open.spotify.com/track/0ug5NqcwcFR2xrfTkc7k8e'
p2335
sg8
S'Style'
p2336
ssS'716dL9rcFYJaP874RBVhLR'
p2337
(dp2338
g3
S'Sakura Band'
p2339
sg5
I6
sg6
S'https://open.spotify.com/track/716dL9rcFYJaP874RBVhLR'
p2340
sg8
S'Polaroid'
p2341
ssS'6gpcs5eMhJwax4mIfKDYQk'
p2342
(dp2343
g3
S'Calvin Harris'
p2344
sg5
I4
sg6
S'https://open.spotify.com/track/6gpcs5eMhJwax4mIfKDYQk'
p2345
sg8
S'Slide'
p2346
ssS'5bcTCxgc7xVfSaMV3RuVke'
p2347
(dp2348
g3
S'Calvin Harris'
p2349
sg5
I16
sg6
S'https://open.spotify.com/track/5bcTCxgc7xVfSaMV3RuVke'
p2350
sg8
S'Feels'
p2351
ssS'0QsvXIfqM0zZoerQfsI9lm'
p2352
(dp2353
g3
S'The Chainsmokers'
p2354
sg5
I42
sg6
S'https://open.spotify.com/track/0QsvXIfqM0zZoerQfsI9lm'
p2355
sg8
S"Don't Let Me Down"
p2356
ssS'0fioLzGM8ngbD1w6fMmm45'
p2357
(dp2358
g3
S'Sam Smith'
p2359
sg5
I42
sg6
S'https://open.spotify.com/track/0fioLzGM8ngbD1w6fMmm45'
p2360
sg8
S"I'm Not The Only One"
p2361
ssS'4qqArAiTPueDxIp7cf87h7'
p2362
(dp2363
g3
S'M\xc3\x98'
p2364
sg5
I7
sg6
S'https://open.spotify.com/track/4qqArAiTPueDxIp7cf87h7'
p2365
sg8
S'Final Song'
p2366
ssS'5hslUAKq9I9CG2bAulFkHN'
p2367
(dp2368
g3
S'Andy Williams'
p2369
sg5
I1
sg6
S'https://open.spotify.com/track/5hslUAKq9I9CG2bAulFkHN'
p2370
sg8
S"It's the Most Wonderful Time of the Year"
p2371
ssS'2otO94tZ2iksuJKWlMKeRA'
p2372
(dp2373
g3
S'Shila Amzah'
p2374
sg5
I21
sg6
S'https://open.spotify.com/track/2otO94tZ2iksuJKWlMKeRA'
p2375
sg8
S'Selamanya Cinta'
p2376
ssS'2nLtzopw4rPReszdYBJU6h'
p2377
(dp2378
g3
S'Linkin Park'
p2379
sg5
I6
sg6
S'https://open.spotify.com/track/2nLtzopw4rPReszdYBJU6h'
p2380
sg8
S'Numb'
p2381
ssS'3a1lNhkSLSkpJE4MSHpDu9'
p2382
(dp2383
g3
S'Post Malone'
p2384
sg5
I35
sg6
S'https://open.spotify.com/track/3a1lNhkSLSkpJE4MSHpDu9'
p2385
sg8
S'Congratulations'
p2386
ssS'5NB0u5gWcwH1D6y3euVSKI'
p2387
(dp2388
g3
S'EXO'
p2389
sg5
I1
sg6
S'https://open.spotify.com/track/5NB0u5gWcwH1D6y3euVSKI'
p2390
sg8
S'What U do?'
p2391
ssS'4PXreLjLuwDDPqjKGsriIb'
p2392
(dp2393
g3
S'Fazura'
p2394
sg5
I2
sg6
S'https://open.spotify.com/track/4PXreLjLuwDDPqjKGsriIb'
p2395
sg8
S'Bisa Apa'
p2396
ssS'66JMCRCvAqjlxuIVKmWvBc'
p2397
(dp2398
g3
S'Siti Nordiana'
p2399
sg5
I10
sg6
S'https://open.spotify.com/track/66JMCRCvAqjlxuIVKmWvBc'
p2400
sg8
S'Terus Mencintai'
p2401
ssS'79NlESqzFSW0hdBWgls4FX'
p2402
(dp2403
g3
S'Kesha'
p2404
sg5
I5
sg6
S'https://open.spotify.com/track/79NlESqzFSW0hdBWgls4FX'
p2405
sg8
S'Praying'
p2406
ssS'0ofbQMrRDsUaVKq2mGLEAb'
p2407
(dp2408
g3
S'Camila Cabello'
p2409
sg5
I10
sg6
S'https://open.spotify.com/track/0ofbQMrRDsUaVKq2mGLEAb'
p2410
sg8
S'Havana'
p2411
ssS'6bLopGnirdrilrpdVB6Um1'
p2412
(dp2413
g3
S'Sia'
p2414
sg5
I3
sg6
S'https://open.spotify.com/track/6bLopGnirdrilrpdVB6Um1'
p2415
sg8
S'The Greatest'
p2416
ssS'1Bjy9ZtwMle3uhVgoBgiGN'
p2417
(dp2418
g3
S"Girls' Generation"
p2419
sg5
I2
sg6
S'https://open.spotify.com/track/1Bjy9ZtwMle3uhVgoBgiGN'
p2420
sg8
S'Holiday'
p2421
ssS'75otNO0cdT9qt9tg6aclMu'
p2422
(dp2423
g3
S'Dadilia Band'
p2424
sg5
I17
sg6
S'https://open.spotify.com/track/75otNO0cdT9qt9tg6aclMu'
p2425
sg8
S'Jelmaan Rindu'
p2426
ssS'2T80Y0nRRSHVG7gVyfgTkM'
p2427
(dp2428
g3
S'Projector Band'
p2429
sg5
I21
sg6
S'https://open.spotify.com/track/2T80Y0nRRSHVG7gVyfgTkM'
p2430
sg8
S'Aisyah'
p2431
ssS'1vvNmPOiUuyCbgWmtc6yfm'
p2432
(dp2433
g3
S'Calvin Harris'
p2434
sg5
I9
sg6
S'https://open.spotify.com/track/1vvNmPOiUuyCbgWmtc6yfm'
p2435
sg8
S'My Way'
p2436
ssS'7DQXiMeLqiQsy1uqHSk0xc'
p2437
(dp2438
g3
S'Shawn Hook'
p2439
sg5
I3
sg6
S'https://open.spotify.com/track/7DQXiMeLqiQsy1uqHSk0xc'
p2440
sg8
S'Reminding Me'
p2441
ssS'34l5fYeteZCHvfUf9zXHc4'
p2442
(dp2443
g3
S'Faizal Tahir'
p2444
sg5
I13
sg6
S'https://open.spotify.com/track/34l5fYeteZCHvfUf9zXHc4'
p2445
sg8
S'Sejati - Remastered'
p2446
ssS'60IkVf7UfQXmt5CwkpcX8a'
p2447
(dp2448
g3
S'Linkin Park'
p2449
sg5
I1
sg6
S'https://open.spotify.com/track/60IkVf7UfQXmt5CwkpcX8a'
p2450
sg8
S'From The Inside'
p2451
ssS'1Sl3njkhhz8nrSPZroDQ82'
p2452
(dp2453
g3
S'Dimitri Vegas & Like Mike'
p2454
sg5
I11
sg6
S'https://open.spotify.com/track/1Sl3njkhhz8nrSPZroDQ82'
p2455
sg8
S'Complicated (feat. Kiiara)'
p2456
ssS'57BrRMwf9LrcmuOsyGilwr'
p2457
(dp2458
g3
S'Linkin Park'
p2459
sg5
I2
sg6
S'https://open.spotify.com/track/57BrRMwf9LrcmuOsyGilwr'
p2460
sg8
S'Crawling'
p2461
ssS'0afhq8XCExXpqazXczTSve'
p2462
(dp2463
g3
S'Ed Sheeran'
p2464
sg5
I32
sg6
S'https://open.spotify.com/track/0afhq8XCExXpqazXczTSve'
p2465
sg8
S'Galway Girl'
p2466
ssS'2ZE3DJuizYTad2S4CvRRhK'
p2467
(dp2468
g3
S'Lauv'
p2469
sg5
I1
sg6
S'https://open.spotify.com/track/2ZE3DJuizYTad2S4CvRRhK'
p2470
sg8
S'Easy Love'
p2471
ssS'3gqVjhFpPMjbZBLNJ7nhj3'
p2472
(dp2473
g3
S'The Sam Willows'
p2474
sg5
I2
sg6
S'https://open.spotify.com/track/3gqVjhFpPMjbZBLNJ7nhj3'
p2475
sg8
S'Keep Me Jealous'
p2476
ssS'64jPCnJr4UliL9YhAQaVFc'
p2477
(dp2478
g3
S'Hyper Act'
p2479
sg5
I25
sg6
S'https://open.spotify.com/track/64jPCnJr4UliL9YhAQaVFc'
p2480
sg8
S'Bukan Untukku'
p2481
ssS'7Mq3ZPwNwPb6dbtJA9tv00'
p2482
(dp2483
g3
S'Talitha Tan'
p2484
sg5
I2
sg6
S'https://open.spotify.com/track/7Mq3ZPwNwPb6dbtJA9tv00'
p2485
sg8
S'Okay (feat. Darren Ashley)'
p2486
ssS'2rb5MvYT7ZIxbKW5hfcHx8'
p2487
(dp2488
g3
S'J Balvin'
p2489
sg5
I14
sg6
S'https://open.spotify.com/track/2rb5MvYT7ZIxbKW5hfcHx8'
p2490
sg8
S'Mi Gente'
p2491
ssS'1NDxZ7cFAo481dtYWdrUnR'
p2492
(dp2493
g3
S'Maggie Lindemann'
p2494
sg5
I27
sg6
S'https://open.spotify.com/track/1NDxZ7cFAo481dtYWdrUnR'
p2495
sg8
S'Pretty Girl - Cheat Codes X CADE Remix'
p2496
ssS'2aFiaMXmWsM3Vj72F9ksBl'
p2497
(dp2498
g3
S'DNCE'
p2499
sg5
I5
sg6
S'https://open.spotify.com/track/2aFiaMXmWsM3Vj72F9ksBl'
p2500
sg8
S'Cake By The Ocean'
p2501
ssS'152lZdxL1OR0ZMW6KquMif'
p2502
(dp2503
g3
S'Khalid'
p2504
sg5
I32
sg6
S'https://open.spotify.com/track/152lZdxL1OR0ZMW6KquMif'
p2505
sg8
S'Location'
p2506
ssS'4TZy1wLyHec06pwgFYDh1a'
p2507
(dp2508
g3
S'Shawn Mendes'
p2509
sg5
I42
sg6
S'https://open.spotify.com/track/4TZy1wLyHec06pwgFYDh1a'
p2510
sg8
S'Mercy'
p2511
ssS'4llK75pXNWZz6KAho2Gp16'
p2512
(dp2513
g3
S'Maroon 5'
p2514
sg5
I42
sg6
S'https://open.spotify.com/track/4llK75pXNWZz6KAho2Gp16'
p2515
sg8
S'She Will Be Loved - Radio Mix'
p2516
ssS'4QdovcM8j50QPlyR7tH4xe'
p2517
(dp2518
g3
S'Marc E. Bassy'
p2519
sg5
I8
sg6
S'https://open.spotify.com/track/4QdovcM8j50QPlyR7tH4xe'
p2520
sg8
S'You & Me'
p2521
ssS'5qtSNy9cdlzMqQQyaOzH6U'
p2522
(dp2523
g3
S'BIGBANG'
p2524
sg5
I5
sg6
S'https://open.spotify.com/track/5qtSNy9cdlzMqQQyaOzH6U'
p2525
sg8
S'GIRLFRIEND'
p2526
ssS'3RXkboS74UYzN14xTqzPyY'
p2527
(dp2528
g3
g262
sg5
I1
sg6
S'https://open.spotify.com/track/3RXkboS74UYzN14xTqzPyY'
p2529
sg8
g262
ssS'20H2Hd5AkUcRjB4yL3UQtJ'
p2530
(dp2531
g3
S'Fifth Harmony'
p2532
sg5
I3
sg6
S'https://open.spotify.com/track/20H2Hd5AkUcRjB4yL3UQtJ'
p2533
sg8
S'Down'
p2534
ssS'2X8GwyuNBiOJKLCLNaefOT'
p2535
(dp2536
g3
S'Anne-Marie'
p2537
sg5
I1
sg6
S'https://open.spotify.com/track/2X8GwyuNBiOJKLCLNaefOT'
p2538
sg8
S'Heavy'
p2539
ssS'1kfMvCj7gGd5zfqx5gtZPo'
p2540
(dp2541
g3
S'Azlina Aziz'
p2542
sg5
I1
sg6
S'https://open.spotify.com/track/1kfMvCj7gGd5zfqx5gtZPo'
p2543
sg8
S'Indahnya Beraya Di Desa'
p2544
ssS'77QVIMNs9jeiTsTURUkhGa'
p2545
(dp2546
g3
S'Black Dog Bone'
p2547
sg5
I2
sg6
S'https://open.spotify.com/track/77QVIMNs9jeiTsTURUkhGa'
p2548
sg8
S'Cahaya Aidilfitri'
p2549
ssS'1FUViuNSldssMIawrOXF2i'
p2550
(dp2551
g3
S'Bebe Rexha'
p2552
sg5
I25
sg6
S'https://open.spotify.com/track/1FUViuNSldssMIawrOXF2i'
p2553
sg8
S'I Got You'
p2554
ssS'3cNjgVBKTJ1SvKhunrCdVy'
p2555
(dp2556
g3
S'Joel Adams'
p2557
sg5
I7
sg6
S'https://open.spotify.com/track/3cNjgVBKTJ1SvKhunrCdVy'
p2558
sg8
S"Please Don't Go"
p2559
ssS'4HN2lu14JqrBVT1OYinP8f'
p2560
(dp2561
g3
S'Roy Kim'
p2562
sg5
I4
sg6
S'https://open.spotify.com/track/4HN2lu14JqrBVT1OYinP8f'
p2563
sg8
S'HEAVEN'
p2564
ssS'6OuV4vfyb8v3vGGGksqyKf'
p2565
(dp2566
g3
S'AJR'
p2567
sg5
I2
sg6
S'https://open.spotify.com/track/6OuV4vfyb8v3vGGGksqyKf'
p2568
sg8
S'Weak'
p2569
ssS'4Q4jmPHwu0wrJvqrld0FQ6'
p2570
(dp2571
g3
S'Zara Larsson'
p2572
sg5
I10
sg6
S'https://open.spotify.com/track/4Q4jmPHwu0wrJvqrld0FQ6'
p2573
sg8
S'I Would Like'
p2574
ssS'6KjbNLbRjuoa8rEq5yNA6H'
p2575
(dp2576
g3
S'The Chainsmokers'
p2577
sg5
I1
sg6
S'https://open.spotify.com/track/6KjbNLbRjuoa8rEq5yNA6H'
p2578
sg8
S'Honest'
p2579
ssS'5y69gQtK33qxb8a24ACkCy'
p2580
(dp2581
g3
S'Vanessa Carlton'
p2582
sg5
I5
sg6
S'https://open.spotify.com/track/5y69gQtK33qxb8a24ACkCy'
p2583
sg8
S'A Thousand Miles'
p2584
ssS'74SXA9SsaHeOXyg3NxRymf'
p2585
(dp2586
g3
S'Rahimah Rahim'
p2587
sg5
I3
sg6
S'https://open.spotify.com/track/74SXA9SsaHeOXyg3NxRymf'
p2588
sg8
S'Selamat Berhari Raya'
p2589
ssS'7yyRTcZmCiyzzJlNzGC9Ol'
p2590
(dp2591
g3
S'DRAM'
p2592
sg5
I4
sg6
S'https://open.spotify.com/track/7yyRTcZmCiyzzJlNzGC9Ol'
p2593
sg8
S'Broccoli (feat. Lil Yachty)'
p2594
ssS'2Fjz5ZC5BvFdCqcnTZ3ilH'
p2595
(dp2596
g3
S'Alan Walker'
p2597
sg5
I14
sg6
S'https://open.spotify.com/track/2Fjz5ZC5BvFdCqcnTZ3ilH'
p2598
sg8
S'Sing Me to Sleep'
p2599
ssS'2USirghp480Q3cSqLiFxYj'
p2600
(dp2601
g3
S'Rosemaria'
p2602
sg5
I1
sg6
S'https://open.spotify.com/track/2USirghp480Q3cSqLiFxYj'
p2603
sg8
S'Di Pagi Aidilfitri'
p2604
ssS'15nIx1HCO08Vml6YYJn17s'
p2605
(dp2606
g3
S'Syamel'
p2607
sg5
I42
sg6
S'https://open.spotify.com/track/15nIx1HCO08Vml6YYJn17s'
p2608
sg8
S'Lebih Sempurna'
p2609
ssS'0Xa7b1Kw7I08dD2k7zZKtV'
p2610
(dp2611
g3
S'Anjulie'
p2612
sg5
I15
sg6
S'https://open.spotify.com/track/0Xa7b1Kw7I08dD2k7zZKtV'
p2613
sg8
S'Where The Love Goes'
p2614
ssS'5Z6DLYbekZkL8OvH54S4n0'
p2615
(dp2616
g3
S'Boyzone'
p2617
sg5
I25
sg6
S'https://open.spotify.com/track/5Z6DLYbekZkL8OvH54S4n0'
p2618
sg8
S'When You Say Nothing At All'
p2619
ssS'2771LMNxwf62FTAdpJMQfM'
p2620
(dp2621
g3
S'Cardi B'
p2622
sg5
I8
sg6
S'https://open.spotify.com/track/2771LMNxwf62FTAdpJMQfM'
p2623
sg8
S'Bodak Yellow'
p2624
ssS'1wjzFQodRWrPcQ0AnYnvQ9'
p2625
(dp2626
g3
S'Lauv'
p2627
sg5
I21
sg6
S'https://open.spotify.com/track/1wjzFQodRWrPcQ0AnYnvQ9'
p2628
sg8
S'I Like Me Better'
p2629
ssS'7rLvsAO1yb7ElxPhkz60qh'
p2630
(dp2631
g3
S'CHEN'
p2632
sg5
I3
sg6
S'https://open.spotify.com/track/7rLvsAO1yb7ElxPhkz60qh'
p2633
sg8
S'For You'
p2634
ssS'6PCUP3dWmTjcTtXY02oFdT'
p2635
(dp2636
g3
S'Ed Sheeran'
p2637
sg5
I36
sg6
S'https://open.spotify.com/track/6PCUP3dWmTjcTtXY02oFdT'
p2638
sg8
S'Castle on the Hill'
p2639
ssS'57p8CBvPOxrvyCbn6ttl5r'
p2640
(dp2641
g3
S'Skrillex'
p2642
sg5
I8
sg6
S'https://open.spotify.com/track/57p8CBvPOxrvyCbn6ttl5r'
p2643
sg8
S'Would You Ever'
p2644
ssS'6SwRhMLwNqEi6alNPVG00n'
p2645
(dp2646
g3
S'Kendrick Lamar'
p2647
sg5
I4
sg6
S'https://open.spotify.com/track/6SwRhMLwNqEi6alNPVG00n'
p2648
sg8
S'LOYALTY. FEAT. RIHANNA.'
p2649
ssS'51PIvodunv6NmX5250zxAh'
p2650
(dp2651
g3
S'Lady Gaga'
p2652
sg5
I26
sg6
S'https://open.spotify.com/track/51PIvodunv6NmX5250zxAh'
p2653
sg8
S'The Cure'
p2654
ssS'5LABCxgmP7DATATIJXOh6n'
p2655
(dp2656
g3
S'Harry Styles'
p2657
sg5
I1
sg6
S'https://open.spotify.com/track/5LABCxgmP7DATATIJXOh6n'
p2658
sg8
S'Ever Since New York'
p2659
ssS'5pvVAwQbuFoR7LkcicrKnk'
p2660
(dp2661
g3
S'Vice'
p2662
sg5
I7
sg6
S'https://open.spotify.com/track/5pvVAwQbuFoR7LkcicrKnk'
p2663
sg8
S'Obsession (feat. Jon Bellion)'
p2664
ssS'104buTcnP2AsxqB7U1FIZ4'
p2665
(dp2666
g3
S'Linkin Park'
p2667
sg5
I34
sg6
S'https://open.spotify.com/track/104buTcnP2AsxqB7U1FIZ4'
p2668
sg8
S'Heavy (feat. Kiiara)'
p2669
ssS'7wBrglFVTNCcW6IhdgBkm1'
p2670
(dp2671
g3
S'Coldplay'
p2672
sg5
I1
sg6
S'https://open.spotify.com/track/7wBrglFVTNCcW6IhdgBkm1'
p2673
sg8
S'Paradise'
p2674
ssS'0CcQNd8CINkwQfe1RDtGV6'
p2675
(dp2676
g3
S'Imagine Dragons'
p2677
sg5
I33
sg6
S'https://open.spotify.com/track/0CcQNd8CINkwQfe1RDtGV6'
p2678
sg8
S'Believer'
p2679
ssS'650OeHTLxZAQmb4aEbGmaA'
p2680
(dp2681
g3
S'Linkin Park'
p2682
sg5
I2
sg6
S'https://open.spotify.com/track/650OeHTLxZAQmb4aEbGmaA'
p2683
sg8
S'Good Goodbye (feat. Pusha T and Stormzy)'
p2684
ssS'1PSBzsahR2AKwLJgx8ehBj'
p2685
(dp2686
g3
S'Machine Gun Kelly'
p2687
sg5
I39
sg6
S'https://open.spotify.com/track/1PSBzsahR2AKwLJgx8ehBj'
p2688
sg8
S'Bad Things (with Camila Cabello)'
p2689
ssS'53mrVsi49rLHIaKBiSvElG'
p2690
(dp2691
g3
S'blackbear'
p2692
sg5
I4
sg6
S'https://open.spotify.com/track/53mrVsi49rLHIaKBiSvElG'
p2693
sg8
S'do re mi (feat. Gucci Mane)'
p2694
ssS'2ujA6F1cpk3m8lsPE5aKua'
p2695
(dp2696
g3
S'EXO'
p2697
sg5
I3
sg6
S'https://open.spotify.com/track/2ujA6F1cpk3m8lsPE5aKua'
p2698
sg8
S'\xec\xa0\x84\xec\x95\xbc \xe5\x89\x8d\xe5\xa4\x9c The Eve'
p2699
ssS'6KmWiz0zpYSPA56Poz0Cjb'
p2700
(dp2701
g3
S'WINNER'
p2702
sg5
I1
sg6
S'https://open.spotify.com/track/6KmWiz0zpYSPA56Poz0Cjb'
p2703
sg8
S'LOVE ME LOVE ME'
p2704
ssS'3SGWp9fJCzgK0WcpcKSQdy'
p2705
(dp2706
g3
S'Stanaj'
p2707
sg5
I9
sg6
S'https://open.spotify.com/track/3SGWp9fJCzgK0WcpcKSQdy'
p2708
sg8
S'Romantic - NOTD Remix'
p2709
ssS'7rPLZ8Krm6CZIbraFUlnWZ'
p2710
(dp2711
g3
S'Adele'
p2712
sg5
I42
sg6
S'https://open.spotify.com/track/7rPLZ8Krm6CZIbraFUlnWZ'
p2713
sg8
S'Make You Feel My Love'
p2714
ssS'1Vej0qeQ3ioKwpI6FUbRv1'
p2715
(dp2716
g3
S'Linkin Park'
p2717
sg5
I1
sg6
S'https://open.spotify.com/track/1Vej0qeQ3ioKwpI6FUbRv1'
p2718
sg8
S'Papercut'
p2719
ssS'4C5ewaZ05vyXM23jFJdwd4'
p2720
(dp2721
g3
S'Halsey'
p2722
sg5
I1
sg6
S'https://open.spotify.com/track/4C5ewaZ05vyXM23jFJdwd4'
p2723
sg8
S'Strangers'
p2724
ssS'3gfmFoJgmn9LiIj5mV8oSS'
p2725
(dp2726
g3
S'R3HAB'
p2727
sg5
I4
sg6
S'https://open.spotify.com/track/3gfmFoJgmn9LiIj5mV8oSS'
p2728
sg8
S"I Just Can't"
p2729
ssS'3ebXMykcMXOcLeJ9xZ17XH'
p2730
(dp2731
g3
S'Martin Garrix'
p2732
sg5
I37
sg6
S'https://open.spotify.com/track/3ebXMykcMXOcLeJ9xZ17XH'
p2733
sg8
S'Scared to Be Lonely'
p2734
ssS'6fujklziTHa8uoM5OQSfIo'
p2735
(dp2736
g3
S'Rae Sremmurd'
p2737
sg5
I11
sg6
S'https://open.spotify.com/track/6fujklziTHa8uoM5OQSfIo'
p2738
sg8
S'Black Beatles'
p2739
ssS'7KxhSJOYiqCDclXDBNlFSZ'
p2740
(dp2741
g3
S'Selena Gomez'
p2742
sg5
I4
sg6
S'https://open.spotify.com/track/7KxhSJOYiqCDclXDBNlFSZ'
p2743
sg8
S'Kill Em With Kindness'
p2744
ssS'19WjVVgXjdKXfLXoaDPwTM'
p2745
(dp2746
g3
S'Taylor Swift'
p2747
sg5
I5
sg6
S'https://open.spotify.com/track/19WjVVgXjdKXfLXoaDPwTM'
p2748
sg8
S'...Ready For It?'
p2749
ssS'7nAfXgeHfDO50upcOjJOaq'
p2750
(dp2751
g3
S'Linkin Park'
p2752
sg5
I3
sg6
S'https://open.spotify.com/track/7nAfXgeHfDO50upcOjJOaq'
p2753
sg8
S'Talking to Myself'
p2754
ssS'3PEgB3fkiojxms35ntsTgs'
p2755
(dp2756
g3
S'Axwell /\\ Ingrosso'
p2757
sg5
I11
sg6
S'https://open.spotify.com/track/3PEgB3fkiojxms35ntsTgs'
p2758
sg8
S'More Than You Know'
p2759
ssS'08RryZnYVz1OVJ5D5JP9Yu'
p2760
(dp2761
g3
S'Fazura'
p2762
sg5
I7
sg6
S'https://open.spotify.com/track/08RryZnYVz1OVJ5D5JP9Yu'
p2763
sg8
S'Cinderella - From Hero Seorang Cinderella Soundtrack'
p2764
ssS'77ngtwBosDuAwiQu8afOOQ'
p2765
(dp2766
g3
S'Tyron Hapi'
p2767
sg5
I1
sg6
S'https://open.spotify.com/track/77ngtwBosDuAwiQu8afOOQ'
p2768
sg8
S'Anyway'
p2769
ssS'4b1sQpvL7QVgamRZ74F1oA'
p2770
(dp2771
g3
S'KARD'
p2772
sg5
I7
sg6
S'https://open.spotify.com/track/4b1sQpvL7QVgamRZ74F1oA'
p2773
sg8
S"Don't Recall"
p2774
ssS'2UYG331lOP6amEWplE7eno'
p2775
(dp2776
g3
S'EXO'
p2777
sg5
I1
sg6
S'https://open.spotify.com/track/2UYG331lOP6amEWplE7eno'
p2778
sg8
S'Ko Ko Bop - Chinese Version'
p2779
ssS'22iz04Hw1tz0NBpiyoEMT1'
p2780
(dp2781
g3
S'KARD'
p2782
sg5
I2
sg6
S'https://open.spotify.com/track/22iz04Hw1tz0NBpiyoEMT1'
p2783
sg8
S'RUMOR'
p2784
ssS'5OepnJhqZoyJN8qWo2LZzy'
p2785
(dp2786
g3
S'BLACKPINK'
p2787
sg5
I5
sg6
S'https://open.spotify.com/track/5OepnJhqZoyJN8qWo2LZzy'
p2788
sg8
S'PLAYING WITH FIRE - KR Ver.'
p2789
ssS'7oLXIyY1ZUexU0zcr39Xj0'
p2790
(dp2791
g3
S'SISTAR'
p2792
sg5
I2
sg6
S'https://open.spotify.com/track/7oLXIyY1ZUexU0zcr39Xj0'
p2793
sg8
S'LONELY'
p2794
ssS'0B8B8cVRFIG1yznoQe7c9s'
p2795
(dp2796
g3
S'The Chainsmokers'
p2797
sg5
I10
sg6
S'https://open.spotify.com/track/0B8B8cVRFIG1yznoQe7c9s'
p2798
sg8
S'Setting Fires'
p2799
ssS'02WacdrRpm4zlP8H7X6bnQ'
p2800
(dp2801
g3
S'Calum Scott'
p2802
sg5
I8
sg6
S'https://open.spotify.com/track/02WacdrRpm4zlP8H7X6bnQ'
p2803
sg8
S'Dancing On My Own'
p2804
ssS'1mDGDb2fUmUMdqV3tb8VKQ'
p2805
(dp2806
g3
S'Halsey'
p2807
sg5
I1
sg6
S'https://open.spotify.com/track/1mDGDb2fUmUMdqV3tb8VKQ'
p2808
sg8
S'Now Or Never'
p2809
ssS'3njZlgsB9MI6DVTg8wDPsg'
p2810
(dp2811
g3
S'The Script'
p2812
sg5
I1
sg6
S'https://open.spotify.com/track/3njZlgsB9MI6DVTg8wDPsg'
p2813
sg8
S'Rock the World'
p2814
ssS'42NpUvd0I2kdIuMXX4nobE'
p2815
(dp2816
g3
S'Nick Jonas'
p2817
sg5
I1
sg6
S'https://open.spotify.com/track/42NpUvd0I2kdIuMXX4nobE'
p2818
sg8
S'Remember I Told You'
p2819
ssS'3NdDpSvN911VPGivFlV5d0'
p2820
(dp2821
g3
S'ZAYN'
p2822
sg5
I42
sg6
S'https://open.spotify.com/track/3NdDpSvN911VPGivFlV5d0'
p2823
sg8
S'I Don\xe2\x80\x99t Wanna Live Forever (Fifty Shades Darker) - From Fifty Shades Darker (Original Motion Picture Soundtrack)'
p2824
ssS'6OZh916QF8XNunWaP97WEZ'
p2825
(dp2826
g3
S'Jonas Blue'
p2827
sg5
I4
sg6
S'https://open.spotify.com/track/6OZh916QF8XNunWaP97WEZ'
p2828
sg8
S'Fast Car'
p2829
ssS'2rizacJSyD9S1IQUxUxnsK'
p2830
(dp2831
g3
S'The Chainsmokers'
p2832
sg5
I32
sg6
S'https://open.spotify.com/track/2rizacJSyD9S1IQUxUxnsK'
p2833
sg8
S'All We Know'
p2834
ssS'18xNemXGv4ol892A5inIs3'
p2835
(dp2836
g3
S'Aizat Amdan'
p2837
sg5
I9
sg6
S'https://open.spotify.com/track/18xNemXGv4ol892A5inIs3'
p2838
sg8
S'Jangan Menangis'
p2839
ssS'2LowwiemmGMzzNSH1PJprK'
p2840
(dp2841
g3
S'V'
p2842
sg5
I1
sg6
S'https://open.spotify.com/track/2LowwiemmGMzzNSH1PJprK'
p2843
sg8
S"It's Definitely You"
p2844
ssS'0tgVpDi06FyKpA1z0VMD4v'
p2845
(dp2846
g3
S'Ed Sheeran'
p2847
sg5
I32
sg6
S'https://open.spotify.com/track/0tgVpDi06FyKpA1z0VMD4v'
p2848
sg8
S'Perfect'
p2849
ssS'2Vdub5mY4lad7w64bFPUez'
p2850
(dp2851
g3
S'Pitbull'
p2852
sg5
I2
sg6
S'https://open.spotify.com/track/2Vdub5mY4lad7w64bFPUez'
p2853
sg8
S'Hey Ma (with Pitbull & J Balvin feat. Camila Cabello) - Spanish Version'
p2854
ssS'6cAKeFFYW2aClZSUyvqAEW'
p2855
(dp2856
g3
S'Isaiah'
p2857
sg5
I35
sg6
S'https://open.spotify.com/track/6cAKeFFYW2aClZSUyvqAEW'
p2858
sg8
S"It's Gotta Be You"
p2859
ssS'26hcyzSE154xMZCbFdtInA'
p2860
(dp2861
g3
S'KREAM'
p2862
sg5
I1
sg6
S'https://open.spotify.com/track/26hcyzSE154xMZCbFdtInA'
p2863
sg8
S'Taped Up Heart (feat. Clara Mae)'
p2864
ssS'7Lgpic8BsBJR4jFrr9abbz'
p2865
(dp2866
g3
S'Robin Schulz'
p2867
sg5
I1
sg6
S'https://open.spotify.com/track/7Lgpic8BsBJR4jFrr9abbz'
p2868
sg8
S"I Believe I'm Fine"
p2869
ssS'7jHzO2EPJzt1JgHQ80aRu0'
p2870
(dp2871
g3
S'Astrid S'
p2872
sg5
I1
sg6
S'https://open.spotify.com/track/7jHzO2EPJzt1JgHQ80aRu0'
p2873
sg8
S'Such A Boy'
p2874
ssS'1839RWzPRZCVgvamu4sHSN'
p2875
(dp2876
g3
S'Cash Cash'
p2877
sg5
I14
sg6
S'https://open.spotify.com/track/1839RWzPRZCVgvamu4sHSN'
p2878
sg8
S'All My Love (feat. Conor Maynard)'
p2879
ssS'2wDjpPW3HZdA9quPPmZAMu'
p2880
(dp2881
g3
S'Cashmere Cat'
p2882
sg5
I9
sg6
S'https://open.spotify.com/track/2wDjpPW3HZdA9quPPmZAMu'
p2883
sg8
S'Trust Nobody (feat. Selena Gomez & Tory Lanez)'
p2884
ssS'7BqBn9nzAq8spo5e7cZ0dJ'
p2885
(dp2886
g3
S'Bruno Mars'
p2887
sg5
I13
sg6
S'https://open.spotify.com/track/7BqBn9nzAq8spo5e7cZ0dJ'
p2888
sg8
S'Just the Way You Are'
p2889
ssS'79ptYtWnpAnsQutzg2xSFk'
p2890
(dp2891
g3
S'Gallant'
p2892
sg5
I1
sg6
S'https://open.spotify.com/track/79ptYtWnpAnsQutzg2xSFk'
p2893
sg8
S'Cave Me In'
p2894
ssS'0hNduWmlWmEmuwEFcYvRu1'
p2895
(dp2896
g3
S'Petit Biscuit'
p2897
sg5
I27
sg6
S'https://open.spotify.com/track/0hNduWmlWmEmuwEFcYvRu1'
p2898
sg8
S'Sunset Lover'
p2899
ssS'1x5sYLZiu9r5E43kMlt9f8'
p2900
(dp2901
g3
S'Clean Bandit'
p2902
sg5
I30
sg6
S'https://open.spotify.com/track/1x5sYLZiu9r5E43kMlt9f8'
p2903
sg8
S'Symphony (feat. Zara Larsson)'
p2904
ssS'0wwfaAYsKsIkrudfueZoB3'
p2905
(dp2906
g3
S'G-DRAGON'
p2907
sg5
I1
sg6
S'https://open.spotify.com/track/0wwfaAYsKsIkrudfueZoB3'
p2908
sg8
S'INTRO. \xea\xb6\x8c\xec\xa7\x80\xec\x9a\xa9 (Middle Fingers-Up)'
p2909
ssS'21NmnwPP8SHKyVtjvubGSs'
p2910
(dp2911
g3
S'Eric Chou'
p2912
sg5
I16
sg6
S'https://open.spotify.com/track/21NmnwPP8SHKyVtjvubGSs'
p2913
sg8
S'\xe6\xb0\xb8\xe4\xb8\x8d\xe5\xa4\xb1\xe8\x81\xaf\xe7\x9a\x84\xe6\x84\x9b [\xe5\x8e\x9f\xe5\x89\xb5\xe6\xa6\x82\xe5\xbf\xb5\xe7\x89\x88]'
p2914
ssS'34mRQFXVDXFdZz3pqddU7x'
p2915
(dp2916
g3
S'Joker Xue'
p2917
sg5
I16
sg6
S'https://open.spotify.com/track/34mRQFXVDXFdZz3pqddU7x'
p2918
sg8
S'\xe6\xbc\x94\xe5\x91\x98'
p2919
ssS'7iz4bsfPOrK9wzhXkgUfya'
p2920
(dp2921
g3
S'Katy Perry'
p2922
sg5
I1
sg6
S'https://open.spotify.com/track/7iz4bsfPOrK9wzhXkgUfya'
p2923
sg8
S'Witness'
p2924
ssS'5SE57ljOIUJ1ybL9U6CuBH'
p2925
(dp2926
g3
S'BTS'
p2927
sg5
I4
sg6
S'https://open.spotify.com/track/5SE57ljOIUJ1ybL9U6CuBH'
p2928
sg8
S'DNA'
p2929
ssS'7KXEhfjwdxHVra8VcT2QHH'
p2930
(dp2931
g3
S'BTS'
p2932
sg5
I2
sg6
S'https://open.spotify.com/track/7KXEhfjwdxHVra8VcT2QHH'
p2933
sg8
S'Skit: Billboard Music Awards Speech'
p2934
ssS'7IWkJwX9C0J7tHurTD7ViL'
p2935
(dp2936
g3
S'Adele'
p2937
sg5
I6
sg6
S'https://open.spotify.com/track/7IWkJwX9C0J7tHurTD7ViL'
p2938
sg8
S'When We Were Young'
p2939
ssS'2HzfRSfCogBSsgW2CckVA2'
p2940
(dp2941
g3
S'Luke Christopher'
p2942
sg5
I1
sg6
S'https://open.spotify.com/track/2HzfRSfCogBSsgW2CckVA2'
p2943
sg8
S'Lot to Learn'
p2944
ssS'6mb6lVLNrcUgLnEN8QnDJd'
p2945
(dp2946
g3
S"Auli'i Cravalho"
p2947
sg5
I1
sg6
S'https://open.spotify.com/track/6mb6lVLNrcUgLnEN8QnDJd'
p2948
sg8
S"How Far I'll Go"
p2949
ssS'0FDzzruyVECATHXKHFs9eJ'
p2950
(dp2951
g3
S'Coldplay'
p2952
sg5
I2
sg6
S'https://open.spotify.com/track/0FDzzruyVECATHXKHFs9eJ'
p2953
sg8
S'A Sky Full of Stars'
p2954
ssS'0tKcYR2II1VCQWT79i5NrW'
p2955
(dp2956
g3
S'Imagine Dragons'
p2957
sg5
I21
sg6
S'https://open.spotify.com/track/0tKcYR2II1VCQWT79i5NrW'
p2958
sg8
S'Thunder'
p2959
ssS'2wirimXPGpXHLX5DyoWcAb'
p2960
(dp2961
g3
S'Ara Izza'
p2962
sg5
I37
sg6
S'https://open.spotify.com/track/2wirimXPGpXHLX5DyoWcAb'
p2963
sg8
S'Warkah Untukku'
p2964
ssS'6DNtNfH8hXkqOX1sjqmI7p'
p2965
(dp2966
g3
S'Major Lazer'
p2967
sg5
I37
sg6
S'https://open.spotify.com/track/6DNtNfH8hXkqOX1sjqmI7p'
p2968
sg8
S'Cold Water (feat. Justin Bieber & M\xc3\x98)'
p2969
ssS'5NNlUMcOEOdoOIwwaWXv0k'
p2970
(dp2971
g3
S'Maroon 5'
p2972
sg5
I26
sg6
S'https://open.spotify.com/track/5NNlUMcOEOdoOIwwaWXv0k'
p2973
sg8
S'Cold'
p2974
ssS'5XQMr19TL7Mfksq9zihbOu'
p2975
(dp2976
g3
S'Chris Brown'
p2977
sg5
I5
sg6
S'https://open.spotify.com/track/5XQMr19TL7Mfksq9zihbOu'
p2978
sg8
S'Questions'
p2979
ssS'1sXUWdKx03aP9Gmzft58rt'
p2980
(dp2981
g3
S'Julia Michaels'
p2982
sg5
I27
sg6
S'https://open.spotify.com/track/1sXUWdKx03aP9Gmzft58rt'
p2983
sg8
S'Issues'
p2984
ssS'5kZDxLcbqglZ2yYXg4Mkjc'
p2985
(dp2986
g3
S'JJ Lin'
p2987
sg5
I1
sg6
S'https://open.spotify.com/track/5kZDxLcbqglZ2yYXg4Mkjc'
p2988
sg8
S'\xe9\x82\xa3\xe4\xba\x9b\xe4\xbd\xa0\xe5\xbe\x88\xe5\x86\x92\xe9\x9a\xaa\xe7\x9a\x84\xe5\xa4\xa2'
p2989
ssS'3bVbQvGVIe4n24AzyXovXh'
p2990
(dp2991
g3
g262
sg5
I1
sg6
S'https://open.spotify.com/track/3bVbQvGVIe4n24AzyXovXh'
p2992
sg8
g262
ssS'5aErufES0TkxM2HE9SrzW9'
p2993
(dp2994
g3
S'Projector Band'
p2995
sg5
I22
sg6
S'https://open.spotify.com/track/5aErufES0TkxM2HE9SrzW9'
p2996
sg8
S'Sudah Ku Tahu'
p2997
ssS'4L7Y2OAPiY2I2GndZjAs5K'
p2998
(dp2999
g3
S'Lana Del Rey'
p3000
sg5
I2
sg6
S'https://open.spotify.com/track/4L7Y2OAPiY2I2GndZjAs5K'
p3001
sg8
S'Lust For Life (with The Weeknd)'
p3002
ssS'14oOKFGuXu8DqvOe1W8vao'
p3003
(dp3004
g3
S'Katy Perry'
p3005
sg5
I1
sg6
S'https://open.spotify.com/track/14oOKFGuXu8DqvOe1W8vao'
p3006
sg8
S'Bon App\xc3\xa9tit'
p3007
ssS'4BHSjbYylfOH5WAGusDyni'
p3008
(dp3009
g3
S'Kendrick Lamar'
p3010
sg5
I1
sg6
S'https://open.spotify.com/track/4BHSjbYylfOH5WAGusDyni'
p3011
sg8
S'YAH.'
p3012
ssS'6WhzFzROw3aq3rPWjgYlxr'
p3013
(dp3014
g3
S'Kiiara'
p3015
sg5
I3
sg6
S'https://open.spotify.com/track/6WhzFzROw3aq3rPWjgYlxr'
p3016
sg8
S'Gold'
p3017
ssS'6TIU9Ehmi6dMzZK73Ym4yj'
p3018
(dp3019
g3
S'Ed Sheeran'
p3020
sg5
I4
sg6
S'https://open.spotify.com/track/6TIU9Ehmi6dMzZK73Ym4yj'
p3021
sg8
S'Save Myself'
p3022
ssS'2pJZ1v8HezrAoZ0Fhzby92'
p3023
(dp3024
g3
S'Ed Sheeran'
p3025
sg5
I7
sg6
S'https://open.spotify.com/track/2pJZ1v8HezrAoZ0Fhzby92'
p3026
sg8
S'What Do I Know?'
p3027
ssS'0KKkJNfGyhkQ5aFogxQAPU'
p3028
(dp3029
g3
S'Bruno Mars'
p3030
sg5
I42
sg6
S'https://open.spotify.com/track/0KKkJNfGyhkQ5aFogxQAPU'
p3031
sg8
S"That's What I Like"
p3032
ssS'494OU6M7NOf4ICYb4zWCf5'
p3033
(dp3034
g3
S'Maroon 5'
p3035
sg5
I1
sg6
S'https://open.spotify.com/track/494OU6M7NOf4ICYb4zWCf5'
p3036
sg8
S'Sugar'
p3037
ssS'0gbBzIqrECJOEPvQJIBFs5'
p3038
(dp3039
g3
S'Lorde'
p3040
sg5
I9
sg6
S'https://open.spotify.com/track/0gbBzIqrECJOEPvQJIBFs5'
p3041
sg8
S'Green Light'
p3042
ssS'22BH6K8RlpwNzIINvWS4Jj'
p3043
(dp3044
g3
S'Bebe Rexha'
p3045
sg5
I5
sg6
S'https://open.spotify.com/track/22BH6K8RlpwNzIINvWS4Jj'
p3046
sg8
S'(Not) The One'
p3047
ssS'0CokSRCu5hZgPxcZBaEzVE'
p3048
(dp3049
g3
S'Macklemore'
p3050
sg5
I3
sg6
S'https://open.spotify.com/track/0CokSRCu5hZgPxcZBaEzVE'
p3051
sg8
S'Glorious (feat. Skylar Grey)'
p3052
ssS'0CNjoQozZP0mB9rKVdrKGx'
p3053
(dp3054
g3
S'DNCE'
p3055
sg5
I7
sg6
S'https://open.spotify.com/track/0CNjoQozZP0mB9rKVdrKGx'
p3056
sg8
S'Toothbrush'
p3057
ssS'43ZyHQITOjhciSUUNPVRHc'
p3058
(dp3059
g3
S'Lil Pump'
p3060
sg5
I1
sg6
S'https://open.spotify.com/track/43ZyHQITOjhciSUUNPVRHc'
p3061
sg8
S'Gucci Gang'
p3062
ssS'2habSXqcJGExM6JJyskY7O'
p3063
(dp3064
g3
S'Miley Cyrus'
p3065
sg5
I10
sg6
S'https://open.spotify.com/track/2habSXqcJGExM6JJyskY7O'
p3066
sg8
S'Malibu'
p3067
ssS'5Ua3GXyHwiSfpNTMjq6m2z'
p3068
(dp3069
g3
S'Little Mix'
p3070
sg5
I28
sg6
S'https://open.spotify.com/track/5Ua3GXyHwiSfpNTMjq6m2z'
p3071
sg8
S'Touch'
p3072
ssS'6i0V12jOa3mr6uu4WYhUBr'
p3073
(dp3074
g3
S'Twenty One Pilots'
p3075
sg5
I20
sg6
S'https://open.spotify.com/track/6i0V12jOa3mr6uu4WYhUBr'
p3076
sg8
S'Heathens'
p3077
ssS'1louJpMmzEicAn7lzDalPW'
p3078
(dp3079
g3
S'Cheat Codes'
p3080
sg5
I28
sg6
S'https://open.spotify.com/track/1louJpMmzEicAn7lzDalPW'
p3081
sg8
S'No Promises (feat. Demi Lovato)'
p3082
ssS'3uB6rxXYjmMEhOVJT763S6'
p3083
(dp3084
g3
S'Matoma'
p3085
sg5
I3
sg6
S'https://open.spotify.com/track/3uB6rxXYjmMEhOVJT763S6'
p3086
sg8
S'Staying Up'
p3087
ssS'40UroIGvsMPLPBYwH8rMNA'
p3088
(dp3089
g3
S'Vice'
p3090
sg5
I7
sg6
S'https://open.spotify.com/track/40UroIGvsMPLPBYwH8rMNA'
p3091
sg8
S'Steady 1234 (feat. Jasmine Thompson & Skizzy Mars)'
p3092
ssS'5nA67Y0XX9JipZwYxX7Gl7'
p3093
(dp3094
g3
S'Niall Horan'
p3095
sg5
I42
sg6
S'https://open.spotify.com/track/5nA67Y0XX9JipZwYxX7Gl7'
p3096
sg8
S'This Town'
p3097
ssS'02q0ZnV2L4XByzEvWZJqBC'
p3098
(dp3099
g3
S'BTS'
p3100
sg5
I29
sg6
S'https://open.spotify.com/track/02q0ZnV2L4XByzEvWZJqBC'
p3101
sg8
S'Spring Day'
p3102
ssS'5153LWKMJiMNIRCChGN4Ja'
p3103
(dp3104
g3
S'Mike Perry'
p3105
sg5
I7
sg6
S'https://open.spotify.com/track/5153LWKMJiMNIRCChGN4Ja'
p3106
sg8
S'Hands'
p3107
ssS'3q53gnoVjNX355kn0PjoUp'
p3108
(dp3109
g3
S'Dato Siti Nurhaliza'
p3110
sg5
I1
sg6
S'https://open.spotify.com/track/3q53gnoVjNX355kn0PjoUp'
p3111
sg8
S'Segala Perasaan'
p3112
ssS'7LmFgyIHlXRqjDOt68RQoQ'
p3113
(dp3114
g3
S'Aska Yang'
p3115
sg5
I3
sg6
S'https://open.spotify.com/track/7LmFgyIHlXRqjDOt68RQoQ'
p3116
sg8
S'\xe5\x87\x89\xe5\x87\x89 - \xe9\x9b\xbb\xe8\xa6\x96\xe5\x8a\x87\xe3\x80\x8a\xe4\xb8\x89\xe7\x94\x9f\xe4\xb8\x89\xe4\xb8\x96\xe5\x8d\x81\xe9\x87\x8c\xe6\xa1\x83\xe8\x8a\xb1\xe3\x80\x8b\xe7\x89\x87\xe5\xb0\xbe\xe6\x9b\xb2'
p3117
ssS'1R17cgUv6HeQFa78dzqb7s'
p3118
(dp3119
g3
S'Justin Hurwitz'
p3120
sg5
I2
sg6
S'https://open.spotify.com/track/1R17cgUv6HeQFa78dzqb7s'
p3121
sg8
S'Mia & Sebastian\xe2\x80\x99s Theme - From La La Land Soundtrack'
p3122
ssS'6fxVffaTuwjgEk5h9QyRjy'
p3123
(dp3124
g3
S'Ed Sheeran'
p3125
sg5
I42
sg6
S'https://open.spotify.com/track/6fxVffaTuwjgEk5h9QyRjy'
p3126
sg8
S'Photograph'
p3127
ssS'0w5Bdu51Ka25Pf3hojsKHh'
p3128
(dp3129
g3
S'Paramore'
p3130
sg5
I3
sg6
S'https://open.spotify.com/track/0w5Bdu51Ka25Pf3hojsKHh'
p3131
sg8
S'Hard Times'
p3132
ssS'7vCNi9mpNQCB8BPsja8U76'
p3133
(dp3134
g3
S'Fazidah Joned'
p3135
sg5
I3
sg6
S'https://open.spotify.com/track/7vCNi9mpNQCB8BPsja8U76'
p3136
sg8
S'Selamat hari raya'
p3137
ssS'1WP1r7fuvRqZRnUaTi2I1Q'
p3138
(dp3139
g3
S'Shawn Mendes'
p3140
sg5
I13
sg6
S'https://open.spotify.com/track/1WP1r7fuvRqZRnUaTi2I1Q'
p3141
sg8
S'Stitches'
p3142
ssS'6n8TMVyFKoUmDc4apxceRD'
p3143
(dp3144
g3
S'Linkin Park'
p3145
sg5
I1
sg6
S'https://open.spotify.com/track/6n8TMVyFKoUmDc4apxceRD'
p3146
sg8
S'Breaking The Habit'
p3147
ssS'1VdZ0vKfR5jneCmWIUAMxK'
p3148
(dp3149
g3
S'Ed Sheeran'
p3150
sg5
I1
sg6
S'https://open.spotify.com/track/1VdZ0vKfR5jneCmWIUAMxK'
p3151
sg8
S'The A Team'
p3152
ssS'7xE4vKvjqUTtHyJ9zi0k1q'
p3153
(dp3154
g3
S'Emma Stone'
p3155
sg5
I1
sg6
S'https://open.spotify.com/track/7xE4vKvjqUTtHyJ9zi0k1q'
p3156
sg8
S'Someone In The Crowd - From La La Land Soundtrack'
p3157
ssS'6nxQdXa1uAL0rY72wPZu89'
p3158
(dp3159
g3
S'John Legend'
p3160
sg5
I10
sg6
S'https://open.spotify.com/track/6nxQdXa1uAL0rY72wPZu89'
p3161
sg8
S'Love Me Now'
p3162
ssS'1IMsCuONQDaYYrgt4ehMbI'
p3163
(dp3164
g3
S'Anuar & Ellina'
p3165
sg5
I3
sg6
S'https://open.spotify.com/track/1IMsCuONQDaYYrgt4ehMbI'
p3166
sg8
S'Suasana Hari Raya'
p3167
ssS'6kex4EBAj0WHXDKZMEJaaF'
p3168
(dp3169
g3
S'Jason Derulo'
p3170
sg5
I31
sg6
S'https://open.spotify.com/track/6kex4EBAj0WHXDKZMEJaaF'
p3171
sg8
S'Swalla (feat. Nicki Minaj & Ty Dolla $ign)'
p3172
ssS'23pbkFDEBcmsaGkDqW2iDC'
p3173
(dp3174
g3
S'Elizabeth Tan'
p3175
sg5
I2
sg6
S'https://open.spotify.com/track/23pbkFDEBcmsaGkDqW2iDC'
p3176
sg8
S'Setia (feat. Faizal Tahir)'
p3177
ssS'3sJHkcxojoJD2Ytbo1yLLF'
p3178
(dp3179
g3
S'Moon Taxi'
p3180
sg5
I1
sg6
S'https://open.spotify.com/track/3sJHkcxojoJD2Ytbo1yLLF'
p3181
sg8
S'Two High'
p3182
ssS'6OocN63GLU7NF0wHdewhID'
p3183
(dp3184
g3
S'Linkin Park'
p3185
sg5
I1
sg6
S'https://open.spotify.com/track/6OocN63GLU7NF0wHdewhID'
p3186
sg8
S'Invisible'
p3187
ssS'1Slwb6dOYkBlWal1PGtnNg'
p3188
(dp3189
g3
S'Ed Sheeran'
p3190
sg5
I42
sg6
S'https://open.spotify.com/track/1Slwb6dOYkBlWal1PGtnNg'
p3191
sg8
S'Thinking Out Loud'
p3192
ssS'1cKm6kQLMhc7N3mHS238fk'
p3193
(dp3194
g3
S'Isyana Sarasvati'
p3195
sg5
I7
sg6
S'https://open.spotify.com/track/1cKm6kQLMhc7N3mHS238fk'
p3196
sg8
S'Tetap Dalam Jiwa'
p3197
ssS'08WPvDEsHvTFuB9w8tC2OS'
p3198
(dp3199
g3
S'Sage The Gemini'
p3200
sg5
I1
sg6
S'https://open.spotify.com/track/08WPvDEsHvTFuB9w8tC2OS'
p3201
sg8
S'Now and Later'
p3202
ssS'1H2qNVjNn13tlpKv6MtiYn'
p3203
(dp3204
g3
S'WINNER'
p3205
sg5
I9
sg6
S'https://open.spotify.com/track/1H2qNVjNn13tlpKv6MtiYn'
p3206
sg8
S'REALLY REALLY'
p3207
ssS'4ZJPwET9Jrgpkqi4Vo3Yg8'
p3208
(dp3209
g3
S'Bebe Rexha'
p3210
sg5
I7
sg6
S'https://open.spotify.com/track/4ZJPwET9Jrgpkqi4Vo3Yg8'
p3211
sg8
S'Bad Bitch (feat. Ty Dolla $ign)'
p3212
ssS'6Gn02ZC8juXwQ10Xk7ACXx'
p3213
(dp3214
g3
S'Hoobastank'
p3215
sg5
I40
sg6
S'https://open.spotify.com/track/6Gn02ZC8juXwQ10Xk7ACXx'
p3216
sg8
S'The Reason'
p3217
ssS'1CSceRZ3QvI4JczMF1PAil'
p3218
(dp3219
g3
S'2NE1'
p3220
sg5
I3
sg6
S'https://open.spotify.com/track/1CSceRZ3QvI4JczMF1PAil'
p3221
sg8
S'Goodbye'
p3222
ssS'2Ae5awwKvQpTBKQHr1TYCg'
p3223
(dp3224
g3
S'Nause'
p3225
sg5
I1
sg6
S'https://open.spotify.com/track/2Ae5awwKvQpTBKQHr1TYCg'
p3226
sg8
S'Dynamite (feat. Pretty Sister)'
p3227
ssS'1KvyBpAxgllKW7bQb0GYCR'
p3228
(dp3229
g3
S'Linkin Park'
p3230
sg5
I1
sg6
S'https://open.spotify.com/track/1KvyBpAxgllKW7bQb0GYCR'
p3231
sg8
S'Halfway Right'
p3232
ssS'1cPfKp9ThNZ1fez9itmUMN'
p3233
(dp3234
g3
S'Emma Watson'
p3235
sg5
I1
sg6
S'https://open.spotify.com/track/1cPfKp9ThNZ1fez9itmUMN'
p3236
sg8
S'Belle'
p3237
ssS'1jYiIOC5d6soxkJP81fxq2'
p3238
(dp3239
g3
S'DJ Khaled'
p3240
sg5
I1
sg6
S'https://open.spotify.com/track/1jYiIOC5d6soxkJP81fxq2'
p3241
sg8
S"I'm the One"
p3242
ssS'1wDfQ3eLZb51M8jCkNwbyx'
p3243
(dp3244
g3
S'Daya'
p3245
sg5
I4
sg6
S'https://open.spotify.com/track/1wDfQ3eLZb51M8jCkNwbyx'
p3246
sg8
S'Words'
p3247
ssS'6Na5uKk5SsqZimk0hAWo8y'
p3248
(dp3249
g3
S'Drake'
p3250
sg5
I2
sg6
S'https://open.spotify.com/track/6Na5uKk5SsqZimk0hAWo8y'
p3251
sg8
S'Signs'
p3252
ssS'74ODGXs4byLTRdnKGM4s6E'
p3253
(dp3254
g3
S'LANY'
p3255
sg5
I15
sg6
S'https://open.spotify.com/track/74ODGXs4byLTRdnKGM4s6E'
p3256
sg8
S'Super Far'
p3257
ssS'0n2bvWvMwr0gbjcuTm92eW'
p3258
(dp3259
g3
S'Lana Del Rey'
p3260
sg5
I4
sg6
S'https://open.spotify.com/track/0n2bvWvMwr0gbjcuTm92eW'
p3261
sg8
S'Love'
p3262
ssS'1hqDHz3JOIMSVxW9pXoRiV'
p3263
(dp3264
g3
S'Uji Rashid'
p3265
sg5
I3
sg6
S'https://open.spotify.com/track/1hqDHz3JOIMSVxW9pXoRiV'
p3266
sg8
S'Seloka Hari Raya'
p3267
ssS'3AsAuGTaDQzavZZThyYlop'
p3268
(dp3269
g3
S'NEIKED'
p3270
sg5
I2
sg6
S'https://open.spotify.com/track/3AsAuGTaDQzavZZThyYlop'
p3271
sg8
S'Sexual'
p3272
ssS'3Lfiu5sZ4M4B6JaKMBc0FU'
p3273
(dp3274
g3
S'Ed Sheeran'
p3275
sg5
I4
sg6
S'https://open.spotify.com/track/3Lfiu5sZ4M4B6JaKMBc0FU'
p3276
sg8
S'Barcelona'
p3277
ssS'2qLUgEnhkYb6yBH0vaYg1y'
p3278
(dp3279
g3
S'The Vamps'
p3280
sg5
I2
sg6
S'https://open.spotify.com/track/2qLUgEnhkYb6yBH0vaYg1y'
p3281
sg8
S'Middle Of The Night'
p3282
ssS'528CbND0yjvLamijkYdrMH'
p3283
(dp3284
g3
S'P. Ramlee'
p3285
sg5
I3
sg6
S'https://open.spotify.com/track/528CbND0yjvLamijkYdrMH'
p3286
sg8
S'Dendang Perantau'
p3287
ssS'4kfm1uI9QGaoN9qm6CkAMn'
p3288
(dp3289
g3
S'Linkin Park'
p3290
sg5
I3
sg6
S'https://open.spotify.com/track/4kfm1uI9QGaoN9qm6CkAMn'
p3291
sg8
S"What I've Done"
p3292
ssS'69bp2EbF7Q2rqc5N3ylezZ'
p3293
(dp3294
g3
S'Justin Bieber'
p3295
sg5
I11
sg6
S'https://open.spotify.com/track/69bp2EbF7Q2rqc5N3ylezZ'
p3296
sg8
S'Sorry'
p3297
ssS'6Rp7udnk6KsyeRLahxLc7D'
p3298
(dp3299
g3
S'Tajul'
p3300
sg5
I41
sg6
S'https://open.spotify.com/track/6Rp7udnk6KsyeRLahxLc7D'
p3301
sg8
S'Sedalam-Dalam Rindu'
p3302
ssS'04CttTezSnv71USiiG9mIo'
p3303
(dp3304
g3
S'Hearts & Colors'
p3305
sg5
I11
sg6
S'https://open.spotify.com/track/04CttTezSnv71USiiG9mIo'
p3306
sg8
S'Lighthouse - Andrelli Remix'
p3307
ssS'4iLqG9SeJSnt0cSPICSjxv'
p3308
(dp3309
g3
S'Charlie Puth'
p3310
sg5
I25
sg6
S'https://open.spotify.com/track/4iLqG9SeJSnt0cSPICSjxv'
p3311
sg8
S'Attention'
p3312
ssS'6RUKPb4LETWmmr3iAEQktW'
p3313
(dp3314
g3
S'The Chainsmokers'
p3315
sg5
I34
sg6
S'https://open.spotify.com/track/6RUKPb4LETWmmr3iAEQktW'
p3316
sg8
S'Something Just Like This'
p3317
ssS'3FQCJI2t5LTbsRPfYVBSVB'
p3318
(dp3319
g3
S'Linkin Park'
p3320
sg5
I4
sg6
S'https://open.spotify.com/track/3FQCJI2t5LTbsRPfYVBSVB'
p3321
sg8
S'Battle Symphony'
p3322
ssS'0VhgEqMTNZwYL1ARDLLNCX'
p3323
(dp3324
g3
S'James Arthur'
p3325
sg5
I19
sg6
S'https://open.spotify.com/track/0VhgEqMTNZwYL1ARDLLNCX'
p3326
sg8
S'Can I Be Him'
p3327
ssS'2CPqh63wRVscbceKcPxwvv'
p3328
(dp3329
g3
S'Mike Perry'
p3330
sg5
I30
sg6
S'https://open.spotify.com/track/2CPqh63wRVscbceKcPxwvv'
p3331
sg8
S'The Ocean'
p3332
ssS'5abwHwUhywLGNli5NDcEN7'
p3333
(dp3334
g3
S'Thomas Gold'
p3335
sg5
I4
sg6
S'https://open.spotify.com/track/5abwHwUhywLGNli5NDcEN7'
p3336
sg8
S'Magic'
p3337
ssS'1Zyw2JF0WgXGCM0Op1LBdy'
p3338
(dp3339
g3
S'Ziana Zain'
p3340
sg5
I1
sg6
S'https://open.spotify.com/track/1Zyw2JF0WgXGCM0Op1LBdy'
p3341
sg8
S'Halaman Asmara'
p3342
ssS'0WNGsQ1oAuHzNTk8jivBKW'
p3343
(dp3344
g3
S'BTS'
p3345
sg5
I2
sg6
S'https://open.spotify.com/track/0WNGsQ1oAuHzNTk8jivBKW'
p3346
sg8
S'Spring Day'
p3347
ssS'3fVnlF4pGqWI9flVENcT28'
p3348
(dp3349
g3
S'Taylor Swift'
p3350
sg5
I1
sg6
S'https://open.spotify.com/track/3fVnlF4pGqWI9flVENcT28'
p3351
sg8
S'Wildest Dreams'
p3352
ssS'1xznGGDReH1oQq0xzbwXa3'
p3353
(dp3354
g3
S'Drake'
p3355
sg5
I23
sg6
S'https://open.spotify.com/track/1xznGGDReH1oQq0xzbwXa3'
p3356
sg8
S'One Dance'
p3357
ssS'5GXAXm5YOmYT0kL5jHvYBt'
p3358
(dp3359
g3
S'The Weeknd'
p3360
sg5
I39
sg6
S'https://open.spotify.com/track/5GXAXm5YOmYT0kL5jHvYBt'
p3361
sg8
S'I Feel It Coming'
p3362
ssS'6IZvVAP7VPPnsGX6bvgkqg'
p3363
(dp3364
g3
S'Kendrick Lamar'
p3365
sg5
I1
sg6
S'https://open.spotify.com/track/6IZvVAP7VPPnsGX6bvgkqg'
p3366
sg8
S'PRIDE.'
p3367
ssS'0lMbuWUpfTWhEmOKxppEau'
p3368
(dp3369
g3
S'Calvin Harris'
p3370
sg5
I10
sg6
S'https://open.spotify.com/track/0lMbuWUpfTWhEmOKxppEau'
p3371
sg8
S'Rollin'
p3372
ssS'508hbpTQ7wclT2JDpKBUSV'
p3373
(dp3374
g3
S'Lorde'
p3375
sg5
I1
sg6
S'https://open.spotify.com/track/508hbpTQ7wclT2JDpKBUSV'
p3376
sg8
S'Perfect Places'
p3377
ssS'7dhr1r6OWHxrpvrdHxfe1n'
p3378
(dp3379
g3
S'BIGBANG'
p3380
sg5
I16
sg6
S'https://open.spotify.com/track/7dhr1r6OWHxrpvrdHxfe1n'
p3381
sg8
S'LAST DANCE'
p3382
ssS'3l8yQMdniG6Os8gUBNXV57'
p3383
(dp3384
g3
S'BTS'
p3385
sg5
I3
sg6
S'https://open.spotify.com/track/3l8yQMdniG6Os8gUBNXV57'
p3386
sg8
S'Outro: Her'
p3387
ssS'0vBUsN3rew8OjgowVwykOn'
p3388
(dp3389
g3
S'TAEYANG'
p3390
sg5
I1
sg6
S'https://open.spotify.com/track/0vBUsN3rew8OjgowVwykOn'
p3391
sg8
S'WAKE ME UP'
p3392
ssS'78MSBwceqOJ756bin6exzb'
p3393
(dp3394
g3
S'Aishah'
p3395
sg5
I2
sg6
S'https://open.spotify.com/track/78MSBwceqOJ756bin6exzb'
p3396
sg8
S'Pulanglah'
p3397
ssS'51ChrwmUPDJvedPQnIU8Ls'
p3398
(dp3399
g3
S'Ed Sheeran'
p3400
sg5
I31
sg6
S'https://open.spotify.com/track/51ChrwmUPDJvedPQnIU8Ls'
p3401
sg8
S'Dive'
p3402
ssS'4B1rpPmQXwj78wk6aIGwwU'
p3403
(dp3404
g3
S'Harry Styles'
p3405
sg5
I1
sg6
S'https://open.spotify.com/track/4B1rpPmQXwj78wk6aIGwwU'
p3406
sg8
S'Two Ghosts'
p3407
ssS'6jA8HL9i4QGzsj6fjoxp8Y'
p3408
(dp3409
g3
S'Martin Garrix'
p3410
sg5
I20
sg6
S'https://open.spotify.com/track/6jA8HL9i4QGzsj6fjoxp8Y'
p3411
sg8
S'There for You'
p3412
ssS'0ijBacNDauU0AJEhz6ytM0'
p3413
(dp3414
g3
S'Atmosfera'
p3415
sg5
I30
sg6
S'https://open.spotify.com/track/0ijBacNDauU0AJEhz6ytM0'
p3416
sg8
S'Berakhirlah Sudah'
p3417
ssS'1CUVN2kn7mW5FjkqXTR2W1'
p3418
(dp3419
g3
S'Jonas Blue'
p3420
sg5
I17
sg6
S'https://open.spotify.com/track/1CUVN2kn7mW5FjkqXTR2W1'
p3421
sg8
S'Perfect Strangers'
p3422
ssS'0SGkqnVQo9KPytSri1H6cF'
p3423
(dp3424
g3
S'Big Sean'
p3425
sg5
I11
sg6
S'https://open.spotify.com/track/0SGkqnVQo9KPytSri1H6cF'
p3426
sg8
S'Bounce Back'
p3427
ssS'7nKBxz47S9SD79N086fuhn'
p3428
(dp3429
g3
S'Enrique Iglesias'
p3430
sg5
I8
sg6
S'https://open.spotify.com/track/7nKBxz47S9SD79N086fuhn'
p3431
sg8
S'SUBEME LA RADIO'
p3432
ssS'27SdWb2rFzO6GWiYDBTD9j'
p3433
(dp3434
g3
S'Sia'
p3435
sg5
I30
sg6
S'https://open.spotify.com/track/27SdWb2rFzO6GWiYDBTD9j'
p3436
sg8
S'Cheap Thrills'
p3437
ssS'3vgNmjuRDnGLxUFGCLkwpm'
p3438
(dp3439
g3
S'David Guetta'
p3440
sg5
I1
sg6
S'https://open.spotify.com/track/3vgNmjuRDnGLxUFGCLkwpm'
p3441
sg8
S'Light My Body Up (feat. Nicki Minaj & Lil Wayne)'
p3442
ssS'5xhJmd0I15jFcEdqxfCzKk'
p3443
(dp3444
g3
S'The Chainsmokers'
p3445
sg5
I1
sg6
S'https://open.spotify.com/track/5xhJmd0I15jFcEdqxfCzKk'
p3446
sg8
S"It Won't Kill Ya"
p3447
ssS'5dQJKDx0x73seZbwSORa1T'
p3448
(dp3449
g3
S'The Vamps'
p3450
sg5
I10
sg6
S'https://open.spotify.com/track/5dQJKDx0x73seZbwSORa1T'
p3451
sg8
S'Middle Of The Night'
p3452
ssS'6PJ8FF6UR8FZXfEvpHkIVN'
p3453
(dp3454
g3
S'Ed Sheeran'
p3455
sg5
I16
sg6
S'https://open.spotify.com/track/6PJ8FF6UR8FZXfEvpHkIVN'
p3456
sg8
S'How Would You Feel (Paean)'
p3457
ssS'5ndfVSDyPq90jaIUhNPeby'
p3458
(dp3459
g3
S'Katy Perry'
p3460
sg5
I2
sg6
S'https://open.spotify.com/track/5ndfVSDyPq90jaIUhNPeby'
p3461
sg8
S'Chained To The Rhythm'
p3462
ssS'5uCax9HTNlzGybIStD3vDh'
p3463
(dp3464
g3
S'James Arthur'
p3465
sg5
I42
sg6
S'https://open.spotify.com/track/5uCax9HTNlzGybIStD3vDh'
p3466
sg8
S"Say You Won't Let Go"
p3467
ssS'7qiZfU4dY1lWllzX7mPBI3'
p3468
(dp3469
g3
S'Ed Sheeran'
p3470
sg5
I40
sg6
S'https://open.spotify.com/track/7qiZfU4dY1lWllzX7mPBI3'
p3471
sg8
S'Shape of You'
p3472
ssS'6LOCAhFzZiavHcLJucLuDy'
p3473
(dp3474
g3
S'DJ Khaled'
p3475
sg5
I1
sg6
S'https://open.spotify.com/track/6LOCAhFzZiavHcLJucLuDy'
p3476
sg8
S"Don't Quit"
p3477
ssS'6CUBgX8bXC5YQCkdgRHqyg'
p3478
(dp3479
g3
S'blackbear'
p3480
sg5
I2
sg6
S'https://open.spotify.com/track/6CUBgX8bXC5YQCkdgRHqyg'
p3481
sg8
S'do re mi'
p3482
ssS'0wfbD5rAksdXUzRvMfM3x5'
p3483
(dp3484
g3
S'The Chainsmokers'
p3485
sg5
I20
sg6
S'https://open.spotify.com/track/0wfbD5rAksdXUzRvMfM3x5'
p3486
sg8
S'The One'
p3487
ssS'0q75NwOoFiARAVp4EXU4Bs'
p3488
(dp3489
g3
S'SZA'
p3490
sg5
I11
sg6
S'https://open.spotify.com/track/0q75NwOoFiARAVp4EXU4Bs'
p3491
sg8
S'Love Galore'
p3492
ssS'2fQrGHiQOvpL9UgPvtYy6G'
p3493
(dp3494
g3
S'21 Savage'
p3495
sg5
I3
sg6
S'https://open.spotify.com/track/2fQrGHiQOvpL9UgPvtYy6G'
p3496
sg8
S'Bank Account'
p3497
ssS'1yFiaFeSLpw4nDYTeErRZ6'
p3498
(dp3499
g3
S'Linkin Park'
p3500
sg5
I2
sg6
S'https://open.spotify.com/track/1yFiaFeSLpw4nDYTeErRZ6'
p3501
sg8
S'Leave Out All The Rest'
p3502
ssS'7fwXWKdDNI5IutOMc5OKYw'
p3503
(dp3504
g3
S'J Balvin'
p3505
sg5
I2
sg6
S'https://open.spotify.com/track/7fwXWKdDNI5IutOMc5OKYw'
p3506
sg8
S'Mi Gente (feat. Beyonc\xc3\xa9)'
p3507
ssS'6onmVm6olVzkZlhhB7vJTS'
p3508
(dp3509
g3
S'Mamat'
p3510
sg5
I1
sg6
S'https://open.spotify.com/track/6onmVm6olVzkZlhhB7vJTS'
p3511
sg8
S'Ku Pohon Restu Ayah & Ibu'
p3512
ssS'2FiSTH0GYpIioUgjfzMIja'
p3513
(dp3514
g3
S'Kygo'
p3515
sg5
I2
sg6
S'https://open.spotify.com/track/2FiSTH0GYpIioUgjfzMIja'
p3516
sg8
S'Stay'
p3517
ssS'1F2HXIJrE2Xn81OzT2zZvW'
p3518
(dp3519
g3
S'French Montana'
p3520
sg5
I10
sg6
S'https://open.spotify.com/track/1F2HXIJrE2Xn81OzT2zZvW'
p3521
sg8
S'Unforgettable'
p3522
ssS'5ZnJsoJGkQ5K15W7Rcr5JO'
p3523
(dp3524
g3
S'Little Mix'
p3525
sg5
I1
sg6
S'https://open.spotify.com/track/5ZnJsoJGkQ5K15W7Rcr5JO'
p3526
sg8
S'No More Sad Songs (feat. Machine Gun Kelly)'
p3527
ssS'7jltqRIyxLXBDNZ1QlmnBp'
p3528
(dp3529
g3
S'Ryan Gosling'
p3530
sg5
I1
sg6
S'https://open.spotify.com/track/7jltqRIyxLXBDNZ1QlmnBp'
p3531
sg8
S'City Of Stars - From La La Land Soundtrack/Pier'
p3532
ssS'78rIJddV4X0HkNAInEcYde'
p3533
(dp3534
g3
S'Starley'
p3535
sg5
I30
sg6
S'https://open.spotify.com/track/78rIJddV4X0HkNAInEcYde'
p3536
sg8
S'Call On Me - Ryan Riback Extended Remix'
p3537
ssS'0L7loeTIg6akW84aEQZpCT'
p3538
(dp3539
g3
S'Major Lazer'
p3540
sg5
I5
sg6
S'https://open.spotify.com/track/0L7loeTIg6akW84aEQZpCT'
p3541
sg8
S'Light It Up (feat. Nyla & Fuse ODG) - Remix'
p3542
ssS'4Q5yMlwAfAoitqg4r9oZHN'
p3543
(dp3544
g3
S'Cashmere Cat'
p3545
sg5
I11
sg6
S'https://open.spotify.com/track/4Q5yMlwAfAoitqg4r9oZHN'
p3546
sg8
S'Quit (feat. Ariana Grande)'
p3547
ssS'2AYjPlGkQx6NDxdx7csmIT'
p3548
(dp3549
g3
S"As'ad Motawh"
p3550
sg5
I8
sg6
S'https://open.spotify.com/track/2AYjPlGkQx6NDxdx7csmIT'
p3551
sg8
S'Senyum'
p3552
ssS'1Bqxj0aH5KewYHKUg1IdrF'
p3553
(dp3554
g3
S'G-Eazy'
p3555
sg5
I9
sg6
S'https://open.spotify.com/track/1Bqxj0aH5KewYHKUg1IdrF'
p3556
sg8
S'Some Kind Of Drug'
p3557
ssS'0vxPY5zo69nPxKmmRRx2fQ'
p3558
(dp3559
g3
S'Sanisah Huri'
p3560
sg5
I2
sg6
S'https://open.spotify.com/track/0vxPY5zo69nPxKmmRRx2fQ'
p3561
sg8
S'Aidilfitri'
p3562
ssS'167NczpNbRF7oWakJaY3Hh'
p3563
(dp3564
g3
S'Niall Horan'
p3565
sg5
I23
sg6
S'https://open.spotify.com/track/167NczpNbRF7oWakJaY3Hh'
p3566
sg8
S'Slow Hands'
p3567
ssS'5RGf8qn1TBWVplLyyKUsuV'
p3568
(dp3569
g3
S'BTS'
p3570
sg5
I4
sg6
S'https://open.spotify.com/track/5RGf8qn1TBWVplLyyKUsuV'
p3571
sg8
S'Blood Sweat & Tears'
p3572
ssS'0or0gNaKAXYYCsOrpvRzAu'
p3573
(dp3574
g3
S'Lorde'
p3575
sg5
I3
sg6
S'https://open.spotify.com/track/0or0gNaKAXYYCsOrpvRzAu'
p3576
sg8
S'Liability'
p3577
ssS'10Tjxc2yoqT9BPpezRDRLh'
p3578
(dp3579
g3
S'M. Nasir'
p3580
sg5
I3
sg6
S'https://open.spotify.com/track/10Tjxc2yoqT9BPpezRDRLh'
p3581
sg8
S'Satu Hari Di Hari Raya'
p3582
ssS'3bml3e91SUxjkGHzmKUKQM'
p3583
(dp3584
g3
S'Ezad Lazim'
p3585
sg5
I24
sg6
S'https://open.spotify.com/track/3bml3e91SUxjkGHzmKUKQM'
p3586
sg8
S'Demi Cinta'
p3587
ssS'7AQim7LbvFVZJE3O8TYgf2'
p3588
(dp3589
g3
S'XXXTENTACION'
p3590
sg5
I2
sg6
S'https://open.spotify.com/track/7AQim7LbvFVZJE3O8TYgf2'
p3591
sg8
S'Fuck Love (feat. Trippie Redd)'
p3592
ssS'5dEaQCUCJIQyJs5qVZYXOC'
p3593
(dp3594
g3
S'BTS'
p3595
sg5
I1
sg6
S'https://open.spotify.com/track/5dEaQCUCJIQyJs5qVZYXOC'
p3596
sg8
S'Come Back Home'
p3597
ssS'0xG0SHshCStMEyNbNC5d4k'
p3598
(dp3599
g3
S'Julia Michaels'
p3600
sg5
I9
sg6
S'https://open.spotify.com/track/0xG0SHshCStMEyNbNC5d4k'
p3601
sg8
S'Issues'
p3602
ssS'7yHEDfrJNd0zWOfXwydNH0'
p3603
(dp3604
g3
S'Ariana Grande'
p3605
sg5
I10
sg6
S'https://open.spotify.com/track/7yHEDfrJNd0zWOfXwydNH0'
p3606
sg8
S'Into You'
p3607
ssS'1lntL1cI2UIWlxjL5QiN8g'
p3608
(dp3609
g3
S'Lauv'
p3610
sg5
I27
sg6
S'https://open.spotify.com/track/1lntL1cI2UIWlxjL5QiN8g'
p3611
sg8
S'The Other'
p3612
ssS'4QLIORoW6wqixcwpEyxoRu'
p3613
(dp3614
g3
S'Malique'
p3615
sg5
I36
sg6
S'https://open.spotify.com/track/4QLIORoW6wqixcwpEyxoRu'
p3616
sg8
S'Pejamkan Mata (feat. Dayang Nurfaizah)'
p3617
ssS'0LtVx5vsq9nfpGsWgjUin6'
p3618
(dp3619
g3
S'Ryan Gosling'
p3620
sg5
I9
sg6
S'https://open.spotify.com/track/0LtVx5vsq9nfpGsWgjUin6'
p3621
sg8
S'City Of Stars - From La La Land Soundtrack'
p3622
ssS'4jP4FpFaw7PJ1PiIf3jcr7'
p3623
(dp3624
g3
S'PSY'
p3625
sg5
I1
sg6
S'https://open.spotify.com/track/4jP4FpFaw7PJ1PiIf3jcr7'
p3626
sg8
S'I LUV IT'
p3627
ssS'5Db9VIdDsN5yu3Eu7CT0i4'
p3628
(dp3629
g3
S'Sam Smith'
p3630
sg5
I5
sg6
S'https://open.spotify.com/track/5Db9VIdDsN5yu3Eu7CT0i4'
p3631
sg8
S'Stay With Me'
p3632
ssS'4uoumbAMEMaKdtiv763jKz'
p3633
(dp3634
g3
S'Zara Larsson'
p3635
sg5
I9
sg6
S'https://open.spotify.com/track/4uoumbAMEMaKdtiv763jKz'
p3636
sg8
S'TG4M'
p3637
ssS'3zoYkqS4y2BsGVShPL2nTE'
p3638
(dp3639
g3
S'CNCO'
p3640
sg5
I8
sg6
S'https://open.spotify.com/track/3zoYkqS4y2BsGVShPL2nTE'
p3641
sg8
S'Reggaet\xc3\xb3n Lento (Remix) [CNCO & Little Mix]'
p3642
ssS'1yNyoWWWikbLhwIGWjZuDW'
p3643
(dp3644
g3
S'The Vamps'
p3645
sg5
I27
sg6
S'https://open.spotify.com/track/1yNyoWWWikbLhwIGWjZuDW'
p3646
sg8
S'All Night'
p3647
ssS'26AuyrZGzWWiYZPSd3XBIg'
p3648
(dp3649
g3
S'The Chainsmokers'
p3650
sg5
I3
sg6
S'https://open.spotify.com/track/26AuyrZGzWWiYZPSd3XBIg'
p3651
sg8
S'Bloodstream'
p3652
ssS'6O7aB5tP40IJhUyRl4FZeP'
p3653
(dp3654
g3
S'Faizal Tahir'
p3655
sg5
I2
sg6
S'https://open.spotify.com/track/6O7aB5tP40IJhUyRl4FZeP'
p3656
sg8
S'Bukan Yang Pertama'
p3657
ssS'4vb4mFvYsr2h6enhjJsq9Y'
p3658
(dp3659
g3
S'Adele'
p3660
sg5
I18
sg6
S'https://open.spotify.com/track/4vb4mFvYsr2h6enhjJsq9Y'
p3661
sg8
S'Water Under the Bridge'
p3662
ssS'2kVHAQKVtczchKctctzbtK'
p3663
(dp3664
g3
S'Katy Perry'
p3665
sg5
I7
sg6
S'https://open.spotify.com/track/2kVHAQKVtczchKctctzbtK'
p3666
sg8
S'Swish Swish'
p3667
ssS'17Fd6Yb7mSbinKG8LoWfFl'
p3668
(dp3669
g3
S'Mike Posner'
p3670
sg5
I26
sg6
S'https://open.spotify.com/track/17Fd6Yb7mSbinKG8LoWfFl'
p3671
sg8
S'I Took A Pill In Ibiza - Seeb Remix'
p3672
ssS'7zTx8ePYAmPFQuxP3xlXZn'
p3673
(dp3674
g3
S'San Holo'
p3675
sg5
I9
sg6
S'https://open.spotify.com/track/7zTx8ePYAmPFQuxP3xlXZn'
p3676
sg8
S'Light'
p3677
ssS'4tCtwWceOPWzenK2HAIJSb'
p3678
(dp3679
g3
S'Fifth Harmony'
p3680
sg5
I24
sg6
S'https://open.spotify.com/track/4tCtwWceOPWzenK2HAIJSb'
p3681
sg8
S'Work from Home'
p3682
ssS'0VqSdtXseb9khdZrnYVyM1'
p3683
(dp3684
g3
S'JJ Lin'
p3685
sg5
I11
sg6
S'https://open.spotify.com/track/0VqSdtXseb9khdZrnYVyM1'
p3686
sg8
S'\xe4\xb8\x8d\xe7\x82\xba\xe8\xaa\xb0\xe8\x80\x8c\xe4\xbd\x9c\xe7\x9a\x84\xe6\xad\x8c'
p3687
ssS'4ZE3QC5OoDJabzL4cepNtq'
p3688
(dp3689
g3
S'Aiman Tino'
p3690
sg5
I15
sg6
S'https://open.spotify.com/track/4ZE3QC5OoDJabzL4cepNtq'
p3691
sg8
S'Ku Hanya Sayang Padamu'
p3692
ssS'5nq1uTNIR1cBR72T87viS0'
p3693
(dp3694
g3
S'BTS'
p3695
sg5
I4
sg6
S'https://open.spotify.com/track/5nq1uTNIR1cBR72T87viS0'
p3696
sg8
S'Go Go'
p3697
ssS'3hB5DgAiMAQ4DzYbsMq1IT'
p3698
(dp3699
g3
S'Justin Bieber'
p3700
sg5
I42
sg6
S'https://open.spotify.com/track/3hB5DgAiMAQ4DzYbsMq1IT'
p3701
sg8
S'Love Yourself'
p3702
ssS'32OWobmyAz8J2qA8iWekyS'
p3703
(dp3704
g3
S'Justin Bieber'
p3705
sg5
I1
sg6
S'https://open.spotify.com/track/32OWobmyAz8J2qA8iWekyS'
p3706
sg8
S'Mistletoe'
p3707
ssS'6XOYVSmNDjKUNMXooU4s4z'
p3708
(dp3709
g3
S'OneRepublic'
p3710
sg5
I10
sg6
S'https://open.spotify.com/track/6XOYVSmNDjKUNMXooU4s4z'
p3711
sg8
S'No Vacancy'
p3712
ssS'5qXFbBlIF1lI7uV6hozzXQ'
p3713
(dp3714
g3
S'Aiman Tino'
p3715
sg5
I16
sg6
S'https://open.spotify.com/track/5qXFbBlIF1lI7uV6hozzXQ'
p3716
sg8
S'Permata Cinta'
p3717
ssS'5DBXQN8Jgg8ZypnbHJzaBr'
p3718
(dp3719
g3
S'Echosmith'
p3720
sg5
I1
sg6
S'https://open.spotify.com/track/5DBXQN8Jgg8ZypnbHJzaBr'
p3721
sg8
S'Future Me'
p3722
ssS'6PGoSes0D9eUDeeAafB2As'
p3723
(dp3724
g3
S'Kendrick Lamar'
p3725
sg5
I5
sg6
S'https://open.spotify.com/track/6PGoSes0D9eUDeeAafB2As'
p3726
sg8
S'LOVE. FEAT. ZACARI.'
p3727
ssS'1lItf5ZXJc1by9SbPeljFd'
p3728
(dp3729
g3
S'Zay Hilfigerrr'
p3730
sg5
I4
sg6
S'https://open.spotify.com/track/1lItf5ZXJc1by9SbPeljFd'
p3731
sg8
S'Juju On That Beat (TZ Anthem)'
p3732
ss.