(dp0
S'0mel2N9Ws9r4yLQn5QE21Y'
p1
(dp2
S'artistName'
p3
S'Sam Smith'
p4
sS'weeksOnChart'
p5
I5
sS'track_href'
p6
S'https://open.spotify.com/track/0mel2N9Ws9r4yLQn5QE21Y'
p7
sS'songName'
p8
S'Too Good At Goodbyes'
p9
ssS'728zbo72kOoYdGR3AhNsyF'
p10
(dp11
g3
S'The xx'
p12
sg5
I1
sg6
S'https://open.spotify.com/track/728zbo72kOoYdGR3AhNsyF'
p13
sg8
S'Say Something Loving'
p14
ssS'2ILHXpt71eq7mmUPhXONkL'
p15
(dp16
g3
S'Eiv\xc3\xb8r'
p17
sg5
I1
sg6
S'https://open.spotify.com/track/2ILHXpt71eq7mmUPhXONkL'
p18
sg8
S'Dansa\xc3\xb0u vindur'
p19
ssS'0jdny0dhgjUwoIp5GkqEaA'
p20
(dp21
g3
S'Kesha'
p22
sg5
I6
sg6
S'https://open.spotify.com/track/0jdny0dhgjUwoIp5GkqEaA'
p23
sg8
S'Praying'
p24
ssS'60a0Rd6pjrkxjPbaKzXjfq'
p25
(dp26
g3
S'Linkin Park'
p27
sg5
I2
sg6
S'https://open.spotify.com/track/60a0Rd6pjrkxjPbaKzXjfq'
p28
sg8
S'In The End'
p29
ssS'0prNGof3XqfTvNDxHonvdK'
p30
(dp31
g3
S'Alessia Cara'
p32
sg5
I27
sg6
S'https://open.spotify.com/track/0prNGof3XqfTvNDxHonvdK'
p33
sg8
S'Scars To Your Beautiful'
p34
ssS'6HUnnBwYZqcED1eQztxMBN'
p35
(dp36
g3
S'Martin Jensen'
p37
sg5
I41
sg6
S'https://open.spotify.com/track/6HUnnBwYZqcED1eQztxMBN'
p38
sg8
S'Solo Dance'
p39
ssS'2dfHh7ECGxfNqZTQno09Vk'
p40
(dp41
g3
S'Ed Sheeran'
p42
sg5
I7
sg6
S'https://open.spotify.com/track/2dfHh7ECGxfNqZTQno09Vk'
p43
sg8
S"Hearts Don't Break Around Here"
p44
ssS'0RYXEibxMami3QuT8kn4Iz'
p45
(dp46
g3
S'Macklemore'
p47
sg5
I2
sg6
S'https://open.spotify.com/track/0RYXEibxMami3QuT8kn4Iz'
p48
sg8
S'Marmalade (feat. Lil Yachty)'
p49
ssS'3QWjljChcOMkRDYSzF33Qr'
p50
(dp51
g3
S'Kiiara'
p52
sg5
I6
sg6
S'https://open.spotify.com/track/3QWjljChcOMkRDYSzF33Qr'
p53
sg8
S'Whippin (feat. Felix Snow)'
p54
ssS'1NDxZ7cFAo481dtYWdrUnR'
p55
(dp56
g3
S'Maggie Lindemann'
p57
sg5
I27
sg6
S'https://open.spotify.com/track/1NDxZ7cFAo481dtYWdrUnR'
p58
sg8
S'Pretty Girl - Cheat Codes X CADE Remix'
p59
ssS'0lLdorYw7lVrJydTINhWdI'
p60
(dp61
g3
S'Michael Bubl\xc3\xa9'
p62
sg5
I1
sg6
S'https://open.spotify.com/track/0lLdorYw7lVrJydTINhWdI'
p63
sg8
S"It's Beginning To Look A Lot Like Christmas"
p64
ssS'1OAh8uOEOvTDqkKFsKksCi'
p65
(dp66
g3
S'DJ Khaled'
p67
sg5
I17
sg6
S'https://open.spotify.com/track/1OAh8uOEOvTDqkKFsKksCi'
p68
sg8
S'Wild Thoughts'
p69
ssS'2aksifNn5ph8igDOkPBA02'
p70
(dp71
g3
S'Rihanna'
p72
sg5
I42
sg6
S'https://open.spotify.com/track/2aksifNn5ph8igDOkPBA02'
p73
sg8
S'Love On The Brain'
p74
ssS'4b4KcovePX8Ke2cLIQTLM0'
p75
(dp76
g3
S'The Vamps'
p77
sg5
I1
sg6
S'https://open.spotify.com/track/4b4KcovePX8Ke2cLIQTLM0'
p78
sg8
S'All Night'
p79
ssS'7wGoVu4Dady5GV0Sv4UIsx'
p80
(dp81
g3
S'Post Malone'
p82
sg5
I1
sg6
S'https://open.spotify.com/track/7wGoVu4Dady5GV0Sv4UIsx'
p83
sg8
S'rockstar'
p84
ssS'4pdgV8qr9Oytcv6thCdiIZ'
p85
(dp86
g3
S'A$AP Mob'
p87
sg5
I1
sg6
S'https://open.spotify.com/track/4pdgV8qr9Oytcv6thCdiIZ'
p88
sg8
S'RAF'
p89
ssS'7KcGEssn7BnJdTgildK5y0'
p90
(dp91
g3
S'Nicki Minaj'
p92
sg5
I2
sg6
S'https://open.spotify.com/track/7KcGEssn7BnJdTgildK5y0'
p93
sg8
S'No Frauds'
p94
ssS'1rsAFUCa6BVMgRQ3FCQQsi'
p95
(dp96
g3
S'Lil Pump'
p97
sg5
I1
sg6
S'https://open.spotify.com/track/1rsAFUCa6BVMgRQ3FCQQsi'
p98
sg8
S'Boss'
p99
ssS'4K342fFWFtx8KsBsoHGuyI'
p100
(dp101
g3
S'Vilhj\xc3\xa1lmur Vilhj\xc3\xa1lmss'
p102
sg5
I1
sg6
S'https://open.spotify.com/track/4K342fFWFtx8KsBsoHGuyI'
p103
sg8
S'Vor \xc3\xad Vaglask\xc3\xb3gi'
p104
ssS'1CnPYaKxTVb4LWOtiGOm0m'
p105
(dp106
g3
S'Jon Bellion'
p107
sg5
I15
sg6
S'https://open.spotify.com/track/1CnPYaKxTVb4LWOtiGOm0m'
p108
sg8
S'All Time Low'
p109
ssS'5Ber68jZ7ytegr2UISEdb7'
p110
(dp111
g3
S'Michael Bubl\xc3\xa9'
p112
sg5
I1
sg6
S'https://open.spotify.com/track/5Ber68jZ7ytegr2UISEdb7'
p113
sg8
S'Santa Claus Is Coming To Town'
p114
ssS'4To6EN66e3X3Ze8UCv0Mwh'
p115
(dp116
g3
S'G\xc3\xb3\xc3\xb0i \xc3\x9alfurinn'
p117
sg5
I1
sg6
S'https://open.spotify.com/track/4To6EN66e3X3Ze8UCv0Mwh'
p118
sg8
S'Gr\xc3\xa6\xc3\xb0a Peninginn'
p119
ssS'60xaS8mYBKUW4VQQ666N0T'
p120
(dp121
g3
S'Chance The Rapper'
p122
sg5
I4
sg6
S'https://open.spotify.com/track/60xaS8mYBKUW4VQQ666N0T'
p123
sg8
S'All Night (feat. Knox Fortune)'
p124
ssS'7v6MzOGjhcPEEG2v8MTSxY'
p125
(dp126
g3
S'\xc3\x9alfur \xc3\x9alfur'
p127
sg5
I5
sg6
S'https://open.spotify.com/track/7v6MzOGjhcPEEG2v8MTSxY'
p128
sg8
S'Geimvera'
p129
ssS'3bKhNmXT3MmMfmrUzhvR7y'
p130
(dp131
g3
S'Michael Bubl\xc3\xa9'
p132
sg5
I1
sg6
S'https://open.spotify.com/track/3bKhNmXT3MmMfmrUzhvR7y'
p133
sg8
S'The Christmas Song'
p134
ssS'6kl1qtQXQsFiIWRBK24Cfp'
p135
(dp136
g3
S'A$AP Mob'
p137
sg5
I1
sg6
S'https://open.spotify.com/track/6kl1qtQXQsFiIWRBK24Cfp'
p138
sg8
S'RAF'
p139
ssS'2FRnf9qhLbvw8fu4IBXx78'
p140
(dp141
g3
S'Wham!'
p142
sg5
I1
sg6
S'https://open.spotify.com/track/2FRnf9qhLbvw8fu4IBXx78'
p143
sg8
S'Last Christmas'
p144
ssS'7F5GSOxvcP06wDcYeRVmV1'
p145
(dp146
g3
S'Gunnar \xc3\x93lason'
p147
sg5
I1
sg6
S'https://open.spotify.com/track/7F5GSOxvcP06wDcYeRVmV1'
p148
sg8
S'Komdu um j\xc3\xb3lin'
p149
ssS'7tr2za8SQg2CI8EDgrdtNl'
p150
(dp151
g3
S'Calvin Harris'
p152
sg5
I28
sg6
S'https://open.spotify.com/track/7tr2za8SQg2CI8EDgrdtNl'
p153
sg8
S'Slide'
p154
ssS'40oKW22ZNNkEdZLJTScaQI'
p155
(dp156
g3
S'Kodak Black'
p157
sg5
I7
sg6
S'https://open.spotify.com/track/40oKW22ZNNkEdZLJTScaQI'
p158
sg8
S'Roll In Peace (feat. XXXTENTACION)'
p159
ssS'4xBjsLUSjcx2h7PcRikpQp'
p160
(dp161
g3
S'Camila Cabello'
p162
sg5
I4
sg6
S'https://open.spotify.com/track/4xBjsLUSjcx2h7PcRikpQp'
p163
sg8
S'OMG'
p164
ssS'25khomWgBVamSdKw7hzm3l'
p165
(dp166
g3
S'The Weeknd'
p167
sg5
I4
sg6
S'https://open.spotify.com/track/25khomWgBVamSdKw7hzm3l'
p168
sg8
S'The Hills'
p169
ssS'2yJ9GVCLMmzBBfQAnfzlwr'
p170
(dp171
g3
S'ScHoolboy Q'
p172
sg5
I7
sg6
S'https://open.spotify.com/track/2yJ9GVCLMmzBBfQAnfzlwr'
p173
sg8
S'THat Part'
p174
ssS'4p8qhuurSA5UOuMAFiyRSj'
p175
(dp176
g3
S'Sarah McLachlan'
p177
sg5
I1
sg6
S'https://open.spotify.com/track/4p8qhuurSA5UOuMAFiyRSj'
p178
sg8
S'Wintersong'
p179
ssS'4pLwZjInHj3SimIyN9SnOz'
p180
(dp181
g3
S'Ariana Grande'
p182
sg5
I22
sg6
S'https://open.spotify.com/track/4pLwZjInHj3SimIyN9SnOz'
p183
sg8
S'Side To Side'
p184
ssS'0TEOunZoX7nLnt7SRd2g48'
p185
(dp186
g3
S'Demy'
p187
sg5
I1
sg6
S'https://open.spotify.com/track/0TEOunZoX7nLnt7SRd2g48'
p188
sg8
S'This Is Love'
p189
ssS'3Xr6kOC4De4Lk41lF9nzTy'
p190
(dp191
g3
S'Justin Bieber'
p192
sg5
I1
sg6
S'https://open.spotify.com/track/3Xr6kOC4De4Lk41lF9nzTy'
p193
sg8
S'Christmas Love'
p194
ssS'2hJWZvTw4QVBwC14ZNs1Ib'
p195
(dp196
g3
S'Lil Pump'
p197
sg5
I1
sg6
S'https://open.spotify.com/track/2hJWZvTw4QVBwC14ZNs1Ib'
p198
sg8
S'Flex Like Ouu'
p199
ssS'3E2Zh20GDCR9B1EYjfXWyv'
p200
(dp201
g3
S'AJR'
p202
sg5
I22
sg6
S'https://open.spotify.com/track/3E2Zh20GDCR9B1EYjfXWyv'
p203
sg8
S'Weak'
p204
ssS'2Gl0FzuLxflY6nPifJp5Dr'
p205
(dp206
g3
S'Kygo'
p207
sg5
I14
sg6
S'https://open.spotify.com/track/2Gl0FzuLxflY6nPifJp5Dr'
p208
sg8
S'First Time'
p209
ssS'0xl1w2q4VLojeXp4JfazPL'
p210
(dp211
g3
S'Drake'
p212
sg5
I4
sg6
S'https://open.spotify.com/track/0xl1w2q4VLojeXp4JfazPL'
p213
sg8
S'Sacrifices'
p214
ssS'5YCqzqb6yN6TsMOHb4FSVw'
p215
(dp216
g3
S'Kristian Kostov'
p217
sg5
I4
sg6
S'https://open.spotify.com/track/5YCqzqb6yN6TsMOHb4FSVw'
p218
sg8
S'Beautiful Mess'
p219
ssS'0mF4eWeOoSBVahRRztfqd1'
p220
(dp221
g3
S'Birnir'
p222
sg5
I28
sg6
S'https://open.spotify.com/track/0mF4eWeOoSBVahRRztfqd1'
p223
sg8
S'Sama Tima'
p224
ssS'7GX5flRQZVHRAGd6B4TmDO'
p225
(dp226
g3
S'Lil Uzi Vert'
p227
sg5
I7
sg6
S'https://open.spotify.com/track/7GX5flRQZVHRAGd6B4TmDO'
p228
sg8
S'XO TOUR Llif3'
p229
ssS'6XlQoupHIwPDOaZxcKdJEB'
p230
(dp231
g3
S'Sturla Atlas'
p232
sg5
I5
sg6
S'https://open.spotify.com/track/6XlQoupHIwPDOaZxcKdJEB'
p233
sg8
S'Leap of Faith'
p234
ssS'4BHzQ9C00ceJxfG16AlNWb'
p235
(dp236
g3
S'Adele'
p237
sg5
I8
sg6
S'https://open.spotify.com/track/4BHzQ9C00ceJxfG16AlNWb'
p238
sg8
S'Send My Love (To Your New Lover)'
p239
ssS'4Km5HrUvYTaSUfiSGPJeQR'
p240
(dp241
g3
S'Migos'
p242
sg5
I42
sg6
S'https://open.spotify.com/track/4Km5HrUvYTaSUfiSGPJeQR'
p243
sg8
S'Bad and Boujee (feat. Lil Uzi Vert)'
p244
ssS'2RttW7RAu5nOAfq6YFvApB'
p245
(dp246
g3
S'Ed Sheeran'
p247
sg5
I32
sg6
S'https://open.spotify.com/track/2RttW7RAu5nOAfq6YFvApB'
p248
sg8
S'Happier'
p249
ssS'5LYQSNHZxEA880URXFHg6h'
p250
(dp251
g3
S'Lana Del Rey'
p252
sg5
I1
sg6
S'https://open.spotify.com/track/5LYQSNHZxEA880URXFHg6h'
p253
sg8
S'Lust for Life (with The Weeknd)'
p254
ssS'3EmmCZoqpWOTY1g2GBwJoR'
p255
(dp256
g3
S'Steve Aoki'
p257
sg5
I13
sg6
S'https://open.spotify.com/track/3EmmCZoqpWOTY1g2GBwJoR'
p258
sg8
S'Just Hold On'
p259
ssS'2Ce5IyMlVRVvN997ZJjJJA'
p260
(dp261
g3
S'Future'
p262
sg5
I28
sg6
S'https://open.spotify.com/track/2Ce5IyMlVRVvN997ZJjJJA'
p263
sg8
S'Selfish'
p264
ssS'4Q9vx0KwTiOMaRjOZkaxst'
p265
(dp266
g3
S'Future'
p267
sg5
I1
sg6
S'https://open.spotify.com/track/4Q9vx0KwTiOMaRjOZkaxst'
p268
sg8
S'My Collection'
p269
ssS'3sJHkcxojoJD2Ytbo1yLLF'
p270
(dp271
g3
S'Moon Taxi'
p272
sg5
I5
sg6
S'https://open.spotify.com/track/3sJHkcxojoJD2Ytbo1yLLF'
p273
sg8
S'Two High'
p274
ssS'6lInUeup6QClCosgJz8j4w'
p275
(dp276
g3
S'J\xc3\xb3iP\xc3\xa9'
p277
sg5
I7
sg6
S'https://open.spotify.com/track/6lInUeup6QClCosgJz8j4w'
p278
sg8
S'Hr\xc3\xa1 prufa feat. Hj\xc3\xb6rtur'
p279
ssS'0gbBzIqrECJOEPvQJIBFs5'
p280
(dp281
g3
S'Lorde'
p282
sg5
I16
sg6
S'https://open.spotify.com/track/0gbBzIqrECJOEPvQJIBFs5'
p283
sg8
S'Green Light'
p284
ssS'0kmrXYtFI8cgxsShrJpThx'
p285
(dp286
g3
S'Michael Bubl\xc3\xa9'
p287
sg5
I1
sg6
S'https://open.spotify.com/track/0kmrXYtFI8cgxsShrJpThx'
p288
sg8
S'Mis Deseos/Feliz Navidad (Duet With Thalia)'
p289
ssS'67FIk7Usu88yo4HW43l5p9'
p290
(dp291
g3
S'Ragnhildur G\xc3\xadslad\xc3\xb3ttir'
p292
sg5
I1
sg6
S'https://open.spotify.com/track/67FIk7Usu88yo4HW43l5p9'
p293
sg8
S'J\xc3\xb3la j\xc3\xb3lasveinn'
p294
ssS'3VRk65lHSwqd90TAkQqhvB'
p295
(dp296
g3
S'Katy Perry'
p297
sg5
I2
sg6
S'https://open.spotify.com/track/3VRk65lHSwqd90TAkQqhvB'
p298
sg8
S'Swish Swish'
p299
ssS'20dP2DaMHIAmwWAbp7peSr'
p300
(dp301
g3
S'Young Thug'
p302
sg5
I39
sg6
S'https://open.spotify.com/track/20dP2DaMHIAmwWAbp7peSr'
p303
sg8
S'pick up the phone'
p304
ssS'2nhWiRTIwfiN0INbjxkiYZ'
p305
(dp306
g3
S'J\xc3\xb3iP\xc3\xa9'
p307
sg5
I5
sg6
S'https://open.spotify.com/track/2nhWiRTIwfiN0INbjxkiYZ'
p308
sg8
S'Labba Inn'
p309
ssS'5eqK0tbzUPo2SoeZsov04s'
p310
(dp311
g3
S'21 Savage'
p312
sg5
I11
sg6
S'https://open.spotify.com/track/5eqK0tbzUPo2SoeZsov04s'
p313
sg8
S'Bank Account'
p314
ssS'54LGxQGf5LPXNGjtzDZ5IE'
p315
(dp316
g3
S'Zara Larsson'
p317
sg5
I4
sg6
S'https://open.spotify.com/track/54LGxQGf5LPXNGjtzDZ5IE'
p318
sg8
S'So Good'
p319
ssS'1uL78kFWxhz3umTMWJu8n5'
p320
(dp321
g3
S'Lil Uzi Vert'
p322
sg5
I2
sg6
S'https://open.spotify.com/track/1uL78kFWxhz3umTMWJu8n5'
p323
sg8
S'Sauce It Up'
p324
ssS'4iYRa2btalAzPZoSYfROqF'
p325
(dp326
g3
S'Kendrick Lamar'
p327
sg5
I4
sg6
S'https://open.spotify.com/track/4iYRa2btalAzPZoSYfROqF'
p328
sg8
S'XXX. FEAT. U2.'
p329
ssS'4xlrALxuaCf9yZBHJeTSG6'
p330
(dp331
g3
S'Jonas Blue'
p332
sg5
I7
sg6
S'https://open.spotify.com/track/4xlrALxuaCf9yZBHJeTSG6'
p333
sg8
S'Mama'
p334
ssS'6Nle9hKrkL1wQpwNfEkxjh'
p335
(dp336
g3
S'Frank Ocean'
p337
sg5
I4
sg6
S'https://open.spotify.com/track/6Nle9hKrkL1wQpwNfEkxjh'
p338
sg8
S'Chanel'
p339
ssS'00vk0sEfb6mr2ehwSw0Uhn'
p340
(dp341
g3
S'Imany'
p342
sg5
I1
sg6
S'https://open.spotify.com/track/00vk0sEfb6mr2ehwSw0Uhn'
p343
sg8
S"Don't Be So Shy - Filatov & Karas Remix"
p344
ssS'2oUuLLKS8WbF7ELJcwbqms'
p345
(dp346
g3
S'XXXTENTACION'
p347
sg5
I5
sg6
S'https://open.spotify.com/track/2oUuLLKS8WbF7ELJcwbqms'
p348
sg8
S'Look at Me!'
p349
ssS'4IWAyPf1KMq7JCyGeCjTeH'
p350
(dp351
g3
S'Imagine Dragons'
p352
sg5
I2
sg6
S'https://open.spotify.com/track/4IWAyPf1KMq7JCyGeCjTeH'
p353
sg8
S'Whatever It Takes'
p354
ssS'3pzjHKrQSvXGHQ98dx18HI'
p355
(dp356
g3
S'Justin Bieber'
p357
sg5
I18
sg6
S'https://open.spotify.com/track/3pzjHKrQSvXGHQ98dx18HI'
p358
sg8
S'What Do You Mean?'
p359
ssS'000xQL6tZNLJzIrtIgxqSl'
p360
(dp361
g3
S'ZAYN'
p362
sg5
I15
sg6
S'https://open.spotify.com/track/000xQL6tZNLJzIrtIgxqSl'
p363
sg8
S'Still Got Time'
p364
ssS'6Lh85Pe18pqvNdDoWgTVUC'
p365
(dp366
g3
S'Michael Bubl\xc3\xa9'
p367
sg5
I1
sg6
S'https://open.spotify.com/track/6Lh85Pe18pqvNdDoWgTVUC'
p368
sg8
S'Blue Christmas'
p369
ssS'7tnaA3OaJ3a6UfXkcgpaIe'
p370
(dp371
g3
S'Svala'
p372
sg5
I1
sg6
S'https://open.spotify.com/track/7tnaA3OaJ3a6UfXkcgpaIe'
p373
sg8
S'\xc3\x89g hlakka svo til'
p374
ssS'6g1v2Cw2gejBa4qRQM3QKm'
p375
(dp376
g3
S'Svala'
p377
sg5
I15
sg6
S'https://open.spotify.com/track/6g1v2Cw2gejBa4qRQM3QKm'
p378
sg8
S'Paper'
p379
ssS'1CKd1PnqfYx0H12V9MSaIY'
p380
(dp381
g3
S'Zedd'
p382
sg5
I4
sg6
S'https://open.spotify.com/track/1CKd1PnqfYx0H12V9MSaIY'
p383
sg8
S'Get Low (with Liam Payne)'
p384
ssS'4Dbn05LNVX5giGbgbz5fdQ'
p385
(dp386
g3
S'Migos'
p387
sg5
I1
sg6
S'https://open.spotify.com/track/4Dbn05LNVX5giGbgbz5fdQ'
p388
sg8
S'Out Yo Way'
p389
ssS'4KbqDqA5NQ6TxNvIB1ZVg0'
p390
(dp391
g3
S'\xc3\x9alfur \xc3\x9alfur'
p392
sg5
I1
sg6
S'https://open.spotify.com/track/4KbqDqA5NQ6TxNvIB1ZVg0'
p393
sg8
S'Hefni\xc3\xb0 okkar'
p394
ssS'6IZvVAP7VPPnsGX6bvgkqg'
p395
(dp396
g3
S'Kendrick Lamar'
p397
sg5
I4
sg6
S'https://open.spotify.com/track/6IZvVAP7VPPnsGX6bvgkqg'
p398
sg8
S'PRIDE.'
p399
ssS'0VJYhKhrHgJ7fgjGaC2k07'
p400
(dp401
g3
S'XXXTENTACION'
p402
sg5
I2
sg6
S'https://open.spotify.com/track/0VJYhKhrHgJ7fgjGaC2k07'
p403
sg8
S'The Explanation'
p404
ssS'1lRKlztKsWRRwA3t99BwaY'
p405
(dp406
g3
S'Joey Christ'
p407
sg5
I14
sg6
S'https://open.spotify.com/track/1lRKlztKsWRRwA3t99BwaY'
p408
sg8
S'G Blettur'
p409
ssS'042x9bsUBWW2fJgJ6fUh61'
p410
(dp411
g3
S'DVBBS'
p412
sg5
I7
sg6
S'https://open.spotify.com/track/042x9bsUBWW2fJgJ6fUh61'
p413
sg8
S'Not Going Home'
p414
ssS'5Z01UMMf7V1o0MzF86s6WJ'
p415
(dp416
g3
S'Eminem'
p417
sg5
I29
sg6
S'https://open.spotify.com/track/5Z01UMMf7V1o0MzF86s6WJ'
p418
sg8
S'Lose Yourself - Soundtrack Version'
p419
ssS'5CtI0qwDJkDQGwXD1H1cLb'
p420
(dp421
g3
S'Luis Fonsi'
p422
sg5
I26
sg6
S'https://open.spotify.com/track/5CtI0qwDJkDQGwXD1H1cLb'
p423
sg8
S'Despacito - Remix'
p424
ssS'2qQQMaa0fgUzWwGo8q4EOm'
p425
(dp426
g3
S'Bubbi Morthens'
p427
sg5
I6
sg6
S'https://open.spotify.com/track/2qQQMaa0fgUzWwGo8q4EOm'
p428
sg8
S'Aldrei f\xc3\xb3r \xc3\xa9g su\xc3\xb0ur'
p429
ssS'0Nhu3zSYbEz32IYiobV75e'
p430
(dp431
g3
S'Halsey'
p432
sg5
I10
sg6
S'https://open.spotify.com/track/0Nhu3zSYbEz32IYiobV75e'
p433
sg8
S'Now Or Never'
p434
ssS'0LRTB3oSVWrw15loCJT7SM'
p435
(dp436
g3
S'Sk\xc3\xadtam\xc3\xb3rall'
p437
sg5
I2
sg6
S'https://open.spotify.com/track/0LRTB3oSVWrw15loCJT7SM'
p438
sg8
S'Myndir'
p439
ssS'3zJw3rugfpVrmBeDDnUYzy'
p440
(dp441
g3
S'John Lennon'
p442
sg5
I1
sg6
S'https://open.spotify.com/track/3zJw3rugfpVrmBeDDnUYzy'
p443
sg8
S'Happy Xmas (War Is Over) - 2010 Digital Remaster'
p444
ssS'2MHCiOohBZEQuLgDTPvSzF'
p445
(dp446
g3
S'Galantis'
p447
sg5
I1
sg6
S'https://open.spotify.com/track/2MHCiOohBZEQuLgDTPvSzF'
p448
sg8
S'Love On Me'
p449
ssS'24WahKLOEWPVcqriXWt9Kr'
p450
(dp451
g3
S'Fri\xc3\xb0rikl \xc3\x93mar'
p452
sg5
I1
sg6
S'https://open.spotify.com/track/24WahKLOEWPVcqriXWt9Kr'
p453
sg8
S'Allt \xc3\xbea\xc3\xb0 sem \xc3\xa9g \xc3\xb3ska m\xc3\xa9r'
p454
ssS'1lSRPJuC6c4Ku09KTjotfR'
p455
(dp456
g3
S'Baggal\xc3\xbatur'
p457
sg5
I1
sg6
S'https://open.spotify.com/track/1lSRPJuC6c4Ku09KTjotfR'
p458
sg8
S'Hef\xc3\xb0irnar'
p459
ssS'2ekn2ttSfGqwhhate0LSR0'
p460
(dp461
g3
S'Dua Lipa'
p462
sg5
I13
sg6
S'https://open.spotify.com/track/2ekn2ttSfGqwhhate0LSR0'
p463
sg8
S'New Rules'
p464
ssS'0y1QJc3SJVPKJ1OvFmFqe6'
p465
(dp466
g3
S'Kaleo'
p467
sg5
I42
sg6
S'https://open.spotify.com/track/0y1QJc3SJVPKJ1OvFmFqe6'
p468
sg8
S'Way Down We Go'
p469
ssS'3bVbQvGVIe4n24AzyXovXh'
p470
(dp471
g3
S''
p472
sg5
I1
sg6
S'https://open.spotify.com/track/3bVbQvGVIe4n24AzyXovXh'
p473
sg8
g472
ssS'5humEOJehpAwMJEJmb0JJ2'
p474
(dp475
g3
S'Nat King Cole'
p476
sg5
I1
sg6
S'https://open.spotify.com/track/5humEOJehpAwMJEJmb0JJ2'
p477
sg8
S'The Christmas Song (Merry Christmas To You)'
p478
ssS'2dfqS3MRtbLZSZA1IL8xY5'
p479
(dp480
g3
S'Drake'
p481
sg5
I4
sg6
S'https://open.spotify.com/track/2dfqS3MRtbLZSZA1IL8xY5'
p482
sg8
S'Skepta Interlude'
p483
ssS'1sCxVKWImDZSZKvG0U9B23'
p484
(dp485
g3
S'Selena Gomez'
p486
sg5
I13
sg6
S'https://open.spotify.com/track/1sCxVKWImDZSZKvG0U9B23'
p487
sg8
S'Bad Liar'
p488
ssS'6i759FCuKx713ZnYjtpQGU'
p489
(dp490
g3
S'The Weeknd'
p491
sg5
I3
sg6
S'https://open.spotify.com/track/6i759FCuKx713ZnYjtpQGU'
p492
sg8
S'True Colors'
p493
ssS'1FUViuNSldssMIawrOXF2i'
p494
(dp495
g3
S'Bebe Rexha'
p496
sg5
I14
sg6
S'https://open.spotify.com/track/1FUViuNSldssMIawrOXF2i'
p497
sg8
S'I Got You'
p498
ssS'0ADG9OgdVTL7fgREP75BrZ'
p499
(dp500
g3
S'Zara Larsson'
p501
sg5
I10
sg6
S'https://open.spotify.com/track/0ADG9OgdVTL7fgREP75BrZ'
p502
sg8
S"Ain't My Fault"
p503
ssS'1tLMvnIU0wAN8Jxfgh4hEB'
p504
(dp505
g3
S'Aron Can'
p506
sg5
I4
sg6
S'https://open.spotify.com/track/1tLMvnIU0wAN8Jxfgh4hEB'
p507
sg8
S'Baby Pl\xc3\xads'
p508
ssS'4VPXFi4vFTtS9wHe6oMQaT'
p509
(dp510
g3
S'Zara Larsson'
p511
sg5
I1
sg6
S'https://open.spotify.com/track/4VPXFi4vFTtS9wHe6oMQaT'
p512
sg8
S"I Can't Fall in Love Without You"
p513
ssS'6Q2FftbUG530lCtBI74bMH'
p514
(dp515
g3
S'A Boogie Wit da Hoodie'
p516
sg5
I6
sg6
S'https://open.spotify.com/track/6Q2FftbUG530lCtBI74bMH'
p517
sg8
S'Drowning (feat. Kodak Black)'
p518
ssS'0H8XeaJunhvpBdBFIYi6Sh'
p519
(dp520
g3
S'Post Malone'
p521
sg5
I24
sg6
S'https://open.spotify.com/track/0H8XeaJunhvpBdBFIYi6Sh'
p522
sg8
S'Deja Vu'
p523
ssS'3TRFq09DUgYj1mug6RRqJW'
p524
(dp525
g3
S'Luke Christopher'
p526
sg5
I7
sg6
S'https://open.spotify.com/track/3TRFq09DUgYj1mug6RRqJW'
p527
sg8
S'Lot to Learn'
p528
ssS'6s2wpWPFPAgKg2LXxi1Oee'
p529
(dp530
g3
S'Bruce Springsteen'
p531
sg5
I1
sg6
S'https://open.spotify.com/track/6s2wpWPFPAgKg2LXxi1Oee'
p532
sg8
S"Santa Claus Is Comin' to Town - Single Version"
p533
ssS'6tjituizSxwSmBB5vtgHZE'
p534
(dp535
g3
S'Michael Bubl\xc3\xa9'
p536
sg5
I1
sg6
S'https://open.spotify.com/track/6tjituizSxwSmBB5vtgHZE'
p537
sg8
S'Holly Jolly Christmas'
p538
ssS'1rIKgCH4H52lrvDcz50hS8'
p539
(dp540
g3
S'Zara Larsson'
p541
sg5
I24
sg6
S'https://open.spotify.com/track/1rIKgCH4H52lrvDcz50hS8'
p542
sg8
S'Lush Life'
p543
ssS'1ulDt6ySVbMbzZCBO6hSfb'
p544
(dp545
g3
S'Julia Sheer'
p546
sg5
I1
sg6
S'https://open.spotify.com/track/1ulDt6ySVbMbzZCBO6hSfb'
p547
sg8
S'Little Talks'
p548
ssS'76gUmNLXGQVOsGhfcshkFP'
p549
(dp550
g3
S'Drake'
p551
sg5
I4
sg6
S'https://open.spotify.com/track/76gUmNLXGQVOsGhfcshkFP'
p552
sg8
S'Madiba Riddim'
p553
ssS'7vGuf3Y35N4wmASOKLUVVU'
p554
(dp555
g3
S'Marshmello'
p556
sg5
I9
sg6
S'https://open.spotify.com/track/7vGuf3Y35N4wmASOKLUVVU'
p557
sg8
S'Silence'
p558
ssS'4rino0wsmUcK36Ro4CCrke'
p559
(dp560
g3
S'Basshunter'
p561
sg5
I2
sg6
S'https://open.spotify.com/track/4rino0wsmUcK36Ro4CCrke'
p562
sg8
S'Boten Anna - Radio edit'
p563
ssS'0xPaZrF25ltzvz1a2Pm5DQ'
p564
(dp565
g3
S'Michael Bubl\xc3\xa9'
p566
sg5
I1
sg6
S'https://open.spotify.com/track/0xPaZrF25ltzvz1a2Pm5DQ'
p567
sg8
S'All I Want For Christmas Is You'
p568
ssS'31TVwUzPiMGzAo6YJfuTFi'
p569
(dp570
g3
S'Baggal\xc3\xbatur'
p571
sg5
I1
sg6
S'https://open.spotify.com/track/31TVwUzPiMGzAo6YJfuTFi'
p572
sg8
S'N\xc3\xba Mega J\xc3\xb3lin Fara Fyrir M\xc3\xa9r'
p573
ssS'1WpQu8U3quBeGnhpZn0r7N'
p574
(dp575
g3
S'Nathan Trent'
p576
sg5
I1
sg6
S'https://open.spotify.com/track/1WpQu8U3quBeGnhpZn0r7N'
p577
sg8
S'Running On Air'
p578
ssS'7129iqBafaphfc3WPCGC0L'
p579
(dp580
g3
S'Lukas Graham'
p581
sg5
I9
sg6
S'https://open.spotify.com/track/7129iqBafaphfc3WPCGC0L'
p582
sg8
S'7 Years'
p583
ssS'4WjH9Bzt3kx7z8kl0awxh4'
p584
(dp585
g3
S'Major Lazer'
p586
sg5
I2
sg6
S'https://open.spotify.com/track/4WjH9Bzt3kx7z8kl0awxh4'
p587
sg8
S'Lean On (feat. M\xc3\x98 & DJ Snake)'
p588
ssS'1vvNmPOiUuyCbgWmtc6yfm'
p589
(dp590
g3
S'Calvin Harris'
p591
sg5
I15
sg6
S'https://open.spotify.com/track/1vvNmPOiUuyCbgWmtc6yfm'
p592
sg8
S'My Way'
p593
ssS'57p8CBvPOxrvyCbn6ttl5r'
p594
(dp595
g3
S'Skrillex'
p596
sg5
I7
sg6
S'https://open.spotify.com/track/57p8CBvPOxrvyCbn6ttl5r'
p597
sg8
S'Would You Ever'
p598
ssS'43jBqV3j3Xi1g6wO0bhIMd'
p599
(dp600
g3
S'Sage The Gemini'
p601
sg5
I9
sg6
S'https://open.spotify.com/track/43jBqV3j3Xi1g6wO0bhIMd'
p602
sg8
S'Now and Later'
p603
ssS'7oolFzHipTMg2nL7shhdz2'
p604
(dp605
g3
S'Ed Sheeran'
p606
sg5
I5
sg6
S'https://open.spotify.com/track/7oolFzHipTMg2nL7shhdz2'
p607
sg8
S'Eraser'
p608
ssS'71JC1Duym6yy7mxC3CQ0uE'
p609
(dp610
g3
S'Laura'
p611
sg5
I1
sg6
S'https://open.spotify.com/track/71JC1Duym6yy7mxC3CQ0uE'
p612
sg8
S'Verona'
p613
ssS'3B7udSGy2PfgoCniMSb523'
p614
(dp615
g3
S'Ed Sheeran'
p616
sg5
I13
sg6
S'https://open.spotify.com/track/3B7udSGy2PfgoCniMSb523'
p617
sg8
S'I See Fire'
p618
ssS'5pQXv4IXPA1NkvEdbfSHyH'
p619
(dp620
g3
S'\xc3\x9e\xc3\xba og \xc3\xa9g'
p621
sg5
I1
sg6
S'https://open.spotify.com/track/5pQXv4IXPA1NkvEdbfSHyH'
p622
sg8
S'H\xc3\xa1t\xc3\xad\xc3\xb0arskap'
p623
ssS'3NdDpSvN911VPGivFlV5d0'
p624
(dp625
g3
S'ZAYN'
p626
sg5
I42
sg6
S'https://open.spotify.com/track/3NdDpSvN911VPGivFlV5d0'
p627
sg8
S'I Don\xe2\x80\x99t Wanna Live Forever (Fifty Shades Darker) - From Fifty Shades Darker (Original Motion Picture Soundtrack)'
p628
ssS'6fwdbPMwP1zVStm8FybmkO'
p629
(dp630
g3
S'21 Savage'
p631
sg5
I16
sg6
S'https://open.spotify.com/track/6fwdbPMwP1zVStm8FybmkO'
p632
sg8
S'X (feat. Future)'
p633
ssS'2RlgNHKcydI9sayD2Df2xp'
p634
(dp635
g3
S'Electric Light Orchestra'
p636
sg5
I6
sg6
S'https://open.spotify.com/track/2RlgNHKcydI9sayD2Df2xp'
p637
sg8
S'Mr. Blue Sky'
p638
ssS'37F0uwRSrdzkBiuj0D5UHI'
p639
(dp640
g3
S'The Weeknd'
p641
sg5
I10
sg6
S'https://open.spotify.com/track/37F0uwRSrdzkBiuj0D5UHI'
p642
sg8
S'Reminder'
p643
ssS'3N5wl9ZYEIowPfH5Ky6PzL'
p644
(dp645
g3
S'\xc3\x9alfur \xc3\x9alfur'
p646
sg5
I8
sg6
S'https://open.spotify.com/track/3N5wl9ZYEIowPfH5Ky6PzL'
p647
sg8
S'Tarant\xc3\xbalur'
p648
ssS'3DX4Y0egvc0slLcLl31h2p'
p649
(dp650
g3
S'The Weeknd'
p651
sg5
I5
sg6
S'https://open.spotify.com/track/3DX4Y0egvc0slLcLl31h2p'
p652
sg8
S'Secrets'
p653
ssS'0gb1J5UrTpzaU1s3nupgCd'
p654
(dp655
g3
S'Galantis'
p656
sg5
I1
sg6
S'https://open.spotify.com/track/0gb1J5UrTpzaU1s3nupgCd'
p657
sg8
S'No Money'
p658
ssS'6HEIBHUirx1J0JkUD24szt'
p659
(dp660
g3
S'Ugly God'
p661
sg5
I4
sg6
S'https://open.spotify.com/track/6HEIBHUirx1J0JkUD24szt'
p662
sg8
S'Water'
p663
ssS'1UZOjK1BwmwWU14Erba9CZ'
p664
(dp665
g3
S'Miley Cyrus'
p666
sg5
I2
sg6
S'https://open.spotify.com/track/1UZOjK1BwmwWU14Erba9CZ'
p667
sg8
S'Malibu'
p668
ssS'34LpWATZkEdPw0QxWwDc8E'
p669
(dp670
g3
S'K\xc3\xb3r \xc3\x96ldut\xc3\xbanssk\xc3\xb3la'
p671
sg5
I1
sg6
S'https://open.spotify.com/track/34LpWATZkEdPw0QxWwDc8E'
p672
sg8
S'\xc3\x9e\xc3\xba og \xc3\xa9g'
p673
ssS'2eMwDehkIC1j68U6FA3Eiq'
p674
(dp675
g3
S'Lil Uzi Vert'
p676
sg5
I22
sg6
S'https://open.spotify.com/track/2eMwDehkIC1j68U6FA3Eiq'
p677
sg8
S'XO TOUR Llif3'
p678
ssS'5v9N8Rx3QsFvr50cxyQcA3'
p679
(dp680
g3
S'Mura Masa'
p681
sg5
I11
sg6
S'https://open.spotify.com/track/5v9N8Rx3QsFvr50cxyQcA3'
p682
sg8
S'Love$ick'
p683
ssS'3CRDbSIZ4r5MsZ0YwxuEkn'
p684
(dp685
g3
S'Twenty One Pilots'
p686
sg5
I11
sg6
S'https://open.spotify.com/track/3CRDbSIZ4r5MsZ0YwxuEkn'
p687
sg8
S'Stressed Out'
p688
ssS'7oSiq8mNazqI1Q0Rdnfncl'
p689
(dp690
g3
S'\xc3\x9alfur \xc3\x9alfur'
p691
sg5
I1
sg6
S'https://open.spotify.com/track/7oSiq8mNazqI1Q0Rdnfncl'
p692
sg8
S'MUA'
p693
ssS'7lI4CE7mlyYyrPTMHzLF1x'
p694
(dp695
g3
S'Rammstein'
p696
sg5
I1
sg6
S'https://open.spotify.com/track/7lI4CE7mlyYyrPTMHzLF1x'
p697
sg8
S'Mein Herz brennt'
p698
ssS'6mICuAdrwEjh6Y6lroV2Kg'
p699
(dp700
g3
S'Shakira'
p701
sg5
I8
sg6
S'https://open.spotify.com/track/6mICuAdrwEjh6Y6lroV2Kg'
p702
sg8
S'Chantaje'
p703
ssS'1nX9KhK3Fff27SnrIor2Yb'
p704
(dp705
g3
S'2 Chainz'
p706
sg5
I4
sg6
S'https://open.spotify.com/track/1nX9KhK3Fff27SnrIor2Yb'
p707
sg8
S'4 AM'
p708
ssS'6F609ICg9Spjrw1epsAnpa'
p709
(dp710
g3
S'Drake'
p711
sg5
I6
sg6
S'https://open.spotify.com/track/6F609ICg9Spjrw1epsAnpa'
p712
sg8
S'Controlla'
p713
ssS'4DewX8ld33pKeKPMk86UMX'
p714
(dp715
g3
S'Herra Hnetusmj\xc3\xb6r'
p716
sg5
I2
sg6
S'https://open.spotify.com/track/4DewX8ld33pKeKPMk86UMX'
p717
sg8
S'Spur\xc3\xb0u Um Mig'
p718
ssS'30jUvRSwuookngdsulLVOf'
p719
(dp720
g3
S'The Seasonals'
p721
sg5
I1
sg6
S'https://open.spotify.com/track/30jUvRSwuookngdsulLVOf'
p722
sg8
S'From This Christmas On ft. Lauren Dunne'
p723
ssS'4SDGUDgYA54LpysIC5uMyz'
p724
(dp725
g3
S'Aron Can'
p726
sg5
I5
sg6
S'https://open.spotify.com/track/4SDGUDgYA54LpysIC5uMyz'
p727
sg8
S'Bara Vi\xc3\xb0 / Langar A\xc3\xb0 Vita'
p728
ssS'1WC5UN1U79gJlxGLYDGIO7'
p729
(dp730
g3
S'Lorde'
p731
sg5
I2
sg6
S'https://open.spotify.com/track/1WC5UN1U79gJlxGLYDGIO7'
p732
sg8
S'Green Light'
p733
ssS'7zIDkVfd8enAePXdMtmCX9'
p734
(dp735
g3
S'Huginn'
p736
sg5
I1
sg6
S'https://open.spotify.com/track/7zIDkVfd8enAePXdMtmCX9'
p737
sg8
S'Eini Str\xc3\xa1kur (feat. Helgi S\xc3\xa6mundur)'
p738
ssS'5qbcsZMwL0x46sX7VO37Ye'
p739
(dp740
g3
S'NAV'
p741
sg5
I1
sg6
S'https://open.spotify.com/track/5qbcsZMwL0x46sX7VO37Ye'
p742
sg8
S'Up'
p743
ssS'7gHs73wELdeycvS48JfIos'
p744
(dp745
g3
S'Alan Walker'
p746
sg5
I18
sg6
S'https://open.spotify.com/track/7gHs73wELdeycvS48JfIos'
p747
sg8
S'Faded'
p748
ssS'7DkG0cx0vhRsv2NiAlHhSO'
p749
(dp750
g3
S'\xc3\x9alfur \xc3\x9alfur'
p751
sg5
I2
sg6
S'https://open.spotify.com/track/7DkG0cx0vhRsv2NiAlHhSO'
p752
sg8
S'Barn'
p753
ssS'3uMB82o0qa7erhiZBW9KQC'
p754
(dp755
g3
S'Stormzy'
p756
sg5
I1
sg6
S'https://open.spotify.com/track/3uMB82o0qa7erhiZBW9KQC'
p757
sg8
S'Big For Your Boots'
p758
ssS'3UYdR145K9dnygSKJqUk2d'
p759
(dp760
g3
S'Aron Can'
p761
sg5
I30
sg6
S'https://open.spotify.com/track/3UYdR145K9dnygSKJqUk2d'
p762
sg8
S'Fullir Vasar'
p763
ssS'1I9BYf0I1HShuSoKnMnWwK'
p764
(dp765
g3
S'Aron Can'
p766
sg5
I42
sg6
S'https://open.spotify.com/track/1I9BYf0I1HShuSoKnMnWwK'
p767
sg8
S'R\xc3\xballupp'
p768
ssS'4L4sEycUpE9dwGguH7jUJS'
p769
(dp770
g3
S'Sturla Atlas'
p771
sg5
I7
sg6
S'https://open.spotify.com/track/4L4sEycUpE9dwGguH7jUJS'
p772
sg8
S'San Francisco'
p773
ssS'00lNx0OcTJrS3MKHcB80HY'
p774
(dp775
g3
S'Jax Jones'
p776
sg5
I30
sg6
S'https://open.spotify.com/track/00lNx0OcTJrS3MKHcB80HY'
p777
sg8
S"You Don't Know Me - Radio Edit"
p778
ssS'2s76aKBWKShlwPC4xTtEEE'
p779
(dp780
g3
S'State of Sound'
p781
sg5
I2
sg6
S'https://open.spotify.com/track/2s76aKBWKShlwPC4xTtEEE'
p782
sg8
S'Wake Up Where You Are'
p783
ssS'22uon28ZMIhgErOyzi39Ch'
p784
(dp785
g3
S'Rollan'
p786
sg5
I1
sg6
S'https://open.spotify.com/track/22uon28ZMIhgErOyzi39Ch'
p787
sg8
S'LAZERLAND'
p788
ssS'6t2ubAB4iSYOuIpRAOGd4t'
p789
(dp790
g3
S'Flo Rida'
p791
sg5
I8
sg6
S'https://open.spotify.com/track/6t2ubAB4iSYOuIpRAOGd4t'
p792
sg8
S'Cake'
p793
ssS'1Q4F9508SEiAvlFSaPiXBw'
p794
(dp795
g3
S'Stef\xc3\xa1n Hilmarsson'
p796
sg5
I1
sg6
S'https://open.spotify.com/track/1Q4F9508SEiAvlFSaPiXBw'
p797
sg8
S'L\xc3\xad\xc3\xb0ur a\xc3\xb0 j\xc3\xb3lum'
p798
ssS'0fg8CqpjdojMyXLNzM2PaJ'
p799
(dp800
g3
S'Major Lazer'
p801
sg5
I15
sg6
S'https://open.spotify.com/track/0fg8CqpjdojMyXLNzM2PaJ'
p802
sg8
S'Run Up (feat. PARTYNEXTDOOR & Nicki Minaj)'
p803
ssS'53i0BrtJOlwQVXB4TDm8DP'
p804
(dp805
g3
S'J\xc3\xb3n J\xc3\xb3nsson'
p806
sg5
I3
sg6
S'https://open.spotify.com/track/53i0BrtJOlwQVXB4TDm8DP'
p807
sg8
S'Lj\xc3\xbaft a\xc3\xb0 vera til'
p808
ssS'2GdIKPluDT6hT3xBxxKiUK'
p809
(dp810
g3
S'Ilinca'
p811
sg5
I4
sg6
S'https://open.spotify.com/track/2GdIKPluDT6hT3xBxxKiUK'
p812
sg8
S'Yodel it!'
p813
ssS'6uFsE1JgZ20EXyU0JQZbUR'
p814
(dp815
g3
S'Taylor Swift'
p816
sg5
I7
sg6
S'https://open.spotify.com/track/6uFsE1JgZ20EXyU0JQZbUR'
p817
sg8
S'Look What You Made Me Do'
p818
ssS'5CPqOpKSk0QcJ3dGdaWcRB'
p819
(dp820
g3
S'The xx'
p821
sg5
I1
sg6
S'https://open.spotify.com/track/5CPqOpKSk0QcJ3dGdaWcRB'
p822
sg8
S'On Hold'
p823
ssS'1Oz474AZobVP06urFHuBKt'
p824
(dp825
g3
S'Joey Christ'
p826
sg5
I14
sg6
S'https://open.spotify.com/track/1Oz474AZobVP06urFHuBKt'
p827
sg8
S'T\xc3\xbaristi'
p828
ssS'5WqjAesTwkxr9sQ3INakS1'
p829
(dp830
g3
S'Aron Can'
p831
sg5
I20
sg6
S'https://open.spotify.com/track/5WqjAesTwkxr9sQ3INakS1'
p832
sg8
S'Me\xc3\xb0 M\xc3\xa9r'
p833
ssS'4SoKhHMopURSMWCTkVriGl'
p834
(dp835
g3
S'Stevie Wonder'
p836
sg5
I1
sg6
S'https://open.spotify.com/track/4SoKhHMopURSMWCTkVriGl'
p837
sg8
S'Someday At Christmas'
p838
ssS'2WeuHIjof2cHeAHmeOUlC5'
p839
(dp840
g3
S'Stef\xc3\xa1n Hilmarsson'
p841
sg5
I1
sg6
S'https://open.spotify.com/track/2WeuHIjof2cHeAHmeOUlC5'
p842
sg8
S'Draumur um N\xc3\xadnu'
p843
ssS'4F7A0DXBrmUAkp32uenhZt'
p844
(dp845
g3
S'The Weeknd'
p846
sg5
I16
sg6
S'https://open.spotify.com/track/4F7A0DXBrmUAkp32uenhZt'
p847
sg8
S'Party Monster'
p848
ssS'5kRPPEWFJIMox5qIkQkiz5'
p849
(dp850
g3
S'Harry Styles'
p851
sg5
I6
sg6
S'https://open.spotify.com/track/5kRPPEWFJIMox5qIkQkiz5'
p852
sg8
S'Sweet Creature'
p853
ssS'0CokSRCu5hZgPxcZBaEzVE'
p854
(dp855
g3
S'Macklemore'
p856
sg5
I3
sg6
S'https://open.spotify.com/track/0CokSRCu5hZgPxcZBaEzVE'
p857
sg8
S'Glorious (feat. Skylar Grey)'
p858
ssS'1t5OXCcZpGguwxTFyKjeGP'
p859
(dp860
g3
S'G\xc3\xadsli P\xc3\xa1lmi'
p861
sg5
I4
sg6
S'https://open.spotify.com/track/1t5OXCcZpGguwxTFyKjeGP'
p862
sg8
S'Hverfinu'
p863
ssS'61iyAeMVUNu7vIVqedsBFB'
p864
(dp865
g3
S'Ella Eyre'
p866
sg5
I3
sg6
S'https://open.spotify.com/track/61iyAeMVUNu7vIVqedsBFB'
p867
sg8
S"We Don't Have To Take Our Clothes Off"
p868
ssS'2Za1AlJNvksouPPWbXpR2X'
p869
(dp870
g3
S'Macklemore'
p871
sg5
I2
sg6
S'https://open.spotify.com/track/2Za1AlJNvksouPPWbXpR2X'
p872
sg8
S'Good Old Days (feat. Kesha)'
p873
ssS'7uuBfgY1vBCalrQRyyQhqs'
p874
(dp875
g3
S'Rich Chigga'
p876
sg5
I1
sg6
S'https://open.spotify.com/track/7uuBfgY1vBCalrQRyyQhqs'
p877
sg8
S'Gospel'
p878
ssS'4qBejt9FeqLI9blHI1Nq1x'
p879
(dp880
g3
S'Michael Bubl\xc3\xa9'
p881
sg5
I1
sg6
S'https://open.spotify.com/track/4qBejt9FeqLI9blHI1Nq1x'
p882
sg8
S'Jingle Bells (feat. The Puppini Sisters)'
p883
ssS'67bhFQT17Kh4Z7GkyQHGYG'
p884
(dp885
g3
S'Lucie Jones'
p886
sg5
I1
sg6
S'https://open.spotify.com/track/67bhFQT17Kh4Z7GkyQHGYG'
p887
sg8
S'Never Give up on You'
p888
ssS'75ZvA4QfFiZvzhj2xkaWAh'
p889
(dp890
g3
S'Post Malone'
p891
sg5
I8
sg6
S'https://open.spotify.com/track/75ZvA4QfFiZvzhj2xkaWAh'
p892
sg8
S'I Fall Apart'
p893
ssS'4kflIGfjdZJW4ot2ioixTB'
p894
(dp895
g3
S'Adele'
p896
sg5
I11
sg6
S'https://open.spotify.com/track/4kflIGfjdZJW4ot2ioixTB'
p897
sg8
S'Someone Like You'
p898
ssS'7hDc8b7IXETo14hHIHdnhd'
p899
(dp900
g3
S'Drake'
p901
sg5
I30
sg6
S'https://open.spotify.com/track/7hDc8b7IXETo14hHIHdnhd'
p902
sg8
S'Passionfruit'
p903
ssS'2CQuKjJXK2LgUEuXdWl06p'
p904
(dp905
g3
S'Sigur\xc3\xb0ur Gu\xc3\xb0mundsson'
p906
sg5
I1
sg6
S'https://open.spotify.com/track/2CQuKjJXK2LgUEuXdWl06p'
p907
sg8
S'\xc3\x89g f\xc3\xa6ri \xc3\xbe\xc3\xa9r heiminn'
p908
ssS'3RiPr603aXAoi4GHyXx0uy'
p909
(dp910
g3
S'Coldplay'
p911
sg5
I1
sg6
S'https://open.spotify.com/track/3RiPr603aXAoi4GHyXx0uy'
p912
sg8
S'Hymn For The Weekend'
p913
ssS'0tICYNayWWhH9GPeFrfjfD'
p914
(dp915
g3
S'Kungs'
p916
sg5
I10
sg6
S'https://open.spotify.com/track/0tICYNayWWhH9GPeFrfjfD'
p917
sg8
S"This Girl (Kungs Vs. Cookin' On 3 Burners) - Kungs Vs. Cookin' On 3 Burners"
p918
ssS'1E0OuikTUNl7uFMEkhbZy4'
p919
(dp920
g3
S'Sturla Atlas'
p921
sg5
I26
sg6
S'https://open.spotify.com/track/1E0OuikTUNl7uFMEkhbZy4'
p922
sg8
S'Mean 2 U'
p923
ssS'2LTlO3NuNVN70lp2ZbVswF'
p924
(dp925
g3
S'Kendrick Lamar'
p926
sg5
I4
sg6
S'https://open.spotify.com/track/2LTlO3NuNVN70lp2ZbVswF'
p927
sg8
S'FEEL.'
p928
ssS'4Bxf2Lc7uTDrhe8ZRPDqaK'
p929
(dp930
g3
S'\xc3\x9alfur \xc3\x9alfur'
p931
sg5
I40
sg6
S'https://open.spotify.com/track/4Bxf2Lc7uTDrhe8ZRPDqaK'
p932
sg8
S'Brennum allt'
p933
ssS'1iHLIXeGPDnb35oyRgWPpu'
p934
(dp935
g3
S'Rakel P\xc3\xa1lsd\xc3\xb3ttir'
p936
sg5
I1
sg6
S'https://open.spotify.com/track/1iHLIXeGPDnb35oyRgWPpu'
p937
sg8
S'Til m\xc3\xadn'
p938
ssS'4jdwYaY1pxC7HuUSgO9AT4'
p939
(dp940
g3
S'Kr\xc3\xb3li'
p941
sg5
I10
sg6
S'https://open.spotify.com/track/4jdwYaY1pxC7HuUSgO9AT4'
p942
sg8
S'O Shit'
p943
ssS'6y2Kaz9QI01XBKJ8mTb7Pf'
p944
(dp945
g3
S"Rag'n'Bone Man"
p946
sg5
I11
sg6
S'https://open.spotify.com/track/6y2Kaz9QI01XBKJ8mTb7Pf'
p947
sg8
S'Skin'
p948
ssS'4WxYhNiwUubKHXRFz4uY7z'
p949
(dp950
g3
S'Rammstein'
p951
sg5
I1
sg6
S'https://open.spotify.com/track/4WxYhNiwUubKHXRFz4uY7z'
p952
sg8
S'KEINE LUST'
p953
ssS'3ODcd8EgYNXrcSF3cv3Zqo'
p954
(dp955
g3
S'P\xc3\xa1ll \xc3\x93skar'
p956
sg5
I4
sg6
S'https://open.spotify.com/track/3ODcd8EgYNXrcSF3cv3Zqo'
p957
sg8
S'Einn dans'
p958
ssS'0XLOf9LhyazPX9Ld8jPiUq'
p959
(dp960
g3
S'Selena Gomez'
p961
sg5
I9
sg6
S'https://open.spotify.com/track/0XLOf9LhyazPX9Ld8jPiUq'
p962
sg8
S'Fetish (feat. Gucci Mane)'
p963
ssS'0c1IZJa1ReeVZ5ZvOJwjih'
p964
(dp965
g3
S'Sigur\xc3\xb0ur Gu\xc3\xb0mundsson'
p966
sg5
I1
sg6
S'https://open.spotify.com/track/0c1IZJa1ReeVZ5ZvOJwjih'
p967
sg8
S'N\xc3\xba mega j\xc3\xb3lin koma fyrir m\xc3\xa9r'
p968
ssS'2lpw72PaY0VWyozH4Gfxqs'
p969
(dp970
g3
S'Hreimur'
p971
sg5
I1
sg6
S'https://open.spotify.com/track/2lpw72PaY0VWyozH4Gfxqs'
p972
sg8
S'\xc3\x8d dalnum'
p973
ssS'1yxgsra98r3qAtxqiGZPiX'
p974
(dp975
g3
S'Travis Scott'
p976
sg5
I21
sg6
S'https://open.spotify.com/track/1yxgsra98r3qAtxqiGZPiX'
p977
sg8
S'Butterfly Effect'
p978
ssS'7EiZI6JVHllARrX9PUvAdX'
p979
(dp980
g3
S'Future'
p981
sg5
I9
sg6
S'https://open.spotify.com/track/7EiZI6JVHllARrX9PUvAdX'
p982
sg8
S'Low Life'
p983
ssS'4JEJUYClyzDmyBuAdD1eiZ'
p984
(dp985
g3
S'Ragnhildur G\xc3\xadslad\xc3\xb3ttir'
p986
sg5
I1
sg6
S'https://open.spotify.com/track/4JEJUYClyzDmyBuAdD1eiZ'
p987
sg8
S'\xc3\x9eorl\xc3\xa1ksmessukv\xc3\xb6ld'
p988
ssS'4WrS6vezaPwOafKJmHqMEU'
p989
(dp990
g3
S'Jax Jones'
p991
sg5
I1
sg6
S'https://open.spotify.com/track/4WrS6vezaPwOafKJmHqMEU'
p992
sg8
S"You Don't Know Me - Radio Edit"
p993
ssS'6rDsVOrDMhOxYXoHbnRVto'
p994
(dp995
g3
S'Emmsj\xc3\xa9 Gauti'
p996
sg5
I11
sg6
S'https://open.spotify.com/track/6rDsVOrDMhOxYXoHbnRVto'
p997
sg8
S'\xc3\x93mar Ragnarsson'
p998
ssS'5i4d29OFzTuEif7UEikR1m'
p999
(dp1000
g3
S'Alexander Jarl'
p1001
sg5
I25
sg6
S'https://open.spotify.com/track/5i4d29OFzTuEif7UEikR1m'
p1002
sg8
S'P\xc3\xbala P\xc3\xbala'
p1003
ssS'50OuWHjxD7Ux6CRVt6OYNp'
p1004
(dp1005
g3
S'XXX Rottweiler hundar'
p1006
sg5
I42
sg6
S'https://open.spotify.com/track/50OuWHjxD7Ux6CRVt6OYNp'
p1007
sg8
S'Negla'
p1008
ssS'3A7qX2QjDlPnazUsRk5y0M'
p1009
(dp1010
g3
S'David Guetta'
p1011
sg5
I17
sg6
S'https://open.spotify.com/track/3A7qX2QjDlPnazUsRk5y0M'
p1012
sg8
S'2U (feat. Justin Bieber)'
p1013
ssS'6A8dnC0xkiuWN4BshmTB2I'
p1014
(dp1015
g3
S'A R I Z O N A'
p1016
sg5
I6
sg6
S'https://open.spotify.com/track/6A8dnC0xkiuWN4BshmTB2I'
p1017
sg8
S'Oceans Away'
p1018
ssS'2Tt7KUE1VdZvAPaON3XcGQ'
p1019
(dp1020
g3
S'Herra Hnetusmj\xc3\xb6r'
p1021
sg5
I42
sg6
S'https://open.spotify.com/track/2Tt7KUE1VdZvAPaON3XcGQ'
p1022
sg8
S'203 Stj\xc3\xb3rinn'
p1023
ssS'2OALaHcDdKkjYEpAr0Qzab'
p1024
(dp1025
g3
S'Avicii'
p1026
sg5
I9
sg6
S'https://open.spotify.com/track/2OALaHcDdKkjYEpAr0Qzab'
p1027
sg8
S'Lonely Together (feat. Rita Ora)'
p1028
ssS'56lBX2WHqfGuoeZxZvUnVj'
p1029
(dp1030
g3
S'Imagine Dragons'
p1031
sg5
I3
sg6
S'https://open.spotify.com/track/56lBX2WHqfGuoeZxZvUnVj'
p1032
sg8
S'Thunder'
p1033
ssS'0XfOi87h82i09rQjWYG0Bm'
p1034
(dp1035
g3
S'Jax Jones'
p1036
sg5
I5
sg6
S'https://open.spotify.com/track/0XfOi87h82i09rQjWYG0Bm'
p1037
sg8
S'Instruction (feat. Demi Lovato & Stefflon Don)'
p1038
ssS'1fwLg7UC2pbr8e7fALQncC'
p1039
(dp1040
g3
S'Aron Hannes'
p1041
sg5
I14
sg6
S'https://open.spotify.com/track/1fwLg7UC2pbr8e7fALQncC'
p1042
sg8
S'N\xc3\xb3tt'
p1043
ssS'28irpKCCK9nn9DZSik2zEx'
p1044
(dp1045
g3
S'Drake'
p1046
sg5
I3
sg6
S'https://open.spotify.com/track/28irpKCCK9nn9DZSik2zEx'
p1047
sg8
S'Glow'
p1048
ssS'5JUu0unA8VwhTZ9LkMWUVI'
p1049
(dp1050
g3
S'Drake'
p1051
sg5
I2
sg6
S'https://open.spotify.com/track/5JUu0unA8VwhTZ9LkMWUVI'
p1052
sg8
S'Since Way Back'
p1053
ssS'4NI7HN93zFEhmT9Rv11hdt'
p1054
(dp1055
g3
S'Land og synir'
p1056
sg5
I1
sg6
S'https://open.spotify.com/track/4NI7HN93zFEhmT9Rv11hdt'
p1057
sg8
S'J\xc3\xb3lasynir'
p1058
ssS'7fwXWKdDNI5IutOMc5OKYw'
p1059
(dp1060
g3
S'J Balvin'
p1061
sg5
I2
sg6
S'https://open.spotify.com/track/7fwXWKdDNI5IutOMc5OKYw'
p1062
sg8
S'Mi Gente (feat. Beyonc\xc3\xa9)'
p1063
ssS'3mGRGwcZbu63oYmTzjCi1t'
p1064
(dp1065
g3
S'Attan'
p1066
sg5
I33
sg6
S'https://open.spotify.com/track/3mGRGwcZbu63oYmTzjCi1t'
p1067
sg8
S'Neinei'
p1068
ssS'0cjvB01et2VpB5QgqiK7ly'
p1069
(dp1070
g3
S'J\xc3\xb3iP\xc3\xa9'
p1071
sg5
I2
sg6
S'https://open.spotify.com/track/0cjvB01et2VpB5QgqiK7ly'
p1072
sg8
S'H\xc3\xa6'
p1073
ssS'6C7RJEIUDqKkJRZVWdkfkH'
p1074
(dp1075
g3
S'Kanye West'
p1076
sg5
I12
sg6
S'https://open.spotify.com/track/6C7RJEIUDqKkJRZVWdkfkH'
p1077
sg8
S'Stronger'
p1078
ssS'0WCEaydwN65cvwaW8aqptF'
p1079
(dp1080
g3
S'Olivia Holt'
p1081
sg5
I15
sg6
S'https://open.spotify.com/track/0WCEaydwN65cvwaW8aqptF'
p1082
sg8
S'History'
p1083
ssS'3FiE2d325mIOc4YjkSLVJR'
p1084
(dp1085
g3
S'Ariana Grande'
p1086
sg5
I6
sg6
S'https://open.spotify.com/track/3FiE2d325mIOc4YjkSLVJR'
p1087
sg8
S'Everyday'
p1088
ssS'2bjwRfXMk4uRgOD9IBYl9h'
p1089
(dp1090
g3
S'Drake'
p1091
sg5
I19
sg6
S'https://open.spotify.com/track/2bjwRfXMk4uRgOD9IBYl9h'
p1092
sg8
S'Portland'
p1093
ssS'0FuTx2s3YH1ppmtiM6l0zI'
p1094
(dp1095
g3
S'JP Cooper'
p1096
sg5
I30
sg6
S'https://open.spotify.com/track/0FuTx2s3YH1ppmtiM6l0zI'
p1097
sg8
S'September Song'
p1098
ssS'0Zbbxnx4SGGHoIow4PpISP'
p1099
(dp1100
g3
S'Kygo'
p1101
sg5
I3
sg6
S'https://open.spotify.com/track/0Zbbxnx4SGGHoIow4PpISP'
p1102
sg8
S'Stargazing'
p1103
ssS'64BbK9SFKH2jk86U3dGj2P'
p1104
(dp1105
g3
S'Red Hot Chili Peppers'
p1106
sg5
I1
sg6
S'https://open.spotify.com/track/64BbK9SFKH2jk86U3dGj2P'
p1107
sg8
S'Otherside'
p1108
ssS'3BgrvYaXaaVuDxT9u0Rs1s'
p1109
(dp1110
g3
S'Chase'
p1111
sg5
I12
sg6
S'https://open.spotify.com/track/3BgrvYaXaaVuDxT9u0Rs1s'
p1112
sg8
S'\xc3\x89g Vil \xc3\x9ea\xc3\xb0'
p1113
ssS'66WPXyhXqMlkM1kZhyEXWK'
p1114
(dp1115
g3
S'Michael Bubl\xc3\xa9'
p1116
sg5
I1
sg6
S'https://open.spotify.com/track/66WPXyhXqMlkM1kZhyEXWK'
p1117
sg8
S'Christmas (Baby Please Come Home)'
p1118
ssS'5GFDrUTLGJix84sNhjCG0g'
p1119
(dp1120
g3
S'Amin\xc3\xa9'
p1121
sg5
I11
sg6
S'https://open.spotify.com/track/5GFDrUTLGJix84sNhjCG0g'
p1122
sg8
S'Caroline'
p1123
ssS'33B2QbtAj8mbDpwvGTOnBt'
p1124
(dp1125
g3
S'The xx'
p1126
sg5
I1
sg6
S'https://open.spotify.com/track/33B2QbtAj8mbDpwvGTOnBt'
p1127
sg8
S'Dangerous'
p1128
ssS'0azC730Exh71aQlOt9Zj3y'
p1129
(dp1130
g3
S'Calvin Harris'
p1131
sg5
I10
sg6
S'https://open.spotify.com/track/0azC730Exh71aQlOt9Zj3y'
p1132
sg8
S'This Is What You Came For'
p1133
ssS'57Y51hxqMn2j3dosW75R6n'
p1134
(dp1135
g3
S'Robin Bengtsson'
p1136
sg5
I11
sg6
S'https://open.spotify.com/track/57Y51hxqMn2j3dosW75R6n'
p1137
sg8
S'I Can\xc2\xb4t Go On'
p1138
ssS'2jyjhRf6DVbMPU5zxagN2h'
p1139
(dp1140
g3
S'Passenger'
p1141
sg5
I21
sg6
S'https://open.spotify.com/track/2jyjhRf6DVbMPU5zxagN2h'
p1142
sg8
S'Let Her Go'
p1143
ssS'7i2DJ88J7jQ8K7zqFX2fW8'
p1144
(dp1145
g3
S'Halsey'
p1146
sg5
I8
sg6
S'https://open.spotify.com/track/7i2DJ88J7jQ8K7zqFX2fW8'
p1147
sg8
S'Now Or Never'
p1148
ssS'3T7Dil6DmABypEgSrKrLnv'
p1149
(dp1150
g3
S'Bubbi Morthens'
p1151
sg5
I23
sg6
S'https://open.spotify.com/track/3T7Dil6DmABypEgSrKrLnv'
p1152
sg8
S'Afgan'
p1153
ssS'43ZyHQITOjhciSUUNPVRHc'
p1154
(dp1155
g3
S'Lil Pump'
p1156
sg5
I1
sg6
S'https://open.spotify.com/track/43ZyHQITOjhciSUUNPVRHc'
p1157
sg8
S'Gucci Gang'
p1158
ssS'234B6b9DD5A4EDHOIMjFQ5'
p1159
(dp1160
g3
S'Sturla Atlas'
p1161
sg5
I8
sg6
S'https://open.spotify.com/track/234B6b9DD5A4EDHOIMjFQ5'
p1162
sg8
S'Baltasar Korm\xc3\xa1kur'
p1163
ssS'0UmARFU2auLW5jJhGwd1Sc'
p1164
(dp1165
g3
S'\xc3\x9alfur \xc3\x9alfur'
p1166
sg5
I2
sg6
S'https://open.spotify.com/track/0UmARFU2auLW5jJhGwd1Sc'
p1167
sg8
S'M\xc3\xa1var'
p1168
ssS'5sNESr6pQfIhL3krM8CtZn'
p1169
(dp1170
g3
S'JAY Z'
p1171
sg5
I1
sg6
S'https://open.spotify.com/track/5sNESr6pQfIhL3krM8CtZn'
p1172
sg8
S'Numb / Encore'
p1173
ssS'68EMU2RD1ECNeOeJ5qAXCV'
p1174
(dp1175
g3
S'Charlie Puth'
p1176
sg5
I4
sg6
S'https://open.spotify.com/track/68EMU2RD1ECNeOeJ5qAXCV'
p1177
sg8
S"We Don't Talk Anymore (feat. Selena Gomez)"
p1178
ssS'7fURZRPkB2S70sYR1naKTK'
p1179
(dp1180
g3
S'Soundgarden'
p1181
sg5
I1
sg6
S'https://open.spotify.com/track/7fURZRPkB2S70sYR1naKTK'
p1182
sg8
S'Black Hole Sun'
p1183
ssS'7oUS55HQs7WDSQPHwV4JIc'
p1184
(dp1185
g3
S'Aron Hannes'
p1186
sg5
I7
sg6
S'https://open.spotify.com/track/7oUS55HQs7WDSQPHwV4JIc'
p1187
sg8
S'Tonight'
p1188
ssS'23C9ilWTtBiwH2d2mxjctL'
p1189
(dp1190
g3
S'Aron Can'
p1191
sg5
I18
sg6
S'https://open.spotify.com/track/23C9ilWTtBiwH2d2mxjctL'
p1192
sg8
S'\xc3\x89g Meina'
p1193
ssS'6vSwxzO2Qf4BinHSXRwZJe'
p1194
(dp1195
g3
S'Ed Sheeran'
p1196
sg5
I3
sg6
S'https://open.spotify.com/track/6vSwxzO2Qf4BinHSXRwZJe'
p1197
sg8
S'Tenerife Sea'
p1198
ssS'1cImYkHOQMFE7AZC9aOk4y'
p1199
(dp1200
g3
S'Bobby Helms'
p1201
sg5
I1
sg6
S'https://open.spotify.com/track/1cImYkHOQMFE7AZC9aOk4y'
p1202
sg8
S'Jingle Bell Rock'
p1203
ssS'2q6tgiA9tpb6DMguABwCWE'
p1204
(dp1205
g3
S'John Legend'
p1206
sg5
I8
sg6
S'https://open.spotify.com/track/2q6tgiA9tpb6DMguABwCWE'
p1207
sg8
S'All of Me'
p1208
ssS'39jfJXs2uYHmpU3zotxEkj'
p1209
(dp1210
g3
S'Aron Can'
p1211
sg5
I42
sg6
S'https://open.spotify.com/track/39jfJXs2uYHmpU3zotxEkj'
p1212
sg8
S'L\xc3\xadtur vel \xc3\xbat'
p1213
ssS'4VuS959DSpr82t3qBqCrWG'
p1214
(dp1215
g3
S'Ed Sheeran'
p1216
sg5
I9
sg6
S'https://open.spotify.com/track/4VuS959DSpr82t3qBqCrWG'
p1217
sg8
S'Supermarket Flowers'
p1218
ssS'1jQsKN68yE94tMYml0wHMd'
p1219
(dp1220
g3
S'Big Sean'
p1221
sg5
I4
sg6
S'https://open.spotify.com/track/1jQsKN68yE94tMYml0wHMd'
p1222
sg8
S'Jump Out The Window'
p1223
ssS'0Zx8khUcEfCFK2AEoIhC92'
p1224
(dp1225
g3
S'Snakehips'
p1226
sg5
I14
sg6
S'https://open.spotify.com/track/0Zx8khUcEfCFK2AEoIhC92'
p1227
sg8
S"Don't Leave"
p1228
ssS'15dnkAHcHC0vrIUlbiPiqU'
p1229
(dp1230
g3
S'Imagine Dragons'
p1231
sg5
I1
sg6
S'https://open.spotify.com/track/15dnkAHcHC0vrIUlbiPiqU'
p1232
sg8
S'I Don\xe2\x80\x99t Know Why'
p1233
ssS'7JGtJqhhjYCD4hqY8thjkL'
p1234
(dp1235
g3
S'Miquela'
p1236
sg5
I1
sg6
S'https://open.spotify.com/track/7JGtJqhhjYCD4hqY8thjkL'
p1237
sg8
S'Not Mine'
p1238
ssS'1XwTc4Haqffapk54g4q7JK'
p1239
(dp1240
g3
S'Aron Can'
p1241
sg5
I9
sg6
S'https://open.spotify.com/track/1XwTc4Haqffapk54g4q7JK'
p1242
sg8
S'\xc3\x89g Fer \xc3\x9at'
p1243
ssS'5YLN85avEpVxIB3FFfzHyb'
p1244
(dp1245
g3
S'Aron Can'
p1246
sg5
I19
sg6
S'https://open.spotify.com/track/5YLN85avEpVxIB3FFfzHyb'
p1247
sg8
S'Gruna\xc3\xb0ur'
p1248
ssS'7Dm3dV3WPNdTgxoNY7YFnc'
p1249
(dp1250
g3
S'Fleetwood Mac'
p1251
sg5
I1
sg6
S'https://open.spotify.com/track/7Dm3dV3WPNdTgxoNY7YFnc'
p1252
sg8
S'The Chain - Remastered'
p1253
ssS'3TmOwbq8umM9ZFHzT5jKFN'
p1254
(dp1255
g3
S'EGO'
p1256
sg5
I1
sg6
S'https://open.spotify.com/track/3TmOwbq8umM9ZFHzT5jKFN'
p1257
sg8
S'Fj\xc3\xb6llin hafa vaka\xc3\xb0'
p1258
ssS'33SNO8AaciGbNaQFkxvPrW'
p1259
(dp1260
g3
S'Harry Styles'
p1261
sg5
I1
sg6
S'https://open.spotify.com/track/33SNO8AaciGbNaQFkxvPrW'
p1262
sg8
S'Kiwi'
p1263
ssS'1Pg6jz1OTUPi4fEzdFjPNe'
p1264
(dp1265
g3
S'Sturla Atlas'
p1266
sg5
I7
sg6
S'https://open.spotify.com/track/1Pg6jz1OTUPi4fEzdFjPNe'
p1267
sg8
S'Keep It Cool'
p1268
ssS'6RUKPb4LETWmmr3iAEQktW'
p1269
(dp1270
g3
S'The Chainsmokers'
p1271
sg5
I33
sg6
S'https://open.spotify.com/track/6RUKPb4LETWmmr3iAEQktW'
p1272
sg8
S'Something Just Like This'
p1273
ssS'6n3HGiq4v35D6eFOSwqYuo'
p1274
(dp1275
g3
S'Drake'
p1276
sg5
I6
sg6
S'https://open.spotify.com/track/6n3HGiq4v35D6eFOSwqYuo'
p1277
sg8
S'Teenage Fever'
p1278
ssS'61WbtB6ujkpNAsAf5LjF4b'
p1279
(dp1280
g3
S'Katy Perry'
p1281
sg5
I8
sg6
S'https://open.spotify.com/track/61WbtB6ujkpNAsAf5LjF4b'
p1282
sg8
S'Bon app\xc3\xa9tit'
p1283
ssS'2bBMODHVTXGwE2aZYfbgCt'
p1284
(dp1285
g3
S'Gorillaz'
p1286
sg5
I2
sg6
S'https://open.spotify.com/track/2bBMODHVTXGwE2aZYfbgCt'
p1287
sg8
S'Ascension (feat. Vince Staples)'
p1288
ssS'0YHUITU3w6ws1v8ehT264g'
p1289
(dp1290
g3
S'Little Mix'
p1291
sg5
I1
sg6
S'https://open.spotify.com/track/0YHUITU3w6ws1v8ehT264g'
p1292
sg8
S'Shout Out to My Ex'
p1293
ssS'5yuShbu70mtHXY0yLzCQLQ'
p1294
(dp1295
g3
S'Post Malone'
p1296
sg5
I41
sg6
S'https://open.spotify.com/track/5yuShbu70mtHXY0yLzCQLQ'
p1297
sg8
S'Go Flex'
p1298
ssS'4NtcojKRdDC5AL9PtxlAQN'
p1299
(dp1300
g3
S'Dihaj'
p1301
sg5
I1
sg6
S'https://open.spotify.com/track/4NtcojKRdDC5AL9PtxlAQN'
p1302
sg8
S'Skeletons'
p1303
ssS'3AgaxVsVd6tDpixipxVpKC'
p1304
(dp1305
g3
S'Fri\xc3\xb0rik D\xc3\xb3r'
p1306
sg5
I12
sg6
S'https://open.spotify.com/track/3AgaxVsVd6tDpixipxVpKC'
p1307
sg8
S'Hli\xc3\xb0 vi\xc3\xb0 hli\xc3\xb0'
p1308
ssS'3tcoEYOZUHKB3RKNByIN13'
p1309
(dp1310
g3
S'Lil Uzi Vert'
p1311
sg5
I1
sg6
S'https://open.spotify.com/track/3tcoEYOZUHKB3RKNByIN13'
p1312
sg8
S'For Real'
p1313
ssS'1U28jY25dsRIT6tFcNUWfW'
p1314
(dp1315
g3
S'Aron Can'
p1316
sg5
I24
sg6
S'https://open.spotify.com/track/1U28jY25dsRIT6tFcNUWfW'
p1317
sg8
S'Sleikir \xc3\x81 \xc3\x9e\xc3\xa9r Varirnar Og Blikkar'
p1318
ssS'32DGGj6KlNuBr6WaqRxpxi'
p1319
(dp1320
g3
S'Charlie Puth'
p1321
sg5
I1
sg6
S'https://open.spotify.com/track/32DGGj6KlNuBr6WaqRxpxi'
p1322
sg8
S'How Long'
p1323
ssS'2XlHu0HcujBCkWMdIAvrqt'
p1324
(dp1325
g3
S'Drake'
p1326
sg5
I6
sg6
S'https://open.spotify.com/track/2XlHu0HcujBCkWMdIAvrqt'
p1327
sg8
S'Blem'
p1328
ssS'0UkUFLtmexBVKb4y64xT3n'
p1329
(dp1330
g3
S'Hj\xc3\xa1lmar'
p1331
sg5
I1
sg6
S'https://open.spotify.com/track/0UkUFLtmexBVKb4y64xT3n'
p1332
sg8
S'Lei\xc3\xb0in Okkar Allra'
p1333
ssS'5f5r2N4Lp9WoULWPH9zp2W'
p1334
(dp1335
g3
S'Drake'
p1336
sg5
I2
sg6
S'https://open.spotify.com/track/5f5r2N4Lp9WoULWPH9zp2W'
p1337
sg8
S"Can't Have Everything"
p1338
ssS'4vv1KjUzPwrtDbozizSfQc'
p1339
(dp1340
g3
S'DJ Khaled'
p1341
sg5
I1
sg6
S'https://open.spotify.com/track/4vv1KjUzPwrtDbozizSfQc'
p1342
sg8
S"Don't Quit"
p1343
ssS'6DwnAl6l63e83dDgIzY8P4'
p1344
(dp1345
g3
S'Michael Bubl\xc3\xa9'
p1346
sg5
I1
sg6
S'https://open.spotify.com/track/6DwnAl6l63e83dDgIzY8P4'
p1347
sg8
S'Santa Baby'
p1348
ssS'4Hp6GJYHQxhb3OyFicO79j'
p1349
(dp1350
g3
S'Rammstein'
p1351
sg5
I1
sg6
S'https://open.spotify.com/track/4Hp6GJYHQxhb3OyFicO79j'
p1352
sg8
S'MEIN TEIL'
p1353
ssS'5hYTyyh2odQKphUbMqc5gN'
p1354
(dp1355
g3
S'Alessia Cara'
p1356
sg5
I40
sg6
S'https://open.spotify.com/track/5hYTyyh2odQKphUbMqc5gN'
p1357
sg8
S"How Far I'll Go - From Moana"
p1358
ssS'7dTk4ipJLv2gkRtIHep3ph'
p1359
(dp1360
g3
S'R\xc3\xbanar Eff'
p1361
sg5
I1
sg6
S'https://open.spotify.com/track/7dTk4ipJLv2gkRtIHep3ph'
p1362
sg8
S'Make Your Way Back Home'
p1363
ssS'72jbDTw1piOOj770jWNeaG'
p1364
(dp1365
g3
S'The Chainsmokers'
p1366
sg5
I24
sg6
S'https://open.spotify.com/track/72jbDTw1piOOj770jWNeaG'
p1367
sg8
S'Paris'
p1368
ssS'12REd1n8PeiHHWOh066tpr'
p1369
(dp1370
g3
S'Flume'
p1371
sg5
I7
sg6
S'https://open.spotify.com/track/12REd1n8PeiHHWOh066tpr'
p1372
sg8
S'Never Be Like You'
p1373
ssS'6EpX7YW90hwIUDhZIsrgCg'
p1374
(dp1375
g3
S'Returning Visitors'
p1376
sg5
I1
sg6
S'https://open.spotify.com/track/6EpX7YW90hwIUDhZIsrgCg'
p1377
sg8
S'Snowed In'
p1378
ssS'7sO0dVFCfixpLshm4daMH3'
p1379
(dp1380
g3
S'Migos'
p1381
sg5
I1
sg6
S'https://open.spotify.com/track/7sO0dVFCfixpLshm4daMH3'
p1382
sg8
S'What The Price'
p1383
ssS'5ksGW0cX5szZAQlHzNoond'
p1384
(dp1385
g3
S'Joey Christ'
p1386
sg5
I2
sg6
S'https://open.spotify.com/track/5ksGW0cX5szZAQlHzNoond'
p1387
sg8
S'Hanga me\xc3\xb0 m\xc3\xa9r'
p1388
ssS'0Dxbgb8aUV9EHOGJF4MXQy'
p1389
(dp1390
g3
S'Helgi Bj\xc3\xb6rnsson'
p1391
sg5
I1
sg6
S'https://open.spotify.com/track/0Dxbgb8aUV9EHOGJF4MXQy'
p1392
sg8
S'Ef \xc3\xa9g nenni'
p1393
ssS'3crVlsyXyP4a9HD5WHE8Ri'
p1394
(dp1395
g3
S'Rammstein'
p1396
sg5
I1
sg6
S'https://open.spotify.com/track/3crVlsyXyP4a9HD5WHE8Ri'
p1397
sg8
S'PUSSY'
p1398
ssS'6XcQHCLNNJrJoi8T3W9kbM'
p1399
(dp1400
g3
S'Alexander Jarl'
p1401
sg5
I1
sg6
S'https://open.spotify.com/track/6XcQHCLNNJrJoi8T3W9kbM'
p1402
sg8
S'Gangsta Lean'
p1403
ssS'4oLuMvGQ4WJfU2s4OM6nfE'
p1404
(dp1405
g3
S'Migos'
p1406
sg5
I1
sg6
S'https://open.spotify.com/track/4oLuMvGQ4WJfU2s4OM6nfE'
p1407
sg8
S'Culture (feat. DJ Khaled)'
p1408
ssS'0VdA1RllN1AYt69df9vKOw'
p1409
(dp1410
g3
S'Vilhj\xc3\xa1lmur Vilhj\xc3\xa1lmsson'
p1411
sg5
I1
sg6
S'https://open.spotify.com/track/0VdA1RllN1AYt69df9vKOw'
p1412
sg8
S'J\xc3\xb3lin alls sta\xc3\xb0ar'
p1413
ssS'6p8NuHm8uCGnn2Dtbtf7zE'
p1414
(dp1415
g3
S'Migos'
p1416
sg5
I29
sg6
S'https://open.spotify.com/track/6p8NuHm8uCGnn2Dtbtf7zE'
p1417
sg8
S'Slippery (feat. Gucci Mane)'
p1418
ssS'2KvHC9z14GSl4YpkNMX384'
p1419
(dp1420
g3
S'Drake'
p1421
sg5
I3
sg6
S'https://open.spotify.com/track/2KvHC9z14GSl4YpkNMX384'
p1422
sg8
S'Do Not Disturb'
p1423
ssS'2gbCG4Rt9984UZ7Tc0dIFd'
p1424
(dp1425
g3
S'Michael Bubl\xc3\xa9'
p1426
sg5
I1
sg6
S'https://open.spotify.com/track/2gbCG4Rt9984UZ7Tc0dIFd'
p1427
sg8
S'White Christmas (Duet With Shania Twain)'
p1428
ssS'5e0RPsQUTQu0A29wqD6bZR'
p1429
(dp1430
g3
S'Future'
p1431
sg5
I1
sg6
S'https://open.spotify.com/track/5e0RPsQUTQu0A29wqD6bZR'
p1432
sg8
S'Super Trapper'
p1433
ssS'77lGafvlU68CeHgB2pkHC9'
p1434
(dp1435
g3
S'Machine Gun Kelly'
p1436
sg5
I2
sg6
S'https://open.spotify.com/track/77lGafvlU68CeHgB2pkHC9'
p1437
sg8
S'At My Best (feat. Hailee Steinfeld)'
p1438
ssS'0dA2Mk56wEzDgegdC6R17g'
p1439
(dp1440
g3
S'Zedd'
p1441
sg5
I29
sg6
S'https://open.spotify.com/track/0dA2Mk56wEzDgegdC6R17g'
p1442
sg8
S'Stay (with Alessia Cara)'
p1443
ssS'3kGfazcbVvVkuZunzlLgTD'
p1444
(dp1445
g3
S'Sigala'
p1446
sg5
I1
sg6
S'https://open.spotify.com/track/3kGfazcbVvVkuZunzlLgTD'
p1447
sg8
S'Came Here for Love'
p1448
ssS'59RR3auWejkJ6nk2jtHr6s'
p1449
(dp1450
g3
S'Rammstein'
p1451
sg5
I1
sg6
S'https://open.spotify.com/track/59RR3auWejkJ6nk2jtHr6s'
p1452
sg8
S'Mutter'
p1453
ssS'4QQQy4piBADsklMVcueNAH'
p1454
(dp1455
g3
S'J\xc3\xb3iP\xc3\xa9'
p1456
sg5
I5
sg6
S'https://open.spotify.com/track/4QQQy4piBADsklMVcueNAH'
p1457
sg8
S'O Shit'
p1458
ssS'3Ytr1SUCUi6J3L9dRFx5iH'
p1459
(dp1460
g3
S'Major Lazer'
p1461
sg5
I18
sg6
S'https://open.spotify.com/track/3Ytr1SUCUi6J3L9dRFx5iH'
p1462
sg8
S'Know No Better (feat. Quavo)'
p1463
ssS'5cXne3fQ8Q2vbSMwGjunM8'
p1464
(dp1465
g3
S'Andreas Weise'
p1466
sg5
I1
sg6
S'https://open.spotify.com/track/5cXne3fQ8Q2vbSMwGjunM8'
p1467
sg8
S'Before Christmas'
p1468
ssS'1VyKrDhT6DfjR6Z5DIdRlh'
p1469
(dp1470
g3
S'Kef Lav\xc3\xadk'
p1471
sg5
I5
sg6
S'https://open.spotify.com/track/1VyKrDhT6DfjR6Z5DIdRlh'
p1472
sg8
S'Lei\xc3\xb0irnar Til Himna'
p1473
ssS'2dR4Zz0NW9gFggNUFbtLEh'
p1474
(dp1475
g3
S'Fri\xc3\xb0rik D\xc3\xb3r'
p1476
sg5
I23
sg6
S'https://open.spotify.com/track/2dR4Zz0NW9gFggNUFbtLEh'
p1477
sg8
S'\xc3\x8d S\xc3\xad\xc3\xb0asta Skipti'
p1478
ssS'1OmcAT5Y8eg5bUPv9qJT4R'
p1479
(dp1480
g3
S'Post Malone'
p1481
sg5
I3
sg6
S'https://open.spotify.com/track/1OmcAT5Y8eg5bUPv9qJT4R'
p1482
sg8
S'rockstar'
p1483
ssS'1gb6riq7CCP5clGpSD0XPH'
p1484
(dp1485
g3
S'Future'
p1486
sg5
I1
sg6
S'https://open.spotify.com/track/1gb6riq7CCP5clGpSD0XPH'
p1487
sg8
S'Sorry'
p1488
ssS'1H36TxvcLvRrNO3qdGbE7b'
p1489
(dp1490
g3
S'Kristmundur Axel'
p1491
sg5
I8
sg6
S'https://open.spotify.com/track/1H36TxvcLvRrNO3qdGbE7b'
p1492
sg8
S'Hafekkert \xc3\xa1 mig'
p1493
ssS'6M0IsaUX4GNyto4niSegfI'
p1494
(dp1495
g3
S'Post Malone'
p1496
sg5
I3
sg6
S'https://open.spotify.com/track/6M0IsaUX4GNyto4niSegfI'
p1497
sg8
S'No Option'
p1498
ssS'13HVjjWUZFaWilh2QUJKsP'
p1499
(dp1500
g3
S'James Bay'
p1501
sg5
I42
sg6
S'https://open.spotify.com/track/13HVjjWUZFaWilh2QUJKsP'
p1502
sg8
S'Let It Go'
p1503
ssS'52BcFhIYD7mIajoeCHMHd9'
p1504
(dp1505
g3
S'Aron Can'
p1506
sg5
I42
sg6
S'https://open.spotify.com/track/52BcFhIYD7mIajoeCHMHd9'
p1507
sg8
S'Enginn M\xc3\xb3rall'
p1508
ssS'2vQwlW8H1jFveGNXwZfJCV'
p1509
(dp1510
g3
S'XXXTENTACION'
p1511
sg5
I3
sg6
S'https://open.spotify.com/track/2vQwlW8H1jFveGNXwZfJCV'
p1512
sg8
S'Dead Inside (Interlude)'
p1513
ssS'3eFJqPe8VUYrABbFjSauuj'
p1514
(dp1515
g3
g472
sg5
I1
sg6
S'https://open.spotify.com/track/3eFJqPe8VUYrABbFjSauuj'
p1516
sg8
g472
ssS'1qTunpCVEPPVhSSIv48POa'
p1517
(dp1518
g3
S'Baggal\xc3\xbatur'
p1519
sg5
I1
sg6
S'https://open.spotify.com/track/1qTunpCVEPPVhSSIv48POa'
p1520
sg8
S'Heims Um B\xc3\xb3ler\xc3\xb3'
p1521
ssS'5mzm7p4ECGgTtEOmPRS35G'
p1522
(dp1523
g3
S'Aron Can'
p1524
sg5
I11
sg6
S'https://open.spotify.com/track/5mzm7p4ECGgTtEOmPRS35G'
p1525
sg8
S'\xc3\x93\xc3\xbeekk'
p1526
ssS'63tlAnWPQ9boOESOoeGzW1'
p1527
(dp1528
g3
S'Hildur'
p1529
sg5
I10
sg6
S'https://open.spotify.com/track/63tlAnWPQ9boOESOoeGzW1'
p1530
sg8
S'Bammbaramm'
p1531
ssS'6D0b04NJIKfEMg040WioJQ'
p1532
(dp1533
g3
S'Julia Michaels'
p1534
sg5
I2
sg6
S'https://open.spotify.com/track/6D0b04NJIKfEMg040WioJQ'
p1535
sg8
S'Issues'
p1536
ssS'6eMyS9B54fDEqeC1s8RdDB'
p1537
(dp1538
g3
S'Aron Brink'
p1539
sg5
I8
sg6
S'https://open.spotify.com/track/6eMyS9B54fDEqeC1s8RdDB'
p1540
sg8
S'\xc3\x9e\xc3\xba hefur d\xc3\xa1leitt mig'
p1541
ssS'52v1iGENBFUdOTpQhvAhkk'
p1542
(dp1543
g3
S'Alexander Jarl'
p1544
sg5
I1
sg6
S'https://open.spotify.com/track/52v1iGENBFUdOTpQhvAhkk'
p1545
sg8
S'Ekki Testa'
p1546
ssS'3flmfwj5DuZ1lJJr4bzQpu'
p1547
(dp1548
g3
S'Sigur\xc3\xb0ur Gu\xc3\xb0mundsson'
p1549
sg5
I1
sg6
S'https://open.spotify.com/track/3flmfwj5DuZ1lJJr4bzQpu'
p1550
sg8
S'J\xc3\xb3lastjarnan'
p1551
ssS'3JFX47aXrRMcFPvAp5NXYa'
p1552
(dp1553
g3
S'Vilhj\xc3\xa1lmur Vilhj\xc3\xa1lmsson'
p1554
sg5
I1
sg6
S'https://open.spotify.com/track/3JFX47aXrRMcFPvAp5NXYa'
p1555
sg8
S'J\xc3\xb3lin koma'
p1556
ssS'4dVpf9jZjcORqGTLUaeYj9'
p1557
(dp1558
g3
S'A$AP Ferg'
p1559
sg5
I2
sg6
S'https://open.spotify.com/track/4dVpf9jZjcORqGTLUaeYj9'
p1560
sg8
S'Plain Jane'
p1561
ssS'5K6Sd9E6UusZTETKxUjPma'
p1562
(dp1563
g3
S'Laddi'
p1564
sg5
I1
sg6
S'https://open.spotify.com/track/5K6Sd9E6UusZTETKxUjPma'
p1565
sg8
S'Rokka\xc3\xb0 \xc3\xad kringum j\xc3\xb3latr\xc3\xa9\xc3\xb0'
p1566
ssS'4bHsxqR3GMrXTxEPLuK5ue'
p1567
(dp1568
g3
S'Journey'
p1569
sg5
I39
sg6
S'https://open.spotify.com/track/4bHsxqR3GMrXTxEPLuK5ue'
p1570
sg8
S"Don't Stop Believin'"
p1571
ssS'0N3W5peJUQtI4eyR6GJT5O'
p1572
(dp1573
g3
S'Kendrick Lamar'
p1574
sg5
I2
sg6
S'https://open.spotify.com/track/0N3W5peJUQtI4eyR6GJT5O'
p1575
sg8
S'King Kunta'
p1576
ssS'0D8ZpOXVjapLXrjz5VfZSD'
p1577
(dp1578
g3
S'Sam Smith'
p1579
sg5
I1
sg6
S'https://open.spotify.com/track/0D8ZpOXVjapLXrjz5VfZSD'
p1580
sg8
S'Pray'
p1581
ssS'76Y0gxtTxN0FyDCYh5qYQj'
p1582
(dp1583
g3
S'Migos'
p1584
sg5
I15
sg6
S'https://open.spotify.com/track/76Y0gxtTxN0FyDCYh5qYQj'
p1585
sg8
S'Get Right Witcha'
p1586
ssS'3fa5XJLuZH68rUt1zUvqVh'
p1587
(dp1588
g3
S'Joey Christ'
p1589
sg5
I1
sg6
S'https://open.spotify.com/track/3fa5XJLuZH68rUt1zUvqVh'
p1590
sg8
S'\xc3\x8dsland'
p1591
ssS'542Xd5qDeLBvgXZXhfW7LE'
p1592
(dp1593
g3
S'Vice'
p1594
sg5
I1
sg6
S'https://open.spotify.com/track/542Xd5qDeLBvgXZXhfW7LE'
p1595
sg8
S'Obsession (feat. Jon Bellion)'
p1596
ssS'634JArk1AoXtts5DVdd4p2'
p1597
(dp1598
g3
S'Rammstein'
p1599
sg5
I1
sg6
S'https://open.spotify.com/track/634JArk1AoXtts5DVdd4p2'
p1600
sg8
S'Feuer frei!'
p1601
ssS'0jOfl1nZf6sVBTG08Q4brn'
p1602
(dp1603
g3
S'Migos'
p1604
sg5
I2
sg6
S'https://open.spotify.com/track/0jOfl1nZf6sVBTG08Q4brn'
p1605
sg8
S'Call Casting'
p1606
ssS'7l9CE3wmEGOUYw1j4ETjnL'
p1607
(dp1608
g3
S'Gorillaz'
p1609
sg5
I4
sg6
S'https://open.spotify.com/track/7l9CE3wmEGOUYw1j4ETjnL'
p1610
sg8
S'Saturnz Barz (feat. Popcaan)'
p1611
ssS'343YBumqHu19cGoGARUTsd'
p1612
(dp1613
g3
S'Drake'
p1614
sg5
I32
sg6
S'https://open.spotify.com/track/343YBumqHu19cGoGARUTsd'
p1615
sg8
S'Fake Love'
p1616
ssS'5HDPtsnyb3maFmPL8LLUTG'
p1617
(dp1618
g3
S'Ed Sheeran'
p1619
sg5
I8
sg6
S'https://open.spotify.com/track/5HDPtsnyb3maFmPL8LLUTG'
p1620
sg8
S'New Man'
p1621
ssS'4w7yrP4RAeeyhfG9nJqQvS'
p1622
(dp1623
g3
S'Big Sean'
p1624
sg5
I1
sg6
S'https://open.spotify.com/track/4w7yrP4RAeeyhfG9nJqQvS'
p1625
sg8
S"I Don't Fuck With You"
p1626
ssS'0Skpofj44N2m60sa74Aufz'
p1627
(dp1628
g3
S'P\xc3\xa1pai Joci'
p1629
sg5
I2
sg6
S'https://open.spotify.com/track/0Skpofj44N2m60sa74Aufz'
p1630
sg8
S'Origo - Eurovision Version'
p1631
ssS'1DnSNqCQM3LUxqFuXt184Q'
p1632
(dp1633
g3
S'Michael Bubl\xc3\xa9'
p1634
sg5
I1
sg6
S'https://open.spotify.com/track/1DnSNqCQM3LUxqFuXt184Q'
p1635
sg8
S'Have Yourself A Merry Little Christmas'
p1636
ssS'5uDASfU19gDxSjW8cnCaBp'
p1637
(dp1638
g3
S'Rob $tone'
p1639
sg5
I7
sg6
S'https://open.spotify.com/track/5uDASfU19gDxSjW8cnCaBp'
p1640
sg8
S'Chill Bill'
p1641
ssS'2QJhvkLCoBEHjgxdVlZDng'
p1642
(dp1643
g3
S'Sverrir Bergmann'
p1644
sg5
I5
sg6
S'https://open.spotify.com/track/2QJhvkLCoBEHjgxdVlZDng'
p1645
sg8
S'\xc3\x81n \xc3\xbe\xc3\xadn'
p1646
ssS'4pdPtRcBmOSQDlJ3Fk945m'
p1647
(dp1648
g3
S'DJ Snake'
p1649
sg5
I35
sg6
S'https://open.spotify.com/track/4pdPtRcBmOSQDlJ3Fk945m'
p1650
sg8
S'Let Me Love You'
p1651
ssS'42fhNXhZERZihfrsNUIlUu'
p1652
(dp1653
g3
S'Da\xc3\xb0i Freyr P\xc3\xa9tursson'
p1654
sg5
I20
sg6
S'https://open.spotify.com/track/42fhNXhZERZihfrsNUIlUu'
p1655
sg8
S'Hva\xc3\xb0 me\xc3\xb0 \xc3\xbea\xc3\xb0?'
p1656
ssS'0jse5Xyee8KhfsZYsib0WM'
p1657
(dp1658
g3
S'P\xc3\xa1lmi Gunnarsson'
p1659
sg5
I1
sg6
S'https://open.spotify.com/track/0jse5Xyee8KhfsZYsib0WM'
p1660
sg8
S'Yfir fannhv\xc3\xadta j\xc3\xb6r\xc3\xb0'
p1661
ssS'5qdaaB2RYHohGB1vglLuAf'
p1662
(dp1663
g3
S'Future'
p1664
sg5
I1
sg6
S'https://open.spotify.com/track/5qdaaB2RYHohGB1vglLuAf'
p1665
sg8
S'Lookin Exotic'
p1666
ssS'6H0AwSQ20mo62jGlPGB8S6'
p1667
(dp1668
g3
S'2 Chainz'
p1669
sg5
I3
sg6
S'https://open.spotify.com/track/6H0AwSQ20mo62jGlPGB8S6'
p1670
sg8
S"It's A Vibe"
p1671
ssS'1OAiWI2oPmglaOiv9fdioU'
p1672
(dp1673
g3
S'Coldplay'
p1674
sg5
I5
sg6
S'https://open.spotify.com/track/1OAiWI2oPmglaOiv9fdioU'
p1675
sg8
S'Hymn For The Weekend - Seeb Remix'
p1676
ssS'17ywqVK0nuuT3eBjEQltxA'
p1677
(dp1678
g3
S'J\xc3\xb3iP\xc3\xa9'
p1679
sg5
I4
sg6
S'https://open.spotify.com/track/17ywqVK0nuuT3eBjEQltxA'
p1680
sg8
S'Draums\xc3\xbdn'
p1681
ssS'7LEydI5NfjY6mZfKwYIptZ'
p1682
(dp1683
g3
S'Fifth Harmony'
p1684
sg5
I12
sg6
S'https://open.spotify.com/track/7LEydI5NfjY6mZfKwYIptZ'
p1685
sg8
S'Down'
p1686
ssS'2Na0z2gfN67Rzf0vp74Wi3'
p1687
(dp1688
g3
S'Drake'
p1689
sg5
I2
sg6
S'https://open.spotify.com/track/2Na0z2gfN67Rzf0vp74Wi3'
p1690
sg8
S'Lose You'
p1691
ssS'3WKzPqbHjr3l0hflRHTOvZ'
p1692
(dp1693
g3
S'Bj\xc3\xb6rgvin Halld\xc3\xb3rsson'
p1694
sg5
I1
sg6
S'https://open.spotify.com/track/3WKzPqbHjr3l0hflRHTOvZ'
p1695
sg8
S'Sn\xc3\xa6finnur snj\xc3\xb3karl'
p1696
ssS'2RCp9QBnFSxdKe8RD4xF8s'
p1697
(dp1698
g3
S'Gorillaz'
p1699
sg5
I1
sg6
S'https://open.spotify.com/track/2RCp9QBnFSxdKe8RD4xF8s'
p1700
sg8
S'Momentz (feat. De La Soul)'
p1701
ssS'3WlVSHIFMMLQy9A2JPYnkA'
p1702
(dp1703
g3
S'Herra Hnetusmj\xc3\xb6r'
p1704
sg5
I1
sg6
S'https://open.spotify.com/track/3WlVSHIFMMLQy9A2JPYnkA'
p1705
sg8
S'\xc3\x9eanga\xc3\xb0 til (\xc3\xa1samt Joe Frazier)'
p1706
ssS'7nZmah2llfvLDiUjm0kiyz'
p1707
(dp1708
g3
S'Justin Bieber'
p1709
sg5
I8
sg6
S'https://open.spotify.com/track/7nZmah2llfvLDiUjm0kiyz'
p1710
sg8
S'Friends (with BloodPop\xc2\xae)'
p1711
ssS'0CytLwvZgGqEXmM4yBLGyv'
p1712
(dp1713
g3
S'J\xc3\xb3iP\xc3\xa9'
p1714
sg5
I1
sg6
S'https://open.spotify.com/track/0CytLwvZgGqEXmM4yBLGyv'
p1715
sg8
S'Hverfandi'
p1716
ssS'5OOkp4U9P9oL23maHFHL1h'
p1717
(dp1718
g3
S'Desiigner'
p1719
sg5
I32
sg6
S'https://open.spotify.com/track/5OOkp4U9P9oL23maHFHL1h'
p1720
sg8
S'Panda'
p1721
ssS'14NwRQ6fnnoSfjeaHRZqz1'
p1722
(dp1723
g3
S'Rammstein'
p1724
sg5
I1
sg6
S'https://open.spotify.com/track/14NwRQ6fnnoSfjeaHRZqz1'
p1725
sg8
S'Ich will'
p1726
ssS'7y6c07pgjZvtHI9kuMVqk1'
p1727
(dp1728
g3
S'Drake'
p1729
sg5
I6
sg6
S'https://open.spotify.com/track/7y6c07pgjZvtHI9kuMVqk1'
p1730
sg8
S'Get It Together'
p1731
ssS'3tAg5SGPaQmXuLdYlsp7QI'
p1732
(dp1733
g3
S'Michael Bubl\xc3\xa9'
p1734
sg5
I1
sg6
S'https://open.spotify.com/track/3tAg5SGPaQmXuLdYlsp7QI'
p1735
sg8
S'Ave Maria'
p1736
ssS'4ckuS4Nj4FZ7i3Def3Br8W'
p1737
(dp1738
g3
S'Drake'
p1739
sg5
I12
sg6
S'https://open.spotify.com/track/4ckuS4Nj4FZ7i3Def3Br8W'
p1740
sg8
S'Sneakin\xe2\x80\x99'
p1741
ssS'5RCfvwDewu6p2x1mEI6smX'
p1742
(dp1743
g3
S'Tay-K'
p1744
sg5
I5
sg6
S'https://open.spotify.com/track/5RCfvwDewu6p2x1mEI6smX'
p1745
sg8
S'The Race'
p1746
ssS'4iuCDuVg5zzBfH8pRZBdlH'
p1747
(dp1748
g3
S'Joey Christ'
p1749
sg5
I1
sg6
S'https://open.spotify.com/track/4iuCDuVg5zzBfH8pRZBdlH'
p1750
sg8
S'Honda Jazz Music'
p1751
ssS'1WIZiOuNO3woKfdlSK2gNn'
p1752
(dp1753
g3
S'Kodak Black'
p1754
sg5
I3
sg6
S'https://open.spotify.com/track/1WIZiOuNO3woKfdlSK2gNn'
p1755
sg8
S"Transportin'"
p1756
ssS'2zbmDpdYTZVjURIBdnq9Gg'
p1757
(dp1758
g3
S'Gkr'
p1759
sg5
I8
sg6
S'https://open.spotify.com/track/2zbmDpdYTZVjURIBdnq9Gg'
p1760
sg8
S'Tala Um'
p1761
ssS'79cuOz3SPQTuFrp8WgftAu'
p1762
(dp1763
g3
S'Shawn Mendes'
p1764
sg5
I25
sg6
S'https://open.spotify.com/track/79cuOz3SPQTuFrp8WgftAu'
p1765
sg8
S"There's Nothing Holdin' Me Back"
p1766
ssS'4c2W3VKsOFoIg2SFaO6DY5'
p1767
(dp1768
g3
S'Rita Ora'
p1769
sg5
I20
sg6
S'https://open.spotify.com/track/4c2W3VKsOFoIg2SFaO6DY5'
p1770
sg8
S'Your Song'
p1771
ssS'0lmdsH1MIoLsMymnNpd6HU'
p1772
(dp1773
g3
S'Dante Klein'
p1774
sg5
I6
sg6
S'https://open.spotify.com/track/0lmdsH1MIoLsMymnNpd6HU'
p1775
sg8
S'Let Me Hold You (Turn Me On)'
p1776
ssS'4ARPvK8DHLwt4oX65ZAFMw'
p1777
(dp1778
g3
S'XXXTENTACION'
p1779
sg5
I30
sg6
S'https://open.spotify.com/track/4ARPvK8DHLwt4oX65ZAFMw'
p1780
sg8
S'Look At Me!'
p1781
ssS'3ebXMykcMXOcLeJ9xZ17XH'
p1782
(dp1783
g3
S'Martin Garrix'
p1784
sg5
I31
sg6
S'https://open.spotify.com/track/3ebXMykcMXOcLeJ9xZ17XH'
p1785
sg8
S'Scared to Be Lonely'
p1786
ssS'4WOTmeHZRCOy0O6vlJv0AY'
p1787
(dp1788
g3
S'Herra Hnetusmj\xc3\xb6r'
p1789
sg5
I39
sg6
S'https://open.spotify.com/track/4WOTmeHZRCOy0O6vlJv0AY'
p1790
sg8
S'J\xc3\xa1marh (\xc3\xa1samt Joe Frazier)'
p1791
ssS'3UjJP4ludb74a29P5EHEIo'
p1792
(dp1793
g3
S'Sabrina Carpenter'
p1794
sg5
I2
sg6
S'https://open.spotify.com/track/3UjJP4ludb74a29P5EHEIo'
p1795
sg8
S'Thumbs'
p1796
ssS'2xI4CmkT6Bl4s5b4qggcgU'
p1797
(dp1798
g3
S'Isaiah'
p1799
sg5
I5
sg6
S'https://open.spotify.com/track/2xI4CmkT6Bl4s5b4qggcgU'
p1800
sg8
S"Don't Come Easy"
p1801
ssS'5vkb3Ge41fnn8YiYNaVcES'
p1802
(dp1803
g3
S'P\xc3\xa1ll \xc3\x93skar'
p1804
sg5
I2
sg6
S'https://open.spotify.com/track/5vkb3Ge41fnn8YiYNaVcES'
p1805
sg8
S'La Dolce Vita (Aukalag)'
p1806
ssS'4zEULD8iaJhK3Cs8oVkMSx'
p1807
(dp1808
g3
S'Slavko Kalezi\xc4\x87'
p1809
sg5
I1
sg6
S'https://open.spotify.com/track/4zEULD8iaJhK3Cs8oVkMSx'
p1810
sg8
S'Space'
p1811
ssS'5dwUbAB8YvBey0lP92gdMd'
p1812
(dp1813
g3
S'Olly Murs'
p1814
sg5
I2
sg6
S'https://open.spotify.com/track/5dwUbAB8YvBey0lP92gdMd'
p1815
sg8
S'Grow Up'
p1816
ssS'49QU7ilDChdLjgopx4rzax'
p1817
(dp1818
g3
S'Hj\xc3\xa1lmar'
p1819
sg5
I2
sg6
S'https://open.spotify.com/track/49QU7ilDChdLjgopx4rzax'
p1820
sg8
S'Lei\xc3\xb0in okkar allra'
p1821
ssS'3eR23VReFzcdmS7TYCrhCe'
p1822
(dp1823
g3
S'Kygo'
p1824
sg5
I33
sg6
S'https://open.spotify.com/track/3eR23VReFzcdmS7TYCrhCe'
p1825
sg8
S"It Ain't Me (with Selena Gomez)"
p1826
ssS'2eAZfqOm4EnOF9VvN50Tyc'
p1827
(dp1828
g3
S'Lil Uzi Vert'
p1829
sg5
I7
sg6
S'https://open.spotify.com/track/2eAZfqOm4EnOF9VvN50Tyc'
p1830
sg8
S'The Way Life Goes'
p1831
ssS'5wihevBA7MO9PNYyWyTfkh'
p1832
(dp1833
g3
S'Migos'
p1834
sg5
I1
sg6
S'https://open.spotify.com/track/5wihevBA7MO9PNYyWyTfkh'
p1835
sg8
S'Brown Paper Bag'
p1836
ssS'3LnOF5n1GOs01siYZXzS3p'
p1837
(dp1838
g3
S'A Boogie Wit da Hoodie'
p1839
sg5
I3
sg6
S'https://open.spotify.com/track/3LnOF5n1GOs01siYZXzS3p'
p1840
sg8
S'Drowning (feat. Kodak Black)'
p1841
ssS'0zMzyHAeMvwq5CRstru1Fp'
p1842
(dp1843
g3
S'Ruth B.'
p1844
sg5
I7
sg6
S'https://open.spotify.com/track/0zMzyHAeMvwq5CRstru1Fp'
p1845
sg8
S'Lost Boy'
p1846
ssS'2gOGEC1wXKjcIEzq7OOfYK'
p1847
(dp1848
g3
S'Herra Hnetusmj\xc3\xb6r'
p1849
sg5
I11
sg6
S'https://open.spotify.com/track/2gOGEC1wXKjcIEzq7OOfYK'
p1850
sg8
S'Kling Kling'
p1851
ssS'2MPv2lOStdWYpsLn0ShfxN'
p1852
(dp1853
g3
S'Floni'
p1854
sg5
I19
sg6
S'https://open.spotify.com/track/2MPv2lOStdWYpsLn0ShfxN'
p1855
sg8
S'Tala Saman'
p1856
ssS'6jA8HL9i4QGzsj6fjoxp8Y'
p1857
(dp1858
g3
S'Martin Garrix'
p1859
sg5
I16
sg6
S'https://open.spotify.com/track/6jA8HL9i4QGzsj6fjoxp8Y'
p1860
sg8
S'There for You'
p1861
ssS'4cg1yakyRSIOjxKM2I7J1q'
p1862
(dp1863
g3
S'Young Thug'
p1864
sg5
I2
sg6
S'https://open.spotify.com/track/4cg1yakyRSIOjxKM2I7J1q'
p1865
sg8
S'Digits'
p1866
ssS'3SEXErfudHyJjyoMOzIYZT'
p1867
(dp1868
g3
S'\xc3\x9alfur \xc3\x9alfur'
p1869
sg5
I3
sg6
S'https://open.spotify.com/track/3SEXErfudHyJjyoMOzIYZT'
p1870
sg8
S'15'
p1871
ssS'0OVZ8OwRl76tEKgrqHYJPu'
p1872
(dp1873
g3
S'Aron Can'
p1874
sg5
I9
sg6
S'https://open.spotify.com/track/0OVZ8OwRl76tEKgrqHYJPu'
p1875
sg8
S'Geri \xc3\x9eetta Allt'
p1876
ssS'4L58FgCh0T0WNG0UIqxK4E'
p1877
(dp1878
g3
S'Rammstein'
p1879
sg5
I1
sg6
S'https://open.spotify.com/track/4L58FgCh0T0WNG0UIqxK4E'
p1880
sg8
S'Engel'
p1881
ssS'1AhDOtG9vPSOmsWgNW0BEY'
p1882
(dp1883
g3
S'Queen'
p1884
sg5
I7
sg6
S'https://open.spotify.com/track/1AhDOtG9vPSOmsWgNW0BEY'
p1885
sg8
S'Bohemian Rhapsody - Remastered 2011'
p1886
ssS'5bZtRlMBU76vHuDOb1GM5u'
p1887
(dp1888
g3
S'Jonas Blue'
p1889
sg5
I1
sg6
S'https://open.spotify.com/track/5bZtRlMBU76vHuDOb1GM5u'
p1890
sg8
S'Perfect Strangers'
p1891
ssS'0frG72LF2FPekIHez4SbCt'
p1892
(dp1893
g3
S'Huginn'
p1894
sg5
I1
sg6
S'https://open.spotify.com/track/0frG72LF2FPekIHez4SbCt'
p1895
sg8
S'Gef\xc3\xb0u M\xc3\xa9r Einn'
p1896
ssS'32zhF8yXc1lej5EcudJXp7'
p1897
(dp1898
g3
S'Lil Pump'
p1899
sg5
I1
sg6
S'https://open.spotify.com/track/32zhF8yXc1lej5EcudJXp7'
p1900
sg8
S'Back (feat. Lil Yachty)'
p1901
ssS'32lgtADX2cB9I4KFs1Y1py'
p1902
(dp1903
g3
S'The Weeknd'
p1904
sg5
I2
sg6
S'https://open.spotify.com/track/32lgtADX2cB9I4KFs1Y1py'
p1905
sg8
S'False Alarm'
p1906
ssS'6TIU9Ehmi6dMzZK73Ym4yj'
p1907
(dp1908
g3
S'Ed Sheeran'
p1909
sg5
I5
sg6
S'https://open.spotify.com/track/6TIU9Ehmi6dMzZK73Ym4yj'
p1910
sg8
S'Save Myself'
p1911
ssS'7taXf5odg9xCAZERYfyOkS'
p1912
(dp1913
g3
S'Jos\xc3\xa9 Feliciano'
p1914
sg5
I1
sg6
S'https://open.spotify.com/track/7taXf5odg9xCAZERYfyOkS'
p1915
sg8
S'Feliz Navidad'
p1916
ssS'5N6Oj5rlYlOXkXYt89c3Gy'
p1917
(dp1918
g3
S'Aron Can'
p1919
sg5
I11
sg6
S'https://open.spotify.com/track/5N6Oj5rlYlOXkXYt89c3Gy'
p1920
sg8
S'Geri Ekki Neitt (feat. Unnsteinn)'
p1921
ssS'13e6f8t7RKXuxZ0JdaaJRG'
p1922
(dp1923
g3
S'Drake'
p1924
sg5
I3
sg6
S'https://open.spotify.com/track/13e6f8t7RKXuxZ0JdaaJRG'
p1925
sg8
S'Jorja Interlude'
p1926
ssS'1QgTBfRN5m81a5K01qens6'
p1927
(dp1928
g3
S'Lil Uzi Vert'
p1929
sg5
I2
sg6
S'https://open.spotify.com/track/1QgTBfRN5m81a5K01qens6'
p1930
sg8
S'444+222'
p1931
ssS'3hRZsdTF5uyGA2uhNqEuhm'
p1932
(dp1933
g3
S'Niall Horan'
p1934
sg5
I4
sg6
S'https://open.spotify.com/track/3hRZsdTF5uyGA2uhNqEuhm'
p1935
sg8
S'Too Much To Ask'
p1936
ssS'1Lj3IxnXEMEULqW400cjio'
p1937
(dp1938
g3
S'Emmsj\xc3\xa9 Gauti'
p1939
sg5
I42
sg6
S'https://open.spotify.com/track/1Lj3IxnXEMEULqW400cjio'
p1940
sg8
S'Svona er \xc3\xbeetta'
p1941
ssS'37NZqOoR0dw71kbDCRnsKc'
p1942
(dp1943
g3
S"Lil' Kleine"
p1944
sg5
I5
sg6
S'https://open.spotify.com/track/37NZqOoR0dw71kbDCRnsKc'
p1945
sg8
S'Drank & Drugs'
p1946
ssS'3Et6zmwvQykNjZ5BJzXLug'
p1947
(dp1948
g3
S'Fri\xc3\xb0rik D\xc3\xb3r'
p1949
sg5
I41
sg6
S'https://open.spotify.com/track/3Et6zmwvQykNjZ5BJzXLug'
p1950
sg8
S'Sk\xc3\xa1l Fyrir \xc3\xbe\xc3\xa9r'
p1951
ssS'2mfUa8bLs2s5N4VaqJZ4lZ'
p1952
(dp1953
g3
S'Hailee Steinfeld'
p1954
sg5
I20
sg6
S'https://open.spotify.com/track/2mfUa8bLs2s5N4VaqJZ4lZ'
p1955
sg8
S'Most Girls'
p1956
ssS'4aWmUDTfIPGksMNLV2rQP2'
p1957
(dp1958
g3
S'Luis Fonsi'
p1959
sg5
I34
sg6
S'https://open.spotify.com/track/4aWmUDTfIPGksMNLV2rQP2'
p1960
sg8
S'Despacito (Featuring Daddy Yankee)'
p1961
ssS'58zsLZPvfflaiIbNWoA22O'
p1962
(dp1963
g3
S"Rag'n'Bone Man"
p1964
sg5
I27
sg6
S'https://open.spotify.com/track/58zsLZPvfflaiIbNWoA22O'
p1965
sg8
S'Human'
p1966
ssS'35QZaWQRkmnAVqBF1TLCxQ'
p1967
(dp1968
g3
S'Ed Sheeran'
p1969
sg5
I6
sg6
S'https://open.spotify.com/track/35QZaWQRkmnAVqBF1TLCxQ'
p1970
sg8
S'Nancy Mulligan'
p1971
ssS'60APt5N2NRaKWf5xzJdzyC'
p1972
(dp1973
g3
S'Calvin Harris'
p1974
sg5
I4
sg6
S'https://open.spotify.com/track/60APt5N2NRaKWf5xzJdzyC'
p1975
sg8
S'Heatstroke'
p1976
ssS'2cx4iaLF05RyNUSlm0p3y4'
p1977
(dp1978
g3
S'Attan'
p1979
sg5
I21
sg6
S'https://open.spotify.com/track/2cx4iaLF05RyNUSlm0p3y4'
p1980
sg8
S'Ekki Seena'
p1981
ssS'25C5CowdsfXld2jJanbiex'
p1982
(dp1983
g3
S'Demi Lovato'
p1984
sg5
I11
sg6
S'https://open.spotify.com/track/25C5CowdsfXld2jJanbiex'
p1985
sg8
S'Sorry Not Sorry'
p1986
ssS'3fH99yfNoNuPaoZ1LNO57M'
p1987
(dp1988
g3
S'Alexander Jarl'
p1989
sg5
I16
sg6
S'https://open.spotify.com/track/3fH99yfNoNuPaoZ1LNO57M'
p1990
sg8
S'L\xc3\xa1ttu \xc3\x8d Fri\xc3\xb0i'
p1991
ssS'4OHcOwKv38RiGhWuTwPXIE'
p1992
(dp1993
g3
S'Sigur\xc3\xb0ur Gu\xc3\xb0mundsson'
p1994
sg5
I1
sg6
S'https://open.spotify.com/track/4OHcOwKv38RiGhWuTwPXIE'
p1995
sg8
S'J\xc3\xb3lin eru h\xc3\xa9r'
p1996
ssS'2Z8WuEywRWYTKe1NybPQEW'
p1997
(dp1998
g3
S'Twenty One Pilots'
p1999
sg5
I5
sg6
S'https://open.spotify.com/track/2Z8WuEywRWYTKe1NybPQEW'
p2000
sg8
S'Ride'
p2001
ssS'1fEl5TPKRJAsuP6TqZ23hB'
p2002
(dp2003
g3
S'Lil Pump'
p2004
sg5
I1
sg6
S'https://open.spotify.com/track/1fEl5TPKRJAsuP6TqZ23hB'
p2005
sg8
S'D Rose'
p2006
ssS'4WiK8hgPt5QgwGdt9z7MrJ'
p2007
(dp2008
g3
S'Emmsj\xc3\xa9 Gauti'
p2009
sg5
I42
sg6
S'https://open.spotify.com/track/4WiK8hgPt5QgwGdt9z7MrJ'
p2010
sg8
S'\xc3\x9eetta m\xc3\xa1'
p2011
ssS'52okn5MNA47tk87PeZJLEL'
p2012
(dp2013
g3
S'NF'
p2014
sg5
I1
sg6
S'https://open.spotify.com/track/52okn5MNA47tk87PeZJLEL'
p2015
sg8
S'Let You Down'
p2016
ssS'2IjdadUTHEJziiFkFMq48t'
p2017
(dp2018
g3
S'Helga M\xc3\xb6ller'
p2019
sg5
I1
sg6
S'https://open.spotify.com/track/2IjdadUTHEJziiFkFMq48t'
p2020
sg8
S'Heima um j\xc3\xb3lin'
p2021
ssS'3d9DChrdc6BOeFsbrZ3Is0'
p2022
(dp2023
g3
S'Red Hot Chili Peppers'
p2024
sg5
I1
sg6
S'https://open.spotify.com/track/3d9DChrdc6BOeFsbrZ3Is0'
p2025
sg8
S'Under The Bridge'
p2026
ssS'6JV2JOEocMgcZxYSZelKcc'
p2027
(dp2028
g3
S'Justin Timberlake'
p2029
sg5
I42
sg6
S'https://open.spotify.com/track/6JV2JOEocMgcZxYSZelKcc'
p2030
sg8
S"CAN'T STOP THE FEELING! (Original Song from DreamWorks Animation's TROLLS)"
p2031
ssS'05KOgYg8PGeJyyWBPi5ja8'
p2032
(dp2033
g3
S'Drake'
p2034
sg5
I4
sg6
S'https://open.spotify.com/track/05KOgYg8PGeJyyWBPi5ja8'
p2035
sg8
S'Free Smoke'
p2036
ssS'1D3ODoXHBLpdxolZRHWV1j'
p2037
(dp2038
g3
S'Jonas Blue'
p2039
sg5
I5
sg6
S'https://open.spotify.com/track/1D3ODoXHBLpdxolZRHWV1j'
p2040
sg8
S'By Your Side'
p2041
ssS'7aV2mflaASUmGhCErm7kBO'
p2042
(dp2043
g3
S'Nevada'
p2044
sg5
I6
sg6
S'https://open.spotify.com/track/7aV2mflaASUmGhCErm7kBO'
p2045
sg8
S'The Mack'
p2046
ssS'0bYg9bo50gSsH3LtXe2SQn'
p2047
(dp2048
g3
S'Mariah Carey'
p2049
sg5
I1
sg6
S'https://open.spotify.com/track/0bYg9bo50gSsH3LtXe2SQn'
p2050
sg8
S'All I Want for Christmas Is You'
p2051
ssS'3McLx8xvVlSIOVaM6Nhe3a'
p2052
(dp2053
g3
S'S\xc3\xa1lin hans J\xc3\xb3ns m\xc3\xadns'
p2054
sg5
I2
sg6
S'https://open.spotify.com/track/3McLx8xvVlSIOVaM6Nhe3a'
p2055
sg8
S'Ekkert breytir \xc3\xbev\xc3\xad'
p2056
ssS'0RBLY1OUdwvaTgFZhULRnG'
p2057
(dp2058
g3
S'Joey Christ'
p2059
sg5
I2
sg6
S'https://open.spotify.com/track/0RBLY1OUdwvaTgFZhULRnG'
p2060
sg8
S'Reykjav\xc3\xadk'
p2061
ssS'3Q3myFA7q4Op95DOpHplaY'
p2062
(dp2063
g3
S'blackbear'
p2064
sg5
I2
sg6
S'https://open.spotify.com/track/3Q3myFA7q4Op95DOpHplaY'
p2065
sg8
S'do re mi'
p2066
ssS'0JSGfsnq19l7d2xLnmCV19'
p2067
(dp2068
g3
S'J\xc3\xb3iP\xc3\xa9'
p2069
sg5
I5
sg6
S'https://open.spotify.com/track/0JSGfsnq19l7d2xLnmCV19'
p2070
sg8
S'St\xc3\xa6lar'
p2071
ssS'3rOSwuTsUlJp0Pu0MkN8r8'
p2072
(dp2073
g3
S'Future'
p2074
sg5
I34
sg6
S'https://open.spotify.com/track/3rOSwuTsUlJp0Pu0MkN8r8'
p2075
sg8
S'Mask Off'
p2076
ssS'6lllgcGSbfH9RMrrmTd5DL'
p2077
(dp2078
g3
S'Rakel P\xc3\xa1lsd\xc3\xb3ttir'
p2079
sg5
I1
sg6
S'https://open.spotify.com/track/6lllgcGSbfH9RMrrmTd5DL'
p2080
sg8
S'Again'
p2081
ssS'1qOLh0tI7trd1zdDKxYZTe'
p2082
(dp2083
g3
S'Hailee Steinfeld'
p2084
sg5
I32
sg6
S'https://open.spotify.com/track/1qOLh0tI7trd1zdDKxYZTe'
p2085
sg8
S'Starving'
p2086
ssS'2iMBF1Wpy0sreHVLaTVPfQ'
p2087
(dp2088
g3
S'S\xc3\xa1lin hans J\xc3\xb3ns m\xc3\xadns'
p2089
sg5
I10
sg6
S'https://open.spotify.com/track/2iMBF1Wpy0sreHVLaTVPfQ'
p2090
sg8
S'S\xc3\xb3d\xc3\xb3ma'
p2091
ssS'3HVr6jTVwBHBa2flM0eURR'
p2092
(dp2093
g3
S'Macklemore'
p2094
sg5
I9
sg6
S'https://open.spotify.com/track/3HVr6jTVwBHBa2flM0eURR'
p2095
sg8
S'Glorious (feat. Skylar Grey)'
p2096
ssS'7inXu0Eaeg02VsM8kHNvzM'
p2097
(dp2098
g3
S'Frank Sinatra'
p2099
sg5
I1
sg6
S'https://open.spotify.com/track/7inXu0Eaeg02VsM8kHNvzM'
p2100
sg8
S'Let It Snow! Let It Snow! Let It Snow!'
p2101
ssS'0JiVRyTJcJnmlwCZ854K4p'
p2102
(dp2103
g3
S'Alan Walker'
p2104
sg5
I9
sg6
S'https://open.spotify.com/track/0JiVRyTJcJnmlwCZ854K4p'
p2105
sg8
S'Alone'
p2106
ssS'1cG0umU5TKStygKsPFZ9pY'
p2107
(dp2108
g3
S'Robin Schulz'
p2109
sg5
I10
sg6
S'https://open.spotify.com/track/1cG0umU5TKStygKsPFZ9pY'
p2110
sg8
S'Shed a Light'
p2111
ssS'7xHWNBFm6ObGEQPaUxHuKO'
p2112
(dp2113
g3
S'Sia'
p2114
sg5
I12
sg6
S'https://open.spotify.com/track/7xHWNBFm6ObGEQPaUxHuKO'
p2115
sg8
S'The Greatest'
p2116
ssS'4q8PHoRsPUB52LFylX8Ulz'
p2117
(dp2118
g3
S'Axwell /\\ Ingrosso'
p2119
sg5
I8
sg6
S'https://open.spotify.com/track/4q8PHoRsPUB52LFylX8Ulz'
p2120
sg8
S'More Than You Know'
p2121
ssS'7BKLCZ1jbUBVqRi2FVlTVw'
p2122
(dp2123
g3
S'The Chainsmokers'
p2124
sg5
I24
sg6
S'https://open.spotify.com/track/7BKLCZ1jbUBVqRi2FVlTVw'
p2125
sg8
S'Closer'
p2126
ssS'6EpRaXYhGOB3fj4V2uDkMJ'
p2127
(dp2128
g3
S'Liam Payne'
p2129
sg5
I21
sg6
S'https://open.spotify.com/track/6EpRaXYhGOB3fj4V2uDkMJ'
p2130
sg8
S'Strip That Down'
p2131
ssS'1r0faljjM2b876iNoaDUh5'
p2132
(dp2133
g3
S'Big Sean'
p2134
sg5
I1
sg6
S'https://open.spotify.com/track/1r0faljjM2b876iNoaDUh5'
p2135
sg8
S'Sacrifices'
p2136
ssS'2oim5PeJo33M01bXAUVKLu'
p2137
(dp2138
g3
S'Jana Bur\xc4\x8deska'
p2139
sg5
I1
sg6
S'https://open.spotify.com/track/2oim5PeJo33M01bXAUVKLu'
p2140
sg8
S'Dance Alone'
p2141
ssS'1wjzFQodRWrPcQ0AnYnvQ9'
p2142
(dp2143
g3
S'Lauv'
p2144
sg5
I17
sg6
S'https://open.spotify.com/track/1wjzFQodRWrPcQ0AnYnvQ9'
p2145
sg8
S'I Like Me Better'
p2146
ssS'51PIvodunv6NmX5250zxAh'
p2147
(dp2148
g3
S'Lady Gaga'
p2149
sg5
I9
sg6
S'https://open.spotify.com/track/51PIvodunv6NmX5250zxAh'
p2150
sg8
S'The Cure'
p2151
ssS'0mcCDhp2PRhqZReHurfepE'
p2152
(dp2153
g3
S'J\xc3\xb3iP\xc3\xa9'
p2154
sg5
I3
sg6
S'https://open.spotify.com/track/0mcCDhp2PRhqZReHurfepE'
p2155
sg8
S'Ananas'
p2156
ssS'0utlOiJy2weVl9WTkcEWHy'
p2157
(dp2158
g3
S'J. Cole'
p2159
sg5
I3
sg6
S'https://open.spotify.com/track/0utlOiJy2weVl9WTkcEWHy'
p2160
sg8
S'Neighbors'
p2161
ssS'0a0lNLHCUfmGfUqChWedHw'
p2162
(dp2163
g3
S'GCD'
p2164
sg5
I1
sg6
S'https://open.spotify.com/track/0a0lNLHCUfmGfUqChWedHw'
p2165
sg8
S'Sumari\xc3\xb0 er t\xc3\xadminn'
p2166
ssS'24nlSZHHUx0XAzo7WDzUTa'
p2167
(dp2168
g3
S'Joey Christ'
p2169
sg5
I14
sg6
S'https://open.spotify.com/track/24nlSZHHUx0XAzo7WDzUTa'
p2170
sg8
S'Joey Cypher'
p2171
ssS'67dyMPOUsbZ9Yg06PnfAAh'
p2172
(dp2173
g3
S'Future'
p2174
sg5
I1
sg6
S'https://open.spotify.com/track/67dyMPOUsbZ9Yg06PnfAAh'
p2175
sg8
S'Draco'
p2176
ssS'3GPI7hYiqD6enLRobhkBm8'
p2177
(dp2178
g3
S'ItaloBrothers'
p2179
sg5
I8
sg6
S'https://open.spotify.com/track/3GPI7hYiqD6enLRobhkBm8'
p2180
sg8
S'Summer Air'
p2181
ssS'2XMTqoHHSH0lvuXrvIEdco'
p2182
(dp2183
g3
S'FRENSHIP'
p2184
sg5
I5
sg6
S'https://open.spotify.com/track/2XMTqoHHSH0lvuXrvIEdco'
p2185
sg8
S'Capsize'
p2186
ssS'5MFzQMkrl1FOOng9tq6R9r'
p2187
(dp2188
g3
S'Maroon 5'
p2189
sg5
I17
sg6
S'https://open.spotify.com/track/5MFzQMkrl1FOOng9tq6R9r'
p2190
sg8
S"Don't Wanna Know"
p2191
ssS'5IklCuvTlAsm0BfUa0u3DO'
p2192
(dp2193
g3
S'\xc3\x9alfur \xc3\x9alfur'
p2194
sg5
I1
sg6
S'https://open.spotify.com/track/5IklCuvTlAsm0BfUa0u3DO'
p2195
sg8
S'Tempo'
p2196
ssS'1EOM0Hs4xjlfybpdkJYlGJ'
p2197
(dp2198
g3
S'\xc3\x8d sv\xc3\xb6rtum f\xc3\xb6tum'
p2199
sg5
I1
sg6
S'https://open.spotify.com/track/1EOM0Hs4xjlfybpdkJYlGJ'
p2200
sg8
S'J\xc3\xb3lin eru a\xc3\xb0 koma'
p2201
ssS'0HpMvhmhBnRBJ9iocNl16t'
p2202
(dp2203
g3
S'Rammstein'
p2204
sg5
I1
sg6
S'https://open.spotify.com/track/0HpMvhmhBnRBJ9iocNl16t'
p2205
sg8
S'AMERIKA'
p2206
ssS'1S8Jk828glVlmQVY4eGm9G'
p2207
(dp2208
g3
S'Grettisk\xc3\xb3rinn'
p2209
sg5
I6
sg6
S'https://open.spotify.com/track/1S8Jk828glVlmQVY4eGm9G'
p2210
sg8
S'L\xc3\xadfi\xc3\xb0 er yndislegt'
p2211
ssS'6eT7xZZlB2mwyzJ2sUKG6w'
p2212
(dp2213
g3
S'Post Malone'
p2214
sg5
I41
sg6
S'https://open.spotify.com/track/6eT7xZZlB2mwyzJ2sUKG6w'
p2215
sg8
S'White Iverson'
p2216
ssS'4pYZLpX23Vx8rwDpJCpPTA'
p2217
(dp2218
g3
S'Rich The Kid'
p2219
sg5
I2
sg6
S'https://open.spotify.com/track/4pYZLpX23Vx8rwDpJCpPTA'
p2220
sg8
S'New Freezer (feat. Kendrick Lamar)'
p2221
ssS'5hx4FpDZOnDVYlyoG3rMks'
p2222
(dp2223
g3
S'Lil Yachty'
p2224
sg5
I4
sg6
S'https://open.spotify.com/track/5hx4FpDZOnDVYlyoG3rMks'
p2225
sg8
S'Peek A Boo'
p2226
ssS'00wxIcA1PPbqEzATkHT4e1'
p2227
(dp2228
g3
S'Francesco Gabbani'
p2229
sg5
I6
sg6
S'https://open.spotify.com/track/00wxIcA1PPbqEzATkHT4e1'
p2230
sg8
S"Occidentali's Karma - Radio Edit"
p2231
ssS'167NczpNbRF7oWakJaY3Hh'
p2232
(dp2233
g3
S'Niall Horan'
p2234
sg5
I23
sg6
S'https://open.spotify.com/track/167NczpNbRF7oWakJaY3Hh'
p2235
sg8
S'Slow Hands'
p2236
ssS'0IqKeD8ZSP72KbGYyzEcAs'
p2237
(dp2238
g3
S'Hozier'
p2239
sg5
I23
sg6
S'https://open.spotify.com/track/0IqKeD8ZSP72KbGYyzEcAs'
p2240
sg8
S'Take Me To Church'
p2241
ssS'33bURv895AN4FkBvgFo2dx'
p2242
(dp2243
g3
S'Harry Styles'
p2244
sg5
I1
sg6
S'https://open.spotify.com/track/33bURv895AN4FkBvgFo2dx'
p2245
sg8
S'Woman'
p2246
ssS'2jTujnt0y344ai1rNOywgr'
p2247
(dp2248
g3
S'Drake'
p2249
sg5
I4
sg6
S'https://open.spotify.com/track/2jTujnt0y344ai1rNOywgr'
p2250
sg8
S'KMT'
p2251
ssS'4ranVZMGU28qHZS6DBBdHc'
p2252
(dp2253
g3
S'J\xc3\xb3iP\xc3\xa9'
p2254
sg5
I5
sg6
S'https://open.spotify.com/track/4ranVZMGU28qHZS6DBBdHc'
p2255
sg8
S'Sagan Af Okkur'
p2256
ssS'3WR3mQ8SDjJgxbdOFrqfca'
p2257
(dp2258
g3
S'Sturla Atlas'
p2259
sg5
I33
sg6
S'https://open.spotify.com/track/3WR3mQ8SDjJgxbdOFrqfca'
p2260
sg8
S'Time'
p2261
ssS'6gBFPUFcJLzWGx4lenP6h2'
p2262
(dp2263
g3
S'Travis Scott'
p2264
sg5
I41
sg6
S'https://open.spotify.com/track/6gBFPUFcJLzWGx4lenP6h2'
p2265
sg8
S'goosebumps'
p2266
ssS'7zgqtptZvhf8GEmdsM2vp2'
p2267
(dp2268
g3
S'Taylor Swift'
p2269
sg5
I1
sg6
S'https://open.spotify.com/track/7zgqtptZvhf8GEmdsM2vp2'
p2270
sg8
S'...Ready For It?'
p2271
ssS'6uP2DBITa982EzgIWSrlDY'
p2272
(dp2273
g3
S'J\xc3\xb3iP\xc3\xa9'
p2274
sg5
I5
sg6
S'https://open.spotify.com/track/6uP2DBITa982EzgIWSrlDY'
p2275
sg8
S'B.O.B.A.'
p2276
ssS'6HUbzOMGiCvVZEablo0oNM'
p2277
(dp2278
g3
S'iDubbbz'
p2279
sg5
I1
sg6
S'https://open.spotify.com/track/6HUbzOMGiCvVZEablo0oNM'
p2280
sg8
S'Asian Jake Paul'
p2281
ssS'6DB2KOEwHnjkgEnBt5SdeJ'
p2282
(dp2283
g3
S'Future'
p2284
sg5
I3
sg6
S'https://open.spotify.com/track/6DB2KOEwHnjkgEnBt5SdeJ'
p2285
sg8
S'Mask Off - Remix'
p2286
ssS'2374M0fQpWi3dLnB54qaLX'
p2287
(dp2288
g3
S'Toto'
p2289
sg5
I5
sg6
S'https://open.spotify.com/track/2374M0fQpWi3dLnB54qaLX'
p2290
sg8
S'Africa'
p2291
ssS'26Jk5W5plVLyCo0A5Fg8HW'
p2292
(dp2293
g3
S'Joey Christ'
p2294
sg5
I1
sg6
S'https://open.spotify.com/track/26Jk5W5plVLyCo0A5Fg8HW'
p2295
sg8
S"Do' Boy"
p2296
ssS'3S0OXQeoh0w6AY8WQVckRW'
p2297
(dp2298
g3
S'Jason Mraz'
p2299
sg5
I2
sg6
S'https://open.spotify.com/track/3S0OXQeoh0w6AY8WQVckRW'
p2300
sg8
S"I'm Yours"
p2301
ssS'7AQim7LbvFVZJE3O8TYgf2'
p2302
(dp2303
g3
S'XXXTENTACION'
p2304
sg5
I7
sg6
S'https://open.spotify.com/track/7AQim7LbvFVZJE3O8TYgf2'
p2305
sg8
S'Fuck Love (feat. Trippie Redd)'
p2306
ssS'2C0KFbb4v9CNWR5c9jWcKC'
p2307
(dp2308
g3
S'Gorillaz'
p2309
sg5
I2
sg6
S'https://open.spotify.com/track/2C0KFbb4v9CNWR5c9jWcKC'
p2310
sg8
S'Andromeda (feat. DRAM)'
p2311
ssS'7iiP7OrzPN1JAkPKkJCThg'
p2312
(dp2313
g3
S'Birgitta Haukdal'
p2314
sg5
I1
sg6
S'https://open.spotify.com/track/7iiP7OrzPN1JAkPKkJCThg'
p2315
sg8
S'Eitt l\xc3\xadti\xc3\xb0 j\xc3\xb3lalag'
p2316
ssS'6eUncuJutsFi9BGO1JaBHh'
p2317
(dp2318
g3
S'Jason Derulo'
p2319
sg5
I6
sg6
S'https://open.spotify.com/track/6eUncuJutsFi9BGO1JaBHh'
p2320
sg8
S"If I'm Lucky"
p2321
ssS'3DiSg52IvK0nmFwsMKL7bB'
p2322
(dp2323
g3
S'Sara Farell'
p2324
sg5
I2
sg6
S'https://open.spotify.com/track/3DiSg52IvK0nmFwsMKL7bB'
p2325
sg8
S"I Don't Wanna Live Forever (Fifty Shades Darker) - Acoustic"
p2326
ssS'31MkGwj0SWgZaTvEt5Hgxv'
p2327
(dp2328
g3
S'P!nk'
p2329
sg5
I8
sg6
S'https://open.spotify.com/track/31MkGwj0SWgZaTvEt5Hgxv'
p2330
sg8
S'What About Us'
p2331
ssS'4CwumbYOUtgSylJnSrZ7oY'
p2332
(dp2333
g3
S'Lil Yachty'
p2334
sg5
I1
sg6
S'https://open.spotify.com/track/4CwumbYOUtgSylJnSrZ7oY'
p2335
sg8
S'Forever Young'
p2336
ssS'0PDUDa38GO8lMxLCRc4lL1'
p2337
(dp2338
g3
S'ZAYN'
p2339
sg5
I2
sg6
S'https://open.spotify.com/track/0PDUDa38GO8lMxLCRc4lL1'
p2340
sg8
S'PILLOWTALK'
p2341
ssS'3pC1ILr9KzmQLMe8Kn5QBG'
p2342
(dp2343
g3
S'DJ Khaled'
p2344
sg5
I1
sg6
S'https://open.spotify.com/track/3pC1ILr9KzmQLMe8Kn5QBG'
p2345
sg8
S'To the Max'
p2346
ssS'4w4kNY6C4x2H7q5MXoHkbW'
p2347
(dp2348
g3
S'Sigur\xc3\xb0ur Gu\xc3\xb0mundsson'
p2349
sg5
I1
sg6
S'https://open.spotify.com/track/4w4kNY6C4x2H7q5MXoHkbW'
p2350
sg8
S'Gu\xc3\xb0 m\xc3\xa1 vita hvar'
p2351
ssS'4obaOUpNvRNvSawQjNQH4a'
p2352
(dp2353
g3
S'Erna Gunnarsd\xc3\xb3ttir'
p2354
sg5
I1
sg6
S'https://open.spotify.com/track/4obaOUpNvRNvSawQjNQH4a'
p2355
sg8
S'Enn j\xc3\xb3lin'
p2356
ssS'0WQcnrsEqrY2e5nexGe3HX'
p2357
(dp2358
g3
S'A$AP Mob'
p2359
sg5
I1
sg6
S'https://open.spotify.com/track/0WQcnrsEqrY2e5nexGe3HX'
p2360
sg8
S'Walk On Water'
p2361
ssS'1e1JKLEDKP7hEQzJfNAgPl'
p2362
(dp2363
g3
S'Playboi Carti'
p2364
sg5
I22
sg6
S'https://open.spotify.com/track/1e1JKLEDKP7hEQzJfNAgPl'
p2365
sg8
S'Magnolia'
p2366
ssS'3I8gyGzky4CvtyAt27T3dh'
p2367
(dp2368
g3
S'Michael Bubl\xc3\xa9'
p2369
sg5
I1
sg6
S'https://open.spotify.com/track/3I8gyGzky4CvtyAt27T3dh'
p2370
sg8
S'Winter Wonderland - Bonus Track'
p2371
ssS'2FM1zCMO0OE9g6JqmT9p36'
p2372
(dp2373
g3
S'Anja Nissen'
p2374
sg5
I1
sg6
S'https://open.spotify.com/track/2FM1zCMO0OE9g6JqmT9p36'
p2375
sg8
S'Where I Am'
p2376
ssS'6E39QsoWB7JjphPF9xCQSN'
p2377
(dp2378
g3
S'Desiigner'
p2379
sg5
I5
sg6
S'https://open.spotify.com/track/6E39QsoWB7JjphPF9xCQSN'
p2380
sg8
S'Outlet'
p2381
ssS'1a5Yu5L18qNxVhXx38njON'
p2382
(dp2383
g3
S'Alok'
p2384
sg5
I14
sg6
S'https://open.spotify.com/track/1a5Yu5L18qNxVhXx38njON'
p2385
sg8
S'Hear Me Now'
p2386
ssS'7Kxh2ItJU7v3aSoBp5dQdr'
p2387
(dp2388
g3
S'Aron Brink'
p2389
sg5
I3
sg6
S'https://open.spotify.com/track/7Kxh2ItJU7v3aSoBp5dQdr'
p2390
sg8
S'Hypnotised'
p2391
ssS'3kxfsdsCpFgN412fpnW85Y'
p2392
(dp2393
g3
S'Childish Gambino'
p2394
sg5
I42
sg6
S'https://open.spotify.com/track/3kxfsdsCpFgN412fpnW85Y'
p2395
sg8
S'Redbone'
p2396
ssS'5hTpBe8h35rJ67eAWHQsJx'
p2397
(dp2398
g3
S'Amin\xc3\xa9'
p2399
sg5
I1
sg6
S'https://open.spotify.com/track/5hTpBe8h35rJ67eAWHQsJx'
p2400
sg8
S'Caroline'
p2401
ssS'1Eck97uRMlprKOOJN9oO1E'
p2402
(dp2403
g3
S'G-Eazy'
p2404
sg5
I8
sg6
S'https://open.spotify.com/track/1Eck97uRMlprKOOJN9oO1E'
p2405
sg8
S'Good Life (with G-Eazy & Kehlani)'
p2406
ssS'2ZLbKYa0WCKhV2q6km3Wwa'
p2407
(dp2408
g3
S'Geisha Cartel'
p2409
sg5
I7
sg6
S'https://open.spotify.com/track/2ZLbKYa0WCKhV2q6km3Wwa'
p2410
sg8
S'10 Bleikir S\xc3\xadmar'
p2411
ssS'4sPmO7WMQUAf45kwMOtONw'
p2412
(dp2413
g3
S'Adele'
p2414
sg5
I14
sg6
S'https://open.spotify.com/track/4sPmO7WMQUAf45kwMOtONw'
p2415
sg8
S'Hello'
p2416
ssS'1j4kHkkpqZRBwE0A4CN4Yv'
p2417
(dp2418
g3
S'ZAYN'
p2419
sg5
I5
sg6
S'https://open.spotify.com/track/1j4kHkkpqZRBwE0A4CN4Yv'
p2420
sg8
S'Dusk Till Dawn - Radio Edit'
p2421
ssS'6PCUP3dWmTjcTtXY02oFdT'
p2422
(dp2423
g3
S'Ed Sheeran'
p2424
sg5
I39
sg6
S'https://open.spotify.com/track/6PCUP3dWmTjcTtXY02oFdT'
p2425
sg8
S'Castle on the Hill'
p2426
ssS'4kdjhrwQW6N1GFMXqoYOha'
p2427
(dp2428
g3
S'Erna Mist P\xc3\xa9tursd\xc3\xb3ttir'
p2429
sg5
I1
sg6
S'https://open.spotify.com/track/4kdjhrwQW6N1GFMXqoYOha'
p2430
sg8
S'Skuggamynd'
p2431
ssS'5p3NP9mQblDsVJLdfNZJ3I'
p2432
(dp2433
g3
S'Kendrick Lamar'
p2434
sg5
I3
sg6
S'https://open.spotify.com/track/5p3NP9mQblDsVJLdfNZJ3I'
p2435
sg8
S'GOD.'
p2436
ssS'6BaCraQ9xeLYg4Sb9TBT2X'
p2437
(dp2438
g3
S'Calvin Harris'
p2439
sg5
I1
sg6
S'https://open.spotify.com/track/6BaCraQ9xeLYg4Sb9TBT2X'
p2440
sg8
S'Feels'
p2441
ssS'1hhJ1XSIvrgzluHV14c9NN'
p2442
(dp2443
g3
S'Chase'
p2444
sg5
I4
sg6
S'https://open.spotify.com/track/1hhJ1XSIvrgzluHV14c9NN'
p2445
sg8
S'\xc3\x9eekkir \xc3\x9e\xc3\xa1'
p2446
ssS'6U4VqEHy4n5VeiH4pQPL24'
p2447
(dp2448
g3
S'Dwayne Johnson'
p2449
sg5
I2
sg6
S'https://open.spotify.com/track/6U4VqEHy4n5VeiH4pQPL24'
p2450
sg8
S"You're Welcome"
p2451
ssS'3k3JOzKAMqaVjYFXf2Oglg'
p2452
(dp2453
g3
S'Stu\xc3\xb0kompan\xc3\xadi\xc3\xb0'
p2454
sg5
I1
sg6
S'https://open.spotify.com/track/3k3JOzKAMqaVjYFXf2Oglg'
p2455
sg8
S'J\xc3\xb3lastund'
p2456
ssS'3zBm6lRfxl6tlPGbKuaTUn'
p2457
(dp2458
g3
S'Aron Can'
p2459
sg5
I24
sg6
S'https://open.spotify.com/track/3zBm6lRfxl6tlPGbKuaTUn'
p2460
sg8
S'\xc3\x8dn\xc3\xb3tt'
p2461
ssS'1S7zHaN5jc2T2ovZJFXTTi'
p2462
(dp2463
g3
S'Baggal\xc3\xbatur'
p2464
sg5
I1
sg6
S'https://open.spotify.com/track/1S7zHaN5jc2T2ovZJFXTTi'
p2465
sg8
S'J\xc3\xb3laland'
p2466
ssS'0AhzQCRDcNePb6gqx9kRYC'
p2467
(dp2468
g3
S'September'
p2469
sg5
I6
sg6
S'https://open.spotify.com/track/0AhzQCRDcNePb6gqx9kRYC'
p2470
sg8
S'Like Heaven (ft. J\xc3\xb3n J\xc3\xb3nsson)'
p2471
ssS'3T7dNA7O8c3Axj5WyDNcH3'
p2472
(dp2473
g3
S'Brenda Lee'
p2474
sg5
I1
sg6
S'https://open.spotify.com/track/3T7dNA7O8c3Axj5WyDNcH3'
p2475
sg8
S"Rockin' Around The Christmas Tree - Single Version"
p2476
ssS'5q5gzmbBS5yQzos2BvVr1t'
p2477
(dp2478
g3
S'M\xc3\x98'
p2479
sg5
I8
sg6
S'https://open.spotify.com/track/5q5gzmbBS5yQzos2BvVr1t'
p2480
sg8
S'Nights With You'
p2481
ssS'3DXncPQOG4VBw3QHh3S817'
p2482
(dp2483
g3
S'DJ Khaled'
p2484
sg5
I20
sg6
S'https://open.spotify.com/track/3DXncPQOG4VBw3QHh3S817'
p2485
sg8
S"I'm the One"
p2486
ssS'7m9OqQk4RVRkw9JJdeAw96'
p2487
(dp2488
g3
S'XXXTENTACION'
p2489
sg5
I7
sg6
S'https://open.spotify.com/track/7m9OqQk4RVRkw9JJdeAw96'
p2490
sg8
S'Jocelyn Flores'
p2491
ssS'6mapJIPnQ23RTAevUoE0DL'
p2492
(dp2493
g3
S'Rae Sremmurd'
p2494
sg5
I35
sg6
S'https://open.spotify.com/track/6mapJIPnQ23RTAevUoE0DL'
p2495
sg8
S'Swang'
p2496
ssS'6MbH1QiphMCPTqVEVC7UYi'
p2497
(dp2498
g3
S'Drake'
p2499
sg5
I2
sg6
S'https://open.spotify.com/track/6MbH1QiphMCPTqVEVC7UYi'
p2500
sg8
S'Nothings Into Somethings'
p2501
ssS'6mORGLOz79w6VsCRLWYYuK'
p2502
(dp2503
g3
S'Lord Huron'
p2504
sg5
I27
sg6
S'https://open.spotify.com/track/6mORGLOz79w6VsCRLWYYuK'
p2505
sg8
S'The Night We Met'
p2506
ssS'5aAx2yezTd8zXrkmtKl66Z'
p2507
(dp2508
g3
S'The Weeknd'
p2509
sg5
I42
sg6
S'https://open.spotify.com/track/5aAx2yezTd8zXrkmtKl66Z'
p2510
sg8
S'Starboy'
p2511
ssS'2BrzlUj1u1CtvaJDGIKpsP'
p2512
(dp2513
g3
S'Noah Cyrus'
p2514
sg5
I15
sg6
S'https://open.spotify.com/track/2BrzlUj1u1CtvaJDGIKpsP'
p2515
sg8
S'Make Me (Cry)'
p2516
ssS'1SJtlNRJDeYHioymcvsqev'
p2517
(dp2518
g3
S'Camila Cabello'
p2519
sg5
I13
sg6
S'https://open.spotify.com/track/1SJtlNRJDeYHioymcvsqev'
p2520
sg8
S'Crying in the Club'
p2521
ssS'04DwTuZ2VBdJCCC5TROn7L'
p2522
(dp2523
g3
S'Martin Garrix'
p2524
sg5
I13
sg6
S'https://open.spotify.com/track/04DwTuZ2VBdJCCC5TROn7L'
p2525
sg8
S'In the Name of Love'
p2526
ssS'7bJ4mu7MHa3rHiNyKjOoSl'
p2527
(dp2528
g3
S'Drake'
p2529
sg5
I3
sg6
S'https://open.spotify.com/track/7bJ4mu7MHa3rHiNyKjOoSl'
p2530
sg8
S'Ice Melts'
p2531
ssS'0e2F41iPO7ceWCYxONWtCt'
p2532
(dp2533
g3
S'Baggal\xc3\xbatur'
p2534
sg5
I13
sg6
S'https://open.spotify.com/track/0e2F41iPO7ceWCYxONWtCt'
p2535
sg8
S'Grenja (feat. Salka S\xc3\xb3l)'
p2536
ssS'5SFTZsHW3HdCp9f1zbzitS'
p2537
(dp2538
g3
S'XXXTENTACION'
p2539
sg5
I4
sg6
S'https://open.spotify.com/track/5SFTZsHW3HdCp9f1zbzitS'
p2540
sg8
S'Revenge'
p2541
ssS'0pSBuHjILhNEo55xK1zrRt'
p2542
(dp2543
g3
S'Ayo & Teo'
p2544
sg5
I24
sg6
S'https://open.spotify.com/track/0pSBuHjILhNEo55xK1zrRt'
p2545
sg8
S'Rolex'
p2546
ssS'05bnEv2dpFzmGVLGdjD9UP'
p2547
(dp2548
g3
S'XXXTENTACION'
p2549
sg5
I5
sg6
S'https://open.spotify.com/track/05bnEv2dpFzmGVLGdjD9UP'
p2550
sg8
S'Orlando'
p2551
ssS'5p1bLv6Ukr4mQwNALqTHpu'
p2552
(dp2553
g3
S'Iceland Symphony Orchestra'
p2554
sg5
I1
sg6
S'https://open.spotify.com/track/5p1bLv6Ukr4mQwNALqTHpu'
p2555
sg8
S'Litli trommuleikarinn'
p2556
ssS'4JAyIDXOqNM6qHuZML01uX'
p2557
(dp2558
g3
g472
sg5
I1
sg6
S'https://open.spotify.com/track/4JAyIDXOqNM6qHuZML01uX'
p2559
sg8
g472
ssS'6VRghJeP6I0w1KxkdWFfIh'
p2560
(dp2561
g3
S'Imagine Dragons'
p2562
sg5
I3
sg6
S'https://open.spotify.com/track/6VRghJeP6I0w1KxkdWFfIh'
p2563
sg8
S'Believer'
p2564
ssS'7LVHVU3tWfcxj5aiPFEW4Q'
p2565
(dp2566
g3
S'Coldplay'
p2567
sg5
I1
sg6
S'https://open.spotify.com/track/7LVHVU3tWfcxj5aiPFEW4Q'
p2568
sg8
S'Fix You'
p2569
ssS'6SznMYPQJHzr3IwsAHLId2'
p2570
(dp2571
g3
S'Ed Sheeran'
p2572
sg5
I5
sg6
S'https://open.spotify.com/track/6SznMYPQJHzr3IwsAHLId2'
p2573
sg8
S'Bibia Be Ye Ye'
p2574
ssS'5xbrhx2tMMcN68IT3cJbhS'
p2575
(dp2576
g3
S'XXXTENTACION'
p2577
sg5
I3
sg6
S'https://open.spotify.com/track/5xbrhx2tMMcN68IT3cJbhS'
p2578
sg8
S'Ayala (Outro)'
p2579
ssS'4wdZdkEugVVorAfzqRqC6N'
p2580
(dp2581
g3
S'Post Malone'
p2582
sg5
I6
sg6
S'https://open.spotify.com/track/4wdZdkEugVVorAfzqRqC6N'
p2583
sg8
S'Candy Paint'
p2584
ssS'46NBoIAHrmR7qcUGCIFEjR'
p2585
(dp2586
g3
S'David Guetta'
p2587
sg5
I2
sg6
S'https://open.spotify.com/track/46NBoIAHrmR7qcUGCIFEjR'
p2588
sg8
S"This One's For You (feat. Zara Larsson) - Official Song UEFA EURO 2016"
p2589
ssS'5avoM8tO2AEUSNbGiRCY0u'
p2590
(dp2591
g3
S'Rammstein'
p2592
sg5
I1
sg6
S'https://open.spotify.com/track/5avoM8tO2AEUSNbGiRCY0u'
p2593
sg8
S'Links 2 3 4'
p2594
ssS'5ugWOBXogNqFeLGOkHffhd'
p2595
(dp2596
g3
S'\xc3\x9alfur \xc3\x9alfur'
p2597
sg5
I25
sg6
S'https://open.spotify.com/track/5ugWOBXogNqFeLGOkHffhd'
p2598
sg8
S'Br\xc3\xb3\xc3\xb0ir'
p2599
ssS'0NiXXAI876aGImAd6rTj8w'
p2600
(dp2601
g3
S'Jonas Blue'
p2602
sg5
I14
sg6
S'https://open.spotify.com/track/0NiXXAI876aGImAd6rTj8w'
p2603
sg8
S'Mama'
p2604
ssS'63PK2Lb7jf6DG5tC2keT0G'
p2605
(dp2606
g3
S'Sturla Atlas'
p2607
sg5
I5
sg6
S'https://open.spotify.com/track/63PK2Lb7jf6DG5tC2keT0G'
p2608
sg8
S"No Lovin'"
p2609
ssS'1CrTu1tVWPUSkW9OtHM3LK'
p2610
(dp2611
g3
S'Brendan Murray'
p2612
sg5
I1
sg6
S'https://open.spotify.com/track/1CrTu1tVWPUSkW9OtHM3LK'
p2613
sg8
S'Dying To Try'
p2614
ssS'2GDurWqMjyoIN4tufyWMHw'
p2615
(dp2616
g3
S'A$AP Mob'
p2617
sg5
I1
sg6
S'https://open.spotify.com/track/2GDurWqMjyoIN4tufyWMHw'
p2618
sg8
S'Feels So Good'
p2619
ssS'5vW8mAzwbVZnphjb1yWKaD'
p2620
(dp2621
g3
S'Alexander Jarl'
p2622
sg5
I1
sg6
S'https://open.spotify.com/track/5vW8mAzwbVZnphjb1yWKaD'
p2623
sg8
S'l\xc3\xa1ttu \xc3\xad fri\xc3\xb0i'
p2624
ssS'2ms1F6GbCy6MVPynYUZXI0'
p2625
(dp2626
g3
S'Rj\xc3\xb3minn'
p2627
sg5
I6
sg6
S'https://open.spotify.com/track/2ms1F6GbCy6MVPynYUZXI0'
p2628
sg8
S'Einn sk\xc3\xb3li \xc3\xa1 landinu'
p2629
ssS'2MF4z2xPhvwBMBzSlR2MHQ'
p2630
(dp2631
g3
S'Svala'
p2632
sg5
I4
sg6
S'https://open.spotify.com/track/2MF4z2xPhvwBMBzSlR2MHQ'
p2633
sg8
S'\xc3\x89g veit \xc3\xbea\xc3\xb0'
p2634
ssS'2U7uol87PWjXvFQAo8Oe4F'
p2635
(dp2636
g3
S'Joey Christ'
p2637
sg5
I1
sg6
S'https://open.spotify.com/track/2U7uol87PWjXvFQAo8Oe4F'
p2638
sg8
S'Floni Skit'
p2639
ssS'4FwicAe6KPjdyWq5KktedC'
p2640
(dp2641
g3
S'Emmsj\xc3\xa9 Gauti'
p2642
sg5
I4
sg6
S'https://open.spotify.com/track/4FwicAe6KPjdyWq5KktedC'
p2643
sg8
S'H\xc3\xb3gv\xc3\xa6r'
p2644
ssS'1n4jwRVXdkK2U34nBDUKKT'
p2645
(dp2646
g3
S'Kendrick Lamar'
p2647
sg5
I3
sg6
S'https://open.spotify.com/track/1n4jwRVXdkK2U34nBDUKKT'
p2648
sg8
S'BLOOD.'
p2649
ssS'3GVkPk8mqxz0itaAriG1L7'
p2650
(dp2651
g3
S'XXXTENTACION'
p2652
sg5
I7
sg6
S'https://open.spotify.com/track/3GVkPk8mqxz0itaAriG1L7'
p2653
sg8
S'Everybody Dies In Their Nightmares'
p2654
ssS'1sYSP7gKa5kdKIfhANfori'
p2655
(dp2656
g3
S'MAX'
p2657
sg5
I1
sg6
S'https://open.spotify.com/track/1sYSP7gKa5kdKIfhANfori'
p2658
sg8
S'Lights Down Low'
p2659
ssS'5Ohxk2dO5COHF1krpoPigN'
p2660
(dp2661
g3
S'Harry Styles'
p2662
sg5
I27
sg6
S'https://open.spotify.com/track/5Ohxk2dO5COHF1krpoPigN'
p2663
sg8
S'Sign of the Times'
p2664
ssS'6B14wYcEpWhyDvxWRb9Df8'
p2665
(dp2666
g3
S'Michael Bubl\xc3\xa9'
p2667
sg5
I1
sg6
S'https://open.spotify.com/track/6B14wYcEpWhyDvxWRb9Df8'
p2668
sg8
S'Silent Night'
p2669
ssS'7Kh0dlPbaEckyId89QUmes'
p2670
(dp2671
g3
S'Aron Can'
p2672
sg5
I6
sg6
S'https://open.spotify.com/track/7Kh0dlPbaEckyId89QUmes'
p2673
sg8
S'Fremst \xc3\x9eegar \xc3\x89g Spila'
p2674
ssS'4ZmvufWcpS3n6yVZvykORW'
p2675
(dp2676
g3
S'12:00'
p2677
sg5
I16
sg6
S'https://open.spotify.com/track/4ZmvufWcpS3n6yVZvykORW'
p2678
sg8
S'Sumart\xc3\xadminn'
p2679
ssS'7FCfMXYTIiQ9b4hDYs4Iol'
p2680
(dp2681
g3
S'Dua Lipa'
p2682
sg5
I8
sg6
S'https://open.spotify.com/track/7FCfMXYTIiQ9b4hDYs4Iol'
p2683
sg8
S'Be The One'
p2684
ssS'114VTBj6vVZbJca2Cib2KH'
p2685
(dp2686
g3
S'Fjallabr\xc3\xa6\xc3\xb0ur'
p2687
sg5
I8
sg6
S'https://open.spotify.com/track/114VTBj6vVZbJca2Cib2KH'
p2688
sg8
S'\xc3\x9ear sem hjarta\xc3\xb0 sl\xc3\xa6r'
p2689
ssS'4mxWSdf71VFO52qFeY0fZt'
p2690
(dp2691
g3
S'Maroon 5'
p2692
sg5
I6
sg6
S'https://open.spotify.com/track/4mxWSdf71VFO52qFeY0fZt'
p2693
sg8
S'What Lovers Do (feat. SZA)'
p2694
ssS'1ADjWm8QNhgNV8yCNNgQ1T'
p2695
(dp2696
g3
S'Ariana Grande'
p2697
sg5
I1
sg6
S'https://open.spotify.com/track/1ADjWm8QNhgNV8yCNNgQ1T'
p2698
sg8
S'Santa Tell Me'
p2699
ssS'4mc4Utf983wYGUOa6Yq7Vn'
p2700
(dp2701
g3
S'Elly Vilhj\xc3\xa1lms'
p2702
sg5
I1
sg6
S'https://open.spotify.com/track/4mc4Utf983wYGUOa6Yq7Vn'
p2703
sg8
S'\xc3\x89g veit \xc3\xbe\xc3\xba kemur'
p2704
ssS'4Hf7WnR761jpxPr5D46Bcd'
p2705
(dp2706
g3
S'Shawn Mendes'
p2707
sg5
I17
sg6
S'https://open.spotify.com/track/4Hf7WnR761jpxPr5D46Bcd'
p2708
sg8
S'Treat You Better'
p2709
ssS'3KQYk6xCiUI6yKdxXlYA1C'
p2710
(dp2711
g3
S'Bubbi Morthens'
p2712
sg5
I16
sg6
S'https://open.spotify.com/track/3KQYk6xCiUI6yKdxXlYA1C'
p2713
sg8
S'\xc3\x9ea\xc3\xb0 er gott a\xc3\xb0 elska'
p2714
ssS'6c7D34787LOtPm8tzhsLgH'
p2715
(dp2716
g3
S'Yo Gotti'
p2717
sg5
I1
sg6
S'https://open.spotify.com/track/6c7D34787LOtPm8tzhsLgH'
p2718
sg8
S'Rake It Up'
p2719
ssS'0LSQB8rrSc7Q06ky8H9eeO'
p2720
(dp2721
g3
S'N\xc3\xbdd\xc3\xb6nsk'
p2722
sg5
I1
sg6
S'https://open.spotify.com/track/0LSQB8rrSc7Q06ky8H9eeO'
p2723
sg8
S'Frelsi\xc3\xb0'
p2724
ssS'1Tt4sE4pXi57mTD1GCzsqm'
p2725
(dp2726
g3
S'Rihanna'
p2727
sg5
I18
sg6
S'https://open.spotify.com/track/1Tt4sE4pXi57mTD1GCzsqm'
p2728
sg8
S'Needed Me'
p2729
ssS'2RF4YUblnfECntXOmBvv5M'
p2730
(dp2731
g3
S'Hovig'
p2732
sg5
I1
sg6
S'https://open.spotify.com/track/2RF4YUblnfECntXOmBvv5M'
p2733
sg8
S'Gravity'
p2734
ssS'0hnlzNVmwDy77qsgxLcRdG'
p2735
(dp2736
g3
S'Rj\xc3\xb3minn'
p2737
sg5
I3
sg6
S'https://open.spotify.com/track/0hnlzNVmwDy77qsgxLcRdG'
p2738
sg8
S'Ekki \xc3\x8d \xc3\x9eetta Sinn'
p2739
ssS'3sOOeQehwhs0gO6zDbetr5'
p2740
(dp2741
g3
S'Rj\xc3\xb3minn'
p2742
sg5
I1
sg6
S'https://open.spotify.com/track/3sOOeQehwhs0gO6zDbetr5'
p2743
sg8
S'Parad\xc3\xads'
p2744
ssS'1MksGqIztTT6M9R1ErKVs8'
p2745
(dp2746
g3
S'Big Sean'
p2747
sg5
I4
sg6
S'https://open.spotify.com/track/1MksGqIztTT6M9R1ErKVs8'
p2748
sg8
S'No Favors'
p2749
ssS'1EaKU4dMbesXXd3BrLCtYG'
p2750
(dp2751
g3
S'Kendrick Lamar'
p2752
sg5
I11
sg6
S'https://open.spotify.com/track/1EaKU4dMbesXXd3BrLCtYG'
p2753
sg8
S'ELEMENT.'
p2754
ssS'26hcyzSE154xMZCbFdtInA'
p2755
(dp2756
g3
S'KREAM'
p2757
sg5
I3
sg6
S'https://open.spotify.com/track/26hcyzSE154xMZCbFdtInA'
p2758
sg8
S'Taped Up Heart (feat. Clara Mae)'
p2759
ssS'5o4SzyVpycjufbbJbOTan0'
p2760
(dp2761
g3
S'Emmsj\xc3\xa9 Gauti'
p2762
sg5
I6
sg6
S'https://open.spotify.com/track/5o4SzyVpycjufbbJbOTan0'
p2763
sg8
S'Lyfti m\xc3\xa9r upp'
p2764
ssS'487IaXgdioYgSoIy8KOThV'
p2765
(dp2766
g3
S'Gkr'
p2767
sg5
I3
sg6
S'https://open.spotify.com/track/487IaXgdioYgSoIy8KOThV'
p2768
sg8
S'Meira'
p2769
ssS'5knuzwU65gJK7IF5yJsuaW'
p2770
(dp2771
g3
S'Clean Bandit'
p2772
sg5
I36
sg6
S'https://open.spotify.com/track/5knuzwU65gJK7IF5yJsuaW'
p2773
sg8
S'Rockabye (feat. Sean Paul & Anne-Marie)'
p2774
ssS'7aF09WaavZAmAWuUeYxlYD'
p2775
(dp2776
g3
S'OneRepublic'
p2777
sg5
I9
sg6
S'https://open.spotify.com/track/7aF09WaavZAmAWuUeYxlYD'
p2778
sg8
S'Rich Love (with Seeb)'
p2779
ssS'3bWAqKDWg6u1davspr5IkS'
p2780
(dp2781
g3
S'Robin Schulz'
p2782
sg5
I13
sg6
S'https://open.spotify.com/track/3bWAqKDWg6u1davspr5IkS'
p2783
sg8
S'OK'
p2784
ssS'24se9ixkhE2DG57TIvo3fQ'
p2785
(dp2786
g3
S'Alexander Jarl'
p2787
sg5
I1
sg6
S'https://open.spotify.com/track/24se9ixkhE2DG57TIvo3fQ'
p2788
sg8
S'Til \xc3\x89g Dey'
p2789
ssS'17U0aj0fP0lUVGrkRqZzly'
p2790
(dp2791
g3
S'J\xc3\xb3iP\xc3\xa9'
p2792
sg5
I17
sg6
S'https://open.spotify.com/track/17U0aj0fP0lUVGrkRqZzly'
p2793
sg8
S'Spre\xc3\xb0a'
p2794
ssS'2UwbhMie1EAYuTZ0QXeMwl'
p2795
(dp2796
g3
S'XXXTENTACION'
p2797
sg5
I5
sg6
S'https://open.spotify.com/track/2UwbhMie1EAYuTZ0QXeMwl'
p2798
sg8
S'Save Me'
p2799
ssS'14WWzenpaEgQZlqPq2nk4v'
p2800
(dp2801
g3
S'Rihanna'
p2802
sg5
I8
sg6
S'https://open.spotify.com/track/14WWzenpaEgQZlqPq2nk4v'
p2803
sg8
S'Work'
p2804
ssS'1UjyF6okUHhnVxaLV8ojsA'
p2805
(dp2806
g3
S'Anderson .Paak'
p2807
sg5
I1
sg6
S'https://open.spotify.com/track/1UjyF6okUHhnVxaLV8ojsA'
p2808
sg8
S'Am I Wrong'
p2809
ssS'3e7K7gpDqaWgIf50854q3j'
p2810
(dp2811
g3
S'Emmsj\xc3\xa9 Gauti'
p2812
sg5
I18
sg6
S'https://open.spotify.com/track/3e7K7gpDqaWgIf50854q3j'
p2813
sg8
S'Str\xc3\xa1karnir'
p2814
ssS'6b8Be6ljOzmkOmFslEb23P'
p2815
(dp2816
g3
S'Bruno Mars'
p2817
sg5
I17
sg6
S'https://open.spotify.com/track/6b8Be6ljOzmkOmFslEb23P'
p2818
sg8
S'24K Magic'
p2819
ssS'69VmLkNL304tcCrMCxviYe'
p2820
(dp2821
g3
S'Eyj\xc3\xb3lfur Kristj\xc3\xa1nsson'
p2822
sg5
I1
sg6
S'https://open.spotify.com/track/69VmLkNL304tcCrMCxviYe'
p2823
sg8
S'Svona eru j\xc3\xb3lin'
p2824
ssS'1G3mxGTLXnFBo5ZFuoLvQB'
p2825
(dp2826
g3
S'Sverrir Bergmann'
p2827
sg5
I41
sg6
S'https://open.spotify.com/track/1G3mxGTLXnFBo5ZFuoLvQB'
p2828
sg8
S'\xc3\x81stin \xc3\xa1 s\xc3\xa9r sta\xc3\xb0'
p2829
ssS'7xeFu8Oxk08Q0S5N4dg1Gh'
p2830
(dp2831
g3
S'P\xc3\xa1ll \xc3\x93skar'
p2832
sg5
I21
sg6
S'https://open.spotify.com/track/7xeFu8Oxk08Q0S5N4dg1Gh'
p2833
sg8
S'Einn dans'
p2834
ssS'4so0Wek9Ig1p6CRCHuINwW'
p2835
(dp2836
g3
S'Bing Crosby'
p2837
sg5
I1
sg6
S'https://open.spotify.com/track/4so0Wek9Ig1p6CRCHuINwW'
p2838
sg8
S'White Christmas'
p2839
ssS'4FPrAERfkPKOBKrRoyuxLu'
p2840
(dp2841
g3
S'Michael Bubl\xc3\xa9'
p2842
sg5
I1
sg6
S'https://open.spotify.com/track/4FPrAERfkPKOBKrRoyuxLu'
p2843
sg8
S'Cold December Night'
p2844
ssS'0L7loeTIg6akW84aEQZpCT'
p2845
(dp2846
g3
S'Major Lazer'
p2847
sg5
I8
sg6
S'https://open.spotify.com/track/0L7loeTIg6akW84aEQZpCT'
p2848
sg8
S'Light It Up (feat. Nyla & Fuse ODG) - Remix'
p2849
ssS'23luOrEVHMfoX0AhfbQuS6'
p2850
(dp2851
g3
S'Kendrick Lamar'
p2852
sg5
I3
sg6
S'https://open.spotify.com/track/23luOrEVHMfoX0AhfbQuS6'
p2853
sg8
S'FEAR.'
p2854
ssS'0D8z9FQzjWaRvmugq2j0q4'
p2855
(dp2856
g3
S'Aron Can'
p2857
sg5
I7
sg6
S'https://open.spotify.com/track/0D8z9FQzjWaRvmugq2j0q4'
p2858
sg8
S'Daglega (Intro)'
p2859
ssS'5DA77EqppDmCTWGovd4oTP'
p2860
(dp2861
g3
S'Cheat Codes'
p2862
sg5
I8
sg6
S'https://open.spotify.com/track/5DA77EqppDmCTWGovd4oTP'
p2863
sg8
S'Sex'
p2864
ssS'3ZVJa3F60LHf7BokCfkJ3m'
p2865
(dp2866
g3
S'Eirikur Hauksson'
p2867
sg5
I1
sg6
S'https://open.spotify.com/track/3ZVJa3F60LHf7BokCfkJ3m'
p2868
sg8
S'J\xc3\xb3l alla daga'
p2869
ssS'36YCdzT57us0LhDmCYtrNE'
p2870
(dp2871
g3
S'The Weeknd'
p2872
sg5
I6
sg6
S'https://open.spotify.com/track/36YCdzT57us0LhDmCYtrNE'
p2873
sg8
S'Rockin\xe2\x80\x99'
p2874
ssS'06FCvd7rrRcF3DdvWH5Isp'
p2875
(dp2876
g3
S'Kendrick Lamar'
p2877
sg5
I4
sg6
S'https://open.spotify.com/track/06FCvd7rrRcF3DdvWH5Isp'
p2878
sg8
S'LUST.'
p2879
ssS'4h90qkbnW1Qq6pBhoPvwko'
p2880
(dp2881
g3
S'The Weeknd'
p2882
sg5
I10
sg6
S'https://open.spotify.com/track/4h90qkbnW1Qq6pBhoPvwko'
p2883
sg8
S'Sidewalks'
p2884
ssS'6HZILIRieu8S0iqY8kIKhj'
p2885
(dp2886
g3
S'Kendrick Lamar'
p2887
sg5
I26
sg6
S'https://open.spotify.com/track/6HZILIRieu8S0iqY8kIKhj'
p2888
sg8
S'DNA.'
p2889
ssS'43t99fBgGjYMzljgtc5VE4'
p2890
(dp2891
g3
S'V\xc3\xb6lli'
p2892
sg5
I4
sg6
S'https://open.spotify.com/track/43t99fBgGjYMzljgtc5VE4'
p2893
sg8
S'B\xc3\xad\xc3\xb0a'
p2894
ssS'7F9vK8hNFMml4GtHsaXui6'
p2895
(dp2896
g3
S'Louis Tomlinson'
p2897
sg5
I12
sg6
S'https://open.spotify.com/track/7F9vK8hNFMml4GtHsaXui6'
p2898
sg8
S'Back to You (feat. Bebe Rexha & Digital Farm Animals)'
p2899
ssS'2oaK4JLVnmRGIO9ytBE1bt'
p2900
(dp2901
g3
S'Red Hot Chili Peppers'
p2902
sg5
I1
sg6
S'https://open.spotify.com/track/2oaK4JLVnmRGIO9ytBE1bt'
p2903
sg8
S'Dark Necessities'
p2904
ssS'2nYwV62UABTH0NanrwVIdQ'
p2905
(dp2906
g3
S'Rae Sremmurd'
p2907
sg5
I5
sg6
S'https://open.spotify.com/track/2nYwV62UABTH0NanrwVIdQ'
p2908
sg8
S'Perplexing Pegasus'
p2909
ssS'5siM4eG36axvG3alLNnsAx'
p2910
(dp2911
g3
S'Rammstein'
p2912
sg5
I3
sg6
S'https://open.spotify.com/track/5siM4eG36axvG3alLNnsAx'
p2913
sg8
S'Sonne'
p2914
ssS'1Bqxj0aH5KewYHKUg1IdrF'
p2915
(dp2916
g3
S'G-Eazy'
p2917
sg5
I9
sg6
S'https://open.spotify.com/track/1Bqxj0aH5KewYHKUg1IdrF'
p2918
sg8
S'Some Kind Of Drug'
p2919
ssS'3B54sVLJ402zGa6Xm4YGNe'
p2920
(dp2921
g3
S'French Montana'
p2922
sg5
I14
sg6
S'https://open.spotify.com/track/3B54sVLJ402zGa6Xm4YGNe'
p2923
sg8
S'Unforgettable'
p2924
ssS'7B4fk2UMmN0oQjTuAAvKqn'
p2925
(dp2926
g3
S'Vilhj\xc3\xa1lmur Vilhj\xc3\xa1lmsson'
p2927
sg5
I1
sg6
S'https://open.spotify.com/track/7B4fk2UMmN0oQjTuAAvKqn'
p2928
sg8
S'J\xc3\xb3lasnj\xc3\xb3r'
p2929
ssS'4mU5iXHeLgbR94siF7p1sY'
p2930
(dp2931
g3
S'The Weeknd'
p2932
sg5
I10
sg6
S'https://open.spotify.com/track/4mU5iXHeLgbR94siF7p1sY'
p2933
sg8
S'Six Feet Under'
p2934
ssS'2aibwv5hGXSgw7Yru8IYTO'
p2935
(dp2936
g3
S'Red Hot Chili Peppers'
p2937
sg5
I1
sg6
S'https://open.spotify.com/track/2aibwv5hGXSgw7Yru8IYTO'
p2938
sg8
S'Snow (Hey Oh)'
p2939
ssS'6gpcs5eMhJwax4mIfKDYQk'
p2940
(dp2941
g3
S'Calvin Harris'
p2942
sg5
I4
sg6
S'https://open.spotify.com/track/6gpcs5eMhJwax4mIfKDYQk'
p2943
sg8
S'Slide'
p2944
ssS'2OdpZeTpnbqPqBrclk2pib'
p2945
(dp2946
g3
S'Kaleo'
p2947
sg5
I42
sg6
S'https://open.spotify.com/track/2OdpZeTpnbqPqBrclk2pib'
p2948
sg8
S'Vor \xc3\xad Vaglask\xc3\xb3gi'
p2949
ssS'0QsvXIfqM0zZoerQfsI9lm'
p2950
(dp2951
g3
S'The Chainsmokers'
p2952
sg5
I21
sg6
S'https://open.spotify.com/track/0QsvXIfqM0zZoerQfsI9lm'
p2953
sg8
S"Don't Let Me Down"
p2954
ssS'1j75fzIDImv5G7NvSW9FNK'
p2955
(dp2956
g3
S'She & Him'
p2957
sg5
I1
sg6
S'https://open.spotify.com/track/1j75fzIDImv5G7NvSW9FNK'
p2958
sg8
S'All I Want for Christmas Is You'
p2959
ssS'26VEgYHUO4dwOgYo2nPhTp'
p2960
(dp2961
g3
S'Magni'
p2962
sg5
I1
sg6
S'https://open.spotify.com/track/26VEgYHUO4dwOgYo2nPhTp'
p2963
sg8
S'\xc3\x8d Vestmannaeyjum'
p2964
ssS'0fioLzGM8ngbD1w6fMmm45'
p2965
(dp2966
g3
S'Sam Smith'
p2967
sg5
I5
sg6
S'https://open.spotify.com/track/0fioLzGM8ngbD1w6fMmm45'
p2968
sg8
S"I'm Not The Only One"
p2969
ssS'4qqArAiTPueDxIp7cf87h7'
p2970
(dp2971
g3
S'M\xc3\x98'
p2972
sg5
I10
sg6
S'https://open.spotify.com/track/4qqArAiTPueDxIp7cf87h7'
p2973
sg8
S'Final Song'
p2974
ssS'5hslUAKq9I9CG2bAulFkHN'
p2975
(dp2976
g3
S'Andy Williams'
p2977
sg5
I1
sg6
S'https://open.spotify.com/track/5hslUAKq9I9CG2bAulFkHN'
p2978
sg8
S"It's the Most Wonderful Time of the Year"
p2979
ssS'5CxAtIgmIG5WPFKiYafM8U'
p2980
(dp2981
g3
S'Joey Christ'
p2982
sg5
I1
sg6
S'https://open.spotify.com/track/5CxAtIgmIG5WPFKiYafM8U'
p2983
sg8
S'Nervous Breakdown Interlude'
p2984
ssS'2nLtzopw4rPReszdYBJU6h'
p2985
(dp2986
g3
S'Linkin Park'
p2987
sg5
I1
sg6
S'https://open.spotify.com/track/2nLtzopw4rPReszdYBJU6h'
p2988
sg8
S'Numb'
p2989
ssS'5y8t9kU2DGV4RbTpsUjZR3'
p2990
(dp2991
g3
S'\xc3\x9e\xc3\xb3rd\xc3\xads Birna Borgarsd\xc3\xb3ttir'
p2992
sg5
I2
sg6
S'https://open.spotify.com/track/5y8t9kU2DGV4RbTpsUjZR3'
p2993
sg8
S'Heim til \xc3\xbe\xc3\xadn'
p2994
ssS'3a1lNhkSLSkpJE4MSHpDu9'
p2995
(dp2996
g3
S'Post Malone'
p2997
sg5
I41
sg6
S'https://open.spotify.com/track/3a1lNhkSLSkpJE4MSHpDu9'
p2998
sg8
S'Congratulations'
p2999
ssS'51w95jAPQDOWN3M7xopWWh'
p3000
(dp3001
g3
S'Logan Paul'
p3002
sg5
I5
sg6
S'https://open.spotify.com/track/51w95jAPQDOWN3M7xopWWh'
p3003
sg8
S"Help Me Help You (feat. Why Don't We)"
p3004
ssS'5vQ3YlLb6bxKr3jIlxSYz5'
p3005
(dp3006
g3
S'Ragnar Bjarnason'
p3007
sg5
I1
sg6
S'https://open.spotify.com/track/5vQ3YlLb6bxKr3jIlxSYz5'
p3008
sg8
S'Er l\xc3\xad\xc3\xb0a fer a\xc3\xb0 j\xc3\xb3lum'
p3009
ssS'6rDTGZLPIv9KCUzqNilboV'
p3010
(dp3011
g3
S'Aron Can'
p3012
sg5
I13
sg6
S'https://open.spotify.com/track/6rDTGZLPIv9KCUzqNilboV'
p3013
sg8
S'Ekki Eins Og \xc3\x9eeir (Interlude)'
p3014
ssS'6foxplXS0YEq8cO374Lty4'
p3015
(dp3016
g3
S'Lil Pump'
p3017
sg5
I5
sg6
S'https://open.spotify.com/track/6foxplXS0YEq8cO374Lty4'
p3018
sg8
S'Gucci Gang'
p3019
ssS'02rgDm4O2D8vfpIFDZa0ux'
p3020
(dp3021
g3
S'Landaboi$'
p3022
sg5
I1
sg6
S'https://open.spotify.com/track/02rgDm4O2D8vfpIFDZa0ux'
p3023
sg8
S'Hvar Er D\xc3\xb3pi\xc3\xb0? (feat. J\xc3\xb3ip\xc3\xa9 & Kr\xc3\xb3li)'
p3024
ssS'6yr8GiTHWvFfi4o6Q5ebdT'
p3025
(dp3026
g3
S'Eminem'
p3027
sg5
I9
sg6
S'https://open.spotify.com/track/6yr8GiTHWvFfi4o6Q5ebdT'
p3028
sg8
S"'Till I Collapse"
p3029
ssS'6wV12xIUb8oFY7lBy4KuQe'
p3030
(dp3031
g3
S'Aaron Carter'
p3032
sg5
I9
sg6
S'https://open.spotify.com/track/6wV12xIUb8oFY7lBy4KuQe'
p3033
sg8
S'Sooner Or Later'
p3034
ssS'6WbADFqMvR8N5u0BvtsWQE'
p3035
(dp3036
g3
S'Avicii'
p3037
sg5
I9
sg6
S'https://open.spotify.com/track/6WbADFqMvR8N5u0BvtsWQE'
p3038
sg8
S'Without You (feat. Sandro Cavazza)'
p3039
ssS'2fkeWbM6iqTw7oGHTYm2lw'
p3040
(dp3041
g3
S'Drake'
p3042
sg5
I4
sg6
S'https://open.spotify.com/track/2fkeWbM6iqTw7oGHTYm2lw'
p3043
sg8
S'4422'
p3044
ssS'0ofbQMrRDsUaVKq2mGLEAb'
p3045
(dp3046
g3
S'Camila Cabello'
p3047
sg5
I9
sg6
S'https://open.spotify.com/track/0ofbQMrRDsUaVKq2mGLEAb'
p3048
sg8
S'Havana'
p3049
ssS'6I6NX6tjGsxFAsIfGzY9lJ'
p3050
(dp3051
g3
S'J. Cole'
p3052
sg5
I10
sg6
S'https://open.spotify.com/track/6I6NX6tjGsxFAsIfGzY9lJ'
p3053
sg8
S'Deja Vu'
p3054
ssS'6bLopGnirdrilrpdVB6Um1'
p3055
(dp3056
g3
S'Sia'
p3057
sg5
I2
sg6
S'https://open.spotify.com/track/6bLopGnirdrilrpdVB6Um1'
p3058
sg8
S'The Greatest'
p3059
ssS'25oOaleife6E2MIKmFkPvg'
p3060
(dp3061
g3
S'Young Thug'
p3062
sg5
I17
sg6
S'https://open.spotify.com/track/25oOaleife6E2MIKmFkPvg'
p3063
sg8
S'Relationship (feat. Future)'
p3064
ssS'6uJwPeBGb3swi85TSr9iIz'
p3065
(dp3066
g3
S'Coldplay'
p3067
sg5
I1
sg6
S'https://open.spotify.com/track/6uJwPeBGb3swi85TSr9iIz'
p3068
sg8
S'Miracles (Someone Special)'
p3069
ssS'7iDa6hUg2VgEL1o1HjmfBn'
p3070
(dp3071
g3
S'Bebe Rexha'
p3072
sg5
I2
sg6
S'https://open.spotify.com/track/7iDa6hUg2VgEL1o1HjmfBn'
p3073
sg8
S'Meant to Be (feat. Florida Georgia Line)'
p3074
ssS'2KpCpk6HjXXLb7nnXoXA5O'
p3075
(dp3076
g3
S'JAY Z'
p3077
sg5
I8
sg6
S'https://open.spotify.com/track/2KpCpk6HjXXLb7nnXoXA5O'
p3078
sg8
S'Ni**as In Paris'
p3079
ssS'7DQXiMeLqiQsy1uqHSk0xc'
p3080
(dp3081
g3
S'Shawn Hook'
p3082
sg5
I1
sg6
S'https://open.spotify.com/track/7DQXiMeLqiQsy1uqHSk0xc'
p3083
sg8
S'Reminding Me'
p3084
ssS'5DKoyQoWBrw8xcqDnN3TNx'
p3085
(dp3086
g3
S'Sturla Atlas'
p3087
sg5
I4
sg6
S'https://open.spotify.com/track/5DKoyQoWBrw8xcqDnN3TNx'
p3088
sg8
S'Your Own Way'
p3089
ssS'7A0hXJb7VgIbZnzZJVIiXY'
p3090
(dp3091
g3
S'G\xc3\xadsli P\xc3\xa1lmi'
p3092
sg5
I1
sg6
S'https://open.spotify.com/track/7A0hXJb7VgIbZnzZJVIiXY'
p3093
sg8
S'5 AM'
p3094
ssS'28mIIBZt0jAe8k9g52NOsX'
p3095
(dp3096
g3
S'A$AP Mob'
p3097
sg5
I1
sg6
S'https://open.spotify.com/track/28mIIBZt0jAe8k9g52NOsX'
p3098
sg8
S'Feels So Good'
p3099
ssS'0afhq8XCExXpqazXczTSve'
p3100
(dp3101
g3
S'Ed Sheeran'
p3102
sg5
I32
sg6
S'https://open.spotify.com/track/0afhq8XCExXpqazXczTSve'
p3103
sg8
S'Galway Girl'
p3104
ssS'0lhlNZ2Oe3LQHVuuR2W7k3'
p3105
(dp3106
g3
S'Basshunter'
p3107
sg5
I1
sg6
S'https://open.spotify.com/track/0lhlNZ2Oe3LQHVuuR2W7k3'
p3108
sg8
S'All I Ever Wanted - Radio Edit'
p3109
ssS'2rb5MvYT7ZIxbKW5hfcHx8'
p3110
(dp3111
g3
S'J Balvin'
p3112
sg5
I14
sg6
S'https://open.spotify.com/track/2rb5MvYT7ZIxbKW5hfcHx8'
p3113
sg8
S'Mi Gente'
p3114
ssS'1dX6oGAG5PaexuPj29PsYd'
p3115
(dp3116
g3
S'Kaleo'
p3117
sg5
I5
sg6
S'https://open.spotify.com/track/1dX6oGAG5PaexuPj29PsYd'
p3118
sg8
S"I Can't Go On Without You"
p3119
ssS'2aFiaMXmWsM3Vj72F9ksBl'
p3120
(dp3121
g3
S'DNCE'
p3122
sg5
I1
sg6
S'https://open.spotify.com/track/2aFiaMXmWsM3Vj72F9ksBl'
p3123
sg8
S'Cake By The Ocean'
p3124
ssS'1iDPB2WNsGEWuKycQyDGn6'
p3125
(dp3126
g3
S'Lil Pump'
p3127
sg5
I1
sg6
S'https://open.spotify.com/track/1iDPB2WNsGEWuKycQyDGn6'
p3128
sg8
S'Crazy'
p3129
ssS'152lZdxL1OR0ZMW6KquMif'
p3130
(dp3131
g3
S'Khalid'
p3132
sg5
I32
sg6
S'https://open.spotify.com/track/152lZdxL1OR0ZMW6KquMif'
p3133
sg8
S'Location'
p3134
ssS'4TZy1wLyHec06pwgFYDh1a'
p3135
(dp3136
g3
S'Shawn Mendes'
p3137
sg5
I28
sg6
S'https://open.spotify.com/track/4TZy1wLyHec06pwgFYDh1a'
p3138
sg8
S'Mercy'
p3139
ssS'7I3fJ86HFwwXLSiMEJWDcc'
p3140
(dp3141
g3
S'Joey Christ'
p3142
sg5
I2
sg6
S'https://open.spotify.com/track/7I3fJ86HFwwXLSiMEJWDcc'
p3143
sg8
S'The Party'
p3144
ssS'79NlESqzFSW0hdBWgls4FX'
p3145
(dp3146
g3
S'Kesha'
p3147
sg5
I5
sg6
S'https://open.spotify.com/track/79NlESqzFSW0hdBWgls4FX'
p3148
sg8
S'Praying'
p3149
ssS'0gnS1k4dyGPuD3TtHFaCD8'
p3150
(dp3151
g3
S'Kaleo'
p3152
sg5
I14
sg6
S'https://open.spotify.com/track/0gnS1k4dyGPuD3TtHFaCD8'
p3153
sg8
S'No Good'
p3154
ssS'6EcTjceNc3WhEqrWzXIFwA'
p3155
(dp3156
g3
S'Hkeem'
p3157
sg5
I2
sg6
S'https://open.spotify.com/track/6EcTjceNc3WhEqrWzXIFwA'
p3158
sg8
S'Fy faen'
p3159
ssS'3RXkboS74UYzN14xTqzPyY'
p3160
(dp3161
g3
g472
sg5
I1
sg6
S'https://open.spotify.com/track/3RXkboS74UYzN14xTqzPyY'
p3162
sg8
g472
ssS'4Q3N4Ct4zCuIHuZ65E3BD4'
p3163
(dp3164
g3
S'Kodak Black'
p3165
sg5
I22
sg6
S'https://open.spotify.com/track/4Q3N4Ct4zCuIHuZ65E3BD4'
p3166
sg8
S'Tunnel Vision'
p3167
ssS'7gFDpAsvOi9Hc1ccLuOR7t'
p3168
(dp3169
g3
S'J\xc3\xb3iP\xc3\xa9'
p3170
sg5
I5
sg6
S'https://open.spotify.com/track/7gFDpAsvOi9Hc1ccLuOR7t'
p3171
sg8
S'GerviGlingur'
p3172
ssS'4ntsD33Pgsgk8rUyZLLiUV'
p3173
(dp3174
g3
S'Joey Bada$$'
p3175
sg5
I2
sg6
S'https://open.spotify.com/track/4ntsD33Pgsgk8rUyZLLiUV'
p3176
sg8
S'DEVASTATED'
p3177
ssS'0HEmnAUT8PHznIAAmVXqFJ'
p3178
(dp3179
g3
S'George Michael'
p3180
sg5
I1
sg6
S'https://open.spotify.com/track/0HEmnAUT8PHznIAAmVXqFJ'
p3181
sg8
S'Faith - Remastered'
p3182
ssS'0XNafpFswJmaDg9FoVgYFQ'
p3183
(dp3184
g3
S'Gunnar \xc3\x93lason'
p3185
sg5
I1
sg6
S'https://open.spotify.com/track/0XNafpFswJmaDg9FoVgYFQ'
p3186
sg8
S'Handa \xc3\xbe\xc3\xa9r'
p3187
ssS'4u9Y4Z9i9VaAbBK7rW1Rha'
p3188
(dp3189
g3
S'Harry Styles'
p3190
sg5
I1
sg6
S'https://open.spotify.com/track/4u9Y4Z9i9VaAbBK7rW1Rha'
p3191
sg8
S'Meet Me in the Hallway'
p3192
ssS'2ountvtuHAlpYUVE1DxSIV'
p3193
(dp3194
g3
S'Fri\xc3\xb0rik D\xc3\xb3r'
p3195
sg5
I31
sg6
S'https://open.spotify.com/track/2ountvtuHAlpYUVE1DxSIV'
p3196
sg8
S'D\xc3\xb6nsum (Eins Og H\xc3\xa1lfvitar)'
p3197
ssS'63zsqjEwMPC1w6plM3XnaQ'
p3198
(dp3199
g3
S'Greifarnir'
p3200
sg5
I1
sg6
S'https://open.spotify.com/track/63zsqjEwMPC1w6plM3XnaQ'
p3201
sg8
S'Sumarn\xc3\xb3tt'
p3202
ssS'7GOpB2lDCnBxd3yUEaOaXb'
p3203
(dp3204
g3
S'FM95BL\xc3\x96'
p3205
sg5
I6
sg6
S'https://open.spotify.com/track/7GOpB2lDCnBxd3yUEaOaXb'
p3206
sg8
S'\xc3\x9ej\xc3\xb3\xc3\xb0h\xc3\xa1t\xc3\xad\xc3\xb0 B\xc3\xad\xc3\xb0ur'
p3207
ssS'3g7SvCfzTu23cZpKwcEVKq'
p3208
(dp3209
g3
S'Joey Christ'
p3210
sg5
I5
sg6
S'https://open.spotify.com/track/3g7SvCfzTu23cZpKwcEVKq'
p3211
sg8
S'Joey Cypher'
p3212
ssS'3cNjgVBKTJ1SvKhunrCdVy'
p3213
(dp3214
g3
S'Joel Adams'
p3215
sg5
I8
sg6
S'https://open.spotify.com/track/3cNjgVBKTJ1SvKhunrCdVy'
p3216
sg8
S"Please Don't Go"
p3217
ssS'6OuV4vfyb8v3vGGGksqyKf'
p3218
(dp3219
g3
S'AJR'
p3220
sg5
I2
sg6
S'https://open.spotify.com/track/6OuV4vfyb8v3vGGGksqyKf'
p3221
sg8
S'Weak'
p3222
ssS'4Zxdw0Hno7YDu0IzvY76Qo'
p3223
(dp3224
g3
S'Future'
p3225
sg5
I2
sg6
S'https://open.spotify.com/track/4Zxdw0Hno7YDu0IzvY76Qo'
p3226
sg8
S'Rent Money'
p3227
ssS'4Q4jmPHwu0wrJvqrld0FQ6'
p3228
(dp3229
g3
S'Zara Larsson'
p3230
sg5
I17
sg6
S'https://open.spotify.com/track/4Q4jmPHwu0wrJvqrld0FQ6'
p3231
sg8
S'I Would Like'
p3232
ssS'59J5nzL1KniFHnU120dQzt'
p3233
(dp3234
g3
S'Playboi Carti'
p3235
sg5
I3
sg6
S'https://open.spotify.com/track/59J5nzL1KniFHnU120dQzt'
p3236
sg8
S'wokeuplikethis*'
p3237
ssS'5tRmoZRoupvMYPV1oezFrH'
p3238
(dp3239
g3
S'Lil Uzi Vert'
p3240
sg5
I2
sg6
S'https://open.spotify.com/track/5tRmoZRoupvMYPV1oezFrH'
p3241
sg8
S'X'
p3242
ssS'7yyRTcZmCiyzzJlNzGC9Ol'
p3243
(dp3244
g3
S'DRAM'
p3245
sg5
I12
sg6
S'https://open.spotify.com/track/7yyRTcZmCiyzzJlNzGC9Ol'
p3246
sg8
S'Broccoli (feat. Lil Yachty)'
p3247
ssS'3vcHPShfJAFP3TtAAsTHsV'
p3248
(dp3249
g3
S'Sunstroke Project'
p3250
sg5
I14
sg6
S'https://open.spotify.com/track/3vcHPShfJAFP3TtAAsTHsV'
p3251
sg8
S'Hey Mamma - Radio Edit'
p3252
ssS'1RRNaQPmkG6QWramSWxCl9'
p3253
(dp3254
g3
S'\xc3\x9e\xc3\xba og \xc3\xa9g'
p3255
sg5
I1
sg6
S'https://open.spotify.com/track/1RRNaQPmkG6QWramSWxCl9'
p3256
sg8
S'A\xc3\xb0fangadagskv\xc3\xb6ld'
p3257
ssS'2CvOqDpQIMw69cCzWqr5yr'
p3258
(dp3259
g3
S'Beyonc\xc3\xa9'
p3260
sg5
I37
sg6
S'https://open.spotify.com/track/2CvOqDpQIMw69cCzWqr5yr'
p3261
sg8
S'Halo'
p3262
ssS'5tz69p7tJuGPeMGwNTxYuV'
p3263
(dp3264
g3
S'Logic'
p3265
sg5
I23
sg6
S'https://open.spotify.com/track/5tz69p7tJuGPeMGwNTxYuV'
p3266
sg8
S'1-800-273-8255'
p3267
ssS'2W4yTO3qHdqyvbz2UxfIPh'
p3268
(dp3269
g3
S'Gorillaz'
p3270
sg5
I1
sg6
S'https://open.spotify.com/track/2W4yTO3qHdqyvbz2UxfIPh'
p3271
sg8
S'Submission (feat. Danny Brown & Kelela)'
p3272
ssS'2771LMNxwf62FTAdpJMQfM'
p3273
(dp3274
g3
S'Cardi B'
p3275
sg5
I8
sg6
S'https://open.spotify.com/track/2771LMNxwf62FTAdpJMQfM'
p3276
sg8
S'Bodak Yellow'
p3277
ssS'1onfcprzpSGh2LqrBh17AA'
p3278
(dp3279
g3
S'The xx'
p3280
sg5
I1
sg6
S'https://open.spotify.com/track/1onfcprzpSGh2LqrBh17AA'
p3281
sg8
S'Lips'
p3282
ssS'6SwRhMLwNqEi6alNPVG00n'
p3283
(dp3284
g3
S'Kendrick Lamar'
p3285
sg5
I20
sg6
S'https://open.spotify.com/track/6SwRhMLwNqEi6alNPVG00n'
p3286
sg8
S'LOYALTY. FEAT. RIHANNA.'
p3287
ssS'2LBqCSwhJGcFQeTHMVGwy3'
p3288
(dp3289
g3
S'The Weeknd'
p3290
sg5
I2
sg6
S'https://open.spotify.com/track/2LBqCSwhJGcFQeTHMVGwy3'
p3291
sg8
S'Die For You'
p3292
ssS'5pvVAwQbuFoR7LkcicrKnk'
p3293
(dp3294
g3
S'Vice'
p3295
sg5
I7
sg6
S'https://open.spotify.com/track/5pvVAwQbuFoR7LkcicrKnk'
p3296
sg8
S'Obsession (feat. Jon Bellion)'
p3297
ssS'1mWy9zjVOTGF0i9P5d5mYm'
p3298
(dp3299
g3
S'Da\xc3\xb0i Freyr P\xc3\xa9tursson'
p3300
sg5
I16
sg6
S'https://open.spotify.com/track/1mWy9zjVOTGF0i9P5d5mYm'
p3301
sg8
S'Is This Love?'
p3302
ssS'54pm6nq2bup1wVMzHht0tQ'
p3303
(dp3304
g3
S'Ruth Reginalds'
p3305
sg5
I1
sg6
S'https://open.spotify.com/track/54pm6nq2bup1wVMzHht0tQ'
p3306
sg8
S'\xc3\x89g s\xc3\xa1 m\xc3\xb6mmu kyssa j\xc3\xb3lasvein'
p3307
ssS'104buTcnP2AsxqB7U1FIZ4'
p3308
(dp3309
g3
S'Linkin Park'
p3310
sg5
I3
sg6
S'https://open.spotify.com/track/104buTcnP2AsxqB7U1FIZ4'
p3311
sg8
S'Heavy (feat. Kiiara)'
p3312
ssS'0CcQNd8CINkwQfe1RDtGV6'
p3313
(dp3314
g3
S'Imagine Dragons'
p3315
sg5
I32
sg6
S'https://open.spotify.com/track/0CcQNd8CINkwQfe1RDtGV6'
p3316
sg8
S'Believer'
p3317
ssS'2VgAFgQobMekLk4QJk93og'
p3318
(dp3319
g3
S'OG3NE'
p3320
sg5
I1
sg6
S'https://open.spotify.com/track/2VgAFgQobMekLk4QJk93og'
p3321
sg8
S'Lights and Shadows'
p3322
ssS'1PSBzsahR2AKwLJgx8ehBj'
p3323
(dp3324
g3
S'Machine Gun Kelly'
p3325
sg5
I14
sg6
S'https://open.spotify.com/track/1PSBzsahR2AKwLJgx8ehBj'
p3326
sg8
S'Bad Things (with Camila Cabello)'
p3327
ssS'7KOlJ92bu51cltsD9KU5I7'
p3328
(dp3329
g3
S'Migos'
p3330
sg5
I39
sg6
S'https://open.spotify.com/track/7KOlJ92bu51cltsD9KU5I7'
p3331
sg8
S'T-Shirt'
p3332
ssS'2BspMmBhjUdHgA0gQASwNy'
p3333
(dp3334
g3
S'Michel Dida'
p3335
sg5
I2
sg6
S'https://open.spotify.com/track/2BspMmBhjUdHgA0gQASwNy'
p3336
sg8
S'Gucci Song (Reykjavik Remix)'
p3337
ssS'5Mb8tSc33qkWgGq55ZLxFT'
p3338
(dp3339
g3
S'J\xc3\xb3iP\xc3\xa9'
p3340
sg5
I5
sg6
S'https://open.spotify.com/track/5Mb8tSc33qkWgGq55ZLxFT'
p3341
sg8
S'Taktlaus'
p3342
ssS'3SGWp9fJCzgK0WcpcKSQdy'
p3343
(dp3344
g3
S'Stanaj'
p3345
sg5
I8
sg6
S'https://open.spotify.com/track/3SGWp9fJCzgK0WcpcKSQdy'
p3346
sg8
S'Romantic - NOTD Remix'
p3347
ssS'1xJAgvtPnvxZDJG9RpvXxA'
p3348
(dp3349
g3
S'Joey Christ'
p3350
sg5
I1
sg6
S'https://open.spotify.com/track/1xJAgvtPnvxZDJG9RpvXxA'
p3351
sg8
S'CDG'
p3352
ssS'7rPLZ8Krm6CZIbraFUlnWZ'
p3353
(dp3354
g3
S'Adele'
p3355
sg5
I3
sg6
S'https://open.spotify.com/track/7rPLZ8Krm6CZIbraFUlnWZ'
p3356
sg8
S'Make You Feel My Love'
p3357
ssS'276zciJ7Fg7Jk6Ta6QuLkp'
p3358
(dp3359
g3
S'Anderson .Paak'
p3360
sg5
I1
sg6
S'https://open.spotify.com/track/276zciJ7Fg7Jk6Ta6QuLkp'
p3361
sg8
S'Come Down'
p3362
ssS'3kkObn08oHrNmCFHSNR0jD'
p3363
(dp3364
g3
S'Lil Pump'
p3365
sg5
I1
sg6
S'https://open.spotify.com/track/3kkObn08oHrNmCFHSNR0jD'
p3366
sg8
S'Flex Like Ouu'
p3367
ssS'661bbtA19xopO3lH0J4Qvr'
p3368
(dp3369
g3
S'The xx'
p3370
sg5
I1
sg6
S'https://open.spotify.com/track/661bbtA19xopO3lH0J4Qvr'
p3371
sg8
S'A Violent Noise'
p3372
ssS'1cq4fvons3LlPhNhq4HMpm'
p3373
(dp3374
g3
S'The Snowy Hill Singers'
p3375
sg5
I1
sg6
S'https://open.spotify.com/track/1cq4fvons3LlPhNhq4HMpm'
p3376
sg8
S'A Christmas Kiss ft. Mia Stegmar'
p3377
ssS'6fujklziTHa8uoM5OQSfIo'
p3378
(dp3379
g3
S'Rae Sremmurd'
p3380
sg5
I20
sg6
S'https://open.spotify.com/track/6fujklziTHa8uoM5OQSfIo'
p3381
sg8
S'Black Beatles'
p3382
ssS'19WjVVgXjdKXfLXoaDPwTM'
p3383
(dp3384
g3
S'Taylor Swift'
p3385
sg5
I5
sg6
S'https://open.spotify.com/track/19WjVVgXjdKXfLXoaDPwTM'
p3386
sg8
S'...Ready For It?'
p3387
ssS'70skHemxMC9fVjxxrisQOg'
p3388
(dp3389
g3
S'Hulda Bj\xc3\xb6rk Gar\xc3\xb0arsd\xc3\xb3ttir'
p3390
sg5
I1
sg6
S'https://open.spotify.com/track/70skHemxMC9fVjxxrisQOg'
p3391
sg8
S'J\xc3\xb3lastemning'
p3392
ssS'6UjfByV1lDLW0SOVQA4NAi'
p3393
(dp3394
g3
S'Drake'
p3395
sg5
I15
sg6
S'https://open.spotify.com/track/6UjfByV1lDLW0SOVQA4NAi'
p3396
sg8
S'Gyalchester'
p3397
ssS'4KW1lqgSr8TKrvBII0Brf8'
p3398
(dp3399
g3
S'Kanye West'
p3400
sg5
I1
sg6
S'https://open.spotify.com/track/4KW1lqgSr8TKrvBII0Brf8'
p3401
sg8
S'Father Stretch My Hands Pt. 1'
p3402
ssS'7floNISpH8VF4z4459Qo18'
p3403
(dp3404
g3
S'XXXTENTACION'
p3405
sg5
I2
sg6
S'https://open.spotify.com/track/7floNISpH8VF4z4459Qo18'
p3406
sg8
S'Look At Me!'
p3407
ssS'3PEgB3fkiojxms35ntsTgs'
p3408
(dp3409
g3
S'Axwell /\\ Ingrosso'
p3410
sg5
I11
sg6
S'https://open.spotify.com/track/3PEgB3fkiojxms35ntsTgs'
p3411
sg8
S'More Than You Know'
p3412
ssS'0oNFdNikVxvhjq8J7DbXmG'
p3413
(dp3414
g3
S'Aron Can'
p3415
sg5
I5
sg6
S'https://open.spotify.com/track/0oNFdNikVxvhjq8J7DbXmG'
p3416
sg8
S'Lifum'
p3417
ssS'6CfrYuD3YRDYdYvH9jNtXY'
p3418
(dp3419
g3
S'Drake'
p3420
sg5
I4
sg6
S'https://open.spotify.com/track/6CfrYuD3YRDYdYvH9jNtXY'
p3421
sg8
S'No Long Talk'
p3422
ssS'05X6aMCQR09E6smUmw9qms'
p3423
(dp3424
g3
S'Queen'
p3425
sg5
I1
sg6
S'https://open.spotify.com/track/05X6aMCQR09E6smUmw9qms'
p3426
sg8
S"Thank God It's Christmas - Non-Album Single"
p3427
ssS'2pMCNai7OshHyqb0wwQnO8'
p3428
(dp3429
g3
S'Sigur\xc3\xb0ur Gu\xc3\xb0mundsson'
p3430
sg5
I1
sg6
S'https://open.spotify.com/track/2pMCNai7OshHyqb0wwQnO8'
p3431
sg8
S'\xc3\x9ea\xc3\xb0 snj\xc3\xb3ar'
p3432
ssS'4kyxlE2XErRys9K4G9WqqE'
p3433
(dp3434
g3
S'Attan'
p3435
sg5
I4
sg6
S'https://open.spotify.com/track/4kyxlE2XErRys9K4G9WqqE'
p3436
sg8
S'\xc3\x81hrifin'
p3437
ssS'03LqgmpDNqs6ZiJ5nObWAi'
p3438
(dp3439
g3
S'P\xc3\xa1lmi Gunnarsson'
p3440
sg5
I1
sg6
S'https://open.spotify.com/track/03LqgmpDNqs6ZiJ5nObWAi'
p3441
sg8
S'Gle\xc3\xb0i og fri\xc3\xb0arj\xc3\xb3l'
p3442
ssS'64GRDrL1efgXclrhVCeuA0'
p3443
(dp3444
g3
S'Sam Smith'
p3445
sg5
I2
sg6
S'https://open.spotify.com/track/64GRDrL1efgXclrhVCeuA0'
p3446
sg8
S'Lay Me Down'
p3447
ssS'0gM8GfppywBISMgxsW1OKN'
p3448
(dp3449
g3
S'Sturla Atlas'
p3450
sg5
I5
sg6
S'https://open.spotify.com/track/0gM8GfppywBISMgxsW1OKN'
p3451
sg8
S'Waiting'
p3452
ssS'4gmmRb6bZJffOOiww1JGTO'
p3453
(dp3454
g3
S'21 Savage'
p3455
sg5
I15
sg6
S'https://open.spotify.com/track/4gmmRb6bZJffOOiww1JGTO'
p3456
sg8
S'No Heart'
p3457
ssS'0UeYCHOETPfai02uskjJ3x'
p3458
(dp3459
g3
S'Bag Raiders'
p3460
sg5
I4
sg6
S'https://open.spotify.com/track/0UeYCHOETPfai02uskjJ3x'
p3461
sg8
S'Shooting Stars'
p3462
ssS'0B8B8cVRFIG1yznoQe7c9s'
p3463
(dp3464
g3
S'The Chainsmokers'
p3465
sg5
I2
sg6
S'https://open.spotify.com/track/0B8B8cVRFIG1yznoQe7c9s'
p3466
sg8
S'Setting Fires'
p3467
ssS'3UjSOJ00E1eLMcayBm827Q'
p3468
(dp3469
g3
S'Salvador Sobral'
p3470
sg5
I7
sg6
S'https://open.spotify.com/track/3UjSOJ00E1eLMcayBm827Q'
p3471
sg8
S'Amar pelos Dois'
p3472
ssS'02WacdrRpm4zlP8H7X6bnQ'
p3473
(dp3474
g3
S'Calum Scott'
p3475
sg5
I30
sg6
S'https://open.spotify.com/track/02WacdrRpm4zlP8H7X6bnQ'
p3476
sg8
S'Dancing On My Own'
p3477
ssS'1mDGDb2fUmUMdqV3tb8VKQ'
p3478
(dp3479
g3
S'Halsey'
p3480
sg5
I1
sg6
S'https://open.spotify.com/track/1mDGDb2fUmUMdqV3tb8VKQ'
p3481
sg8
S'Now Or Never'
p3482
ssS'3DQem3yY6RQRYnOqWuzsLC'
p3483
(dp3484
g3
S'J\xc3\xb3n J\xc3\xb3nsson'
p3485
sg5
I21
sg6
S'https://open.spotify.com/track/3DQem3yY6RQRYnOqWuzsLC'
p3486
sg8
S'Sooner or Later'
p3487
ssS'2J1e1B5b2G24P7l6V0Gcqy'
p3488
(dp3489
g3
S'\xc3\x9alfur \xc3\x9alfur'
p3490
sg5
I1
sg6
S'https://open.spotify.com/track/2J1e1B5b2G24P7l6V0Gcqy'
p3491
sg8
S'\xc3\x9alfur'
p3492
ssS'6pDVjCUA3B1vg9waKutAsv'
p3493
(dp3494
g3
S'The Weeknd'
p3495
sg5
I2
sg6
S'https://open.spotify.com/track/6pDVjCUA3B1vg9waKutAsv'
p3496
sg8
S'Attention'
p3497
ssS'6OZh916QF8XNunWaP97WEZ'
p3498
(dp3499
g3
S'Jonas Blue'
p3500
sg5
I10
sg6
S'https://open.spotify.com/track/6OZh916QF8XNunWaP97WEZ'
p3501
sg8
S'Fast Car'
p3502
ssS'2rizacJSyD9S1IQUxUxnsK'
p3503
(dp3504
g3
S'The Chainsmokers'
p3505
sg5
I8
sg6
S'https://open.spotify.com/track/2rizacJSyD9S1IQUxUxnsK'
p3506
sg8
S'All We Know'
p3507
ssS'2yZax79pOrYuyIFVW2cZY2'
p3508
(dp3509
g3
S'XXXTENTACION'
p3510
sg5
I7
sg6
S'https://open.spotify.com/track/2yZax79pOrYuyIFVW2cZY2'
p3511
sg8
S'Carry On'
p3512
ssS'6RsWqX8zABZLhZydXxEFOm'
p3513
(dp3514
g3
S'The Weeknd'
p3515
sg5
I1
sg6
S'https://open.spotify.com/track/6RsWqX8zABZLhZydXxEFOm'
p3516
sg8
S"Can't Feel My Face"
p3517
ssS'0YvbnCbNpQ1euDO1D6c02l'
p3518
(dp3519
g3
S'Alexander Jarl'
p3520
sg5
I1
sg6
S'https://open.spotify.com/track/0YvbnCbNpQ1euDO1D6c02l'
p3521
sg8
S'Veist Ekki'
p3522
ssS'0tgVpDi06FyKpA1z0VMD4v'
p3523
(dp3524
g3
S'Ed Sheeran'
p3525
sg5
I32
sg6
S'https://open.spotify.com/track/0tgVpDi06FyKpA1z0VMD4v'
p3526
sg8
S'Perfect'
p3527
ssS'2WfaOiMkCvy7F5fcp2zZ8L'
p3528
(dp3529
g3
S'a-ha'
p3530
sg5
I1
sg6
S'https://open.spotify.com/track/2WfaOiMkCvy7F5fcp2zZ8L'
p3531
sg8
S'Take On Me'
p3532
ssS'0OM36fpNkTq08yVSWQ2h3c'
p3533
(dp3534
g3
S'Hj\xc3\xa1lmar'
p3535
sg5
I39
sg6
S'https://open.spotify.com/track/0OM36fpNkTq08yVSWQ2h3c'
p3536
sg8
S'Lei\xc3\xb0in okkar allra'
p3537
ssS'6cAKeFFYW2aClZSUyvqAEW'
p3538
(dp3539
g3
S'Isaiah'
p3540
sg5
I8
sg6
S'https://open.spotify.com/track/6cAKeFFYW2aClZSUyvqAEW'
p3541
sg8
S"It's Gotta Be You"
p3542
ssS'2dDXqeSNoWfccBFVFT8ZPU'
p3543
(dp3544
g3
S'Sigur\xc3\xb0ur Gu\xc3\xb0mundsson'
p3545
sg5
I1
sg6
S'https://open.spotify.com/track/2dDXqeSNoWfccBFVFT8ZPU'
p3546
sg8
S'J\xc3\xb3l'
p3547
ssS'4h4pNMbBKfaIXyR9SY62Lm'
p3548
(dp3549
g3
S'Laddi'
p3550
sg5
I1
sg6
S'https://open.spotify.com/track/4h4pNMbBKfaIXyR9SY62Lm'
p3551
sg8
S'Snj\xc3\xb3korn falla'
p3552
ssS'5vMwmfhNcMi3pgGwfutVqI'
p3553
(dp3554
g3
S'Chris Tyson'
p3555
sg5
I1
sg6
S'https://open.spotify.com/track/5vMwmfhNcMi3pgGwfutVqI'
p3556
sg8
S'Back Flip'
p3557
ssS'01BH84YKAUW6My06QFJ8wi'
p3558
(dp3559
g3
S'Floni'
p3560
sg5
I8
sg6
S'https://open.spotify.com/track/01BH84YKAUW6My06QFJ8wi'
p3561
sg8
S'Leika'
p3562
ssS'2wDjpPW3HZdA9quPPmZAMu'
p3563
(dp3564
g3
S'Cashmere Cat'
p3565
sg5
I5
sg6
S'https://open.spotify.com/track/2wDjpPW3HZdA9quPPmZAMu'
p3566
sg8
S'Trust Nobody (feat. Selena Gomez & Tory Lanez)'
p3567
ssS'1hvpDAxZPKjKztOc72sv06'
p3568
(dp3569
g3
S'Band Aid'
p3570
sg5
I1
sg6
S'https://open.spotify.com/track/1hvpDAxZPKjKztOc72sv06'
p3571
sg8
S"Do They Know It's Christmas? - 1984 Version"
p3572
ssS'72Q0FQQo32KJloivv5xge2'
p3573
(dp3574
g3
S'DJ Khaled'
p3575
sg5
I3
sg6
S'https://open.spotify.com/track/72Q0FQQo32KJloivv5xge2'
p3576
sg8
S"I'm the One"
p3577
ssS'49EgauTc1cGkHwPGCaHh1f'
p3578
(dp3579
g3
S'Lil Yachty'
p3580
sg5
I1
sg6
S'https://open.spotify.com/track/49EgauTc1cGkHwPGCaHh1f'
p3581
sg8
S'Better'
p3582
ssS'0hNduWmlWmEmuwEFcYvRu1'
p3583
(dp3584
g3
S'Petit Biscuit'
p3585
sg5
I12
sg6
S'https://open.spotify.com/track/0hNduWmlWmEmuwEFcYvRu1'
p3586
sg8
S'Sunset Lover'
p3587
ssS'5Z3GHaZ6ec9bsiI5BenrbY'
p3588
(dp3589
g3
S'Khalid'
p3590
sg5
I12
sg6
S'https://open.spotify.com/track/5Z3GHaZ6ec9bsiI5BenrbY'
p3591
sg8
S'Young Dumb & Broke'
p3592
ssS'1x5sYLZiu9r5E43kMlt9f8'
p3593
(dp3594
g3
S'Clean Bandit'
p3595
sg5
I30
sg6
S'https://open.spotify.com/track/1x5sYLZiu9r5E43kMlt9f8'
p3596
sg8
S'Symphony (feat. Zara Larsson)'
p3597
ssS'6IeK3Ap5m3HabwJxgI6eSE'
p3598
(dp3599
g3
S'Perry Como'
p3600
sg5
I1
sg6
S'https://open.spotify.com/track/6IeK3Ap5m3HabwJxgI6eSE'
p3601
sg8
S"It's Beginning to Look a Lot Like Christmas"
p3602
ssS'1XzdeTK7eQulR42YCb66La'
p3603
(dp3604
g3
S'Eyj\xc3\xb3lfur Kristj\xc3\xa1nsson'
p3605
sg5
I1
sg6
S'https://open.spotify.com/track/1XzdeTK7eQulR42YCb66La'
p3606
sg8
S'Gle\xc3\xb0ileg j\xc3\xb3l (allir saman)'
p3607
ssS'5TvE3pk05pyFIGdSY9j4DJ'
p3608
(dp3609
g3
S'A Great Big World'
p3610
sg5
I1
sg6
S'https://open.spotify.com/track/5TvE3pk05pyFIGdSY9j4DJ'
p3611
sg8
S'Say Something'
p3612
ssS'5FPGJa9FK2CAyH36v6Uo2n'
p3613
(dp3614
g3
S'Hildur'
p3615
sg5
I2
sg6
S'https://open.spotify.com/track/5FPGJa9FK2CAyH36v6Uo2n'
p3616
sg8
S'Bammbaramm (english)'
p3617
ssS'6520aj0B4FSKGVuKNsOCOi'
p3618
(dp3619
g3
S'Katy Perry'
p3620
sg5
I21
sg6
S'https://open.spotify.com/track/6520aj0B4FSKGVuKNsOCOi'
p3621
sg8
S'Chained To The Rhythm'
p3622
ssS'2H3wWrnO758y0fPH7Ilerg'
p3623
(dp3624
g3
S'XXXTENTACION'
p3625
sg5
I7
sg6
S'https://open.spotify.com/track/2H3wWrnO758y0fPH7Ilerg'
p3626
sg8
S'Depression & Obsession'
p3627
ssS'0cHpO9Gg7wslsnz1ALVize'
p3628
(dp3629
g3
S'Hlj\xc3\xb3mar'
p3630
sg5
I1
sg6
S'https://open.spotify.com/track/0cHpO9Gg7wslsnz1ALVize'
p3631
sg8
S'J\xc3\xb3lasveinninn minn'
p3632
ssS'3fuyrhl4t559gmGfPBkEp9'
p3633
(dp3634
g3
S'Sk\xc3\xadtam\xc3\xb3rall'
p3635
sg5
I3
sg6
S'https://open.spotify.com/track/3fuyrhl4t559gmGfPBkEp9'
p3636
sg8
S'Farin'
p3637
ssS'5Db9VIdDsN5yu3Eu7CT0i4'
p3638
(dp3639
g3
S'Sam Smith'
p3640
sg5
I34
sg6
S'https://open.spotify.com/track/5Db9VIdDsN5yu3Eu7CT0i4'
p3641
sg8
S'Stay With Me'
p3642
ssS'1nEjslQgoXyJXWewc8SUTN'
p3643
(dp3644
g3
S'Birnir'
p3645
sg5
I27
sg6
S'https://open.spotify.com/track/1nEjslQgoXyJXWewc8SUTN'
p3646
sg8
S'Ekki Switcha'
p3647
ssS'6mb6lVLNrcUgLnEN8QnDJd'
p3648
(dp3649
g3
S"Auli'i Cravalho"
p3650
sg5
I2
sg6
S'https://open.spotify.com/track/6mb6lVLNrcUgLnEN8QnDJd'
p3651
sg8
S"How Far I'll Go"
p3652
ssS'7F1LWA9sIlTorHUo4amGqk'
p3653
(dp3654
g3
S'The Weeknd'
p3655
sg5
I1
sg6
S'https://open.spotify.com/track/7F1LWA9sIlTorHUo4amGqk'
p3656
sg8
S'Reminder - Remix'
p3657
ssS'0tKcYR2II1VCQWT79i5NrW'
p3658
(dp3659
g3
S'Imagine Dragons'
p3660
sg5
I20
sg6
S'https://open.spotify.com/track/0tKcYR2II1VCQWT79i5NrW'
p3661
sg8
S'Thunder'
p3662
ssS'3FDrI0FLKzrYQiWxPhqV2W'
p3663
(dp3664
g3
S'Calvin Harris'
p3665
sg5
I4
sg6
S'https://open.spotify.com/track/3FDrI0FLKzrYQiWxPhqV2W'
p3666
sg8
S'Rollin'
p3667
ssS'482yyPr50nyGL29zctDNLE'
p3668
(dp3669
g3
S'Bubbi Morthens'
p3670
sg5
I2
sg6
S'https://open.spotify.com/track/482yyPr50nyGL29zctDNLE'
p3671
sg8
S'St\xc3\xa1l og hn\xc3\xadfur'
p3672
ssS'5PHPENfE3RVmHGAA2A7Hfx'
p3673
(dp3674
g3
S'RuPaul'
p3675
sg5
I2
sg6
S'https://open.spotify.com/track/5PHPENfE3RVmHGAA2A7Hfx'
p3676
sg8
S'Sissy That Walk'
p3677
ssS'6DNtNfH8hXkqOX1sjqmI7p'
p3678
(dp3679
g3
S'Major Lazer'
p3680
sg5
I31
sg6
S'https://open.spotify.com/track/6DNtNfH8hXkqOX1sjqmI7p'
p3681
sg8
S'Cold Water (feat. Justin Bieber & M\xc3\x98)'
p3682
ssS'745YR4QDaT3pxvaZcBBPbF'
p3683
(dp3684
g3
S'Sturla Atlas'
p3685
sg5
I12
sg6
S'https://open.spotify.com/track/745YR4QDaT3pxvaZcBBPbF'
p3686
sg8
S'I Know'
p3687
ssS'5NNlUMcOEOdoOIwwaWXv0k'
p3688
(dp3689
g3
S'Maroon 5'
p3690
sg5
I17
sg6
S'https://open.spotify.com/track/5NNlUMcOEOdoOIwwaWXv0k'
p3691
sg8
S'Cold'
p3692
ssS'3m660poUr1chesgkkjQM7P'
p3693
(dp3694
g3
S'Demi Lovato'
p3695
sg5
I2
sg6
S'https://open.spotify.com/track/3m660poUr1chesgkkjQM7P'
p3696
sg8
S'Sorry Not Sorry'
p3697
ssS'5bcTCxgc7xVfSaMV3RuVke'
p3698
(dp3699
g3
S'Calvin Harris'
p3700
sg5
I16
sg6
S'https://open.spotify.com/track/5bcTCxgc7xVfSaMV3RuVke'
p3701
sg8
S'Feels'
p3702
ssS'5XQMr19TL7Mfksq9zihbOu'
p3703
(dp3704
g3
S'Chris Brown'
p3705
sg5
I2
sg6
S'https://open.spotify.com/track/5XQMr19TL7Mfksq9zihbOu'
p3706
sg8
S'Questions'
p3707
ssS'1sXUWdKx03aP9Gmzft58rt'
p3708
(dp3709
g3
S'Julia Michaels'
p3710
sg5
I27
sg6
S'https://open.spotify.com/track/1sXUWdKx03aP9Gmzft58rt'
p3711
sg8
S'Issues'
p3712
ssS'5Um2pbJNsPHsYNMFCXxR4D'
p3713
(dp3714
g3
S'R\xc3\xbanar Eff'
p3715
sg5
I2
sg6
S'https://open.spotify.com/track/5Um2pbJNsPHsYNMFCXxR4D'
p3716
sg8
S'M\xc3\xa9r vi\xc3\xb0 hli\xc3\xb0'
p3717
ssS'3QiAAp20rPC3dcAtKtMaqQ'
p3718
(dp3719
g3
S'Elvis Presley'
p3720
sg5
I1
sg6
S'https://open.spotify.com/track/3QiAAp20rPC3dcAtKtMaqQ'
p3721
sg8
S'Blue Christmas'
p3722
ssS'7IWkJwX9C0J7tHurTD7ViL'
p3723
(dp3724
g3
S'Adele'
p3725
sg5
I7
sg6
S'https://open.spotify.com/track/7IWkJwX9C0J7tHurTD7ViL'
p3726
sg8
S'When We Were Young'
p3727
ssS'1zayuwd1YLZsYDArkruHdL'
p3728
(dp3729
g3
S'Kendrick Lamar'
p3730
sg5
I4
sg6
S'https://open.spotify.com/track/1zayuwd1YLZsYDArkruHdL'
p3731
sg8
S'The Heart Part 4'
p3732
ssS'5Ym7C0ryw3Nl1RoamrOZaO'
p3733
(dp3734
g3
S'Sigur\xc3\xb0ur Gu\xc3\xb0mundsson'
p3735
sg5
I1
sg6
S'https://open.spotify.com/track/5Ym7C0ryw3Nl1RoamrOZaO'
p3736
sg8
S'\xc3\x9ea\xc3\xb0 f\xc3\xa6ddist barn \xc3\xad Betlehem'
p3737
ssS'14oOKFGuXu8DqvOe1W8vao'
p3738
(dp3739
g3
S'Katy Perry'
p3740
sg5
I2
sg6
S'https://open.spotify.com/track/14oOKFGuXu8DqvOe1W8vao'
p3741
sg8
S'Bon App\xc3\xa9tit'
p3742
ssS'4BHSjbYylfOH5WAGusDyni'
p3743
(dp3744
g3
S'Kendrick Lamar'
p3745
sg5
I4
sg6
S'https://open.spotify.com/track/4BHSjbYylfOH5WAGusDyni'
p3746
sg8
S'YAH.'
p3747
ssS'4uoumbAMEMaKdtiv763jKz'
p3748
(dp3749
g3
S'Zara Larsson'
p3750
sg5
I11
sg6
S'https://open.spotify.com/track/4uoumbAMEMaKdtiv763jKz'
p3751
sg8
S'TG4M'
p3752
ssS'2tFgv3sLFNc088KLtjxzVa'
p3753
(dp3754
g3
S'Gabrielle'
p3755
sg5
I8
sg6
S'https://open.spotify.com/track/2tFgv3sLFNc088KLtjxzVa'
p3756
sg8
S'5 fine fr\xc3\xb8kner'
p3757
ssS'1louJpMmzEicAn7lzDalPW'
p3758
(dp3759
g3
S'Cheat Codes'
p3760
sg5
I25
sg6
S'https://open.spotify.com/track/1louJpMmzEicAn7lzDalPW'
p3761
sg8
S'No Promises (feat. Demi Lovato)'
p3762
ssS'2ISl1zekPsc26sUQpVt8UB'
p3763
(dp3764
g3
S"Shakin' Stevens"
p3765
sg5
I1
sg6
S'https://open.spotify.com/track/2ISl1zekPsc26sUQpVt8UB'
p3766
sg8
S'Merry Christmas Everyone - Remastered'
p3767
ssS'2pJZ1v8HezrAoZ0Fhzby92'
p3768
(dp3769
g3
S'Ed Sheeran'
p3770
sg5
I9
sg6
S'https://open.spotify.com/track/2pJZ1v8HezrAoZ0Fhzby92'
p3771
sg8
S'What Do I Know?'
p3772
ssS'0KKkJNfGyhkQ5aFogxQAPU'
p3773
(dp3774
g3
S'Bruno Mars'
p3775
sg5
I28
sg6
S'https://open.spotify.com/track/0KKkJNfGyhkQ5aFogxQAPU'
p3776
sg8
S"That's What I Like"
p3777
ssS'1Slwb6dOYkBlWal1PGtnNg'
p3778
(dp3779
g3
S'Ed Sheeran'
p3780
sg5
I38
sg6
S'https://open.spotify.com/track/1Slwb6dOYkBlWal1PGtnNg'
p3781
sg8
S'Thinking Out Loud'
p3782
ssS'3ZOEytgrvLwQaqXreDs2Jx'
p3783
(dp3784
g3
S'Red Hot Chili Peppers'
p3785
sg5
I1
sg6
S'https://open.spotify.com/track/3ZOEytgrvLwQaqXreDs2Jx'
p3786
sg8
S"Can't Stop"
p3787
ssS'3kXqUXnukwkpsxhW8emNC0'
p3788
(dp3789
g3
S'Blanche'
p3790
sg5
I19
sg6
S'https://open.spotify.com/track/3kXqUXnukwkpsxhW8emNC0'
p3791
sg8
S'City Lights'
p3792
ssS'3cwDSDzTiWr5H5xMQhQ6Mx'
p3793
(dp3794
g3
S'Rammstein'
p3795
sg5
I3
sg6
S'https://open.spotify.com/track/3cwDSDzTiWr5H5xMQhQ6Mx'
p3796
sg8
S'Du hast'
p3797
ssS'1VP35CkQgReRUB8mf5AAZz'
p3798
(dp3799
g3
S'Landaboi$'
p3800
sg5
I1
sg6
S'https://open.spotify.com/track/1VP35CkQgReRUB8mf5AAZz'
p3801
sg8
S'Hvar Er D\xc3\xb3pi\xc3\xb0? (feat. J\xc3\xb3ip\xc3\xa9 & Kr\xc3\xb3li)'
p3802
ssS'43nF52meBE9zI9W8EjMVfk'
p3803
(dp3804
g3
S'Fri\xc3\xb0rik D\xc3\xb3r'
p3805
sg5
I18
sg6
S'https://open.spotify.com/track/43nF52meBE9zI9W8EjMVfk'
p3806
sg8
S"Hringd'\xc3\xad mig"
p3807
ssS'2habSXqcJGExM6JJyskY7O'
p3808
(dp3809
g3
S'Miley Cyrus'
p3810
sg5
I20
sg6
S'https://open.spotify.com/track/2habSXqcJGExM6JJyskY7O'
p3811
sg8
S'Malibu'
p3812
ssS'5Ua3GXyHwiSfpNTMjq6m2z'
p3813
(dp3814
g3
S'Little Mix'
p3815
sg5
I21
sg6
S'https://open.spotify.com/track/5Ua3GXyHwiSfpNTMjq6m2z'
p3816
sg8
S'Touch'
p3817
ssS'6i0V12jOa3mr6uu4WYhUBr'
p3818
(dp3819
g3
S'Twenty One Pilots'
p3820
sg5
I20
sg6
S'https://open.spotify.com/track/6i0V12jOa3mr6uu4WYhUBr'
p3821
sg8
S'Heathens'
p3822
ssS'0NnISPNaZX4KVVBUrxsIev'
p3823
(dp3824
g3
S'Aron Can'
p3825
sg5
I22
sg6
S'https://open.spotify.com/track/0NnISPNaZX4KVVBUrxsIev'
p3826
sg8
S'Eftir 12'
p3827
ssS'1HTtUBEY3tuw2btgwwI2Ja'
p3828
(dp3829
g3
S'Gucci Mane'
p3830
sg5
I8
sg6
S'https://open.spotify.com/track/1HTtUBEY3tuw2btgwwI2Ja'
p3831
sg8
S'I Get The Bag (feat. Migos)'
p3832
ssS'40UroIGvsMPLPBYwH8rMNA'
p3833
(dp3834
g3
S'Vice'
p3835
sg5
I4
sg6
S'https://open.spotify.com/track/40UroIGvsMPLPBYwH8rMNA'
p3836
sg8
S'Steady 1234 (feat. Jasmine Thompson & Skizzy Mars)'
p3837
ssS'0BU7nIcCZxYSE0hYcc5oZz'
p3838
(dp3839
g3
S'Kodak Black'
p3840
sg5
I3
sg6
S'https://open.spotify.com/track/0BU7nIcCZxYSE0hYcc5oZz'
p3841
sg8
S'Too Many Years'
p3842
ssS'48UPSzbZjgc449aqz8bxox'
p3843
(dp3844
g3
S'Red Hot Chili Peppers'
p3845
sg5
I1
sg6
S'https://open.spotify.com/track/48UPSzbZjgc449aqz8bxox'
p3846
sg8
S'Californication'
p3847
ssS'4SYUUlkScpNR1QvPscXf8t'
p3848
(dp3849
g3
S'Post Malone'
p3850
sg5
I1
sg6
S'https://open.spotify.com/track/4SYUUlkScpNR1QvPscXf8t'
p3851
sg8
S'Too Young'
p3852
ssS'0SuG9kyzGRpDqrCWtgD6Lq'
p3853
(dp3854
g3
S'Ed Sheeran'
p3855
sg5
I2
sg6
S'https://open.spotify.com/track/0SuG9kyzGRpDqrCWtgD6Lq'
p3856
sg8
S'Give Me Love'
p3857
ssS'57aXzgC9oRTr1TPFg6P6Lc'
p3858
(dp3859
g3
S'12:00'
p3860
sg5
I7
sg6
S'https://open.spotify.com/track/57aXzgC9oRTr1TPFg6P6Lc'
p3861
sg8
S'Ekkert of Ung'
p3862
ssS'3iQc2d51FMnQMpTdKGM2ps'
p3863
(dp3864
g3
S'Sturla Atlas'
p3865
sg5
I3
sg6
S'https://open.spotify.com/track/3iQc2d51FMnQMpTdKGM2ps'
p3866
sg8
S'Talk'
p3867
ssS'6kig1UFggPUyZBCvXD3Wod'
p3868
(dp3869
g3
S'Metro Boomin'
p3870
sg5
I7
sg6
S'https://open.spotify.com/track/6kig1UFggPUyZBCvXD3Wod'
p3871
sg8
S'No Complaints'
p3872
ssS'6fxVffaTuwjgEk5h9QyRjy'
p3873
(dp3874
g3
S'Ed Sheeran'
p3875
sg5
I41
sg6
S'https://open.spotify.com/track/6fxVffaTuwjgEk5h9QyRjy'
p3876
sg8
S'Photograph'
p3877
ssS'2kVHAQKVtczchKctctzbtK'
p3878
(dp3879
g3
S'Katy Perry'
p3880
sg5
I15
sg6
S'https://open.spotify.com/track/2kVHAQKVtczchKctctzbtK'
p3881
sg8
S'Swish Swish'
p3882
ssS'1VdZ0vKfR5jneCmWIUAMxK'
p3883
(dp3884
g3
S'Ed Sheeran'
p3885
sg5
I5
sg6
S'https://open.spotify.com/track/1VdZ0vKfR5jneCmWIUAMxK'
p3886
sg8
S'The A Team'
p3887
ssS'1wur1SW656paPv7EyTqWu4'
p3888
(dp3889
g3
S'C\xc3\xa9line Dion'
p3890
sg5
I1
sg6
S'https://open.spotify.com/track/1wur1SW656paPv7EyTqWu4'
p3891
sg8
S'Happy Xmas (War Is Over)'
p3892
ssS'4N2Xtuy20ewSeznRQcX6G4'
p3893
(dp3894
g3
S'Emmsj\xc3\xa9 Gauti'
p3895
sg5
I42
sg6
S'https://open.spotify.com/track/4N2Xtuy20ewSeznRQcX6G4'
p3896
sg8
S'Reykjav\xc3\xadk'
p3897
ssS'6nxQdXa1uAL0rY72wPZu89'
p3898
(dp3899
g3
S'John Legend'
p3900
sg5
I13
sg6
S'https://open.spotify.com/track/6nxQdXa1uAL0rY72wPZu89'
p3901
sg8
S'Love Me Now'
p3902
ssS'4L7Y2OAPiY2I2GndZjAs5K'
p3903
(dp3904
g3
S'Lana Del Rey'
p3905
sg5
I1
sg6
S'https://open.spotify.com/track/4L7Y2OAPiY2I2GndZjAs5K'
p3906
sg8
S'Lust For Life (with The Weeknd)'
p3907
ssS'6kex4EBAj0WHXDKZMEJaaF'
p3908
(dp3909
g3
S'Jason Derulo'
p3910
sg5
I31
sg6
S'https://open.spotify.com/track/6kex4EBAj0WHXDKZMEJaaF'
p3911
sg8
S'Swalla (feat. Nicki Minaj & Ty Dolla $ign)'
p3912
ssS'184cjXwukXedpuWm4Xl6X7'
p3913
(dp3914
g3
S'Jacques Houdek'
p3915
sg5
I1
sg6
S'https://open.spotify.com/track/184cjXwukXedpuWm4Xl6X7'
p3916
sg8
S'MY FRIEND'
p3917
ssS'0jTmeCbFeCpSijXuiCXsrL'
p3918
(dp3919
g3
S'Rj\xc3\xb3minn'
p3920
sg5
I26
sg6
S'https://open.spotify.com/track/0jTmeCbFeCpSijXuiCXsrL'
p3921
sg8
S'Dimmalimm (feat. SZK)'
p3922
ssS'5gi2afTiRuhuQhgFQrGrN9'
p3923
(dp3924
g3
S'\xc3\x8dslensku d\xc3\xadvurnar'
p3925
sg5
I1
sg6
S'https://open.spotify.com/track/5gi2afTiRuhuQhgFQrGrN9'
p3926
sg8
S'Hugurinn fer h\xc3\xa6rra'
p3927
ssS'1Gj6R6et92U5txJxu8ffL5'
p3928
(dp3929
g3
S'Aron Can'
p3930
sg5
I8
sg6
S'https://open.spotify.com/track/1Gj6R6et92U5txJxu8ffL5'
p3931
sg8
S'Fr\xc3\xadk\xc3\xbat'
p3932
ssS'6YnzBV7YkaXZNCK3tlnCfg'
p3933
(dp3934
g3
S'Boney M.'
p3935
sg5
I1
sg6
S'https://open.spotify.com/track/6YnzBV7YkaXZNCK3tlnCfg'
p3936
sg8
S"Mary's Boy Child / Oh My Lord"
p3937
ssS'4L2K7JKseFCBoHMZEAszW0'
p3938
(dp3939
g3
S'Labrinth'
p3940
sg5
I3
sg6
S'https://open.spotify.com/track/4L2K7JKseFCBoHMZEAszW0'
p3941
sg8
S'Jealous'
p3942
ssS'2i9ArJ8VpPu5scoaIG0OkZ'
p3943
(dp3944
g3
S'Hjaltal\xc3\xadn'
p3945
sg5
I39
sg6
S'https://open.spotify.com/track/2i9ArJ8VpPu5scoaIG0OkZ'
p3946
sg8
S'Halo (Beyonce Cover) [Live On Icelandic National Radio]'
p3947
ssS'08WPvDEsHvTFuB9w8tC2OS'
p3948
(dp3949
g3
S'Sage The Gemini'
p3950
sg5
I1
sg6
S'https://open.spotify.com/track/08WPvDEsHvTFuB9w8tC2OS'
p3951
sg8
S'Now and Later'
p3952
ssS'4ZJPwET9Jrgpkqi4Vo3Yg8'
p3953
(dp3954
g3
S'Bebe Rexha'
p3955
sg5
I7
sg6
S'https://open.spotify.com/track/4ZJPwET9Jrgpkqi4Vo3Yg8'
p3956
sg8
S'Bad Bitch (feat. Ty Dolla $ign)'
p3957
ssS'27GmP9AWRs744SzKcpJsTZ'
p3958
(dp3959
g3
S'Drake'
p3960
sg5
I12
sg6
S'https://open.spotify.com/track/27GmP9AWRs744SzKcpJsTZ'
p3961
sg8
S'Jumpman'
p3962
ssS'0Fv5N0cHBsl4bzCbollCAS'
p3963
(dp3964
g3
S'Big Sean'
p3965
sg5
I18
sg6
S'https://open.spotify.com/track/0Fv5N0cHBsl4bzCbollCAS'
p3966
sg8
S'Moves'
p3967
ssS'7KXjTSCq5nL1LoYtL7XAwS'
p3968
(dp3969
g3
S'Kendrick Lamar'
p3970
sg5
I28
sg6
S'https://open.spotify.com/track/7KXjTSCq5nL1LoYtL7XAwS'
p3971
sg8
S'HUMBLE.'
p3972
ssS'0tXPhc8LvM4dPvoRwI66XQ'
p3973
(dp3974
g3
S'Michael Bubl\xc3\xa9'
p3975
sg5
I1
sg6
S'https://open.spotify.com/track/0tXPhc8LvM4dPvoRwI66XQ'
p3976
sg8
S"I'll Be Home For Christmas"
p3977
ssS'2Ae5awwKvQpTBKQHr1TYCg'
p3978
(dp3979
g3
S'Nause'
p3980
sg5
I2
sg6
S'https://open.spotify.com/track/2Ae5awwKvQpTBKQHr1TYCg'
p3981
sg8
S'Dynamite (feat. Pretty Sister)'
p3982
ssS'7MTgbzkPpZknouLK2PPcAv'
p3983
(dp3984
g3
S'\xc3\x9e\xc3\xb3rd\xc3\xads Birna Borgarsd\xc3\xb3ttir'
p3985
sg5
I1
sg6
S'https://open.spotify.com/track/7MTgbzkPpZknouLK2PPcAv'
p3986
sg8
S'Get Back Home'
p3987
ssS'2N43TKlYTUfNPlyJK2exnh'
p3988
(dp3989
g3
S'IMRI'
p3990
sg5
I1
sg6
S'https://open.spotify.com/track/2N43TKlYTUfNPlyJK2exnh'
p3991
sg8
S'I Feel Alive'
p3992
ssS'69GGwFdMsJZtGQg1JX6Aep'
p3993
(dp3994
g3
S'Manel Navarro'
p3995
sg5
I1
sg6
S'https://open.spotify.com/track/69GGwFdMsJZtGQg1JX6Aep'
p3996
sg8
S'Do It for Your Lover - Eurovision 2017'
p3997
ssS'3SfR5uAH03jRxTkzVbCFsV'
p3998
(dp3999
g3
S'Joey Christ'
p4000
sg5
I14
sg6
S'https://open.spotify.com/track/3SfR5uAH03jRxTkzVbCFsV'
p4001
sg8
S'\xc3\x8dsv\xc3\xa9lin'
p4002
ssS'6Na5uKk5SsqZimk0hAWo8y'
p4003
(dp4004
g3
S'Drake'
p4005
sg5
I2
sg6
S'https://open.spotify.com/track/6Na5uKk5SsqZimk0hAWo8y'
p4006
sg8
S'Signs'
p4007
ssS'2EGgDjfNyCskVU0YArzB2D'
p4008
(dp4009
g3
S'Egill \xc3\x93lafsson'
p4010
sg5
I1
sg6
S'https://open.spotify.com/track/2EGgDjfNyCskVU0YArzB2D'
p4011
sg8
S'H\xc3\xa1t\xc3\xad\xc3\xb0 \xc3\xad b\xc3\xa6'
p4012
ssS'4Cn1qnBcEeEuKB5SRbqsht'
p4013
(dp4014
g3
S'\xc3\x9alfur \xc3\x9alfur'
p4015
sg5
I2
sg6
S'https://open.spotify.com/track/4Cn1qnBcEeEuKB5SRbqsht'
p4016
sg8
S'Skr\xc3\xadmsli'
p4017
ssS'0n2bvWvMwr0gbjcuTm92eW'
p4018
(dp4019
g3
S'Lana Del Rey'
p4020
sg5
I1
sg6
S'https://open.spotify.com/track/0n2bvWvMwr0gbjcuTm92eW'
p4021
sg8
S'Love'
p4022
ssS'2nUJvBO87SkxCViQsLc9Zr'
p4023
(dp4024
g3
S'Big Shaq'
p4025
sg5
I1
sg6
S'https://open.spotify.com/track/2nUJvBO87SkxCViQsLc9Zr'
p4026
sg8
S"Man's Not Hot"
p4027
ssS'3pRTjSYlsfL3hqG43VolZl'
p4028
(dp4029
g3
S'Michael Bubl\xc3\xa9'
p4030
sg5
I1
sg6
S'https://open.spotify.com/track/3pRTjSYlsfL3hqG43VolZl'
p4031
sg8
S'Silver Bells (feat. Naturally 7) - Bonus Track'
p4032
ssS'3AsAuGTaDQzavZZThyYlop'
p4033
(dp4034
g3
S'NEIKED'
p4035
sg5
I16
sg6
S'https://open.spotify.com/track/3AsAuGTaDQzavZZThyYlop'
p4036
sg8
S'Sexual'
p4037
ssS'3Lfiu5sZ4M4B6JaKMBc0FU'
p4038
(dp4039
g3
S'Ed Sheeran'
p4040
sg5
I8
sg6
S'https://open.spotify.com/track/3Lfiu5sZ4M4B6JaKMBc0FU'
p4041
sg8
S'Barcelona'
p4042
ssS'4kfm1uI9QGaoN9qm6CkAMn'
p4043
(dp4044
g3
S'Linkin Park'
p4045
sg5
I1
sg6
S'https://open.spotify.com/track/4kfm1uI9QGaoN9qm6CkAMn'
p4046
sg8
S"What I've Done"
p4047
ssS'69bp2EbF7Q2rqc5N3ylezZ'
p4048
(dp4049
g3
S'Justin Bieber'
p4050
sg5
I33
sg6
S'https://open.spotify.com/track/69bp2EbF7Q2rqc5N3ylezZ'
p4051
sg8
S'Sorry'
p4052
ssS'52ijRjspJ9nN8oGAi0ArSG'
p4053
(dp4054
g3
S'Joey Christ'
p4055
sg5
I9
sg6
S'https://open.spotify.com/track/52ijRjspJ9nN8oGAi0ArSG'
p4056
sg8
S'N\xc3\xbdjum b\xc3\xadl'
p4057
ssS'04CttTezSnv71USiiG9mIo'
p4058
(dp4059
g3
S'Hearts & Colors'
p4060
sg5
I8
sg6
S'https://open.spotify.com/track/04CttTezSnv71USiiG9mIo'
p4061
sg8
S'Lighthouse - Andrelli Remix'
p4062
ssS'4iLqG9SeJSnt0cSPICSjxv'
p4063
(dp4064
g3
S'Charlie Puth'
p4065
sg5
I25
sg6
S'https://open.spotify.com/track/4iLqG9SeJSnt0cSPICSjxv'
p4066
sg8
S'Attention'
p4067
ssS'3gWu8y0TKCIdy2mpTqVnTl'
p4068
(dp4069
g3
S'NF'
p4070
sg5
I1
sg6
S'https://open.spotify.com/track/3gWu8y0TKCIdy2mpTqVnTl'
p4071
sg8
S'Let You Down'
p4072
ssS'6JyuJFedEvPmdWQW0PkbGJ'
p4073
(dp4074
g3
S'Skrillex'
p4075
sg5
I8
sg6
S'https://open.spotify.com/track/6JyuJFedEvPmdWQW0PkbGJ'
p4076
sg8
S'Purple Lamborghini (with Rick Ross)'
p4077
ssS'2LZxVdWmldqKQyqPLTth82'
p4078
(dp4079
g3
S'Emmsj\xc3\xa9 Gauti'
p4080
sg5
I16
sg6
S'https://open.spotify.com/track/2LZxVdWmldqKQyqPLTth82'
p4081
sg8
S'Djamm\xc3\xa6li'
p4082
ssS'7M16mAuWuFA5rC9HvkXaGx'
p4083
(dp4084
g3
S'Jax Jones'
p4085
sg5
I5
sg6
S'https://open.spotify.com/track/7M16mAuWuFA5rC9HvkXaGx'
p4086
sg8
S"You Don't Know Me - Radio Edit"
p4087
ssS'3mRcWCyteY2133a7xVMrYw'
p4088
(dp4089
g3
S'Future'
p4090
sg5
I7
sg6
S'https://open.spotify.com/track/3mRcWCyteY2133a7xVMrYw'
p4091
sg8
S'Comin Out Strong'
p4092
ssS'5T8EDUDqKcs6OSOwEsfqG7'
p4093
(dp4094
g3
S'Queen'
p4095
sg5
I11
sg6
S'https://open.spotify.com/track/5T8EDUDqKcs6OSOwEsfqG7'
p4096
sg8
S"Don't Stop Me Now - Remastered 2011"
p4097
ssS'0VhgEqMTNZwYL1ARDLLNCX'
p4098
(dp4099
g3
S'James Arthur'
p4100
sg5
I5
sg6
S'https://open.spotify.com/track/0VhgEqMTNZwYL1ARDLLNCX'
p4101
sg8
S'Can I Be Him'
p4102
ssS'2CPqh63wRVscbceKcPxwvv'
p4103
(dp4104
g3
S'Mike Perry'
p4105
sg5
I4
sg6
S'https://open.spotify.com/track/2CPqh63wRVscbceKcPxwvv'
p4106
sg8
S'The Ocean'
p4107
ssS'04fnJT81xLcyFeWSH5hCQF'
p4108
(dp4109
g3
S'Sturla Atlas'
p4110
sg5
I9
sg6
S'https://open.spotify.com/track/04fnJT81xLcyFeWSH5hCQF'
p4111
sg8
S'One Life'
p4112
ssS'7CiatbFJpSnXnbCiVaGlm0'
p4113
(dp4114
g3
S'JOWST'
p4115
sg5
I4
sg6
S'https://open.spotify.com/track/7CiatbFJpSnXnbCiVaGlm0'
p4116
sg8
S'Grab The Moment'
p4117
ssS'3VTNVsTTu05dmTsVFrmGpK'
p4118
(dp4119
g3
S'The Pogues'
p4120
sg5
I1
sg6
S'https://open.spotify.com/track/3VTNVsTTu05dmTsVFrmGpK'
p4121
sg8
S'Fairytale of New York (feat. Kirsty MacColl)'
p4122
ssS'2ECNY9jYh5WjoYLovEjn9E'
p4123
(dp4124
g3
S'\xc3\x9alfur \xc3\x9alfur'
p4125
sg5
I1
sg6
S'https://open.spotify.com/track/2ECNY9jYh5WjoYLovEjn9E'
p4126
sg8
S'Ofurmenni'
p4127
ssS'1xznGGDReH1oQq0xzbwXa3'
p4128
(dp4129
g3
S'Drake'
p4130
sg5
I40
sg6
S'https://open.spotify.com/track/1xznGGDReH1oQq0xzbwXa3'
p4131
sg8
S'One Dance'
p4132
ssS'5GXAXm5YOmYT0kL5jHvYBt'
p4133
(dp4134
g3
S'The Weeknd'
p4135
sg5
I42
sg6
S'https://open.spotify.com/track/5GXAXm5YOmYT0kL5jHvYBt'
p4136
sg8
S'I Feel It Coming'
p4137
ssS'1ie0kiEaq39OknD3NM0C8F'
p4138
(dp4139
g3
S'Attan'
p4140
sg5
I12
sg6
S'https://open.spotify.com/track/1ie0kiEaq39OknD3NM0C8F'
p4141
sg8
S'Vinir'
p4142
ssS'0lMbuWUpfTWhEmOKxppEau'
p4143
(dp4144
g3
S'Calvin Harris'
p4145
sg5
I10
sg6
S'https://open.spotify.com/track/0lMbuWUpfTWhEmOKxppEau'
p4146
sg8
S'Rollin'
p4147
ssS'3mVqKwMwr2VH1abrpc9o0O'
p4148
(dp4149
g3
S'S\xc3\xa1lin hans J\xc3\xb3ns m\xc3\xadns'
p4150
sg5
I16
sg6
S'https://open.spotify.com/track/3mVqKwMwr2VH1abrpc9o0O'
p4151
sg8
S'Hj\xc3\xa1 \xc3\xbe\xc3\xa9r'
p4152
ssS'62vpWI1CHwFy7tMIcSStl8'
p4153
(dp4154
g3
S'J. Cole'
p4155
sg5
I9
sg6
S'https://open.spotify.com/track/62vpWI1CHwFy7tMIcSStl8'
p4156
sg8
S'No Role Modelz'
p4157
ssS'3cFsmM51N5zMAuu1nNY4Tw'
p4158
(dp4159
g3
S'Sean Paul'
p4160
sg5
I5
sg6
S'https://open.spotify.com/track/3cFsmM51N5zMAuu1nNY4Tw'
p4161
sg8
S'No Lie'
p4162
ssS'51ChrwmUPDJvedPQnIU8Ls'
p4163
(dp4164
g3
S'Ed Sheeran'
p4165
sg5
I23
sg6
S'https://open.spotify.com/track/51ChrwmUPDJvedPQnIU8Ls'
p4166
sg8
S'Dive'
p4167
ssS'5nnVFX3gSAycYcXmU8bV8u'
p4168
(dp4169
g3
S'Joey Christ'
p4170
sg5
I1
sg6
S'https://open.spotify.com/track/5nnVFX3gSAycYcXmU8bV8u'
p4171
sg8
S'Ticky'
p4172
ssS'4B1rpPmQXwj78wk6aIGwwU'
p4173
(dp4174
g3
S'Harry Styles'
p4175
sg5
I1
sg6
S'https://open.spotify.com/track/4B1rpPmQXwj78wk6aIGwwU'
p4176
sg8
S'Two Ghosts'
p4177
ssS'2R7858bg0GHuBBxjTyOL7N'
p4178
(dp4179
g3
S'George Michael'
p4180
sg5
I2
sg6
S'https://open.spotify.com/track/2R7858bg0GHuBBxjTyOL7N'
p4181
sg8
S'Careless Whisper'
p4182
ssS'1CUVN2kn7mW5FjkqXTR2W1'
p4183
(dp4184
g3
S'Jonas Blue'
p4185
sg5
I9
sg6
S'https://open.spotify.com/track/1CUVN2kn7mW5FjkqXTR2W1'
p4186
sg8
S'Perfect Strangers'
p4187
ssS'1vVNlXi8gf8tZ7OhnEs4VE'
p4188
(dp4189
g3
S'French Montana'
p4190
sg5
I1
sg6
S'https://open.spotify.com/track/1vVNlXi8gf8tZ7OhnEs4VE'
p4191
sg8
S'A Lie'
p4192
ssS'0SGkqnVQo9KPytSri1H6cF'
p4193
(dp4194
g3
S'Big Sean'
p4195
sg5
I41
sg6
S'https://open.spotify.com/track/0SGkqnVQo9KPytSri1H6cF'
p4196
sg8
S'Bounce Back'
p4197
ssS'4zzzZ1UNfr75ASG1lUE9L1'
p4198
(dp4199
g3
S'Rihanna'
p4200
sg5
I1
sg6
S'https://open.spotify.com/track/4zzzZ1UNfr75ASG1lUE9L1'
p4201
sg8
S'Stay - Album Version (Edited)'
p4202
ssS'7LyQvc6mjRxBS5XRC0bTHV'
p4203
(dp4204
g3
S'Emmsj\xc3\xa9 Gauti'
p4205
sg5
I42
sg6
S'https://open.spotify.com/track/7LyQvc6mjRxBS5XRC0bTHV'
p4206
sg8
S'Silfurskotta'
p4207
ssS'7nKBxz47S9SD79N086fuhn'
p4208
(dp4209
g3
S'Enrique Iglesias'
p4210
sg5
I24
sg6
S'https://open.spotify.com/track/7nKBxz47S9SD79N086fuhn'
p4211
sg8
S'SUBEME LA RADIO'
p4212
ssS'27SdWb2rFzO6GWiYDBTD9j'
p4213
(dp4214
g3
S'Sia'
p4215
sg5
I34
sg6
S'https://open.spotify.com/track/27SdWb2rFzO6GWiYDBTD9j'
p4216
sg8
S'Cheap Thrills'
p4217
ssS'3sXlk1CdCW6lK2ZobQFjLg'
p4218
(dp4219
g3
S'Alma'
p4220
sg5
I1
sg6
S'https://open.spotify.com/track/3sXlk1CdCW6lK2ZobQFjLg'
p4221
sg8
S'Requiem - Eurovision version'
p4222
ssS'0NqH3NQW4g0aZSTK8ZGMG1'
p4223
(dp4224
g3
S'Didd\xc3\xba'
p4225
sg5
I1
sg6
S'https://open.spotify.com/track/0NqH3NQW4g0aZSTK8ZGMG1'
p4226
sg8
S'N\xc3\xba minnir svo \xc3\xb3talmargt \xc3\xa1 j\xc3\xb3lin'
p4227
ssS'0ghHbIcvnkUlMP6V1gH9pf'
p4228
(dp4229
g3
S'Sigur\xc3\xb0ur Gu\xc3\xb0mundsson'
p4230
sg5
I1
sg6
S'https://open.spotify.com/track/0ghHbIcvnkUlMP6V1gH9pf'
p4231
sg8
S'\xc3\x9ea\xc3\xb0 stendur miki\xc3\xb0 til'
p4232
ssS'6PJ8FF6UR8FZXfEvpHkIVN'
p4233
(dp4234
g3
S'Ed Sheeran'
p4235
sg5
I12
sg6
S'https://open.spotify.com/track/6PJ8FF6UR8FZXfEvpHkIVN'
p4236
sg8
S'How Would You Feel (Paean)'
p4237
ssS'3hB5DgAiMAQ4DzYbsMq1IT'
p4238
(dp4239
g3
S'Justin Bieber'
p4240
sg5
I42
sg6
S'https://open.spotify.com/track/3hB5DgAiMAQ4DzYbsMq1IT'
p4241
sg8
S'Love Yourself'
p4242
ssS'4QYviIaFhUplllCx7OYyz9'
p4243
(dp4244
g3
S'S\xc3\xa1lin hans J\xc3\xb3ns m\xc3\xadns'
p4245
sg5
I4
sg6
S'https://open.spotify.com/track/4QYviIaFhUplllCx7OYyz9'
p4246
sg8
S'\xc3\x9e\xc3\xba fullkomnar mig'
p4247
ssS'4CHp6dRZTeFAu4bSOxfH7Y'
p4248
(dp4249
g3
S'Lil Pump'
p4250
sg5
I4
sg6
S'https://open.spotify.com/track/4CHp6dRZTeFAu4bSOxfH7Y'
p4251
sg8
S'Boss'
p4252
ssS'5ndfVSDyPq90jaIUhNPeby'
p4253
(dp4254
g3
S'Katy Perry'
p4255
sg5
I2
sg6
S'https://open.spotify.com/track/5ndfVSDyPq90jaIUhNPeby'
p4256
sg8
S'Chained To The Rhythm'
p4257
ssS'0M3su8ANcp7hAd7K0i6Ogp'
p4258
(dp4259
g3
S'\xc3\x9alfur \xc3\x9alfur'
p4260
sg5
I2
sg6
S'https://open.spotify.com/track/0M3su8ANcp7hAd7K0i6Ogp'
p4261
sg8
S'Engar hendur'
p4262
ssS'5uCax9HTNlzGybIStD3vDh'
p4263
(dp4264
g3
S'James Arthur'
p4265
sg5
I42
sg6
S'https://open.spotify.com/track/5uCax9HTNlzGybIStD3vDh'
p4266
sg8
S"Say You Won't Let Go"
p4267
ssS'7qiZfU4dY1lWllzX7mPBI3'
p4268
(dp4269
g3
S'Ed Sheeran'
p4270
sg5
I40
sg6
S'https://open.spotify.com/track/7qiZfU4dY1lWllzX7mPBI3'
p4271
sg8
S'Shape of You'
p4272
ssS'6LOCAhFzZiavHcLJucLuDy'
p4273
(dp4274
g3
S'DJ Khaled'
p4275
sg5
I1
sg6
S'https://open.spotify.com/track/6LOCAhFzZiavHcLJucLuDy'
p4276
sg8
S"Don't Quit"
p4277
ssS'7us0EfoX0SIndotw8lngrf'
p4278
(dp4279
g3
S'Stu\xc3\xb0menn'
p4280
sg5
I7
sg6
S'https://open.spotify.com/track/7us0EfoX0SIndotw8lngrf'
p4281
sg8
S'Ofbo\xc3\xb0slega fr\xc3\xa6gur'
p4282
ssS'2bxBOIxN4uZye2BDp6Wg3M'
p4283
(dp4284
g3
S'Alexander Jarl'
p4285
sg5
I13
sg6
S'https://open.spotify.com/track/2bxBOIxN4uZye2BDp6Wg3M'
p4286
sg8
S'Allt Undir'
p4287
ssS'0wfbD5rAksdXUzRvMfM3x5'
p4288
(dp4289
g3
S'The Chainsmokers'
p4290
sg5
I4
sg6
S'https://open.spotify.com/track/0wfbD5rAksdXUzRvMfM3x5'
p4291
sg8
S'The One'
p4292
ssS'1ALL550OX4NZ84q8EMVd2M'
p4293
(dp4294
g3
S'Ian Erix'
p4295
sg5
I1
sg6
S'https://open.spotify.com/track/1ALL550OX4NZ84q8EMVd2M'
p4296
sg8
S'Footprints in the Sand'
p4297
ssS'0q75NwOoFiARAVp4EXU4Bs'
p4298
(dp4299
g3
S'SZA'
p4300
sg5
I5
sg6
S'https://open.spotify.com/track/0q75NwOoFiARAVp4EXU4Bs'
p4301
sg8
S'Love Galore'
p4302
ssS'1OsJQqzkIy1EcMmYp8NvST'
p4303
(dp4304
g3
S'Joey Christ'
p4305
sg5
I14
sg6
S'https://open.spotify.com/track/1OsJQqzkIy1EcMmYp8NvST'
p4306
sg8
S'Gella Megamix'
p4307
ssS'2fQrGHiQOvpL9UgPvtYy6G'
p4308
(dp4309
g3
S'21 Savage'
p4310
sg5
I3
sg6
S'https://open.spotify.com/track/2fQrGHiQOvpL9UgPvtYy6G'
p4311
sg8
S'Bank Account'
p4312
ssS'1YkDrjiFW8SBmCzaqnSi6k'
p4313
(dp4314
g3
S'Sigur\xc3\xb0ur Gu\xc3\xb0mundsson'
p4315
sg5
I1
sg6
S'https://open.spotify.com/track/1YkDrjiFW8SBmCzaqnSi6k'
p4316
sg8
S'\xc3\x9e\xc3\xa1 komu j\xc3\xb3lin'
p4317
ssS'4xu0YZfbaXMk7qoBIHD0e3'
p4318
(dp4319
g3
S'Baggal\xc3\xbatur'
p4320
sg5
I1
sg6
S'https://open.spotify.com/track/4xu0YZfbaXMk7qoBIHD0e3'
p4321
sg8
S'J\xc3\xb3lasveinar Sex Og Sj\xc3\xb6'
p4322
ssS'2FiSTH0GYpIioUgjfzMIja'
p4323
(dp4324
g3
S'Kygo'
p4325
sg5
I1
sg6
S'https://open.spotify.com/track/2FiSTH0GYpIioUgjfzMIja'
p4326
sg8
S'Stay'
p4327
ssS'1F2HXIJrE2Xn81OzT2zZvW'
p4328
(dp4329
g3
S'French Montana'
p4330
sg5
I12
sg6
S'https://open.spotify.com/track/1F2HXIJrE2Xn81OzT2zZvW'
p4331
sg8
S'Unforgettable'
p4332
ssS'6QgjcU0zLnzq5OrUoSZ3OK'
p4333
(dp4334
g3
S'Portugal. The Man'
p4335
sg5
I12
sg6
S'https://open.spotify.com/track/6QgjcU0zLnzq5OrUoSZ3OK'
p4336
sg8
S'Feel It Still'
p4337
ssS'4atJ40xfasjdM9ZF3p07BV'
p4338
(dp4339
g3
S'Big Sean'
p4340
sg5
I1
sg6
S'https://open.spotify.com/track/4atJ40xfasjdM9ZF3p07BV'
p4341
sg8
S'Halfway Off The Balcony'
p4342
ssS'78rIJddV4X0HkNAInEcYde'
p4343
(dp4344
g3
S'Starley'
p4345
sg5
I40
sg6
S'https://open.spotify.com/track/78rIJddV4X0HkNAInEcYde'
p4346
sg8
S'Call On Me - Ryan Riback Extended Remix'
p4347
ssS'5nA67Y0XX9JipZwYxX7Gl7'
p4348
(dp4349
g3
S'Niall Horan'
p4350
sg5
I17
sg6
S'https://open.spotify.com/track/5nA67Y0XX9JipZwYxX7Gl7'
p4351
sg8
S'This Town'
p4352
ssS'4Q5yMlwAfAoitqg4r9oZHN'
p4353
(dp4354
g3
S'Cashmere Cat'
p4355
sg5
I5
sg6
S'https://open.spotify.com/track/4Q5yMlwAfAoitqg4r9oZHN'
p4356
sg8
S'Quit (feat. Ariana Grande)'
p4357
ssS'55OdqrG8WLmsYyY1jijD9b'
p4358
(dp4359
g3
S'Young Thug'
p4360
sg5
I13
sg6
S'https://open.spotify.com/track/55OdqrG8WLmsYyY1jijD9b'
p4361
sg8
S'Wyclef Jean'
p4362
ssS'2EEeOnHehOozLq4aS0n6SL'
p4363
(dp4364
g3
S'KYLE'
p4365
sg5
I30
sg6
S'https://open.spotify.com/track/2EEeOnHehOozLq4aS0n6SL'
p4366
sg8
S'iSpy (feat. Lil Yachty)'
p4367
ssS'5TXDeTFVRVY7Cvt0Dw4vWW'
p4368
(dp4369
g3
S'XXXTENTACION'
p4370
sg5
I7
sg6
S'https://open.spotify.com/track/5TXDeTFVRVY7Cvt0Dw4vWW'
p4371
sg8
S'Revenge'
p4372
ssS'62FbLMpG27j0z43nd1Hs2I'
p4373
(dp4374
g3
S'DJ Envy'
p4375
sg5
I1
sg6
S'https://open.spotify.com/track/62FbLMpG27j0z43nd1Hs2I'
p4376
sg8
S'Text Ur Number (feat. DJ Sliink & Fetty Wap)'
p4377
ssS'0QQIhT6PtJ5glyn4HKNKQ6'
p4378
(dp4379
g3
S'Kaleo'
p4380
sg5
I41
sg6
S'https://open.spotify.com/track/0QQIhT6PtJ5glyn4HKNKQ6'
p4381
sg8
S'All The Pretty Girls'
p4382
ssS'2phqKJP6uiVVUnXlOCuHSN'
p4383
(dp4384
g3
S'Herra Hnetusmj\xc3\xb6r'
p4385
sg5
I23
sg6
S'https://open.spotify.com/track/2phqKJP6uiVVUnXlOCuHSN'
p4386
sg8
S'\xc3\x81r Eftir \xc3\x81r'
p4387
ssS'389QLQBis6b9BIp640a1eC'
p4388
(dp4389
g3
S'Egill \xc3\x93lafsson'
p4390
sg5
I1
sg6
S'https://open.spotify.com/track/389QLQBis6b9BIp640a1eC'
p4391
sg8
S'Helga n\xc3\xb3tt'
p4392
ssS'19a3JfW8BQwqHWUMbcqSx8'
p4393
(dp4394
g3
S'Kanye West'
p4395
sg5
I11
sg6
S'https://open.spotify.com/track/19a3JfW8BQwqHWUMbcqSx8'
p4396
sg8
S'Famous'
p4397
ssS'0y9uTzK9cNKSAEHnpeRG8C'
p4398
(dp4399
g3
S'Kendrick Lamar'
p4400
sg5
I2
sg6
S'https://open.spotify.com/track/0y9uTzK9cNKSAEHnpeRG8C'
p4401
sg8
S'DUCKWORTH.'
p4402
ssS'2ANLarE8yHVsLWW21nj79M'
p4403
(dp4404
g3
S'Lil Uzi Vert'
p4405
sg5
I2
sg6
S'https://open.spotify.com/track/2ANLarE8yHVsLWW21nj79M'
p4406
sg8
S'You Was Right'
p4407
ssS'42DE3smmo7ouq5mUe1wiNI'
p4408
(dp4409
g3
S'J\xc3\xb3iP\xc3\xa9'
p4410
sg5
I1
sg6
S'https://open.spotify.com/track/42DE3smmo7ouq5mUe1wiNI'
p4411
sg8
S'Seg\xc3\xb0u'
p4412
ssS'0xG0SHshCStMEyNbNC5d4k'
p4413
(dp4414
g3
S'Julia Michaels'
p4415
sg5
I9
sg6
S'https://open.spotify.com/track/0xG0SHshCStMEyNbNC5d4k'
p4416
sg8
S'Issues'
p4417
ssS'7yHEDfrJNd0zWOfXwydNH0'
p4418
(dp4419
g3
S'Ariana Grande'
p4420
sg5
I7
sg6
S'https://open.spotify.com/track/7yHEDfrJNd0zWOfXwydNH0'
p4421
sg8
S'Into You'
p4422
ssS'2x4t2o6x5NVbR62v7BZPHG'
p4423
(dp4424
g3
S'Ruth Reginalds'
p4425
sg5
I1
sg6
S'https://open.spotify.com/track/2x4t2o6x5NVbR62v7BZPHG'
p4426
sg8
S'\xc3\x9e\xc3\xba komst me\xc3\xb0 j\xc3\xb3lin til m\xc3\xadn'
p4427
ssS'1lntL1cI2UIWlxjL5QiN8g'
p4428
(dp4429
g3
S'Lauv'
p4430
sg5
I5
sg6
S'https://open.spotify.com/track/1lntL1cI2UIWlxjL5QiN8g'
p4431
sg8
S'The Other'
p4432
ssS'3y3ojWtWQjbgkk2YPIekus'
p4433
(dp4434
g3
S'KK'
p4435
sg5
I1
sg6
S'https://open.spotify.com/track/3y3ojWtWQjbgkk2YPIekus'
p4436
sg8
S'Vegb\xc3\xbainn'
p4437
ssS'0LtVx5vsq9nfpGsWgjUin6'
p4438
(dp4439
g3
S'Ryan Gosling'
p4440
sg5
I3
sg6
S'https://open.spotify.com/track/0LtVx5vsq9nfpGsWgjUin6'
p4441
sg8
S'City Of Stars - From La La Land Soundtrack'
p4442
ssS'0IdsoEg5mjXNqlrskkzWjl'
p4443
(dp4444
g3
S'Bubbi Morthens'
p4445
sg5
I39
sg6
S'https://open.spotify.com/track/0IdsoEg5mjXNqlrskkzWjl'
p4446
sg8
S'R\xc3\xb3me\xc3\xb3 og J\xc3\xbal\xc3\xada'
p4447
ssS'439TlnnznSiBbQbgXiBqAd'
p4448
(dp4449
g3
S'Kendrick Lamar'
p4450
sg5
I11
sg6
S'https://open.spotify.com/track/439TlnnznSiBbQbgXiBqAd'
p4451
sg8
S'm.A.A.d city'
p4452
ssS'4GeOrEQeRgSWwqmddk2KsI'
p4453
(dp4454
g3
S'Joey Christ'
p4455
sg5
I3
sg6
S'https://open.spotify.com/track/4GeOrEQeRgSWwqmddk2KsI'
p4456
sg8
S'Peng Ting'
p4457
ssS'11KJSRSgaDxqydKYiD2Jew'
p4458
(dp4459
g3
S'Drake'
p4460
sg5
I12
sg6
S'https://open.spotify.com/track/11KJSRSgaDxqydKYiD2Jew'
p4461
sg8
S'Too Good'
p4462
ssS'3zoYkqS4y2BsGVShPL2nTE'
p4463
(dp4464
g3
S'CNCO'
p4465
sg5
I6
sg6
S'https://open.spotify.com/track/3zoYkqS4y2BsGVShPL2nTE'
p4466
sg8
S'Reggaet\xc3\xb3n Lento (Remix) [CNCO & Little Mix]'
p4467
ssS'1yNyoWWWikbLhwIGWjZuDW'
p4468
(dp4469
g3
S'The Vamps'
p4470
sg5
I20
sg6
S'https://open.spotify.com/track/1yNyoWWWikbLhwIGWjZuDW'
p4471
sg8
S'All Night'
p4472
ssS'4lozYCMRLtEc46exlhoK2Q'
p4473
(dp4474
g3
S'Future'
p4475
sg5
I1
sg6
S'https://open.spotify.com/track/4lozYCMRLtEc46exlhoK2Q'
p4476
sg8
S"I'm so Groovy"
p4477
ssS'3Dwq1oiOFys6Sxr5SslmXw'
p4478
(dp4479
g3
S'Harry Styles'
p4480
sg5
I2
sg6
S'https://open.spotify.com/track/3Dwq1oiOFys6Sxr5SslmXw'
p4481
sg8
S'Carolina'
p4482
ssS'1jYiIOC5d6soxkJP81fxq2'
p4483
(dp4484
g3
S'DJ Khaled'
p4485
sg5
I1
sg6
S'https://open.spotify.com/track/1jYiIOC5d6soxkJP81fxq2'
p4486
sg8
S"I'm the One"
p4487
ssS'4vb4mFvYsr2h6enhjJsq9Y'
p4488
(dp4489
g3
S'Adele'
p4490
sg5
I11
sg6
S'https://open.spotify.com/track/4vb4mFvYsr2h6enhjJsq9Y'
p4491
sg8
S'Water Under the Bridge'
p4492
ssS'17Fd6Yb7mSbinKG8LoWfFl'
p4493
(dp4494
g3
S'Mike Posner'
p4495
sg5
I32
sg6
S'https://open.spotify.com/track/17Fd6Yb7mSbinKG8LoWfFl'
p4496
sg8
S'I Took A Pill In Ibiza - Seeb Remix'
p4497
ssS'7zTx8ePYAmPFQuxP3xlXZn'
p4498
(dp4499
g3
S'San Holo'
p4500
sg5
I7
sg6
S'https://open.spotify.com/track/7zTx8ePYAmPFQuxP3xlXZn'
p4501
sg8
S'Light'
p4502
ssS'4tCtwWceOPWzenK2HAIJSb'
p4503
(dp4504
g3
S'Fifth Harmony'
p4505
sg5
I9
sg6
S'https://open.spotify.com/track/4tCtwWceOPWzenK2HAIJSb'
p4506
sg8
S'Work from Home'
p4507
ssS'65kp3OFn7JXbCvkm3m2Ui2'
p4508
(dp4509
g3
S'Lil Uzi Vert'
p4510
sg5
I1
sg6
S'https://open.spotify.com/track/65kp3OFn7JXbCvkm3m2Ui2'
p4511
sg8
S'Two\xc2\xae'
p4512
ssS'6PGoSes0D9eUDeeAafB2As'
p4513
(dp4514
g3
S'Kendrick Lamar'
p4515
sg5
I15
sg6
S'https://open.spotify.com/track/6PGoSes0D9eUDeeAafB2As'
p4516
sg8
S'LOVE. FEAT. ZACARI.'
p4517
ssS'6RBl4WDtUNsNLeOpjUwQKa'
p4518
(dp4519
g3
S'\xc3\x81 M\xc3\xb3ti S\xc3\xb3l'
p4520
sg5
I1
sg6
S'https://open.spotify.com/track/6RBl4WDtUNsNLeOpjUwQKa'
p4521
sg8
S'Spenntur'
p4522
ssS'3Ps8xWSv64Cx37gZRwzjjE'
p4523
(dp4524
g3
S'Sniglabandi\xc3\xb0'
p4525
sg5
I1
sg6
S'https://open.spotify.com/track/3Ps8xWSv64Cx37gZRwzjjE'
p4526
sg8
S'J\xc3\xb3lahj\xc3\xb3l'
p4527
ssS'1foCxQtxBweJtZmdxhEHVO'
p4528
(dp4529
g3
S'Eartha Kitt'
p4530
sg5
I1
sg6
S'https://open.spotify.com/track/1foCxQtxBweJtZmdxhEHVO'
p4531
sg8
S'Santa Baby'
p4532
ssS'32OWobmyAz8J2qA8iWekyS'
p4533
(dp4534
g3
S'Justin Bieber'
p4535
sg5
I1
sg6
S'https://open.spotify.com/track/32OWobmyAz8J2qA8iWekyS'
p4536
sg8
S'Mistletoe'
p4537
ssS'6XOYVSmNDjKUNMXooU4s4z'
p4538
(dp4539
g3
S'OneRepublic'
p4540
sg5
I10
sg6
S'https://open.spotify.com/track/6XOYVSmNDjKUNMXooU4s4z'
p4541
sg8
S'No Vacancy'
p4542
ssS'204U3zjm9kkzX25Pr4Rdld'
p4543
(dp4544
g3
S'Migos'
p4545
sg5
I7
sg6
S'https://open.spotify.com/track/204U3zjm9kkzX25Pr4Rdld'
p4546
sg8
S'Kelly Price (feat. Travis Scott)'
p4547
ssS'3hU3DHiL8gF3WBJGNhnMuU'
p4548
(dp4549
g3
S'J\xc3\xb3iP\xc3\xa9'
p4550
sg5
I5
sg6
S'https://open.spotify.com/track/3hU3DHiL8gF3WBJGNhnMuU'
p4551
sg8
S'Draum\xc3\xb3rar'
p4552
ssS'4pcuczk3T1b4xbijHoQK4R'
p4553
(dp4554
g3
S'S\xc3\xa1lin hans J\xc3\xb3ns m\xc3\xadns'
p4555
sg5
I2
sg6
S'https://open.spotify.com/track/4pcuczk3T1b4xbijHoQK4R'
p4556
sg8
S'Undir \xc3\xbe\xc3\xadnum \xc3\xa1hrifum'
p4557
ssS'2fbn8nfNqXe0qNsJU4Agyg'
p4558
(dp4559
g3
S'UNICEF Iceland'
p4560
sg5
I15
sg6
S'https://open.spotify.com/track/2fbn8nfNqXe0qNsJU4Agyg'
p4561
sg8
S'Sk\xc3\xb3larapp'
p4562
ssS'5EnYT6F7wEcdege6mDHEfO'
p4563
(dp4564
g3
S'Drake'
p4565
sg5
I9
sg6
S'https://open.spotify.com/track/5EnYT6F7wEcdege6mDHEfO'
p4566
sg8
S'Signs'
p4567
ssS'4DGnayX5QUW6cJaMHqH91a'
p4568
(dp4569
g3
S'Aron Can'
p4570
sg5
I17
sg6
S'https://open.spotify.com/track/4DGnayX5QUW6cJaMHqH91a'
p4571
sg8
S'\xc3\x9eekkir Str\xc3\xa1ginn'
p4572
ssS'3NJG6vMH1ZsectZkocMEm0'
p4573
(dp4574
g3
S'Desiigner'
p4575
sg5
I8
sg6
S'https://open.spotify.com/track/3NJG6vMH1ZsectZkocMEm0'
p4576
sg8
S'Tiimmy Turner'
p4577
ssS'6YmjtvXrdpD1VUUW5hznQp'
p4578
(dp4579
g3
S'Fri\xc3\xb0rik D\xc3\xb3r'
p4580
sg5
I42
sg6
S'https://open.spotify.com/track/6YmjtvXrdpD1VUUW5hznQp'
p4581
sg8
S'Fr\xc3\xb6ken Reykjav\xc3\xadk'
p4582
ssS'1lItf5ZXJc1by9SbPeljFd'
p4583
(dp4584
g3
S'Zay Hilfigerrr'
p4585
sg5
I4
sg6
S'https://open.spotify.com/track/1lItf5ZXJc1by9SbPeljFd'
p4586
sg8
S'Juju On That Beat (TZ Anthem)'
p4587
ssS'2nBI3iWLhupR7LyAJ5GGkE'
p4588
(dp4589
g3
S'Kanye West'
p4590
sg5
I1
sg6
S'https://open.spotify.com/track/2nBI3iWLhupR7LyAJ5GGkE'
p4591
sg8
S'Champions'
p4592
ss.