(dp0
S'6VhCpWspvtTNlx0EifVK3v'
p1
(dp2
S'artistName'
p3
S'La Beriso'
p4
sS'weeksOnChart'
p5
I2
sS'track_href'
p6
S'https://open.spotify.com/track/6VhCpWspvtTNlx0EifVK3v'
p7
sS'songName'
p8
S'Legui'
p9
ssS'2jahKqF76dRFDwCqd6FzS7'
p10
(dp11
g3
S'VAS'
p12
sg5
I4
sg6
S'https://open.spotify.com/track/2jahKqF76dRFDwCqd6FzS7'
p13
sg8
S'Insegura'
p14
ssS'0mel2N9Ws9r4yLQn5QE21Y'
p15
(dp16
g3
S'Sam Smith'
p17
sg5
I5
sg6
S'https://open.spotify.com/track/0mel2N9Ws9r4yLQn5QE21Y'
p18
sg8
S'Too Good At Goodbyes'
p19
ssS'6HUnnBwYZqcED1eQztxMBN'
p20
(dp21
g3
S'Martin Jensen'
p22
sg5
I8
sg6
S'https://open.spotify.com/track/6HUnnBwYZqcED1eQztxMBN'
p23
sg8
S'Solo Dance'
p24
ssS'0KrNNpgu7qGQPNQAQBLGwX'
p25
(dp26
g3
S'El Villano'
p27
sg5
I1
sg6
S'https://open.spotify.com/track/0KrNNpgu7qGQPNQAQBLGwX'
p28
sg8
S'Chica Real'
p29
ssS'7wGoVu4Dady5GV0Sv4UIsx'
p30
(dp31
g3
S'Post Malone'
p32
sg5
I1
sg6
S'https://open.spotify.com/track/7wGoVu4Dady5GV0Sv4UIsx'
p33
sg8
S'rockstar'
p34
ssS'2uWg6P3lEsS1qQ2qg11TUx'
p35
(dp36
g3
S'Sebastian Yatra'
p37
sg5
I15
sg6
S'https://open.spotify.com/track/2uWg6P3lEsS1qQ2qg11TUx'
p38
sg8
S'Devu\xc3\xa9lveme El Coraz\xc3\xb3n'
p39
ssS'70lnL3QaSOIIyMa2X9aVRL'
p40
(dp41
g3
S'Shakira'
p42
sg5
I17
sg6
S'https://open.spotify.com/track/70lnL3QaSOIIyMa2X9aVRL'
p43
sg8
S'Perro Fiel'
p44
ssS'46HdsiK0uR26B2dY9QPzda'
p45
(dp46
g3
S'Prince Royce'
p47
sg5
I32
sg6
S'https://open.spotify.com/track/46HdsiK0uR26B2dY9QPzda'
p48
sg8
S'Deja vu'
p49
ssS'17nOaHsTn06jxuU9NpHuFU'
p50
(dp51
g3
S'Bad Bunny'
p52
sg5
I32
sg6
S'https://open.spotify.com/track/17nOaHsTn06jxuU9NpHuFU'
p53
sg8
S'Pa Ti'
p54
ssS'2bdD0eYH8XirjVAXq68JAN'
p55
(dp56
g3
S'Yandel'
p57
sg5
I18
sg6
S'https://open.spotify.com/track/2bdD0eYH8XirjVAXq68JAN'
p58
sg8
S'Mi Religi\xc3\xb3n'
p59
ssS'6h8rrNrOCdBbz37IhcvApT'
p60
(dp61
g3
S'Marka Akme'
p62
sg5
I10
sg6
S'https://open.spotify.com/track/6h8rrNrOCdBbz37IhcvApT'
p63
sg8
S'Mata'
p64
ssS'7cIkMEpDhT7Vpw1FHOQqKC'
p65
(dp66
g3
S'Justin Quiles'
p67
sg5
I6
sg6
S'https://open.spotify.com/track/7cIkMEpDhT7Vpw1FHOQqKC'
p68
sg8
S'Si Ella Quisiera'
p69
ssS'4UHZMWgKDjJ1zS0t6f6qPv'
p70
(dp71
g3
S'Pijama Party'
p72
sg5
I42
sg6
S'https://open.spotify.com/track/4UHZMWgKDjJ1zS0t6f6qPv'
p73
sg8
S'Comerte a Besos (feat. Cande Buasso)'
p74
ssS'1TxgZRcy3kZ7JaEp88MDbC'
p75
(dp76
g3
S'CNCO'
p77
sg5
I37
sg6
S'https://open.spotify.com/track/1TxgZRcy3kZ7JaEp88MDbC'
p78
sg8
S'Tan F\xc3\xa1cil'
p79
ssS'2kAe8s00cKth2AfcLEbFi9'
p80
(dp81
g3
S'CNCO'
p82
sg5
I1
sg6
S'https://open.spotify.com/track/2kAe8s00cKth2AfcLEbFi9'
p83
sg8
S'Hey DJ - Pop Version'
p84
ssS'20ZAJdsKB5IGbGj4ilRt2o'
p85
(dp86
g3
S'Ozuna'
p87
sg5
I35
sg6
S'https://open.spotify.com/track/20ZAJdsKB5IGbGj4ilRt2o'
p88
sg8
S'Dile Que Tu Me Quieres'
p89
ssS'4pLwZjInHj3SimIyN9SnOz'
p90
(dp91
g3
S'Ariana Grande'
p92
sg5
I35
sg6
S'https://open.spotify.com/track/4pLwZjInHj3SimIyN9SnOz'
p93
sg8
S'Side To Side'
p94
ssS'4qknM1pQz53QOyfDVTjcM9'
p95
(dp96
g3
S'Shakira'
p97
sg5
I27
sg6
S'https://open.spotify.com/track/4qknM1pQz53QOyfDVTjcM9'
p98
sg8
S'Me Enamor\xc3\xa9'
p99
ssS'0OEQGwBfL4b9KX0RwfOiW6'
p100
(dp101
g3
S'Don Omar'
p102
sg5
I8
sg6
S'https://open.spotify.com/track/0OEQGwBfL4b9KX0RwfOiW6'
p103
sg8
S'Encanto'
p104
ssS'6ciFFQZcrCwSiUBZvEZrJc'
p105
(dp106
g3
S'Major Lazer'
p107
sg5
I5
sg6
S'https://open.spotify.com/track/6ciFFQZcrCwSiUBZvEZrJc'
p108
sg8
S'Know No Better (feat. Travis Scott & Quavo) - Bad Bunny Remix'
p109
ssS'6rg1MBZqggsQ5olFGTw0rr'
p110
(dp111
g3
S'Divididos'
p112
sg5
I40
sg6
S'https://open.spotify.com/track/6rg1MBZqggsQ5olFGTw0rr'
p113
sg8
S'Spaghetti del Rock'
p114
ssS'4BHzQ9C00ceJxfG16AlNWb'
p115
(dp116
g3
S'Adele'
p117
sg5
I1
sg6
S'https://open.spotify.com/track/4BHzQ9C00ceJxfG16AlNWb'
p118
sg8
S'Send My Love (To Your New Lover)'
p119
ssS'6qs5C2MEAHfF2jUdEzpWut'
p120
(dp121
g3
S'Las Pastillas del Abuelo'
p122
sg5
I42
sg6
S'https://open.spotify.com/track/6qs5C2MEAHfF2jUdEzpWut'
p123
sg8
S'Rompecabezas de Amor'
p124
ssS'50PWlIBU7PlGGwzgN8TiFJ'
p125
(dp126
g3
S'Lady Gaga'
p127
sg5
I10
sg6
S'https://open.spotify.com/track/50PWlIBU7PlGGwzgN8TiFJ'
p128
sg8
S'Million Reasons'
p129
ssS'6vuWyGYpQfhBC1WFW1fkOR'
p130
(dp131
g3
S'Charly Garc\xc3\xada'
p132
sg5
I1
sg6
S'https://open.spotify.com/track/6vuWyGYpQfhBC1WFW1fkOR'
p133
sg8
S'Rivalidad'
p134
ssS'2RttW7RAu5nOAfq6YFvApB'
p135
(dp136
g3
S'Ed Sheeran'
p137
sg5
I12
sg6
S'https://open.spotify.com/track/2RttW7RAu5nOAfq6YFvApB'
p138
sg8
S'Happier'
p139
ssS'4ObkiTmpsSU31gqGhTb8SH'
p140
(dp141
g3
S'La Renga'
p142
sg5
I37
sg6
S'https://open.spotify.com/track/4ObkiTmpsSU31gqGhTb8SH'
p143
sg8
S'Balada Del Diablo y La Muerte'
p144
ssS'7BEI30TTNhwnkCyNUDmFrr'
p145
(dp146
g3
S'Daddy Yankee'
p147
sg5
I32
sg6
S'https://open.spotify.com/track/7BEI30TTNhwnkCyNUDmFrr'
p148
sg8
S'Hula Hoop'
p149
ssS'3EmmCZoqpWOTY1g2GBwJoR'
p150
(dp151
g3
S'Steve Aoki'
p152
sg5
I17
sg6
S'https://open.spotify.com/track/3EmmCZoqpWOTY1g2GBwJoR'
p153
sg8
S'Just Hold On'
p154
ssS'6Zosz8w6CmdGMZM6p4JlbQ'
p155
(dp156
g3
S'Danny Ocean'
p157
sg5
I2
sg6
S'https://open.spotify.com/track/6Zosz8w6CmdGMZM6p4JlbQ'
p158
sg8
S'Me Reh\xc3\xbaso'
p159
ssS'3eFJqPe8VUYrABbFjSauuj'
p160
(dp161
g3
S''
p162
sg5
I1
sg6
S'https://open.spotify.com/track/3eFJqPe8VUYrABbFjSauuj'
p163
sg8
g162
ssS'3iDPALl8BoUbuXZgy6EOWY'
p164
(dp165
g3
S'Gigolo Y La Exce'
p166
sg5
I8
sg6
S'https://open.spotify.com/track/3iDPALl8BoUbuXZgy6EOWY'
p167
sg8
S'Sexto Sentido (feat. Bad Bunny)'
p168
ssS'6Ar0Rcqv4AMonCshpAIheB'
p169
(dp170
g3
S'Rombai'
p171
sg5
I12
sg6
S'https://open.spotify.com/track/6Ar0Rcqv4AMonCshpAIheB'
p172
sg8
S'Besarte'
p173
ssS'03h8eaVgdJJ14cCKiO4ONX'
p174
(dp175
g3
S'Joey Montana'
p176
sg5
I8
sg6
S'https://open.spotify.com/track/03h8eaVgdJJ14cCKiO4ONX'
p177
sg8
S'Hola'
p178
ssS'0ZAJ660VP57lLK4U7NlGOy'
p179
(dp180
g3
S'Intoxicados'
p181
sg5
I37
sg6
S'https://open.spotify.com/track/0ZAJ660VP57lLK4U7NlGOy'
p182
sg8
S'Nunca quise'
p183
ssS'3RXkboS74UYzN14xTqzPyY'
p184
(dp185
g3
g162
sg5
I1
sg6
S'https://open.spotify.com/track/3RXkboS74UYzN14xTqzPyY'
p186
sg8
g162
ssS'0fm7fJ4aZv6Wx0klIcyXPz'
p187
(dp188
g3
S'Juan Mag\xc3\xa1n'
p189
sg5
I3
sg6
S'https://open.spotify.com/track/0fm7fJ4aZv6Wx0klIcyXPz'
p190
sg8
S'Quiero Que Sepas'
p191
ssS'7FfpP3YZ6fOWMdxkIAtud9'
p192
(dp193
g3
S'Farruko'
p194
sg5
I4
sg6
S'https://open.spotify.com/track/7FfpP3YZ6fOWMdxkIAtud9'
p195
sg8
S'Krippy Kush'
p196
ssS'3pzjHKrQSvXGHQ98dx18HI'
p197
(dp198
g3
S'Justin Bieber'
p199
sg5
I3
sg6
S'https://open.spotify.com/track/3pzjHKrQSvXGHQ98dx18HI'
p200
sg8
S'What Do You Mean?'
p201
ssS'47EEKhimMiDtUfYNR5Ii58'
p202
(dp203
g3
S'Olvidate!'
p204
sg5
I40
sg6
S'https://open.spotify.com/track/47EEKhimMiDtUfYNR5Ii58'
p205
sg8
S'Amor para un Rato'
p206
ssS'1D3ODoXHBLpdxolZRHWV1j'
p207
(dp208
g3
S'Jonas Blue'
p209
sg5
I10
sg6
S'https://open.spotify.com/track/1D3ODoXHBLpdxolZRHWV1j'
p210
sg8
S'By Your Side'
p211
ssS'1mSzZKMIPZIkn3jFV7v62b'
p212
(dp213
g3
S'Charly Black'
p214
sg5
I1
sg6
S'https://open.spotify.com/track/1mSzZKMIPZIkn3jFV7v62b'
p215
sg8
S'Gyal You A Party Animal'
p216
ssS'1tkikMrqW4NvmzIfIyNXw7'
p217
(dp218
g3
S'Duki'
p219
sg5
I2
sg6
S'https://open.spotify.com/track/1tkikMrqW4NvmzIfIyNXw7'
p220
sg8
S'Hello Cotto'
p221
ssS'4QsPTKvdpgkA7mBAvclZTa'
p222
(dp223
g3
S'Maluma'
p224
sg5
I15
sg6
S'https://open.spotify.com/track/4QsPTKvdpgkA7mBAvclZTa'
p225
sg8
S'El Perdedor - The Remix'
p226
ssS'4yN6xPLopmTLvc27pO9LIE'
p227
(dp228
g3
S'Nicky Jam'
p229
sg5
I30
sg6
S'https://open.spotify.com/track/4yN6xPLopmTLvc27pO9LIE'
p230
sg8
S'Si T\xc3\xba La Ves'
p231
ssS'5CtI0qwDJkDQGwXD1H1cLb'
p232
(dp233
g3
S'Luis Fonsi'
p234
sg5
I26
sg6
S'https://open.spotify.com/track/5CtI0qwDJkDQGwXD1H1cLb'
p235
sg8
S'Despacito - Remix'
p236
ssS'4smbzhaRt7EYwO73SmFXyR'
p237
(dp238
g3
S'Marama'
p239
sg5
I2
sg6
S'https://open.spotify.com/track/4smbzhaRt7EYwO73SmFXyR'
p240
sg8
S'Bronceado'
p241
ssS'1PGENMzwUy16wlpZiuLS65'
p242
(dp243
g3
S'Karol G'
p244
sg5
I8
sg6
S'https://open.spotify.com/track/1PGENMzwUy16wlpZiuLS65'
p245
sg8
S'Hello'
p246
ssS'2E2dLZK0gSTl6vjr53BfKM'
p247
(dp248
g3
S'Catupecu Machu'
p249
sg5
I31
sg6
S'https://open.spotify.com/track/2E2dLZK0gSTl6vjr53BfKM'
p250
sg8
S'A Veces Vuelvo'
p251
ssS'1a5Yu5L18qNxVhXx38njON'
p252
(dp253
g3
S'Alok'
p254
sg5
I21
sg6
S'https://open.spotify.com/track/1a5Yu5L18qNxVhXx38njON'
p255
sg8
S'Hear Me Now'
p256
ssS'6ihwy1c6tsMC6AWANIrhH2'
p257
(dp258
g3
S'Abel Pintos'
p259
sg5
I15
sg6
S'https://open.spotify.com/track/6ihwy1c6tsMC6AWANIrhH2'
p260
sg8
S'Sin Principio Ni Final'
p261
ssS'2ekn2ttSfGqwhhate0LSR0'
p262
(dp263
g3
S'Dua Lipa'
p264
sg5
I12
sg6
S'https://open.spotify.com/track/2ekn2ttSfGqwhhate0LSR0'
p265
sg8
S'New Rules'
p266
ssS'1nvomogWZSfnw3H4Uti0eL'
p267
(dp268
g3
S'Ulises Bueno'
p269
sg5
I29
sg6
S'https://open.spotify.com/track/1nvomogWZSfnw3H4Uti0eL'
p270
sg8
S'Intento'
p271
ssS'1sCxVKWImDZSZKvG0U9B23'
p272
(dp273
g3
S'Selena Gomez'
p274
sg5
I15
sg6
S'https://open.spotify.com/track/1sCxVKWImDZSZKvG0U9B23'
p275
sg8
S'Bad Liar'
p276
ssS'00i0O74dXdaKKdCrqHnfXm'
p277
(dp278
g3
S'Ricky Martin'
p279
sg5
I7
sg6
S'https://open.spotify.com/track/00i0O74dXdaKKdCrqHnfXm'
p280
sg8
S'La Mordidita'
p281
ssS'4vlbjBSMqycZk6t4HVRpnC'
p282
(dp283
g3
S'Ozuna'
p284
sg5
I35
sg6
S'https://open.spotify.com/track/4vlbjBSMqycZk6t4HVRpnC'
p285
sg8
S'No Quiere Enamorarse (Remix) [feat. Daddy Yankee]'
p286
ssS'3dQDid3IUNhZy1OehIfYfE'
p287
(dp288
g3
S'Wisin'
p289
sg5
I42
sg6
S'https://open.spotify.com/track/3dQDid3IUNhZy1OehIfYfE'
p290
sg8
S'Vacaciones'
p291
ssS'4N1c5rmWOzRmB9SMacr5wB'
p292
(dp293
g3
S'Abraham Mateo'
p294
sg5
I16
sg6
S'https://open.spotify.com/track/4N1c5rmWOzRmB9SMacr5wB'
p295
sg8
S'Loco Enamorado'
p296
ssS'2rrWhFrcSZcZQ2SDKPGKQ6'
p297
(dp298
g3
S'Marama'
p299
sg5
I3
sg6
S'https://open.spotify.com/track/2rrWhFrcSZcZQ2SDKPGKQ6'
p300
sg8
S'Todo Comenz\xc3\xb3 Bailando'
p301
ssS'7IwNPHjpZMkggv0qlh1rUO'
p302
(dp303
g3
S'Luciano Pereyra'
p304
sg5
I3
sg6
S'https://open.spotify.com/track/7IwNPHjpZMkggv0qlh1rUO'
p305
sg8
S'Como T\xc3\xba'
p306
ssS'2Zw7rSucHm0MIph9gmNiSn'
p307
(dp308
g3
S'Alejandro Fernandez'
p309
sg5
I4
sg6
S'https://open.spotify.com/track/2Zw7rSucHm0MIph9gmNiSn'
p310
sg8
S'Quiero Que Vuelvas'
p311
ssS'3n58u3LOFw8mITLvfPvQBz'
p312
(dp313
g3
S'Cosculluela'
p314
sg5
I42
sg6
S'https://open.spotify.com/track/3n58u3LOFw8mITLvfPvQBz'
p315
sg8
S'Manicomio'
p316
ssS'7vGuf3Y35N4wmASOKLUVVU'
p317
(dp318
g3
S'Marshmello'
p319
sg5
I7
sg6
S'https://open.spotify.com/track/7vGuf3Y35N4wmASOKLUVVU'
p320
sg8
S'Silence'
p321
ssS'5Bi9Cq5oVFy1OtUgecbegZ'
p322
(dp323
g3
S'Callejeros'
p324
sg5
I42
sg6
S'https://open.spotify.com/track/5Bi9Cq5oVFy1OtUgecbegZ'
p325
sg8
S'Creo'
p326
ssS'0VSzEeOuXTAI3kbG4TXBth'
p327
(dp328
g3
S'Charly Garc\xc3\xada'
p329
sg5
I1
sg6
S'https://open.spotify.com/track/0VSzEeOuXTAI3kbG4TXBth'
p330
sg8
S'Primavera'
p331
ssS'5hEM0JchdVzQ5PwvSfITeX'
p332
(dp333
g3
S'Piso 21'
p334
sg5
I42
sg6
S'https://open.spotify.com/track/5hEM0JchdVzQ5PwvSfITeX'
p335
sg8
S'Me Llamas (feat. Maluma) - Remix'
p336
ssS'3jpqMaJREkmVDYlRvW1qWC'
p337
(dp338
g3
S'Piso 21'
p339
sg5
I1
sg6
S'https://open.spotify.com/track/3jpqMaJREkmVDYlRvW1qWC'
p340
sg8
S'Me llamas'
p341
ssS'4WjH9Bzt3kx7z8kl0awxh4'
p342
(dp343
g3
S'Major Lazer'
p344
sg5
I5
sg6
S'https://open.spotify.com/track/4WjH9Bzt3kx7z8kl0awxh4'
p345
sg8
S'Lean On (feat. M\xc3\x98 & DJ Snake)'
p346
ssS'57p8CBvPOxrvyCbn6ttl5r'
p347
(dp348
g3
S'Skrillex'
p349
sg5
I1
sg6
S'https://open.spotify.com/track/57p8CBvPOxrvyCbn6ttl5r'
p350
sg8
S'Would You Ever'
p351
ssS'2HNBSacyB6jm04n9dX2Mse'
p352
(dp353
g3
S'Marama'
p354
sg5
I22
sg6
S'https://open.spotify.com/track/2HNBSacyB6jm04n9dX2Mse'
p355
sg8
S'La Quiero Conocer'
p356
ssS'0CcQNd8CINkwQfe1RDtGV6'
p357
(dp358
g3
S'Imagine Dragons'
p359
sg5
I31
sg6
S'https://open.spotify.com/track/0CcQNd8CINkwQfe1RDtGV6'
p360
sg8
S'Believer'
p361
ssS'7oolFzHipTMg2nL7shhdz2'
p362
(dp363
g3
S'Ed Sheeran'
p364
sg5
I2
sg6
S'https://open.spotify.com/track/7oolFzHipTMg2nL7shhdz2'
p365
sg8
S'Eraser'
p366
ssS'1ei3g2hMYh1VKvik9FoUQR'
p367
(dp368
g3
S'Yandel'
p369
sg5
I3
sg6
S'https://open.spotify.com/track/1ei3g2hMYh1VKvik9FoUQR'
p370
sg8
S'S\xc3\xb3lo M\xc3\xada'
p371
ssS'0ERbK7qVqveCaBWIiYCrl3'
p372
(dp373
g3
S'Romeo Santos'
p374
sg5
I12
sg6
S'https://open.spotify.com/track/0ERbK7qVqveCaBWIiYCrl3'
p375
sg8
S'Bella y Sensual'
p376
ssS'3NdDpSvN911VPGivFlV5d0'
p377
(dp378
g3
S'ZAYN'
p379
sg5
I34
sg6
S'https://open.spotify.com/track/3NdDpSvN911VPGivFlV5d0'
p380
sg8
S'I Don\xe2\x80\x99t Wanna Live Forever (Fifty Shades Darker) - From Fifty Shades Darker (Original Motion Picture Soundtrack)'
p381
ssS'1iRvhKiXRElIH2Uf4gd95P'
p382
(dp383
g3
S'Jesse & Joy'
p384
sg5
I19
sg6
S'https://open.spotify.com/track/1iRvhKiXRElIH2Uf4gd95P'
p385
sg8
S'Dueles'
p386
ssS'0gb1J5UrTpzaU1s3nupgCd'
p387
(dp388
g3
S'Galantis'
p389
sg5
I1
sg6
S'https://open.spotify.com/track/0gb1J5UrTpzaU1s3nupgCd'
p390
sg8
S'No Money'
p391
ssS'1UZOjK1BwmwWU14Erba9CZ'
p392
(dp393
g3
S'Miley Cyrus'
p394
sg5
I1
sg6
S'https://open.spotify.com/track/1UZOjK1BwmwWU14Erba9CZ'
p395
sg8
S'Malibu'
p396
ssS'5hea2qfpEQwgbW4cPK2c6n'
p397
(dp398
g3
S'Jimena Baron'
p399
sg5
I5
sg6
S'https://open.spotify.com/track/5hea2qfpEQwgbW4cPK2c6n'
p400
sg8
S'La Tonta'
p401
ssS'3CRDbSIZ4r5MsZ0YwxuEkn'
p402
(dp403
g3
S'Twenty One Pilots'
p404
sg5
I30
sg6
S'https://open.spotify.com/track/3CRDbSIZ4r5MsZ0YwxuEkn'
p405
sg8
S'Stressed Out'
p406
ssS'5N8nNuTmIzkZOfcxXlygUw'
p407
(dp408
g3
S'J Balvin'
p409
sg5
I6
sg6
S'https://open.spotify.com/track/5N8nNuTmIzkZOfcxXlygUw'
p410
sg8
S'Ginza'
p411
ssS'6mICuAdrwEjh6Y6lroV2Kg'
p412
(dp413
g3
S'Shakira'
p414
sg5
I42
sg6
S'https://open.spotify.com/track/6mICuAdrwEjh6Y6lroV2Kg'
p415
sg8
S'Chantaje'
p416
ssS'4okba5wu9mMLXx79DXLKi3'
p417
(dp418
g3
S'Daddy Yankee'
p419
sg5
I39
sg6
S'https://open.spotify.com/track/4okba5wu9mMLXx79DXLKi3'
p420
sg8
S'La Rompe Corazones'
p421
ssS'3iS4VBJ3Bg1HyL3e6WNpgi'
p422
(dp423
g3
S'Agapornis'
p424
sg5
I19
sg6
S'https://open.spotify.com/track/3iS4VBJ3Bg1HyL3e6WNpgi'
p425
sg8
S'Baila'
p426
ssS'0s6yB0ZFl1LvYHAnGhXFga'
p427
(dp428
g3
S'Alejandro Sanz'
p429
sg5
I16
sg6
S'https://open.spotify.com/track/0s6yB0ZFl1LvYHAnGhXFga'
p430
sg8
S'Deja Que Te Bese'
p431
ssS'00lNx0OcTJrS3MKHcB80HY'
p432
(dp433
g3
S'Jax Jones'
p434
sg5
I1
sg6
S'https://open.spotify.com/track/00lNx0OcTJrS3MKHcB80HY'
p435
sg8
S"You Don't Know Me - Radio Edit"
p436
ssS'4Q6Z7fn2xVhPZ1xn0XfEOY'
p437
(dp438
g3
S'Mark B.'
p439
sg5
I1
sg6
S'https://open.spotify.com/track/4Q6Z7fn2xVhPZ1xn0XfEOY'
p440
sg8
S'Playa y Arena (Remix)'
p441
ssS'1zI2cbdyNRPNQJONGMtHj2'
p442
(dp443
g3
S'Andr\xc3\xa9s Calamaro'
p444
sg5
I3
sg6
S'https://open.spotify.com/track/1zI2cbdyNRPNQJONGMtHj2'
p445
sg8
S'La noche'
p446
ssS'0imzSFFJDCdKruduJHFN6A'
p447
(dp448
g3
S'Jimena Baron'
p449
sg5
I7
sg6
S'https://open.spotify.com/track/0imzSFFJDCdKruduJHFN6A'
p450
sg8
S'La Tonta'
p451
ssS'7JNh1cfm0eXjqFVOzKLyau'
p452
(dp453
g3
S'Becky G'
p454
sg5
I13
sg6
S'https://open.spotify.com/track/7JNh1cfm0eXjqFVOzKLyau'
p455
sg8
S'Mayores'
p456
ssS'0fg8CqpjdojMyXLNzM2PaJ'
p457
(dp458
g3
S'Major Lazer'
p459
sg5
I11
sg6
S'https://open.spotify.com/track/0fg8CqpjdojMyXLNzM2PaJ'
p460
sg8
S'Run Up (feat. PARTYNEXTDOOR & Nicki Minaj)'
p461
ssS'3noN1TxpjbjjmKqssghvg8'
p462
(dp463
g3
S'Cosculluela'
p464
sg5
I32
sg6
S'https://open.spotify.com/track/3noN1TxpjbjjmKqssghvg8'
p465
sg8
S'Si Me Dices Que Si (feat. Nicky Jam)'
p466
ssS'3umS4y3uQDkqekNjVpiRUs'
p467
(dp468
g3
S'Nicky Jam'
p469
sg5
I39
sg6
S'https://open.spotify.com/track/3umS4y3uQDkqekNjVpiRUs'
p470
sg8
S'El Amante'
p471
ssS'37sexcbewtWiE8PDuLRFrY'
p472
(dp473
g3
S'Yandel'
p474
sg5
I5
sg6
S'https://open.spotify.com/track/37sexcbewtWiE8PDuLRFrY'
p475
sg8
S'No Quiero Amores'
p476
ssS'6uFsE1JgZ20EXyU0JQZbUR'
p477
(dp478
g3
S'Taylor Swift'
p479
sg5
I7
sg6
S'https://open.spotify.com/track/6uFsE1JgZ20EXyU0JQZbUR'
p480
sg8
S'Look What You Made Me Do'
p481
ssS'6SIrNxmmdbv1KUbFBu1PaN'
p482
(dp483
g3
S'Ozuna'
p484
sg5
I16
sg6
S'https://open.spotify.com/track/6SIrNxmmdbv1KUbFBu1PaN'
p485
sg8
S'Bebe (feat. Anuel AA)'
p486
ssS'3edjkiAggwnau6qjUVbIMh'
p487
(dp488
g3
S'Soda Stereo'
p489
sg5
I1
sg6
S'https://open.spotify.com/track/3edjkiAggwnau6qjUVbIMh'
p490
sg8
S'En Remolinos (SEP7IMO DIA)'
p491
ssS'0L87MffumRNWrY2SNUFcvs'
p492
(dp493
g3
S'Milky Chance'
p494
sg5
I2
sg6
S'https://open.spotify.com/track/0L87MffumRNWrY2SNUFcvs'
p495
sg8
S'Cocoon'
p496
ssS'2eOleVJlGvBE027wpnYt2H'
p497
(dp498
g3
S'Mano Arriba'
p499
sg5
I2
sg6
S'https://open.spotify.com/track/2eOleVJlGvBE027wpnYt2H'
p500
sg8
S'Lo Que Pasa en la Noche'
p501
ssS'4xBjsLUSjcx2h7PcRikpQp'
p502
(dp503
g3
S'Camila Cabello'
p504
sg5
I1
sg6
S'https://open.spotify.com/track/4xBjsLUSjcx2h7PcRikpQp'
p505
sg8
S'OMG'
p506
ssS'7tr2za8SQg2CI8EDgrdtNl'
p507
(dp508
g3
S'Calvin Harris'
p509
sg5
I18
sg6
S'https://open.spotify.com/track/7tr2za8SQg2CI8EDgrdtNl'
p510
sg8
S'Slide'
p511
ssS'5kRPPEWFJIMox5qIkQkiz5'
p512
(dp513
g3
S'Harry Styles'
p514
sg5
I2
sg6
S'https://open.spotify.com/track/5kRPPEWFJIMox5qIkQkiz5'
p515
sg8
S'Sweet Creature'
p516
ssS'0uRHot8ml8U8cYVwwzMwNT'
p517
(dp518
g3
S'Klasico'
p519
sg5
I7
sg6
S'https://open.spotify.com/track/0uRHot8ml8U8cYVwwzMwNT'
p520
sg8
S'Corazon De Seda (feat. Ozuna)'
p521
ssS'4z3GJkrtH97Bj6fRta983T'
p522
(dp523
g3
S'Carlos Vives'
p524
sg5
I11
sg6
S'https://open.spotify.com/track/4z3GJkrtH97Bj6fRta983T'
p525
sg8
S'Robarte un Beso'
p526
ssS'6gwaa6ElIixNTvu6RwkMyo'
p527
(dp528
g3
S'Gustavo Cerati'
p529
sg5
I42
sg6
S'https://open.spotify.com/track/6gwaa6ElIixNTvu6RwkMyo'
p530
sg8
S'Puente'
p531
ssS'7BKLCZ1jbUBVqRi2FVlTVw'
p532
(dp533
g3
S'The Chainsmokers'
p534
sg5
I36
sg6
S'https://open.spotify.com/track/7BKLCZ1jbUBVqRi2FVlTVw'
p535
sg8
S'Closer'
p536
ssS'7hDc8b7IXETo14hHIHdnhd'
p537
(dp538
g3
S'Drake'
p539
sg5
I10
sg6
S'https://open.spotify.com/track/7hDc8b7IXETo14hHIHdnhd'
p540
sg8
S'Passionfruit'
p541
ssS'2webQDZmtGioeu3zUUi9We'
p542
(dp543
g3
S'Sebastian Yatra'
p544
sg5
I34
sg6
S'https://open.spotify.com/track/2webQDZmtGioeu3zUUi9We'
p545
sg8
S'Traicionera - Remix'
p546
ssS'3RiPr603aXAoi4GHyXx0uy'
p547
(dp548
g3
S'Coldplay'
p549
sg5
I3
sg6
S'https://open.spotify.com/track/3RiPr603aXAoi4GHyXx0uy'
p550
sg8
S'Hymn For The Weekend'
p551
ssS'7IRuf7FrdQvOGs0g9mSNGr'
p552
(dp553
g3
S'Carlos Vives'
p554
sg5
I18
sg6
S'https://open.spotify.com/track/7IRuf7FrdQvOGs0g9mSNGr'
p555
sg8
S'La Bicicleta - Remix'
p556
ssS'0tICYNayWWhH9GPeFrfjfD'
p557
(dp558
g3
S'Kungs'
p559
sg5
I16
sg6
S'https://open.spotify.com/track/0tICYNayWWhH9GPeFrfjfD'
p560
sg8
S"This Girl (Kungs Vs. Cookin' On 3 Burners) - Kungs Vs. Cookin' On 3 Burners"
p561
ssS'2qBirMakpTdz9ymxrZEyzg'
p562
(dp563
g3
S'Luis Alberto Spinetta'
p564
sg5
I2
sg6
S'https://open.spotify.com/track/2qBirMakpTdz9ymxrZEyzg'
p565
sg8
S'Seguir Viviendo Sin Tu Amor'
p566
ssS'1nO4EGuBjR75IGbFYzqPxO'
p567
(dp568
g3
S'Maluma'
p569
sg5
I5
sg6
S'https://open.spotify.com/track/1nO4EGuBjR75IGbFYzqPxO'
p570
sg8
S'Carnaval'
p571
ssS'0PE1dlvMZeBqEbm4BtVVSZ'
p572
(dp573
g3
S'Gente De Zona'
p574
sg5
I20
sg6
S'https://open.spotify.com/track/0PE1dlvMZeBqEbm4BtVVSZ'
p575
sg8
S'Si No Vuelves'
p576
ssS'7rDi4fIeHSM3KAUYAKYMMN'
p577
(dp578
g3
S'Ozuna'
p579
sg5
I10
sg6
S'https://open.spotify.com/track/7rDi4fIeHSM3KAUYAKYMMN'
p580
sg8
S'Si Te Dejas Llevar (feat. Juanka)'
p581
ssS'1p7m9H4H8s0Y7SgRm7j3ED'
p582
(dp583
g3
S'Andr\xc3\xa9s Calamaro'
p584
sg5
I8
sg6
S'https://open.spotify.com/track/1p7m9H4H8s0Y7SgRm7j3ED'
p585
sg8
S'Flaca'
p586
ssS'6puxHBNwu2Nmm7uD3Rd2MP'
p587
(dp588
g3
S'C. Tangana'
p589
sg5
I11
sg6
S'https://open.spotify.com/track/6puxHBNwu2Nmm7uD3Rd2MP'
p590
sg8
S'Mala Mujer'
p591
ssS'3A7qX2QjDlPnazUsRk5y0M'
p592
(dp593
g3
S'David Guetta'
p594
sg5
I17
sg6
S'https://open.spotify.com/track/3A7qX2QjDlPnazUsRk5y0M'
p595
sg8
S'2U (feat. Justin Bieber)'
p596
ssS'2d8rQXA25Yk5ZE3XW1eTXs'
p597
(dp598
g3
S'Kevin Roldan'
p599
sg5
I10
sg6
S'https://open.spotify.com/track/2d8rQXA25Yk5ZE3XW1eTXs'
p600
sg8
S'Me Gustas'
p601
ssS'01vHGJRvJ6EZW9KO8NtZpi'
p602
(dp603
g3
S'Maluma'
p604
sg5
I10
sg6
S'https://open.spotify.com/track/01vHGJRvJ6EZW9KO8NtZpi'
p605
sg8
S'Un Polvo'
p606
ssS'5nCtCCB5i1OfbADvynNw0i'
p607
(dp608
g3
S'Ed Sheeran'
p609
sg5
I23
sg6
S'https://open.spotify.com/track/5nCtCCB5i1OfbADvynNw0i'
p610
sg8
S'Shape of You (Latin Remix) [feat. Zion & Lennox]'
p611
ssS'5qqabIl2vWzo9ApSC317sa'
p612
(dp613
g3
S'Oasis'
p614
sg5
I2
sg6
S'https://open.spotify.com/track/5qqabIl2vWzo9ApSC317sa'
p615
sg8
S'Wonderwall - Remastered'
p616
ssS'0NiXXAI876aGImAd6rTj8w'
p617
(dp618
g3
S'Jonas Blue'
p619
sg5
I14
sg6
S'https://open.spotify.com/track/0NiXXAI876aGImAd6rTj8w'
p620
sg8
S'Mama'
p621
ssS'300xUYXWhFA6Q1sbNvVItP'
p622
(dp623
g3
S'Agapornis'
p624
sg5
I10
sg6
S'https://open.spotify.com/track/300xUYXWhFA6Q1sbNvVItP'
p625
sg8
S'Le Hace Falta un Beso'
p626
ssS'7r8ku3BunFqO8MdxIMefaO'
p627
(dp628
g3
S'AX 13'
p629
sg5
I6
sg6
S'https://open.spotify.com/track/7r8ku3BunFqO8MdxIMefaO'
p630
sg8
S'La ni\xc3\xb1era'
p631
ssS'7fwXWKdDNI5IutOMc5OKYw'
p632
(dp633
g3
S'J Balvin'
p634
sg5
I2
sg6
S'https://open.spotify.com/track/7fwXWKdDNI5IutOMc5OKYw'
p635
sg8
S'Mi Gente (feat. Beyonc\xc3\xa9)'
p636
ssS'6YZdkObH88npeKrrkb8Ggf'
p637
(dp638
g3
S'Enrique Iglesias'
p639
sg5
I28
sg6
S'https://open.spotify.com/track/6YZdkObH88npeKrrkb8Ggf'
p640
sg8
S'DUELE EL CORAZON'
p641
ssS'0XLOf9LhyazPX9Ld8jPiUq'
p642
(dp643
g3
S'Selena Gomez'
p644
sg5
I10
sg6
S'https://open.spotify.com/track/0XLOf9LhyazPX9Ld8jPiUq'
p645
sg8
S'Fetish (feat. Gucci Mane)'
p646
ssS'5gwCA6eUUqFNg5VVWo2Yzo'
p647
(dp648
g3
S'El Super Hobby'
p649
sg5
I4
sg6
S'https://open.spotify.com/track/5gwCA6eUUqFNg5VVWo2Yzo'
p650
sg8
S'Chica Brasile\xc3\xb1a'
p651
ssS'0mDYDLR1KToBR4plxAj4O4'
p652
(dp653
g3
S'Danny Paz'
p654
sg5
I5
sg6
S'https://open.spotify.com/track/0mDYDLR1KToBR4plxAj4O4'
p655
sg8
S'Un Beso'
p656
ssS'6fujklziTHa8uoM5OQSfIo'
p657
(dp658
g3
S'Rae Sremmurd'
p659
sg5
I3
sg6
S'https://open.spotify.com/track/6fujklziTHa8uoM5OQSfIo'
p660
sg8
S'Black Beatles'
p661
ssS'1OmcAT5Y8eg5bUPv9qJT4R'
p662
(dp663
g3
S'Post Malone'
p664
sg5
I2
sg6
S'https://open.spotify.com/track/1OmcAT5Y8eg5bUPv9qJT4R'
p665
sg8
S'rockstar'
p666
ssS'7HDOS7qOhBxmcsWTv29PSK'
p667
(dp668
g3
S'Maluma'
p669
sg5
I4
sg6
S'https://open.spotify.com/track/7HDOS7qOhBxmcsWTv29PSK'
p670
sg8
S'Pretextos'
p671
ssS'1n9hIe71hmoQKQpA7ClT9O'
p672
(dp673
g3
S'Rombai'
p674
sg5
I6
sg6
S'https://open.spotify.com/track/1n9hIe71hmoQKQpA7ClT9O'
p675
sg8
S'Abrazame'
p676
ssS'0azC730Exh71aQlOt9Zj3y'
p677
(dp678
g3
S'Calvin Harris'
p679
sg5
I14
sg6
S'https://open.spotify.com/track/0azC730Exh71aQlOt9Zj3y'
p680
sg8
S'This Is What You Came For'
p681
ssS'5AOOf1MoFJPTJyinMqjhu6'
p682
(dp683
g3
S'Indio Solari y los Fundamentalistas del Aire Acondicionado'
p684
sg5
I1
sg6
S'https://open.spotify.com/track/5AOOf1MoFJPTJyinMqjhu6'
p685
sg8
S'Flight 956'
p686
ssS'2Gl0FzuLxflY6nPifJp5Dr'
p687
(dp688
g3
S'Kygo'
p689
sg5
I13
sg6
S'https://open.spotify.com/track/2Gl0FzuLxflY6nPifJp5Dr'
p690
sg8
S'First Time'
p691
ssS'7i2DJ88J7jQ8K7zqFX2fW8'
p692
(dp693
g3
S'Halsey'
p694
sg5
I2
sg6
S'https://open.spotify.com/track/7i2DJ88J7jQ8K7zqFX2fW8'
p695
sg8
S'Now Or Never'
p696
ssS'6stYbAJgTszHAHZMPxWWCY'
p697
(dp698
g3
S'IAmChino'
p699
sg5
I42
sg6
S'https://open.spotify.com/track/6stYbAJgTszHAHZMPxWWCY'
p700
sg8
S'Ay Mi Dios'
p701
ssS'3bdZxtSur7qHEfqIofeh5w'
p702
(dp703
g3
S'Los Turros'
p704
sg5
I1
sg6
S'https://open.spotify.com/track/3bdZxtSur7qHEfqIofeh5w'
p705
sg8
S'Tamo Activo'
p706
ssS'2nruW43pcr20cNm3DBCDbz'
p707
(dp708
g3
S'Los Totora'
p709
sg5
I2
sg6
S'https://open.spotify.com/track/2nruW43pcr20cNm3DBCDbz'
p710
sg8
S'No hay m\xc3\xa1s nada'
p711
ssS'0tkUZvL9ZbNLnzJ4jHeiOL'
p712
(dp713
g3
S'Soda Stereo'
p714
sg5
I1
sg6
S'https://open.spotify.com/track/0tkUZvL9ZbNLnzJ4jHeiOL'
p715
sg8
S'Cae el Sol / Planta (SEP7IMO DIA)'
p716
ssS'68EMU2RD1ECNeOeJ5qAXCV'
p717
(dp718
g3
S'Charlie Puth'
p719
sg5
I42
sg6
S'https://open.spotify.com/track/68EMU2RD1ECNeOeJ5qAXCV'
p720
sg8
S"We Don't Talk Anymore (feat. Selena Gomez)"
p721
ssS'5eKz6EomwRhyEySGEmCuRA'
p722
(dp723
g3
S'aLee DJ'
p724
sg5
I10
sg6
S'https://open.spotify.com/track/5eKz6EomwRhyEySGEmCuRA'
p725
sg8
S'La Disco La Parte En Dos'
p726
ssS'77a9893yxuz36cBUmBzA8E'
p727
(dp728
g3
S'Carlos Vives'
p729
sg5
I17
sg6
S'https://open.spotify.com/track/77a9893yxuz36cBUmBzA8E'
p730
sg8
S'Al Filo de Tu Amor'
p731
ssS'1j4kHkkpqZRBwE0A4CN4Yv'
p732
(dp733
g3
S'ZAYN'
p734
sg5
I5
sg6
S'https://open.spotify.com/track/1j4kHkkpqZRBwE0A4CN4Yv'
p735
sg8
S'Dusk Till Dawn - Radio Edit'
p736
ssS'3DXncPQOG4VBw3QHh3S817'
p737
(dp738
g3
S'DJ Khaled'
p739
sg5
I18
sg6
S'https://open.spotify.com/track/3DXncPQOG4VBw3QHh3S817'
p740
sg8
S"I'm the One"
p741
ssS'2q6tgiA9tpb6DMguABwCWE'
p742
(dp743
g3
S'John Legend'
p744
sg5
I1
sg6
S'https://open.spotify.com/track/2q6tgiA9tpb6DMguABwCWE'
p745
sg8
S'All of Me'
p746
ssS'4VuS959DSpr82t3qBqCrWG'
p747
(dp748
g3
S'Ed Sheeran'
p749
sg5
I2
sg6
S'https://open.spotify.com/track/4VuS959DSpr82t3qBqCrWG'
p750
sg8
S'Supermarket Flowers'
p751
ssS'4ojwGTehgBRAg52jbFgzJg'
p752
(dp753
g3
S'Mambo Kingz'
p754
sg5
I11
sg6
S'https://open.spotify.com/track/4ojwGTehgBRAg52jbFgzJg'
p755
sg8
S'Me Reclama'
p756
ssS'3nqrj9bM1clIkejk7BVPtX'
p757
(dp758
g3
S'Karol G'
p759
sg5
I13
sg6
S'https://open.spotify.com/track/3nqrj9bM1clIkejk7BVPtX'
p760
sg8
S'A Ella'
p761
ssS'3mxWDt0eKXfl4C1e4oIP0J'
p762
(dp763
g3
S'Ozuna'
p764
sg5
I2
sg6
S'https://open.spotify.com/track/3mxWDt0eKXfl4C1e4oIP0J'
p765
sg8
S'Se Prepar\xc3\xb3'
p766
ssS'0o221VNm4azkzYYLtxDGgV'
p767
(dp768
g3
S'De La Calle'
p769
sg5
I29
sg6
S'https://open.spotify.com/track/0o221VNm4azkzYYLtxDGgV'
p770
sg8
S'Papi Shampu'
p771
ssS'7MMRoGvm7uhoUVhGvHJ3yW'
p772
(dp773
g3
S'Manuel Turizo'
p774
sg5
I9
sg6
S'https://open.spotify.com/track/7MMRoGvm7uhoUVhGvHJ3yW'
p775
sg8
S'Una Lady Como T\xc3\xba - Remix'
p776
ssS'61HHDBLqF3AmSvLfHKNGd2'
p777
(dp778
g3
S'Karol G'
p779
sg5
I20
sg6
S'https://open.spotify.com/track/61HHDBLqF3AmSvLfHKNGd2'
p780
sg8
S'Ahora Me Llama'
p781
ssS'1lxswgIpzV6HhENRvkflES'
p782
(dp783
g3
S'Farruko'
p784
sg5
I42
sg6
S'https://open.spotify.com/track/1lxswgIpzV6HhENRvkflES'
p785
sg8
S'Chillax'
p786
ssS'10nQ3Pj0o1XotcikgJPVKD'
p787
(dp788
g3
S'Bad Bunny'
p789
sg5
I14
sg6
S'https://open.spotify.com/track/10nQ3Pj0o1XotcikgJPVKD'
p790
sg8
S'Tu No Metes Cabra'
p791
ssS'61WbtB6ujkpNAsAf5LjF4b'
p792
(dp793
g3
S'Katy Perry'
p794
sg5
I7
sg6
S'https://open.spotify.com/track/61WbtB6ujkpNAsAf5LjF4b'
p795
sg8
S'Bon app\xc3\xa9tit'
p796
ssS'7ofxPmTNMj2GP07g1VZa0O'
p797
(dp798
g3
S'Alex Sensation'
p799
sg5
I10
sg6
S'https://open.spotify.com/track/7ofxPmTNMj2GP07g1VZa0O'
p800
sg8
S'Que Va'
p801
ssS'6WMYFEd4MJDIjJARHnOxoN'
p802
(dp803
g3
S'Major Lazer'
p804
sg5
I5
sg6
S'https://open.spotify.com/track/6WMYFEd4MJDIjJARHnOxoN'
p805
sg8
S'Buscando Huellas (feat. J Balvin & Sean Paul)'
p806
ssS'3BY2mafsbsoKGqS380Xnuz'
p807
(dp808
g3
S'Don Omar'
p809
sg5
I42
sg6
S'https://open.spotify.com/track/3BY2mafsbsoKGqS380Xnuz'
p810
sg8
S'Te Quiero Pa\xc2\xb4Mi'
p811
ssS'4JAyIDXOqNM6qHuZML01uX'
p812
(dp813
g3
g162
sg5
I1
sg6
S'https://open.spotify.com/track/4JAyIDXOqNM6qHuZML01uX'
p814
sg8
g162
ssS'0EpFfFZpCuqYFzHvxOtrZS'
p815
(dp816
g3
S'Yandel'
p817
sg5
I19
sg6
S'https://open.spotify.com/track/0EpFfFZpCuqYFzHvxOtrZS'
p818
sg8
S'Encantadora - Remix'
p819
ssS'5LYQSNHZxEA880URXFHg6h'
p820
(dp821
g3
S'Lana Del Rey'
p822
sg5
I1
sg6
S'https://open.spotify.com/track/5LYQSNHZxEA880URXFHg6h'
p823
sg8
S'Lust for Life (with The Weeknd)'
p824
ssS'7JpzzaCzljQdfnG7wPRqSe'
p825
(dp826
g3
S'Prince Royce'
p827
sg5
I7
sg6
S'https://open.spotify.com/track/7JpzzaCzljQdfnG7wPRqSe'
p828
sg8
S'Ganas Locas'
p829
ssS'5hYTyyh2odQKphUbMqc5gN'
p830
(dp831
g3
S'Alessia Cara'
p832
sg5
I11
sg6
S'https://open.spotify.com/track/5hYTyyh2odQKphUbMqc5gN'
p833
sg8
S"How Far I'll Go - From Moana"
p834
ssS'72jbDTw1piOOj770jWNeaG'
p835
(dp836
g3
S'The Chainsmokers'
p837
sg5
I24
sg6
S'https://open.spotify.com/track/72jbDTw1piOOj770jWNeaG'
p838
sg8
S'Paris'
p839
ssS'7LDUiraavMZ6mb8hK3mXkj'
p840
(dp841
g3
S'La Beriso'
p842
sg5
I42
sg6
S'https://open.spotify.com/track/7LDUiraavMZ6mb8hK3mXkj'
p843
sg8
S'No Me Olvides'
p844
ssS'09OiYtiWY76FsodXCJ9Ym9'
p845
(dp846
g3
S'Soda Stereo'
p847
sg5
I1
sg6
S'https://open.spotify.com/track/09OiYtiWY76FsodXCJ9Ym9'
p848
sg8
S'Persiana Americana (SEP7IMO DIA)'
p849
ssS'6vBeZiyYQmb0eD1Fj3RThI'
p850
(dp851
g3
S'CHANO'
p852
sg5
I6
sg6
S'https://open.spotify.com/track/6vBeZiyYQmb0eD1Fj3RThI'
p853
sg8
S'Naistumichiu'
p854
ssS'3tddzXTgneWrkV2cYNUBZe'
p855
(dp856
g3
S'El Polaco'
p857
sg5
I32
sg6
S'https://open.spotify.com/track/3tddzXTgneWrkV2cYNUBZe'
p858
sg8
S'Deja De Llorar'
p859
ssS'0dA2Mk56wEzDgegdC6R17g'
p860
(dp861
g3
S'Zedd'
p862
sg5
I25
sg6
S'https://open.spotify.com/track/0dA2Mk56wEzDgegdC6R17g'
p863
sg8
S'Stay (with Alessia Cara)'
p864
ssS'0uuEqOyKlABOB7hzWKcEeG'
p865
(dp866
g3
S'No Te Va Gustar'
p867
sg5
I37
sg6
S'https://open.spotify.com/track/0uuEqOyKlABOB7hzWKcEeG'
p868
sg8
S'A las Nueve'
p869
ssS'3Ytr1SUCUi6J3L9dRFx5iH'
p870
(dp871
g3
S'Major Lazer'
p872
sg5
I5
sg6
S'https://open.spotify.com/track/3Ytr1SUCUi6J3L9dRFx5iH'
p873
sg8
S'Know No Better (feat. Quavo)'
p874
ssS'6La6oWlGposkrgvLjjRJju'
p875
(dp876
g3
S'Ozuna'
p877
sg5
I5
sg6
S'https://open.spotify.com/track/6La6oWlGposkrgvLjjRJju'
p878
sg8
S'Cumplea\xc3\xb1os'
p879
ssS'70ivSNwJpoFzyU3vomPRYk'
p880
(dp881
g3
S'Soda Stereo'
p882
sg5
I1
sg6
S'https://open.spotify.com/track/70ivSNwJpoFzyU3vomPRYk'
p883
sg8
S'Pr\xc3\xb3fugos (SEP7IMO DIA)'
p884
ssS'1zwH02KhFWC4wOtiZ1We1g'
p885
(dp886
g3
S'El Polaco'
p887
sg5
I1
sg6
S'https://open.spotify.com/track/1zwH02KhFWC4wOtiZ1We1g'
p888
sg8
S'Sola Otra Vez'
p889
ssS'7nZmah2llfvLDiUjm0kiyz'
p890
(dp891
g3
S'Justin Bieber'
p892
sg5
I8
sg6
S'https://open.spotify.com/track/7nZmah2llfvLDiUjm0kiyz'
p893
sg8
S'Friends (with BloodPop\xc2\xae)'
p894
ssS'2SmgFAhQkQCQPyBiBxR6Te'
p895
(dp896
g3
S'Natti Natasha'
p897
sg5
I6
sg6
S'https://open.spotify.com/track/2SmgFAhQkQCQPyBiBxR6Te'
p898
sg8
S'Criminal'
p899
ssS'7MHN1aCFtLXjownGhvEQlF'
p900
(dp901
g3
S'Manuel Turizo'
p902
sg5
I21
sg6
S'https://open.spotify.com/track/7MHN1aCFtLXjownGhvEQlF'
p903
sg8
S'Una Lady Como T\xc3\xba'
p904
ssS'7uKe068f3goRFEhH6MCbun'
p905
(dp906
g3
S'Los Abuelos De La Nada'
p907
sg5
I7
sg6
S'https://open.spotify.com/track/7uKe068f3goRFEhH6MCbun'
p908
sg8
S'Mil Horas'
p909
ssS'22eADXu8DfOAUEDw4vU8qy'
p910
(dp911
g3
S'Chris Jeday'
p912
sg5
I29
sg6
S'https://open.spotify.com/track/22eADXu8DfOAUEDw4vU8qy'
p913
sg8
S'Ahora Dice'
p914
ssS'347TStOSY6IOqMB84Rpxwk'
p915
(dp916
g3
S'Marama'
p917
sg5
I7
sg6
S'https://open.spotify.com/track/347TStOSY6IOqMB84Rpxwk'
p918
sg8
S'Nena'
p919
ssS'2BesEfIHzUb7viZwUkSAhE'
p920
(dp921
g3
S'Alexis & Fido'
p922
sg5
I5
sg6
S'https://open.spotify.com/track/2BesEfIHzUb7viZwUkSAhE'
p923
sg8
S'Una en un Mill\xc3\xb3n - Remix'
p924
ssS'2dfHh7ECGxfNqZTQno09Vk'
p925
(dp926
g3
S'Ed Sheeran'
p927
sg5
I2
sg6
S'https://open.spotify.com/track/2dfHh7ECGxfNqZTQno09Vk'
p928
sg8
S"Hearts Don't Break Around Here"
p929
ssS'33F4IHQ2JcXWSDXNA9b4tK'
p930
(dp931
g3
S'Maluma'
p932
sg5
I6
sg6
S'https://open.spotify.com/track/33F4IHQ2JcXWSDXNA9b4tK'
p933
sg8
S'Felices los 4 - Salsa Version'
p934
ssS'5fqE4mcMADOX0qTuIlpLZL'
p935
(dp936
g3
S'Cali Y El Dandee'
p937
sg5
I8
sg6
S'https://open.spotify.com/track/5fqE4mcMADOX0qTuIlpLZL'
p938
sg8
S'La Estrategia'
p939
ssS'2sA4woGW5KgEgGXXxOKPAZ'
p940
(dp941
g3
S'Noriel'
p942
sg5
I10
sg6
S'https://open.spotify.com/track/2sA4woGW5KgEgGXXxOKPAZ'
p943
sg8
S'Amigos y Enemigos - Remix'
p944
ssS'1SYqEFrLotYNBTJbNXKEa5'
p945
(dp946
g3
S'Jason Derulo'
p947
sg5
I16
sg6
S'https://open.spotify.com/track/1SYqEFrLotYNBTJbNXKEa5'
p948
sg8
S'Pull-Up'
p949
ssS'343YBumqHu19cGoGARUTsd'
p950
(dp951
g3
S'Drake'
p952
sg5
I1
sg6
S'https://open.spotify.com/track/343YBumqHu19cGoGARUTsd'
p953
sg8
S'Fake Love'
p954
ssS'5HDPtsnyb3maFmPL8LLUTG'
p955
(dp956
g3
S'Ed Sheeran'
p957
sg5
I4
sg6
S'https://open.spotify.com/track/5HDPtsnyb3maFmPL8LLUTG'
p958
sg8
S'New Man'
p959
ssS'2TN5VueWaAxwkzHgmtDRMn'
p960
(dp961
g3
S'Rombai'
p962
sg5
I5
sg6
S'https://open.spotify.com/track/2TN5VueWaAxwkzHgmtDRMn'
p963
sg8
S'Sent\xc3\xad el Sabor'
p964
ssS'5WdSPcKgxWirPXVM7f6xXZ'
p965
(dp966
g3
S'Maluma'
p967
sg5
I1
sg6
S'https://open.spotify.com/track/5WdSPcKgxWirPXVM7f6xXZ'
p968
sg8
S'El Tiki'
p969
ssS'2zrcunkMh2pG74NKLQagf7'
p970
(dp971
g3
S'Los Bonnitos'
p972
sg5
I10
sg6
S'https://open.spotify.com/track/2zrcunkMh2pG74NKLQagf7'
p973
sg8
S'Dame la Mano'
p974
ssS'6WbADFqMvR8N5u0BvtsWQE'
p975
(dp976
g3
S'Avicii'
p977
sg5
I9
sg6
S'https://open.spotify.com/track/6WbADFqMvR8N5u0BvtsWQE'
p978
sg8
S'Without You (feat. Sandro Cavazza)'
p979
ssS'0QetVR4wwvyiTezQeFNdeZ'
p980
(dp981
g3
S'Ozuna'
p982
sg5
I9
sg6
S'https://open.spotify.com/track/0QetVR4wwvyiTezQeFNdeZ'
p983
sg8
S'En La Intimidad'
p984
ssS'75JFxkI2RXiU7L9VXzMkle'
p985
(dp986
g3
S'Coldplay'
p987
sg5
I42
sg6
S'https://open.spotify.com/track/75JFxkI2RXiU7L9VXzMkle'
p988
sg8
S'The Scientist'
p989
ssS'4pdPtRcBmOSQDlJ3Fk945m'
p990
(dp991
g3
S'DJ Snake'
p992
sg5
I42
sg6
S'https://open.spotify.com/track/4pdPtRcBmOSQDlJ3Fk945m'
p993
sg8
S'Let Me Love You'
p994
ssS'7lRsNbdOGykkMAgsqs4R1C'
p995
(dp996
g3
S'Nacho'
p997
sg5
I26
sg6
S'https://open.spotify.com/track/7lRsNbdOGykkMAgsqs4R1C'
p998
sg8
S'B\xc3\xa1ilame'
p999
ssS'4OaTpLJIa2harufGxfOPUu'
p1000
(dp1001
g3
S'Xantos'
p1002
sg5
I42
sg6
S'https://open.spotify.com/track/4OaTpLJIa2harufGxfOPUu'
p1003
sg8
S'Bailame Despacio'
p1004
ssS'0StRt2W3IPe2MnpixQi6e5'
p1005
(dp1006
g3
S'DJ Tetraguy'
p1007
sg5
I18
sg6
S'https://open.spotify.com/track/0StRt2W3IPe2MnpixQi6e5'
p1008
sg8
S'Te de Campana'
p1009
ssS'3QwBODjSEzelZyVjxPOHdq'
p1010
(dp1011
g3
S'Zion & Lennox'
p1012
sg5
I42
sg6
S'https://open.spotify.com/track/3QwBODjSEzelZyVjxPOHdq'
p1013
sg8
S'Otra Vez (feat. J Balvin)'
p1014
ssS'1OAiWI2oPmglaOiv9fdioU'
p1015
(dp1016
g3
S'Coldplay'
p1017
sg5
I12
sg6
S'https://open.spotify.com/track/1OAiWI2oPmglaOiv9fdioU'
p1018
sg8
S'Hymn For The Weekend - Seeb Remix'
p1019
ssS'209gZgcfLq2aUuu51vOWBl'
p1020
(dp1021
g3
S'CNCO'
p1022
sg5
I27
sg6
S'https://open.spotify.com/track/209gZgcfLq2aUuu51vOWBl'
p1023
sg8
S'Hey DJ'
p1024
ssS'6ywppvpjTRk8GaBwoPueZu'
p1025
(dp1026
g3
S'No Te Va Gustar'
p1027
sg5
I1
sg6
S'https://open.spotify.com/track/6ywppvpjTRk8GaBwoPueZu'
p1028
sg8
S'Prendido Fuego'
p1029
ssS'5vy1C7DD9xJ5fRB3KqV6Kq'
p1030
(dp1031
g3
S'Mano Arriba'
p1032
sg5
I38
sg6
S'https://open.spotify.com/track/5vy1C7DD9xJ5fRB3KqV6Kq'
p1033
sg8
S'El Equivocado'
p1034
ssS'3g8HfTlZYA72i9V2JPwXOb'
p1035
(dp1036
g3
S'Daddy Yankee'
p1037
sg5
I7
sg6
S'https://open.spotify.com/track/3g8HfTlZYA72i9V2JPwXOb'
p1038
sg8
S'Otra Cosa'
p1039
ssS'1y2jGfgALBBNZL6tXPI2Ke'
p1040
(dp1041
g3
S'Rombai'
p1042
sg5
I2
sg6
S'https://open.spotify.com/track/1y2jGfgALBBNZL6tXPI2Ke'
p1043
sg8
S'Segundas Intenciones'
p1044
ssS'5aHJug2wnupoGfgfxRudsk'
p1045
(dp1046
g3
S'Mano Arriba'
p1047
sg5
I42
sg6
S'https://open.spotify.com/track/5aHJug2wnupoGfgfxRudsk'
p1048
sg8
S'Llamame Mas Temprano'
p1049
ssS'3uMYq07Kj5m564OQwdSCrD'
p1050
(dp1051
g3
S'Soda Stereo'
p1052
sg5
I42
sg6
S'https://open.spotify.com/track/3uMYq07Kj5m564OQwdSCrD'
p1053
sg8
S'Cuando Pase El Temblor - Remasterizado 2007'
p1054
ssS'6urlj8N8TL3MK0ATNGIZYW'
p1055
(dp1056
g3
S'Major Lazer'
p1057
sg5
I6
sg6
S'https://open.spotify.com/track/6urlj8N8TL3MK0ATNGIZYW'
p1058
sg8
S'Buscando Huellas (feat. J Balvin & Sean Paul)'
p1059
ssS'0FVuUna31PTRmWGLs8W1o4'
p1060
(dp1061
g3
S'CantoParaBailar'
p1062
sg5
I27
sg6
S'https://open.spotify.com/track/0FVuUna31PTRmWGLs8W1o4'
p1063
sg8
S'Se Pone Loca'
p1064
ssS'4xlrALxuaCf9yZBHJeTSG6'
p1065
(dp1066
g3
S'Jonas Blue'
p1067
sg5
I3
sg6
S'https://open.spotify.com/track/4xlrALxuaCf9yZBHJeTSG6'
p1068
sg8
S'Mama'
p1069
ssS'79cuOz3SPQTuFrp8WgftAu'
p1070
(dp1071
g3
S'Shawn Mendes'
p1072
sg5
I25
sg6
S'https://open.spotify.com/track/79cuOz3SPQTuFrp8WgftAu'
p1073
sg8
S"There's Nothing Holdin' Me Back"
p1074
ssS'01M85JZm3JMyHrWzvkfO5X'
p1075
(dp1076
g3
S'La Reserva'
p1077
sg5
I13
sg6
S'https://open.spotify.com/track/01M85JZm3JMyHrWzvkfO5X'
p1078
sg8
S'Tu Arreglapenas'
p1079
ssS'1A3yLIqelu1D7MCtw06Cu7'
p1080
(dp1081
g3
S'#TocoParaVos'
p1082
sg5
I20
sg6
S'https://open.spotify.com/track/1A3yLIqelu1D7MCtw06Cu7'
p1083
sg8
S'Hasta la luna'
p1084
ssS'7AtlMCIauSQZqiXSlbBPW6'
p1085
(dp1086
g3
S'J Balvin'
p1087
sg5
I16
sg6
S'https://open.spotify.com/track/7AtlMCIauSQZqiXSlbBPW6'
p1088
sg8
S'Bobo'
p1089
ssS'2xjcDF21U2ccgE2LEeiMbf'
p1090
(dp1091
g3
S'Marama'
p1092
sg5
I9
sg6
S'https://open.spotify.com/track/2xjcDF21U2ccgE2LEeiMbf'
p1093
sg8
S'Loquita'
p1094
ssS'0gzcET27nREY6aD8LJU9wD'
p1095
(dp1096
g3
S'Marama'
p1097
sg5
I30
sg6
S'https://open.spotify.com/track/0gzcET27nREY6aD8LJU9wD'
p1098
sg8
S'Noche Loca'
p1099
ssS'466XGyJj6LHJcpeR3RhhJX'
p1100
(dp1101
g3
S'Soda Stereo'
p1102
sg5
I1
sg6
S'https://open.spotify.com/track/466XGyJj6LHJcpeR3RhhJX'
p1103
sg8
S'Picnic en el 4to B / Te Hacen Falta Vitaminas / Mi Novia Tiene B\xc3\xadceps (SEP7IMO DIA)'
p1104
ssS'3eR23VReFzcdmS7TYCrhCe'
p1105
(dp1106
g3
S'Kygo'
p1107
sg5
I26
sg6
S'https://open.spotify.com/track/3eR23VReFzcdmS7TYCrhCe'
p1108
sg8
S"It Ain't Me (with Selena Gomez)"
p1109
ssS'4B1rpPmQXwj78wk6aIGwwU'
p1110
(dp1111
g3
S'Harry Styles'
p1112
sg5
I1
sg6
S'https://open.spotify.com/track/4B1rpPmQXwj78wk6aIGwwU'
p1113
sg8
S'Two Ghosts'
p1114
ssS'5P45f6HakSHDwdFj5dO5K5'
p1115
(dp1116
g3
S'Wisin'
p1117
sg5
I13
sg6
S'https://open.spotify.com/track/5P45f6HakSHDwdFj5dO5K5'
p1118
sg8
S'Esc\xc3\xa1pate Conmigo - Remix'
p1119
ssS'3HZTBtQd6SPsCY1Nvo55f0'
p1120
(dp1121
g3
S'Poncho'
p1122
sg5
I1
sg6
S'https://open.spotify.com/track/3HZTBtQd6SPsCY1Nvo55f0'
p1123
sg8
S'The Love You Got'
p1124
ssS'772io14jrMTxGJbijtDccQ'
p1125
(dp1126
g3
S'Juan Mag\xc3\xa1n'
p1127
sg5
I11
sg6
S'https://open.spotify.com/track/772io14jrMTxGJbijtDccQ'
p1128
sg8
S'Baila Conmigo'
p1129
ssS'58IL315gMSTD37DOZPJ2hf'
p1130
(dp1131
g3
S'Daddy Yankee'
p1132
sg5
I42
sg6
S'https://open.spotify.com/track/58IL315gMSTD37DOZPJ2hf'
p1133
sg8
S'Shaky Shaky'
p1134
ssS'77KHmKnBmVGTjRCeMVXpWH'
p1135
(dp1136
g3
S'Kevin Roldan'
p1137
sg5
I10
sg6
S'https://open.spotify.com/track/77KHmKnBmVGTjRCeMVXpWH'
p1138
sg8
S'Ruleta Rusa'
p1139
ssS'5bZtRlMBU76vHuDOb1GM5u'
p1140
(dp1141
g3
S'Jonas Blue'
p1142
sg5
I1
sg6
S'https://open.spotify.com/track/5bZtRlMBU76vHuDOb1GM5u'
p1143
sg8
S'Perfect Strangers'
p1144
ssS'3GpvoKKWZyTwgbLEM9RmWM'
p1145
(dp1146
g3
S'Cali Y El Dandee'
p1147
sg5
I27
sg6
S'https://open.spotify.com/track/3GpvoKKWZyTwgbLEM9RmWM'
p1148
sg8
S'Por Fin Te Encontr\xc3\xa9'
p1149
ssS'0JiVRyTJcJnmlwCZ854K4p'
p1150
(dp1151
g3
S'Alan Walker'
p1152
sg5
I1
sg6
S'https://open.spotify.com/track/0JiVRyTJcJnmlwCZ854K4p'
p1153
sg8
S'Alone'
p1154
ssS'2SSYqDX8KTgy01NlqtUo0F'
p1155
(dp1156
g3
S'Reik'
p1157
sg5
I42
sg6
S'https://open.spotify.com/track/2SSYqDX8KTgy01NlqtUo0F'
p1158
sg8
S'Ya Me Enter\xc3\xa9 (feat. Nicky Jam) - Urban Version'
p1159
ssS'3hRZsdTF5uyGA2uhNqEuhm'
p1160
(dp1161
g3
S'Niall Horan'
p1162
sg5
I1
sg6
S'https://open.spotify.com/track/3hRZsdTF5uyGA2uhNqEuhm'
p1163
sg8
S'Too Much To Ask'
p1164
ssS'6sMPwcpYtxm1mlgYbp1B0t'
p1165
(dp1166
g3
S'Jacob Forever'
p1167
sg5
I10
sg6
S'https://open.spotify.com/track/6sMPwcpYtxm1mlgYbp1B0t'
p1168
sg8
S'Hasta Que Se Seque el Malec\xc3\xb3n - Remix'
p1169
ssS'4aWmUDTfIPGksMNLV2rQP2'
p1170
(dp1171
g3
S'Luis Fonsi'
p1172
sg5
I39
sg6
S'https://open.spotify.com/track/4aWmUDTfIPGksMNLV2rQP2'
p1173
sg8
S'Despacito (Featuring Daddy Yankee)'
p1174
ssS'7JZP7kQsuFFWOrtAI7uNiW'
p1175
(dp1176
g3
S'Soda Stereo'
p1177
sg5
I32
sg6
S'https://open.spotify.com/track/7JZP7kQsuFFWOrtAI7uNiW'
p1178
sg8
S'Persiana Americana'
p1179
ssS'35QZaWQRkmnAVqBF1TLCxQ'
p1180
(dp1181
g3
S'Ed Sheeran'
p1182
sg5
I2
sg6
S'https://open.spotify.com/track/35QZaWQRkmnAVqBF1TLCxQ'
p1183
sg8
S'Nancy Mulligan'
p1184
ssS'0sOpGWXWkxNDev51Dst3fQ'
p1185
(dp1186
g3
S'La Beriso'
p1187
sg5
I14
sg6
S'https://open.spotify.com/track/0sOpGWXWkxNDev51Dst3fQ'
p1188
sg8
S'Traicionero'
p1189
ssS'2Z8WuEywRWYTKe1NybPQEW'
p1190
(dp1191
g3
S'Twenty One Pilots'
p1192
sg5
I27
sg6
S'https://open.spotify.com/track/2Z8WuEywRWYTKe1NybPQEW'
p1193
sg8
S'Ride'
p1194
ssS'000xQL6tZNLJzIrtIgxqSl'
p1195
(dp1196
g3
S'ZAYN'
p1197
sg5
I7
sg6
S'https://open.spotify.com/track/000xQL6tZNLJzIrtIgxqSl'
p1198
sg8
S'Still Got Time'
p1199
ssS'36JI0KHc591i9liHaFqDFG'
p1200
(dp1201
g3
S'Los De La Nazza'
p1202
sg5
I5
sg6
S'https://open.spotify.com/track/36JI0KHc591i9liHaFqDFG'
p1203
sg8
S'Falsas Mentiras (feat. Ozuna)'
p1204
ssS'3rtxFFGZ10e2vYBo7PsPf2'
p1205
(dp1206
g3
S'Carlos Rivera'
p1207
sg5
I11
sg6
S'https://open.spotify.com/track/3rtxFFGZ10e2vYBo7PsPf2'
p1208
sg8
S'Que Lo Nuestro Se Quede Nuestro'
p1209
ssS'6JV2JOEocMgcZxYSZelKcc'
p1210
(dp1211
g3
S'Justin Timberlake'
p1212
sg5
I28
sg6
S'https://open.spotify.com/track/6JV2JOEocMgcZxYSZelKcc'
p1213
sg8
S"CAN'T STOP THE FEELING! (Original Song from DreamWorks Animation's TROLLS)"
p1214
ssS'6De0lHrwBfPfrhorm9q1Xl'
p1215
(dp1216
g3
S'Danny Ocean'
p1217
sg5
I35
sg6
S'https://open.spotify.com/track/6De0lHrwBfPfrhorm9q1Xl'
p1218
sg8
S'Me Reh\xc3\xbaso'
p1219
ssS'7aV2mflaASUmGhCErm7kBO'
p1220
(dp1221
g3
S'Nevada'
p1222
sg5
I2
sg6
S'https://open.spotify.com/track/7aV2mflaASUmGhCErm7kBO'
p1223
sg8
S'The Mack'
p1224
ssS'1CKd1PnqfYx0H12V9MSaIY'
p1225
(dp1226
g3
S'Zedd'
p1227
sg5
I5
sg6
S'https://open.spotify.com/track/1CKd1PnqfYx0H12V9MSaIY'
p1228
sg8
S'Get Low (with Liam Payne)'
p1229
ssS'3rOSwuTsUlJp0Pu0MkN8r8'
p1230
(dp1231
g3
S'Future'
p1232
sg5
I1
sg6
S'https://open.spotify.com/track/3rOSwuTsUlJp0Pu0MkN8r8'
p1233
sg8
S'Mask Off'
p1234
ssS'5jMvnSyOgGY8JpvHqeyVOg'
p1235
(dp1236
g3
S'Rombai'
p1237
sg5
I18
sg6
S'https://open.spotify.com/track/5jMvnSyOgGY8JpvHqeyVOg'
p1238
sg8
S'Locuras contigo'
p1239
ssS'27SdWb2rFzO6GWiYDBTD9j'
p1240
(dp1241
g3
S'Sia'
p1242
sg5
I35
sg6
S'https://open.spotify.com/track/27SdWb2rFzO6GWiYDBTD9j'
p1243
sg8
S'Cheap Thrills'
p1244
ssS'3HVr6jTVwBHBa2flM0eURR'
p1245
(dp1246
g3
S'Macklemore'
p1247
sg5
I3
sg6
S'https://open.spotify.com/track/3HVr6jTVwBHBa2flM0eURR'
p1248
sg8
S'Glorious (feat. Skylar Grey)'
p1249
ssS'1cG0umU5TKStygKsPFZ9pY'
p1250
(dp1251
g3
S'Robin Schulz'
p1252
sg5
I17
sg6
S'https://open.spotify.com/track/1cG0umU5TKStygKsPFZ9pY'
p1253
sg8
S'Shed a Light'
p1254
ssS'6520aj0B4FSKGVuKNsOCOi'
p1255
(dp1256
g3
S'Katy Perry'
p1257
sg5
I18
sg6
S'https://open.spotify.com/track/6520aj0B4FSKGVuKNsOCOi'
p1258
sg8
S'Chained To The Rhythm'
p1259
ssS'4q8PHoRsPUB52LFylX8Ulz'
p1260
(dp1261
g3
S'Axwell /\\ Ingrosso'
p1262
sg5
I2
sg6
S'https://open.spotify.com/track/4q8PHoRsPUB52LFylX8Ulz'
p1263
sg8
S'More Than You Know'
p1264
ssS'6EpRaXYhGOB3fj4V2uDkMJ'
p1265
(dp1266
g3
S'Liam Payne'
p1267
sg5
I18
sg6
S'https://open.spotify.com/track/6EpRaXYhGOB3fj4V2uDkMJ'
p1268
sg8
S'Strip That Down'
p1269
ssS'51PIvodunv6NmX5250zxAh'
p1270
(dp1271
g3
S'Lady Gaga'
p1272
sg5
I8
sg6
S'https://open.spotify.com/track/51PIvodunv6NmX5250zxAh'
p1273
sg8
S'The Cure'
p1274
ssS'4PdJSsESm34djLfBde9Pr2'
p1275
(dp1276
g3
S'David Guetta'
p1277
sg5
I6
sg6
S'https://open.spotify.com/track/4PdJSsESm34djLfBde9Pr2'
p1278
sg8
S'Would I Lie To You - Radio Edit'
p1279
ssS'1qWKjtVh1vWuzG6s3CyOPV'
p1280
(dp1281
g3
S'Axel'
p1282
sg5
I2
sg6
S'https://open.spotify.com/track/1qWKjtVh1vWuzG6s3CyOPV'
p1283
sg8
S'Aire'
p1284
ssS'64CvAy6EPQpxCNbW2LNze9'
p1285
(dp1286
g3
S'El Villano'
p1287
sg5
I25
sg6
S'https://open.spotify.com/track/64CvAy6EPQpxCNbW2LNze9'
p1288
sg8
S'Su Novio Anterior'
p1289
ssS'7DM4BPaS7uofFul3ywMe46'
p1290
(dp1291
g3
S'Ricky Martin'
p1292
sg5
I42
sg6
S'https://open.spotify.com/track/7DM4BPaS7uofFul3ywMe46'
p1293
sg8
S"Vente Pa' Ca"
p1294
ssS'0qYTZCo5Bwh1nsUFGZP3zn'
p1295
(dp1296
g3
S'Maluma'
p1297
sg5
I25
sg6
S'https://open.spotify.com/track/0qYTZCo5Bwh1nsUFGZP3zn'
p1298
sg8
S'Felices los 4'
p1299
ssS'5MFzQMkrl1FOOng9tq6R9r'
p1300
(dp1301
g3
S'Maroon 5'
p1302
sg5
I34
sg6
S'https://open.spotify.com/track/5MFzQMkrl1FOOng9tq6R9r'
p1303
sg8
S"Don't Wanna Know"
p1304
ssS'5kfg05FFAsnW4ikMqSfI3g'
p1305
(dp1306
g3
S'Callejeros'
p1307
sg5
I1
sg6
S'https://open.spotify.com/track/5kfg05FFAsnW4ikMqSfI3g'
p1308
sg8
S'Prohibido'
p1309
ssS'631PNbDV1ukHlwIosdPR30'
p1310
(dp1311
g3
S'aLee DJ'
p1312
sg5
I2
sg6
S'https://open.spotify.com/track/631PNbDV1ukHlwIosdPR30'
p1313
sg8
S'La Disco La Parte En Dos'
p1314
ssS'3oqWr0jDWNXxWufNogGREp'
p1315
(dp1316
g3
S'Gustavo Cerati'
p1317
sg5
I42
sg6
S'https://open.spotify.com/track/3oqWr0jDWNXxWufNogGREp'
p1318
sg8
S'Crimen'
p1319
ssS'4r3itKA9HEJo48RG65OEnt'
p1320
(dp1321
g3
S'J Balvin'
p1322
sg5
I4
sg6
S'https://open.spotify.com/track/4r3itKA9HEJo48RG65OEnt'
p1323
sg8
S'Pierde Los Modales'
p1324
ssS'5i50gKdLAjjIr7UxRT5IVy'
p1325
(dp1326
g3
S'Sebastian Yatra'
p1327
sg5
I35
sg6
S'https://open.spotify.com/track/5i50gKdLAjjIr7UxRT5IVy'
p1328
sg8
S'Alguien Robo'
p1329
ssS'7LFLJWIQFHsaDw5FOltT5Z'
p1330
(dp1331
g3
S'Xantos'
p1332
sg5
I12
sg6
S'https://open.spotify.com/track/7LFLJWIQFHsaDw5FOltT5Z'
p1333
sg8
S'Bailame despacio - Piso 21 Remix'
p1334
ssS'1WP1r7fuvRqZRnUaTi2I1Q'
p1335
(dp1336
g3
S'Shawn Mendes'
p1337
sg5
I1
sg6
S'https://open.spotify.com/track/1WP1r7fuvRqZRnUaTi2I1Q'
p1338
sg8
S'Stitches'
p1339
ssS'7dl4Nfi0EJsLNieDYQCFv1'
p1340
(dp1341
g3
S'Major Lazer'
p1342
sg5
I1
sg6
S'https://open.spotify.com/track/7dl4Nfi0EJsLNieDYQCFv1'
p1343
sg8
S'Buscando Huellas (feat. J Balvin & Sean Paul)'
p1344
ssS'1jYiIOC5d6soxkJP81fxq2'
p1345
(dp1346
g3
S'DJ Khaled'
p1347
sg5
I1
sg6
S'https://open.spotify.com/track/1jYiIOC5d6soxkJP81fxq2'
p1348
sg8
S"I'm the One"
p1349
ssS'0yyZN5ASdrYu0XYWFzfxUu'
p1350
(dp1351
g3
S'Jesse & Joy'
p1352
sg5
I7
sg6
S'https://open.spotify.com/track/0yyZN5ASdrYu0XYWFzfxUu'
p1353
sg8
S'3 A.M.'
p1354
ssS'4Kzk0koKwzCMiIx4rAqCZp'
p1355
(dp1356
g3
S'Marama'
p1357
sg5
I25
sg6
S'https://open.spotify.com/track/4Kzk0koKwzCMiIx4rAqCZp'
p1358
sg8
S'Lo Intentamos'
p1359
ssS'6p3yxt0uJJshAS3CT0znQg'
p1360
(dp1361
g3
S'Natalia Lafourcade'
p1362
sg5
I2
sg6
S'https://open.spotify.com/track/6p3yxt0uJJshAS3CT0znQg'
p1363
sg8
S'T\xc3\xba S\xc3\xad Sabes Quererme'
p1364
ssS'3dINUTtt8noTn16rHcpTTp'
p1365
(dp1366
g3
S'Natti Natasha'
p1367
sg5
I2
sg6
S'https://open.spotify.com/track/3dINUTtt8noTn16rHcpTTp'
p1368
sg8
S'Criminal'
p1369
ssS'1oNtIPC2XBWpE7A1x9YjQi'
p1370
(dp1371
g3
S'Yandel'
p1372
sg5
I2
sg6
S'https://open.spotify.com/track/1oNtIPC2XBWpE7A1x9YjQi'
p1373
sg8
S'Muy Personal'
p1374
ssS'0a9b4sUavOWgyc9jeScv7Y'
p1375
(dp1376
g3
S'Chyno Miranda'
p1377
sg5
I17
sg6
S'https://open.spotify.com/track/0a9b4sUavOWgyc9jeScv7Y'
p1378
sg8
S'Qu\xc3\xa9date Conmigo'
p1379
ssS'7zgqtptZvhf8GEmdsM2vp2'
p1380
(dp1381
g3
S'Taylor Swift'
p1382
sg5
I1
sg6
S'https://open.spotify.com/track/7zgqtptZvhf8GEmdsM2vp2'
p1383
sg8
S'...Ready For It?'
p1384
ssS'7sWdGtYvzlzuQRAoZ7fGeO'
p1385
(dp1386
g3
S'Arcangel'
p1387
sg5
I11
sg6
S'https://open.spotify.com/track/7sWdGtYvzlzuQRAoZ7fGeO'
p1388
sg8
S"Po' encima (feat. Bryant Myers)"
p1389
ssS'7jzpAD8q77nwEmSsqUeUjy'
p1390
(dp1391
g3
S'Reykon'
p1392
sg5
I23
sg6
S'https://open.spotify.com/track/7jzpAD8q77nwEmSsqUeUjy'
p1393
sg8
S'D\xc3\xa9jame te explico'
p1394
ssS'0eTU0Br9OK8LybsjrXl6gH'
p1395
(dp1396
g3
S'No Te Va Gustar'
p1397
sg5
I1
sg6
S'https://open.spotify.com/track/0eTU0Br9OK8LybsjrXl6gH'
p1398
sg8
S'Autodestructivo'
p1399
ssS'2C0KFbb4v9CNWR5c9jWcKC'
p1400
(dp1401
g3
S'Gorillaz'
p1402
sg5
I1
sg6
S'https://open.spotify.com/track/2C0KFbb4v9CNWR5c9jWcKC'
p1403
sg8
S'Andromeda (feat. DRAM)'
p1404
ssS'2FIm6YsSGL5acOqSuJDh5s'
p1405
(dp1406
g3
S'Arcangel'
p1407
sg5
I26
sg6
S'https://open.spotify.com/track/2FIm6YsSGL5acOqSuJDh5s'
p1408
sg8
S'Me Acostumbre (feat. Bad Bunny)'
p1409
ssS'13X0XdLMOdtbXVtAj2ox4h'
p1410
(dp1411
g3
S'Piso 21'
p1412
sg5
I25
sg6
S'https://open.spotify.com/track/13X0XdLMOdtbXVtAj2ox4h'
p1413
sg8
S'Bes\xc3\xa1ndote'
p1414
ssS'2xNZeeqmwMPVKnD7FSQfgt'
p1415
(dp1416
g3
S'Maluma'
p1417
sg5
I32
sg6
S'https://open.spotify.com/track/2xNZeeqmwMPVKnD7FSQfgt'
p1418
sg8
S'Sin Contrato - Remix'
p1419
ssS'19CAKZdXVNyZrfmF60RAj3'
p1420
(dp1421
g3
S'Romeo Santos'
p1422
sg5
I2
sg6
S'https://open.spotify.com/track/19CAKZdXVNyZrfmF60RAj3'
p1423
sg8
S'Imitadora'
p1424
ssS'3WM3XDNCzEsLvtp59D9oF7'
p1425
(dp1426
g3
S'Yandel'
p1427
sg5
I3
sg6
S'https://open.spotify.com/track/3WM3XDNCzEsLvtp59D9oF7'
p1428
sg8
S'S\xc3\xb3lo M\xc3\xada'
p1429
ssS'6r46lnXFbE9fr2d3KNaGbe'
p1430
(dp1431
g3
S'Romeo Santos'
p1432
sg5
I12
sg6
S'https://open.spotify.com/track/6r46lnXFbE9fr2d3KNaGbe'
p1433
sg8
S'Imitadora'
p1434
ssS'60a0Rd6pjrkxjPbaKzXjfq'
p1435
(dp1436
g3
S'Linkin Park'
p1437
sg5
I2
sg6
S'https://open.spotify.com/track/60a0Rd6pjrkxjPbaKzXjfq'
p1438
sg8
S'In The End'
p1439
ssS'1OAh8uOEOvTDqkKFsKksCi'
p1440
(dp1441
g3
S'DJ Khaled'
p1442
sg5
I17
sg6
S'https://open.spotify.com/track/1OAh8uOEOvTDqkKFsKksCi'
p1443
sg8
S'Wild Thoughts'
p1444
ssS'3gM8KetN3T4mQE4AO2vAHD'
p1445
(dp1446
g3
S'Juli\xc3\xa1n Serrano'
p1447
sg5
I16
sg6
S'https://open.spotify.com/track/3gM8KetN3T4mQE4AO2vAHD'
p1448
sg8
S'Vida Tranquila'
p1449
ssS'3VRk65lHSwqd90TAkQqhvB'
p1450
(dp1451
g3
S'Katy Perry'
p1452
sg5
I2
sg6
S'https://open.spotify.com/track/3VRk65lHSwqd90TAkQqhvB'
p1453
sg8
S'Swish Swish'
p1454
ssS'09S64DUkxIX9EwIaULu6yN'
p1455
(dp1456
g3
S'Maluma'
p1457
sg5
I33
sg6
S'https://open.spotify.com/track/09S64DUkxIX9EwIaULu6yN'
p1458
sg8
S'Sin Contrato'
p1459
ssS'1KTnaTJgCt0F3WwMNjL5T6'
p1460
(dp1461
g3
S'De La Calle'
p1462
sg5
I18
sg6
S'https://open.spotify.com/track/1KTnaTJgCt0F3WwMNjL5T6'
p1463
sg8
S'Puti Short'
p1464
ssS'25C5CowdsfXld2jJanbiex'
p1465
(dp1466
g3
S'Demi Lovato'
p1467
sg5
I11
sg6
S'https://open.spotify.com/track/25C5CowdsfXld2jJanbiex'
p1468
sg8
S'Sorry Not Sorry'
p1469
ssS'1rh4kDY9T4fHVDum8Foi5k'
p1470
(dp1471
g3
S'Gustavo Cerati'
p1472
sg5
I4
sg6
S'https://open.spotify.com/track/1rh4kDY9T4fHVDum8Foi5k'
p1473
sg8
S'Adi\xc3\xb3s'
p1474
ssS'13tDqkfOj8lETcYTWcAoWu'
p1475
(dp1476
g3
S'Pase Libre'
p1477
sg5
I1
sg6
S'https://open.spotify.com/track/13tDqkfOj8lETcYTWcAoWu'
p1478
sg8
S'#HEY!'
p1479
ssS'4sPmO7WMQUAf45kwMOtONw'
p1480
(dp1481
g3
S'Adele'
p1482
sg5
I2
sg6
S'https://open.spotify.com/track/4sPmO7WMQUAf45kwMOtONw'
p1483
sg8
S'Hello'
p1484
ssS'4kdpq7Ez7T2cn75Jem2PEv'
p1485
(dp1486
g3
S'Felix Gabriel'
p1487
sg5
I1
sg6
S'https://open.spotify.com/track/4kdpq7Ez7T2cn75Jem2PEv'
p1488
sg8
S'Otra Vez'
p1489
ssS'6BaCraQ9xeLYg4Sb9TBT2X'
p1490
(dp1491
g3
S'Calvin Harris'
p1492
sg5
I1
sg6
S'https://open.spotify.com/track/6BaCraQ9xeLYg4Sb9TBT2X'
p1493
sg8
S'Feels'
p1494
ssS'0RFFFGtPn6a58RHY3ccVYX'
p1495
(dp1496
g3
S'J Balvin'
p1497
sg5
I32
sg6
S'https://open.spotify.com/track/0RFFFGtPn6a58RHY3ccVYX'
p1498
sg8
S'Si Tu Novio Te Deja Sola'
p1499
ssS'5dH7o4TP3HYLvCjo4QAhhv'
p1500
(dp1501
g3
S'Sak Noel & Salvi'
p1502
sg5
I4
sg6
S'https://open.spotify.com/track/5dH7o4TP3HYLvCjo4QAhhv'
p1503
sg8
S'Trumpets'
p1504
ssS'3nUNwSYEUv9bmUc3de0Owv'
p1505
(dp1506
g3
S'Chayanne'
p1507
sg5
I19
sg6
S'https://open.spotify.com/track/3nUNwSYEUv9bmUc3de0Owv'
p1508
sg8
S'Qu\xc3\xa9 Me Has Hecho'
p1509
ssS'6mORGLOz79w6VsCRLWYYuK'
p1510
(dp1511
g3
S'Lord Huron'
p1512
sg5
I5
sg6
S'https://open.spotify.com/track/6mORGLOz79w6VsCRLWYYuK'
p1513
sg8
S'The Night We Met'
p1514
ssS'5aAx2yezTd8zXrkmtKl66Z'
p1515
(dp1516
g3
S'The Weeknd'
p1517
sg5
I32
sg6
S'https://open.spotify.com/track/5aAx2yezTd8zXrkmtKl66Z'
p1518
sg8
S'Starboy'
p1519
ssS'1y9mv4NMheIuIUKf9hsIsy'
p1520
(dp1521
g3
S'Pijama Party'
p1522
sg5
I27
sg6
S'https://open.spotify.com/track/1y9mv4NMheIuIUKf9hsIsy'
p1523
sg8
S'Aventura'
p1524
ssS'1SJtlNRJDeYHioymcvsqev'
p1525
(dp1526
g3
S'Camila Cabello'
p1527
sg5
I12
sg6
S'https://open.spotify.com/track/1SJtlNRJDeYHioymcvsqev'
p1528
sg8
S'Crying in the Club'
p1529
ssS'04DwTuZ2VBdJCCC5TROn7L'
p1530
(dp1531
g3
S'Martin Garrix'
p1532
sg5
I35
sg6
S'https://open.spotify.com/track/04DwTuZ2VBdJCCC5TROn7L'
p1533
sg8
S'In the Name of Love'
p1534
ssS'4M8dOdOKD7DnOP37PLdUuL'
p1535
(dp1536
g3
S'DJ Yayo'
p1537
sg5
I1
sg6
S'https://open.spotify.com/track/4M8dOdOKD7DnOP37PLdUuL'
p1538
sg8
S'No Te Hagas'
p1539
ssS'6VHdcVbiKLYYOcMbIqBcuK'
p1540
(dp1541
g3
S'Cali Y El Dandee'
p1542
sg5
I37
sg6
S'https://open.spotify.com/track/6VHdcVbiKLYYOcMbIqBcuK'
p1543
sg8
S'Lumbra'
p1544
ssS'7Ckhk1XW5NV2k4jpqtQNlz'
p1545
(dp1546
g3
S'Valentino'
p1547
sg5
I4
sg6
S'https://open.spotify.com/track/7Ckhk1XW5NV2k4jpqtQNlz'
p1548
sg8
S'Besame'
p1549
ssS'5hKjEpYrJIJs6uPl7zw6Y6'
p1550
(dp1551
g3
S'Jory Boy'
p1552
sg5
I30
sg6
S'https://open.spotify.com/track/5hKjEpYrJIJs6uPl7zw6Y6'
p1553
sg8
S'No Te Hagas'
p1554
ssS'3VSt7R9LHTomKGP1RhkvuT'
p1555
(dp1556
g3
S'Rombai'
p1557
sg5
I24
sg6
S'https://open.spotify.com/track/3VSt7R9LHTomKGP1RhkvuT'
p1558
sg8
S'Una y Otra Vez'
p1559
ssS'4VXejnj5WgM6H72ct2fSgQ'
p1560
(dp1561
g3
S'Reykon'
p1562
sg5
I15
sg6
S'https://open.spotify.com/track/4VXejnj5WgM6H72ct2fSgQ'
p1563
sg8
S'El Chisme'
p1564
ssS'6VRghJeP6I0w1KxkdWFfIh'
p1565
(dp1566
g3
S'Imagine Dragons'
p1567
sg5
I3
sg6
S'https://open.spotify.com/track/6VRghJeP6I0w1KxkdWFfIh'
p1568
sg8
S'Believer'
p1569
ssS'7LVHVU3tWfcxj5aiPFEW4Q'
p1570
(dp1571
g3
S'Coldplay'
p1572
sg5
I2
sg6
S'https://open.spotify.com/track/7LVHVU3tWfcxj5aiPFEW4Q'
p1573
sg8
S'Fix You'
p1574
ssS'6SznMYPQJHzr3IwsAHLId2'
p1575
(dp1576
g3
S'Ed Sheeran'
p1577
sg5
I1
sg6
S'https://open.spotify.com/track/6SznMYPQJHzr3IwsAHLId2'
p1578
sg8
S'Bibia Be Ye Ye'
p1579
ssS'5J1c3M4EldCfNxXwrwt8mT'
p1580
(dp1581
g3
S'Sebastian Yatra'
p1582
sg5
I42
sg6
S'https://open.spotify.com/track/5J1c3M4EldCfNxXwrwt8mT'
p1583
sg8
S'Traicionera'
p1584
ssS'5zSOVwaY3sVjnmLhuEfsuf'
p1585
(dp1586
g3
S'Ozuna'
p1587
sg5
I7
sg6
S'https://open.spotify.com/track/5zSOVwaY3sVjnmLhuEfsuf'
p1588
sg8
S'T\xc3\xba Foto'
p1589
ssS'2qHiGVZkLDpQr5MsBWspSD'
p1590
(dp1591
g3
S'Gigolo Y La Exce'
p1592
sg5
I1
sg6
S'https://open.spotify.com/track/2qHiGVZkLDpQr5MsBWspSD'
p1593
sg8
S'Te Robo Remix'
p1594
ssS'6NSMQFKgjpQb0KkjMDYIK0'
p1595
(dp1596
g3
S'Arcangel'
p1597
sg5
I38
sg6
S'https://open.spotify.com/track/6NSMQFKgjpQb0KkjMDYIK0'
p1598
sg8
S'Tu No Vive Asi (feat. Mambo Kingz & DJ Luian)'
p1599
ssS'0A2h9QjoPdbVwa9LFiijqM'
p1600
(dp1601
g3
S'Justin Quiles'
p1602
sg5
I23
sg6
S'https://open.spotify.com/track/0A2h9QjoPdbVwa9LFiijqM'
p1603
sg8
S'Si Ella Quisiera - Remix'
p1604
ssS'2LW4Zu7FcrwjWm3t5Rv3Oq'
p1605
(dp1606
g3
S'Ozuna'
p1607
sg5
I3
sg6
S'https://open.spotify.com/track/2LW4Zu7FcrwjWm3t5Rv3Oq'
p1608
sg8
S'El Farsante'
p1609
ssS'0B6GRS3vGtzu6w5BQXqWMq'
p1610
(dp1611
g3
S'Dasoul'
p1612
sg5
I12
sg6
S'https://open.spotify.com/track/0B6GRS3vGtzu6w5BQXqWMq'
p1613
sg8
S'Kung Fu'
p1614
ssS'5Ohxk2dO5COHF1krpoPigN'
p1615
(dp1616
g3
S'Harry Styles'
p1617
sg5
I27
sg6
S'https://open.spotify.com/track/5Ohxk2dO5COHF1krpoPigN'
p1618
sg8
S'Sign of the Times'
p1619
ssS'5Fim1gaXBgsiFfsQAfQSDS'
p1620
(dp1621
g3
S'Nicky Jam'
p1622
sg5
I28
sg6
S'https://open.spotify.com/track/5Fim1gaXBgsiFfsQAfQSDS'
p1623
sg8
S'Hasta el Amanecer'
p1624
ssS'6wHm04cn5HxK6pE2ITEdUS'
p1625
(dp1626
g3
S'Cosculluela'
p1627
sg5
I7
sg6
S'https://open.spotify.com/track/6wHm04cn5HxK6pE2ITEdUS'
p1628
sg8
S'Te Busco (feat. Nicky Jam)'
p1629
ssS'4mxWSdf71VFO52qFeY0fZt'
p1630
(dp1631
g3
S'Maroon 5'
p1632
sg5
I6
sg6
S'https://open.spotify.com/track/4mxWSdf71VFO52qFeY0fZt'
p1633
sg8
S'What Lovers Do (feat. SZA)'
p1634
ssS'4Hf7WnR761jpxPr5D46Bcd'
p1635
(dp1636
g3
S'Shawn Mendes'
p1637
sg5
I31
sg6
S'https://open.spotify.com/track/4Hf7WnR761jpxPr5D46Bcd'
p1638
sg8
S'Treat You Better'
p1639
ssS'3AEZUABDXNtecAOSC1qTfo'
p1640
(dp1641
g3
S'CNCO'
p1642
sg5
I42
sg6
S'https://open.spotify.com/track/3AEZUABDXNtecAOSC1qTfo'
p1643
sg8
S'Reggaet\xc3\xb3n Lento (Bailemos)'
p1644
ssS'5waUXf92wjHTSOmSQz02W4'
p1645
(dp1646
g3
S'Ozuna'
p1647
sg5
I3
sg6
S'https://open.spotify.com/track/5waUXf92wjHTSOmSQz02W4'
p1648
sg8
S'El Pecado'
p1649
ssS'1T45DsQ4HFLJgthyedAa8V'
p1650
(dp1651
g3
S'CNCO'
p1652
sg5
I8
sg6
S'https://open.spotify.com/track/1T45DsQ4HFLJgthyedAa8V'
p1653
sg8
S'Reggaet\xc3\xb3n Lento (Bailemos) - Remix'
p1654
ssS'7xHWNBFm6ObGEQPaUxHuKO'
p1655
(dp1656
g3
S'Sia'
p1657
sg5
I11
sg6
S'https://open.spotify.com/track/7xHWNBFm6ObGEQPaUxHuKO'
p1658
sg8
S'The Greatest'
p1659
ssS'6m2LNopVJKsvBB9l7Z1rwn'
p1660
(dp1661
g3
S'MC Kevinho'
p1662
sg5
I29
sg6
S'https://open.spotify.com/track/6m2LNopVJKsvBB9l7Z1rwn'
p1663
sg8
S'Olha a Explos\xc3\xa3o'
p1664
ssS'5knuzwU65gJK7IF5yJsuaW'
p1665
(dp1666
g3
S'Clean Bandit'
p1667
sg5
I42
sg6
S'https://open.spotify.com/track/5knuzwU65gJK7IF5yJsuaW'
p1668
sg8
S'Rockabye (feat. Sean Paul & Anne-Marie)'
p1669
ssS'14WWzenpaEgQZlqPq2nk4v'
p1670
(dp1671
g3
S'Rihanna'
p1672
sg5
I15
sg6
S'https://open.spotify.com/track/14WWzenpaEgQZlqPq2nk4v'
p1673
sg8
S'Work'
p1674
ssS'2HqlnQkOtLFLyQgOVYqWkU'
p1675
(dp1676
g3
S'Juanes'
p1677
sg5
I2
sg6
S'https://open.spotify.com/track/2HqlnQkOtLFLyQgOVYqWkU'
p1678
sg8
S'El Ratico'
p1679
ssS'6b8Be6ljOzmkOmFslEb23P'
p1680
(dp1681
g3
S'Bruno Mars'
p1682
sg5
I42
sg6
S'https://open.spotify.com/track/6b8Be6ljOzmkOmFslEb23P'
p1683
sg8
S'24K Magic'
p1684
ssS'2074PxLJhsulJcP0ivfUSj'
p1685
(dp1686
g3
S'Charly Garc\xc3\xada'
p1687
sg5
I1
sg6
S'https://open.spotify.com/track/2074PxLJhsulJcP0ivfUSj'
p1688
sg8
S'Ella Es Tan Kubrick'
p1689
ssS'04f13iELcsYpY2yeLiAcfq'
p1690
(dp1691
g3
S'Nicky Jam'
p1692
sg5
I15
sg6
S'https://open.spotify.com/track/04f13iELcsYpY2yeLiAcfq'
p1693
sg8
S'El Amante - Remix'
p1694
ssS'5mmeEKfSZZiggiRsNF5kot'
p1695
(dp1696
g3
S'Carlitos Rossy'
p1697
sg5
I7
sg6
S'https://open.spotify.com/track/5mmeEKfSZZiggiRsNF5kot'
p1698
sg8
S'Quien Dijo Amigos'
p1699
ssS'2CkHE54EH44Qj945ynQRw7'
p1700
(dp1701
g3
S'Man\xc3\xa1'
p1702
sg5
I15
sg6
S'https://open.spotify.com/track/2CkHE54EH44Qj945ynQRw7'
p1703
sg8
S'De Pies a Cabeza'
p1704
ssS'4u9Y4Z9i9VaAbBK7rW1Rha'
p1705
(dp1706
g3
S'Harry Styles'
p1707
sg5
I1
sg6
S'https://open.spotify.com/track/4u9Y4Z9i9VaAbBK7rW1Rha'
p1708
sg8
S'Meet Me in the Hallway'
p1709
ssS'2hmibAtdObO8F4tnhLENuQ'
p1710
(dp1711
g3
S'The Strokes'
p1712
sg5
I1
sg6
S'https://open.spotify.com/track/2hmibAtdObO8F4tnhLENuQ'
p1713
sg8
S'Reptilia'
p1714
ssS'3tWeAH4IYIrxV2jrUk9Ab3'
p1715
(dp1716
g3
S'J Alvarez'
p1717
sg5
I18
sg6
S'https://open.spotify.com/track/3tWeAH4IYIrxV2jrUk9Ab3'
p1718
sg8
S'Esa Boquita'
p1719
ssS'2OYXpaYf86alQxLNsv8zYD'
p1720
(dp1721
g3
S'Soda Stereo'
p1722
sg5
I13
sg6
S'https://open.spotify.com/track/2OYXpaYf86alQxLNsv8zYD'
p1723
sg8
S'En el S\xc3\xa9ptimo D\xc3\xada (SEP7IMO DIA)'
p1724
ssS'4IWAyPf1KMq7JCyGeCjTeH'
p1725
(dp1726
g3
S'Imagine Dragons'
p1727
sg5
I1
sg6
S'https://open.spotify.com/track/4IWAyPf1KMq7JCyGeCjTeH'
p1728
sg8
S'Whatever It Takes'
p1729
ssS'3pk19nKnFSl9E4X7gqq10A'
p1730
(dp1731
g3
S'Jory Boy'
p1732
sg5
I5
sg6
S'https://open.spotify.com/track/3pk19nKnFSl9E4X7gqq10A'
p1733
sg8
S'Desafio (feat. Maluma)'
p1734
ssS'5ut9BH3m0lH2kRfZc3YSKV'
p1735
(dp1736
g3
S'Dame 5'
p1737
sg5
I32
sg6
S'https://open.spotify.com/track/5ut9BH3m0lH2kRfZc3YSKV'
p1738
sg8
S'Baila Morena'
p1739
ssS'7F9vK8hNFMml4GtHsaXui6'
p1740
(dp1741
g3
S'Louis Tomlinson'
p1742
sg5
I12
sg6
S'https://open.spotify.com/track/7F9vK8hNFMml4GtHsaXui6'
p1743
sg8
S'Back to You (feat. Bebe Rexha & Digital Farm Animals)'
p1744
ssS'7q7XFO9av9VpNJSXKJwJxD'
p1745
(dp1746
g3
S'Las Pelotas'
p1747
sg5
I36
sg6
S'https://open.spotify.com/track/7q7XFO9av9VpNJSXKJwJxD'
p1748
sg8
S'Personalmente'
p1749
ssS'0oNpxZqwRZwVOD09fD0gzm'
p1750
(dp1751
g3
S'Dread Mar I'
p1752
sg5
I1
sg6
S'https://open.spotify.com/track/0oNpxZqwRZwVOD09fD0gzm'
p1753
sg8
S'Hoja en Blanco'
p1754
ssS'34mvkVskpYxe7CfkEs3XCY'
p1755
(dp1756
g3
S'Benjam\xc3\xadn Amadeo'
p1757
sg5
I2
sg6
S'https://open.spotify.com/track/34mvkVskpYxe7CfkEs3XCY'
p1758
sg8
S'Volar\xc3\xa9'
p1759
ssS'3voxukrHBXctzxdSbCycey'
p1760
(dp1761
g3
S'Los Totora'
p1762
sg5
I2
sg6
S'https://open.spotify.com/track/3voxukrHBXctzxdSbCycey'
p1763
sg8
S'M\xc3\xa1rchate ahora'
p1764
ssS'5OqaLWo9WbNPWDilrwNwzt'
p1765
(dp1766
g3
S'Marama'
p1767
sg5
I10
sg6
S'https://open.spotify.com/track/5OqaLWo9WbNPWDilrwNwzt'
p1768
sg8
S'Era Tranquila'
p1769
ssS'16rQTTMtbn0ODLyflr0O6Q'
p1770
(dp1771
g3
S'Abel Pintos'
p1772
sg5
I8
sg6
S'https://open.spotify.com/track/16rQTTMtbn0ODLyflr0O6Q'
p1773
sg8
S'P\xc3\xa1jaro Cantor'
p1774
ssS'0QsvXIfqM0zZoerQfsI9lm'
p1775
(dp1776
g3
S'The Chainsmokers'
p1777
sg5
I27
sg6
S'https://open.spotify.com/track/0QsvXIfqM0zZoerQfsI9lm'
p1778
sg8
S"Don't Let Me Down"
p1779
ssS'0YFoSD5VhoVrRbrnFERpVM'
p1780
(dp1781
g3
S'Rombai'
p1782
sg5
I10
sg6
S'https://open.spotify.com/track/0YFoSD5VhoVrRbrnFERpVM'
p1783
sg8
S'Yo te propongo'
p1784
ssS'6c9eHvNPci0RsK8Er0QI6v'
p1785
(dp1786
g3
S'TINI'
p1787
sg5
I1
sg6
S'https://open.spotify.com/track/6c9eHvNPci0RsK8Er0QI6v'
p1788
sg8
S'Ya No Hay Nadie Que Nos Pare'
p1789
ssS'56lBX2WHqfGuoeZxZvUnVj'
p1790
(dp1791
g3
S'Imagine Dragons'
p1792
sg5
I3
sg6
S'https://open.spotify.com/track/56lBX2WHqfGuoeZxZvUnVj'
p1793
sg8
S'Thunder'
p1794
ssS'5Jt4zdXTd9y1zxihiNYQI1'
p1795
(dp1796
g3
S'Farruko'
p1797
sg5
I4
sg6
S'https://open.spotify.com/track/5Jt4zdXTd9y1zxihiNYQI1'
p1798
sg8
S'Obsesionado'
p1799
ssS'1N9VY22tQUnD84bNWUsyKe'
p1800
(dp1801
g3
S'Ozuna'
p1802
sg5
I5
sg6
S'https://open.spotify.com/track/1N9VY22tQUnD84bNWUsyKe'
p1803
sg8
S'Una Flor'
p1804
ssS'2nLtzopw4rPReszdYBJU6h'
p1805
(dp1806
g3
S'Linkin Park'
p1807
sg5
I1
sg6
S'https://open.spotify.com/track/2nLtzopw4rPReszdYBJU6h'
p1808
sg8
S'Numb'
p1809
ssS'3uPLiBTUgz7wrGJ2mw1rzM'
p1810
(dp1811
g3
S'Bad Bunny'
p1812
sg5
I17
sg6
S'https://open.spotify.com/track/3uPLiBTUgz7wrGJ2mw1rzM'
p1813
sg8
S'Blockia'
p1814
ssS'0ZzVPCGdkpKcxAzMNDD5UZ'
p1815
(dp1816
g3
S'Marama'
p1817
sg5
I42
sg6
S'https://open.spotify.com/track/0ZzVPCGdkpKcxAzMNDD5UZ'
p1818
sg8
S'Pasarla Bien'
p1819
ssS'1qOLh0tI7trd1zdDKxYZTe'
p1820
(dp1821
g3
S'Hailee Steinfeld'
p1822
sg5
I8
sg6
S'https://open.spotify.com/track/1qOLh0tI7trd1zdDKxYZTe'
p1823
sg8
S'Starving'
p1824
ssS'2zogXcCqvKJwh3o67W3GG3'
p1825
(dp1826
g3
S'Attaque 77'
p1827
sg5
I2
sg6
S'https://open.spotify.com/track/2zogXcCqvKJwh3o67W3GG3'
p1828
sg8
S'Arrancacorazones'
p1829
ssS'0ofbQMrRDsUaVKq2mGLEAb'
p1830
(dp1831
g3
S'Camila Cabello'
p1832
sg5
I8
sg6
S'https://open.spotify.com/track/0ofbQMrRDsUaVKq2mGLEAb'
p1833
sg8
S'Havana'
p1834
ssS'6bLopGnirdrilrpdVB6Um1'
p1835
(dp1836
g3
S'Sia'
p1837
sg5
I4
sg6
S'https://open.spotify.com/track/6bLopGnirdrilrpdVB6Um1'
p1838
sg8
S'The Greatest'
p1839
ssS'1AkTW13ysu0AJrwuM6UY0I'
p1840
(dp1841
g3
S'Charly Black'
p1842
sg5
I42
sg6
S'https://open.spotify.com/track/1AkTW13ysu0AJrwuM6UY0I'
p1843
sg8
S'Gyal You A Party Animal - Remix'
p1844
ssS'2PgsOTPkF25VJ9cZmUjSKE'
p1845
(dp1846
g3
S'Pusho'
p1847
sg5
I5
sg6
S'https://open.spotify.com/track/2PgsOTPkF25VJ9cZmUjSKE'
p1848
sg8
S'La Realidad (Remix)'
p1849
ssS'1x5sYLZiu9r5E43kMlt9f8'
p1850
(dp1851
g3
S'Clean Bandit'
p1852
sg5
I22
sg6
S'https://open.spotify.com/track/1x5sYLZiu9r5E43kMlt9f8'
p1853
sg8
S'Symphony (feat. Zara Larsson)'
p1854
ssS'1vvNmPOiUuyCbgWmtc6yfm'
p1855
(dp1856
g3
S'Calvin Harris'
p1857
sg5
I28
sg6
S'https://open.spotify.com/track/1vvNmPOiUuyCbgWmtc6yfm'
p1858
sg8
S'My Way'
p1859
ssS'6Ol4gn2vFyn4dckha1fGaN'
p1860
(dp1861
g3
S'#TocoParaVos'
p1862
sg5
I1
sg6
S'https://open.spotify.com/track/6Ol4gn2vFyn4dckha1fGaN'
p1863
sg8
S'Una historia'
p1864
ssS'5k5HXMmbU31I6cMOWnMgSQ'
p1865
(dp1866
g3
S'Paulina Rubio'
p1867
sg5
I3
sg6
S'https://open.spotify.com/track/5k5HXMmbU31I6cMOWnMgSQ'
p1868
sg8
S'Me Quema'
p1869
ssS'5vZfgeDfNhlkKeJqjzSAmg'
p1870
(dp1871
g3
S'Alejandro Fernandez'
p1872
sg5
I23
sg6
S'https://open.spotify.com/track/5vZfgeDfNhlkKeJqjzSAmg'
p1873
sg8
S'S\xc3\xa9 Que Te Duele'
p1874
ssS'5u5MvmVtitax9R1Mxh3reC'
p1875
(dp1876
g3
S'Ozuna'
p1877
sg5
I7
sg6
S'https://open.spotify.com/track/5u5MvmVtitax9R1Mxh3reC'
p1878
sg8
S'Dile Que Tu Me Quieres'
p1879
ssS'5YzA563GXTuwQaRq24z1k5'
p1880
(dp1881
g3
S'Yandel'
p1882
sg5
I5
sg6
S'https://open.spotify.com/track/5YzA563GXTuwQaRq24z1k5'
p1883
sg8
S'Como Antes'
p1884
ssS'0afhq8XCExXpqazXczTSve'
p1885
(dp1886
g3
S'Ed Sheeran'
p1887
sg5
I24
sg6
S'https://open.spotify.com/track/0afhq8XCExXpqazXczTSve'
p1888
sg8
S'Galway Girl'
p1889
ssS'5TysCiZtv1HnSWcTcUFusI'
p1890
(dp1891
g3
S'Joey Montana'
p1892
sg5
I6
sg6
S'https://open.spotify.com/track/5TysCiZtv1HnSWcTcUFusI'
p1893
sg8
S'Suena El Dembow'
p1894
ssS'2aFiaMXmWsM3Vj72F9ksBl'
p1895
(dp1896
g3
S'DNCE'
p1897
sg5
I22
sg6
S'https://open.spotify.com/track/2aFiaMXmWsM3Vj72F9ksBl'
p1898
sg8
S'Cake By The Ocean'
p1899
ssS'4J1e3hbf0e5YUZjkxyJWD3'
p1900
(dp1901
g3
S'Anuel Aa'
p1902
sg5
I23
sg6
S'https://open.spotify.com/track/4J1e3hbf0e5YUZjkxyJWD3'
p1903
sg8
S'La \xc3\x9altima Vez'
p1904
ssS'4TZy1wLyHec06pwgFYDh1a'
p1905
(dp1906
g3
S'Shawn Mendes'
p1907
sg5
I8
sg6
S'https://open.spotify.com/track/4TZy1wLyHec06pwgFYDh1a'
p1908
sg8
S'Mercy'
p1909
ssS'047wZQy2qgOm5WKIeZ91LK'
p1910
(dp1911
g3
S'Olvidate!'
p1912
sg5
I1
sg6
S'https://open.spotify.com/track/047wZQy2qgOm5WKIeZ91LK'
p1913
sg8
S'Me Quedo Con Vos'
p1914
ssS'0d9wwtTyMxYzIFJs8CKbiz'
p1915
(dp1916
g3
S'Major Lazer'
p1917
sg5
I1
sg6
S'https://open.spotify.com/track/0d9wwtTyMxYzIFJs8CKbiz'
p1918
sg8
S'Know No Better (feat. Travis Scott & Quavo) - Bad Bunny Remix'
p1919
ssS'4sA0dk2U5tJiPYtx3ZrbIf'
p1920
(dp1921
g3
S'Jacob Forever'
p1922
sg5
I3
sg6
S'https://open.spotify.com/track/4sA0dk2U5tJiPYtx3ZrbIf'
p1923
sg8
S'Qui\xc3\xa9reme'
p1924
ssS'5HABnFSYvl6mTmg8nSdzHa'
p1925
(dp1926
g3
S'Zion & Lennox'
p1927
sg5
I33
sg6
S'https://open.spotify.com/track/5HABnFSYvl6mTmg8nSdzHa'
p1928
sg8
S'Mi Tesoro (feat. Nicky Jam)'
p1929
ssS'09QOedW1xozFDsXUI7jTeV'
p1930
(dp1931
g3
S'Ozuna'
p1932
sg5
I4
sg6
S'https://open.spotify.com/track/09QOedW1xozFDsXUI7jTeV'
p1933
sg8
S'Dile Que Tu Me Quieres Remix (feat. Yandel)'
p1934
ssS'4efQTJSX6Jca1hHZNi74Zd'
p1935
(dp1936
g3
S'Carlos Baute'
p1937
sg5
I25
sg6
S'https://open.spotify.com/track/4efQTJSX6Jca1hHZNi74Zd'
p1938
sg8
S'Amor y dolor'
p1939
ssS'2OxUtaKYeahAGNaBiahXtR'
p1940
(dp1941
g3
S'Farruko'
p1942
sg5
I29
sg6
S'https://open.spotify.com/track/2OxUtaKYeahAGNaBiahXtR'
p1943
sg8
S'Diabla - Official Remix'
p1944
ssS'1MpKZi1zTXpERKwxmOu1PH'
p1945
(dp1946
g3
S'Rombai'
p1947
sg5
I42
sg6
S'https://open.spotify.com/track/1MpKZi1zTXpERKwxmOu1PH'
p1948
sg8
S'Cuando Se Pone a Bailar'
p1949
ssS'6rQSrBHf7HlZjtcMZ4S4bO'
p1950
(dp1951
g3
S'J Balvin'
p1952
sg5
I42
sg6
S'https://open.spotify.com/track/6rQSrBHf7HlZjtcMZ4S4bO'
p1953
sg8
S'Safari'
p1954
ssS'1m69ELEgE6k5ZWsap40ozt'
p1955
(dp1956
g3
S'Ozuna'
p1957
sg5
I7
sg6
S'https://open.spotify.com/track/1m69ELEgE6k5ZWsap40ozt'
p1958
sg8
S'Se Prepar\xc3\xb3'
p1959
ssS'4tPL9PeVZY4c0jUPtSD5nx'
p1960
(dp1961
g3
S'Joey Montana'
p1962
sg5
I12
sg6
S'https://open.spotify.com/track/4tPL9PeVZY4c0jUPtSD5nx'
p1963
sg8
S'Picky'
p1964
ssS'3dnOHn0A5q3ny1LLLnSAty'
p1965
(dp1966
g3
S'Yandel'
p1967
sg5
I5
sg6
S'https://open.spotify.com/track/3dnOHn0A5q3ny1LLLnSAty'
p1968
sg8
S'Mi Religi\xc3\xb3n'
p1969
ssS'5EId1m4DNwTf3at31w8bPJ'
p1970
(dp1971
g3
S'Ozuna'
p1972
sg5
I7
sg6
S'https://open.spotify.com/track/5EId1m4DNwTf3at31w8bPJ'
p1973
sg8
S'El Farsante'
p1974
ssS'6PCUP3dWmTjcTtXY02oFdT'
p1975
(dp1976
g3
S'Ed Sheeran'
p1977
sg5
I26
sg6
S'https://open.spotify.com/track/6PCUP3dWmTjcTtXY02oFdT'
p1978
sg8
S'Castle on the Hill'
p1979
ssS'4CTjql34LKCJy5WOSgEhvA'
p1980
(dp1981
g3
S'Silvestre Dangond'
p1982
sg5
I7
sg6
S'https://open.spotify.com/track/4CTjql34LKCJy5WOSgEhvA'
p1983
sg8
S'Ya No Me Duele M\xc3\xa1s - Remix'
p1984
ssS'42QpgFFhu8SIKFK2dp0kUj'
p1985
(dp1986
g3
S'Wisin'
p1987
sg5
I1
sg6
S'https://open.spotify.com/track/42QpgFFhu8SIKFK2dp0kUj'
p1988
sg8
S'Vacaciones - Remix'
p1989
ssS'3nnDwYz3dEd4p2ESdpS1G0'
p1990
(dp1991
g3
S'Guasones'
p1992
sg5
I2
sg6
S'https://open.spotify.com/track/3nnDwYz3dEd4p2ESdpS1G0'
p1993
sg8
S'Reyes de la Noche'
p1994
ssS'7zpDy3s9gMgAS7e0cYjLpx'
p1995
(dp1996
g3
S'No Te Va Gustar'
p1997
sg5
I1
sg6
S'https://open.spotify.com/track/7zpDy3s9gMgAS7e0cYjLpx'
p1998
sg8
S'Para Cuando Me Muera'
p1999
ssS'2wgDAPgBhFA7pnIbm0YOhP'
p2000
(dp2001
g3
S'Bad Bunny'
p2002
sg5
I26
sg6
S'https://open.spotify.com/track/2wgDAPgBhFA7pnIbm0YOhP'
p2003
sg8
S'Me Mata'
p2004
ssS'2q3B7GLCEA4uYvuo2g5P82'
p2005
(dp2006
g3
S'Dame 5'
p2007
sg5
I39
sg6
S'https://open.spotify.com/track/2q3B7GLCEA4uYvuo2g5P82'
p2008
sg8
S'Piel a Piel'
p2009
ssS'104buTcnP2AsxqB7U1FIZ4'
p2010
(dp2011
g3
S'Linkin Park'
p2012
sg5
I1
sg6
S'https://open.spotify.com/track/104buTcnP2AsxqB7U1FIZ4'
p2013
sg8
S'Heavy (feat. Kiiara)'
p2014
ssS'7qGn9WweEDJw8KZwJqB1KN'
p2015
(dp2016
g3
S'Indio Solari y los Fundamentalistas del Aire Acondicionado'
p2017
sg5
I1
sg6
S'https://open.spotify.com/track/7qGn9WweEDJw8KZwJqB1KN'
p2018
sg8
S'El Tesoro de los Inocentes'
p2019
ssS'1PSBzsahR2AKwLJgx8ehBj'
p2020
(dp2021
g3
S'Machine Gun Kelly'
p2022
sg5
I8
sg6
S'https://open.spotify.com/track/1PSBzsahR2AKwLJgx8ehBj'
p2023
sg8
S'Bad Things (with Camila Cabello)'
p2024
ssS'5gFAT2DbEt4TOMXyAMEixG'
p2025
(dp2026
g3
S'Brytiago'
p2027
sg5
I13
sg6
S'https://open.spotify.com/track/5gFAT2DbEt4TOMXyAMEixG'
p2028
sg8
S'Netflixxx'
p2029
ssS'0sXvAOmXgjR2QUqLK1MltU'
p2030
(dp2031
g3
S'Carlos Vives'
p2032
sg5
I42
sg6
S'https://open.spotify.com/track/0sXvAOmXgjR2QUqLK1MltU'
p2033
sg8
S'La Bicicleta'
p2034
ssS'3m660poUr1chesgkkjQM7P'
p2035
(dp2036
g3
S'Demi Lovato'
p2037
sg5
I2
sg6
S'https://open.spotify.com/track/3m660poUr1chesgkkjQM7P'
p2038
sg8
S'Sorry Not Sorry'
p2039
ssS'5EnYT6F7wEcdege6mDHEfO'
p2040
(dp2041
g3
S'Drake'
p2042
sg5
I1
sg6
S'https://open.spotify.com/track/5EnYT6F7wEcdege6mDHEfO'
p2043
sg8
S'Signs'
p2044
ssS'05ZXXyeZFhZtA6DAP3Aw7x'
p2045
(dp2046
g3
S'Maite Perroni'
p2047
sg5
I18
sg6
S'https://open.spotify.com/track/05ZXXyeZFhZtA6DAP3Aw7x'
p2048
sg8
S'Loca (feat. Cali Y El Dandee)'
p2049
ssS'4C5ewaZ05vyXM23jFJdwd4'
p2050
(dp2051
g3
S'Halsey'
p2052
sg5
I1
sg6
S'https://open.spotify.com/track/4C5ewaZ05vyXM23jFJdwd4'
p2053
sg8
S'Strangers'
p2054
ssS'4SGCn3ZVXa7bepHuAdQvC9'
p2055
(dp2056
g3
S'La Beriso'
p2057
sg5
I42
sg6
S'https://open.spotify.com/track/4SGCn3ZVXa7bepHuAdQvC9'
p2058
sg8
S'Madrugada'
p2059
ssS'3ebXMykcMXOcLeJ9xZ17XH'
p2060
(dp2061
g3
S'Martin Garrix'
p2062
sg5
I28
sg6
S'https://open.spotify.com/track/3ebXMykcMXOcLeJ9xZ17XH'
p2063
sg8
S'Scared to Be Lonely'
p2064
ssS'5TA9pPL5ATRFcyI9rRBMQ0'
p2065
(dp2066
g3
S'Marama'
p2067
sg5
I2
sg6
S'https://open.spotify.com/track/5TA9pPL5ATRFcyI9rRBMQ0'
p2068
sg8
S'Te Amo y Odio'
p2069
ssS'19WjVVgXjdKXfLXoaDPwTM'
p2070
(dp2071
g3
S'Taylor Swift'
p2072
sg5
I1
sg6
S'https://open.spotify.com/track/19WjVVgXjdKXfLXoaDPwTM'
p2073
sg8
S'...Ready For It?'
p2074
ssS'0JoHqmlqE0W0i9prt6kcHR'
p2075
(dp2076
g3
S'Maluma'
p2077
sg5
I42
sg6
S'https://open.spotify.com/track/0JoHqmlqE0W0i9prt6kcHR'
p2078
sg8
S'Cuatro Babys'
p2079
ssS'3NWdNMJXQm2u1X4BFge4Ag'
p2080
(dp2081
g3
S'El Nene La amenaza'
p2082
sg5
I1
sg6
S'https://open.spotify.com/track/3NWdNMJXQm2u1X4BFge4Ag'
p2083
sg8
S'Lean'
p2084
ssS'02zBhKZIES8MMX9lvo1WKQ'
p2085
(dp2086
g3
S'Maxi Trusso'
p2087
sg5
I1
sg6
S'https://open.spotify.com/track/02zBhKZIES8MMX9lvo1WKQ'
p2088
sg8
S'Make You Mine'
p2089
ssS'2PlyHAHOb0kJrbfI1MFCYC'
p2090
(dp2091
g3
S'Abel Pintos'
p2092
sg5
I13
sg6
S'https://open.spotify.com/track/2PlyHAHOb0kJrbfI1MFCYC'
p2093
sg8
S'Como Te Extra\xc3\xb1o'
p2094
ssS'7pyEd6g5y7SYdKNgRtleEB'
p2095
(dp2096
g3
S'Yandel'
p2097
sg5
I14
sg6
S'https://open.spotify.com/track/7pyEd6g5y7SYdKNgRtleEB'
p2098
sg8
S'Nunca Me Olvides - Remix'
p2099
ssS'3PEgB3fkiojxms35ntsTgs'
p2100
(dp2101
g3
S'Axwell /\\ Ingrosso'
p2102
sg5
I8
sg6
S'https://open.spotify.com/track/3PEgB3fkiojxms35ntsTgs'
p2103
sg8
S'More Than You Know'
p2104
ssS'3LNZSTiwQYL7BnTfHvIOII'
p2105
(dp2106
g3
S'Rafaga'
p2107
sg5
I22
sg6
S'https://open.spotify.com/track/3LNZSTiwQYL7BnTfHvIOII'
p2108
sg8
S'Una Cerveza'
p2109
ssS'2yajAy8Va9VTk3yhF9B3ET'
p2110
(dp2111
g3
S'Pablo Albor\xc3\xa1n'
p2112
sg5
I3
sg6
S'https://open.spotify.com/track/2yajAy8Va9VTk3yhF9B3ET'
p2113
sg8
S'No vaya a ser'
p2114
ssS'3H179O48ynsu9q8LOnFQZY'
p2115
(dp2116
g3
S'Reik'
p2117
sg5
I31
sg6
S'https://open.spotify.com/track/3H179O48ynsu9q8LOnFQZY'
p2118
sg8
S'Qu\xc3\xa9 Gano Olvid\xc3\xa1ndote - Versi\xc3\xb3n Urbana'
p2119
ssS'1BygxKyZjq2xjQiFMkSFGp'
p2120
(dp2121
g3
S'Plan B'
p2122
sg5
I3
sg6
S'https://open.spotify.com/track/1BygxKyZjq2xjQiFMkSFGp'
p2123
sg8
S'Fan\xc3\xa1tica Sensual'
p2124
ssS'48yAM9xWBwT4Ac9G1y20rw'
p2125
(dp2126
g3
S'Yandel'
p2127
sg5
I4
sg6
S'https://open.spotify.com/track/48yAM9xWBwT4Ac9G1y20rw'
p2128
sg8
S'Expl\xc3\xadcale'
p2129
ssS'3rgjBiAMVGnxmsTDmUy8vb'
p2130
(dp2131
g3
S'Farruko'
p2132
sg5
I6
sg6
S'https://open.spotify.com/track/3rgjBiAMVGnxmsTDmUy8vb'
p2133
sg8
S'Krippy Kush'
p2134
ssS'3gEebOzxHpEwElicl1XBy0'
p2135
(dp2136
g3
S'Mano Arriba'
p2137
sg5
I42
sg6
S'https://open.spotify.com/track/3gEebOzxHpEwElicl1XBy0'
p2138
sg8
S'La Noche No Es para Dormir'
p2139
ssS'6041gM9Th1ViQcnzkIxnuv'
p2140
(dp2141
g3
S'Ozuna'
p2142
sg5
I42
sg6
S'https://open.spotify.com/track/6041gM9Th1ViQcnzkIxnuv'
p2143
sg8
S'Me Ama Me Odia'
p2144
ssS'0v1p6H03NUVHhOu3nXD7GC'
p2145
(dp2146
g3
S'Soda Stereo'
p2147
sg5
I1
sg6
S'https://open.spotify.com/track/0v1p6H03NUVHhOu3nXD7GC'
p2148
sg8
S'De M\xc3\xbasica Ligera (SEP7IMO DIA)'
p2149
ssS'0lJCqIx5BhZtf6QtYI2fbv'
p2150
(dp2151
g3
S'Daddy Yankee'
p2152
sg5
I2
sg6
S'https://open.spotify.com/track/0lJCqIx5BhZtf6QtYI2fbv'
p2153
sg8
S'Vuelve'
p2154
ssS'2LqIRA261mwY69KVA7Lw6L'
p2155
(dp2156
g3
S'Lali'
p2157
sg5
I4
sg6
S'https://open.spotify.com/track/2LqIRA261mwY69KVA7Lw6L'
p2158
sg8
S'Una Na'
p2159
ssS'2rizacJSyD9S1IQUxUxnsK'
p2160
(dp2161
g3
S'The Chainsmokers'
p2162
sg5
I5
sg6
S'https://open.spotify.com/track/2rizacJSyD9S1IQUxUxnsK'
p2163
sg8
S'All We Know'
p2164
ssS'6RsWqX8zABZLhZydXxEFOm'
p2165
(dp2166
g3
S'The Weeknd'
p2167
sg5
I1
sg6
S'https://open.spotify.com/track/6RsWqX8zABZLhZydXxEFOm'
p2168
sg8
S"Can't Feel My Face"
p2169
ssS'0tgVpDi06FyKpA1z0VMD4v'
p2170
(dp2171
g3
S'Ed Sheeran'
p2172
sg5
I32
sg6
S'https://open.spotify.com/track/0tgVpDi06FyKpA1z0VMD4v'
p2173
sg8
S'Perfect'
p2174
ssS'2Vdub5mY4lad7w64bFPUez'
p2175
(dp2176
g3
S'Pitbull'
p2177
sg5
I31
sg6
S'https://open.spotify.com/track/2Vdub5mY4lad7w64bFPUez'
p2178
sg8
S'Hey Ma (with Pitbull & J Balvin feat. Camila Cabello) - Spanish Version'
p2179
ssS'4PCVVIrUDldF5r7RXtOB5W'
p2180
(dp2181
g3
S'Rombai'
p2182
sg5
I2
sg6
S'https://open.spotify.com/track/4PCVVIrUDldF5r7RXtOB5W'
p2183
sg8
S'Curiosidad'
p2184
ssS'69uxyAqqPIsUyTO8txoP2M'
p2185
(dp2186
g3
S'Coldplay'
p2187
sg5
I6
sg6
S'https://open.spotify.com/track/69uxyAqqPIsUyTO8txoP2M'
p2188
sg8
S'Adventure Of A Lifetime'
p2189
ssS'72Q0FQQo32KJloivv5xge2'
p2190
(dp2191
g3
S'DJ Khaled'
p2192
sg5
I3
sg6
S'https://open.spotify.com/track/72Q0FQQo32KJloivv5xge2'
p2193
sg8
S"I'm the One"
p2194
ssS'1UqwQ9sQlpEzriYvYb2HBM'
p2195
(dp2196
g3
S'Los Turros'
p2197
sg5
I16
sg6
S'https://open.spotify.com/track/1UqwQ9sQlpEzriYvYb2HBM'
p2198
sg8
S'Tamo Activo'
p2199
ssS'5iOz59b6B51cmVxa6NxTux'
p2200
(dp2201
g3
S'Gonzo Viz\xc3\xa1n'
p2202
sg5
I1
sg6
S'https://open.spotify.com/track/5iOz59b6B51cmVxa6NxTux'
p2203
sg8
S'El Lavarropa'
p2204
ssS'3B54sVLJ402zGa6Xm4YGNe'
p2205
(dp2206
g3
S'French Montana'
p2207
sg5
I13
sg6
S'https://open.spotify.com/track/3B54sVLJ402zGa6Xm4YGNe'
p2208
sg8
S'Unforgettable'
p2209
ssS'2rb5MvYT7ZIxbKW5hfcHx8'
p2210
(dp2211
g3
S'J Balvin'
p2212
sg5
I15
sg6
S'https://open.spotify.com/track/2rb5MvYT7ZIxbKW5hfcHx8'
p2213
sg8
S'Mi Gente'
p2214
ssS'5SE57ljOIUJ1ybL9U6CuBH'
p2215
(dp2216
g3
S'BTS'
p2217
sg5
I2
sg6
S'https://open.spotify.com/track/5SE57ljOIUJ1ybL9U6CuBH'
p2218
sg8
S'DNA'
p2219
ssS'3FaqBbYj8arTCdhVABY8mB'
p2220
(dp2221
g3
S'Karol G'
p2222
sg5
I1
sg6
S'https://open.spotify.com/track/3FaqBbYj8arTCdhVABY8mB'
p2223
sg8
S'Ahora Me Llama - Remix'
p2224
ssS'1pWYnQIlqxTh5bxuPmTG4E'
p2225
(dp2226
g3
S'Thal\xc3\xada'
p2227
sg5
I42
sg6
S'https://open.spotify.com/track/1pWYnQIlqxTh5bxuPmTG4E'
p2228
sg8
S'Desde Esa Noche'
p2229
ssS'5ESAML4PZAbsiTK6OgRV2q'
p2230
(dp2231
g3
S'Justin Quiles'
p2232
sg5
I10
sg6
S'https://open.spotify.com/track/5ESAML4PZAbsiTK6OgRV2q'
p2233
sg8
S'Ego\xc3\xadsta'
p2234
ssS'7pueb0FHOYlKAJPXhVhwml'
p2235
(dp2236
g3
S'Alkilados'
p2237
sg5
I10
sg6
S'https://open.spotify.com/track/7pueb0FHOYlKAJPXhVhwml'
p2238
sg8
S'Me Gusta - Remix'
p2239
ssS'0tKcYR2II1VCQWT79i5NrW'
p2240
(dp2241
g3
S'Imagine Dragons'
p2242
sg5
I19
sg6
S'https://open.spotify.com/track/0tKcYR2II1VCQWT79i5NrW'
p2243
sg8
S'Thunder'
p2244
ssS'6gpcs5eMhJwax4mIfKDYQk'
p2245
(dp2246
g3
S'Calvin Harris'
p2247
sg5
I4
sg6
S'https://open.spotify.com/track/6gpcs5eMhJwax4mIfKDYQk'
p2248
sg8
S'Slide'
p2249
ssS'6DNtNfH8hXkqOX1sjqmI7p'
p2250
(dp2251
g3
S'Major Lazer'
p2252
sg5
I26
sg6
S'https://open.spotify.com/track/6DNtNfH8hXkqOX1sjqmI7p'
p2253
sg8
S'Cold Water (feat. Justin Bieber & M\xc3\x98)'
p2254
ssS'5NNlUMcOEOdoOIwwaWXv0k'
p2255
(dp2256
g3
S'Maroon 5'
p2257
sg5
I20
sg6
S'https://open.spotify.com/track/5NNlUMcOEOdoOIwwaWXv0k'
p2258
sg8
S'Cold'
p2259
ssS'5bcTCxgc7xVfSaMV3RuVke'
p2260
(dp2261
g3
S'Calvin Harris'
p2262
sg5
I16
sg6
S'https://open.spotify.com/track/5bcTCxgc7xVfSaMV3RuVke'
p2263
sg8
S'Feels'
p2264
ssS'1sXUWdKx03aP9Gmzft58rt'
p2265
(dp2266
g3
S'Julia Michaels'
p2267
sg5
I21
sg6
S'https://open.spotify.com/track/1sXUWdKx03aP9Gmzft58rt'
p2268
sg8
S'Issues'
p2269
ssS'3bVbQvGVIe4n24AzyXovXh'
p2270
(dp2271
g3
g162
sg5
I1
sg6
S'https://open.spotify.com/track/3bVbQvGVIe4n24AzyXovXh'
p2272
sg8
g162
ssS'27xe7DYBq1xD5LIfkIrpAj'
p2273
(dp2274
g3
S'Lali'
p2275
sg5
I4
sg6
S'https://open.spotify.com/track/27xe7DYBq1xD5LIfkIrpAj'
p2276
sg8
S'Ego'
p2277
ssS'14oOKFGuXu8DqvOe1W8vao'
p2278
(dp2279
g3
S'Katy Perry'
p2280
sg5
I2
sg6
S'https://open.spotify.com/track/14oOKFGuXu8DqvOe1W8vao'
p2281
sg8
S'Bon App\xc3\xa9tit'
p2282
ssS'3pMo77B4r1NwwIK78lO4xf'
p2283
(dp2284
g3
S'Ciro y los Persas'
p2285
sg5
I38
sg6
S'https://open.spotify.com/track/3pMo77B4r1NwwIK78lO4xf'
p2286
sg8
S'Me Gusta'
p2287
ssS'66gNNRsKkmECPQUrvpMQtS'
p2288
(dp2289
g3
S'DJ Jonathan'
p2290
sg5
I2
sg6
S'https://open.spotify.com/track/66gNNRsKkmECPQUrvpMQtS'
p2291
sg8
S'El Farsante'
p2292
ssS'6F9BrSf6kqJkV6Uyq589uj'
p2293
(dp2294
g3
S'Midel'
p2295
sg5
I5
sg6
S'https://open.spotify.com/track/6F9BrSf6kqJkV6Uyq589uj'
p2296
sg8
S'B.U.H.O (feat. Duki & Klave)'
p2297
ssS'1louJpMmzEicAn7lzDalPW'
p2298
(dp2299
g3
S'Cheat Codes'
p2300
sg5
I19
sg6
S'https://open.spotify.com/track/1louJpMmzEicAn7lzDalPW'
p2301
sg8
S'No Promises (feat. Demi Lovato)'
p2302
ssS'6TIU9Ehmi6dMzZK73Ym4yj'
p2303
(dp2304
g3
S'Ed Sheeran'
p2305
sg5
I1
sg6
S'https://open.spotify.com/track/6TIU9Ehmi6dMzZK73Ym4yj'
p2306
sg8
S'Save Myself'
p2307
ssS'2pJZ1v8HezrAoZ0Fhzby92'
p2308
(dp2309
g3
S'Ed Sheeran'
p2310
sg5
I3
sg6
S'https://open.spotify.com/track/2pJZ1v8HezrAoZ0Fhzby92'
p2311
sg8
S'What Do I Know?'
p2312
ssS'6S7CT8xrkOpDOXC4xjdhXt'
p2313
(dp2314
g3
S'Angela Torres'
p2315
sg5
I1
sg6
S'https://open.spotify.com/track/6S7CT8xrkOpDOXC4xjdhXt'
p2316
sg8
S'La vida rosa'
p2317
ssS'0KKkJNfGyhkQ5aFogxQAPU'
p2318
(dp2319
g3
S'Bruno Mars'
p2320
sg5
I35
sg6
S'https://open.spotify.com/track/0KKkJNfGyhkQ5aFogxQAPU'
p2321
sg8
S"That's What I Like"
p2322
ssS'2twUPIYOTqVivev47pf7bU'
p2323
(dp2324
g3
S'Ozuna'
p2325
sg5
I25
sg6
S'https://open.spotify.com/track/2twUPIYOTqVivev47pf7bU'
p2326
sg8
S'Te Vas'
p2327
ssS'494OU6M7NOf4ICYb4zWCf5'
p2328
(dp2329
g3
S'Maroon 5'
p2330
sg5
I6
sg6
S'https://open.spotify.com/track/494OU6M7NOf4ICYb4zWCf5'
p2331
sg8
S'Sugar'
p2332
ssS'1Slwb6dOYkBlWal1PGtnNg'
p2333
(dp2334
g3
S'Ed Sheeran'
p2335
sg5
I42
sg6
S'https://open.spotify.com/track/1Slwb6dOYkBlWal1PGtnNg'
p2336
sg8
S'Thinking Out Loud'
p2337
ssS'3VClLWqNn80Llv0PJOsKgr'
p2338
(dp2339
g3
S'Nacho'
p2340
sg5
I10
sg6
S'https://open.spotify.com/track/3VClLWqNn80Llv0PJOsKgr'
p2341
sg8
S'B\xc3\xa1ilame - Remix'
p2342
ssS'3kg9JvQe6QJFKUQCN1oIQz'
p2343
(dp2344
g3
S'Feid'
p2345
sg5
I9
sg6
S'https://open.spotify.com/track/3kg9JvQe6QJFKUQCN1oIQz'
p2346
sg8
S'Que Raro'
p2347
ssS'39KmBOGkD1ztCbVeo2uspA'
p2348
(dp2349
g3
S'Callejeros'
p2350
sg5
I3
sg6
S'https://open.spotify.com/track/39KmBOGkD1ztCbVeo2uspA'
p2351
sg8
S'Una Nueva Noche Fr\xc3\xada'
p2352
ssS'2habSXqcJGExM6JJyskY7O'
p2353
(dp2354
g3
S'Miley Cyrus'
p2355
sg5
I17
sg6
S'https://open.spotify.com/track/2habSXqcJGExM6JJyskY7O'
p2356
sg8
S'Malibu'
p2357
ssS'3pI6VigoXHkcL3VYLJfBhq'
p2358
(dp2359
g3
S'Ricky Martin'
p2360
sg5
I11
sg6
S'https://open.spotify.com/track/3pI6VigoXHkcL3VYLJfBhq'
p2361
sg8
S"Vente Pa' Ca - Urban Remix"
p2362
ssS'6i0V12jOa3mr6uu4WYhUBr'
p2363
(dp2364
g3
S'Twenty One Pilots'
p2365
sg5
I20
sg6
S'https://open.spotify.com/track/6i0V12jOa3mr6uu4WYhUBr'
p2366
sg8
S'Heathens'
p2367
ssS'0B7wvvmu9EISAwZnOpjhNI'
p2368
(dp2369
g3
S'Bruno Mars'
p2370
sg5
I5
sg6
S'https://open.spotify.com/track/0B7wvvmu9EISAwZnOpjhNI'
p2371
sg8
S'When I Was Your Man'
p2372
ssS'4XCQtUoRSh22Ep18ULmDnT'
p2373
(dp2374
g3
S'De La Ghetto'
p2375
sg5
I4
sg6
S'https://open.spotify.com/track/4XCQtUoRSh22Ep18ULmDnT'
p2376
sg8
S'La Formula (feat. Chris Jeday)'
p2377
ssS'0lPXFrKyl8HkdQ2E6NmNja'
p2378
(dp2379
g3
S'Reik'
p2380
sg5
I16
sg6
S'https://open.spotify.com/track/0lPXFrKyl8HkdQ2E6NmNja'
p2381
sg8
S'Ya Me Enter\xc3\xa9'
p2382
ssS'693iqPOQvhI7PobtR8CC8v'
p2383
(dp2384
g3
S'J Balvin'
p2385
sg5
I19
sg6
S'https://open.spotify.com/track/693iqPOQvhI7PobtR8CC8v'
p2386
sg8
S'Bonita'
p2387
ssS'05rJdH2MRLJ3sQoEUO78qs'
p2388
(dp2389
g3
S'Anitta'
p2390
sg5
I5
sg6
S'https://open.spotify.com/track/05rJdH2MRLJ3sQoEUO78qs'
p2391
sg8
S'Paradinha'
p2392
ssS'6fxVffaTuwjgEk5h9QyRjy'
p2393
(dp2394
g3
S'Ed Sheeran'
p2395
sg5
I42
sg6
S'https://open.spotify.com/track/6fxVffaTuwjgEk5h9QyRjy'
p2396
sg8
S'Photograph'
p2397
ssS'2kVHAQKVtczchKctctzbtK'
p2398
(dp2399
g3
S'Katy Perry'
p2400
sg5
I8
sg6
S'https://open.spotify.com/track/2kVHAQKVtczchKctctzbtK'
p2401
sg8
S'Swish Swish'
p2402
ssS'21lnmphofXWWeSSx0PEMjc'
p2403
(dp2404
g3
S'Bryant Myers'
p2405
sg5
I22
sg6
S'https://open.spotify.com/track/21lnmphofXWWeSSx0PEMjc'
p2406
sg8
S'Un Ratito Mas'
p2407
ssS'6kex4EBAj0WHXDKZMEJaaF'
p2408
(dp2409
g3
S'Jason Derulo'
p2410
sg5
I29
sg6
S'https://open.spotify.com/track/6kex4EBAj0WHXDKZMEJaaF'
p2411
sg8
S'Swalla (feat. Nicki Minaj & Ty Dolla $ign)'
p2412
ssS'0EPxmvsG1BY5td4aTOkWBF'
p2413
(dp2414
g3
S'MC G15'
p2415
sg5
I31
sg6
S'https://open.spotify.com/track/0EPxmvsG1BY5td4aTOkWBF'
p2416
sg8
S'Deu Onda'
p2417
ssS'79Bm3DTEYuQsDpUVHbSRsL'
p2418
(dp2419
g3
S'Sofia Reyes'
p2420
sg5
I14
sg6
S'https://open.spotify.com/track/79Bm3DTEYuQsDpUVHbSRsL'
p2421
sg8
S'Llegaste t\xc3\xba (feat. Reykon)'
p2422
ssS'0gbBzIqrECJOEPvQJIBFs5'
p2423
(dp2424
g3
S'Lorde'
p2425
sg5
I7
sg6
S'https://open.spotify.com/track/0gbBzIqrECJOEPvQJIBFs5'
p2426
sg8
S'Green Light'
p2427
ssS'02Io6R1p3g7HXae5QoOtxo'
p2428
(dp2429
g3
S'Soda Stereo'
p2430
sg5
I1
sg6
S'https://open.spotify.com/track/02Io6R1p3g7HXae5QoOtxo'
p2431
sg8
S'Signos (SEP7IMO DIA)'
p2432
ssS'6As0g0aBOtE30CcieMKjtd'
p2433
(dp2434
g3
S'No Te Va Gustar'
p2435
sg5
I1
sg6
S'https://open.spotify.com/track/6As0g0aBOtE30CcieMKjtd'
p2436
sg8
S'Y el Mundo Me Comi\xc3\xb3 a M\xc3\xad'
p2437
ssS'1YW369EbVyjpeLE3YbsjKQ'
p2438
(dp2439
g3
S'Robbie Williams'
p2440
sg5
I1
sg6
S'https://open.spotify.com/track/1YW369EbVyjpeLE3YbsjKQ'
p2441
sg8
S'Love My Life'
p2442
ssS'5lVxdKsJkQClhBLK7lfurE'
p2443
(dp2444
g3
S'Guasones'
p2445
sg5
I9
sg6
S'https://open.spotify.com/track/5lVxdKsJkQClhBLK7lfurE'
p2446
sg8
S'Tan Distintos'
p2447
ssS'4iPV0gcc8keTFl6qxqP73M'
p2448
(dp2449
g3
S'CNCO'
p2450
sg5
I34
sg6
S'https://open.spotify.com/track/4iPV0gcc8keTFl6qxqP73M'
p2451
sg8
S'Quisiera'
p2452
ssS'7KXjTSCq5nL1LoYtL7XAwS'
p2453
(dp2454
g3
S'Kendrick Lamar'
p2455
sg5
I11
sg6
S'https://open.spotify.com/track/7KXjTSCq5nL1LoYtL7XAwS'
p2456
sg8
S'HUMBLE.'
p2457
ssS'1J9WTzQ3ZU6sAUdhdkTOCn'
p2458
(dp2459
g3
S'El Apache Ness'
p2460
sg5
I2
sg6
S'https://open.spotify.com/track/1J9WTzQ3ZU6sAUdhdkTOCn'
p2461
sg8
S'Terremoto Pa Tu Cola'
p2462
ssS'65DBZofI0b79kfHTcWWDuU'
p2463
(dp2464
g3
S'Soda Stereo'
p2465
sg5
I32
sg6
S'https://open.spotify.com/track/65DBZofI0b79kfHTcWWDuU'
p2466
sg8
S'Tr\xc3\xa1tame Suavemente - Remasterizado 2007'
p2467
ssS'5MT96Zz0ymUJNm8obKZQr0'
p2468
(dp2469
g3
S'Bad Bunny'
p2470
sg5
I39
sg6
S'https://open.spotify.com/track/5MT96Zz0ymUJNm8obKZQr0'
p2471
sg8
S'Soy Peor'
p2472
ssS'0j8zA8KrITjLVoAm3H3X6u'
p2473
(dp2474
g3
S'aLee DJ'
p2475
sg5
I5
sg6
S'https://open.spotify.com/track/0j8zA8KrITjLVoAm3H3X6u'
p2476
sg8
S'Te Vas - Version Cumbia'
p2477
ssS'7BwJtE8KSbCQKOCTIAY3jX'
p2478
(dp2479
g3
S'Carlos Baute'
p2480
sg5
I40
sg6
S'https://open.spotify.com/track/7BwJtE8KSbCQKOCTIAY3jX'
p2481
sg8
S'Ando buscando'
p2482
ssS'0Szp49tpFasIjX04Mcsydp'
p2483
(dp2484
g3
S'Ozuna'
p2485
sg5
I17
sg6
S'https://open.spotify.com/track/0Szp49tpFasIjX04Mcsydp'
p2486
sg8
S'Tu Foto'
p2487
ssS'07GOnZWIiHWjLzUsaTv5yO'
p2488
(dp2489
g3
S'LOAN'
p2490
sg5
I32
sg6
S'https://open.spotify.com/track/07GOnZWIiHWjLzUsaTv5yO'
p2491
sg8
S'No Llores'
p2492
ssS'0n2bvWvMwr0gbjcuTm92eW'
p2493
(dp2494
g3
S'Lana Del Rey'
p2495
sg5
I1
sg6
S'https://open.spotify.com/track/0n2bvWvMwr0gbjcuTm92eW'
p2496
sg8
S'Love'
p2497
ssS'4C1opPFRPafp6yj4AJPBRB'
p2498
(dp2499
g3
S'Leslie Grace'
p2500
sg5
I1
sg6
S'https://open.spotify.com/track/4C1opPFRPafp6yj4AJPBRB'
p2501
sg8
S'D\xc3\xadganle'
p2502
ssS'3Lfiu5sZ4M4B6JaKMBc0FU'
p2503
(dp2504
g3
S'Ed Sheeran'
p2505
sg5
I3
sg6
S'https://open.spotify.com/track/3Lfiu5sZ4M4B6JaKMBc0FU'
p2506
sg8
S'Barcelona'
p2507
ssS'69bp2EbF7Q2rqc5N3ylezZ'
p2508
(dp2509
g3
S'Justin Bieber'
p2510
sg5
I19
sg6
S'https://open.spotify.com/track/69bp2EbF7Q2rqc5N3ylezZ'
p2511
sg8
S'Sorry'
p2512
ssS'2cnKEkpVUSV4wnjQiTWfH6'
p2513
(dp2514
g3
S'Wisin'
p2515
sg5
I29
sg6
S'https://open.spotify.com/track/2cnKEkpVUSV4wnjQiTWfH6'
p2516
sg8
S'Esc\xc3\xa1pate Conmigo'
p2517
ssS'6qDF4wWL49CAVbgT7yuHl8'
p2518
(dp2519
g3
S'J Balvin'
p2520
sg5
I38
sg6
S'https://open.spotify.com/track/6qDF4wWL49CAVbgT7yuHl8'
p2521
sg8
S'Sigo Extra\xc3\xb1\xc3\xa1ndote'
p2522
ssS'1RrLC61fYtdg4Umkwfn1bh'
p2523
(dp2524
g3
S'Oriana'
p2525
sg5
I6
sg6
S'https://open.spotify.com/track/1RrLC61fYtdg4Umkwfn1bh'
p2526
sg8
S'Love Me Down Easy'
p2527
ssS'4iLqG9SeJSnt0cSPICSjxv'
p2528
(dp2529
g3
S'Charlie Puth'
p2530
sg5
I24
sg6
S'https://open.spotify.com/track/4iLqG9SeJSnt0cSPICSjxv'
p2531
sg8
S'Attention'
p2532
ssS'15dnkAHcHC0vrIUlbiPiqU'
p2533
(dp2534
g3
S'Imagine Dragons'
p2535
sg5
I1
sg6
S'https://open.spotify.com/track/15dnkAHcHC0vrIUlbiPiqU'
p2536
sg8
S'I Don\xe2\x80\x99t Know Why'
p2537
ssS'6RUKPb4LETWmmr3iAEQktW'
p2538
(dp2539
g3
S'The Chainsmokers'
p2540
sg5
I33
sg6
S'https://open.spotify.com/track/6RUKPb4LETWmmr3iAEQktW'
p2541
sg8
S'Something Just Like This'
p2542
ssS'0MIcPSq9n2z5H8TAfEstri'
p2543
(dp2544
g3
S'Ozuna'
p2545
sg5
I6
sg6
S'https://open.spotify.com/track/0MIcPSq9n2z5H8TAfEstri'
p2546
sg8
S'Quiero Repetir'
p2547
ssS'733ybNEEEXHYxfk8sK6MRO'
p2548
(dp2549
g3
S'Chino & Nacho'
p2550
sg5
I3
sg6
S'https://open.spotify.com/track/733ybNEEEXHYxfk8sK6MRO'
p2551
sg8
S'Andas En Mi Cabeza - Remix'
p2552
ssS'7qCAVkHWZkF44OzOUKf8Cr'
p2553
(dp2554
g3
S'Nicky Jam'
p2555
sg5
I20
sg6
S'https://open.spotify.com/track/7qCAVkHWZkF44OzOUKf8Cr'
p2556
sg8
S'El Perd\xc3\xb3n'
p2557
ssS'1xznGGDReH1oQq0xzbwXa3'
p2558
(dp2559
g3
S'Drake'
p2560
sg5
I25
sg6
S'https://open.spotify.com/track/1xznGGDReH1oQq0xzbwXa3'
p2561
sg8
S'One Dance'
p2562
ssS'5GXAXm5YOmYT0kL5jHvYBt'
p2563
(dp2564
g3
S'The Weeknd'
p2565
sg5
I42
sg6
S'https://open.spotify.com/track/5GXAXm5YOmYT0kL5jHvYBt'
p2566
sg8
S'I Feel It Coming'
p2567
ssS'7gHs73wELdeycvS48JfIos'
p2568
(dp2569
g3
S'Alan Walker'
p2570
sg5
I20
sg6
S'https://open.spotify.com/track/7gHs73wELdeycvS48JfIos'
p2571
sg8
S'Faded'
p2572
ssS'51ChrwmUPDJvedPQnIU8Ls'
p2573
(dp2574
g3
S'Ed Sheeran'
p2575
sg5
I15
sg6
S'https://open.spotify.com/track/51ChrwmUPDJvedPQnIU8Ls'
p2576
sg8
S'Dive'
p2577
ssS'5KX51uLJYo1S1MmITG7lHD'
p2578
(dp2579
g3
S'Justin Quiles'
p2580
sg5
I12
sg6
S'https://open.spotify.com/track/5KX51uLJYo1S1MmITG7lHD'
p2581
sg8
S'Otra Copa (feat. Farruko)'
p2582
ssS'6jA8HL9i4QGzsj6fjoxp8Y'
p2583
(dp2584
g3
S'Martin Garrix'
p2585
sg5
I16
sg6
S'https://open.spotify.com/track/6jA8HL9i4QGzsj6fjoxp8Y'
p2586
sg8
S'There for You'
p2587
ssS'3Azo521e0Tacq8znJWaDQO'
p2588
(dp2589
g3
S'Las Pastillas del Abuelo'
p2590
sg5
I2
sg6
S'https://open.spotify.com/track/3Azo521e0Tacq8znJWaDQO'
p2591
sg8
S'Otra Vuelta de Tuerca'
p2592
ssS'42MoYJb42qprlpJU0OEhAT'
p2593
(dp2594
g3
S'Jencarlos'
p2595
sg5
I9
sg6
S'https://open.spotify.com/track/42MoYJb42qprlpJU0OEhAT'
p2596
sg8
S'Dure Dure'
p2597
ssS'1CUVN2kn7mW5FjkqXTR2W1'
p2598
(dp2599
g3
S'Jonas Blue'
p2600
sg5
I3
sg6
S'https://open.spotify.com/track/1CUVN2kn7mW5FjkqXTR2W1'
p2601
sg8
S'Perfect Strangers'
p2602
ssS'7nKBxz47S9SD79N086fuhn'
p2603
(dp2604
g3
S'Enrique Iglesias'
p2605
sg5
I33
sg6
S'https://open.spotify.com/track/7nKBxz47S9SD79N086fuhn'
p2606
sg8
S'SUBEME LA RADIO'
p2607
ssS'52qq2T7uXlpI7Kfb4otWNk'
p2608
(dp2609
g3
S'Charly Garc\xc3\xada'
p2610
sg5
I1
sg6
S'https://open.spotify.com/track/52qq2T7uXlpI7Kfb4otWNk'
p2611
sg8
S'La M\xc3\xa1quina de Ser Feliz'
p2612
ssS'3ibRxEv4KkcU9e259eyNJA'
p2613
(dp2614
g3
S'Major Lazer'
p2615
sg5
I7
sg6
S'https://open.spotify.com/track/3ibRxEv4KkcU9e259eyNJA'
p2616
sg8
S'Sua Cara (feat. Anitta & Pabllo Vittar)'
p2617
ssS'6PJ8FF6UR8FZXfEvpHkIVN'
p2618
(dp2619
g3
S'Ed Sheeran'
p2620
sg5
I5
sg6
S'https://open.spotify.com/track/6PJ8FF6UR8FZXfEvpHkIVN'
p2621
sg8
S'How Would You Feel (Paean)'
p2622
ssS'5ndfVSDyPq90jaIUhNPeby'
p2623
(dp2624
g3
S'Katy Perry'
p2625
sg5
I2
sg6
S'https://open.spotify.com/track/5ndfVSDyPq90jaIUhNPeby'
p2626
sg8
S'Chained To The Rhythm'
p2627
ssS'0mwPE0lPOgnWf2bo14xedJ'
p2628
(dp2629
g3
S'Juanes'
p2630
sg5
I23
sg6
S'https://open.spotify.com/track/0mwPE0lPOgnWf2bo14xedJ'
p2631
sg8
S'Fuego'
p2632
ssS'5uCax9HTNlzGybIStD3vDh'
p2633
(dp2634
g3
S'James Arthur'
p2635
sg5
I28
sg6
S'https://open.spotify.com/track/5uCax9HTNlzGybIStD3vDh'
p2636
sg8
S"Say You Won't Let Go"
p2637
ssS'7qiZfU4dY1lWllzX7mPBI3'
p2638
(dp2639
g3
S'Ed Sheeran'
p2640
sg5
I40
sg6
S'https://open.spotify.com/track/7qiZfU4dY1lWllzX7mPBI3'
p2641
sg8
S'Shape of You'
p2642
ssS'0wfbD5rAksdXUzRvMfM3x5'
p2643
(dp2644
g3
S'The Chainsmokers'
p2645
sg5
I5
sg6
S'https://open.spotify.com/track/0wfbD5rAksdXUzRvMfM3x5'
p2646
sg8
S'The One'
p2647
ssS'0Xry4aZncthPqpSjFhgsHl'
p2648
(dp2649
g3
S'Maxi Trusso'
p2650
sg5
I2
sg6
S'https://open.spotify.com/track/0Xry4aZncthPqpSjFhgsHl'
p2651
sg8
S'Taste Of Love'
p2652
ssS'6XOYVSmNDjKUNMXooU4s4z'
p2653
(dp2654
g3
S'OneRepublic'
p2655
sg5
I2
sg6
S'https://open.spotify.com/track/6XOYVSmNDjKUNMXooU4s4z'
p2656
sg8
S'No Vacancy'
p2657
ssS'3yHJs5NmQk2ROAWCfjniXV'
p2658
(dp2659
g3
S'Maluma'
p2660
sg5
I7
sg6
S'https://open.spotify.com/track/3yHJs5NmQk2ROAWCfjniXV'
p2661
sg8
S'Sin Contrato'
p2662
ssS'2jVJYU4X3aD8hlTco3MlsN'
p2663
(dp2664
g3
S'Brytiago'
p2665
sg5
I23
sg6
S'https://open.spotify.com/track/2jVJYU4X3aD8hlTco3MlsN'
p2666
sg8
S'Beb\xc3\xa9 - Remix'
p2667
ssS'1F2HXIJrE2Xn81OzT2zZvW'
p2668
(dp2669
g3
S'French Montana'
p2670
sg5
I4
sg6
S'https://open.spotify.com/track/1F2HXIJrE2Xn81OzT2zZvW'
p2671
sg8
S'Unforgettable'
p2672
ssS'5xMzazov0IHYllrc8U2K6F'
p2673
(dp2674
g3
S'Jennifer Lopez'
p2675
sg5
I14
sg6
S'https://open.spotify.com/track/5xMzazov0IHYllrc8U2K6F'
p2676
sg8
S'Ni T\xc3\xba Ni Yo'
p2677
ssS'78rIJddV4X0HkNAInEcYde'
p2678
(dp2679
g3
S'Starley'
p2680
sg5
I21
sg6
S'https://open.spotify.com/track/78rIJddV4X0HkNAInEcYde'
p2681
sg8
S'Call On Me - Ryan Riback Extended Remix'
p2682
ssS'0L7loeTIg6akW84aEQZpCT'
p2683
(dp2684
g3
S'Major Lazer'
p2685
sg5
I6
sg6
S'https://open.spotify.com/track/0L7loeTIg6akW84aEQZpCT'
p2686
sg8
S'Light It Up (feat. Nyla & Fuse ODG) - Remix'
p2687
ssS'0VjbN2rfs40mHQ5mZN9UCE'
p2688
(dp2689
g3
S'Paulina Rubio'
p2690
sg5
I1
sg6
S'https://open.spotify.com/track/0VjbN2rfs40mHQ5mZN9UCE'
p2691
sg8
S'Me Quema'
p2692
ssS'6DUdDIRgLqCGq1DwkNWQTN'
p2693
(dp2694
g3
S'Maluma'
p2695
sg5
I42
sg6
S'https://open.spotify.com/track/6DUdDIRgLqCGq1DwkNWQTN'
p2696
sg8
S'Borro Cassette'
p2697
ssS'167NczpNbRF7oWakJaY3Hh'
p2698
(dp2699
g3
S'Niall Horan'
p2700
sg5
I12
sg6
S'https://open.spotify.com/track/167NczpNbRF7oWakJaY3Hh'
p2701
sg8
S'Slow Hands'
p2702
ssS'1LszjjoVwDDZcWUQbzeDLG'
p2703
(dp2704
g3
S'Yandel'
p2705
sg5
I5
sg6
S'https://open.spotify.com/track/1LszjjoVwDDZcWUQbzeDLG'
p2706
sg8
S'Expl\xc3\xadcale'
p2707
ssS'5mey7CLLuFToM2P68Qu1gF'
p2708
(dp2709
g3
S'Chino & Nacho'
p2710
sg5
I42
sg6
S'https://open.spotify.com/track/5mey7CLLuFToM2P68Qu1gF'
p2711
sg8
S'Andas En Mi Cabeza'
p2712
ssS'3y5ahYM9zwyOCt3mieZ0PZ'
p2713
(dp2714
g3
S'Abel Pintos'
p2715
sg5
I23
sg6
S'https://open.spotify.com/track/3y5ahYM9zwyOCt3mieZ0PZ'
p2716
sg8
S'Oncemil'
p2717
ssS'32lm3769IRfcnrQV11LO4E'
p2718
(dp2719
g3
S'Enrique Iglesias'
p2720
sg5
I2
sg6
S'https://open.spotify.com/track/32lm3769IRfcnrQV11LO4E'
p2721
sg8
S'Bailando - Spanish Version'
p2722
ssS'3W9HjL7lmbYXL4kQ1kicH3'
p2723
(dp2724
g3
S'Agapornis'
p2725
sg5
I1
sg6
S'https://open.spotify.com/track/3W9HjL7lmbYXL4kQ1kicH3'
p2726
sg8
S'Dale Tu Amor'
p2727
ssS'35OC6rMxa8lJi8eDiUVShS'
p2728
(dp2729
g3
S'De La Ghetto'
p2730
sg5
I17
sg6
S'https://open.spotify.com/track/35OC6rMxa8lJi8eDiUVShS'
p2731
sg8
S'Ac\xc3\xa9rcate (feat. Nicky Jam) - Remix'
p2732
ssS'7yHEDfrJNd0zWOfXwydNH0'
p2733
(dp2734
g3
S'Ariana Grande'
p2735
sg5
I2
sg6
S'https://open.spotify.com/track/7yHEDfrJNd0zWOfXwydNH0'
p2736
sg8
S'Into You'
p2737
ssS'59iNA6gwthoTJ6IgpBGGHW'
p2738
(dp2739
g3
S'Sia'
p2740
sg5
I5
sg6
S'https://open.spotify.com/track/59iNA6gwthoTJ6IgpBGGHW'
p2741
sg8
S'Cheap Thrills Remix'
p2742
ssS'2naJy8SKJ27gj6ZhRPDKaz'
p2743
(dp2744
g3
S'Rvssian'
p2745
sg5
I10
sg6
S'https://open.spotify.com/track/2naJy8SKJ27gj6ZhRPDKaz'
p2746
sg8
S'Si Tu Lo Dejas'
p2747
ssS'1GTPOqKjHVcnOto4JwGTtF'
p2748
(dp2749
g3
S'Luciano Pereyra'
p2750
sg5
I3
sg6
S'https://open.spotify.com/track/1GTPOqKjHVcnOto4JwGTtF'
p2751
sg8
S'Es Mi Culpa'
p2752
ssS'46yA2K9FA0PaCbeWkezvFC'
p2753
(dp2754
g3
S'Callejeros'
p2755
sg5
I32
sg6
S'https://open.spotify.com/track/46yA2K9FA0PaCbeWkezvFC'
p2756
sg8
S'Rocanroles Sin Destino'
p2757
ssS'626rYyBfeAeleh1F5t4B70'
p2758
(dp2759
g3
S'Revol'
p2760
sg5
I36
sg6
S'https://open.spotify.com/track/626rYyBfeAeleh1F5t4B70'
p2761
sg8
S'Caile (feat. Zion & De La Ghetto)'
p2762
ssS'11KJSRSgaDxqydKYiD2Jew'
p2763
(dp2764
g3
S'Drake'
p2765
sg5
I2
sg6
S'https://open.spotify.com/track/11KJSRSgaDxqydKYiD2Jew'
p2766
sg8
S'Too Good'
p2767
ssS'3zoYkqS4y2BsGVShPL2nTE'
p2768
(dp2769
g3
S'CNCO'
p2770
sg5
I8
sg6
S'https://open.spotify.com/track/3zoYkqS4y2BsGVShPL2nTE'
p2771
sg8
S'Reggaet\xc3\xb3n Lento (Remix) [CNCO & Little Mix]'
p2772
ssS'2xt2piJx6jlFkjS77YiqpL'
p2773
(dp2774
g3
S'Audioslave'
p2775
sg5
I1
sg6
S'https://open.spotify.com/track/2xt2piJx6jlFkjS77YiqpL'
p2776
sg8
S'Like a Stone'
p2777
ssS'1yNyoWWWikbLhwIGWjZuDW'
p2778
(dp2779
g3
S'The Vamps'
p2780
sg5
I6
sg6
S'https://open.spotify.com/track/1yNyoWWWikbLhwIGWjZuDW'
p2781
sg8
S'All Night'
p2782
ssS'0BFgCEE7ozbyB1PpLpLyhM'
p2783
(dp2784
g3
S'Los Bonnitos'
p2785
sg5
I20
sg6
S'https://open.spotify.com/track/0BFgCEE7ozbyB1PpLpLyhM'
p2786
sg8
S'Tu Ritmo'
p2787
ssS'5L4iwTXzuuWcV0m0sEDrgj'
p2788
(dp2789
g3
S'Marka Akme'
p2790
sg5
I4
sg6
S'https://open.spotify.com/track/5L4iwTXzuuWcV0m0sEDrgj'
p2791
sg8
S'Linda'
p2792
ssS'3Dwq1oiOFys6Sxr5SslmXw'
p2793
(dp2794
g3
S'Harry Styles'
p2795
sg5
I1
sg6
S'https://open.spotify.com/track/3Dwq1oiOFys6Sxr5SslmXw'
p2796
sg8
S'Carolina'
p2797
ssS'1iEwyiSLAunPR6uouANE0O'
p2798
(dp2799
g3
S'Maluma'
p2800
sg5
I14
sg6
S'https://open.spotify.com/track/1iEwyiSLAunPR6uouANE0O'
p2801
sg8
S'El Perdedor'
p2802
ssS'4vb4mFvYsr2h6enhjJsq9Y'
p2803
(dp2804
g3
S'Adele'
p2805
sg5
I9
sg6
S'https://open.spotify.com/track/4vb4mFvYsr2h6enhjJsq9Y'
p2806
sg8
S'Water Under the Bridge'
p2807
ssS'17Fd6Yb7mSbinKG8LoWfFl'
p2808
(dp2809
g3
S'Mike Posner'
p2810
sg5
I30
sg6
S'https://open.spotify.com/track/17Fd6Yb7mSbinKG8LoWfFl'
p2811
sg8
S'I Took A Pill In Ibiza - Seeb Remix'
p2812
ssS'6Kk4fza1rX70tVY3ZZcsic'
p2813
(dp2814
g3
S'Dame 5'
p2815
sg5
I16
sg6
S'https://open.spotify.com/track/6Kk4fza1rX70tVY3ZZcsic'
p2816
sg8
S'Lejos'
p2817
ssS'0tGAPnTFwRJA6FZgYZ0BAe'
p2818
(dp2819
g3
S'CHANO'
p2820
sg5
I38
sg6
S'https://open.spotify.com/track/0tGAPnTFwRJA6FZgYZ0BAe'
p2821
sg8
S'Carnavalintro'
p2822
ssS'4tCtwWceOPWzenK2HAIJSb'
p2823
(dp2824
g3
S'Fifth Harmony'
p2825
sg5
I13
sg6
S'https://open.spotify.com/track/4tCtwWceOPWzenK2HAIJSb'
p2826
sg8
S'Work from Home'
p2827
ssS'5ZF3889W92eTBOROe0lPNN'
p2828
(dp2829
g3
S'Anuel Aa'
p2830
sg5
I17
sg6
S'https://open.spotify.com/track/5ZF3889W92eTBOROe0lPNN'
p2831
sg8
S'Ayer 2'
p2832
ssS'3hB5DgAiMAQ4DzYbsMq1IT'
p2833
(dp2834
g3
S'Justin Bieber'
p2835
sg5
I33
sg6
S'https://open.spotify.com/track/3hB5DgAiMAQ4DzYbsMq1IT'
p2836
sg8
S'Love Yourself'
p2837
ssS'08WLghN4UZFMGN532uvako'
p2838
(dp2839
g3
S'Miranda!'
p2840
sg5
I5
sg6
S'https://open.spotify.com/track/08WLghN4UZFMGN532uvako'
p2841
sg8
S'743'
p2842
ssS'7hydwXc3IVJIItIif6ZuLH'
p2843
(dp2844
g3
S'Ricardo Arjona'
p2845
sg5
I1
sg6
S'https://open.spotify.com/track/7hydwXc3IVJIItIif6ZuLH'
p2846
sg8
S'Ella'
p2847
ssS'3AJwUDP919kvQ9QcozQPxg'
p2848
(dp2849
g3
S'Coldplay'
p2850
sg5
I1
sg6
S'https://open.spotify.com/track/3AJwUDP919kvQ9QcozQPxg'
p2851
sg8
S'Yellow'
p2852
ssS'6ZvmnulA6jJY3lvveuCz77'
p2853
(dp2854
g3
S'CNCO'
p2855
sg5
I3
sg6
S'https://open.spotify.com/track/6ZvmnulA6jJY3lvveuCz77'
p2856
sg8
S'Tan F\xc3\xa1cil - Urban Remix'
p2857
ssS'0OMRAvrtLWE2TvcXorRiB9'
p2858
(dp2859
g3
S'Gente De Zona'
p2860
sg5
I39
sg6
S'https://open.spotify.com/track/0OMRAvrtLWE2TvcXorRiB9'
p2861
sg8
S'La Gozadera'
p2862
ssS'5tz69p7tJuGPeMGwNTxYuV'
p2863
(dp2864
g3
S'Logic'
p2865
sg5
I1
sg6
S'https://open.spotify.com/track/5tz69p7tJuGPeMGwNTxYuV'
p2866
sg8
S'1-800-273-8255'
p2867
ss.