(dp0
S'46jLy47W8rkf8rEX04gMKB'
p1
(dp2
S'artistName'
p3
S'OneRepublic'
p4
sS'weeksOnChart'
p5
I1
sS'track_href'
p6
S'https://open.spotify.com/track/46jLy47W8rkf8rEX04gMKB'
p7
sS'songName'
p8
S'Wherever I Go'
p9
ssS'0p6ZRPPmXONaxaqWVdBZmD'
p10
(dp11
g3
S'KC Rebell'
p12
sg5
I2
sg6
S'https://open.spotify.com/track/0p6ZRPPmXONaxaqWVdBZmD'
p13
sg8
S'Murcielago'
p14
ssS'728zbo72kOoYdGR3AhNsyF'
p15
(dp16
g3
S'The xx'
p17
sg5
I2
sg6
S'https://open.spotify.com/track/728zbo72kOoYdGR3AhNsyF'
p18
sg8
S'Say Something Loving'
p19
ssS'5vzUs08PB2TL7MAseJLS0h'
p20
(dp21
g3
S'Wanda'
p22
sg5
I1
sg6
S'https://open.spotify.com/track/5vzUs08PB2TL7MAseJLS0h'
p23
sg8
S'Einfacher Bua'
p24
ssS'0jdny0dhgjUwoIp5GkqEaA'
p25
(dp26
g3
S'Kesha'
p27
sg5
I5
sg6
S'https://open.spotify.com/track/0jdny0dhgjUwoIp5GkqEaA'
p28
sg8
S'Praying'
p29
ssS'0mel2N9Ws9r4yLQn5QE21Y'
p30
(dp31
g3
S'Sam Smith'
p32
sg5
I5
sg6
S'https://open.spotify.com/track/0mel2N9Ws9r4yLQn5QE21Y'
p33
sg8
S'Too Good At Goodbyes'
p34
ssS'3S2kxneiC4nGxEWGs1S2D5'
p35
(dp36
g3
S'SpongeBOZZ'
p37
sg5
I1
sg6
S'https://open.spotify.com/track/3S2kxneiC4nGxEWGs1S2D5'
p38
sg8
S'Started from the Bottom'
p39
ssS'1tdohH49HMAFjlp1QSo6j8'
p40
(dp41
g3
S'Pizzera & Jaus'
p42
sg5
I29
sg6
S'https://open.spotify.com/track/1tdohH49HMAFjlp1QSo6j8'
p43
sg8
S'Eine ins Leben'
p44
ssS'0prNGof3XqfTvNDxHonvdK'
p45
(dp46
g3
S'Alessia Cara'
p47
sg5
I24
sg6
S'https://open.spotify.com/track/0prNGof3XqfTvNDxHonvdK'
p48
sg8
S'Scars To Your Beautiful'
p49
ssS'5CXjevTAQIYO1Z0yyiOOno'
p50
(dp51
g3
S'Beginner'
p52
sg5
I1
sg6
S'https://open.spotify.com/track/5CXjevTAQIYO1Z0yyiOOno'
p53
sg8
S'Ahnma'
p54
ssS'1pJQAHpD51J7GYaFrrFO9S'
p55
(dp56
g3
S'The Chainsmokers'
p57
sg5
I1
sg6
S'https://open.spotify.com/track/1pJQAHpD51J7GYaFrrFO9S'
p58
sg8
S"Don't Say"
p59
ssS'6HUnnBwYZqcED1eQztxMBN'
p60
(dp61
g3
S'Martin Jensen'
p62
sg5
I42
sg6
S'https://open.spotify.com/track/6HUnnBwYZqcED1eQztxMBN'
p63
sg8
S'Solo Dance'
p64
ssS'2e6L8mAClebcUmNi1HkyyP'
p65
(dp66
g3
S'Marco Wagner'
p67
sg5
I3
sg6
S'https://open.spotify.com/track/2e6L8mAClebcUmNi1HkyyP'
p68
sg8
S'Boyfriends - Selecta Remix'
p69
ssS'0RYXEibxMami3QuT8kn4Iz'
p70
(dp71
g3
S'Macklemore'
p72
sg5
I6
sg6
S'https://open.spotify.com/track/0RYXEibxMami3QuT8kn4Iz'
p73
sg8
S'Marmalade (feat. Lil Yachty)'
p74
ssS'5L56aF7d720ZaytO5UMEtb'
p75
(dp76
g3
S'187 Strassenbande'
p77
sg5
I1
sg6
S'https://open.spotify.com/track/5L56aF7d720ZaytO5UMEtb'
p78
sg8
S'Mit den Jungz'
p79
ssS'2p9JxKmuRDnvPGNrQ2UM9i'
p80
(dp81
g3
S'Pizzera & Jaus'
p82
sg5
I14
sg6
S'https://open.spotify.com/track/2p9JxKmuRDnvPGNrQ2UM9i'
p83
sg8
S'Mama'
p84
ssS'3QWjljChcOMkRDYSzF33Qr'
p85
(dp86
g3
S'Kiiara'
p87
sg5
I19
sg6
S'https://open.spotify.com/track/3QWjljChcOMkRDYSzF33Qr'
p88
sg8
S'Whippin (feat. Felix Snow)'
p89
ssS'6HVZCQH3pb61ppx5Fs7ID1'
p90
(dp91
g3
S'Bilderbuch'
p92
sg5
I2
sg6
S'https://open.spotify.com/track/6HVZCQH3pb61ppx5Fs7ID1'
p93
sg8
S'I <3 Stress'
p94
ssS'0lLdorYw7lVrJydTINhWdI'
p95
(dp96
g3
S'Michael Bubl\xc3\xa9'
p97
sg5
I1
sg6
S'https://open.spotify.com/track/0lLdorYw7lVrJydTINhWdI'
p98
sg8
S"It's Beginning To Look A Lot Like Christmas"
p99
ssS'1OAh8uOEOvTDqkKFsKksCi'
p100
(dp101
g3
S'DJ Khaled'
p102
sg5
I17
sg6
S'https://open.spotify.com/track/1OAh8uOEOvTDqkKFsKksCi'
p103
sg8
S'Wild Thoughts'
p104
ssS'2aksifNn5ph8igDOkPBA02'
p105
(dp106
g3
S'Rihanna'
p107
sg5
I22
sg6
S'https://open.spotify.com/track/2aksifNn5ph8igDOkPBA02'
p108
sg8
S'Love On The Brain'
p109
ssS'6yf3MxEOScNBTYCHOAIiNQ'
p110
(dp111
g3
S'Jax Jones'
p112
sg5
I1
sg6
S'https://open.spotify.com/track/6yf3MxEOScNBTYCHOAIiNQ'
p113
sg8
S'Instruction (feat. Demi Lovato & Stefflon Don)'
p114
ssS'4b4KcovePX8Ke2cLIQTLM0'
p115
(dp116
g3
S'The Vamps'
p117
sg5
I13
sg6
S'https://open.spotify.com/track/4b4KcovePX8Ke2cLIQTLM0'
p118
sg8
S'All Night'
p119
ssS'7wGoVu4Dady5GV0Sv4UIsx'
p120
(dp121
g3
S'Post Malone'
p122
sg5
I1
sg6
S'https://open.spotify.com/track/7wGoVu4Dady5GV0Sv4UIsx'
p123
sg8
S'rockstar'
p124
ssS'0V9cosR5jWa4fr2koARmhD'
p125
(dp126
g3
S'ItaloBrothers'
p127
sg5
I5
sg6
S'https://open.spotify.com/track/0V9cosR5jWa4fr2koARmhD'
p128
sg8
S'Summer Air'
p129
ssS'7KcGEssn7BnJdTgildK5y0'
p130
(dp131
g3
S'Nicki Minaj'
p132
sg5
I1
sg6
S'https://open.spotify.com/track/7KcGEssn7BnJdTgildK5y0'
p133
sg8
S'No Frauds'
p134
ssS'1CnPYaKxTVb4LWOtiGOm0m'
p135
(dp136
g3
S'Jon Bellion'
p137
sg5
I38
sg6
S'https://open.spotify.com/track/1CnPYaKxTVb4LWOtiGOm0m'
p138
sg8
S'All Time Low'
p139
ssS'6mw02h3qbWmuq2bJCRjRAe'
p140
(dp141
g3
S'187 Strassenbande'
p142
sg5
I13
sg6
S'https://open.spotify.com/track/6mw02h3qbWmuq2bJCRjRAe'
p143
sg8
S'Million\xc3\xa4r'
p144
ssS'78caEl4OqEJtKkuF1q164K'
p145
(dp146
g3
S'Cro'
p147
sg5
I2
sg6
S'https://open.spotify.com/track/78caEl4OqEJtKkuF1q164K'
p148
sg8
S'noch da'
p149
ssS'6Pw3Gvw4wNMZfTYZa6IQal'
p150
(dp151
g3
S'Bebe Rexha'
p152
sg5
I2
sg6
S'https://open.spotify.com/track/6Pw3Gvw4wNMZfTYZa6IQal'
p153
sg8
S'The Way I Are (Dance With Somebody) [feat. Lil Wayne]'
p154
ssS'5TKIutymE7YA4mTcLa9eAQ'
p155
(dp156
g3
S'Ufo361'
p157
sg5
I7
sg6
S'https://open.spotify.com/track/5TKIutymE7YA4mTcLa9eAQ'
p158
sg8
S'F\xc3\xbcr die Gang'
p159
ssS'3oTNeTXw2gk2y6iLUrYPO9'
p160
(dp161
g3
S'Cro'
p162
sg5
I3
sg6
S'https://open.spotify.com/track/3oTNeTXw2gk2y6iLUrYPO9'
p163
sg8
S'tru'
p164
ssS'5MJP0TRQebWaV6KrXuwyfv'
p165
(dp166
g3
S'Band Aid 30'
p167
sg5
I1
sg6
S'https://open.spotify.com/track/5MJP0TRQebWaV6KrXuwyfv'
p168
sg8
S"Do They Know It's Christmas? - 2014"
p169
ssS'1wLQwg0mloy3yXjL0jPE0N'
p170
(dp171
g3
S'Foo Fighters'
p172
sg5
I1
sg6
S'https://open.spotify.com/track/1wLQwg0mloy3yXjL0jPE0N'
p173
sg8
S'Run'
p174
ssS'1nttRCHJ5kjtANu06AjiKu'
p175
(dp176
g3
S'Kush Kush'
p177
sg5
I1
sg6
S'https://open.spotify.com/track/1nttRCHJ5kjtANu06AjiKu'
p178
sg8
S'Fight Back with Love Tonight'
p179
ssS'6c0I7CfL9ziGZN8yYkLppP'
p180
(dp181
g3
S'Linkin Park'
p182
sg5
I1
sg6
S'https://open.spotify.com/track/6c0I7CfL9ziGZN8yYkLppP'
p183
sg8
S'Sharp Edges'
p184
ssS'2FRnf9qhLbvw8fu4IBXx78'
p185
(dp186
g3
S'Wham!'
p187
sg5
I1
sg6
S'https://open.spotify.com/track/2FRnf9qhLbvw8fu4IBXx78'
p188
sg8
S'Last Christmas'
p189
ssS'7tr2za8SQg2CI8EDgrdtNl'
p190
(dp191
g3
S'Calvin Harris'
p192
sg5
I21
sg6
S'https://open.spotify.com/track/7tr2za8SQg2CI8EDgrdtNl'
p193
sg8
S'Slide'
p194
ssS'3AgiRs3oxc2dFh0CPUHXJs'
p195
(dp196
g3
S'Cliff Richard'
p197
sg5
I1
sg6
S'https://open.spotify.com/track/3AgiRs3oxc2dFh0CPUHXJs'
p198
sg8
S'Mistletoe and Wine'
p199
ssS'2lFRw6rPXivo6kNmghePcK'
p200
(dp201
g3
S'Gryffin'
p202
sg5
I9
sg6
S'https://open.spotify.com/track/2lFRw6rPXivo6kNmghePcK'
p203
sg8
S'Whole Heart'
p204
ssS'7eINNUMHd6YAPldsUlCz9q'
p205
(dp206
g3
S'257ers'
p207
sg5
I11
sg6
S'https://open.spotify.com/track/7eINNUMHd6YAPldsUlCz9q'
p208
sg8
S'Holz'
p209
ssS'4pLwZjInHj3SimIyN9SnOz'
p210
(dp211
g3
S'Ariana Grande'
p212
sg5
I14
sg6
S'https://open.spotify.com/track/4pLwZjInHj3SimIyN9SnOz'
p213
sg8
S'Side To Side'
p214
ssS'5WJBABuzrSRSVYnw3j7dqR'
p215
(dp216
g3
S'Capital Bra'
p217
sg5
I2
sg6
S'https://open.spotify.com/track/5WJBABuzrSRSVYnw3j7dqR'
p218
sg8
S'KUKU SLS'
p219
ssS'6C7RJEIUDqKkJRZVWdkfkH'
p220
(dp221
g3
S'Kanye West'
p222
sg5
I1
sg6
S'https://open.spotify.com/track/6C7RJEIUDqKkJRZVWdkfkH'
p223
sg8
S'Stronger'
p224
ssS'6jgmmtRaR1s5WpV6zHFYyo'
p225
(dp226
g3
S'RAF Camora'
p227
sg5
I3
sg6
S'https://open.spotify.com/track/6jgmmtRaR1s5WpV6zHFYyo'
p228
sg8
S'Teflon'
p229
ssS'3E2Zh20GDCR9B1EYjfXWyv'
p230
(dp231
g3
S'AJR'
p232
sg5
I40
sg6
S'https://open.spotify.com/track/3E2Zh20GDCR9B1EYjfXWyv'
p233
sg8
S'Weak'
p234
ssS'2Gl0FzuLxflY6nPifJp5Dr'
p235
(dp236
g3
S'Kygo'
p237
sg5
I24
sg6
S'https://open.spotify.com/track/2Gl0FzuLxflY6nPifJp5Dr'
p238
sg8
S'First Time'
p239
ssS'6Z0XvbeGzalpzS7qcAK5mX'
p240
(dp241
g3
S'KC Rebell'
p242
sg5
I1
sg6
S'https://open.spotify.com/track/6Z0XvbeGzalpzS7qcAK5mX'
p243
sg8
S'Outta Control (feat. Hamza)'
p244
ssS'3rJiFJImuDB1FvC1RXdth6'
p245
(dp246
g3
S'Kollegah'
p247
sg5
I2
sg6
S'https://open.spotify.com/track/3rJiFJImuDB1FvC1RXdth6'
p248
sg8
S'Legacy'
p249
ssS'5YCqzqb6yN6TsMOHb4FSVw'
p250
(dp251
g3
S'Kristian Kostov'
p252
sg5
I1
sg6
S'https://open.spotify.com/track/5YCqzqb6yN6TsMOHb4FSVw'
p253
sg8
S'Beautiful Mess'
p254
ssS'34isqXjbTstbYwl2MfdzDq'
p255
(dp256
g3
S'Linkin Park'
p257
sg5
I1
sg6
S'https://open.spotify.com/track/34isqXjbTstbYwl2MfdzDq'
p258
sg8
S'Sorry for Now'
p259
ssS'4vbJFkIF8TFCOwqZRI5C2Q'
p260
(dp261
g3
S'Bushido'
p262
sg5
I2
sg6
S'https://open.spotify.com/track/4vbJFkIF8TFCOwqZRI5C2Q'
p263
sg8
S'CCNDNA'
p264
ssS'4Km5HrUvYTaSUfiSGPJeQR'
p265
(dp266
g3
S'Migos'
p267
sg5
I20
sg6
S'https://open.spotify.com/track/4Km5HrUvYTaSUfiSGPJeQR'
p268
sg8
S'Bad and Boujee (feat. Lil Uzi Vert)'
p269
ssS'2RttW7RAu5nOAfq6YFvApB'
p270
(dp271
g3
S'Ed Sheeran'
p272
sg5
I24
sg6
S'https://open.spotify.com/track/2RttW7RAu5nOAfq6YFvApB'
p273
sg8
S'Happier'
p274
ssS'26haJjtanhamtf25RXH0MO'
p275
(dp276
g3
S'Martin Solveig'
p277
sg5
I1
sg6
S'https://open.spotify.com/track/26haJjtanhamtf25RXH0MO'
p278
sg8
S'All Stars'
p279
ssS'5LYQSNHZxEA880URXFHg6h'
p280
(dp281
g3
S'Lana Del Rey'
p282
sg5
I3
sg6
S'https://open.spotify.com/track/5LYQSNHZxEA880URXFHg6h'
p283
sg8
S'Lust for Life (with The Weeknd)'
p284
ssS'3EmmCZoqpWOTY1g2GBwJoR'
p285
(dp286
g3
S'Steve Aoki'
p287
sg5
I34
sg6
S'https://open.spotify.com/track/3EmmCZoqpWOTY1g2GBwJoR'
p288
sg8
S'Just Hold On'
p289
ssS'3Htz83JjUVxDnhQ8MPknnt'
p290
(dp291
g3
S'Neele Ternes'
p292
sg5
I1
sg6
S'https://open.spotify.com/track/3Htz83JjUVxDnhQ8MPknnt'
p293
sg8
S'Dad - #heimkommen'
p294
ssS'63JtyRFsZqi6Rf61T48YRJ'
p295
(dp296
g3
S'Capital Bra'
p297
sg5
I13
sg6
S'https://open.spotify.com/track/63JtyRFsZqi6Rf61T48YRJ'
p298
sg8
S'Nur noch Gucci'
p299
ssS'6Zosz8w6CmdGMZM6p4JlbQ'
p300
(dp301
g3
S'Danny Ocean'
p302
sg5
I2
sg6
S'https://open.spotify.com/track/6Zosz8w6CmdGMZM6p4JlbQ'
p303
sg8
S'Me Reh\xc3\xbaso'
p304
ssS'5PCS7feLWXvEsp5s5fSpXe'
p305
(dp306
g3
S'Dean Martin'
p307
sg5
I1
sg6
S'https://open.spotify.com/track/5PCS7feLWXvEsp5s5fSpXe'
p308
sg8
S"I'll Be Home for Christmas"
p309
ssS'3YQUpKTmtgPJf8u6ooi9KA'
p310
(dp311
g3
S'Elton John'
p312
sg5
I1
sg6
S'https://open.spotify.com/track/3YQUpKTmtgPJf8u6ooi9KA'
p313
sg8
S'Step Into Christmas'
p314
ssS'5V3mdRI2yQxbSsJGDPc5lD'
p315
(dp316
g3
S'System Of A Down'
p317
sg5
I1
sg6
S'https://open.spotify.com/track/5V3mdRI2yQxbSsJGDPc5lD'
p318
sg8
S'Chop Suey!'
p319
ssS'0gbBzIqrECJOEPvQJIBFs5'
p320
(dp321
g3
S'Lorde'
p322
sg5
I17
sg6
S'https://open.spotify.com/track/0gbBzIqrECJOEPvQJIBFs5'
p323
sg8
S'Green Light'
p324
ssS'1jfMSBBjW1Dle3tFbYD4vH'
p325
(dp326
g3
S'Pizzera & Jaus'
p327
sg5
I6
sg6
S'https://open.spotify.com/track/1jfMSBBjW1Dle3tFbYD4vH'
p328
sg8
S'mama'
p329
ssS'3823DOqLpaYkxDiBrjznTp'
p330
(dp331
g3
S'RAF Camora'
p332
sg5
I3
sg6
S'https://open.spotify.com/track/3823DOqLpaYkxDiBrjznTp'
p333
sg8
S'Money'
p334
ssS'24QLjRdXiJdhuzzaXg9mqK'
p335
(dp336
g3
S'Azet'
p337
sg5
I1
sg6
S'https://open.spotify.com/track/24QLjRdXiJdhuzzaXg9mqK'
p338
sg8
S'Patte flie\xc3\x9ft'
p339
ssS'6fTsxhIosAU6zXTAhSaemI'
p340
(dp341
g3
S'ALMA'
p342
sg5
I22
sg6
S'https://open.spotify.com/track/6fTsxhIosAU6zXTAhSaemI'
p343
sg8
S'Chasing Highs'
p344
ssS'0z0islLRHRDnx4Cy7Zu3Ru'
p345
(dp346
g3
S'RAF Camora'
p347
sg5
I2
sg6
S'https://open.spotify.com/track/0z0islLRHRDnx4Cy7Zu3Ru'
p348
sg8
S'Luft'
p349
ssS'1JMbkocM2ki8iLehOSgAho'
p350
(dp351
g3
S'Falco'
p352
sg5
I1
sg6
S'https://open.spotify.com/track/1JMbkocM2ki8iLehOSgAho'
p353
sg8
S'Der Kommissar'
p354
ssS'7nEWnNn1mz68ufoHwSWzDi'
p355
(dp356
g3
S'Savas'
p357
sg5
I1
sg6
S'https://open.spotify.com/track/7nEWnNn1mz68ufoHwSWzDi'
p358
sg8
S'Haste nich gesehen'
p359
ssS'4iYRa2btalAzPZoSYfROqF'
p360
(dp361
g3
S'Kendrick Lamar'
p362
sg5
I2
sg6
S'https://open.spotify.com/track/4iYRa2btalAzPZoSYfROqF'
p363
sg8
S'XXX. FEAT. U2.'
p364
ssS'4xlrALxuaCf9yZBHJeTSG6'
p365
(dp366
g3
S'Jonas Blue'
p367
sg5
I8
sg6
S'https://open.spotify.com/track/4xlrALxuaCf9yZBHJeTSG6'
p368
sg8
S'Mama'
p369
ssS'3RXkboS74UYzN14xTqzPyY'
p370
(dp371
g3
S''
p372
sg5
I1
sg6
S'https://open.spotify.com/track/3RXkboS74UYzN14xTqzPyY'
p373
sg8
g372
ssS'00vk0sEfb6mr2ehwSw0Uhn'
p374
(dp375
g3
S'Imany'
p376
sg5
I9
sg6
S'https://open.spotify.com/track/00vk0sEfb6mr2ehwSw0Uhn'
p377
sg8
S"Don't Be So Shy - Filatov & Karas Remix"
p378
ssS'4w5lLpNddC9X05bBxddqFT'
p379
(dp380
g3
S'187 Strassenbande'
p381
sg5
I2
sg6
S'https://open.spotify.com/track/4w5lLpNddC9X05bBxddqFT'
p382
sg8
S'Ballermann'
p383
ssS'1bovaccI49Bqbu6TfU8zbL'
p384
(dp385
g3
S'RAF Camora'
p386
sg5
I3
sg6
S'https://open.spotify.com/track/1bovaccI49Bqbu6TfU8zbL'
p387
sg8
S'Augenblick'
p388
ssS'3KIojVo2dIYpClKTlAiLjA'
p389
(dp390
g3
S'Zuna'
p391
sg5
I1
sg6
S'https://open.spotify.com/track/3KIojVo2dIYpClKTlAiLjA'
p392
sg8
S'Czech Republic'
p393
ssS'7L673Cv2lzQJkG4eyqjG0Q'
p394
(dp395
g3
S'Hurts'
p396
sg5
I1
sg6
S'https://open.spotify.com/track/7L673Cv2lzQJkG4eyqjG0Q'
p397
sg8
S"All I Want for Christmas Is New Year's Day"
p398
ssS'1hy6kKvsPbv7VTcllCuATC'
p399
(dp400
g3
S'Meghan Trainor'
p401
sg5
I1
sg6
S'https://open.spotify.com/track/1hy6kKvsPbv7VTcllCuATC'
p402
sg8
S"I'll Be Home"
p403
ssS'20H2Hd5AkUcRjB4yL3UQtJ'
p404
(dp405
g3
S'Fifth Harmony'
p406
sg5
I1
sg6
S'https://open.spotify.com/track/20H2Hd5AkUcRjB4yL3UQtJ'
p407
sg8
S'Down'
p408
ssS'000xQL6tZNLJzIrtIgxqSl'
p409
(dp410
g3
S'ZAYN'
p411
sg5
I10
sg6
S'https://open.spotify.com/track/000xQL6tZNLJzIrtIgxqSl'
p412
sg8
S'Still Got Time'
p413
ssS'52okn5MNA47tk87PeZJLEL'
p414
(dp415
g3
S'NF'
p416
sg5
I1
sg6
S'https://open.spotify.com/track/52okn5MNA47tk87PeZJLEL'
p417
sg8
S'Let You Down'
p418
ssS'1D3ODoXHBLpdxolZRHWV1j'
p419
(dp420
g3
S'Jonas Blue'
p421
sg5
I22
sg6
S'https://open.spotify.com/track/1D3ODoXHBLpdxolZRHWV1j'
p422
sg8
S'By Your Side'
p423
ssS'0iyrGs4yXc2lWQCqCgCx0C'
p424
(dp425
g3
S'The Drifters'
p426
sg5
I1
sg6
S'https://open.spotify.com/track/0iyrGs4yXc2lWQCqCgCx0C'
p427
sg8
S'White Christmas'
p428
ssS'6ZyLo7sln0QFP7YXqgXCU8'
p429
(dp430
g3
S'Nimo'
p431
sg5
I17
sg6
S'https://open.spotify.com/track/6ZyLo7sln0QFP7YXqgXCU8'
p432
sg8
S'Wie Falco'
p433
ssS'5c4tB0saSkNHX5CyDosuF7'
p434
(dp435
g3
S'Burak Yeter'
p436
sg5
I2
sg6
S'https://open.spotify.com/track/5c4tB0saSkNHX5CyDosuF7'
p437
sg8
S'Tuesday'
p438
ssS'5uCBFrZFgbN3LTKlGDwCbi'
p439
(dp440
g3
S'DAT ADAM'
p441
sg5
I1
sg6
S'https://open.spotify.com/track/5uCBFrZFgbN3LTKlGDwCbi'
p442
sg8
S'JAWS'
p443
ssS'0KKkJNfGyhkQ5aFogxQAPU'
p444
(dp445
g3
S'Bruno Mars'
p446
sg5
I27
sg6
S'https://open.spotify.com/track/0KKkJNfGyhkQ5aFogxQAPU'
p447
sg8
S"That's What I Like"
p448
ssS'1bA2ZK7CFxEMnyn1dWP2jp'
p449
(dp450
g3
S'Bakermat'
p451
sg5
I9
sg6
S'https://open.spotify.com/track/1bA2ZK7CFxEMnyn1dWP2jp'
p452
sg8
S'Baby'
p453
ssS'042x9bsUBWW2fJgJ6fUh61'
p454
(dp455
g3
S'DVBBS'
p456
sg5
I13
sg6
S'https://open.spotify.com/track/042x9bsUBWW2fJgJ6fUh61'
p457
sg8
S'Not Going Home'
p458
ssS'5UCsGZSezdlGA1bY3QMgXG'
p459
(dp460
g3
S'The xx'
p461
sg5
I1
sg6
S'https://open.spotify.com/track/5UCsGZSezdlGA1bY3QMgXG'
p462
sg8
S'Performance'
p463
ssS'6yxQYuItvkkjEDGvORwzeD'
p464
(dp465
g3
S'Stereoact'
p466
sg5
I3
sg6
S'https://open.spotify.com/track/6yxQYuItvkkjEDGvORwzeD'
p467
sg8
S'Nummer Eins'
p468
ssS'7m9OqQk4RVRkw9JJdeAw96'
p469
(dp470
g3
S'XXXTENTACION'
p471
sg5
I7
sg6
S'https://open.spotify.com/track/7m9OqQk4RVRkw9JJdeAw96'
p472
sg8
S'Jocelyn Flores'
p473
ssS'5o4yGlG0PfeVUa6ClIyOxq'
p474
(dp475
g3
S'Charli XCX'
p476
sg5
I2
sg6
S'https://open.spotify.com/track/5o4yGlG0PfeVUa6ClIyOxq'
p477
sg8
S'Boys'
p478
ssS'5MvNv9iRYd0dr5gTMeqAWM'
p479
(dp480
g3
S'Falco'
p481
sg5
I1
sg6
S'https://open.spotify.com/track/5MvNv9iRYd0dr5gTMeqAWM'
p482
sg8
S'Jeanny'
p483
ssS'0NyOeqzqjVM9j7IuWp2oJ6'
p484
(dp485
g3
S'Gryffin'
p486
sg5
I8
sg6
S'https://open.spotify.com/track/0NyOeqzqjVM9j7IuWp2oJ6'
p487
sg8
S'Feel Good (feat. Daya)'
p488
ssS'0Nhu3zSYbEz32IYiobV75e'
p489
(dp490
g3
S'Halsey'
p491
sg5
I10
sg6
S'https://open.spotify.com/track/0Nhu3zSYbEz32IYiobV75e'
p492
sg8
S'Now Or Never'
p493
ssS'3zJw3rugfpVrmBeDDnUYzy'
p494
(dp495
g3
S'John Lennon'
p496
sg5
I1
sg6
S'https://open.spotify.com/track/3zJw3rugfpVrmBeDDnUYzy'
p497
sg8
S'Happy Xmas (War Is Over) - 2010 Digital Remaster'
p498
ssS'1a5Yu5L18qNxVhXx38njON'
p499
(dp500
g3
S'Alok'
p501
sg5
I24
sg6
S'https://open.spotify.com/track/1a5Yu5L18qNxVhXx38njON'
p502
sg8
S'Hear Me Now'
p503
ssS'1Eck97uRMlprKOOJN9oO1E'
p504
(dp505
g3
S'G-Eazy'
p506
sg5
I21
sg6
S'https://open.spotify.com/track/1Eck97uRMlprKOOJN9oO1E'
p507
sg8
S'Good Life (with G-Eazy & Kehlani)'
p508
ssS'7ARveOiD31w2Nq0n5FsSf8'
p509
(dp510
g3
S'Lorde'
p511
sg5
I1
sg6
S'https://open.spotify.com/track/7ARveOiD31w2Nq0n5FsSf8'
p512
sg8
S'Perfect Places'
p513
ssS'2ekn2ttSfGqwhhate0LSR0'
p514
(dp515
g3
S'Dua Lipa'
p516
sg5
I13
sg6
S'https://open.spotify.com/track/2ekn2ttSfGqwhhate0LSR0'
p517
sg8
S'New Rules'
p518
ssS'0y1QJc3SJVPKJ1OvFmFqe6'
p519
(dp520
g3
S'Kaleo'
p521
sg5
I27
sg6
S'https://open.spotify.com/track/0y1QJc3SJVPKJ1OvFmFqe6'
p522
sg8
S'Way Down We Go'
p523
ssS'5WEqjIUHkwZ5h3DSE7F9bM'
p524
(dp525
g3
S'Avicii'
p526
sg5
I1
sg6
S'https://open.spotify.com/track/5WEqjIUHkwZ5h3DSE7F9bM'
p527
sg8
S'Friend Of Mine (feat. Vargas & Lagola)'
p528
ssS'2dfqS3MRtbLZSZA1IL8xY5'
p529
(dp530
g3
S'Drake'
p531
sg5
I1
sg6
S'https://open.spotify.com/track/2dfqS3MRtbLZSZA1IL8xY5'
p532
sg8
S'Skepta Interlude'
p533
ssS'1sCxVKWImDZSZKvG0U9B23'
p534
(dp535
g3
S'Selena Gomez'
p536
sg5
I14
sg6
S'https://open.spotify.com/track/1sCxVKWImDZSZKvG0U9B23'
p537
sg8
S'Bad Liar'
p538
ssS'6jmngk8Fwup05JZ6kgXEGX'
p539
(dp540
g3
S'Imagine Dragons'
p541
sg5
I2
sg6
S'https://open.spotify.com/track/6jmngk8Fwup05JZ6kgXEGX'
p542
sg8
S'Walking The Wire'
p543
ssS'5kRPPEWFJIMox5qIkQkiz5'
p544
(dp545
g3
S'Harry Styles'
p546
sg5
I5
sg6
S'https://open.spotify.com/track/5kRPPEWFJIMox5qIkQkiz5'
p547
sg8
S'Sweet Creature'
p548
ssS'2uSLx5uwRIhiA3sJJraNqX'
p549
(dp550
g3
S'Maroon 5'
p551
sg5
I1
sg6
S'https://open.spotify.com/track/2uSLx5uwRIhiA3sJJraNqX'
p552
sg8
S'Help Me Out (with Julia Michaels)'
p553
ssS'6V9kwssTrwkKT72imgowj9'
p554
(dp555
g3
S'The Chainsmokers'
p556
sg5
I1
sg6
S'https://open.spotify.com/track/6V9kwssTrwkKT72imgowj9'
p557
sg8
S'My Type'
p558
ssS'0ADG9OgdVTL7fgREP75BrZ'
p559
(dp560
g3
S'Zara Larsson'
p561
sg5
I6
sg6
S'https://open.spotify.com/track/0ADG9OgdVTL7fgREP75BrZ'
p562
sg8
S"Ain't My Fault"
p563
ssS'5T8zcAE83vyffJ9JUzkZYx'
p564
(dp565
g3
S'Kay One'
p566
sg5
I5
sg6
S'https://open.spotify.com/track/5T8zcAE83vyffJ9JUzkZYx'
p567
sg8
S'Louis Louis'
p568
ssS'0gmbgwZ8iqyMPmXefof8Yf'
p569
(dp570
g3
S'Nickelback'
p571
sg5
I2
sg6
S'https://open.spotify.com/track/0gmbgwZ8iqyMPmXefof8Yf'
p572
sg8
S'How You Remind Me - LP Mix'
p573
ssS'0RCSckg7PFBBfwG73ydbOG'
p574
(dp575
g3
S'KC Rebell'
p576
sg5
I17
sg6
S'https://open.spotify.com/track/0RCSckg7PFBBfwG73ydbOG'
p577
sg8
S'Nicht jetzt'
p578
ssS'7G7xvFVMNFpCo3c3CF6km8'
p579
(dp580
g3
S'Capo'
p581
sg5
I3
sg6
S'https://open.spotify.com/track/7G7xvFVMNFpCo3c3CF6km8'
p582
sg8
S'Alles auf Rot'
p583
ssS'3xZAsF5FS5WgT4UDFXYJxx'
p584
(dp585
g3
S'Capital Bra'
p586
sg5
I2
sg6
S'https://open.spotify.com/track/3xZAsF5FS5WgT4UDFXYJxx'
p587
sg8
S'Na Na Na'
p588
ssS'2pXySkZUGu0rdLH1bAvSLS'
p589
(dp590
g3
S'RAF Camora'
p591
sg5
I1
sg6
S'https://open.spotify.com/track/2pXySkZUGu0rdLH1bAvSLS'
p592
sg8
S'Primo'
p593
ssS'7vAXN57IQ0sj049wZGIboE'
p594
(dp595
g3
S'Imagine Dragons'
p596
sg5
I1
sg6
S'https://open.spotify.com/track/7vAXN57IQ0sj049wZGIboE'
p597
sg8
S'Rise Up'
p598
ssS'3bexRhE1syNajyDcA7u4L3'
p599
(dp600
g3
S'Rod Stewart'
p601
sg5
I1
sg6
S'https://open.spotify.com/track/3bexRhE1syNajyDcA7u4L3'
p602
sg8
S'Santa Claus Is Coming To Town'
p603
ssS'3TRFq09DUgYj1mug6RRqJW'
p604
(dp605
g3
S'Luke Christopher'
p606
sg5
I30
sg6
S'https://open.spotify.com/track/3TRFq09DUgYj1mug6RRqJW'
p607
sg8
S'Lot to Learn'
p608
ssS'6s2wpWPFPAgKg2LXxi1Oee'
p609
(dp610
g3
S'Bruce Springsteen'
p611
sg5
I1
sg6
S'https://open.spotify.com/track/6s2wpWPFPAgKg2LXxi1Oee'
p612
sg8
S"Santa Claus Is Comin' to Town - Single Version"
p613
ssS'6O6M7pJLABmfBRoGZMu76Y'
p614
(dp615
g3
S'The Chainsmokers'
p616
sg5
I6
sg6
S'https://open.spotify.com/track/6O6M7pJLABmfBRoGZMu76Y'
p617
sg8
S'Roses'
p618
ssS'2snxaiyLUcVhqG4TscA7UE'
p619
(dp620
g3
S'Wanda'
p621
sg5
I1
sg6
S'https://open.spotify.com/track/2snxaiyLUcVhqG4TscA7UE'
p622
sg8
S'Caf\xc3\xa9 Kreisky'
p623
ssS'1rIKgCH4H52lrvDcz50hS8'
p624
(dp625
g3
S'Zara Larsson'
p626
sg5
I6
sg6
S'https://open.spotify.com/track/1rIKgCH4H52lrvDcz50hS8'
p627
sg8
S'Lush Life'
p628
ssS'76gUmNLXGQVOsGhfcshkFP'
p629
(dp630
g3
S'Drake'
p631
sg5
I2
sg6
S'https://open.spotify.com/track/76gUmNLXGQVOsGhfcshkFP'
p632
sg8
S'Madiba Riddim'
p633
ssS'1R8eM53yWnjsfiWktgObe7'
p634
(dp635
g3
S'Micar'
p636
sg5
I23
sg6
S'https://open.spotify.com/track/1R8eM53yWnjsfiWktgObe7'
p637
sg8
S'Burden Down'
p638
ssS'7vGuf3Y35N4wmASOKLUVVU'
p639
(dp640
g3
S'Marshmello'
p641
sg5
I9
sg6
S'https://open.spotify.com/track/7vGuf3Y35N4wmASOKLUVVU'
p642
sg8
S'Silence'
p643
ssS'7pstxLUhvsJC3M4TxHe2aI'
p644
(dp645
g3
S'Ti\xc3\xabsto'
p646
sg5
I1
sg6
S'https://open.spotify.com/track/7pstxLUhvsJC3M4TxHe2aI'
p647
sg8
S'Carry You Home'
p648
ssS'3EfugazgSddQvzZpkof5I4'
p649
(dp650
g3
S'Anne-Marie'
p651
sg5
I26
sg6
S'https://open.spotify.com/track/3EfugazgSddQvzZpkof5I4'
p652
sg8
S'Ciao Adios'
p653
ssS'4WrS6vezaPwOafKJmHqMEU'
p654
(dp655
g3
S'Jax Jones'
p656
sg5
I1
sg6
S'https://open.spotify.com/track/4WrS6vezaPwOafKJmHqMEU'
p657
sg8
S"You Don't Know Me - Radio Edit"
p658
ssS'1K1S6LwZc4BNvyoHGV9rAX'
p659
(dp660
g3
S'SpongeBOZZ'
p661
sg5
I1
sg6
S'https://open.spotify.com/track/1K1S6LwZc4BNvyoHGV9rAX'
p662
sg8
S'Rolex o. Handschelle'
p663
ssS'4EZUcj7c8n9pWIwHqN0DoH'
p664
(dp665
g3
S'Bing Crosby'
p666
sg5
I1
sg6
S'https://open.spotify.com/track/4EZUcj7c8n9pWIwHqN0DoH'
p667
sg8
S'Do You Hear What I Hear?'
p668
ssS'1WpQu8U3quBeGnhpZn0r7N'
p669
(dp670
g3
S'Nathan Trent'
p671
sg5
I3
sg6
S'https://open.spotify.com/track/1WpQu8U3quBeGnhpZn0r7N'
p672
sg8
S'Running On Air'
p673
ssS'7129iqBafaphfc3WPCGC0L'
p674
(dp675
g3
S'Lukas Graham'
p676
sg5
I9
sg6
S'https://open.spotify.com/track/7129iqBafaphfc3WPCGC0L'
p677
sg8
S'7 Years'
p678
ssS'4WjH9Bzt3kx7z8kl0awxh4'
p679
(dp680
g3
S'Major Lazer'
p681
sg5
I4
sg6
S'https://open.spotify.com/track/4WjH9Bzt3kx7z8kl0awxh4'
p682
sg8
S'Lean On (feat. M\xc3\x98 & DJ Snake)'
p683
ssS'6dSKDp21S6I5UOhDqjw4kB'
p684
(dp685
g3
S'Imagine Dragons'
p686
sg5
I1
sg6
S'https://open.spotify.com/track/6dSKDp21S6I5UOhDqjw4kB'
p687
sg8
S'Mouth Of The River'
p688
ssS'57p8CBvPOxrvyCbn6ttl5r'
p689
(dp690
g3
S'Skrillex'
p691
sg5
I11
sg6
S'https://open.spotify.com/track/57p8CBvPOxrvyCbn6ttl5r'
p692
sg8
S'Would You Ever'
p693
ssS'39S7yxVerin9vMLPsNqHZw'
p694
(dp695
g3
S'Savas'
p696
sg5
I1
sg6
S'https://open.spotify.com/track/39S7yxVerin9vMLPsNqHZw'
p697
sg8
S'Neue Welt'
p698
ssS'6rupuJZn5L8ZMUZgVl0560'
p699
(dp700
g3
S'Pizzera & Jaus'
p701
sg5
I3
sg6
S'https://open.spotify.com/track/6rupuJZn5L8ZMUZgVl0560'
p702
sg8
S'wir gewinnt'
p703
ssS'43jBqV3j3Xi1g6wO0bhIMd'
p704
(dp705
g3
S'Sage The Gemini'
p706
sg5
I19
sg6
S'https://open.spotify.com/track/43jBqV3j3Xi1g6wO0bhIMd'
p707
sg8
S'Now and Later'
p708
ssS'7oolFzHipTMg2nL7shhdz2'
p709
(dp710
g3
S'Ed Sheeran'
p711
sg5
I5
sg6
S'https://open.spotify.com/track/7oolFzHipTMg2nL7shhdz2'
p712
sg8
S'Eraser'
p713
ssS'10GrKSNtr0tTIscYFt32V4'
p714
(dp715
g3
S'Nimo'
p716
sg5
I1
sg6
S'https://open.spotify.com/track/10GrKSNtr0tTIscYFt32V4'
p717
sg8
S'Veni Vidi Siktim'
p718
ssS'4Yf5bqU3NK4kNOypcrLYwU'
p719
(dp720
g3
S'Linkin Park'
p721
sg5
I1
sg6
S'https://open.spotify.com/track/4Yf5bqU3NK4kNOypcrLYwU'
p722
sg8
S'Faint'
p723
ssS'3W3vuTYWb5k8yNgrnYWJuf'
p724
(dp725
g3
S'Zuna'
p726
sg5
I7
sg6
S'https://open.spotify.com/track/3W3vuTYWb5k8yNgrnYWJuf'
p727
sg8
S'Baby'
p728
ssS'3B7udSGy2PfgoCniMSb523'
p729
(dp730
g3
S'Ed Sheeran'
p731
sg5
I9
sg6
S'https://open.spotify.com/track/3B7udSGy2PfgoCniMSb523'
p732
sg8
S'I See Fire'
p733
ssS'1EK5Z3jnZh1nHXPUXpaLhK'
p734
(dp735
g3
S'Kate Winslet'
p736
sg5
I1
sg6
S'https://open.spotify.com/track/1EK5Z3jnZh1nHXPUXpaLhK'
p737
sg8
S'What If'
p738
ssS'7BKLCZ1jbUBVqRi2FVlTVw'
p739
(dp740
g3
S'The Chainsmokers'
p741
sg5
I40
sg6
S'https://open.spotify.com/track/7BKLCZ1jbUBVqRi2FVlTVw'
p742
sg8
S'Closer'
p743
ssS'3NdDpSvN911VPGivFlV5d0'
p744
(dp745
g3
S'ZAYN'
p746
sg5
I42
sg6
S'https://open.spotify.com/track/3NdDpSvN911VPGivFlV5d0'
p747
sg8
S'I Don\xe2\x80\x99t Wanna Live Forever (Fifty Shades Darker) - From Fifty Shades Darker (Original Motion Picture Soundtrack)'
p748
ssS'45OfR7ugJMgbFDuNOVpIq3'
p749
(dp750
g3
S'Matoma'
p751
sg5
I11
sg6
S'https://open.spotify.com/track/45OfR7ugJMgbFDuNOVpIq3'
p752
sg8
S'Party On The West Coast (feat. Snoop Dogg)'
p753
ssS'6qA8rvvkzR3z38X3FoeX32'
p754
(dp755
g3
S'Mert'
p756
sg5
I3
sg6
S'https://open.spotify.com/track/6qA8rvvkzR3z38X3FoeX32'
p757
sg8
S'Liebe hei\xc3\x9ft'
p758
ssS'1wC93sZRGcTgKLN2UWRSwW'
p759
(dp760
g3
S'Lorde'
p761
sg5
I4
sg6
S'https://open.spotify.com/track/1wC93sZRGcTgKLN2UWRSwW'
p762
sg8
S'Perfect Places'
p763
ssS'0HlGKH64XBzPBMI9jeuzZM'
p764
(dp765
g3
S'Regi'
p766
sg5
I7
sg6
S'https://open.spotify.com/track/0HlGKH64XBzPBMI9jeuzZM'
p767
sg8
S'Should Have Been There'
p768
ssS'5WNyFshX1L7f9PDvtBLl78'
p769
(dp770
g3
S'Capo'
p771
sg5
I1
sg6
S'https://open.spotify.com/track/5WNyFshX1L7f9PDvtBLl78'
p772
sg8
S'Mainhattan City Gang'
p773
ssS'0gb1J5UrTpzaU1s3nupgCd'
p774
(dp775
g3
S'Galantis'
p776
sg5
I8
sg6
S'https://open.spotify.com/track/0gb1J5UrTpzaU1s3nupgCd'
p777
sg8
S'No Money'
p778
ssS'6uNFvdRGAtUuVIP6IOMlRs'
p779
(dp780
g3
S'Naaz'
p781
sg5
I8
sg6
S'https://open.spotify.com/track/6uNFvdRGAtUuVIP6IOMlRs'
p782
sg8
S'Words'
p783
ssS'1UZOjK1BwmwWU14Erba9CZ'
p784
(dp785
g3
S'Miley Cyrus'
p786
sg5
I2
sg6
S'https://open.spotify.com/track/1UZOjK1BwmwWU14Erba9CZ'
p787
sg8
S'Malibu'
p788
ssS'1iTKkkgXj8kJkGdjGGBFqL'
p789
(dp790
g3
S'Fake Pictures'
p791
sg5
I31
sg6
S'https://open.spotify.com/track/1iTKkkgXj8kJkGdjGGBFqL'
p792
sg8
S'Two Princes - Radio Mix'
p793
ssS'7f4zVC7NpraLjXjFx9DNDt'
p794
(dp795
g3
S'Michael Bubl\xc3\xa9'
p796
sg5
I1
sg6
S'https://open.spotify.com/track/7f4zVC7NpraLjXjFx9DNDt'
p797
sg8
S"The More You Give (The More You'll Have)"
p798
ssS'6rQxI9E91vFj8oO9Fnct27'
p799
(dp800
g3
S'Kurdo'
p801
sg5
I1
sg6
S'https://open.spotify.com/track/6rQxI9E91vFj8oO9Fnct27'
p802
sg8
S'Desert Eagle'
p803
ssS'2KklXplRtxMsBYo474Es0w'
p804
(dp805
g3
S'Ofenbach'
p806
sg5
I27
sg6
S'https://open.spotify.com/track/2KklXplRtxMsBYo474Es0w'
p807
sg8
S'Be Mine'
p808
ssS'5v9N8Rx3QsFvr50cxyQcA3'
p809
(dp810
g3
S'Mura Masa'
p811
sg5
I18
sg6
S'https://open.spotify.com/track/5v9N8Rx3QsFvr50cxyQcA3'
p812
sg8
S'Love$ick'
p813
ssS'7Hz6LLOVxrojLPIHJJ1S0E'
p814
(dp815
g3
S'Sam Smith'
p816
sg5
I1
sg6
S'https://open.spotify.com/track/7Hz6LLOVxrojLPIHJJ1S0E'
p817
sg8
S'Have Yourself A Merry Little Christmas'
p818
ssS'3CRDbSIZ4r5MsZ0YwxuEkn'
p819
(dp820
g3
S'Twenty One Pilots'
p821
sg5
I22
sg6
S'https://open.spotify.com/track/3CRDbSIZ4r5MsZ0YwxuEkn'
p822
sg8
S'Stressed Out'
p823
ssS'7y5chiQbuvviOYUfUmOPqo'
p824
(dp825
g3
S'RAF Camora'
p826
sg5
I7
sg6
S'https://open.spotify.com/track/7y5chiQbuvviOYUfUmOPqo'
p827
sg8
S'Primo'
p828
ssS'6hphlRTcnTJI8dUbJtN3Q2'
p829
(dp830
g3
S'RIN'
p831
sg5
I1
sg6
S'https://open.spotify.com/track/6hphlRTcnTJI8dUbJtN3Q2'
p832
sg8
S'Blackout'
p833
ssS'6mICuAdrwEjh6Y6lroV2Kg'
p834
(dp835
g3
S'Shakira'
p836
sg5
I26
sg6
S'https://open.spotify.com/track/6mICuAdrwEjh6Y6lroV2Kg'
p837
sg8
S'Chantaje'
p838
ssS'791yvyS64nKiOFtFxRPaqD'
p839
(dp840
g3
S'Prinz Pi'
p841
sg5
I3
sg6
S'https://open.spotify.com/track/791yvyS64nKiOFtFxRPaqD'
p842
sg8
S'Letzte Liebe'
p843
ssS'7Is0OPWVcN8DdZpcNuClcy'
p844
(dp845
g3
S'Mahmut Orhan'
p846
sg5
I7
sg6
S'https://open.spotify.com/track/7Is0OPWVcN8DdZpcNuClcy'
p847
sg8
S'Feel - Radio Edit'
p848
ssS'11DDWc2hxWltUcKbYLG3CP'
p849
(dp850
g3
S'187 Strassenbande'
p851
sg5
I2
sg6
S'https://open.spotify.com/track/11DDWc2hxWltUcKbYLG3CP'
p852
sg8
S'International'
p853
ssS'1dD3FPQw7qLdlPh1g1ZKRS'
p854
(dp855
g3
S'Capital Bra'
p856
sg5
I4
sg6
S'https://open.spotify.com/track/1dD3FPQw7qLdlPh1g1ZKRS'
p857
sg8
S'Ghetto Massari'
p858
ssS'1WC5UN1U79gJlxGLYDGIO7'
p859
(dp860
g3
S'Lorde'
p861
sg5
I2
sg6
S'https://open.spotify.com/track/1WC5UN1U79gJlxGLYDGIO7'
p862
sg8
S'Green Light'
p863
ssS'7BWfZLcOLA3M78dbvU7Kig'
p864
(dp865
g3
S'Bushido'
p866
sg5
I1
sg6
S'https://open.spotify.com/track/7BWfZLcOLA3M78dbvU7Kig'
p867
sg8
S'Switch Stance'
p868
ssS'7gHs73wELdeycvS48JfIos'
p869
(dp870
g3
S'Alan Walker'
p871
sg5
I35
sg6
S'https://open.spotify.com/track/7gHs73wELdeycvS48JfIos'
p872
sg8
S'Faded'
p873
ssS'63CPMdu83Du2Y4x0AMxjg1'
p874
(dp875
g3
S'SpongeBOZZ'
p876
sg5
I1
sg6
S'https://open.spotify.com/track/63CPMdu83Du2Y4x0AMxjg1'
p877
sg8
S'Rhythm Is a Gangster'
p878
ssS'0w6O1J8NjXRgD2uWOIBBqT'
p879
(dp880
g3
S'Zuna'
p881
sg5
I7
sg6
S'https://open.spotify.com/track/0w6O1J8NjXRgD2uWOIBBqT'
p882
sg8
S'Cazal'
p883
ssS'1EsYvNwt8f2WhERX1OsMOZ'
p884
(dp885
g3
S'Pizzera & Jaus'
p886
sg5
I3
sg6
S'https://open.spotify.com/track/1EsYvNwt8f2WhERX1OsMOZ'
p887
sg8
S'eine ins leben'
p888
ssS'12BTlaSwSGkH1bdgfwiv0l'
p889
(dp890
g3
S'Frankie Goes To Hollywood'
p891
sg5
I1
sg6
S'https://open.spotify.com/track/12BTlaSwSGkH1bdgfwiv0l'
p892
sg8
S'The Power of Love'
p893
ssS'7qJVGbGjDDXEgirD3JwaQP'
p894
(dp895
g3
S'RAF Camora'
p896
sg5
I2
sg6
S'https://open.spotify.com/track/7qJVGbGjDDXEgirD3JwaQP'
p897
sg8
S'In meiner Wolke'
p898
ssS'21Jm8e4P2xykNsI2age7pC'
p899
(dp900
g3
S'Christian L\xc3\xb6ffler'
p901
sg5
I2
sg6
S'https://open.spotify.com/track/21Jm8e4P2xykNsI2age7pC'
p902
sg8
S'Haul (Radio Edit)'
p903
ssS'00lNx0OcTJrS3MKHcB80HY'
p904
(dp905
g3
S'Jax Jones'
p906
sg5
I29
sg6
S'https://open.spotify.com/track/00lNx0OcTJrS3MKHcB80HY'
p907
sg8
S"You Don't Know Me - Radio Edit"
p908
ssS'011NtiyI7P4xlIQHar3p9h'
p909
(dp910
g3
S'TJ_beastboy'
p911
sg5
I1
sg6
S'https://open.spotify.com/track/011NtiyI7P4xlIQHar3p9h'
p912
sg8
S'Modus'
p913
ssS'2s76aKBWKShlwPC4xTtEEE'
p914
(dp915
g3
S'State of Sound'
p916
sg5
I11
sg6
S'https://open.spotify.com/track/2s76aKBWKShlwPC4xTtEEE'
p917
sg8
S'Wake Up Where You Are'
p918
ssS'3wSsfgSBG9IupP2rZTGkJY'
p919
(dp920
g3
S'Ufo361'
p921
sg5
I1
sg6
S'https://open.spotify.com/track/3wSsfgSBG9IupP2rZTGkJY'
p922
sg8
S'Luzifer'
p923
ssS'4HM0B8l3YyPSddwDBv2VVQ'
p924
(dp925
g3
S'SpongeBOZZ'
p926
sg5
I1
sg6
S'https://open.spotify.com/track/4HM0B8l3YyPSddwDBv2VVQ'
p927
sg8
S'Moonrocks'
p928
ssS'1f3flfdU4VDM2OBDD2FMia'
p929
(dp930
g3
S'Alle Farben'
p931
sg5
I25
sg6
S'https://open.spotify.com/track/1f3flfdU4VDM2OBDD2FMia'
p932
sg8
S'Little Hollywood'
p933
ssS'2zjEMw9kkROEbAxIXk6Ivp'
p934
(dp935
g3
S'Linkin Park'
p936
sg5
I1
sg6
S'https://open.spotify.com/track/2zjEMw9kkROEbAxIXk6Ivp'
p937
sg8
S'Shadow Of The Day'
p938
ssS'6t2ubAB4iSYOuIpRAOGd4t'
p939
(dp940
g3
S'Flo Rida'
p941
sg5
I29
sg6
S'https://open.spotify.com/track/6t2ubAB4iSYOuIpRAOGd4t'
p942
sg8
S'Cake'
p943
ssS'4nDfc6F2uVcc6wdG7kBzWO'
p944
(dp945
g3
S'Nick Jonas'
p946
sg5
I4
sg6
S'https://open.spotify.com/track/4nDfc6F2uVcc6wdG7kBzWO'
p947
sg8
S'Bom Bidi Bom - From Fifty Shades Darker (Original Motion Picture Soundtrack)'
p948
ssS'0dj1CtyRxZ4bnIT4Q20jNT'
p949
(dp950
g3
S'The Chainsmokers'
p951
sg5
I1
sg6
S'https://open.spotify.com/track/0dj1CtyRxZ4bnIT4Q20jNT'
p952
sg8
S'Wake Up Alone'
p953
ssS'0fg8CqpjdojMyXLNzM2PaJ'
p954
(dp955
g3
S'Major Lazer'
p956
sg5
I23
sg6
S'https://open.spotify.com/track/0fg8CqpjdojMyXLNzM2PaJ'
p957
sg8
S'Run Up (feat. PARTYNEXTDOOR & Nicki Minaj)'
p958
ssS'0hnErtVKN1JyvfBNfpWDpO'
p959
(dp960
g3
S'Bryan Adams'
p961
sg5
I1
sg6
S'https://open.spotify.com/track/0hnErtVKN1JyvfBNfpWDpO'
p962
sg8
S'Christmas Time'
p963
ssS'3umS4y3uQDkqekNjVpiRUs'
p964
(dp965
g3
S'Nicky Jam'
p966
sg5
I14
sg6
S'https://open.spotify.com/track/3umS4y3uQDkqekNjVpiRUs'
p967
sg8
S'El Amante'
p968
ssS'7mdlZsVJD6HcPuwS3k7e68'
p969
(dp970
g3
S'Zuna'
p971
sg5
I19
sg6
S'https://open.spotify.com/track/7mdlZsVJD6HcPuwS3k7e68'
p972
sg8
S'Wieso?'
p973
ssS'6uFsE1JgZ20EXyU0JQZbUR'
p974
(dp975
g3
S'Taylor Swift'
p976
sg5
I7
sg6
S'https://open.spotify.com/track/6uFsE1JgZ20EXyU0JQZbUR'
p977
sg8
S'Look What You Made Me Do'
p978
ssS'5X5yoMWOcb7H0QZQfVZWqT'
p979
(dp980
g3
S'RAF Camora'
p981
sg5
I1
sg6
S'https://open.spotify.com/track/5X5yoMWOcb7H0QZQfVZWqT'
p982
sg8
S'In meiner Wolke'
p983
ssS'7a5Sw0eZgVK9mfQfhkap8R'
p984
(dp985
g3
S'Wanda'
p986
sg5
I1
sg6
S'https://open.spotify.com/track/7a5Sw0eZgVK9mfQfhkap8R'
p987
sg8
S'Wenn du schl\xc3\xa4fst'
p988
ssS'5CPqOpKSk0QcJ3dGdaWcRB'
p989
(dp990
g3
S'The xx'
p991
sg5
I1
sg6
S'https://open.spotify.com/track/5CPqOpKSk0QcJ3dGdaWcRB'
p992
sg8
S'On Hold'
p993
ssS'0L87MffumRNWrY2SNUFcvs'
p994
(dp995
g3
S'Milky Chance'
p996
sg5
I22
sg6
S'https://open.spotify.com/track/0L87MffumRNWrY2SNUFcvs'
p997
sg8
S'Cocoon'
p998
ssS'4xBjsLUSjcx2h7PcRikpQp'
p999
(dp1000
g3
S'Camila Cabello'
p1001
sg5
I5
sg6
S'https://open.spotify.com/track/4xBjsLUSjcx2h7PcRikpQp'
p1002
sg8
S'OMG'
p1003
ssS'1HCw8XKtTgWWU3JlEUR0qQ'
p1004
(dp1005
g3
S'Deorro'
p1006
sg5
I7
sg6
S'https://open.spotify.com/track/1HCw8XKtTgWWU3JlEUR0qQ'
p1007
sg8
S'Bailar - Radio Edit'
p1008
ssS'7GX5flRQZVHRAGd6B4TmDO'
p1009
(dp1010
g3
S'Lil Uzi Vert'
p1011
sg5
I7
sg6
S'https://open.spotify.com/track/7GX5flRQZVHRAGd6B4TmDO'
p1012
sg8
S'XO TOUR Llif3'
p1013
ssS'0j55I9vHZzI6x6yqrSJQ7M'
p1014
(dp1015
g3
S'Charles Brown'
p1016
sg5
I1
sg6
S'https://open.spotify.com/track/0j55I9vHZzI6x6yqrSJQ7M'
p1017
sg8
S'Please Come Home for Christmas'
p1018
ssS'3a0lTKu4ls7IsemVo8pvH5'
p1019
(dp1020
g3
S'RAF Camora'
p1021
sg5
I5
sg6
S'https://open.spotify.com/track/3a0lTKu4ls7IsemVo8pvH5'
p1022
sg8
S'Anthrazit'
p1023
ssS'4F7A0DXBrmUAkp32uenhZt'
p1024
(dp1025
g3
S'The Weeknd'
p1026
sg5
I5
sg6
S'https://open.spotify.com/track/4F7A0DXBrmUAkp32uenhZt'
p1027
sg8
S'Party Monster'
p1028
ssS'5hIR7SX1fSrr5evIAPDY5o'
p1029
(dp1030
g3
S'Lost Frequencies'
p1031
sg5
I9
sg6
S'https://open.spotify.com/track/5hIR7SX1fSrr5evIAPDY5o'
p1032
sg8
S'What Is Love 2016'
p1033
ssS'6vFR3EXsCZ8JurXwzlM8z7'
p1034
(dp1035
g3
S'Mert'
p1036
sg5
I2
sg6
S'https://open.spotify.com/track/6vFR3EXsCZ8JurXwzlM8z7'
p1037
sg8
S'Groupie'
p1038
ssS'3V9DfRoS7JfSkuTyNEsCxQ'
p1039
(dp1040
g3
S'Martin Jensen'
p1041
sg5
I2
sg6
S'https://open.spotify.com/track/3V9DfRoS7JfSkuTyNEsCxQ'
p1042
sg8
S'Wait'
p1043
ssS'3sgGmPQD2J6aQduN36RDBO'
p1044
(dp1045
g3
S'Zuna'
p1046
sg5
I30
sg6
S'https://open.spotify.com/track/3sgGmPQD2J6aQduN36RDBO'
p1047
sg8
S'Nummer 1'
p1048
ssS'3fJua408ovMRQ0JYGepaAY'
p1049
(dp1050
g3
S'Janieck'
p1051
sg5
I5
sg6
S'https://open.spotify.com/track/3fJua408ovMRQ0JYGepaAY'
p1052
sg8
S'Feel the Love - Sam Feldt Edit'
p1053
ssS'4nMlau89VAjmV7agkl7OY3'
p1054
(dp1055
g3
S'Andy Grammer'
p1056
sg5
I16
sg6
S'https://open.spotify.com/track/4nMlau89VAjmV7agkl7OY3'
p1057
sg8
S'Fresh Eyes'
p1058
ssS'4bHxXJnNRSMfc8z2lEIMRQ'
p1059
(dp1060
g3
S'KC Rebell'
p1061
sg5
I1
sg6
S'https://open.spotify.com/track/4bHxXJnNRSMfc8z2lEIMRQ'
p1062
sg8
S'Focus (feat. Hamza)'
p1063
ssS'4rkEjyRMjc6rcj7WROZ9XK'
p1064
(dp1065
g3
S'Pizzera & Jaus'
p1066
sg5
I33
sg6
S'https://open.spotify.com/track/4rkEjyRMjc6rcj7WROZ9XK'
p1067
sg8
S'Jedermann'
p1068
ssS'3cIcZ9nBKNdDjyWVDoU1I6'
p1069
(dp1070
g3
S'Casper'
p1071
sg5
I1
sg6
S'https://open.spotify.com/track/3cIcZ9nBKNdDjyWVDoU1I6'
p1072
sg8
S'Keine Angst'
p1073
ssS'7dLyQvIUXCAIdk0ZiatE3y'
p1074
(dp1075
g3
S'Savas'
p1076
sg5
I1
sg6
S'https://open.spotify.com/track/7dLyQvIUXCAIdk0ZiatE3y'
p1077
sg8
S'Normale Leute'
p1078
ssS'4hKWUzhQWsOkgT6LnDEASe'
p1079
(dp1080
g3
S'Bausa'
p1081
sg5
I2
sg6
S'https://open.spotify.com/track/4hKWUzhQWsOkgT6LnDEASe'
p1082
sg8
S'Was du Liebe nennst'
p1083
ssS'75ZvA4QfFiZvzhj2xkaWAh'
p1084
(dp1085
g3
S'Post Malone'
p1086
sg5
I1
sg6
S'https://open.spotify.com/track/75ZvA4QfFiZvzhj2xkaWAh'
p1087
sg8
S'I Fall Apart'
p1088
ssS'6aQGDQzLLK28BhQiarLPfv'
p1089
(dp1090
g3
S'Yung Hurn'
p1091
sg5
I2
sg6
S'https://open.spotify.com/track/6aQGDQzLLK28BhQiarLPfv'
p1092
sg8
S'Diamant - Love Hotel Band'
p1093
ssS'1nTgtGpUoKpA97ZbgZPiZR'
p1094
(dp1095
g3
S'Charlie Cunningham'
p1096
sg5
I15
sg6
S'https://open.spotify.com/track/1nTgtGpUoKpA97ZbgZPiZR'
p1097
sg8
S'Minimum'
p1098
ssS'0DAmSYQW9kq9gQNDI002KP'
p1099
(dp1100
g3
S'Joni Mitchell'
p1101
sg5
I1
sg6
S'https://open.spotify.com/track/0DAmSYQW9kq9gQNDI002KP'
p1102
sg8
S'River'
p1103
ssS'2TUcc3b5gFgq7oaRJfrVZd'
p1104
(dp1105
g3
S'187 Strassenbande'
p1106
sg5
I2
sg6
S'https://open.spotify.com/track/2TUcc3b5gFgq7oaRJfrVZd'
p1107
sg8
S'24/7'
p1108
ssS'6LOCAhFzZiavHcLJucLuDy'
p1109
(dp1110
g3
S'DJ Khaled'
p1111
sg5
I1
sg6
S'https://open.spotify.com/track/6LOCAhFzZiavHcLJucLuDy'
p1112
sg8
S"Don't Quit"
p1113
ssS'7hDc8b7IXETo14hHIHdnhd'
p1114
(dp1115
g3
S'Drake'
p1116
sg5
I17
sg6
S'https://open.spotify.com/track/7hDc8b7IXETo14hHIHdnhd'
p1117
sg8
S'Passionfruit'
p1118
ssS'3RiPr603aXAoi4GHyXx0uy'
p1119
(dp1120
g3
S'Coldplay'
p1121
sg5
I1
sg6
S'https://open.spotify.com/track/3RiPr603aXAoi4GHyXx0uy'
p1122
sg8
S'Hymn For The Weekend'
p1123
ssS'75o7z16lEhLQFk1B9GkbHG'
p1124
(dp1125
g3
S'Bushido'
p1126
sg5
I3
sg6
S'https://open.spotify.com/track/75o7z16lEhLQFk1B9GkbHG'
p1127
sg8
S'Black Friday'
p1128
ssS'0tICYNayWWhH9GPeFrfjfD'
p1129
(dp1130
g3
S'Kungs'
p1131
sg5
I21
sg6
S'https://open.spotify.com/track/0tICYNayWWhH9GPeFrfjfD'
p1132
sg8
S"This Girl (Kungs Vs. Cookin' On 3 Burners) - Kungs Vs. Cookin' On 3 Burners"
p1133
ssS'2LTlO3NuNVN70lp2ZbVswF'
p1134
(dp1135
g3
S'Kendrick Lamar'
p1136
sg5
I2
sg6
S'https://open.spotify.com/track/2LTlO3NuNVN70lp2ZbVswF'
p1137
sg8
S'FEEL.'
p1138
ssS'2QQJG7R6sCCvZbCT5ZaG8a'
p1139
(dp1140
g3
S'TJ_beastboy'
p1141
sg5
I1
sg6
S'https://open.spotify.com/track/2QQJG7R6sCCvZbCT5ZaG8a'
p1142
sg8
S'9Leben'
p1143
ssS'1eVRnmGhDPATPxz6kqWuCP'
p1144
(dp1145
g3
S'Julia Michaels'
p1146
sg5
I3
sg6
S'https://open.spotify.com/track/1eVRnmGhDPATPxz6kqWuCP'
p1147
sg8
S'Uh Huh'
p1148
ssS'4nxvRweTK5ZZhbH3G7PuEn'
p1149
(dp1150
g3
S'RHODES'
p1151
sg5
I17
sg6
S'https://open.spotify.com/track/4nxvRweTK5ZZhbH3G7PuEn'
p1152
sg8
S'Your Soul (Holding On)'
p1153
ssS'74nadxHkSGQm6eBIyqTHDP'
p1154
(dp1155
g3
S'Starley'
p1156
sg5
I2
sg6
S'https://open.spotify.com/track/74nadxHkSGQm6eBIyqTHDP'
p1157
sg8
S'Call On Me'
p1158
ssS'65Q2mv3UlVi9eO70OpsmSe'
p1159
(dp1160
g3
S'Burl Ives'
p1161
sg5
I1
sg6
S'https://open.spotify.com/track/65Q2mv3UlVi9eO70OpsmSe'
p1162
sg8
S'A Holly Jolly Christmas - Single Version'
p1163
ssS'0XLOf9LhyazPX9Ld8jPiUq'
p1164
(dp1165
g3
S'Selena Gomez'
p1166
sg5
I9
sg6
S'https://open.spotify.com/track/0XLOf9LhyazPX9Ld8jPiUq'
p1167
sg8
S'Fetish (feat. Gucci Mane)'
p1168
ssS'3CUsYy61rwbmpi6bHDnuD4'
p1169
(dp1170
g3
S'Bilderbuch'
p1171
sg5
I27
sg6
S'https://open.spotify.com/track/3CUsYy61rwbmpi6bHDnuD4'
p1172
sg8
S'Baba'
p1173
ssS'1yxgsra98r3qAtxqiGZPiX'
p1174
(dp1175
g3
S'Travis Scott'
p1176
sg5
I16
sg6
S'https://open.spotify.com/track/1yxgsra98r3qAtxqiGZPiX'
p1177
sg8
S'Butterfly Effect'
p1178
ssS'0ugwgq04vVhkJDIOGr2X6R'
p1179
(dp1180
g3
S'Marteria'
p1181
sg5
I8
sg6
S'https://open.spotify.com/track/0ugwgq04vVhkJDIOGr2X6R'
p1182
sg8
S'Das Geld muss weg'
p1183
ssS'5m9kKKdZckx60Acxnmszdn'
p1184
(dp1185
g3
S'Cro'
p1186
sg5
I2
sg6
S'https://open.spotify.com/track/5m9kKKdZckx60Acxnmszdn'
p1187
sg8
S'forrest gump'
p1188
ssS'550rQQCGkrTzvp4SfpOPzx'
p1189
(dp1190
g3
S'Pentatonix'
p1191
sg5
I4
sg6
S'https://open.spotify.com/track/550rQQCGkrTzvp4SfpOPzx'
p1192
sg8
S'Hallelujah'
p1193
ssS'3xXBsjrbG1xQIm1xv1cKOt'
p1194
(dp1195
g3
S'Linkin Park'
p1196
sg5
I5
sg6
S'https://open.spotify.com/track/3xXBsjrbG1xQIm1xv1cKOt'
p1197
sg8
S'One More Light'
p1198
ssS'0t4v7Q4yzb9SOQohayL33W'
p1199
(dp1200
g3
S'Bonez MC'
p1201
sg5
I12
sg6
S'https://open.spotify.com/track/0t4v7Q4yzb9SOQohayL33W'
p1202
sg8
S'Palmen aus Gold'
p1203
ssS'0mm1AciU27BzwHyMQ6oynW'
p1204
(dp1205
g3
S'Bilderbuch'
p1206
sg5
I3
sg6
S'https://open.spotify.com/track/0mm1AciU27BzwHyMQ6oynW'
p1207
sg8
S"Sprit n' Soda"
p1208
ssS'0OwX5aROoW1Iip8FV51Efg'
p1209
(dp1210
g3
S'Anne-Marie'
p1211
sg5
I18
sg6
S'https://open.spotify.com/track/0OwX5aROoW1Iip8FV51Efg'
p1212
sg8
S'Alarm'
p1213
ssS'6A8dnC0xkiuWN4BshmTB2I'
p1214
(dp1215
g3
S'A R I Z O N A'
p1216
sg5
I24
sg6
S'https://open.spotify.com/track/6A8dnC0xkiuWN4BshmTB2I'
p1217
sg8
S'Oceans Away'
p1218
ssS'5iwJ9wwJES8PUVblgaf1Pb'
p1219
(dp1220
g3
S'RIN'
p1221
sg5
I1
sg6
S'https://open.spotify.com/track/5iwJ9wwJES8PUVblgaf1Pb'
p1222
sg8
S'Dizzee Rascal Type Beat'
p1223
ssS'2OALaHcDdKkjYEpAr0Qzab'
p1224
(dp1225
g3
S'Avicii'
p1226
sg5
I9
sg6
S'https://open.spotify.com/track/2OALaHcDdKkjYEpAr0Qzab'
p1227
sg8
S'Lonely Together (feat. Rita Ora)'
p1228
ssS'6prid7HaCg8gEsFzpTvdeq'
p1229
(dp1230
g3
S'Arty'
p1231
sg5
I1
sg6
S'https://open.spotify.com/track/6prid7HaCg8gEsFzpTvdeq'
p1232
sg8
S'Falling Down (feat. Maty Noyes)'
p1233
ssS'56lBX2WHqfGuoeZxZvUnVj'
p1234
(dp1235
g3
S'Imagine Dragons'
p1236
sg5
I3
sg6
S'https://open.spotify.com/track/56lBX2WHqfGuoeZxZvUnVj'
p1237
sg8
S'Thunder'
p1238
ssS'0XfOi87h82i09rQjWYG0Bm'
p1239
(dp1240
g3
S'Jax Jones'
p1241
sg5
I10
sg6
S'https://open.spotify.com/track/0XfOi87h82i09rQjWYG0Bm'
p1242
sg8
S'Instruction (feat. Demi Lovato & Stefflon Don)'
p1243
ssS'2DLG3LOPVDw0fP53tWGfm2'
p1244
(dp1245
g3
S'Cro'
p1246
sg5
I6
sg6
S'https://open.spotify.com/track/2DLG3LOPVDw0fP53tWGfm2'
p1247
sg8
S'Baum'
p1248
ssS'5qqabIl2vWzo9ApSC317sa'
p1249
(dp1250
g3
S'Oasis'
p1251
sg5
I27
sg6
S'https://open.spotify.com/track/5qqabIl2vWzo9ApSC317sa'
p1252
sg8
S'Wonderwall - Remastered'
p1253
ssS'28irpKCCK9nn9DZSik2zEx'
p1254
(dp1255
g3
S'Drake'
p1256
sg5
I1
sg6
S'https://open.spotify.com/track/28irpKCCK9nn9DZSik2zEx'
p1257
sg8
S'Glow'
p1258
ssS'16nn9U3bhRfDgOxK1rp3WC'
p1259
(dp1260
g3
S'Maxwell'
p1261
sg5
I1
sg6
S'https://open.spotify.com/track/16nn9U3bhRfDgOxK1rp3WC'
p1262
sg8
S'Stress mit mir'
p1263
ssS'1AJQ97yAt6xfeF7nQaE1t8'
p1264
(dp1265
g3
S'Imagine Dragons'
p1266
sg5
I1
sg6
S'https://open.spotify.com/track/1AJQ97yAt6xfeF7nQaE1t8'
p1267
sg8
S'Walking The Wire'
p1268
ssS'1kFJTEnAvJ70S5mXplUAFR'
p1269
(dp1270
g3
S'Jane X\xc3\x98'
p1271
sg5
I10
sg6
S'https://open.spotify.com/track/1kFJTEnAvJ70S5mXplUAFR'
p1272
sg8
S'Love Me'
p1273
ssS'2mfUa8bLs2s5N4VaqJZ4lZ'
p1274
(dp1275
g3
S'Hailee Steinfeld'
p1276
sg5
I22
sg6
S'https://open.spotify.com/track/2mfUa8bLs2s5N4VaqJZ4lZ'
p1277
sg8
S'Most Girls'
p1278
ssS'0ZExP2I5Ej92PsnG4G1jVG'
p1279
(dp1280
g3
S'Julia Michaels'
p1281
sg5
I4
sg6
S'https://open.spotify.com/track/0ZExP2I5Ej92PsnG4G1jVG'
p1282
sg8
S'Uh Huh'
p1283
ssS'7lQ8MOhq6IN2w8EYcFNSUk'
p1284
(dp1285
g3
S'Eminem'
p1286
sg5
I18
sg6
S'https://open.spotify.com/track/7lQ8MOhq6IN2w8EYcFNSUk'
p1287
sg8
S'Without Me'
p1288
ssS'19j4zJpumhQ2v0FottwCdD'
p1289
(dp1290
g3
S'Bushido'
p1291
sg5
I5
sg6
S'https://open.spotify.com/track/19j4zJpumhQ2v0FottwCdD'
p1292
sg8
S'Sodom und Gomorrha'
p1293
ssS'2qOMpFfLZ0agDTouBxUDCb'
p1294
(dp1295
g3
S'Stereoact'
p1296
sg5
I1
sg6
S'https://open.spotify.com/track/2qOMpFfLZ0agDTouBxUDCb'
p1297
sg8
S'Die Immer Lacht - Radio 2016 Mix'
p1298
ssS'6YZdkObH88npeKrrkb8Ggf'
p1299
(dp1300
g3
S'Enrique Iglesias'
p1301
sg5
I1
sg6
S'https://open.spotify.com/track/6YZdkObH88npeKrrkb8Ggf'
p1302
sg8
S'DUELE EL CORAZON'
p1303
ssS'3HUV7iNGXCCZfdznDTpaz4'
p1304
(dp1305
g3
S'RAF Camora'
p1306
sg5
I3
sg6
S'https://open.spotify.com/track/3HUV7iNGXCCZfdznDTpaz4'
p1307
sg8
S'Donna Imma'
p1308
ssS'0WCEaydwN65cvwaW8aqptF'
p1309
(dp1310
g3
S'Olivia Holt'
p1311
sg5
I25
sg6
S'https://open.spotify.com/track/0WCEaydwN65cvwaW8aqptF'
p1312
sg8
S'History'
p1313
ssS'6KjbNLbRjuoa8rEq5yNA6H'
p1314
(dp1315
g3
S'The Chainsmokers'
p1316
sg5
I1
sg6
S'https://open.spotify.com/track/6KjbNLbRjuoa8rEq5yNA6H'
p1317
sg8
S'Honest'
p1318
ssS'6HzDEVbfnDD1p0qFKqiZWU'
p1319
(dp1320
g3
S'Maggie Rogers'
p1321
sg5
I1
sg6
S'https://open.spotify.com/track/6HzDEVbfnDD1p0qFKqiZWU'
p1322
sg8
S'On + Off'
p1323
ssS'5LhrVAtfslBvpyuKoo5yxA'
p1324
(dp1325
g3
S'KC Rebell'
p1326
sg5
I2
sg6
S'https://open.spotify.com/track/5LhrVAtfslBvpyuKoo5yxA'
p1327
sg8
S'Maximum'
p1328
ssS'3A7qX2QjDlPnazUsRk5y0M'
p1329
(dp1330
g3
S'David Guetta'
p1331
sg5
I17
sg6
S'https://open.spotify.com/track/3A7qX2QjDlPnazUsRk5y0M'
p1332
sg8
S'2U (feat. Justin Bieber)'
p1333
ssS'4FwI6qsU9xOCULmk8RdHrt'
p1334
(dp1335
g3
S'SpongeBOZZ'
p1336
sg5
I1
sg6
S'https://open.spotify.com/track/4FwI6qsU9xOCULmk8RdHrt'
p1337
sg8
S'Machinegunflows'
p1338
ssS'2bjwRfXMk4uRgOD9IBYl9h'
p1339
(dp1340
g3
S'Drake'
p1341
sg5
I8
sg6
S'https://open.spotify.com/track/2bjwRfXMk4uRgOD9IBYl9h'
p1342
sg8
S'Portland'
p1343
ssS'0FuTx2s3YH1ppmtiM6l0zI'
p1344
(dp1345
g3
S'JP Cooper'
p1346
sg5
I35
sg6
S'https://open.spotify.com/track/0FuTx2s3YH1ppmtiM6l0zI'
p1347
sg8
S'September Song'
p1348
ssS'0Zbbxnx4SGGHoIow4PpISP'
p1349
(dp1350
g3
S'Kygo'
p1351
sg5
I3
sg6
S'https://open.spotify.com/track/0Zbbxnx4SGGHoIow4PpISP'
p1352
sg8
S'Stargazing'
p1353
ssS'0SvD6EdetxVtXei2JhkV4B'
p1354
(dp1355
g3
S'Melanie Thornton'
p1356
sg5
I1
sg6
S'https://open.spotify.com/track/0SvD6EdetxVtXei2JhkV4B'
p1357
sg8
S'Wonderful Dream (Holidays Are Coming) - Radio Version'
p1358
ssS'5GFDrUTLGJix84sNhjCG0g'
p1359
(dp1360
g3
S'Amin\xc3\xa9'
p1361
sg5
I5
sg6
S'https://open.spotify.com/track/5GFDrUTLGJix84sNhjCG0g'
p1362
sg8
S'Caroline'
p1363
ssS'33B2QbtAj8mbDpwvGTOnBt'
p1364
(dp1365
g3
S'The xx'
p1366
sg5
I1
sg6
S'https://open.spotify.com/track/33B2QbtAj8mbDpwvGTOnBt'
p1367
sg8
S'Dangerous'
p1368
ssS'0azC730Exh71aQlOt9Zj3y'
p1369
(dp1370
g3
S'Calvin Harris'
p1371
sg5
I3
sg6
S'https://open.spotify.com/track/0azC730Exh71aQlOt9Zj3y'
p1372
sg8
S'This Is What You Came For'
p1373
ssS'1BMwsK4pa9KhiFmOp1oCjf'
p1374
(dp1375
g3
S'Michael Calfan'
p1376
sg5
I1
sg6
S'https://open.spotify.com/track/1BMwsK4pa9KhiFmOp1oCjf'
p1377
sg8
S'Nobody Does It Better'
p1378
ssS'6a9vKVMFfNBi741DVSit3H'
p1379
(dp1380
g3
S'Felix Jaehn'
p1381
sg5
I10
sg6
S'https://open.spotify.com/track/6a9vKVMFfNBi741DVSit3H'
p1382
sg8
S'Feel Good'
p1383
ssS'7i2DJ88J7jQ8K7zqFX2fW8'
p1384
(dp1385
g3
S'Halsey'
p1386
sg5
I10
sg6
S'https://open.spotify.com/track/7i2DJ88J7jQ8K7zqFX2fW8'
p1387
sg8
S'Now Or Never'
p1388
ssS'43ZyHQITOjhciSUUNPVRHc'
p1389
(dp1390
g3
S'Lil Pump'
p1391
sg5
I1
sg6
S'https://open.spotify.com/track/43ZyHQITOjhciSUUNPVRHc'
p1392
sg8
S'Gucci Gang'
p1393
ssS'715uqcez2DeFYNecXSoXDm'
p1394
(dp1395
g3
S'Capo'
p1396
sg5
I5
sg6
S'https://open.spotify.com/track/715uqcez2DeFYNecXSoXDm'
p1397
sg8
S'Lambo Diablo GT (feat. Nimo)'
p1398
ssS'5yUrHLEmImCPZ4VssugixY'
p1399
(dp1400
g3
S'Bilderbuch'
p1401
sg5
I1
sg6
S'https://open.spotify.com/track/5yUrHLEmImCPZ4VssugixY'
p1402
sg8
S'Investment 7'
p1403
ssS'5sNESr6pQfIhL3krM8CtZn'
p1404
(dp1405
g3
S'JAY Z'
p1406
sg5
I5
sg6
S'https://open.spotify.com/track/5sNESr6pQfIhL3krM8CtZn'
p1407
sg8
S'Numb / Encore'
p1408
ssS'68EMU2RD1ECNeOeJ5qAXCV'
p1409
(dp1410
g3
S'Charlie Puth'
p1411
sg5
I8
sg6
S'https://open.spotify.com/track/68EMU2RD1ECNeOeJ5qAXCV'
p1412
sg8
S"We Don't Talk Anymore (feat. Selena Gomez)"
p1413
ssS'0xl1w2q4VLojeXp4JfazPL'
p1414
(dp1415
g3
S'Drake'
p1416
sg5
I1
sg6
S'https://open.spotify.com/track/0xl1w2q4VLojeXp4JfazPL'
p1417
sg8
S'Sacrifices'
p1418
ssS'3b5Li4QKDVBx1x7fQuu54a'
p1419
(dp1420
g3
S'Alan Walker'
p1421
sg5
I21
sg6
S'https://open.spotify.com/track/3b5Li4QKDVBx1x7fQuu54a'
p1422
sg8
S'Tired'
p1423
ssS'2dqLk7ezV15LEJEwUmEbXB'
p1424
(dp1425
g3
S'Marian Hill'
p1426
sg5
I6
sg6
S'https://open.spotify.com/track/2dqLk7ezV15LEJEwUmEbXB'
p1427
sg8
S'Down'
p1428
ssS'6swQNgqYQmtBlUT7VydnxU'
p1429
(dp1430
g3
S'Matt Simons'
p1431
sg5
I2
sg6
S'https://open.spotify.com/track/6swQNgqYQmtBlUT7VydnxU'
p1432
sg8
S'Lose Control'
p1433
ssS'1TrLCDiTHAkjxi7hQEMJID'
p1434
(dp1435
g3
S'Wanda'
p1436
sg5
I1
sg6
S'https://open.spotify.com/track/1TrLCDiTHAkjxi7hQEMJID'
p1437
sg8
S'Lascia mi fare'
p1438
ssS'1j4kHkkpqZRBwE0A4CN4Yv'
p1439
(dp1440
g3
S'ZAYN'
p1441
sg5
I5
sg6
S'https://open.spotify.com/track/1j4kHkkpqZRBwE0A4CN4Yv'
p1442
sg8
S'Dusk Till Dawn - Radio Edit'
p1443
ssS'5XiZK7m9PLppgIzJBpw2x5'
p1444
(dp1445
g3
S'Martin Jensen'
p1446
sg5
I2
sg6
S'https://open.spotify.com/track/5XiZK7m9PLppgIzJBpw2x5'
p1447
sg8
S'Wait'
p1448
ssS'1cImYkHOQMFE7AZC9aOk4y'
p1449
(dp1450
g3
S'Bobby Helms'
p1451
sg5
I1
sg6
S'https://open.spotify.com/track/1cImYkHOQMFE7AZC9aOk4y'
p1452
sg8
S'Jingle Bell Rock'
p1453
ssS'6MbH1QiphMCPTqVEVC7UYi'
p1454
(dp1455
g3
S'Drake'
p1456
sg5
I1
sg6
S'https://open.spotify.com/track/6MbH1QiphMCPTqVEVC7UYi'
p1457
sg8
S'Nothings Into Somethings'
p1458
ssS'4VuS959DSpr82t3qBqCrWG'
p1459
(dp1460
g3
S'Ed Sheeran'
p1461
sg5
I9
sg6
S'https://open.spotify.com/track/4VuS959DSpr82t3qBqCrWG'
p1462
sg8
S'Supermarket Flowers'
p1463
ssS'05aYPqscr6UPjgU3ha3vzD'
p1464
(dp1465
g3
S'Gentleman'
p1466
sg5
I12
sg6
S'https://open.spotify.com/track/05aYPqscr6UPjgU3ha3vzD'
p1467
sg8
S'Ovaload'
p1468
ssS'2DGa7iaidT5s0qnINlwMjJ'
p1469
(dp1470
g3
S'Alan Walker'
p1471
sg5
I4
sg6
S'https://open.spotify.com/track/2DGa7iaidT5s0qnINlwMjJ'
p1472
sg8
S'The Spectre'
p1473
ssS'6hB5hpMGCIriSNCH0d2zHY'
p1474
(dp1475
g3
S'KC Rebell'
p1476
sg5
I2
sg6
S'https://open.spotify.com/track/6hB5hpMGCIriSNCH0d2zHY'
p1477
sg8
S'Nicht jetzt'
p1478
ssS'2B34tpFauZkTgIWjUviXRw'
p1479
(dp1480
g3
S'Wanda'
p1481
sg5
I1
sg6
S'https://open.spotify.com/track/2B34tpFauZkTgIWjUviXRw'
p1482
sg8
S'Das Ende der Kindheit'
p1483
ssS'1ssmjAYSU5PbmsjLq5yrNH'
p1484
(dp1485
g3
S'Sia'
p1486
sg5
I21
sg6
S'https://open.spotify.com/track/1ssmjAYSU5PbmsjLq5yrNH'
p1487
sg8
S'Never Give Up'
p1488
ssS'0Zx8khUcEfCFK2AEoIhC92'
p1489
(dp1490
g3
S'Snakehips'
p1491
sg5
I19
sg6
S'https://open.spotify.com/track/0Zx8khUcEfCFK2AEoIhC92'
p1492
sg8
S"Don't Leave"
p1493
ssS'15dnkAHcHC0vrIUlbiPiqU'
p1494
(dp1495
g3
S'Imagine Dragons'
p1496
sg5
I1
sg6
S'https://open.spotify.com/track/15dnkAHcHC0vrIUlbiPiqU'
p1497
sg8
S'I Don\xe2\x80\x99t Know Why'
p1498
ssS'5peJfpkLPMilv44VqUa2AS'
p1499
(dp1500
g3
S'SXTN'
p1501
sg5
I2
sg6
S'https://open.spotify.com/track/5peJfpkLPMilv44VqUa2AS'
p1502
sg8
S'Bongzimmer'
p1503
ssS'2opHCc3qNPHIaHPKQmOYIl'
p1504
(dp1505
g3
S'Sarah Connor'
p1506
sg5
I1
sg6
S'https://open.spotify.com/track/2opHCc3qNPHIaHPKQmOYIl'
p1507
sg8
S'The Best Side Of Life'
p1508
ssS'6HBoFD22226RxPmFLwq0D7'
p1509
(dp1510
g3
S'Falco'
p1511
sg5
I1
sg6
S'https://open.spotify.com/track/6HBoFD22226RxPmFLwq0D7'
p1512
sg8
S'Vienna Calling - Parov Stelar Remix'
p1513
ssS'4LAWlXLfXGgLBVsEJasi3m'
p1514
(dp1515
g3
S'Metrickz'
p1516
sg5
I2
sg6
S'https://open.spotify.com/track/4LAWlXLfXGgLBVsEJasi3m'
p1517
sg8
S'WEIHRAUCH'
p1518
ssS'4bPWDXpN6MlTZBedxega3X'
p1519
(dp1520
g3
S'Alice Merton'
p1521
sg5
I26
sg6
S'https://open.spotify.com/track/4bPWDXpN6MlTZBedxega3X'
p1522
sg8
S'No Roots'
p1523
ssS'1r1fPuhj9H4VdXr7OK6FL5'
p1524
(dp1525
g3
S'Linkin Park'
p1526
sg5
I1
sg6
S'https://open.spotify.com/track/1r1fPuhj9H4VdXr7OK6FL5'
p1527
sg8
S'CASTLE OF GLASS'
p1528
ssS'33SNO8AaciGbNaQFkxvPrW'
p1529
(dp1530
g3
S'Harry Styles'
p1531
sg5
I2
sg6
S'https://open.spotify.com/track/33SNO8AaciGbNaQFkxvPrW'
p1532
sg8
S'Kiwi'
p1533
ssS'6n3HGiq4v35D6eFOSwqYuo'
p1534
(dp1535
g3
S'Drake'
p1536
sg5
I2
sg6
S'https://open.spotify.com/track/6n3HGiq4v35D6eFOSwqYuo'
p1537
sg8
S'Teenage Fever'
p1538
ssS'61WbtB6ujkpNAsAf5LjF4b'
p1539
(dp1540
g3
S'Katy Perry'
p1541
sg5
I9
sg6
S'https://open.spotify.com/track/61WbtB6ujkpNAsAf5LjF4b'
p1542
sg8
S'Bon app\xc3\xa9tit'
p1543
ssS'2bBMODHVTXGwE2aZYfbgCt'
p1544
(dp1545
g3
S'Gorillaz'
p1546
sg5
I1
sg6
S'https://open.spotify.com/track/2bBMODHVTXGwE2aZYfbgCt'
p1547
sg8
S'Ascension (feat. Vince Staples)'
p1548
ssS'0YHUITU3w6ws1v8ehT264g'
p1549
(dp1550
g3
S'Little Mix'
p1551
sg5
I6
sg6
S'https://open.spotify.com/track/0YHUITU3w6ws1v8ehT264g'
p1552
sg8
S'Shout Out to My Ex'
p1553
ssS'5yuShbu70mtHXY0yLzCQLQ'
p1554
(dp1555
g3
S'Post Malone'
p1556
sg5
I4
sg6
S'https://open.spotify.com/track/5yuShbu70mtHXY0yLzCQLQ'
p1557
sg8
S'Go Flex'
p1558
ssS'39qlqpwVzRkQP6WsILfIB5'
p1559
(dp1560
g3
S'KC Rebell'
p1561
sg5
I20
sg6
S'https://open.spotify.com/track/39qlqpwVzRkQP6WsILfIB5'
p1562
sg8
S'Murcielago'
p1563
ssS'3dJj6o9o1fRgrojWjailuz'
p1564
(dp1565
g3
S'Linkin Park'
p1566
sg5
I1
sg6
S'https://open.spotify.com/track/3dJj6o9o1fRgrojWjailuz'
p1567
sg8
S'Nobody Can Save Me'
p1568
ssS'3bVbQvGVIe4n24AzyXovXh'
p1569
(dp1570
g3
g372
sg5
I1
sg6
S'https://open.spotify.com/track/3bVbQvGVIe4n24AzyXovXh'
p1571
sg8
g372
ssS'36XNdtXaPIAfhOiyKIPpWl'
p1572
(dp1573
g3
S'Veysel'
p1574
sg5
I6
sg6
S'https://open.spotify.com/track/36XNdtXaPIAfhOiyKIPpWl'
p1575
sg8
S'Kleiner Cabr\xc3\xb3n'
p1576
ssS'2NWZiXyRdKEolP8QrjBGmp'
p1577
(dp1578
g3
S'RAF Camora'
p1579
sg5
I7
sg6
S'https://open.spotify.com/track/2NWZiXyRdKEolP8QrjBGmp'
p1580
sg8
S'Andere Liga'
p1581
ssS'5tf1VVWniHgryyumXyJM7w'
p1582
(dp1583
g3
S'Robin Schulz'
p1584
sg5
I6
sg6
S'https://open.spotify.com/track/5tf1VVWniHgryyumXyJM7w'
p1585
sg8
S'Sugar (feat. Francesco Yates)'
p1586
ssS'15iLdoYlEqbJn9am1b6GLn'
p1587
(dp1588
g3
S'Bilderbuch'
p1589
sg5
I1
sg6
S'https://open.spotify.com/track/15iLdoYlEqbJn9am1b6GLn'
p1590
sg8
S'Babylon'
p1591
ssS'5eek2X5459T1HoYJk2CKXv'
p1592
(dp1593
g3
S'Papa Roach'
p1594
sg5
I24
sg6
S'https://open.spotify.com/track/5eek2X5459T1HoYJk2CKXv'
p1595
sg8
S'Last Resort'
p1596
ssS'2XlHu0HcujBCkWMdIAvrqt'
p1597
(dp1598
g3
S'Drake'
p1599
sg5
I5
sg6
S'https://open.spotify.com/track/2XlHu0HcujBCkWMdIAvrqt'
p1600
sg8
S'Blem'
p1601
ssS'5f5r2N4Lp9WoULWPH9zp2W'
p1602
(dp1603
g3
S'Drake'
p1604
sg5
I1
sg6
S'https://open.spotify.com/track/5f5r2N4Lp9WoULWPH9zp2W'
p1605
sg8
S"Can't Have Everything"
p1606
ssS'3KD8GGxoGJOJVuy4775MFn'
p1607
(dp1608
g3
S'Pizzera & Jaus'
p1609
sg5
I3
sg6
S'https://open.spotify.com/track/3KD8GGxoGJOJVuy4775MFn'
p1610
sg8
S'jedermann'
p1611
ssS'4riWElAB3gcltV7vrfHcOJ'
p1612
(dp1613
g3
S'RIN'
p1614
sg5
I1
sg6
S'https://open.spotify.com/track/4riWElAB3gcltV7vrfHcOJ'
p1615
sg8
S'Gamma'
p1616
ssS'3iwZ8hg0q1kTBB5kjg0nO4'
p1617
(dp1618
g3
S'Slade'
p1619
sg5
I1
sg6
S'https://open.spotify.com/track/3iwZ8hg0q1kTBB5kjg0nO4'
p1620
sg8
S'Merry Xmas Everybody'
p1621
ssS'7nAfXgeHfDO50upcOjJOaq'
p1622
(dp1623
g3
S'Linkin Park'
p1624
sg5
I3
sg6
S'https://open.spotify.com/track/7nAfXgeHfDO50upcOjJOaq'
p1625
sg8
S'Talking to Myself'
p1626
ssS'5hYTyyh2odQKphUbMqc5gN'
p1627
(dp1628
g3
S'Alessia Cara'
p1629
sg5
I20
sg6
S'https://open.spotify.com/track/5hYTyyh2odQKphUbMqc5gN'
p1630
sg8
S"How Far I'll Go - From Moana"
p1631
ssS'1DLOUgkOuBQ86na4LfYJGd'
p1632
(dp1633
g3
S'Capital Bra'
p1634
sg5
I1
sg6
S'https://open.spotify.com/track/1DLOUgkOuBQ86na4LfYJGd'
p1635
sg8
S'Bra macht die AK'
p1636
ssS'2IDDQFHRf9iH35jeL89uNs'
p1637
(dp1638
g3
S'Alle Farben'
p1639
sg5
I6
sg6
S'https://open.spotify.com/track/2IDDQFHRf9iH35jeL89uNs'
p1640
sg8
S'Please Tell Rosie'
p1641
ssS'1sBhJGPUKrdRycgKxve70v'
p1642
(dp1643
g3
S'Felix Jaehn'
p1644
sg5
I22
sg6
S'https://open.spotify.com/track/1sBhJGPUKrdRycgKxve70v'
p1645
sg8
S'Hot2Touch'
p1646
ssS'72jbDTw1piOOj770jWNeaG'
p1647
(dp1648
g3
S'The Chainsmokers'
p1649
sg5
I39
sg6
S'https://open.spotify.com/track/72jbDTw1piOOj770jWNeaG'
p1650
sg8
S'Paris'
p1651
ssS'12REd1n8PeiHHWOh066tpr'
p1652
(dp1653
g3
S'Flume'
p1654
sg5
I2
sg6
S'https://open.spotify.com/track/12REd1n8PeiHHWOh066tpr'
p1655
sg8
S'Never Be Like You'
p1656
ssS'7hCJgEQQqOlQrWQ9iOZ495'
p1657
(dp1658
g3
S'187 Strassenbande'
p1659
sg5
I3
sg6
S'https://open.spotify.com/track/7hCJgEQQqOlQrWQ9iOZ495'
p1660
sg8
S'100er Batzen'
p1661
ssS'1UXyQicTgZI4PT4zflpodi'
p1662
(dp1663
g3
S'Wincent Weiss'
p1664
sg5
I6
sg6
S'https://open.spotify.com/track/1UXyQicTgZI4PT4zflpodi'
p1665
sg8
S'Musik sein'
p1666
ssS'2rb5MvYT7ZIxbKW5hfcHx8'
p1667
(dp1668
g3
S'J Balvin'
p1669
sg5
I15
sg6
S'https://open.spotify.com/track/2rb5MvYT7ZIxbKW5hfcHx8'
p1670
sg8
S'Mi Gente'
p1671
ssS'3BDJQNagxTyHWKNvcHtsin'
p1672
(dp1673
g3
S'Mert'
p1674
sg5
I1
sg6
S'https://open.spotify.com/track/3BDJQNagxTyHWKNvcHtsin'
p1675
sg8
S'Asozial'
p1676
ssS'2sWOUbbdQ4S1qMkrgfjBVU'
p1677
(dp1678
g3
S'Fler'
p1679
sg5
I1
sg6
S'https://open.spotify.com/track/2sWOUbbdQ4S1qMkrgfjBVU'
p1680
sg8
S'Hype'
p1681
ssS'3kdMzXOcrDIdSWLdONHNK5'
p1682
(dp1683
g3
S'Foo Fighters'
p1684
sg5
I1
sg6
S'https://open.spotify.com/track/3kdMzXOcrDIdSWLdONHNK5'
p1685
sg8
S'The Sky Is A Neighborhood'
p1686
ssS'7gdV4FZsK7RG9rQY3aJ5LL'
p1687
(dp1688
g3
S'Wanda'
p1689
sg5
I1
sg6
S'https://open.spotify.com/track/7gdV4FZsK7RG9rQY3aJ5LL'
p1690
sg8
S'Lieb sein'
p1691
ssS'0lmdsH1MIoLsMymnNpd6HU'
p1692
(dp1693
g3
S'Dante Klein'
p1694
sg5
I10
sg6
S'https://open.spotify.com/track/0lmdsH1MIoLsMymnNpd6HU'
p1695
sg8
S'Let Me Hold You (Turn Me On)'
p1696
ssS'6YnzBV7YkaXZNCK3tlnCfg'
p1697
(dp1698
g3
S'Boney M.'
p1699
sg5
I1
sg6
S'https://open.spotify.com/track/6YnzBV7YkaXZNCK3tlnCfg'
p1700
sg8
S"Mary's Boy Child / Oh My Lord"
p1701
ssS'2KvHC9z14GSl4YpkNMX384'
p1702
(dp1703
g3
S'Drake'
p1704
sg5
I1
sg6
S'https://open.spotify.com/track/2KvHC9z14GSl4YpkNMX384'
p1705
sg8
S'Do Not Disturb'
p1706
ssS'2gbCG4Rt9984UZ7Tc0dIFd'
p1707
(dp1708
g3
S'Michael Bubl\xc3\xa9'
p1709
sg5
I1
sg6
S'https://open.spotify.com/track/2gbCG4Rt9984UZ7Tc0dIFd'
p1710
sg8
S'White Christmas (Duet With Shania Twain)'
p1711
ssS'4IWAyPf1KMq7JCyGeCjTeH'
p1712
(dp1713
g3
S'Imagine Dragons'
p1714
sg5
I7
sg6
S'https://open.spotify.com/track/4IWAyPf1KMq7JCyGeCjTeH'
p1715
sg8
S'Whatever It Takes'
p1716
ssS'7n3gMr9zJreX5de9cP2neS'
p1717
(dp1718
g3
S'Pizzera & Jaus'
p1719
sg5
I3
sg6
S'https://open.spotify.com/track/7n3gMr9zJreX5de9cP2neS'
p1720
sg8
S'abs\xc3\xa4tze > haupts\xc3\xa4tze'
p1721
ssS'77lGafvlU68CeHgB2pkHC9'
p1722
(dp1723
g3
S'Machine Gun Kelly'
p1724
sg5
I10
sg6
S'https://open.spotify.com/track/77lGafvlU68CeHgB2pkHC9'
p1725
sg8
S'At My Best (feat. Hailee Steinfeld)'
p1726
ssS'0dA2Mk56wEzDgegdC6R17g'
p1727
(dp1728
g3
S'Zedd'
p1729
sg5
I33
sg6
S'https://open.spotify.com/track/0dA2Mk56wEzDgegdC6R17g'
p1730
sg8
S'Stay (with Alessia Cara)'
p1731
ssS'5zQgXYRkfq79wNzTW5uFMG'
p1732
(dp1733
g3
S'SpongeBOZZ'
p1734
sg5
I1
sg6
S'https://open.spotify.com/track/5zQgXYRkfq79wNzTW5uFMG'
p1735
sg8
S'Yellow Bar Mitzvah'
p1736
ssS'3kGfazcbVvVkuZunzlLgTD'
p1737
(dp1738
g3
S'Sigala'
p1739
sg5
I18
sg6
S'https://open.spotify.com/track/3kGfazcbVvVkuZunzlLgTD'
p1740
sg8
S'Came Here for Love'
p1741
ssS'5nD55MtxZ3QdhNUWkPofEt'
p1742
(dp1743
g3
S'Casper'
p1744
sg5
I1
sg6
S'https://open.spotify.com/track/5nD55MtxZ3QdhNUWkPofEt'
p1745
sg8
S'Keine Angst'
p1746
ssS'3UjJP4ludb74a29P5EHEIo'
p1747
(dp1748
g3
S'Sabrina Carpenter'
p1749
sg5
I1
sg6
S'https://open.spotify.com/track/3UjJP4ludb74a29P5EHEIo'
p1750
sg8
S'Thumbs'
p1751
ssS'7gZQfdEQpmwAoPHSbEHzms'
p1752
(dp1753
g3
S'Matoma'
p1754
sg5
I1
sg6
S'https://open.spotify.com/track/7gZQfdEQpmwAoPHSbEHzms'
p1755
sg8
S'False Alarm'
p1756
ssS'3Ytr1SUCUi6J3L9dRFx5iH'
p1757
(dp1758
g3
S'Major Lazer'
p1759
sg5
I19
sg6
S'https://open.spotify.com/track/3Ytr1SUCUi6J3L9dRFx5iH'
p1760
sg8
S'Know No Better (feat. Quavo)'
p1761
ssS'6XFoohFV6lU0J6n0g8VfdZ'
p1762
(dp1763
g3
S'Capital Bra'
p1764
sg5
I4
sg6
S'https://open.spotify.com/track/6XFoohFV6lU0J6n0g8VfdZ'
p1765
sg8
S'KUKU SLS'
p1766
ssS'1qfM92o8OuFfWouqqfUBF8'
p1767
(dp1768
g3
S'Trettmann'
p1769
sg5
I2
sg6
S'https://open.spotify.com/track/1qfM92o8OuFfWouqqfUBF8'
p1770
sg8
S'Kn\xc3\xb6cheltief'
p1771
ssS'6v6xHeuMLbCuddN0ETrGhs'
p1772
(dp1773
g3
S'Bonez MC'
p1774
sg5
I18
sg6
S'https://open.spotify.com/track/6v6xHeuMLbCuddN0ETrGhs'
p1775
sg8
S'M\xc3\xb6rder'
p1776
ssS'2wpHrEs8EYljXF4BOpBfZ5'
p1777
(dp1778
g3
S'Bushido'
p1779
sg5
I1
sg6
S'https://open.spotify.com/track/2wpHrEs8EYljXF4BOpBfZ5'
p1780
sg8
S'Geschlossene Gesellschaft'
p1781
ssS'35GSwxl4LYtOATVIXqmAPA'
p1782
(dp1783
g3
S'187 Strassenbande'
p1784
sg5
I3
sg6
S'https://open.spotify.com/track/35GSwxl4LYtOATVIXqmAPA'
p1785
sg8
S'L\xc3\xa4cheln'
p1786
ssS'1OmcAT5Y8eg5bUPv9qJT4R'
p1787
(dp1788
g3
S'Post Malone'
p1789
sg5
I3
sg6
S'https://open.spotify.com/track/1OmcAT5Y8eg5bUPv9qJT4R'
p1790
sg8
S'rockstar'
p1791
ssS'1iPTSLcoezNpFMaXK29EsG'
p1792
(dp1793
g3
S'Ufo361'
p1794
sg5
I10
sg6
S'https://open.spotify.com/track/1iPTSLcoezNpFMaXK29EsG'
p1795
sg8
S'Der Pate'
p1796
ssS'7CiatbFJpSnXnbCiVaGlm0'
p1797
(dp1798
g3
S'JOWST'
p1799
sg5
I1
sg6
S'https://open.spotify.com/track/7CiatbFJpSnXnbCiVaGlm0'
p1800
sg8
S'Grab The Moment'
p1801
ssS'7nZmah2llfvLDiUjm0kiyz'
p1802
(dp1803
g3
S'Justin Bieber'
p1804
sg5
I8
sg6
S'https://open.spotify.com/track/7nZmah2llfvLDiUjm0kiyz'
p1805
sg8
S'Friends (with BloodPop\xc2\xae)'
p1806
ssS'0y9uTzK9cNKSAEHnpeRG8C'
p1807
(dp1808
g3
S'Kendrick Lamar'
p1809
sg5
I1
sg6
S'https://open.spotify.com/track/0y9uTzK9cNKSAEHnpeRG8C'
p1810
sg8
S'DUCKWORTH.'
p1811
ssS'75clRtmtXSkZsPm6SjjQ5j'
p1812
(dp1813
g3
S'Frank Sinatra'
p1814
sg5
I1
sg6
S'https://open.spotify.com/track/75clRtmtXSkZsPm6SjjQ5j'
p1815
sg8
S"Santa Claus Is Comin' to Town"
p1816
ssS'3heSzLa3mZqkbgor1vTDQU'
p1817
(dp1818
g3
S'Cro'
p1819
sg5
I1
sg6
S'https://open.spotify.com/track/3heSzLa3mZqkbgor1vTDQU'
p1820
sg8
S'paperdreams'
p1821
ssS'3ZBI7OtSROoZ7GIwSJyq0L'
p1822
(dp1823
g3
S'Backstreet Boys'
p1824
sg5
I1
sg6
S'https://open.spotify.com/track/3ZBI7OtSROoZ7GIwSJyq0L'
p1825
sg8
S"It's Christmas Time Again"
p1826
ssS'53mrVsi49rLHIaKBiSvElG'
p1827
(dp1828
g3
S'blackbear'
p1829
sg5
I2
sg6
S'https://open.spotify.com/track/53mrVsi49rLHIaKBiSvElG'
p1830
sg8
S'do re mi (feat. Gucci Mane)'
p1831
ssS'1gZiMepNOEJyGS6VkegGrn'
p1832
(dp1833
g3
S'Bushido'
p1834
sg5
I1
sg6
S'https://open.spotify.com/track/1gZiMepNOEJyGS6VkegGrn'
p1835
sg8
S'Fallout'
p1836
ssS'6D0b04NJIKfEMg040WioJQ'
p1837
(dp1838
g3
S'Julia Michaels'
p1839
sg5
I1
sg6
S'https://open.spotify.com/track/6D0b04NJIKfEMg040WioJQ'
p1840
sg8
S'Issues'
p1841
ssS'5oAgI7Pzg6vxuKrfapg3Pi'
p1842
(dp1843
g3
S'Martin Garrix'
p1844
sg5
I1
sg6
S'https://open.spotify.com/track/5oAgI7Pzg6vxuKrfapg3Pi'
p1845
sg8
S'Pizza'
p1846
ssS'4gWpUjTbcwASiRVkJM319B'
p1847
(dp1848
g3
S'OneRepublic'
p1849
sg5
I1
sg6
S'https://open.spotify.com/track/4gWpUjTbcwASiRVkJM319B'
p1850
sg8
S'Christmas Without You'
p1851
ssS'7fwXWKdDNI5IutOMc5OKYw'
p1852
(dp1853
g3
S'J Balvin'
p1854
sg5
I2
sg6
S'https://open.spotify.com/track/7fwXWKdDNI5IutOMc5OKYw'
p1855
sg8
S'Mi Gente (feat. Beyonc\xc3\xa9)'
p1856
ssS'7of1slAJIWrXxP8ikAHxje'
p1857
(dp1858
g3
S'James Hersey'
p1859
sg5
I18
sg6
S'https://open.spotify.com/track/7of1slAJIWrXxP8ikAHxje'
p1860
sg8
S'Miss You'
p1861
ssS'2dfHh7ECGxfNqZTQno09Vk'
p1862
(dp1863
g3
S'Ed Sheeran'
p1864
sg5
I5
sg6
S'https://open.spotify.com/track/2dfHh7ECGxfNqZTQno09Vk'
p1865
sg8
S"Hearts Don't Break Around Here"
p1866
ssS'6n8TMVyFKoUmDc4apxceRD'
p1867
(dp1868
g3
S'Linkin Park'
p1869
sg5
I1
sg6
S'https://open.spotify.com/track/6n8TMVyFKoUmDc4apxceRD'
p1870
sg8
S'Breaking The Habit'
p1871
ssS'1xznGGDReH1oQq0xzbwXa3'
p1872
(dp1873
g3
S'Drake'
p1874
sg5
I31
sg6
S'https://open.spotify.com/track/1xznGGDReH1oQq0xzbwXa3'
p1875
sg8
S'One Dance'
p1876
ssS'6oh6njZqTXlIkHDC2tjvWi'
p1877
(dp1878
g3
S'Cro'
p1879
sg5
I5
sg6
S'https://open.spotify.com/track/6oh6njZqTXlIkHDC2tjvWi'
p1880
sg8
S'todas'
p1881
ssS'5DunkTHxwszBIlEdBeyU6q'
p1882
(dp1883
g3
S'Topic'
p1884
sg5
I12
sg6
S'https://open.spotify.com/track/5DunkTHxwszBIlEdBeyU6q'
p1885
sg8
S'Break My Habits'
p1886
ssS'7l9CE3wmEGOUYw1j4ETjnL'
p1887
(dp1888
g3
S'Gorillaz'
p1889
sg5
I2
sg6
S'https://open.spotify.com/track/7l9CE3wmEGOUYw1j4ETjnL'
p1890
sg8
S'Saturnz Barz (feat. Popcaan)'
p1891
ssS'5fc6rQgAKiLutfUYWQ6QnJ'
p1892
(dp1893
g3
S'Sia'
p1894
sg5
I5
sg6
S'https://open.spotify.com/track/5fc6rQgAKiLutfUYWQ6QnJ'
p1895
sg8
S'Helium - From Fifty Shades Darker (Original Motion Picture Soundtrack)'
p1896
ssS'4WdCxlUyj3TCTBaJx5s9tF'
p1897
(dp1898
g3
S'Sigrid'
p1899
sg5
I5
sg6
S'https://open.spotify.com/track/4WdCxlUyj3TCTBaJx5s9tF'
p1900
sg8
S"Don't Kill My Vibe"
p1901
ssS'0NiXXAI876aGImAd6rTj8w'
p1902
(dp1903
g3
S'Jonas Blue'
p1904
sg5
I14
sg6
S'https://open.spotify.com/track/0NiXXAI876aGImAd6rTj8w'
p1905
sg8
S'Mama'
p1906
ssS'343YBumqHu19cGoGARUTsd'
p1907
(dp1908
g3
S'Drake'
p1909
sg5
I20
sg6
S'https://open.spotify.com/track/343YBumqHu19cGoGARUTsd'
p1910
sg8
S'Fake Love'
p1911
ssS'5HDPtsnyb3maFmPL8LLUTG'
p1912
(dp1913
g3
S'Ed Sheeran'
p1914
sg5
I8
sg6
S'https://open.spotify.com/track/5HDPtsnyb3maFmPL8LLUTG'
p1915
sg8
S'New Man'
p1916
ssS'3D3Tkk0d9UmECpH5Fprmuv'
p1917
(dp1918
g3
S'SRTW'
p1919
sg5
I15
sg6
S'https://open.spotify.com/track/3D3Tkk0d9UmECpH5Fprmuv'
p1920
sg8
S'Whispering Still (feat. Charity Children) - Little Rose Remix'
p1921
ssS'5MQnMbyLe8aviuxO4Wwh3L'
p1922
(dp1923
g3
S'John Legend'
p1924
sg5
I1
sg6
S'https://open.spotify.com/track/5MQnMbyLe8aviuxO4Wwh3L'
p1925
sg8
S'Under the Stars'
p1926
ssS'6xUAxtCyjwnLCzXIT81DSA'
p1927
(dp1928
g3
S'Cro'
p1929
sg5
I1
sg6
S'https://open.spotify.com/track/6xUAxtCyjwnLCzXIT81DSA'
p1930
sg8
S'no. 105'
p1931
ssS'3aLSrx8qhssXrh5yjB6oy9'
p1932
(dp1933
g3
S'Martin Solveig'
p1934
sg5
I12
sg6
S'https://open.spotify.com/track/3aLSrx8qhssXrh5yjB6oy9'
p1935
sg8
S'All Stars'
p1936
ssS'6WbADFqMvR8N5u0BvtsWQE'
p1937
(dp1938
g3
S'Avicii'
p1939
sg5
I9
sg6
S'https://open.spotify.com/track/6WbADFqMvR8N5u0BvtsWQE'
p1940
sg8
S'Without You (feat. Sandro Cavazza)'
p1941
ssS'6F0fXw4G0dqRWJnvWPZM67'
p1942
(dp1943
g3
S'Kollegah'
p1944
sg5
I3
sg6
S'https://open.spotify.com/track/6F0fXw4G0dqRWJnvWPZM67'
p1945
sg8
S"Zieh' den Rucksack aus"
p1946
ssS'75JFxkI2RXiU7L9VXzMkle'
p1947
(dp1948
g3
S'Coldplay'
p1949
sg5
I1
sg6
S'https://open.spotify.com/track/75JFxkI2RXiU7L9VXzMkle'
p1950
sg8
S'The Scientist'
p1951
ssS'4pdPtRcBmOSQDlJ3Fk945m'
p1952
(dp1953
g3
S'DJ Snake'
p1954
sg5
I27
sg6
S'https://open.spotify.com/track/4pdPtRcBmOSQDlJ3Fk945m'
p1955
sg8
S'Let Me Love You'
p1956
ssS'25V3y1lVPuZ09ZcmliMAmQ'
p1957
(dp1958
g3
S'Pizzera & Jaus'
p1959
sg5
I6
sg6
S'https://open.spotify.com/track/25V3y1lVPuZ09ZcmliMAmQ'
p1960
sg8
S'eine ins leben'
p1961
ssS'5EnYT6F7wEcdege6mDHEfO'
p1962
(dp1963
g3
S'Drake'
p1964
sg5
I7
sg6
S'https://open.spotify.com/track/5EnYT6F7wEcdege6mDHEfO'
p1965
sg8
S'Signs'
p1966
ssS'1uoL9GX45dTnmrWQ7Ii1Ft'
p1967
(dp1968
g3
S'Halsey'
p1969
sg5
I1
sg6
S'https://open.spotify.com/track/1uoL9GX45dTnmrWQ7Ii1Ft'
p1970
sg8
S'Not Afraid Anymore'
p1971
ssS'1OAiWI2oPmglaOiv9fdioU'
p1972
(dp1973
g3
S'Coldplay'
p1974
sg5
I7
sg6
S'https://open.spotify.com/track/1OAiWI2oPmglaOiv9fdioU'
p1975
sg8
S'Hymn For The Weekend - Seeb Remix'
p1976
ssS'5UhZzVVN80wpa08kzCJHBh'
p1977
(dp1978
g3
S'Art Garfunkel'
p1979
sg5
I1
sg6
S'https://open.spotify.com/track/5UhZzVVN80wpa08kzCJHBh'
p1980
sg8
S'O Come All Ye Faithful'
p1981
ssS'7LEydI5NfjY6mZfKwYIptZ'
p1982
(dp1983
g3
S'Fifth Harmony'
p1984
sg5
I5
sg6
S'https://open.spotify.com/track/7LEydI5NfjY6mZfKwYIptZ'
p1985
sg8
S'Down'
p1986
ssS'5QbV0bUKHj33EySKPw9wOH'
p1987
(dp1988
g3
S'PA Sports'
p1989
sg5
I1
sg6
S'https://open.spotify.com/track/5QbV0bUKHj33EySKPw9wOH'
p1990
sg8
S'HSHC'
p1991
ssS'2Na0z2gfN67Rzf0vp74Wi3'
p1992
(dp1993
g3
S'Drake'
p1994
sg5
I1
sg6
S'https://open.spotify.com/track/2Na0z2gfN67Rzf0vp74Wi3'
p1995
sg8
S'Lose You'
p1996
ssS'5qeL0fWg4IDLZNUjVu53f2'
p1997
(dp1998
g3
S'filous'
p1999
sg5
I3
sg6
S'https://open.spotify.com/track/5qeL0fWg4IDLZNUjVu53f2'
p2000
sg8
S'Feel Good Inc.'
p2001
ssS'7oK9VyNzrYvRFo7nQEYkWN'
p2002
(dp2003
g3
S'The Killers'
p2004
sg5
I10
sg6
S'https://open.spotify.com/track/7oK9VyNzrYvRFo7nQEYkWN'
p2005
sg8
S'Mr. Brightside'
p2006
ssS'3FiE2d325mIOc4YjkSLVJR'
p2007
(dp2008
g3
S'Ariana Grande'
p2009
sg5
I4
sg6
S'https://open.spotify.com/track/3FiE2d325mIOc4YjkSLVJR'
p2010
sg8
S'Everyday'
p2011
ssS'16gn3fgWfX2LMjsHHAKrta'
p2012
(dp2013
g3
S'Wanda'
p2014
sg5
I1
sg6
S'https://open.spotify.com/track/16gn3fgWfX2LMjsHHAKrta'
p2015
sg8
S'0043'
p2016
ssS'5OOkp4U9P9oL23maHFHL1h'
p2017
(dp2018
g3
S'Desiigner'
p2019
sg5
I13
sg6
S'https://open.spotify.com/track/5OOkp4U9P9oL23maHFHL1h'
p2020
sg8
S'Panda'
p2021
ssS'2KMJ5CoxY4ECG9TZyNWmpv'
p2022
(dp2023
g3
S'Robin Schulz'
p2024
sg5
I6
sg6
S'https://open.spotify.com/track/2KMJ5CoxY4ECG9TZyNWmpv'
p2025
sg8
S'Heatwave (feat. Akon)'
p2026
ssS'3C0XXgpDgN4UMqC5rATVyO'
p2027
(dp2028
g3
S'Capital Bra'
p2029
sg5
I1
sg6
S'https://open.spotify.com/track/3C0XXgpDgN4UMqC5rATVyO'
p2030
sg8
S'Richtung Para'
p2031
ssS'7anBA0IdgFaN3Pbyk2tog0'
p2032
(dp2033
g3
S'Alice Merton'
p2034
sg5
I10
sg6
S'https://open.spotify.com/track/7anBA0IdgFaN3Pbyk2tog0'
p2035
sg8
S'No Roots'
p2036
ssS'3qmvK8QARSPkFTuKeIXSbs'
p2037
(dp2038
g3
S'Linkin Park'
p2039
sg5
I2
sg6
S'https://open.spotify.com/track/3qmvK8QARSPkFTuKeIXSbs'
p2040
sg8
S'Bleed It Out'
p2041
ssS'7y6c07pgjZvtHI9kuMVqk1'
p2042
(dp2043
g3
S'Drake'
p2044
sg5
I3
sg6
S'https://open.spotify.com/track/7y6c07pgjZvtHI9kuMVqk1'
p2045
sg8
S'Get It Together'
p2046
ssS'0UD507pTePjxhtnpTOWmKX'
p2047
(dp2048
g3
S'Kontra K'
p2049
sg5
I3
sg6
S'https://open.spotify.com/track/0UD507pTePjxhtnpTOWmKX'
p2050
sg8
S'Plem Plem (feat. Raf Camora & Bonez MC)'
p2051
ssS'3up1uPuvL5vkfJ6aOeSRtD'
p2052
(dp2053
g3
S'Ma\xc3\xaetre Gims'
p2054
sg5
I17
sg6
S'https://open.spotify.com/track/3up1uPuvL5vkfJ6aOeSRtD'
p2055
sg8
S'Loin - Pilule Violette'
p2056
ssS'2nvUC76Xju4HuqIFXeiCyI'
p2057
(dp2058
g3
S'Kollegah'
p2059
sg5
I2
sg6
S'https://open.spotify.com/track/2nvUC76Xju4HuqIFXeiCyI'
p2060
sg8
S'Sturmmaske Auf [Intro]'
p2061
ssS'6h66suJtLCOJCesAukkFZn'
p2062
(dp2063
g3
S'Left Boy'
p2064
sg5
I1
sg6
S'https://open.spotify.com/track/6h66suJtLCOJCesAukkFZn'
p2065
sg8
S'The Return of...'
p2066
ssS'2i3WO0WkrlnrA1I4GdUmxh'
p2067
(dp2068
g3
S'Robin Schulz'
p2069
sg5
I2
sg6
S'https://open.spotify.com/track/2i3WO0WkrlnrA1I4GdUmxh'
p2070
sg8
S"I Believe I'm Fine"
p2071
ssS'79cuOz3SPQTuFrp8WgftAu'
p2072
(dp2073
g3
S'Shawn Mendes'
p2074
sg5
I25
sg6
S'https://open.spotify.com/track/79cuOz3SPQTuFrp8WgftAu'
p2075
sg8
S"There's Nothing Holdin' Me Back"
p2076
ssS'4c2W3VKsOFoIg2SFaO6DY5'
p2077
(dp2078
g3
S'Rita Ora'
p2079
sg5
I20
sg6
S'https://open.spotify.com/track/4c2W3VKsOFoIg2SFaO6DY5'
p2080
sg8
S'Your Song'
p2081
ssS'7sU6BDmS1qwb78OpUMARPb'
p2082
(dp2083
g3
S'Hitimpulse'
p2084
sg5
I7
sg6
S'https://open.spotify.com/track/7sU6BDmS1qwb78OpUMARPb'
p2085
sg8
S"I'm in Love with the Coco"
p2086
ssS'1uGERQ2DVv7j9WSsWzOHVp'
p2087
(dp2088
g3
S'RAF Camora'
p2089
sg5
I7
sg6
S'https://open.spotify.com/track/1uGERQ2DVv7j9WSsWzOHVp'
p2090
sg8
S'Kontrollieren'
p2091
ssS'3cfOd4CMv2snFaKAnMdnvK'
p2092
(dp2093
g3
S'Smash Mouth'
p2094
sg5
I2
sg6
S'https://open.spotify.com/track/3cfOd4CMv2snFaKAnMdnvK'
p2095
sg8
S'All Star'
p2096
ssS'6ZX2qXkhaueabbzp6vfabS'
p2097
(dp2098
g3
S'ALMA'
p2099
sg5
I1
sg6
S'https://open.spotify.com/track/6ZX2qXkhaueabbzp6vfabS'
p2100
sg8
S'Phases'
p2101
ssS'51ChrwmUPDJvedPQnIU8Ls'
p2102
(dp2103
g3
S'Ed Sheeran'
p2104
sg5
I10
sg6
S'https://open.spotify.com/track/51ChrwmUPDJvedPQnIU8Ls'
p2105
sg8
S'Dive'
p2106
ssS'3HBvs6g8WgT8KT1gZzGSX1'
p2107
(dp2108
g3
S'U2'
p2109
sg5
I1
sg6
S'https://open.spotify.com/track/3HBvs6g8WgT8KT1gZzGSX1'
p2110
sg8
S'Christmas (Baby Please Come Home)'
p2111
ssS'4izg6Hydc6XGErWW6nbdsV'
p2112
(dp2113
g3
S'Imagine Dragons'
p2114
sg5
I3
sg6
S'https://open.spotify.com/track/4izg6Hydc6XGErWW6nbdsV'
p2115
sg8
S'Whatever It Takes'
p2116
ssS'7fUWZUNj5qbEuoL6K9947g'
p2117
(dp2118
g3
S'Nimo'
p2119
sg5
I18
sg6
S'https://open.spotify.com/track/7fUWZUNj5qbEuoL6K9947g'
p2120
sg8
S'Heute mit mir'
p2121
ssS'5kp5Bw9kkolIzJiu3dfgpR'
p2122
(dp2123
g3
S'Pizzera & Jaus'
p2124
sg5
I2
sg6
S'https://open.spotify.com/track/5kp5Bw9kkolIzJiu3dfgpR'
p2125
sg8
S'hooligans'
p2126
ssS'3eR23VReFzcdmS7TYCrhCe'
p2127
(dp2128
g3
S'Kygo'
p2129
sg5
I33
sg6
S'https://open.spotify.com/track/3eR23VReFzcdmS7TYCrhCe'
p2130
sg8
S"It Ain't Me (with Selena Gomez)"
p2131
ssS'2eAZfqOm4EnOF9VvN50Tyc'
p2132
(dp2133
g3
S'Lil Uzi Vert'
p2134
sg5
I4
sg6
S'https://open.spotify.com/track/2eAZfqOm4EnOF9VvN50Tyc'
p2135
sg8
S'The Way Life Goes'
p2136
ssS'30t2cItUPY7CvZOup7zptn'
p2137
(dp2138
g3
S'SEILER UND SPEER'
p2139
sg5
I13
sg6
S'https://open.spotify.com/track/30t2cItUPY7CvZOup7zptn'
p2140
sg8
S'Ham kummst'
p2141
ssS'2KHbPYI22yWIOgWUsApYIS'
p2142
(dp2143
g3
S'Miami Yacine'
p2144
sg5
I42
sg6
S'https://open.spotify.com/track/2KHbPYI22yWIOgWUsApYIS'
p2145
sg8
S'Kokaina'
p2146
ssS'0zMzyHAeMvwq5CRstru1Fp'
p2147
(dp2148
g3
S'Ruth B.'
p2149
sg5
I7
sg6
S'https://open.spotify.com/track/0zMzyHAeMvwq5CRstru1Fp'
p2150
sg8
S'Lost Boy'
p2151
ssS'4v4ZuW2tjSyyci2BcE5bTp'
p2152
(dp2153
g3
S'Capital Bra'
p2154
sg5
I2
sg6
S'https://open.spotify.com/track/4v4ZuW2tjSyyci2BcE5bTp'
p2155
sg8
S'Ol\xc3\xa9 Ol\xc3\xa9'
p2156
ssS'0Uo2hBHCRCusSD3AOi82El'
p2157
(dp2158
g3
S'SpongeBOZZ'
p2159
sg5
I1
sg6
S'https://open.spotify.com/track/0Uo2hBHCRCusSD3AOi82El'
p2160
sg8
S'Centurion Card'
p2161
ssS'5Xc74Dn1ZKH6H8XaVGOHXG'
p2162
(dp2163
g3
S'Disciples'
p2164
sg5
I1
sg6
S'https://open.spotify.com/track/5Xc74Dn1ZKH6H8XaVGOHXG'
p2165
sg8
S'On My Mind'
p2166
ssS'1kOq5WUS8KYID3pJXpnX7k'
p2167
(dp2168
g3
S'Kraftklub'
p2169
sg5
I1
sg6
S'https://open.spotify.com/track/1kOq5WUS8KYID3pJXpnX7k'
p2170
sg8
S'Chemie Chemie Ya'
p2171
ssS'06SlruQYZCozqCdlar8Y2g'
p2172
(dp2173
g3
S'Cro'
p2174
sg5
I5
sg6
S'https://open.spotify.com/track/06SlruQYZCozqCdlar8Y2g'
p2175
sg8
S'tru'
p2176
ssS'1eMbgZ0XqwzdmqsBmBGOM5'
p2177
(dp2178
g3
S'KC Rebell'
p2179
sg5
I1
sg6
S'https://open.spotify.com/track/1eMbgZ0XqwzdmqsBmBGOM5'
p2180
sg8
S'Du musst mir geben'
p2181
ssS'73R9IJbuSGVrH5k5XM63gv'
p2182
(dp2183
g3
S'SpongeBOZZ'
p2184
sg5
I1
sg6
S'https://open.spotify.com/track/73R9IJbuSGVrH5k5XM63gv'
p2185
sg8
S'A.C.A.B. II'
p2186
ssS'1fcIMSHfedfVp1saA88FRj'
p2187
(dp2188
g3
S'TJ_beastboy'
p2189
sg5
I1
sg6
S'https://open.spotify.com/track/1fcIMSHfedfVp1saA88FRj'
p2190
sg8
S'Good Morning'
p2191
ssS'7neLRiDEffSr5kl0wYU7Xw'
p2192
(dp2193
g3
S'Marteria'
p2194
sg5
I1
sg6
S'https://open.spotify.com/track/7neLRiDEffSr5kl0wYU7Xw'
p2195
sg8
S'El Presidente'
p2196
ssS'5bZtRlMBU76vHuDOb1GM5u'
p2197
(dp2198
g3
S'Jonas Blue'
p2199
sg5
I1
sg6
S'https://open.spotify.com/track/5bZtRlMBU76vHuDOb1GM5u'
p2200
sg8
S'Perfect Strangers'
p2201
ssS'5ysL31dJXdNK1OCI5Hlqe7'
p2202
(dp2203
g3
S'Welshly Arms'
p2204
sg5
I7
sg6
S'https://open.spotify.com/track/5ysL31dJXdNK1OCI5Hlqe7'
p2205
sg8
S'Legendary'
p2206
ssS'6TIU9Ehmi6dMzZK73Ym4yj'
p2207
(dp2208
g3
S'Ed Sheeran'
p2209
sg5
I5
sg6
S'https://open.spotify.com/track/6TIU9Ehmi6dMzZK73Ym4yj'
p2210
sg8
S'Save Myself'
p2211
ssS'7taXf5odg9xCAZERYfyOkS'
p2212
(dp2213
g3
S'Jos\xc3\xa9 Feliciano'
p2214
sg5
I1
sg6
S'https://open.spotify.com/track/7taXf5odg9xCAZERYfyOkS'
p2215
sg8
S'Feliz Navidad'
p2216
ssS'7nXk8UzwYn0bKNH8NVz6xO'
p2217
(dp2218
g3
S'Imagine Dragons'
p2219
sg5
I1
sg6
S'https://open.spotify.com/track/7nXk8UzwYn0bKNH8NVz6xO'
p2220
sg8
S'Yesterday'
p2221
ssS'3hRZsdTF5uyGA2uhNqEuhm'
p2222
(dp2223
g3
S'Niall Horan'
p2224
sg5
I4
sg6
S'https://open.spotify.com/track/3hRZsdTF5uyGA2uhNqEuhm'
p2225
sg8
S'Too Much To Ask'
p2226
ssS'4pqCienGuMIbOdsHaOpf7V'
p2227
(dp2228
g3
S'Capital Bra'
p2229
sg5
I2
sg6
S'https://open.spotify.com/track/4pqCienGuMIbOdsHaOpf7V'
p2230
sg8
S'Das Leben ist so'
p2231
ssS'4InQneGYeB0SymC35qFsJD'
p2232
(dp2233
g3
S'Bilderbuch'
p2234
sg5
I1
sg6
S'https://open.spotify.com/track/4InQneGYeB0SymC35qFsJD'
p2235
sg8
S'sneakers4free'
p2236
ssS'7HR5qYGKtzopXoN0CdMirL'
p2237
(dp2238
g3
S'Veysel'
p2239
sg5
I4
sg6
S'https://open.spotify.com/track/7HR5qYGKtzopXoN0CdMirL'
p2240
sg8
S'Yakuza'
p2241
ssS'4aWmUDTfIPGksMNLV2rQP2'
p2242
(dp2243
g3
S'Luis Fonsi'
p2244
sg5
I38
sg6
S'https://open.spotify.com/track/4aWmUDTfIPGksMNLV2rQP2'
p2245
sg8
S'Despacito (Featuring Daddy Yankee)'
p2246
ssS'58zsLZPvfflaiIbNWoA22O'
p2247
(dp2248
g3
S"Rag'n'Bone Man"
p2249
sg5
I25
sg6
S'https://open.spotify.com/track/58zsLZPvfflaiIbNWoA22O'
p2250
sg8
S'Human'
p2251
ssS'35QZaWQRkmnAVqBF1TLCxQ'
p2252
(dp2253
g3
S'Ed Sheeran'
p2254
sg5
I8
sg6
S'https://open.spotify.com/track/35QZaWQRkmnAVqBF1TLCxQ'
p2255
sg8
S'Nancy Mulligan'
p2256
ssS'60APt5N2NRaKWf5xzJdzyC'
p2257
(dp2258
g3
S'Calvin Harris'
p2259
sg5
I2
sg6
S'https://open.spotify.com/track/60APt5N2NRaKWf5xzJdzyC'
p2260
sg8
S'Heatstroke'
p2261
ssS'25C5CowdsfXld2jJanbiex'
p2262
(dp2263
g3
S'Demi Lovato'
p2264
sg5
I11
sg6
S'https://open.spotify.com/track/25C5CowdsfXld2jJanbiex'
p2265
sg8
S'Sorry Not Sorry'
p2266
ssS'0lsbbaa7nj7LtUXVdk0BQe'
p2267
(dp2268
g3
S'Tom Walker'
p2269
sg5
I1
sg6
S'https://open.spotify.com/track/0lsbbaa7nj7LtUXVdk0BQe'
p2270
sg8
S'Just You and I'
p2271
ssS'7MFl1XcwOrMIlZ3R4MzREK'
p2272
(dp2273
g3
S'Chris Rea'
p2274
sg5
I1
sg6
S'https://open.spotify.com/track/7MFl1XcwOrMIlZ3R4MzREK'
p2275
sg8
S'Driving Home For Christmas'
p2276
ssS'7istTRCq9OK5cEC8sPAc50'
p2277
(dp2278
g3
S'Bonez MC'
p2279
sg5
I17
sg6
S'https://open.spotify.com/track/7istTRCq9OK5cEC8sPAc50'
p2280
sg8
S'An ihnen vorbei'
p2281
ssS'2Z8WuEywRWYTKe1NybPQEW'
p2282
(dp2283
g3
S'Twenty One Pilots'
p2284
sg5
I21
sg6
S'https://open.spotify.com/track/2Z8WuEywRWYTKe1NybPQEW'
p2285
sg8
S'Ride'
p2286
ssS'07KbI05QnjX8IbDBDRySxR'
p2287
(dp2288
g3
S'Marteria'
p2289
sg5
I4
sg6
S'https://open.spotify.com/track/07KbI05QnjX8IbDBDRySxR'
p2290
sg8
S'Aliens'
p2291
ssS'5LiNVqzl7PIIBBrKbCtMvn'
p2292
(dp2293
g3
S'KC Rebell'
p2294
sg5
I1
sg6
S'https://open.spotify.com/track/5LiNVqzl7PIIBBrKbCtMvn'
p2295
sg8
S'Salut'
p2296
ssS'61GiOLLEn0LcavpVu1my6Q'
p2297
(dp2298
g3
S'Alok'
p2299
sg5
I1
sg6
S'https://open.spotify.com/track/61GiOLLEn0LcavpVu1my6Q'
p2300
sg8
S'Fuego'
p2301
ssS'2nYpbaLykC2cjU8Yt5KF1v'
p2302
(dp2303
g3
S'Mark Forster'
p2304
sg5
I36
sg6
S'https://open.spotify.com/track/2nYpbaLykC2cjU8Yt5KF1v'
p2305
sg8
S'Ch\xc3\xb6re'
p2306
ssS'3k2CdmzY58wamdEdIxWPTz'
p2307
(dp2308
g3
S'Nimo'
p2309
sg5
I1
sg6
S'https://open.spotify.com/track/3k2CdmzY58wamdEdIxWPTz'
p2310
sg8
S"Let's Go Amina"
p2311
ssS'2QWP8NYYplOqEFBYGCcq0S'
p2312
(dp2313
g3
S'The Script'
p2314
sg5
I5
sg6
S'https://open.spotify.com/track/2QWP8NYYplOqEFBYGCcq0S'
p2315
sg8
S'Rain'
p2316
ssS'6JV2JOEocMgcZxYSZelKcc'
p2317
(dp2318
g3
S'Justin Timberlake'
p2319
sg5
I20
sg6
S'https://open.spotify.com/track/6JV2JOEocMgcZxYSZelKcc'
p2320
sg8
S"CAN'T STOP THE FEELING! (Original Song from DreamWorks Animation's TROLLS)"
p2321
ssS'05KOgYg8PGeJyyWBPi5ja8'
p2322
(dp2323
g3
S'Drake'
p2324
sg5
I2
sg6
S'https://open.spotify.com/track/05KOgYg8PGeJyyWBPi5ja8'
p2325
sg8
S'Free Smoke'
p2326
ssS'0cAuqPI1R8RlFsXXWWO039'
p2327
(dp2328
g3
S'Kungs'
p2329
sg5
I7
sg6
S'https://open.spotify.com/track/0cAuqPI1R8RlFsXXWWO039'
p2330
sg8
S"Don't You Know - Radio Edit"
p2331
ssS'3GVkPk8mqxz0itaAriG1L7'
p2332
(dp2333
g3
S'XXXTENTACION'
p2334
sg5
I1
sg6
S'https://open.spotify.com/track/3GVkPk8mqxz0itaAriG1L7'
p2335
sg8
S'Everybody Dies In Their Nightmares'
p2336
ssS'7aV2mflaASUmGhCErm7kBO'
p2337
(dp2338
g3
S'Nevada'
p2339
sg5
I18
sg6
S'https://open.spotify.com/track/7aV2mflaASUmGhCErm7kBO'
p2340
sg8
S'The Mack'
p2341
ssS'62kNjXARWUncZVwjfrGDXL'
p2342
(dp2343
g3
S'Miami Yacine'
p2344
sg5
I3
sg6
S'https://open.spotify.com/track/62kNjXARWUncZVwjfrGDXL'
p2345
sg8
S'Montpellier'
p2346
ssS'0bYg9bo50gSsH3LtXe2SQn'
p2347
(dp2348
g3
S'Mariah Carey'
p2349
sg5
I1
sg6
S'https://open.spotify.com/track/0bYg9bo50gSsH3LtXe2SQn'
p2350
sg8
S'All I Want for Christmas Is You'
p2351
ssS'1ZMHVCA6TT73HQzStig2Qs'
p2352
(dp2353
g3
S'Kamaliya'
p2354
sg5
I4
sg6
S'https://open.spotify.com/track/1ZMHVCA6TT73HQzStig2Qs'
p2355
sg8
S'Sign Your Name - Cover'
p2356
ssS'1CKd1PnqfYx0H12V9MSaIY'
p2357
(dp2358
g3
S'Zedd'
p2359
sg5
I10
sg6
S'https://open.spotify.com/track/1CKd1PnqfYx0H12V9MSaIY'
p2360
sg8
S'Get Low (with Liam Payne)'
p2361
ssS'3Q3myFA7q4Op95DOpHplaY'
p2362
(dp2363
g3
S'blackbear'
p2364
sg5
I3
sg6
S'https://open.spotify.com/track/3Q3myFA7q4Op95DOpHplaY'
p2365
sg8
S'do re mi'
p2366
ssS'3rOSwuTsUlJp0Pu0MkN8r8'
p2367
(dp2368
g3
S'Future'
p2369
sg5
I33
sg6
S'https://open.spotify.com/track/3rOSwuTsUlJp0Pu0MkN8r8'
p2370
sg8
S'Mask Off'
p2371
ssS'6O5tbVRFmeVwNjmxVhSZOT'
p2372
(dp2373
g3
S'Shaun Bate'
p2374
sg5
I5
sg6
S'https://open.spotify.com/track/6O5tbVRFmeVwNjmxVhSZOT'
p2375
sg8
S'Fancy Things'
p2376
ssS'0hz4N3VVMKNkXZjF8MIJUG'
p2377
(dp2378
g3
S'Zuna'
p2379
sg5
I1
sg6
S'https://open.spotify.com/track/0hz4N3VVMKNkXZjF8MIJUG'
p2380
sg8
S'Viertel'
p2381
ssS'1qOLh0tI7trd1zdDKxYZTe'
p2382
(dp2383
g3
S'Hailee Steinfeld'
p2384
sg5
I30
sg6
S'https://open.spotify.com/track/1qOLh0tI7trd1zdDKxYZTe'
p2385
sg8
S'Starving'
p2386
ssS'3nAp4IvdMPPWEH9uuXFFV5'
p2387
(dp2388
g3
S'Kelly Clarkson'
p2389
sg5
I1
sg6
S'https://open.spotify.com/track/3nAp4IvdMPPWEH9uuXFFV5'
p2390
sg8
S'Underneath the Tree'
p2391
ssS'3HVr6jTVwBHBa2flM0eURR'
p2392
(dp2393
g3
S'Macklemore'
p2394
sg5
I14
sg6
S'https://open.spotify.com/track/3HVr6jTVwBHBa2flM0eURR'
p2395
sg8
S'Glorious (feat. Skylar Grey)'
p2396
ssS'7inXu0Eaeg02VsM8kHNvzM'
p2397
(dp2398
g3
S'Frank Sinatra'
p2399
sg5
I1
sg6
S'https://open.spotify.com/track/7inXu0Eaeg02VsM8kHNvzM'
p2400
sg8
S'Let It Snow! Let It Snow! Let It Snow!'
p2401
ssS'0JiVRyTJcJnmlwCZ854K4p'
p2402
(dp2403
g3
S'Alan Walker'
p2404
sg5
I38
sg6
S'https://open.spotify.com/track/0JiVRyTJcJnmlwCZ854K4p'
p2405
sg8
S'Alone'
p2406
ssS'1cG0umU5TKStygKsPFZ9pY'
p2407
(dp2408
g3
S'Robin Schulz'
p2409
sg5
I40
sg6
S'https://open.spotify.com/track/1cG0umU5TKStygKsPFZ9pY'
p2410
sg8
S'Shed a Light'
p2411
ssS'7xHWNBFm6ObGEQPaUxHuKO'
p2412
(dp2413
g3
S'Sia'
p2414
sg5
I10
sg6
S'https://open.spotify.com/track/7xHWNBFm6ObGEQPaUxHuKO'
p2415
sg8
S'The Greatest'
p2416
ssS'3caMfJGFp53NAH2TuigdNj'
p2417
(dp2418
g3
S'Galantis'
p2419
sg5
I19
sg6
S'https://open.spotify.com/track/3caMfJGFp53NAH2TuigdNj'
p2420
sg8
S'Hunter'
p2421
ssS'6EpRaXYhGOB3fj4V2uDkMJ'
p2422
(dp2423
g3
S'Liam Payne'
p2424
sg5
I21
sg6
S'https://open.spotify.com/track/6EpRaXYhGOB3fj4V2uDkMJ'
p2425
sg8
S'Strip That Down'
p2426
ssS'5oGm8Hm6sUQIlGu0X0p6xS'
p2427
(dp2428
g3
S'Timmy Trumpet'
p2429
sg5
I8
sg6
S'https://open.spotify.com/track/5oGm8Hm6sUQIlGu0X0p6xS'
p2430
sg8
S'Oracle'
p2431
ssS'5NafFxaLg9Ep21oTHBw7Zq'
p2432
(dp2433
g3
S'ALMA'
p2434
sg5
I14
sg6
S'https://open.spotify.com/track/5NafFxaLg9Ep21oTHBw7Zq'
p2435
sg8
S'Dye My Hair'
p2436
ssS'3Db8OhBMmNPLv2rHYoP7Wf'
p2437
(dp2438
g3
S'John Gibbons'
p2439
sg5
I7
sg6
S'https://open.spotify.com/track/3Db8OhBMmNPLv2rHYoP7Wf'
p2440
sg8
S'P.Y.T. (Pretty Young Thing)'
p2441
ssS'1wjzFQodRWrPcQ0AnYnvQ9'
p2442
(dp2443
g3
S'Lauv'
p2444
sg5
I18
sg6
S'https://open.spotify.com/track/1wjzFQodRWrPcQ0AnYnvQ9'
p2445
sg8
S'I Like Me Better'
p2446
ssS'4O4xuKdvJvl7HpFlYGwudS'
p2447
(dp2448
g3
S'The xx'
p2449
sg5
I1
sg6
S'https://open.spotify.com/track/4O4xuKdvJvl7HpFlYGwudS'
p2450
sg8
S'Replica'
p2451
ssS'4PdJSsESm34djLfBde9Pr2'
p2452
(dp2453
g3
S'David Guetta'
p2454
sg5
I20
sg6
S'https://open.spotify.com/track/4PdJSsESm34djLfBde9Pr2'
p2455
sg8
S'Would I Lie To You - Radio Edit'
p2456
ssS'1XRTXNP8eLpWXfso8Q4dC5'
p2457
(dp2458
g3
S'Mike Perry'
p2459
sg5
I14
sg6
S'https://open.spotify.com/track/1XRTXNP8eLpWXfso8Q4dC5'
p2460
sg8
S'Talk About It'
p2461
ssS'7iDa6hUg2VgEL1o1HjmfBn'
p2462
(dp2463
g3
S'Bebe Rexha'
p2464
sg5
I1
sg6
S'https://open.spotify.com/track/7iDa6hUg2VgEL1o1HjmfBn'
p2465
sg8
S'Meant to Be (feat. Florida Georgia Line)'
p2466
ssS'7abpmGpF7PGep2rDU68GBR'
p2467
(dp2468
g3
S'Burak Yeter'
p2469
sg5
I40
sg6
S'https://open.spotify.com/track/7abpmGpF7PGep2rDU68GBR'
p2470
sg8
S'Tuesday'
p2471
ssS'6HxFJbQahRd5rWQ752D710'
p2472
(dp2473
g3
S'Capo'
p2474
sg5
I15
sg6
S'https://open.spotify.com/track/6HxFJbQahRd5rWQ752D710'
p2475
sg8
S'Lambo Diablo GT (feat. Nimo)'
p2476
ssS'5fzDpw2ecK1KghidsBVM4q'
p2477
(dp2478
g3
S'187 Strassenbande'
p2479
sg5
I2
sg6
S'https://open.spotify.com/track/5fzDpw2ecK1KghidsBVM4q'
p2480
sg8
S'30er Zone'
p2481
ssS'0Xt07wEnASnw91iFJ1su1j'
p2482
(dp2483
g3
S'Pizzera & Jaus'
p2484
sg5
I17
sg6
S'https://open.spotify.com/track/0Xt07wEnASnw91iFJ1su1j'
p2485
sg8
S'Abs\xc3\xa4tze > Haupts\xc3\xa4tze'
p2486
ssS'767AsV1cQwmOU4PJG96MzO'
p2487
(dp2488
g3
S'Martin Solveig'
p2489
sg5
I1
sg6
S'https://open.spotify.com/track/767AsV1cQwmOU4PJG96MzO'
p2490
sg8
S'Do It Right'
p2491
ssS'5Z01UMMf7V1o0MzF86s6WJ'
p2492
(dp2493
g3
S'Eminem'
p2494
sg5
I41
sg6
S'https://open.spotify.com/track/5Z01UMMf7V1o0MzF86s6WJ'
p2495
sg8
S'Lose Yourself - Soundtrack Version'
p2496
ssS'1KqvRRQd3lfM0pAlkGPrgD'
p2497
(dp2498
g3
S'Ed Sheeran'
p2499
sg5
I1
sg6
S'https://open.spotify.com/track/1KqvRRQd3lfM0pAlkGPrgD'
p2500
sg8
S'Shape of You (Major Lazer Remix) [feat. Nyla & Kranium]'
p2501
ssS'2XMTqoHHSH0lvuXrvIEdco'
p2502
(dp2503
g3
S'FRENSHIP'
p2504
sg5
I14
sg6
S'https://open.spotify.com/track/2XMTqoHHSH0lvuXrvIEdco'
p2505
sg8
S'Capsize'
p2506
ssS'5MFzQMkrl1FOOng9tq6R9r'
p2507
(dp2508
g3
S'Maroon 5'
p2509
sg5
I16
sg6
S'https://open.spotify.com/track/5MFzQMkrl1FOOng9tq6R9r'
p2510
sg8
S"Don't Wanna Know"
p2511
ssS'5Z3GHaZ6ec9bsiI5BenrbY'
p2512
(dp2513
g3
S'Khalid'
p2514
sg5
I9
sg6
S'https://open.spotify.com/track/5Z3GHaZ6ec9bsiI5BenrbY'
p2515
sg8
S'Young Dumb & Broke'
p2516
ssS'1Rl40PsX4mh9xVOeGHq86B'
p2517
(dp2518
g3
S'Whethan'
p2519
sg5
I18
sg6
S'https://open.spotify.com/track/1Rl40PsX4mh9xVOeGHq86B'
p2520
sg8
S'Savage (feat. Flux Pavilion & MAX)'
p2521
ssS'3FDrI0FLKzrYQiWxPhqV2W'
p2522
(dp2523
g3
S'Calvin Harris'
p2524
sg5
I4
sg6
S'https://open.spotify.com/track/3FDrI0FLKzrYQiWxPhqV2W'
p2525
sg8
S'Rollin'
p2526
ssS'1FgmP7AOTcn7MGYmImj0kn'
p2527
(dp2528
g3
S'Macklemore'
p2529
sg5
I2
sg6
S'https://open.spotify.com/track/1FgmP7AOTcn7MGYmImj0kn'
p2530
sg8
S"Ain't Gonna Die Tonight (feat. Eric Nally)"
p2531
ssS'7gcKoI9KokClK9ZUjNFgZa'
p2532
(dp2533
g3
S'Rolf Zuckowski'
p2534
sg5
I1
sg6
S'https://open.spotify.com/track/7gcKoI9KokClK9ZUjNFgZa'
p2535
sg8
S'In der Weihnachtsb\xc3\xa4ckerei'
p2536
ssS'6FE2iI43OZnszFLuLtvvmg'
p2537
(dp2538
g3
S'MKTO'
p2539
sg5
I2
sg6
S'https://open.spotify.com/track/6FE2iI43OZnszFLuLtvvmg'
p2540
sg8
S'Classic'
p2541
ssS'4i9ZRPZbz683dAMVSU4zlm'
p2542
(dp2543
g3
S'Bonez MC'
p2544
sg5
I1
sg6
S'https://open.spotify.com/track/4i9ZRPZbz683dAMVSU4zlm'
p2545
sg8
S'Atramis'
p2546
ssS'5CtI0qwDJkDQGwXD1H1cLb'
p2547
(dp2548
g3
S'Luis Fonsi'
p2549
sg5
I26
sg6
S'https://open.spotify.com/track/5CtI0qwDJkDQGwXD1H1cLb'
p2550
sg8
S'Despacito - Remix'
p2551
ssS'1WP1r7fuvRqZRnUaTi2I1Q'
p2552
(dp2553
g3
S'Shawn Mendes'
p2554
sg5
I11
sg6
S'https://open.spotify.com/track/1WP1r7fuvRqZRnUaTi2I1Q'
p2555
sg8
S'Stitches'
p2556
ssS'3eFJqPe8VUYrABbFjSauuj'
p2557
(dp2558
g3
g372
sg5
I1
sg6
S'https://open.spotify.com/track/3eFJqPe8VUYrABbFjSauuj'
p2559
sg8
g372
ssS'1jYiIOC5d6soxkJP81fxq2'
p2560
(dp2561
g3
S'DJ Khaled'
p2562
sg5
I1
sg6
S'https://open.spotify.com/track/1jYiIOC5d6soxkJP81fxq2'
p2563
sg8
S"I'm the One"
p2564
ssS'0eZBeB2xFIS65jQHerispi'
p2565
(dp2566
g3
S'Disturbed'
p2567
sg5
I15
sg6
S'https://open.spotify.com/track/0eZBeB2xFIS65jQHerispi'
p2568
sg8
S'The Sound Of Silence'
p2569
ssS'3VvaEIA0GKihbcWxWDfN33'
p2570
(dp2571
g3
S'Capital Bra'
p2572
sg5
I2
sg6
S'https://open.spotify.com/track/3VvaEIA0GKihbcWxWDfN33'
p2573
sg8
S'Ghetto Massari'
p2574
ssS'2tUxTQSGGteM7HljpqWU6J'
p2575
(dp2576
g3
S'Marco Wagner'
p2577
sg5
I18
sg6
S'https://open.spotify.com/track/2tUxTQSGGteM7HljpqWU6J'
p2578
sg8
S'Boyfriends'
p2579
ssS'2jTujnt0y344ai1rNOywgr'
p2580
(dp2581
g3
S'Drake'
p2582
sg5
I1
sg6
S'https://open.spotify.com/track/2jTujnt0y344ai1rNOywgr'
p2583
sg8
S'KMT'
p2584
ssS'6pVW5LRWgeLaHudxauOTJU'
p2585
(dp2586
g3
S'Daryl Hall & John Oates'
p2587
sg5
I1
sg6
S'https://open.spotify.com/track/6pVW5LRWgeLaHudxauOTJU'
p2588
sg8
S'Jingle Bell Rock from Daryl'
p2589
ssS'3h4HDzL7ha4eYalx9Eknyj'
p2590
(dp2591
g3
S'Gest\xc3\xb6rt aber GeiL'
p2592
sg5
I5
sg6
S'https://open.spotify.com/track/3h4HDzL7ha4eYalx9Eknyj'
p2593
sg8
S'Wohin willst du'
p2594
ssS'0h4FK0CnlZ3oJnZ6quEk1P'
p2595
(dp2596
g3
S'Seeb'
p2597
sg5
I8
sg6
S'https://open.spotify.com/track/0h4FK0CnlZ3oJnZ6quEk1P'
p2598
sg8
S'What Do You Love'
p2599
ssS'261JjqZxHunllvuzHlVzvS'
p2600
(dp2601
g3
S'Lena'
p2602
sg5
I10
sg6
S'https://open.spotify.com/track/261JjqZxHunllvuzHlVzvS'
p2603
sg8
S'Lost In You'
p2604
ssS'6gBFPUFcJLzWGx4lenP6h2'
p2605
(dp2606
g3
S'Travis Scott'
p2607
sg5
I11
sg6
S'https://open.spotify.com/track/6gBFPUFcJLzWGx4lenP6h2'
p2608
sg8
S'goosebumps'
p2609
ssS'7zgqtptZvhf8GEmdsM2vp2'
p2610
(dp2611
g3
S'Taylor Swift'
p2612
sg5
I1
sg6
S'https://open.spotify.com/track/7zgqtptZvhf8GEmdsM2vp2'
p2613
sg8
S'...Ready For It?'
p2614
ssS'6DB2KOEwHnjkgEnBt5SdeJ'
p2615
(dp2616
g3
S'Future'
p2617
sg5
I2
sg6
S'https://open.spotify.com/track/6DB2KOEwHnjkgEnBt5SdeJ'
p2618
sg8
S'Mask Off - Remix'
p2619
ssS'6qCsTRYKBTzde2oBsFq5fP'
p2620
(dp2621
g3
S'RAF Camora'
p2622
sg5
I7
sg6
S'https://open.spotify.com/track/6qCsTRYKBTzde2oBsFq5fP'
p2623
sg8
S'Vienna'
p2624
ssS'463oFGElXVcP8ueC72zvMj'
p2625
(dp2626
g3
S"Lil' Kleine"
p2627
sg5
I7
sg6
S'https://open.spotify.com/track/463oFGElXVcP8ueC72zvMj'
p2628
sg8
S'Stoff und Schnaps'
p2629
ssS'7nhYUvJs6zPXK6jBhYqcY4'
p2630
(dp2631
g3
S'Zuna'
p2632
sg5
I1
sg6
S'https://open.spotify.com/track/7nhYUvJs6zPXK6jBhYqcY4'
p2633
sg8
S'Mele 7'
p2634
ssS'7AQim7LbvFVZJE3O8TYgf2'
p2635
(dp2636
g3
S'XXXTENTACION'
p2637
sg5
I3
sg6
S'https://open.spotify.com/track/7AQim7LbvFVZJE3O8TYgf2'
p2638
sg8
S'Fuck Love (feat. Trippie Redd)'
p2639
ssS'2C0KFbb4v9CNWR5c9jWcKC'
p2640
(dp2641
g3
S'Gorillaz'
p2642
sg5
I2
sg6
S'https://open.spotify.com/track/2C0KFbb4v9CNWR5c9jWcKC'
p2643
sg8
S'Andromeda (feat. DRAM)'
p2644
ssS'4fhVodXZARPX0oTuQh8V9l'
p2645
(dp2646
g3
S'Astrid S'
p2647
sg5
I4
sg6
S'https://open.spotify.com/track/4fhVodXZARPX0oTuQh8V9l'
p2648
sg8
S'Breathe'
p2649
ssS'4iPjyH29Cw0PFQ7bR81fHf'
p2650
(dp2651
g3
S'187 Strassenbande'
p2652
sg5
I2
sg6
S'https://open.spotify.com/track/4iPjyH29Cw0PFQ7bR81fHf'
p2653
sg8
S'Zeit ist Geld'
p2654
ssS'4gZOWIMzQnn8H2ENrs7UsW'
p2655
(dp2656
g3
S'Axwell /\\ Ingrosso'
p2657
sg5
I5
sg6
S'https://open.spotify.com/track/4gZOWIMzQnn8H2ENrs7UsW'
p2658
sg8
S'I Love You'
p2659
ssS'6cPyTS0Kk2sc4xQwC93kOg'
p2660
(dp2661
g3
S'The Chainsmokers'
p2662
sg5
I4
sg6
S'https://open.spotify.com/track/6cPyTS0Kk2sc4xQwC93kOg'
p2663
sg8
S'Break Up Every Night'
p2664
ssS'6eUncuJutsFi9BGO1JaBHh'
p2665
(dp2666
g3
S'Jason Derulo'
p2667
sg5
I6
sg6
S'https://open.spotify.com/track/6eUncuJutsFi9BGO1JaBHh'
p2668
sg8
S"If I'm Lucky"
p2669
ssS'4vHTCgx5Y9TZaWUjIyuLvo'
p2670
(dp2671
g3
S'Capital Bra'
p2672
sg5
I2
sg6
S'https://open.spotify.com/track/4vHTCgx5Y9TZaWUjIyuLvo'
p2673
sg8
S'Paff Paff weiter 2'
p2674
ssS'3APtAcYryweM13qsHFUkmk'
p2675
(dp2676
g3
S'Mark Forster'
p2677
sg5
I2
sg6
S'https://open.spotify.com/track/3APtAcYryweM13qsHFUkmk'
p2678
sg8
S'Sowieso'
p2679
ssS'31MkGwj0SWgZaTvEt5Hgxv'
p2680
(dp2681
g3
S'P!nk'
p2682
sg5
I9
sg6
S'https://open.spotify.com/track/31MkGwj0SWgZaTvEt5Hgxv'
p2683
sg8
S'What About Us'
p2684
ssS'60a0Rd6pjrkxjPbaKzXjfq'
p2685
(dp2686
g3
S'Linkin Park'
p2687
sg5
I13
sg6
S'https://open.spotify.com/track/60a0Rd6pjrkxjPbaKzXjfq'
p2688
sg8
S'In The End'
p2689
ssS'3pC1ILr9KzmQLMe8Kn5QBG'
p2690
(dp2691
g3
S'DJ Khaled'
p2692
sg5
I1
sg6
S'https://open.spotify.com/track/3pC1ILr9KzmQLMe8Kn5QBG'
p2693
sg8
S'To the Max'
p2694
ssS'424hXQ2DfVV6lv8HGmLhvz'
p2695
(dp2696
g3
S'257ers'
p2697
sg5
I1
sg6
S'https://open.spotify.com/track/424hXQ2DfVV6lv8HGmLhvz'
p2698
sg8
S'Holz - Weihnachtslied'
p2699
ssS'5atzkSaRuwgXiPDRi9qyKz'
p2700
(dp2701
g3
S'SpongeBOZZ'
p2702
sg5
I1
sg6
S'https://open.spotify.com/track/5atzkSaRuwgXiPDRi9qyKz'
p2703
sg8
S'La Familia'
p2704
ssS'1QzmdyU1N47jAj0ao5IvlW'
p2705
(dp2706
g3
S'Adel Tawil'
p2707
sg5
I23
sg6
S'https://open.spotify.com/track/1QzmdyU1N47jAj0ao5IvlW'
p2708
sg8
S'Ist da jemand'
p2709
ssS'5hz9DEkahyWoTs3rxJOTtw'
p2710
(dp2711
g3
S'Felix Jaehn'
p2712
sg5
I23
sg6
S'https://open.spotify.com/track/5hz9DEkahyWoTs3rxJOTtw'
p2713
sg8
S'Bonfire'
p2714
ssS'3sr3vqiXLSDIMd2XUDsHoK'
p2715
(dp2716
g3
S'Luciano'
p2717
sg5
I5
sg6
S'https://open.spotify.com/track/3sr3vqiXLSDIMd2XUDsHoK'
p2718
sg8
S'Hawaii'
p2719
ssS'3VRk65lHSwqd90TAkQqhvB'
p2720
(dp2721
g3
S'Katy Perry'
p2722
sg5
I2
sg6
S'https://open.spotify.com/track/3VRk65lHSwqd90TAkQqhvB'
p2723
sg8
S'Swish Swish'
p2724
ssS'5eqK0tbzUPo2SoeZsov04s'
p2725
(dp2726
g3
S'21 Savage'
p2727
sg5
I8
sg6
S'https://open.spotify.com/track/5eqK0tbzUPo2SoeZsov04s'
p2728
sg8
S'Bank Account'
p2729
ssS'2MHCiOohBZEQuLgDTPvSzF'
p2730
(dp2731
g3
S'Galantis'
p2732
sg5
I29
sg6
S'https://open.spotify.com/track/2MHCiOohBZEQuLgDTPvSzF'
p2733
sg8
S'Love On Me'
p2734
ssS'7cufww06qM0dH2rpkch4fi'
p2735
(dp2736
g3
S'Ali Bumaye'
p2737
sg5
I10
sg6
S'https://open.spotify.com/track/7cufww06qM0dH2rpkch4fi'
p2738
sg8
S'Sex ohne Grund'
p2739
ssS'3kxfsdsCpFgN412fpnW85Y'
p2740
(dp2741
g3
S'Childish Gambino'
p2742
sg5
I11
sg6
S'https://open.spotify.com/track/3kxfsdsCpFgN412fpnW85Y'
p2743
sg8
S'Redbone'
p2744
ssS'0hURJYjOhE6NL72qaeQ9PK'
p2745
(dp2746
g3
S'Mert'
p2747
sg5
I1
sg6
S'https://open.spotify.com/track/0hURJYjOhE6NL72qaeQ9PK'
p2748
sg8
S'Ajajaj'
p2749
ssS'1NPAfzVZZH4lVEXNVfCjsb'
p2750
(dp2751
g3
S'RIN'
p2752
sg5
I1
sg6
S'https://open.spotify.com/track/1NPAfzVZZH4lVEXNVfCjsb'
p2753
sg8
S'Nightlife'
p2754
ssS'44SPmnWRvznw3B1yiZFvTD'
p2755
(dp2756
g3
S'Pizzera & Jaus'
p2757
sg5
I3
sg6
S'https://open.spotify.com/track/44SPmnWRvznw3B1yiZFvTD'
p2758
sg8
S'mama'
p2759
ssS'1KeZgPUr54C8iz3FjqzVoz'
p2760
(dp2761
g3
S'The Chainsmokers'
p2762
sg5
I1
sg6
S'https://open.spotify.com/track/1KeZgPUr54C8iz3FjqzVoz'
p2763
sg8
S'Young'
p2764
ssS'4sPmO7WMQUAf45kwMOtONw'
p2765
(dp2766
g3
S'Adele'
p2767
sg5
I1
sg6
S'https://open.spotify.com/track/4sPmO7WMQUAf45kwMOtONw'
p2768
sg8
S'Hello'
p2769
ssS'6PCUP3dWmTjcTtXY02oFdT'
p2770
(dp2771
g3
S'Ed Sheeran'
p2772
sg5
I39
sg6
S'https://open.spotify.com/track/6PCUP3dWmTjcTtXY02oFdT'
p2773
sg8
S'Castle on the Hill'
p2774
ssS'5p3NP9mQblDsVJLdfNZJ3I'
p2775
(dp2776
g3
S'Kendrick Lamar'
p2777
sg5
I1
sg6
S'https://open.spotify.com/track/5p3NP9mQblDsVJLdfNZJ3I'
p2778
sg8
S'GOD.'
p2779
ssS'6BaCraQ9xeLYg4Sb9TBT2X'
p2780
(dp2781
g3
S'Calvin Harris'
p2782
sg5
I1
sg6
S'https://open.spotify.com/track/6BaCraQ9xeLYg4Sb9TBT2X'
p2783
sg8
S'Feels'
p2784
ssS'6Knv6wdA0luoMUuuoYi2i1'
p2785
(dp2786
g3
S'Flo Rida'
p2787
sg5
I1
sg6
S'https://open.spotify.com/track/6Knv6wdA0luoMUuuoYi2i1'
p2788
sg8
S'My House'
p2789
ssS'6gTJaPuj8DT8RjuDJyBgzP'
p2790
(dp2791
g3
S'Ed Sheeran'
p2792
sg5
I1
sg6
S'https://open.spotify.com/track/6gTJaPuj8DT8RjuDJyBgzP'
p2793
sg8
S"Don't"
p2794
ssS'1ncj2QHNL1uhPCd3cdrD8n'
p2795
(dp2796
g3
S'Cro'
p2797
sg5
I1
sg6
S'https://open.spotify.com/track/1ncj2QHNL1uhPCd3cdrD8n'
p2798
sg8
S'kapitel 1'
p2799
ssS'5q5gzmbBS5yQzos2BvVr1t'
p2800
(dp2801
g3
S'M\xc3\x98'
p2802
sg5
I12
sg6
S'https://open.spotify.com/track/5q5gzmbBS5yQzos2BvVr1t'
p2803
sg8
S'Nights With You'
p2804
ssS'68iAusaBHPveuApLPDxamN'
p2805
(dp2806
g3
S'Zuna'
p2807
sg5
I2
sg6
S'https://open.spotify.com/track/68iAusaBHPveuApLPDxamN'
p2808
sg8
S'Real Madrid'
p2809
ssS'014J7jX1wSv0manSdRnveo'
p2810
(dp2811
g3
S'Calum Scott'
p2812
sg5
I4
sg6
S'https://open.spotify.com/track/014J7jX1wSv0manSdRnveo'
p2813
sg8
S'Dancing On My Own - Ti\xc3\xabsto Remix'
p2814
ssS'0P7CwiO5v0qVCKqYPrc8q2'
p2815
(dp2816
g3
S'DAT ADAM'
p2817
sg5
I1
sg6
S'https://open.spotify.com/track/0P7CwiO5v0qVCKqYPrc8q2'
p2818
sg8
S'xD'
p2819
ssS'2WJ8HV2cH44KtNlIWdGcwh'
p2820
(dp2821
g3
S'Zuna'
p2822
sg5
I1
sg6
S'https://open.spotify.com/track/2WJ8HV2cH44KtNlIWdGcwh'
p2823
sg8
S'Dale'
p2824
ssS'6tinFGP1QJuRbyeCekZcLZ'
p2825
(dp2826
g3
S'Afrojack'
p2827
sg5
I8
sg6
S'https://open.spotify.com/track/6tinFGP1QJuRbyeCekZcLZ'
p2828
sg8
S'Another Life'
p2829
ssS'0Z9HQ8YvHqdeOjTwsR3cS7'
p2830
(dp2831
g3
S'Moon Taxi'
p2832
sg5
I2
sg6
S'https://open.spotify.com/track/0Z9HQ8YvHqdeOjTwsR3cS7'
p2833
sg8
S'Two High'
p2834
ssS'6mORGLOz79w6VsCRLWYYuK'
p2835
(dp2836
g3
S'Lord Huron'
p2837
sg5
I26
sg6
S'https://open.spotify.com/track/6mORGLOz79w6VsCRLWYYuK'
p2838
sg8
S'The Night We Met'
p2839
ssS'2fQrGHiQOvpL9UgPvtYy6G'
p2840
(dp2841
g3
S'21 Savage'
p2842
sg5
I3
sg6
S'https://open.spotify.com/track/2fQrGHiQOvpL9UgPvtYy6G'
p2843
sg8
S'Bank Account'
p2844
ssS'5aAx2yezTd8zXrkmtKl66Z'
p2845
(dp2846
g3
S'The Weeknd'
p2847
sg5
I24
sg6
S'https://open.spotify.com/track/5aAx2yezTd8zXrkmtKl66Z'
p2848
sg8
S'Starboy'
p2849
ssS'2BrzlUj1u1CtvaJDGIKpsP'
p2850
(dp2851
g3
S'Noah Cyrus'
p2852
sg5
I11
sg6
S'https://open.spotify.com/track/2BrzlUj1u1CtvaJDGIKpsP'
p2853
sg8
S'Make Me (Cry)'
p2854
ssS'1SJtlNRJDeYHioymcvsqev'
p2855
(dp2856
g3
S'Camila Cabello'
p2857
sg5
I20
sg6
S'https://open.spotify.com/track/1SJtlNRJDeYHioymcvsqev'
p2858
sg8
S'Crying in the Club'
p2859
ssS'0Wv5wuenRLI3BcwgT3HPIP'
p2860
(dp2861
g3
S'DJ Snake'
p2862
sg5
I3
sg6
S'https://open.spotify.com/track/0Wv5wuenRLI3BcwgT3HPIP'
p2863
sg8
S'A Different Way (with Lauv)'
p2864
ssS'04DwTuZ2VBdJCCC5TROn7L'
p2865
(dp2866
g3
S'Martin Garrix'
p2867
sg5
I29
sg6
S'https://open.spotify.com/track/04DwTuZ2VBdJCCC5TROn7L'
p2868
sg8
S'In the Name of Love'
p2869
ssS'4fzyvSu73BhGvi96p2zwjL'
p2870
(dp2871
g3
S'Coldplay'
p2872
sg5
I1
sg6
S'https://open.spotify.com/track/4fzyvSu73BhGvi96p2zwjL'
p2873
sg8
S'Christmas Lights'
p2874
ssS'637yH6Qs3wXdgjPjO7QGdr'
p2875
(dp2876
g3
S'Nico Santos'
p2877
sg5
I1
sg6
S'https://open.spotify.com/track/637yH6Qs3wXdgjPjO7QGdr'
p2878
sg8
S'Rooftop'
p2879
ssS'7bJ4mu7MHa3rHiNyKjOoSl'
p2880
(dp2881
g3
S'Drake'
p2882
sg5
I1
sg6
S'https://open.spotify.com/track/7bJ4mu7MHa3rHiNyKjOoSl'
p2883
sg8
S'Ice Melts'
p2884
ssS'77hjM9bMmgfTGJXv14UFmi'
p2885
(dp2886
g3
S'Train'
p2887
sg5
I11
sg6
S'https://open.spotify.com/track/77hjM9bMmgfTGJXv14UFmi'
p2888
sg8
S'Play That Song'
p2889
ssS'76gwG061wqdatYhicO2hG4'
p2890
(dp2891
g3
S'Alle Farben'
p2892
sg5
I36
sg6
S'https://open.spotify.com/track/76gwG061wqdatYhicO2hG4'
p2893
sg8
S'Bad Ideas'
p2894
ssS'2GIK8DmzMAPdZTNXLGW7v3'
p2895
(dp2896
g3
S'Zuna'
p2897
sg5
I1
sg6
S'https://open.spotify.com/track/2GIK8DmzMAPdZTNXLGW7v3'
p2898
sg8
S'Volles Magazin'
p2899
ssS'4JAyIDXOqNM6qHuZML01uX'
p2900
(dp2901
g3
g372
sg5
I1
sg6
S'https://open.spotify.com/track/4JAyIDXOqNM6qHuZML01uX'
p2902
sg8
g372
ssS'6VRghJeP6I0w1KxkdWFfIh'
p2903
(dp2904
g3
S'Imagine Dragons'
p2905
sg5
I3
sg6
S'https://open.spotify.com/track/6VRghJeP6I0w1KxkdWFfIh'
p2906
sg8
S'Believer'
p2907
ssS'7LVHVU3tWfcxj5aiPFEW4Q'
p2908
(dp2909
g3
S'Coldplay'
p2910
sg5
I1
sg6
S'https://open.spotify.com/track/7LVHVU3tWfcxj5aiPFEW4Q'
p2911
sg8
S'Fix You'
p2912
ssS'6SznMYPQJHzr3IwsAHLId2'
p2913
(dp2914
g3
S'Ed Sheeran'
p2915
sg5
I5
sg6
S'https://open.spotify.com/track/6SznMYPQJHzr3IwsAHLId2'
p2916
sg8
S'Bibia Be Ye Ye'
p2917
ssS'67Igkn3LegGXD5Xe0yjJVM'
p2918
(dp2919
g3
S'Capital Bra'
p2920
sg5
I2
sg6
S'https://open.spotify.com/track/67Igkn3LegGXD5Xe0yjJVM'
p2921
sg8
S'Es geht ums Gesch\xc3\xa4ft'
p2922
ssS'3g62kHCCbNwhEKYywx5Xwz'
p2923
(dp2924
g3
S'Alligatoah'
p2925
sg5
I9
sg6
S'https://open.spotify.com/track/3g62kHCCbNwhEKYywx5Xwz'
p2926
sg8
S'Willst du'
p2927
ssS'6I8R2dillIEsMrBm6IZqxv'
p2928
(dp2929
g3
S'SDP'
p2930
sg5
I4
sg6
S'https://open.spotify.com/track/6I8R2dillIEsMrBm6IZqxv'
p2931
sg8
S'So sch\xc3\xb6n kaputt'
p2932
ssS'2ZblF7TnUfCVRPWWgBeEhe'
p2933
(dp2934
g3
S'Nico Santos'
p2935
sg5
I16
sg6
S'https://open.spotify.com/track/2ZblF7TnUfCVRPWWgBeEhe'
p2936
sg8
S'Goodbye To Love'
p2937
ssS'3ao4Ryi1vd6oFez6Er9jyZ'
p2938
(dp2939
g3
S'SpongeBOZZ'
p2940
sg5
I1
sg6
S'https://open.spotify.com/track/3ao4Ryi1vd6oFez6Er9jyZ'
p2941
sg8
S'Hype Is Real'
p2942
ssS'2H6dHxAxGq5oQ9EiinNpXT'
p2943
(dp2944
g3
S'The Strumbellas'
p2945
sg5
I7
sg6
S'https://open.spotify.com/track/2H6dHxAxGq5oQ9EiinNpXT'
p2946
sg8
S'Spirits'
p2947
ssS'6FESbqDsYjUXIRdIxgE4qJ'
p2948
(dp2949
g3
S'Yung Hurn'
p2950
sg5
I7
sg6
S'https://open.spotify.com/track/6FESbqDsYjUXIRdIxgE4qJ'
p2951
sg8
S'Ok Cool'
p2952
ssS'1eyrmeiDpdTkOmA839nPVQ'
p2953
(dp2954
g3
S'Robin Schulz'
p2955
sg5
I2
sg6
S'https://open.spotify.com/track/1eyrmeiDpdTkOmA839nPVQ'
p2956
sg8
S'Shed a Light'
p2957
ssS'2mhwX8vAz2l3i2wlrG8Av1'
p2958
(dp2959
g3
S'Wanda'
p2960
sg5
I1
sg6
S'https://open.spotify.com/track/2mhwX8vAz2l3i2wlrG8Av1'
p2961
sg8
S'Columbo'
p2962
ssS'21u9cFskfSRdv6tBFZEtuK'
p2963
(dp2964
g3
S'KC Rebell'
p2965
sg5
I4
sg6
S'https://open.spotify.com/track/21u9cFskfSRdv6tBFZEtuK'
p2966
sg8
S'Outta Control (feat. Hamza)'
p2967
ssS'1xWkyWQGADRVg4XApF1kJ1'
p2968
(dp2969
g3
S'filous'
p2970
sg5
I1
sg6
S'https://open.spotify.com/track/1xWkyWQGADRVg4XApF1kJ1'
p2971
sg8
S'For Love (feat. klei)'
p2972
ssS'36qA0yKr7uNfQDFledNkiN'
p2973
(dp2974
g3
S'AnnenMayKantereit'
p2975
sg5
I1
sg6
S'https://open.spotify.com/track/36qA0yKr7uNfQDFledNkiN'
p2976
sg8
S'Barfu\xc3\x9f am Klavier'
p2977
ssS'0pGdmGx8l6OkT3FGgudLUr'
p2978
(dp2979
g3
S'Hugh Martin'
p2980
sg5
I1
sg6
S'https://open.spotify.com/track/0pGdmGx8l6OkT3FGgudLUr'
p2981
sg8
S'Have Yourself a Merry Little Christmas - Voice'
p2982
ssS'1n4jwRVXdkK2U34nBDUKKT'
p2983
(dp2984
g3
S'Kendrick Lamar'
p2985
sg5
I1
sg6
S'https://open.spotify.com/track/1n4jwRVXdkK2U34nBDUKKT'
p2986
sg8
S'BLOOD.'
p2987
ssS'5Qht2aUJcCjRuhrlHvvKt2'
p2988
(dp2989
g3
S'Lorenz B\xc3\xbcffel'
p2990
sg5
I1
sg6
S'https://open.spotify.com/track/5Qht2aUJcCjRuhrlHvvKt2'
p2991
sg8
S'Johnny D\xc3\xa4pp'
p2992
ssS'1sYSP7gKa5kdKIfhANfori'
p2993
(dp2994
g3
S'MAX'
p2995
sg5
I1
sg6
S'https://open.spotify.com/track/1sYSP7gKa5kdKIfhANfori'
p2996
sg8
S'Lights Down Low'
p2997
ssS'5Ohxk2dO5COHF1krpoPigN'
p2998
(dp2999
g3
S'Harry Styles'
p3000
sg5
I25
sg6
S'https://open.spotify.com/track/5Ohxk2dO5COHF1krpoPigN'
p3001
sg8
S'Sign of the Times'
p3002
ssS'3my1RfvOhuSan7Ml1ZIVze'
p3003
(dp3004
g3
S'Bushido'
p3005
sg5
I2
sg6
S'https://open.spotify.com/track/3my1RfvOhuSan7Ml1ZIVze'
p3006
sg8
S'Papa'
p3007
ssS'7uKSil5r7uHexnM9lukPTc'
p3008
(dp3009
g3
S'Macklemore'
p3010
sg5
I1
sg6
S'https://open.spotify.com/track/7uKSil5r7uHexnM9lukPTc'
p3011
sg8
S'Willy Wonka (feat. Offset)'
p3012
ssS'45wMiGOfoVf8V3USDtqwMn'
p3013
(dp3014
g3
S'Nimo'
p3015
sg5
I1
sg6
S'https://open.spotify.com/track/45wMiGOfoVf8V3USDtqwMn'
p3016
sg8
S'Hoodi'
p3017
ssS'6O85MfGECKBqAK2MgSbCaj'
p3018
(dp3019
g3
S'Martin Solveig'
p3020
sg5
I18
sg6
S'https://open.spotify.com/track/6O85MfGECKBqAK2MgSbCaj'
p3021
sg8
S'Places'
p3022
ssS'1wW6izAT1QSWPeVUn6UyBX'
p3023
(dp3024
g3
S'Karel Svoboda'
p3025
sg5
I1
sg6
S'https://open.spotify.com/track/1wW6izAT1QSWPeVUn6UyBX'
p3026
sg8
S'Drei Haseln\xc3\xbcsse f\xc3\xbcr Aschenbr\xc3\xb6del: Einleitung'
p3027
ssS'4mxWSdf71VFO52qFeY0fZt'
p3028
(dp3029
g3
S'Maroon 5'
p3030
sg5
I6
sg6
S'https://open.spotify.com/track/4mxWSdf71VFO52qFeY0fZt'
p3031
sg8
S'What Lovers Do (feat. SZA)'
p3032
ssS'1ADjWm8QNhgNV8yCNNgQ1T'
p3033
(dp3034
g3
S'Ariana Grande'
p3035
sg5
I1
sg6
S'https://open.spotify.com/track/1ADjWm8QNhgNV8yCNNgQ1T'
p3036
sg8
S'Santa Tell Me'
p3037
ssS'1KGey3jF7EMxwbG1KofMz2'
p3038
(dp3039
g3
S'Capital Bra'
p3040
sg5
I2
sg6
S'https://open.spotify.com/track/1KGey3jF7EMxwbG1KofMz2'
p3041
sg8
S'Wer hoch fliegt f\xc3\xa4llt tief'
p3042
ssS'4Hf7WnR761jpxPr5D46Bcd'
p3043
(dp3044
g3
S'Shawn Mendes'
p3045
sg5
I35
sg6
S'https://open.spotify.com/track/4Hf7WnR761jpxPr5D46Bcd'
p3046
sg8
S'Treat You Better'
p3047
ssS'6De0lHrwBfPfrhorm9q1Xl'
p3048
(dp3049
g3
S'Danny Ocean'
p3050
sg5
I22
sg6
S'https://open.spotify.com/track/6De0lHrwBfPfrhorm9q1Xl'
p3051
sg8
S'Me Reh\xc3\xbaso'
p3052
ssS'3AEZUABDXNtecAOSC1qTfo'
p3053
(dp3054
g3
S'CNCO'
p3055
sg5
I2
sg6
S'https://open.spotify.com/track/3AEZUABDXNtecAOSC1qTfo'
p3056
sg8
S'Reggaet\xc3\xb3n Lento (Bailemos)'
p3057
ssS'62jhFviTBtnm1Bzigve3dj'
p3058
(dp3059
g3
S'Helene Fischer'
p3060
sg5
I1
sg6
S'https://open.spotify.com/track/62jhFviTBtnm1Bzigve3dj'
p3061
sg8
S'Herzbeben'
p3062
ssS'0dXNQ8dckG4eYfEtq9zcva'
p3063
(dp3064
g3
S'The Vamps'
p3065
sg5
I1
sg6
S'https://open.spotify.com/track/0dXNQ8dckG4eYfEtq9zcva'
p3066
sg8
S'All Night'
p3067
ssS'0L1IY5QgkAAzNSgVtEeUn7'
p3068
(dp3069
g3
S'Kamaliya'
p3070
sg5
I1
sg6
S'https://open.spotify.com/track/0L1IY5QgkAAzNSgVtEeUn7'
p3071
sg8
S'Make Me Feel'
p3072
ssS'6LxJNhtLZOcjTc3hNUNzlO'
p3073
(dp3074
g3
S'Savas'
p3075
sg5
I2
sg6
S'https://open.spotify.com/track/6LxJNhtLZOcjTc3hNUNzlO'
p3076
sg8
S'Neue Welt'
p3077
ssS'0vQvHqqROk1GNV94iz1Bx6'
p3078
(dp3079
g3
S'Capital Bra'
p3080
sg5
I1
sg6
S'https://open.spotify.com/track/0vQvHqqROk1GNV94iz1Bx6'
p3081
sg8
S'Mademoiselle'
p3082
ssS'0BSlu63OZFzb7TSs7w335U'
p3083
(dp3084
g3
S'SpongeBOZZ'
p3085
sg5
I1
sg6
S'https://open.spotify.com/track/0BSlu63OZFzb7TSs7w335U'
p3086
sg8
S'Zlatan Ibrahimovic'
p3087
ssS'0s3SdO33gNXbUT1wkVSdJj'
p3088
(dp3089
g3
S'Bushido'
p3090
sg5
I1
sg6
S'https://open.spotify.com/track/0s3SdO33gNXbUT1wkVSdJj'
p3091
sg8
S'Angst'
p3092
ssS'1MksGqIztTT6M9R1ErKVs8'
p3093
(dp3094
g3
S'Big Sean'
p3095
sg5
I2
sg6
S'https://open.spotify.com/track/1MksGqIztTT6M9R1ErKVs8'
p3096
sg8
S'No Favors'
p3097
ssS'1EaKU4dMbesXXd3BrLCtYG'
p3098
(dp3099
g3
S'Kendrick Lamar'
p3100
sg5
I4
sg6
S'https://open.spotify.com/track/1EaKU4dMbesXXd3BrLCtYG'
p3101
sg8
S'ELEMENT.'
p3102
ssS'2Ce5IyMlVRVvN997ZJjJJA'
p3103
(dp3104
g3
S'Future'
p3105
sg5
I15
sg6
S'https://open.spotify.com/track/2Ce5IyMlVRVvN997ZJjJJA'
p3106
sg8
S'Selfish'
p3107
ssS'3aDYo34VzVf2i8aJyJk0ca'
p3108
(dp3109
g3
S'187 Strassenbande'
p3110
sg5
I13
sg6
S'https://open.spotify.com/track/3aDYo34VzVf2i8aJyJk0ca'
p3111
sg8
S'Mit den Jungz'
p3112
ssS'5knuzwU65gJK7IF5yJsuaW'
p3113
(dp3114
g3
S'Clean Bandit'
p3115
sg5
I35
sg6
S'https://open.spotify.com/track/5knuzwU65gJK7IF5yJsuaW'
p3116
sg8
S'Rockabye (feat. Sean Paul & Anne-Marie)'
p3117
ssS'7aF09WaavZAmAWuUeYxlYD'
p3118
(dp3119
g3
S'OneRepublic'
p3120
sg5
I13
sg6
S'https://open.spotify.com/track/7aF09WaavZAmAWuUeYxlYD'
p3121
sg8
S'Rich Love (with Seeb)'
p3122
ssS'3bWAqKDWg6u1davspr5IkS'
p3123
(dp3124
g3
S'Robin Schulz'
p3125
sg5
I21
sg6
S'https://open.spotify.com/track/3bWAqKDWg6u1davspr5IkS'
p3126
sg8
S'OK'
p3127
ssS'2dxNtS3X78Omx0V5D9DaES'
p3128
(dp3129
g3
S'Ufo361'
p3130
sg5
I1
sg6
S'https://open.spotify.com/track/2dxNtS3X78Omx0V5D9DaES'
p3131
sg8
S'1000 Bitches'
p3132
ssS'5MuiT0D2jhWwWJyx3W9gsk'
p3133
(dp3134
g3
S'SpongeBOZZ'
p3135
sg5
I2
sg6
S'https://open.spotify.com/track/5MuiT0D2jhWwWJyx3W9gsk'
p3136
sg8
S'Yellow Bar Mitzvah'
p3137
ssS'4ZvS3wPyuNaiHefG9bJsBX'
p3138
(dp3139
g3
S'RAF Camora'
p3140
sg5
I7
sg6
S'https://open.spotify.com/track/4ZvS3wPyuNaiHefG9bJsBX'
p3141
sg8
S'Roots'
p3142
ssS'14WWzenpaEgQZlqPq2nk4v'
p3143
(dp3144
g3
S'Rihanna'
p3145
sg5
I1
sg6
S'https://open.spotify.com/track/14WWzenpaEgQZlqPq2nk4v'
p3146
sg8
S'Work'
p3147
ssS'4tHqQMWSqmL6YjXwsqthDI'
p3148
(dp3149
g3
S'Mykola Dmytrovych Leontovych'
p3150
sg5
I1
sg6
S'https://open.spotify.com/track/4tHqQMWSqmL6YjXwsqthDI'
p3151
sg8
S'Carol of the Bells'
p3152
ssS'3FTKzJI05mtKBIouwQcEpZ'
p3153
(dp3154
g3
S'Philipp Poisel'
p3155
sg5
I1
sg6
S'https://open.spotify.com/track/3FTKzJI05mtKBIouwQcEpZ'
p3156
sg8
S'Erkl\xc3\xa4re mir die Liebe'
p3157
ssS'7vnEuDZTbPRu5ThYoMv7G0'
p3158
(dp3159
g3
S'Kay One'
p3160
sg5
I16
sg6
S'https://open.spotify.com/track/7vnEuDZTbPRu5ThYoMv7G0'
p3161
sg8
S'Louis Louis'
p3162
ssS'6b8Be6ljOzmkOmFslEb23P'
p3163
(dp3164
g3
S'Bruno Mars'
p3165
sg5
I13
sg6
S'https://open.spotify.com/track/6b8Be6ljOzmkOmFslEb23P'
p3166
sg8
S'24K Magic'
p3167
ssS'6zxFyURXhsMwwkLQGZbzBw'
p3168
(dp3169
g3
S'Capital Bra'
p3170
sg5
I2
sg6
S'https://open.spotify.com/track/6zxFyURXhsMwwkLQGZbzBw'
p3171
sg8
S'Nur noch Gucci'
p3172
ssS'2D2aN1LbKCJNe6jj3RBC7Z'
p3173
(dp3174
g3
S'Tagtraeumer'
p3175
sg5
I3
sg6
S'https://open.spotify.com/track/2D2aN1LbKCJNe6jj3RBC7Z'
p3176
sg8
S'Unendlich gleich'
p3177
ssS'2VJ8G0LeX2hu7RWc4suNhe'
p3178
(dp3179
g3
S'Timmy Trumpet'
p3180
sg5
I2
sg6
S'https://open.spotify.com/track/2VJ8G0LeX2hu7RWc4suNhe'
p3181
sg8
S'Freaks - Radio Edit'
p3182
ssS'6uJwPeBGb3swi85TSr9iIz'
p3183
(dp3184
g3
S'Coldplay'
p3185
sg5
I1
sg6
S'https://open.spotify.com/track/6uJwPeBGb3swi85TSr9iIz'
p3186
sg8
S'Miracles (Someone Special)'
p3187
ssS'4so0Wek9Ig1p6CRCHuINwW'
p3188
(dp3189
g3
S'Bing Crosby'
p3190
sg5
I1
sg6
S'https://open.spotify.com/track/4so0Wek9Ig1p6CRCHuINwW'
p3191
sg8
S'White Christmas'
p3192
ssS'4hiUYb2nb6NlfTP9CD38Pe'
p3193
(dp3194
g3
S'Ti\xc3\xabsto'
p3195
sg5
I2
sg6
S'https://open.spotify.com/track/4hiUYb2nb6NlfTP9CD38Pe'
p3196
sg8
S'On My Way'
p3197
ssS'2aFujKFsDGMuV6BXsdyU9y'
p3198
(dp3199
g3
S'Lily & Madeleine'
p3200
sg5
I2
sg6
S'https://open.spotify.com/track/2aFujKFsDGMuV6BXsdyU9y'
p3201
sg8
S'Come To Me (Ofenbach Remix) - Radio Edit'
p3202
ssS'4u9Y4Z9i9VaAbBK7rW1Rha'
p3203
(dp3204
g3
S'Harry Styles'
p3205
sg5
I1
sg6
S'https://open.spotify.com/track/4u9Y4Z9i9VaAbBK7rW1Rha'
p3206
sg8
S'Meet Me in the Hallway'
p3207
ssS'23luOrEVHMfoX0AhfbQuS6'
p3208
(dp3209
g3
S'Kendrick Lamar'
p3210
sg5
I1
sg6
S'https://open.spotify.com/track/23luOrEVHMfoX0AhfbQuS6'
p3211
sg8
S'FEAR.'
p3212
ssS'07TAUihsoCBnLWWXuZYUyw'
p3213
(dp3214
g3
S'Mark Forster'
p3215
sg5
I22
sg6
S'https://open.spotify.com/track/07TAUihsoCBnLWWXuZYUyw'
p3216
sg8
S'Sowieso - Radio Version'
p3217
ssS'5DA77EqppDmCTWGovd4oTP'
p3218
(dp3219
g3
S'Cheat Codes'
p3220
sg5
I22
sg6
S'https://open.spotify.com/track/5DA77EqppDmCTWGovd4oTP'
p3221
sg8
S'Sex'
p3222
ssS'5OHOykHs3Ct2pgbqod8uMD'
p3223
(dp3224
g3
S'Kay One'
p3225
sg5
I5
sg6
S'https://open.spotify.com/track/5OHOykHs3Ct2pgbqod8uMD'
p3226
sg8
S'Senorita'
p3227
ssS'7bTOo2cEsj7HqColBVPkm1'
p3228
(dp3229
g3
S'Cro'
p3230
sg5
I2
sg6
S'https://open.spotify.com/track/7bTOo2cEsj7HqColBVPkm1'
p3231
sg8
S'baum'
p3232
ssS'7ni9L7ymaFjS2X6DlbIpgu'
p3233
(dp3234
g3
S'SpongeBOZZ'
p3235
sg5
I1
sg6
S'https://open.spotify.com/track/7ni9L7ymaFjS2X6DlbIpgu'
p3236
sg8
S'Now We Here'
p3237
ssS'06FCvd7rrRcF3DdvWH5Isp'
p3238
(dp3239
g3
S'Kendrick Lamar'
p3240
sg5
I2
sg6
S'https://open.spotify.com/track/06FCvd7rrRcF3DdvWH5Isp'
p3241
sg8
S'LUST.'
p3242
ssS'6HZILIRieu8S0iqY8kIKhj'
p3243
(dp3244
g3
S'Kendrick Lamar'
p3245
sg5
I16
sg6
S'https://open.spotify.com/track/6HZILIRieu8S0iqY8kIKhj'
p3246
sg8
S'DNA.'
p3247
ssS'4gqMQftUs22F8pOGVn5Acr'
p3248
(dp3249
g3
S'Shawn Hook'
p3250
sg5
I13
sg6
S'https://open.spotify.com/track/4gqMQftUs22F8pOGVn5Acr'
p3251
sg8
S'Reminding Me'
p3252
ssS'7F9vK8hNFMml4GtHsaXui6'
p3253
(dp3254
g3
S'Louis Tomlinson'
p3255
sg5
I12
sg6
S'https://open.spotify.com/track/7F9vK8hNFMml4GtHsaXui6'
p3256
sg8
S'Back to You (feat. Bebe Rexha & Digital Farm Animals)'
p3257
ssS'11Fo4dAH31K7UZHGqCkCmE'
p3258
(dp3259
g3
S'Axwell /\\ Ingrosso'
p3260
sg5
I20
sg6
S'https://open.spotify.com/track/11Fo4dAH31K7UZHGqCkCmE'
p3261
sg8
S'I Love You'
p3262
ssS'03JMjrsnUgeZNJ5yUJgWbL'
p3263
(dp3264
g3
S'Nash'
p3265
sg5
I2
sg6
S'https://open.spotify.com/track/03JMjrsnUgeZNJ5yUJgWbL'
p3266
sg8
S'Grande'
p3267
ssS'2nYwV62UABTH0NanrwVIdQ'
p3268
(dp3269
g3
S'Rae Sremmurd'
p3270
sg5
I1
sg6
S'https://open.spotify.com/track/2nYwV62UABTH0NanrwVIdQ'
p3271
sg8
S'Perplexing Pegasus'
p3272
ssS'6SUocL0caib4mLHe8ZrZzi'
p3273
(dp3274
g3
S'Rudimental'
p3275
sg5
I7
sg6
S'https://open.spotify.com/track/6SUocL0caib4mLHe8ZrZzi'
p3276
sg8
S'Sun Comes Up'
p3277
ssS'0B48113ZG9UfkWWt7qD9xX'
p3278
(dp3279
g3
S'Miley Cyrus'
p3280
sg5
I4
sg6
S'https://open.spotify.com/track/0B48113ZG9UfkWWt7qD9xX'
p3281
sg8
S'Younger Now'
p3282
ssS'2EEeOnHehOozLq4aS0n6SL'
p3283
(dp3284
g3
S'KYLE'
p3285
sg5
I19
sg6
S'https://open.spotify.com/track/2EEeOnHehOozLq4aS0n6SL'
p3286
sg8
S'iSpy (feat. Lil Yachty)'
p3287
ssS'3B54sVLJ402zGa6Xm4YGNe'
p3288
(dp3289
g3
S'French Montana'
p3290
sg5
I14
sg6
S'https://open.spotify.com/track/3B54sVLJ402zGa6Xm4YGNe'
p3291
sg8
S'Unforgettable'
p3292
ssS'7JuGl6cntiqvXVgXJFSggk'
p3293
(dp3294
g3
S'Sol Calor'
p3295
sg5
I2
sg6
S'https://open.spotify.com/track/7JuGl6cntiqvXVgXJFSggk'
p3296
sg8
S'Midnight Sky'
p3297
ssS'6gpcs5eMhJwax4mIfKDYQk'
p3298
(dp3299
g3
S'Calvin Harris'
p3300
sg5
I4
sg6
S'https://open.spotify.com/track/6gpcs5eMhJwax4mIfKDYQk'
p3301
sg8
S'Slide'
p3302
ssS'5bcTCxgc7xVfSaMV3RuVke'
p3303
(dp3304
g3
S'Calvin Harris'
p3305
sg5
I16
sg6
S'https://open.spotify.com/track/5bcTCxgc7xVfSaMV3RuVke'
p3306
sg8
S'Feels'
p3307
ssS'0QsvXIfqM0zZoerQfsI9lm'
p3308
(dp3309
g3
S'The Chainsmokers'
p3310
sg5
I39
sg6
S'https://open.spotify.com/track/0QsvXIfqM0zZoerQfsI9lm'
p3311
sg8
S"Don't Let Me Down"
p3312
ssS'2YJiphD96INAmMzRHc0UdK'
p3313
(dp3314
g3
S'Veysel'
p3315
sg5
I6
sg6
S'https://open.spotify.com/track/2YJiphD96INAmMzRHc0UdK'
p3316
sg8
S'Bargeld'
p3317
ssS'7pJ4iEOOwUEzO3m9Hh3Ojr'
p3318
(dp3319
g3
S'Jasmine Thompson'
p3320
sg5
I8
sg6
S'https://open.spotify.com/track/7pJ4iEOOwUEzO3m9Hh3Ojr'
p3321
sg8
S'Old Friends - Jonas Blue Remix'
p3322
ssS'0fHZirprNSLEc1OLs1OiwL'
p3323
(dp3324
g3
S'Milky Chance'
p3325
sg5
I3
sg6
S'https://open.spotify.com/track/0fHZirprNSLEc1OLs1OiwL'
p3326
sg8
S'Blossom'
p3327
ssS'4qqArAiTPueDxIp7cf87h7'
p3328
(dp3329
g3
S'M\xc3\x98'
p3330
sg5
I16
sg6
S'https://open.spotify.com/track/4qqArAiTPueDxIp7cf87h7'
p3331
sg8
S'Final Song'
p3332
ssS'5hslUAKq9I9CG2bAulFkHN'
p3333
(dp3334
g3
S'Andy Williams'
p3335
sg5
I1
sg6
S'https://open.spotify.com/track/5hslUAKq9I9CG2bAulFkHN'
p3336
sg8
S"It's the Most Wonderful Time of the Year"
p3337
ssS'2nLtzopw4rPReszdYBJU6h'
p3338
(dp3339
g3
S'Linkin Park'
p3340
sg5
I12
sg6
S'https://open.spotify.com/track/2nLtzopw4rPReszdYBJU6h'
p3341
sg8
S'Numb'
p3342
ssS'4U9arGcc4ATa7shChhLQP0'
p3343
(dp3344
g3
S'Thirty Seconds To Mars'
p3345
sg5
I7
sg6
S'https://open.spotify.com/track/4U9arGcc4ATa7shChhLQP0'
p3346
sg8
S'Walk On Water'
p3347
ssS'3a1lNhkSLSkpJE4MSHpDu9'
p3348
(dp3349
g3
S'Post Malone'
p3350
sg5
I35
sg6
S'https://open.spotify.com/track/3a1lNhkSLSkpJE4MSHpDu9'
p3351
sg8
S'Congratulations'
p3352
ssS'0d5rZe3RMBbVYY4BDAxqGF'
p3353
(dp3354
g3
S'Poptracker'
p3355
sg5
I1
sg6
S'https://open.spotify.com/track/0d5rZe3RMBbVYY4BDAxqGF'
p3356
sg8
S'Hold - Radio Edit'
p3357
ssS'2iSwnrcLP8hwHhO5R75B9w'
p3358
(dp3359
g3
S'Alice Merton'
p3360
sg5
I3
sg6
S'https://open.spotify.com/track/2iSwnrcLP8hwHhO5R75B9w'
p3361
sg8
S'Hit The Ground Running - Single Version'
p3362
ssS'5Rw35kLemvSdxXmpQveQ7B'
p3363
(dp3364
g3
S'Trettmann'
p3365
sg5
I2
sg6
S'https://open.spotify.com/track/5Rw35kLemvSdxXmpQveQ7B'
p3366
sg8
S'GottSeiDank'
p3367
ssS'11XTlCxrHcMOsnnaVUQnFj'
p3368
(dp3369
g3
S'Veysel'
p3370
sg5
I2
sg6
S'https://open.spotify.com/track/11XTlCxrHcMOsnnaVUQnFj'
p3371
sg8
S'Bam Bam'
p3372
ssS'6yr8GiTHWvFfi4o6Q5ebdT'
p3373
(dp3374
g3
S'Eminem'
p3375
sg5
I38
sg6
S'https://open.spotify.com/track/6yr8GiTHWvFfi4o6Q5ebdT'
p3376
sg8
S"'Till I Collapse"
p3377
ssS'1k0lsMFFJo91bd9cHGlVVa'
p3378
(dp3379
g3
S'TJ_beastboy'
p3380
sg5
I1
sg6
S'https://open.spotify.com/track/1k0lsMFFJo91bd9cHGlVVa'
p3381
sg8
S'Mag ja sein..'
p3382
ssS'6wV12xIUb8oFY7lBy4KuQe'
p3383
(dp3384
g3
S'Aaron Carter'
p3385
sg5
I5
sg6
S'https://open.spotify.com/track/6wV12xIUb8oFY7lBy4KuQe'
p3386
sg8
S'Sooner Or Later'
p3387
ssS'2PcREcTtGiNTUCM4g2Qg4Z'
p3388
(dp3389
g3
S'RIN'
p3390
sg5
I17
sg6
S'https://open.spotify.com/track/2PcREcTtGiNTUCM4g2Qg4Z'
p3391
sg8
S'Bros'
p3392
ssS'5amWhhuMPipfRYq3eLJNyF'
p3393
(dp3394
g3
S'Amanda'
p3395
sg5
I16
sg6
S'https://open.spotify.com/track/5amWhhuMPipfRYq3eLJNyF'
p3396
sg8
S'Blau'
p3397
ssS'2fkeWbM6iqTw7oGHTYm2lw'
p3398
(dp3399
g3
S'Drake'
p3400
sg5
I2
sg6
S'https://open.spotify.com/track/2fkeWbM6iqTw7oGHTYm2lw'
p3401
sg8
S'4422'
p3402
ssS'0ofbQMrRDsUaVKq2mGLEAb'
p3403
(dp3404
g3
S'Camila Cabello'
p3405
sg5
I10
sg6
S'https://open.spotify.com/track/0ofbQMrRDsUaVKq2mGLEAb'
p3406
sg8
S'Havana'
p3407
ssS'0h0DsdS7Fpzq1dTopmPNpb'
p3408
(dp3409
g3
S'Capital Bra'
p3410
sg5
I1
sg6
S'https://open.spotify.com/track/0h0DsdS7Fpzq1dTopmPNpb'
p3411
sg8
S'Wie alles begann'
p3412
ssS'3EB28IRRCjgvEpeOkdixlA'
p3413
(dp3414
g3
S'Bushido'
p3415
sg5
I12
sg6
S'https://open.spotify.com/track/3EB28IRRCjgvEpeOkdixlA'
p3416
sg8
S'Papa'
p3417
ssS'7zja6rwquGA6vzLolzKrda'
p3418
(dp3419
g3
S'Andreas Gabalier'
p3420
sg5
I11
sg6
S'https://open.spotify.com/track/7zja6rwquGA6vzLolzKrda'
p3421
sg8
S'Hulapalu'
p3422
ssS'3eLWJ29j2FGM91T7aGlHHW'
p3423
(dp3424
g3
S'Nat King Cole'
p3425
sg5
I1
sg6
S'https://open.spotify.com/track/3eLWJ29j2FGM91T7aGlHHW'
p3426
sg8
S'Joy To The World'
p3427
ssS'6bLopGnirdrilrpdVB6Um1'
p3428
(dp3429
g3
S'Sia'
p3430
sg5
I6
sg6
S'https://open.spotify.com/track/6bLopGnirdrilrpdVB6Um1'
p3431
sg8
S'The Greatest'
p3432
ssS'3agtg0x11wPvLIWkYR39nZ'
p3433
(dp3434
g3
S'Linkin Park'
p3435
sg5
I1
sg6
S'https://open.spotify.com/track/3agtg0x11wPvLIWkYR39nZ'
p3436
sg8
S'Somewhere I Belong'
p3437
ssS'1EPtSITu19y0DQvbIvs6Jz'
p3438
(dp3439
g3
S'Capital Bra'
p3440
sg5
I2
sg6
S'https://open.spotify.com/track/1EPtSITu19y0DQvbIvs6Jz'
p3441
sg8
S'Zweistellige Haftstrafen'
p3442
ssS'6iTVIAqZpHmCK9jrpDyDVo'
p3443
(dp3444
g3
S'Kungs'
p3445
sg5
I2
sg6
S'https://open.spotify.com/track/6iTVIAqZpHmCK9jrpDyDVo'
p3446
sg8
S'I Feel So Bad'
p3447
ssS'1vvNmPOiUuyCbgWmtc6yfm'
p3448
(dp3449
g3
S'Calvin Harris'
p3450
sg5
I24
sg6
S'https://open.spotify.com/track/1vvNmPOiUuyCbgWmtc6yfm'
p3451
sg8
S'My Way'
p3452
ssS'3DXncPQOG4VBw3QHh3S817'
p3453
(dp3454
g3
S'DJ Khaled'
p3455
sg5
I20
sg6
S'https://open.spotify.com/track/3DXncPQOG4VBw3QHh3S817'
p3456
sg8
S"I'm the One"
p3457
ssS'0CcQNd8CINkwQfe1RDtGV6'
p3458
(dp3459
g3
S'Imagine Dragons'
p3460
sg5
I33
sg6
S'https://open.spotify.com/track/0CcQNd8CINkwQfe1RDtGV6'
p3461
sg8
S'Believer'
p3462
ssS'5lIat5pyge2yKkV20FlgQ7'
p3463
(dp3464
g3
S'Campsite Dream'
p3465
sg5
I7
sg6
S'https://open.spotify.com/track/5lIat5pyge2yKkV20FlgQ7'
p3466
sg8
S'Little Do You Know'
p3467
ssS'1Sl3njkhhz8nrSPZroDQ82'
p3468
(dp3469
g3
S'Dimitri Vegas & Like Mike'
p3470
sg5
I11
sg6
S'https://open.spotify.com/track/1Sl3njkhhz8nrSPZroDQ82'
p3471
sg8
S'Complicated (feat. Kiiara)'
p3472
ssS'57BrRMwf9LrcmuOsyGilwr'
p3473
(dp3474
g3
S'Linkin Park'
p3475
sg5
I2
sg6
S'https://open.spotify.com/track/57BrRMwf9LrcmuOsyGilwr'
p3476
sg8
S'Crawling'
p3477
ssS'5Orlnis8mwywCBgZG7VTjV'
p3478
(dp3479
g3
S'Hardwell'
p3480
sg5
I2
sg6
S'https://open.spotify.com/track/5Orlnis8mwywCBgZG7VTjV'
p3481
sg8
S'Creatures Of The Night'
p3482
ssS'0afhq8XCExXpqazXczTSve'
p3483
(dp3484
g3
S'Ed Sheeran'
p3485
sg5
I32
sg6
S'https://open.spotify.com/track/0afhq8XCExXpqazXczTSve'
p3486
sg8
S'Galway Girl'
p3487
ssS'2ZE3DJuizYTad2S4CvRRhK'
p3488
(dp3489
g3
S'Lauv'
p3490
sg5
I1
sg6
S'https://open.spotify.com/track/2ZE3DJuizYTad2S4CvRRhK'
p3491
sg8
S'Easy Love'
p3492
ssS'6dYidXIBbgJ66Ildu9Ime0'
p3493
(dp3494
g3
S'Cro'
p3495
sg5
I1
sg6
S'https://open.spotify.com/track/6dYidXIBbgJ66Ildu9Ime0'
p3496
sg8
S'fkngrt'
p3497
ssS'09OojFvtrM9YRzRjnXqJjA'
p3498
(dp3499
g3
S'Brenda Lee'
p3500
sg5
I1
sg6
S'https://open.spotify.com/track/09OojFvtrM9YRzRjnXqJjA'
p3501
sg8
S"Rockin' Around The Christmas Tree - Rerecorded Version"
p3502
ssS'679C7xG3Mm7zGRwyhskqKW'
p3503
(dp3504
g3
S'KC Rebell'
p3505
sg5
I1
sg6
S'https://open.spotify.com/track/679C7xG3Mm7zGRwyhskqKW'
p3506
sg8
S'Kafa Bir Milyon'
p3507
ssS'1NDxZ7cFAo481dtYWdrUnR'
p3508
(dp3509
g3
S'Maggie Lindemann'
p3510
sg5
I27
sg6
S'https://open.spotify.com/track/1NDxZ7cFAo481dtYWdrUnR'
p3511
sg8
S'Pretty Girl - Cheat Codes X CADE Remix'
p3512
ssS'2aFiaMXmWsM3Vj72F9ksBl'
p3513
(dp3514
g3
S'DNCE'
p3515
sg5
I3
sg6
S'https://open.spotify.com/track/2aFiaMXmWsM3Vj72F9ksBl'
p3516
sg8
S'Cake By The Ocean'
p3517
ssS'2F8FwWixFwZhdfMOh3ZYLt'
p3518
(dp3519
g3
S'Miami Yacine'
p3520
sg5
I1
sg6
S'https://open.spotify.com/track/2F8FwWixFwZhdfMOh3ZYLt'
p3521
sg8
S'Daytona'
p3522
ssS'152lZdxL1OR0ZMW6KquMif'
p3523
(dp3524
g3
S'Khalid'
p3525
sg5
I21
sg6
S'https://open.spotify.com/track/152lZdxL1OR0ZMW6KquMif'
p3526
sg8
S'Location'
p3527
ssS'27XVTa9Eb2nO6lhhY5SbTl'
p3528
(dp3529
g3
S'Trettmann'
p3530
sg5
I8
sg6
S'https://open.spotify.com/track/27XVTa9Eb2nO6lhhY5SbTl'
p3531
sg8
S'Kn\xc3\xb6cheltief'
p3532
ssS'4TZy1wLyHec06pwgFYDh1a'
p3533
(dp3534
g3
S'Shawn Mendes'
p3535
sg5
I24
sg6
S'https://open.spotify.com/track/4TZy1wLyHec06pwgFYDh1a'
p3536
sg8
S'Mercy'
p3537
ssS'1HxvdVlvQH5NUPi1wsq5L1'
p3538
(dp3539
g3
S'Welshly Arms'
p3540
sg5
I20
sg6
S'https://open.spotify.com/track/1HxvdVlvQH5NUPi1wsq5L1'
p3541
sg8
S'Legendary'
p3542
ssS'3sIUqTiWB2eok1HGzokqit'
p3543
(dp3544
g3
S'Pizzera & Jaus'
p3545
sg5
I6
sg6
S'https://open.spotify.com/track/3sIUqTiWB2eok1HGzokqit'
p3546
sg8
S'jedermann'
p3547
ssS'4q8PHoRsPUB52LFylX8Ulz'
p3548
(dp3549
g3
S'Axwell /\\ Ingrosso'
p3550
sg5
I9
sg6
S'https://open.spotify.com/track/4q8PHoRsPUB52LFylX8Ulz'
p3551
sg8
S'More Than You Know'
p3552
ssS'4QdovcM8j50QPlyR7tH4xe'
p3553
(dp3554
g3
S'Marc E. Bassy'
p3555
sg5
I4
sg6
S'https://open.spotify.com/track/4QdovcM8j50QPlyR7tH4xe'
p3556
sg8
S'You & Me'
p3557
ssS'6rwCkGBh7CV6pcdxZKbcsG'
p3558
(dp3559
g3
S'KC Rebell'
p3560
sg5
I18
sg6
S'https://open.spotify.com/track/6rwCkGBh7CV6pcdxZKbcsG'
p3561
sg8
S'iPhone 17 (feat. Mo\xc3\xa9)'
p3562
ssS'4Q3N4Ct4zCuIHuZ65E3BD4'
p3563
(dp3564
g3
S'Kodak Black'
p3565
sg5
I2
sg6
S'https://open.spotify.com/track/4Q3N4Ct4zCuIHuZ65E3BD4'
p3566
sg8
S'Tunnel Vision'
p3567
ssS'05Mp2UJulSttxQ4E6hQPH3'
p3568
(dp3569
g3
S'Bonez MC'
p3570
sg5
I42
sg6
S'https://open.spotify.com/track/05Mp2UJulSttxQ4E6hQPH3'
p3571
sg8
S'Ohne mein Team'
p3572
ssS'6s5smacBOoWoI08Vi6EX5T'
p3573
(dp3574
g3
S'Seeb'
p3575
sg5
I1
sg6
S'https://open.spotify.com/track/6s5smacBOoWoI08Vi6EX5T'
p3576
sg8
S'Breathe'
p3577
ssS'1FUViuNSldssMIawrOXF2i'
p3578
(dp3579
g3
S'Bebe Rexha'
p3580
sg5
I20
sg6
S'https://open.spotify.com/track/1FUViuNSldssMIawrOXF2i'
p3581
sg8
S'I Got You'
p3582
ssS'3b5eOeAbCqH1mmmOtq6bwG'
p3583
(dp3584
g3
S'FlowRag'
p3585
sg5
I5
sg6
S'https://open.spotify.com/track/3b5eOeAbCqH1mmmOtq6bwG'
p3586
sg8
S'Dann Kommt Die Musik'
p3587
ssS'29CoYNq5Jn9v0xkmOGGT0s'
p3588
(dp3589
g3
S'Kurdo'
p3590
sg5
I2
sg6
S'https://open.spotify.com/track/29CoYNq5Jn9v0xkmOGGT0s'
p3591
sg8
S'Desert Eagle'
p3592
ssS'4lharVQjYNhByFR8dSHkMA'
p3593
(dp3594
g3
S'Bakermat'
p3595
sg5
I16
sg6
S'https://open.spotify.com/track/4lharVQjYNhByFR8dSHkMA'
p3596
sg8
S"Don't Want You Back"
p3597
ssS'0RE7AgMKdpcvRkK7EhNoBs'
p3598
(dp3599
g3
S'Kontra K'
p3600
sg5
I7
sg6
S'https://open.spotify.com/track/0RE7AgMKdpcvRkK7EhNoBs'
p3601
sg8
S'Diamanten'
p3602
ssS'0CokSRCu5hZgPxcZBaEzVE'
p3603
(dp3604
g3
S'Macklemore'
p3605
sg5
I3
sg6
S'https://open.spotify.com/track/0CokSRCu5hZgPxcZBaEzVE'
p3606
sg8
S'Glorious (feat. Skylar Grey)'
p3607
ssS'7HGHhLbAklVxGkYdwyeVML'
p3608
(dp3609
g3
S'Vigiland'
p3610
sg5
I22
sg6
S'https://open.spotify.com/track/7HGHhLbAklVxGkYdwyeVML'
p3611
sg8
S'Friday Night'
p3612
ssS'3cNjgVBKTJ1SvKhunrCdVy'
p3613
(dp3614
g3
S'Joel Adams'
p3615
sg5
I3
sg6
S'https://open.spotify.com/track/3cNjgVBKTJ1SvKhunrCdVy'
p3616
sg8
S"Please Don't Go"
p3617
ssS'6OuV4vfyb8v3vGGGksqyKf'
p3618
(dp3619
g3
S'AJR'
p3620
sg5
I2
sg6
S'https://open.spotify.com/track/6OuV4vfyb8v3vGGGksqyKf'
p3621
sg8
S'Weak'
p3622
ssS'542Xd5qDeLBvgXZXhfW7LE'
p3623
(dp3624
g3
S'Vice'
p3625
sg5
I3
sg6
S'https://open.spotify.com/track/542Xd5qDeLBvgXZXhfW7LE'
p3626
sg8
S'Obsession (feat. Jon Bellion)'
p3627
ssS'4Q4jmPHwu0wrJvqrld0FQ6'
p3628
(dp3629
g3
S'Zara Larsson'
p3630
sg5
I14
sg6
S'https://open.spotify.com/track/4Q4jmPHwu0wrJvqrld0FQ6'
p3631
sg8
S'I Would Like'
p3632
ssS'32DGGj6KlNuBr6WaqRxpxi'
p3633
(dp3634
g3
S'Charlie Puth'
p3635
sg5
I1
sg6
S'https://open.spotify.com/track/32DGGj6KlNuBr6WaqRxpxi'
p3636
sg8
S'How Long'
p3637
ssS'6rQSrBHf7HlZjtcMZ4S4bO'
p3638
(dp3639
g3
S'J Balvin'
p3640
sg5
I3
sg6
S'https://open.spotify.com/track/6rQSrBHf7HlZjtcMZ4S4bO'
p3641
sg8
S'Safari'
p3642
ssS'0QjewL57d6QobAvn1JoQd9'
p3643
(dp3644
g3
S'Trailerpark'
p3645
sg5
I7
sg6
S'https://open.spotify.com/track/0QjewL57d6QobAvn1JoQd9'
p3646
sg8
S'Bleib in der Schule'
p3647
ssS'33TXYsV7mJ8hze9JMthRjh'
p3648
(dp3649
g3
S'Bilderbuch'
p3650
sg5
I1
sg6
S'https://open.spotify.com/track/33TXYsV7mJ8hze9JMthRjh'
p3651
sg8
S'SUPERFUNKYPARTYTIME'
p3652
ssS'3Dqe6DACBnXsMlYuOZkPyB'
p3653
(dp3654
g3
S'Bushido'
p3655
sg5
I1
sg6
S'https://open.spotify.com/track/3Dqe6DACBnXsMlYuOZkPyB'
p3656
sg8
S'Ground Zero'
p3657
ssS'5xlS0QkVrSH7ssEbBgBzbM'
p3658
(dp3659
g3
S'The Beach Boys'
p3660
sg5
I1
sg6
S'https://open.spotify.com/track/5xlS0QkVrSH7ssEbBgBzbM'
p3661
sg8
S'Little Saint Nick'
p3662
ssS'7yyRTcZmCiyzzJlNzGC9Ol'
p3663
(dp3664
g3
S'DRAM'
p3665
sg5
I8
sg6
S'https://open.spotify.com/track/7yyRTcZmCiyzzJlNzGC9Ol'
p3666
sg8
S'Broccoli (feat. Lil Yachty)'
p3667
ssS'0L9lXMXddmoBbBUeF7A9An'
p3668
(dp3669
g3
S'Gavin James'
p3670
sg5
I3
sg6
S'https://open.spotify.com/track/0L9lXMXddmoBbBUeF7A9An'
p3671
sg8
S'Nervous (The Ooh Song) - Mark McCabe Remix'
p3672
ssS'3vcHPShfJAFP3TtAAsTHsV'
p3673
(dp3674
g3
S'Sunstroke Project'
p3675
sg5
I13
sg6
S'https://open.spotify.com/track/3vcHPShfJAFP3TtAAsTHsV'
p3676
sg8
S'Hey Mamma - Radio Edit'
p3677
ssS'0KkLInq8FnXRBKHEv91Xrz'
p3678
(dp3679
g3
S'Bilderbuch'
p3680
sg5
I1
sg6
S'https://open.spotify.com/track/0KkLInq8FnXRBKHEv91Xrz'
p3681
sg8
S'Carpe/Diem'
p3682
ssS'3zgZC7oLVaBA9OkHpqxKY7'
p3683
(dp3684
g3
S'Mert'
p3685
sg5
I2
sg6
S'https://open.spotify.com/track/3zgZC7oLVaBA9OkHpqxKY7'
p3686
sg8
S'Boxerschnitt'
p3687
ssS'2VRNYpYmE2ToZQYgiUl4Hc'
p3688
(dp3689
g3
S'Backstreet Boys'
p3690
sg5
I1
sg6
S'https://open.spotify.com/track/2VRNYpYmE2ToZQYgiUl4Hc'
p3691
sg8
S'Christmas Time'
p3692
ssS'2Fjz5ZC5BvFdCqcnTZ3ilH'
p3693
(dp3694
g3
S'Alan Walker'
p3695
sg5
I12
sg6
S'https://open.spotify.com/track/2Fjz5ZC5BvFdCqcnTZ3ilH'
p3696
sg8
S'Sing Me to Sleep'
p3697
ssS'2771LMNxwf62FTAdpJMQfM'
p3698
(dp3699
g3
S'Cardi B'
p3700
sg5
I7
sg6
S'https://open.spotify.com/track/2771LMNxwf62FTAdpJMQfM'
p3701
sg8
S'Bodak Yellow'
p3702
ssS'3SdZWZ653w62Ah37iDo831'
p3703
(dp3704
g3
S'Bibi H.'
p3705
sg5
I1
sg6
S'https://open.spotify.com/track/3SdZWZ653w62Ah37iDo831'
p3706
sg8
S'How It Is (Wap Bap...)'
p3707
ssS'6IGA5YrFiEr5ANrMqKkR6H'
p3708
(dp3709
g3
S'Bastille'
p3710
sg5
I1
sg6
S'https://open.spotify.com/track/6IGA5YrFiEr5ANrMqKkR6H'
p3711
sg8
S'Good Grief'
p3712
ssS'1onfcprzpSGh2LqrBh17AA'
p3713
(dp3714
g3
S'The xx'
p3715
sg5
I1
sg6
S'https://open.spotify.com/track/1onfcprzpSGh2LqrBh17AA'
p3716
sg8
S'Lips'
p3717
ssS'5mDi8FkNbOzi0oShXATOAx'
p3718
(dp3719
g3
S'RIN'
p3720
sg5
I1
sg6
S'https://open.spotify.com/track/5mDi8FkNbOzi0oShXATOAx'
p3721
sg8
S'Colette'
p3722
ssS'4kf3rP8DvxHMK3dVTAS9ip'
p3723
(dp3724
g3
S'Bushido'
p3725
sg5
I2
sg6
S'https://open.spotify.com/track/4kf3rP8DvxHMK3dVTAS9ip'
p3726
sg8
S'Oma Lise'
p3727
ssS'7xSv8lIdJtGMMgsMm2qk94'
p3728
(dp3729
g3
S'RIN'
p3730
sg5
I1
sg6
S'https://open.spotify.com/track/7xSv8lIdJtGMMgsMm2qk94'
p3731
sg8
S'Doverstreet'
p3732
ssS'51PIvodunv6NmX5250zxAh'
p3733
(dp3734
g3
S'Lady Gaga'
p3735
sg5
I17
sg6
S'https://open.spotify.com/track/51PIvodunv6NmX5250zxAh'
p3736
sg8
S'The Cure'
p3737
ssS'5pvVAwQbuFoR7LkcicrKnk'
p3738
(dp3739
g3
S'Vice'
p3740
sg5
I15
sg6
S'https://open.spotify.com/track/5pvVAwQbuFoR7LkcicrKnk'
p3741
sg8
S'Obsession (feat. Jon Bellion)'
p3742
ssS'5ev0Z2lFzmhjlQCWpRAWiG'
p3743
(dp3744
g3
S'Sigala'
p3745
sg5
I14
sg6
S'https://open.spotify.com/track/5ev0Z2lFzmhjlQCWpRAWiG'
p3746
sg8
S'Only One - Radio Edit'
p3747
ssS'104buTcnP2AsxqB7U1FIZ4'
p3748
(dp3749
g3
S'Linkin Park'
p3750
sg5
I34
sg6
S'https://open.spotify.com/track/104buTcnP2AsxqB7U1FIZ4'
p3751
sg8
S'Heavy (feat. Kiiara)'
p3752
ssS'3rCPonx0IgR5LvIuMfS1h2'
p3753
(dp3754
g3
S'Bushido'
p3755
sg5
I1
sg6
S'https://open.spotify.com/track/3rCPonx0IgR5LvIuMfS1h2'
p3756
sg8
S'So Lange'
p3757
ssS'00xBJ1IJSkErFWuuHxLPoP'
p3758
(dp3759
g3
S'Cro'
p3760
sg5
I5
sg6
S'https://open.spotify.com/track/00xBJ1IJSkErFWuuHxLPoP'
p3761
sg8
S'unendlichkeit - Main Edit'
p3762
ssS'1mH6tZC6iXIHPI6EixCwxw'
p3763
(dp3764
g3
S'Wizzard'
p3765
sg5
I1
sg6
S'https://open.spotify.com/track/1mH6tZC6iXIHPI6EixCwxw'
p3766
sg8
S'I Wish It Could Be Christmas Everyday'
p3767
ssS'650OeHTLxZAQmb4aEbGmaA'
p3768
(dp3769
g3
S'Linkin Park'
p3770
sg5
I3
sg6
S'https://open.spotify.com/track/650OeHTLxZAQmb4aEbGmaA'
p3771
sg8
S'Good Goodbye (feat. Pusha T and Stormzy)'
p3772
ssS'1PSBzsahR2AKwLJgx8ehBj'
p3773
(dp3774
g3
S'Machine Gun Kelly'
p3775
sg5
I12
sg6
S'https://open.spotify.com/track/1PSBzsahR2AKwLJgx8ehBj'
p3776
sg8
S'Bad Things (with Camila Cabello)'
p3777
ssS'3FYZZWnYbh7sCXBgJVXd6m'
p3778
(dp3779
g3
S'Stevie Wonder'
p3780
sg5
I1
sg6
S'https://open.spotify.com/track/3FYZZWnYbh7sCXBgJVXd6m'
p3781
sg8
S'The Little Drummer Boy'
p3782
ssS'7KOlJ92bu51cltsD9KU5I7'
p3783
(dp3784
g3
S'Migos'
p3785
sg5
I5
sg6
S'https://open.spotify.com/track/7KOlJ92bu51cltsD9KU5I7'
p3786
sg8
S'T-Shirt'
p3787
ssS'0D8ZpOXVjapLXrjz5VfZSD'
p3788
(dp3789
g3
S'Sam Smith'
p3790
sg5
I1
sg6
S'https://open.spotify.com/track/0D8ZpOXVjapLXrjz5VfZSD'
p3791
sg8
S'Pray'
p3792
ssS'5caMCe2gq8y72GVUEQEonQ'
p3793
(dp3794
g3
S'Cro'
p3795
sg5
I14
sg6
S'https://open.spotify.com/track/5caMCe2gq8y72GVUEQEonQ'
p3796
sg8
S'Unendlichkeit'
p3797
ssS'1My0Hfu5dTCbYisBk9ZRGr'
p3798
(dp3799
g3
S'Galantis'
p3800
sg5
I4
sg6
S'https://open.spotify.com/track/1My0Hfu5dTCbYisBk9ZRGr'
p3801
sg8
S'Hunter'
p3802
ssS'3m660poUr1chesgkkjQM7P'
p3803
(dp3804
g3
S'Demi Lovato'
p3805
sg5
I2
sg6
S'https://open.spotify.com/track/3m660poUr1chesgkkjQM7P'
p3806
sg8
S'Sorry Not Sorry'
p3807
ssS'3SGWp9fJCzgK0WcpcKSQdy'
p3808
(dp3809
g3
S'Stanaj'
p3810
sg5
I15
sg6
S'https://open.spotify.com/track/3SGWp9fJCzgK0WcpcKSQdy'
p3811
sg8
S'Romantic - NOTD Remix'
p3812
ssS'2PYK2jalvVid6A3Yc5aLhd'
p3813
(dp3814
g3
S'Timmy Trumpet'
p3815
sg5
I2
sg6
S'https://open.spotify.com/track/2PYK2jalvVid6A3Yc5aLhd'
p3816
sg8
S'Punjabi'
p3817
ssS'3K4HG9evC7dg3N0R9cYqk4'
p3818
(dp3819
g3
S'Linkin Park'
p3820
sg5
I1
sg6
S'https://open.spotify.com/track/3K4HG9evC7dg3N0R9cYqk4'
p3821
sg8
S'One Step Closer'
p3822
ssS'1Vej0qeQ3ioKwpI6FUbRv1'
p3823
(dp3824
g3
S'Linkin Park'
p3825
sg5
I1
sg6
S'https://open.spotify.com/track/1Vej0qeQ3ioKwpI6FUbRv1'
p3826
sg8
S'Papercut'
p3827
ssS'7McVnXcGdaVAzjKpN1BWPb'
p3828
(dp3829
g3
S'Miami Yacine'
p3830
sg5
I13
sg6
S'https://open.spotify.com/track/7McVnXcGdaVAzjKpN1BWPb'
p3831
sg8
S'Bon Voyage'
p3832
ssS'661bbtA19xopO3lH0J4Qvr'
p3833
(dp3834
g3
S'The xx'
p3835
sg5
I1
sg6
S'https://open.spotify.com/track/661bbtA19xopO3lH0J4Qvr'
p3836
sg8
S'A Violent Noise'
p3837
ssS'3ebXMykcMXOcLeJ9xZ17XH'
p3838
(dp3839
g3
S'Martin Garrix'
p3840
sg5
I37
sg6
S'https://open.spotify.com/track/3ebXMykcMXOcLeJ9xZ17XH'
p3841
sg8
S'Scared to Be Lonely'
p3842
ssS'7vuZGOA24pLl6JrEAIvitZ'
p3843
(dp3844
g3
S'RIN'
p3845
sg5
I3
sg6
S'https://open.spotify.com/track/7vuZGOA24pLl6JrEAIvitZ'
p3846
sg8
S'Monica Bellucci'
p3847
ssS'6fujklziTHa8uoM5OQSfIo'
p3848
(dp3849
g3
S'Rae Sremmurd'
p3850
sg5
I16
sg6
S'https://open.spotify.com/track/6fujklziTHa8uoM5OQSfIo'
p3851
sg8
S'Black Beatles'
p3852
ssS'1DFIyhRxaDAbZxTMN0BSBu'
p3853
(dp3854
g3
S'Amanda'
p3855
sg5
I3
sg6
S'https://open.spotify.com/track/1DFIyhRxaDAbZxTMN0BSBu'
p3856
sg8
S'Blau'
p3857
ssS'19WjVVgXjdKXfLXoaDPwTM'
p3858
(dp3859
g3
S'Taylor Swift'
p3860
sg5
I5
sg6
S'https://open.spotify.com/track/19WjVVgXjdKXfLXoaDPwTM'
p3861
sg8
S'...Ready For It?'
p3862
ssS'1vYLKyzU47iF8UWTU5C1CQ'
p3863
(dp3864
g3
S'KC Rebell'
p3865
sg5
I5
sg6
S'https://open.spotify.com/track/1vYLKyzU47iF8UWTU5C1CQ'
p3866
sg8
S'Voll mein Ding (feat. Adel Tawil)'
p3867
ssS'6UjfByV1lDLW0SOVQA4NAi'
p3868
(dp3869
g3
S'Drake'
p3870
sg5
I3
sg6
S'https://open.spotify.com/track/6UjfByV1lDLW0SOVQA4NAi'
p3871
sg8
S'Gyalchester'
p3872
ssS'607TgBgbTvP8CTgIHN0R6q'
p3873
(dp3874
g3
S'Ufo361'
p3875
sg5
I17
sg6
S'https://open.spotify.com/track/607TgBgbTvP8CTgIHN0R6q'
p3876
sg8
S'Nice Girl 2.0'
p3877
ssS'3PEgB3fkiojxms35ntsTgs'
p3878
(dp3879
g3
S'Axwell /\\ Ingrosso'
p3880
sg5
I11
sg6
S'https://open.spotify.com/track/3PEgB3fkiojxms35ntsTgs'
p3881
sg8
S'More Than You Know'
p3882
ssS'7oVEtyuv9NBmnytsCIsY5I'
p3883
(dp3884
g3
S'Linkin Park'
p3885
sg5
I1
sg6
S'https://open.spotify.com/track/7oVEtyuv9NBmnytsCIsY5I'
p3886
sg8
S'BURN IT DOWN'
p3887
ssS'6CfrYuD3YRDYdYvH9jNtXY'
p3888
(dp3889
g3
S'Drake'
p3890
sg5
I2
sg6
S'https://open.spotify.com/track/6CfrYuD3YRDYdYvH9jNtXY'
p3891
sg8
S'No Long Talk'
p3892
ssS'0ekFioHmdtwcITYOYXavl6'
p3893
(dp3894
g3
S'Yung Hurn'
p3895
sg5
I14
sg6
S'https://open.spotify.com/track/0ekFioHmdtwcITYOYXavl6'
p3896
sg8
S'Bianco - Prod. Lex Lugner'
p3897
ssS'7FESgYLcOufHqKlwrvJN60'
p3898
(dp3899
g3
S'Portugal. The Man'
p3900
sg5
I2
sg6
S'https://open.spotify.com/track/7FESgYLcOufHqKlwrvJN60'
p3901
sg8
S'Feel It Still'
p3902
ssS'05X6aMCQR09E6smUmw9qms'
p3903
(dp3904
g3
S'Queen'
p3905
sg5
I1
sg6
S'https://open.spotify.com/track/05X6aMCQR09E6smUmw9qms'
p3906
sg8
S"Thank God It's Christmas - Non-Album Single"
p3907
ssS'0Z4AOIqWrH3pNwHGScZFuJ'
p3908
(dp3909
g3
S'Kollegah'
p3910
sg5
I1
sg6
S'https://open.spotify.com/track/0Z4AOIqWrH3pNwHGScZFuJ'
p3911
sg8
S'Einer von Millionen (feat. Motrip)'
p3912
ssS'2KonJAzGk5q5SqzbvUOSzS'
p3913
(dp3914
g3
S'Emily Roberts'
p3915
sg5
I1
sg6
S'https://open.spotify.com/track/2KonJAzGk5q5SqzbvUOSzS'
p3916
sg8
S'#santaclara'
p3917
ssS'1s0yEjjEBv9ANRJiBRRVm8'
p3918
(dp3919
g3
S'Nimo'
p3920
sg5
I2
sg6
S'https://open.spotify.com/track/1s0yEjjEBv9ANRJiBRRVm8'
p3921
sg8
S'Michelangelo'
p3922
ssS'3NwZZSfJMceF6voaxIWEoV'
p3923
(dp3924
g3
S'Mert'
p3925
sg5
I13
sg6
S'https://open.spotify.com/track/3NwZZSfJMceF6voaxIWEoV'
p3926
sg8
S'Ajajaj'
p3927
ssS'1QzjtS7kXYGPUQF1lbcX1f'
p3928
(dp3929
g3
S'Zuna'
p3930
sg5
I1
sg6
S'https://open.spotify.com/track/1QzjtS7kXYGPUQF1lbcX1f'
p3931
sg8
S'Ghetto'
p3932
ssS'7aiVBCp1ibIWE5GeHkbtxr'
p3933
(dp3934
g3
S'Britney Spears'
p3935
sg5
I1
sg6
S'https://open.spotify.com/track/7aiVBCp1ibIWE5GeHkbtxr'
p3936
sg8
S'My Only Wish (This Year)'
p3937
ssS'4oK7oq9OwIcDwYadhxpViQ'
p3938
(dp3939
g3
S'Drahdiwaberl'
p3940
sg5
I1
sg6
S'https://open.spotify.com/track/4oK7oq9OwIcDwYadhxpViQ'
p3941
sg8
S'Ganz Wien'
p3942
ssS'3SqvR3HYLlCTYzbDXJ52OC'
p3943
(dp3944
g3
S'LP'
p3945
sg5
I10
sg6
S'https://open.spotify.com/track/3SqvR3HYLlCTYzbDXJ52OC'
p3946
sg8
S'Lost on You'
p3947
ssS'0UeYCHOETPfai02uskjJ3x'
p3948
(dp3949
g3
S'Bag Raiders'
p3950
sg5
I11
sg6
S'https://open.spotify.com/track/0UeYCHOETPfai02uskjJ3x'
p3951
sg8
S'Shooting Stars'
p3952
ssS'7Lgpic8BsBJR4jFrr9abbz'
p3953
(dp3954
g3
S'Robin Schulz'
p3955
sg5
I3
sg6
S'https://open.spotify.com/track/7Lgpic8BsBJR4jFrr9abbz'
p3956
sg8
S"I Believe I'm Fine"
p3957
ssS'0B8B8cVRFIG1yznoQe7c9s'
p3958
(dp3959
g3
S'The Chainsmokers'
p3960
sg5
I8
sg6
S'https://open.spotify.com/track/0B8B8cVRFIG1yznoQe7c9s'
p3961
sg8
S'Setting Fires'
p3962
ssS'5hNbpjMYatgqiDa7nonhsl'
p3963
(dp3964
g3
S'KC Rebell'
p3965
sg5
I1
sg6
S'https://open.spotify.com/track/5hNbpjMYatgqiDa7nonhsl'
p3966
sg8
S'Tabasco'
p3967
ssS'02WacdrRpm4zlP8H7X6bnQ'
p3968
(dp3969
g3
S'Calum Scott'
p3970
sg5
I16
sg6
S'https://open.spotify.com/track/02WacdrRpm4zlP8H7X6bnQ'
p3971
sg8
S'Dancing On My Own'
p3972
ssS'1mDGDb2fUmUMdqV3tb8VKQ'
p3973
(dp3974
g3
S'Halsey'
p3975
sg5
I1
sg6
S'https://open.spotify.com/track/1mDGDb2fUmUMdqV3tb8VKQ'
p3976
sg8
S'Now Or Never'
p3977
ssS'3qaYuV5XZAwiOvGE91HhwS'
p3978
(dp3979
g3
S'Mike Perry'
p3980
sg5
I8
sg6
S'https://open.spotify.com/track/3qaYuV5XZAwiOvGE91HhwS'
p3981
sg8
S'Inside the Lines'
p3982
ssS'52RSmC7Hc3L01jPSo2IUMg'
p3983
(dp3984
g3
S'Bilderbuch'
p3985
sg5
I1
sg6
S'https://open.spotify.com/track/52RSmC7Hc3L01jPSo2IUMg'
p3986
sg8
S'Erz\xc3\xa4hl Deinen M\xc3\xa4dels Ich Bin Wieder In Der Stadt'
p3987
ssS'095XSaT8I2uI6Uldj2QrSl'
p3988
(dp3989
g3
S'Jona Lewie'
p3990
sg5
I1
sg6
S'https://open.spotify.com/track/095XSaT8I2uI6Uldj2QrSl'
p3991
sg8
S'Stop the Cavalry'
p3992
ssS'6OZh916QF8XNunWaP97WEZ'
p3993
(dp3994
g3
S'Jonas Blue'
p3995
sg5
I10
sg6
S'https://open.spotify.com/track/6OZh916QF8XNunWaP97WEZ'
p3996
sg8
S'Fast Car'
p3997
ssS'2rizacJSyD9S1IQUxUxnsK'
p3998
(dp3999
g3
S'The Chainsmokers'
p4000
sg5
I16
sg6
S'https://open.spotify.com/track/2rizacJSyD9S1IQUxUxnsK'
p4001
sg8
S'All We Know'
p4002
ssS'6u17eFFrfGHH4f7AfwKy7J'
p4003
(dp4004
g3
S'KC Rebell'
p4005
sg5
I2
sg6
S'https://open.spotify.com/track/6u17eFFrfGHH4f7AfwKy7J'
p4006
sg8
S'Tabasco'
p4007
ssS'79NlESqzFSW0hdBWgls4FX'
p4008
(dp4009
g3
S'Kesha'
p4010
sg5
I5
sg6
S'https://open.spotify.com/track/79NlESqzFSW0hdBWgls4FX'
p4011
sg8
S'Praying'
p4012
ssS'0tgVpDi06FyKpA1z0VMD4v'
p4013
(dp4014
g3
S'Ed Sheeran'
p4015
sg5
I25
sg6
S'https://open.spotify.com/track/0tgVpDi06FyKpA1z0VMD4v'
p4016
sg8
S'Perfect'
p4017
ssS'46pF1zFimM582ss1PrMy68'
p4018
(dp4019
g3
S'Darlene Love'
p4020
sg5
I1
sg6
S'https://open.spotify.com/track/46pF1zFimM582ss1PrMy68'
p4021
sg8
S'Christmas (Baby Please Come Home)'
p4022
ssS'2Vdub5mY4lad7w64bFPUez'
p4023
(dp4024
g3
S'Pitbull'
p4025
sg5
I7
sg6
S'https://open.spotify.com/track/2Vdub5mY4lad7w64bFPUez'
p4026
sg8
S'Hey Ma (with Pitbull & J Balvin feat. Camila Cabello) - Spanish Version'
p4027
ssS'3GPI7hYiqD6enLRobhkBm8'
p4028
(dp4029
g3
S'ItaloBrothers'
p4030
sg5
I12
sg6
S'https://open.spotify.com/track/3GPI7hYiqD6enLRobhkBm8'
p4031
sg8
S'Summer Air'
p4032
ssS'6cAKeFFYW2aClZSUyvqAEW'
p4033
(dp4034
g3
S'Isaiah'
p4035
sg5
I10
sg6
S'https://open.spotify.com/track/6cAKeFFYW2aClZSUyvqAEW'
p4036
sg8
S"It's Gotta Be You"
p4037
ssS'26hcyzSE154xMZCbFdtInA'
p4038
(dp4039
g3
S'KREAM'
p4040
sg5
I6
sg6
S'https://open.spotify.com/track/26hcyzSE154xMZCbFdtInA'
p4041
sg8
S'Taped Up Heart (feat. Clara Mae)'
p4042
ssS'0xCXcq4y44uHJtJ7zZDF3d'
p4043
(dp4044
g3
S'Bilderbuch'
p4045
sg5
I38
sg6
S'https://open.spotify.com/track/0xCXcq4y44uHJtJ7zZDF3d'
p4046
sg8
S'Bungalow'
p4047
ssS'5cV34hcKf632Ry0avUxx5k'
p4048
(dp4049
g3
S'RIN'
p4050
sg5
I6
sg6
S'https://open.spotify.com/track/5cV34hcKf632Ry0avUxx5k'
p4051
sg8
S'Bros'
p4052
ssS'7bT5tDmeOqa3e7EegiXfQr'
p4053
(dp4054
g3
S'187 Strassenbande'
p4055
sg5
I2
sg6
S'https://open.spotify.com/track/7bT5tDmeOqa3e7EegiXfQr'
p4056
sg8
S'Intro'
p4057
ssS'5y2qTBdWUFNgSPOygSWOMe'
p4058
(dp4059
g3
S'Adel Tawil'
p4060
sg5
I8
sg6
S'https://open.spotify.com/track/5y2qTBdWUFNgSPOygSWOMe'
p4061
sg8
S'Bis hier und noch weiter'
p4062
ssS'2wDjpPW3HZdA9quPPmZAMu'
p4063
(dp4064
g3
S'Cashmere Cat'
p4065
sg5
I5
sg6
S'https://open.spotify.com/track/2wDjpPW3HZdA9quPPmZAMu'
p4066
sg8
S'Trust Nobody (feat. Selena Gomez & Tory Lanez)'
p4067
ssS'1hvpDAxZPKjKztOc72sv06'
p4068
(dp4069
g3
S'Band Aid'
p4070
sg5
I1
sg6
S'https://open.spotify.com/track/1hvpDAxZPKjKztOc72sv06'
p4071
sg8
S"Do They Know It's Christmas? - 1984 Version"
p4072
ssS'72Q0FQQo32KJloivv5xge2'
p4073
(dp4074
g3
S'DJ Khaled'
p4075
sg5
I3
sg6
S'https://open.spotify.com/track/72Q0FQQo32KJloivv5xge2'
p4076
sg8
S"I'm the One"
p4077
ssS'0hNduWmlWmEmuwEFcYvRu1'
p4078
(dp4079
g3
S'Petit Biscuit'
p4080
sg5
I28
sg6
S'https://open.spotify.com/track/0hNduWmlWmEmuwEFcYvRu1'
p4081
sg8
S'Sunset Lover'
p4082
ssS'1x5sYLZiu9r5E43kMlt9f8'
p4083
(dp4084
g3
S'Clean Bandit'
p4085
sg5
I30
sg6
S'https://open.spotify.com/track/1x5sYLZiu9r5E43kMlt9f8'
p4086
sg8
S'Symphony (feat. Zara Larsson)'
p4087
ssS'2hgzdQdnfWwtdpZbhZlV72'
p4088
(dp4089
g3
S'Jennifer Lopez'
p4090
sg5
I2
sg6
S'https://open.spotify.com/track/2hgzdQdnfWwtdpZbhZlV72'
p4091
sg8
S"Ain't Your Mama"
p4092
ssS'6IeK3Ap5m3HabwJxgI6eSE'
p4093
(dp4094
g3
S'Perry Como'
p4095
sg5
I1
sg6
S'https://open.spotify.com/track/6IeK3Ap5m3HabwJxgI6eSE'
p4096
sg8
S"It's Beginning to Look a Lot Like Christmas"
p4097
ssS'5SE57ljOIUJ1ybL9U6CuBH'
p4098
(dp4099
g3
S'BTS'
p4100
sg5
I2
sg6
S'https://open.spotify.com/track/5SE57ljOIUJ1ybL9U6CuBH'
p4101
sg8
S'DNA'
p4102
ssS'3QiAAp20rPC3dcAtKtMaqQ'
p4103
(dp4104
g3
S'Elvis Presley'
p4105
sg5
I1
sg6
S'https://open.spotify.com/track/3QiAAp20rPC3dcAtKtMaqQ'
p4106
sg8
S'Blue Christmas'
p4107
ssS'6520aj0B4FSKGVuKNsOCOi'
p4108
(dp4109
g3
S'Katy Perry'
p4110
sg5
I17
sg6
S'https://open.spotify.com/track/6520aj0B4FSKGVuKNsOCOi'
p4111
sg8
S'Chained To The Rhythm'
p4112
ssS'6SwRhMLwNqEi6alNPVG00n'
p4113
(dp4114
g3
S'Kendrick Lamar'
p4115
sg5
I5
sg6
S'https://open.spotify.com/track/6SwRhMLwNqEi6alNPVG00n'
p4116
sg8
S'LOYALTY. FEAT. RIHANNA.'
p4117
ssS'7jwrzVooEMG1LcH2hFMIm4'
p4118
(dp4119
g3
S'Bonez MC'
p4120
sg5
I7
sg6
S'https://open.spotify.com/track/7jwrzVooEMG1LcH2hFMIm4'
p4121
sg8
S'Glaub mir'
p4122
ssS'5VbveN25v2Y2FZqGMbavSx'
p4123
(dp4124
g3
S'Savas'
p4125
sg5
I1
sg6
S'https://open.spotify.com/track/5VbveN25v2Y2FZqGMbavSx'
p4126
sg8
S'Jedes Wort ist Gold wert'
p4127
ssS'2HzfRSfCogBSsgW2CckVA2'
p4128
(dp4129
g3
S'Luke Christopher'
p4130
sg5
I5
sg6
S'https://open.spotify.com/track/2HzfRSfCogBSsgW2CckVA2'
p4131
sg8
S'Lot to Learn'
p4132
ssS'0IYbYGGVKQGlcaIu9Bs1Iz'
p4133
(dp4134
g3
S'Noah Cyrus'
p4135
sg5
I1
sg6
S'https://open.spotify.com/track/0IYbYGGVKQGlcaIu9Bs1Iz'
p4136
sg8
S"I'm Stuck"
p4137
ssS'5hAbqNBv8Zwfice31cOurK'
p4138
(dp4139
g3
S'Neptunica'
p4140
sg5
I2
sg6
S'https://open.spotify.com/track/5hAbqNBv8Zwfice31cOurK'
p4141
sg8
S'Foreign Place'
p4142
ssS'0tKcYR2II1VCQWT79i5NrW'
p4143
(dp4144
g3
S'Imagine Dragons'
p4145
sg5
I21
sg6
S'https://open.spotify.com/track/0tKcYR2II1VCQWT79i5NrW'
p4146
sg8
S'Thunder'
p4147
ssS'6SRnVRobwLtovI4JEWejDv'
p4148
(dp4149
g3
S'Galantis'
p4150
sg5
I2
sg6
S'https://open.spotify.com/track/6SRnVRobwLtovI4JEWejDv'
p4151
sg8
S'True Feeling'
p4152
ssS'2MxsoqrvownXSb8YtOOeYA'
p4153
(dp4154
g3
S'Lena'
p4155
sg5
I2
sg6
S'https://open.spotify.com/track/2MxsoqrvownXSb8YtOOeYA'
p4156
sg8
S"If I Wasn't Your Daughter - Acoustic Version"
p4157
ssS'6DNtNfH8hXkqOX1sjqmI7p'
p4158
(dp4159
g3
S'Major Lazer'
p4160
sg5
I29
sg6
S'https://open.spotify.com/track/6DNtNfH8hXkqOX1sjqmI7p'
p4161
sg8
S'Cold Water (feat. Justin Bieber & M\xc3\x98)'
p4162
ssS'2ytH5wDuqhgLTiDVYioteq'
p4163
(dp4164
g3
S'Jax Jones'
p4165
sg5
I2
sg6
S'https://open.spotify.com/track/2ytH5wDuqhgLTiDVYioteq'
p4166
sg8
S'Instruction'
p4167
ssS'5NNlUMcOEOdoOIwwaWXv0k'
p4168
(dp4169
g3
S'Maroon 5'
p4170
sg5
I14
sg6
S'https://open.spotify.com/track/5NNlUMcOEOdoOIwwaWXv0k'
p4171
sg8
S'Cold'
p4172
ssS'78mNkiUBAwHqjT0QOeEqqg'
p4173
(dp4174
g3
S'A R I Z O N A'
p4175
sg5
I10
sg6
S'https://open.spotify.com/track/78mNkiUBAwHqjT0QOeEqqg'
p4176
sg8
S'Oceans Away - Sam Feldt Remix'
p4177
ssS'5XQMr19TL7Mfksq9zihbOu'
p4178
(dp4179
g3
S'Chris Brown'
p4180
sg5
I8
sg6
S'https://open.spotify.com/track/5XQMr19TL7Mfksq9zihbOu'
p4181
sg8
S'Questions'
p4182
ssS'1sXUWdKx03aP9Gmzft58rt'
p4183
(dp4184
g3
S'Julia Michaels'
p4185
sg5
I27
sg6
S'https://open.spotify.com/track/1sXUWdKx03aP9Gmzft58rt'
p4186
sg8
S'Issues'
p4187
ssS'1v4OhNexUiv3Mq6s7tcKbw'
p4188
(dp4189
g3
S'187 Strassenbande'
p4190
sg5
I2
sg6
S'https://open.spotify.com/track/1v4OhNexUiv3Mq6s7tcKbw'
p4191
sg8
S'Meine Message'
p4192
ssS'7j56HrjR9cGzvekvZY3Faz'
p4193
(dp4194
g3
S'Fitz and The Tantrums'
p4195
sg5
I23
sg6
S'https://open.spotify.com/track/7j56HrjR9cGzvekvZY3Faz'
p4196
sg8
S'HandClap'
p4197
ssS'4FwwXRuwzJcpmfCR8ltO9b'
p4198
(dp4199
g3
S'Trettmann'
p4200
sg5
I2
sg6
S'https://open.spotify.com/track/4FwwXRuwzJcpmfCR8ltO9b'
p4201
sg8
S'Gottseidank'
p4202
ssS'2qYDKlveGVHIh6GZXTCBZh'
p4203
(dp4204
g3
S'RIN'
p4205
sg5
I1
sg6
S'https://open.spotify.com/track/2qYDKlveGVHIh6GZXTCBZh'
p4206
sg8
S'Bass'
p4207
ssS'1zayuwd1YLZsYDArkruHdL'
p4208
(dp4209
g3
S'Kendrick Lamar'
p4210
sg5
I1
sg6
S'https://open.spotify.com/track/1zayuwd1YLZsYDArkruHdL'
p4211
sg8
S'The Heart Part 4'
p4212
ssS'0Vy7fWzknPBpNTwJkGc7Sm'
p4213
(dp4214
g3
S'187 Strassenbande'
p4215
sg5
I6
sg6
S'https://open.spotify.com/track/0Vy7fWzknPBpNTwJkGc7Sm'
p4216
sg8
S'High Life'
p4217
ssS'14oOKFGuXu8DqvOe1W8vao'
p4218
(dp4219
g3
S'Katy Perry'
p4220
sg5
I2
sg6
S'https://open.spotify.com/track/14oOKFGuXu8DqvOe1W8vao'
p4221
sg8
S'Bon App\xc3\xa9tit'
p4222
ssS'1qvHaAMqblHcLDsxlrlDp7'
p4223
(dp4224
g3
S'Bilderbuch'
p4225
sg5
I1
sg6
S'https://open.spotify.com/track/1qvHaAMqblHcLDsxlrlDp7'
p4226
sg8
S'Magic Life'
p4227
ssS'4BHSjbYylfOH5WAGusDyni'
p4228
(dp4229
g3
S'Kendrick Lamar'
p4230
sg5
I2
sg6
S'https://open.spotify.com/track/4BHSjbYylfOH5WAGusDyni'
p4231
sg8
S'YAH.'
p4232
ssS'6mzTuMlbCgEtoCitsszlqP'
p4233
(dp4234
g3
S'Avicii'
p4235
sg5
I9
sg6
S'https://open.spotify.com/track/6mzTuMlbCgEtoCitsszlqP'
p4236
sg8
S'What Would I Change It To (feat. AlunaGeorge)'
p4237
ssS'1louJpMmzEicAn7lzDalPW'
p4238
(dp4239
g3
S'Cheat Codes'
p4240
sg5
I28
sg6
S'https://open.spotify.com/track/1louJpMmzEicAn7lzDalPW'
p4241
sg8
S'No Promises (feat. Demi Lovato)'
p4242
ssS'2ISl1zekPsc26sUQpVt8UB'
p4243
(dp4244
g3
S"Shakin' Stevens"
p4245
sg5
I1
sg6
S'https://open.spotify.com/track/2ISl1zekPsc26sUQpVt8UB'
p4246
sg8
S'Merry Christmas Everyone - Remastered'
p4247
ssS'2pJZ1v8HezrAoZ0Fhzby92'
p4248
(dp4249
g3
S'Ed Sheeran'
p4250
sg5
I11
sg6
S'https://open.spotify.com/track/2pJZ1v8HezrAoZ0Fhzby92'
p4251
sg8
S'What Do I Know?'
p4252
ssS'4ZqYgipWXTGXBXF6FvOhwC'
p4253
(dp4254
g3
S'Bushido'
p4255
sg5
I4
sg6
S'https://open.spotify.com/track/4ZqYgipWXTGXBXF6FvOhwC'
p4256
sg8
S'Moonwalk'
p4257
ssS'6y2Kaz9QI01XBKJ8mTb7Pf'
p4258
(dp4259
g3
S"Rag'n'Bone Man"
p4260
sg5
I27
sg6
S'https://open.spotify.com/track/6y2Kaz9QI01XBKJ8mTb7Pf'
p4261
sg8
S'Skin'
p4262
ssS'4NrwzWgZfNHb7dpNrEEQqX'
p4263
(dp4264
g3
S'RAF Camora'
p4265
sg5
I7
sg6
S'https://open.spotify.com/track/4NrwzWgZfNHb7dpNrEEQqX'
p4266
sg8
S'Alles probiert'
p4267
ssS'39HmSC4bjT3qDskIIGhbV4'
p4268
(dp4269
g3
S'Falco'
p4270
sg5
I1
sg6
S'https://open.spotify.com/track/39HmSC4bjT3qDskIIGhbV4'
p4271
sg8
S'Junge Roemer'
p4272
ssS'7o5vFFmfunyAlSn3KSws85'
p4273
(dp4274
g3
S'DAT ADAM'
p4275
sg5
I1
sg6
S'https://open.spotify.com/track/7o5vFFmfunyAlSn3KSws85'
p4276
sg8
S'IO'
p4277
ssS'5yKfZwcuSoEkOemLJX6hEm'
p4278
(dp4279
g3
S'Max Giesinger'
p4280
sg5
I16
sg6
S'https://open.spotify.com/track/5yKfZwcuSoEkOemLJX6hEm'
p4281
sg8
S'Wenn sie tanzt'
p4282
ssS'3kXqUXnukwkpsxhW8emNC0'
p4283
(dp4284
g3
S'Blanche'
p4285
sg5
I15
sg6
S'https://open.spotify.com/track/3kXqUXnukwkpsxhW8emNC0'
p4286
sg8
S'City Lights'
p4287
ssS'3zoYkqS4y2BsGVShPL2nTE'
p4288
(dp4289
g3
S'CNCO'
p4290
sg5
I8
sg6
S'https://open.spotify.com/track/3zoYkqS4y2BsGVShPL2nTE'
p4291
sg8
S'Reggaet\xc3\xb3n Lento (Remix) [CNCO & Little Mix]'
p4292
ssS'3oUZXcz9WLNO71yHAumFbH'
p4293
(dp4294
g3
S'Dimitri Vegas & Like Mike'
p4295
sg5
I19
sg6
S'https://open.spotify.com/track/3oUZXcz9WLNO71yHAumFbH'
p4296
sg8
S'Hey Baby'
p4297
ssS'5P93NHHhkNEKhYo0ba8Er5'
p4298
(dp4299
g3
S'SpongeBOZZ'
p4300
sg5
I1
sg6
S'https://open.spotify.com/track/5P93NHHhkNEKhYo0ba8Er5'
p4301
sg8
S'Wory w Sakone'
p4302
ssS'1SkeK7yhwSkCUkbAG9604j'
p4303
(dp4304
g3
S'Dardan'
p4305
sg5
I4
sg6
S'https://open.spotify.com/track/1SkeK7yhwSkCUkbAG9604j'
p4306
sg8
S'Telefon'
p4307
ssS'2habSXqcJGExM6JJyskY7O'
p4308
(dp4309
g3
S'Miley Cyrus'
p4310
sg5
I20
sg6
S'https://open.spotify.com/track/2habSXqcJGExM6JJyskY7O'
p4311
sg8
S'Malibu'
p4312
ssS'5Ua3GXyHwiSfpNTMjq6m2z'
p4313
(dp4314
g3
S'Little Mix'
p4315
sg5
I20
sg6
S'https://open.spotify.com/track/5Ua3GXyHwiSfpNTMjq6m2z'
p4316
sg8
S'Touch'
p4317
ssS'6i0V12jOa3mr6uu4WYhUBr'
p4318
(dp4319
g3
S'Twenty One Pilots'
p4320
sg5
I26
sg6
S'https://open.spotify.com/track/6i0V12jOa3mr6uu4WYhUBr'
p4321
sg8
S'Heathens'
p4322
ssS'1Ld0mRpHXYXzIi95T064bM'
p4323
(dp4324
g3
S'RAF Camora'
p4325
sg5
I1
sg6
S'https://open.spotify.com/track/1Ld0mRpHXYXzIi95T064bM'
p4326
sg8
S'Andere Liga'
p4327
ssS'40UroIGvsMPLPBYwH8rMNA'
p4328
(dp4329
g3
S'Vice'
p4330
sg5
I20
sg6
S'https://open.spotify.com/track/40UroIGvsMPLPBYwH8rMNA'
p4331
sg8
S'Steady 1234 (feat. Jasmine Thompson & Skizzy Mars)'
p4332
ssS'5nA67Y0XX9JipZwYxX7Gl7'
p4333
(dp4334
g3
S'Niall Horan'
p4335
sg5
I3
sg6
S'https://open.spotify.com/track/5nA67Y0XX9JipZwYxX7Gl7'
p4336
sg8
S'This Town'
p4337
ssS'2eMwDehkIC1j68U6FA3Eiq'
p4338
(dp4339
g3
S'Lil Uzi Vert'
p4340
sg5
I20
sg6
S'https://open.spotify.com/track/2eMwDehkIC1j68U6FA3Eiq'
p4341
sg8
S'XO TOUR Llif3'
p4342
ssS'1Udy17gjGeZPNdmmcLjl7L'
p4343
(dp4344
g3
S'Tom Odell'
p4345
sg5
I1
sg6
S'https://open.spotify.com/track/1Udy17gjGeZPNdmmcLjl7L'
p4346
sg8
S'Real Love'
p4347
ssS'2hUdqoyo3V6rx41kZ8LzOY'
p4348
(dp4349
g3
S'RIN'
p4350
sg5
I1
sg6
S'https://open.spotify.com/track/2hUdqoyo3V6rx41kZ8LzOY'
p4351
sg8
S'Aretha Franklin Freestyle'
p4352
ssS'4tX7Nt68zEeb0Lt32ngQR0'
p4353
(dp4354
g3
S'Kato'
p4355
sg5
I23
sg6
S'https://open.spotify.com/track/4tX7Nt68zEeb0Lt32ngQR0'
p4356
sg8
S'Show You Love'
p4357
ssS'7wiESxCGoUkRdgZF2JOLZu'
p4358
(dp4359
g3
S'Phil Spector'
p4360
sg5
I1
sg6
S'https://open.spotify.com/track/7wiESxCGoUkRdgZF2JOLZu'
p4361
sg8
S'Sleigh Ride'
p4362
ssS'6qTod2A9yWiGhqmJgHHwMz'
p4363
(dp4364
g3
S'RAF Camora'
p4365
sg5
I3
sg6
S'https://open.spotify.com/track/6qTod2A9yWiGhqmJgHHwMz'
p4366
sg8
S'Niemals'
p4367
ssS'3TfKkdaIhNyaGiEHJFBtNr'
p4368
(dp4369
g3
S'KC Rebell'
p4370
sg5
I1
sg6
S'https://open.spotify.com/track/3TfKkdaIhNyaGiEHJFBtNr'
p4371
sg8
S'Pics wie ein Fan'
p4372
ssS'6fxVffaTuwjgEk5h9QyRjy'
p4373
(dp4374
g3
S'Ed Sheeran'
p4375
sg5
I21
sg6
S'https://open.spotify.com/track/6fxVffaTuwjgEk5h9QyRjy'
p4376
sg8
S'Photograph'
p4377
ssS'0w5Bdu51Ka25Pf3hojsKHh'
p4378
(dp4379
g3
S'Paramore'
p4380
sg5
I4
sg6
S'https://open.spotify.com/track/0w5Bdu51Ka25Pf3hojsKHh'
p4381
sg8
S'Hard Times'
p4382
ssS'0qYTZCo5Bwh1nsUFGZP3zn'
p4383
(dp4384
g3
S'Maluma'
p4385
sg5
I17
sg6
S'https://open.spotify.com/track/0qYTZCo5Bwh1nsUFGZP3zn'
p4386
sg8
S'Felices los 4'
p4387
ssS'1VdZ0vKfR5jneCmWIUAMxK'
p4388
(dp4389
g3
S'Ed Sheeran'
p4390
sg5
I1
sg6
S'https://open.spotify.com/track/1VdZ0vKfR5jneCmWIUAMxK'
p4391
sg8
S'The A Team'
p4392
ssS'1wur1SW656paPv7EyTqWu4'
p4393
(dp4394
g3
S'C\xc3\xa9line Dion'
p4395
sg5
I1
sg6
S'https://open.spotify.com/track/1wur1SW656paPv7EyTqWu4'
p4396
sg8
S'Happy Xmas (War Is Over)'
p4397
ssS'13e6f8t7RKXuxZ0JdaaJRG'
p4398
(dp4399
g3
S'Drake'
p4400
sg5
I1
sg6
S'https://open.spotify.com/track/13e6f8t7RKXuxZ0JdaaJRG'
p4401
sg8
S'Jorja Interlude'
p4402
ssS'6nxQdXa1uAL0rY72wPZu89'
p4403
(dp4404
g3
S'John Legend'
p4405
sg5
I18
sg6
S'https://open.spotify.com/track/6nxQdXa1uAL0rY72wPZu89'
p4406
sg8
S'Love Me Now'
p4407
ssS'6kex4EBAj0WHXDKZMEJaaF'
p4408
(dp4409
g3
S'Jason Derulo'
p4410
sg5
I33
sg6
S'https://open.spotify.com/track/6kex4EBAj0WHXDKZMEJaaF'
p4411
sg8
S'Swalla (feat. Nicki Minaj & Ty Dolla $ign)'
p4412
ssS'2SBr3MK1sdMs8IxdRcN6qz'
p4413
(dp4414
g3
S'Kylie Minogue'
p4415
sg5
I1
sg6
S'https://open.spotify.com/track/2SBr3MK1sdMs8IxdRcN6qz'
p4416
sg8
S'Santa Baby'
p4417
ssS'17Fol0EIxmCYz3Q1uax4DV'
p4418
(dp4419
g3
S'RAF Camora'
p4420
sg5
I1
sg6
S'https://open.spotify.com/track/17Fol0EIxmCYz3Q1uax4DV'
p4421
sg8
S'Was jetzt'
p4422
ssS'0AuhdBr6C98i37znwH4e69'
p4423
(dp4424
g3
S'RIN'
p4425
sg5
I6
sg6
S'https://open.spotify.com/track/0AuhdBr6C98i37znwH4e69'
p4426
sg8
S'Blackout'
p4427
ssS'5GPfIFxXgGtX0GenuJhYOZ'
p4428
(dp4429
g3
S'Bushido'
p4430
sg5
I3
sg6
S'https://open.spotify.com/track/5GPfIFxXgGtX0GenuJhYOZ'
p4431
sg8
S'Echte Berliner'
p4432
ssS'10JBIfvldDR2TnT5sphGc2'
p4433
(dp4434
g3
S'Train'
p4435
sg5
I1
sg6
S'https://open.spotify.com/track/10JBIfvldDR2TnT5sphGc2'
p4436
sg8
S'Shake up Christmas'
p4437
ssS'54h8xHewdRPnYzmbEHBhOO'
p4438
(dp4439
g3
S'Imagine Dragons'
p4440
sg5
I1
sg6
S'https://open.spotify.com/track/54h8xHewdRPnYzmbEHBhOO'
p4441
sg8
S'I\xe2\x80\x99ll Make It Up To You'
p4442
ssS'6GcFdP0ZBWfwUgJlhnDRdt'
p4443
(dp4444
g3
S'Pizzera & Jaus'
p4445
sg5
I4
sg6
S'https://open.spotify.com/track/6GcFdP0ZBWfwUgJlhnDRdt'
p4446
sg8
S'hooligans'
p4447
ssS'6OocN63GLU7NF0wHdewhID'
p4448
(dp4449
g3
S'Linkin Park'
p4450
sg5
I1
sg6
S'https://open.spotify.com/track/6OocN63GLU7NF0wHdewhID'
p4451
sg8
S'Invisible'
p4452
ssS'54LGxQGf5LPXNGjtzDZ5IE'
p4453
(dp4454
g3
S'Zara Larsson'
p4455
sg5
I2
sg6
S'https://open.spotify.com/track/54LGxQGf5LPXNGjtzDZ5IE'
p4456
sg8
S'So Good'
p4457
ssS'12ip0ceCeszDTDFxDY1AXJ'
p4458
(dp4459
g3
S'Avicii'
p4460
sg5
I8
sg6
S'https://open.spotify.com/track/12ip0ceCeszDTDFxDY1AXJ'
p4461
sg8
S'You Be Love (feat. Billy Raffoul)'
p4462
ssS'08WPvDEsHvTFuB9w8tC2OS'
p4463
(dp4464
g3
S'Sage The Gemini'
p4465
sg5
I1
sg6
S'https://open.spotify.com/track/08WPvDEsHvTFuB9w8tC2OS'
p4466
sg8
S'Now and Later'
p4467
ssS'57fDcLa203GnDF9OYJd6mV'
p4468
(dp4469
g3
S'Natasha Bedingfield'
p4470
sg5
I1
sg6
S'https://open.spotify.com/track/57fDcLa203GnDF9OYJd6mV'
p4471
sg8
S'Shake up Christmas 2011 (Official Coca-Cola Christmas Song)'
p4472
ssS'4ZJPwET9Jrgpkqi4Vo3Yg8'
p4473
(dp4474
g3
S'Bebe Rexha'
p4475
sg5
I6
sg6
S'https://open.spotify.com/track/4ZJPwET9Jrgpkqi4Vo3Yg8'
p4476
sg8
S'Bad Bitch (feat. Ty Dolla $ign)'
p4477
ssS'1VoHrSS3QQ6TbpabLrFiYb'
p4478
(dp4479
g3
S'Alvaro Soler'
p4480
sg5
I5
sg6
S'https://open.spotify.com/track/1VoHrSS3QQ6TbpabLrFiYb'
p4481
sg8
S'Sofia'
p4482
ssS'1YW369EbVyjpeLE3YbsjKQ'
p4483
(dp4484
g3
S'Robbie Williams'
p4485
sg5
I4
sg6
S'https://open.spotify.com/track/1YW369EbVyjpeLE3YbsjKQ'
p4486
sg8
S'Love My Life'
p4487
ssS'59TZtCXoVMHe9JZKfS5uY5'
p4488
(dp4489
g3
S'SpongeBOZZ'
p4490
sg5
I2
sg6
S'https://open.spotify.com/track/59TZtCXoVMHe9JZKfS5uY5'
p4491
sg8
S'A.C.A.B. II'
p4492
ssS'6TYatDhm4HnkWNqStibZr5'
p4493
(dp4494
g3
S'SEILER UND SPEER'
p4495
sg5
I8
sg6
S'https://open.spotify.com/track/6TYatDhm4HnkWNqStibZr5'
p4496
sg8
S'ob und zua (samma zua)'
p4497
ssS'0Fv5N0cHBsl4bzCbollCAS'
p4498
(dp4499
g3
S'Big Sean'
p4500
sg5
I1
sg6
S'https://open.spotify.com/track/0Fv5N0cHBsl4bzCbollCAS'
p4501
sg8
S'Moves'
p4502
ssS'7KXjTSCq5nL1LoYtL7XAwS'
p4503
(dp4504
g3
S'Kendrick Lamar'
p4505
sg5
I28
sg6
S'https://open.spotify.com/track/7KXjTSCq5nL1LoYtL7XAwS'
p4506
sg8
S'HUMBLE.'
p4507
ssS'3H25ywsvlV0ZT2XSpSU7wk'
p4508
(dp4509
g3
S'RAF Camora'
p4510
sg5
I18
sg6
S'https://open.spotify.com/track/3H25ywsvlV0ZT2XSpSU7wk'
p4511
sg8
S'Kontrollieren'
p4512
ssS'2Ae5awwKvQpTBKQHr1TYCg'
p4513
(dp4514
g3
S'Nause'
p4515
sg5
I18
sg6
S'https://open.spotify.com/track/2Ae5awwKvQpTBKQHr1TYCg'
p4516
sg8
S'Dynamite (feat. Pretty Sister)'
p4517
ssS'28CWzJEydS0er9hU3TEYyJ'
p4518
(dp4519
g3
S'Eric Saade'
p4520
sg5
I2
sg6
S'https://open.spotify.com/track/28CWzJEydS0er9hU3TEYyJ'
p4521
sg8
S'Wide Awake - Red Mix'
p4522
ssS'6zuUWT2b1cFs9NMVHuDLdY'
p4523
(dp4524
g3
S'Marteria'
p4525
sg5
I1
sg6
S'https://open.spotify.com/track/6zuUWT2b1cFs9NMVHuDLdY'
p4526
sg8
S'Scotty beam mich hoch'
p4527
ssS'2Za1AlJNvksouPPWbXpR2X'
p4528
(dp4529
g3
S'Macklemore'
p4530
sg5
I3
sg6
S'https://open.spotify.com/track/2Za1AlJNvksouPPWbXpR2X'
p4531
sg8
S'Good Old Days (feat. Kesha)'
p4532
ssS'6mnOsH2ihxL29D8rZyqOBl'
p4533
(dp4534
g3
S'Wanda'
p4535
sg5
I1
sg6
S'https://open.spotify.com/track/6mnOsH2ihxL29D8rZyqOBl'
p4536
sg8
S'Schottenring'
p4537
ssS'6Na5uKk5SsqZimk0hAWo8y'
p4538
(dp4539
g3
S'Drake'
p4540
sg5
I2
sg6
S'https://open.spotify.com/track/6Na5uKk5SsqZimk0hAWo8y'
p4541
sg8
S'Signs'
p4542
ssS'4gavOCQdZ2g86gkvi17FM7'
p4543
(dp4544
g3
S'Paul McCartney'
p4545
sg5
I1
sg6
S'https://open.spotify.com/track/4gavOCQdZ2g86gkvi17FM7'
p4546
sg8
S'Wonderful Christmastime - Remastered 2011 / Edited Version'
p4547
ssS'51WUacrCkukxCgym463uNN'
p4548
(dp4549
g3
S'Gest\xc3\xb6rt aber GeiL'
p4550
sg5
I12
sg6
S'https://open.spotify.com/track/51WUacrCkukxCgym463uNN'
p4551
sg8
S'Wohin willst du'
p4552
ssS'0n2bvWvMwr0gbjcuTm92eW'
p4553
(dp4554
g3
S'Lana Del Rey'
p4555
sg5
I5
sg6
S'https://open.spotify.com/track/0n2bvWvMwr0gbjcuTm92eW'
p4556
sg8
S'Love'
p4557
ssS'2Xqwc88RkTu9Ybwn6oS7Ea'
p4558
(dp4559
g3
S'RIN'
p4560
sg5
I3
sg6
S'https://open.spotify.com/track/2Xqwc88RkTu9Ybwn6oS7Ea'
p4561
sg8
S'Doverstreet'
p4562
ssS'3AsAuGTaDQzavZZThyYlop'
p4563
(dp4564
g3
S'NEIKED'
p4565
sg5
I10
sg6
S'https://open.spotify.com/track/3AsAuGTaDQzavZZThyYlop'
p4566
sg8
S'Sexual'
p4567
ssS'3Lfiu5sZ4M4B6JaKMBc0FU'
p4568
(dp4569
g3
S'Ed Sheeran'
p4570
sg5
I8
sg6
S'https://open.spotify.com/track/3Lfiu5sZ4M4B6JaKMBc0FU'
p4571
sg8
S'Barcelona'
p4572
ssS'0zm8GcLGBJIJqU135R4stt'
p4573
(dp4574
g3
S'Falco'
p4575
sg5
I1
sg6
S'https://open.spotify.com/track/0zm8GcLGBJIJqU135R4stt'
p4576
sg8
S'Out of the Dark'
p4577
ssS'4kfm1uI9QGaoN9qm6CkAMn'
p4578
(dp4579
g3
S'Linkin Park'
p4580
sg5
I3
sg6
S'https://open.spotify.com/track/4kfm1uI9QGaoN9qm6CkAMn'
p4581
sg8
S"What I've Done"
p4582
ssS'69bp2EbF7Q2rqc5N3ylezZ'
p4583
(dp4584
g3
S'Justin Bieber'
p4585
sg5
I10
sg6
S'https://open.spotify.com/track/69bp2EbF7Q2rqc5N3ylezZ'
p4586
sg8
S'Sorry'
p4587
ssS'04CttTezSnv71USiiG9mIo'
p4588
(dp4589
g3
S'Hearts & Colors'
p4590
sg5
I36
sg6
S'https://open.spotify.com/track/04CttTezSnv71USiiG9mIo'
p4591
sg8
S'Lighthouse - Andrelli Remix'
p4592
ssS'4iLqG9SeJSnt0cSPICSjxv'
p4593
(dp4594
g3
S'Charlie Puth'
p4595
sg5
I25
sg6
S'https://open.spotify.com/track/4iLqG9SeJSnt0cSPICSjxv'
p4596
sg8
S'Attention'
p4597
ssS'210azEodQSJ48zZrgxHsu8'
p4598
(dp4599
g3
S'187 Strassenbande'
p4600
sg5
I2
sg6
S'https://open.spotify.com/track/210azEodQSJ48zZrgxHsu8'
p4601
sg8
S'Was ist passiert?!'
p4602
ssS'6JyuJFedEvPmdWQW0PkbGJ'
p4603
(dp4604
g3
S'Skrillex'
p4605
sg5
I1
sg6
S'https://open.spotify.com/track/6JyuJFedEvPmdWQW0PkbGJ'
p4606
sg8
S'Purple Lamborghini (with Rick Ross)'
p4607
ssS'6RUKPb4LETWmmr3iAEQktW'
p4608
(dp4609
g3
S'The Chainsmokers'
p4610
sg5
I33
sg6
S'https://open.spotify.com/track/6RUKPb4LETWmmr3iAEQktW'
p4611
sg8
S'Something Just Like This'
p4612
ssS'3FQCJI2t5LTbsRPfYVBSVB'
p4613
(dp4614
g3
S'Linkin Park'
p4615
sg5
I4
sg6
S'https://open.spotify.com/track/3FQCJI2t5LTbsRPfYVBSVB'
p4616
sg8
S'Battle Symphony'
p4617
ssS'7M16mAuWuFA5rC9HvkXaGx'
p4618
(dp4619
g3
S'Jax Jones'
p4620
sg5
I5
sg6
S'https://open.spotify.com/track/7M16mAuWuFA5rC9HvkXaGx'
p4621
sg8
S"You Don't Know Me - Radio Edit"
p4622
ssS'3N08HLCSwOHhMQKJGIZ7rE'
p4623
(dp4624
g3
S'Izzy Bizu'
p4625
sg5
I9
sg6
S'https://open.spotify.com/track/3N08HLCSwOHhMQKJGIZ7rE'
p4626
sg8
S'Talking to You'
p4627
ssS'6TNdGavTbSQShhIs0ms0BG'
p4628
(dp4629
g3
S'Cro'
p4630
sg5
I1
sg6
S'https://open.spotify.com/track/6TNdGavTbSQShhIs0ms0BG'
p4631
sg8
S'fake you.'
p4632
ssS'2CPqh63wRVscbceKcPxwvv'
p4633
(dp4634
g3
S'Mike Perry'
p4635
sg5
I40
sg6
S'https://open.spotify.com/track/2CPqh63wRVscbceKcPxwvv'
p4636
sg8
S'The Ocean'
p4637
ssS'25leEEaz1gIpp7o21Fqyjo'
p4638
(dp4639
g3
S'Gene Autry'
p4640
sg5
I1
sg6
S'https://open.spotify.com/track/25leEEaz1gIpp7o21Fqyjo'
p4641
sg8
S'Here Comes Santa Claus (Right Down Santa Claus Lane)'
p4642
ssS'25qiaiBRyMFOktyaeQSMon'
p4643
(dp4644
g3
S'Nimo'
p4645
sg5
I12
sg6
S'https://open.spotify.com/track/25qiaiBRyMFOktyaeQSMon'
p4646
sg8
S'LFR'
p4647
ssS'6pyIRpxFSGo6iYIwRtj4xG'
p4648
(dp4649
g3
S'Mel Torm\xc3\xa9'
p4650
sg5
I1
sg6
S'https://open.spotify.com/track/6pyIRpxFSGo6iYIwRtj4xG'
p4651
sg8
S'The Christmas Song (Chestnuts Roasting On an Open Fire)'
p4652
ssS'5toMpskhrnl8ByNg0zlB5F'
p4653
(dp4654
g3
S'Wincent Weiss'
p4655
sg5
I7
sg6
S'https://open.spotify.com/track/5toMpskhrnl8ByNg0zlB5F'
p4656
sg8
S'Feuerwerk'
p4657
ssS'4bHsxqR3GMrXTxEPLuK5ue'
p4658
(dp4659
g3
S'Journey'
p4660
sg5
I20
sg6
S'https://open.spotify.com/track/4bHsxqR3GMrXTxEPLuK5ue'
p4661
sg8
S"Don't Stop Believin'"
p4662
ssS'5GXAXm5YOmYT0kL5jHvYBt'
p4663
(dp4664
g3
S'The Weeknd'
p4665
sg5
I24
sg6
S'https://open.spotify.com/track/5GXAXm5YOmYT0kL5jHvYBt'
p4666
sg8
S'I Feel It Coming'
p4667
ssS'6IZvVAP7VPPnsGX6bvgkqg'
p4668
(dp4669
g3
S'Kendrick Lamar'
p4670
sg5
I2
sg6
S'https://open.spotify.com/track/6IZvVAP7VPPnsGX6bvgkqg'
p4671
sg8
S'PRIDE.'
p4672
ssS'0lMbuWUpfTWhEmOKxppEau'
p4673
(dp4674
g3
S'Calvin Harris'
p4675
sg5
I9
sg6
S'https://open.spotify.com/track/0lMbuWUpfTWhEmOKxppEau'
p4676
sg8
S'Rollin'
p4677
ssS'508hbpTQ7wclT2JDpKBUSV'
p4678
(dp4679
g3
S'Lorde'
p4680
sg5
I1
sg6
S'https://open.spotify.com/track/508hbpTQ7wclT2JDpKBUSV'
p4681
sg8
S'Perfect Places'
p4682
ssS'6yDVzSw6ADBAQNgBSkkdw6'
p4683
(dp4684
g3
S'Deepend'
p4685
sg5
I1
sg6
S'https://open.spotify.com/track/6yDVzSw6ADBAQNgBSkkdw6'
p4686
sg8
S'Waiting for the Summer'
p4687
ssS'41kE0bBBpwPUZEZKxSIROh'
p4688
(dp4689
g3
S'Urban Cone'
p4690
sg5
I6
sg6
S'https://open.spotify.com/track/41kE0bBBpwPUZEZKxSIROh'
p4691
sg8
S'Old School'
p4692
ssS'3cFsmM51N5zMAuu1nNY4Tw'
p4693
(dp4694
g3
S'Sean Paul'
p4695
sg5
I25
sg6
S'https://open.spotify.com/track/3cFsmM51N5zMAuu1nNY4Tw'
p4696
sg8
S'No Lie'
p4697
ssS'1Slwb6dOYkBlWal1PGtnNg'
p4698
(dp4699
g3
S'Ed Sheeran'
p4700
sg5
I10
sg6
S'https://open.spotify.com/track/1Slwb6dOYkBlWal1PGtnNg'
p4701
sg8
S'Thinking Out Loud'
p4702
ssS'4B1rpPmQXwj78wk6aIGwwU'
p4703
(dp4704
g3
S'Harry Styles'
p4705
sg5
I1
sg6
S'https://open.spotify.com/track/4B1rpPmQXwj78wk6aIGwwU'
p4706
sg8
S'Two Ghosts'
p4707
ssS'6jA8HL9i4QGzsj6fjoxp8Y'
p4708
(dp4709
g3
S'Martin Garrix'
p4710
sg5
I20
sg6
S'https://open.spotify.com/track/6jA8HL9i4QGzsj6fjoxp8Y'
p4711
sg8
S'There for You'
p4712
ssS'7kOgMK63girYyYwLCo5aiW'
p4713
(dp4714
g3
S'Sultan + Shepard '
p4715
sg5
I6
sg6
S'https://open.spotify.com/track/7kOgMK63girYyYwLCo5aiW'
p4716
sg8
S'Almost Home'
p4717
ssS'2PxZiMTSDHIuFLiuF14Qgf'
p4718
(dp4719
g3
S'Bushido'
p4720
sg5
I3
sg6
S'https://open.spotify.com/track/2PxZiMTSDHIuFLiuF14Qgf'
p4721
sg8
S'Gehen wir rein'
p4722
ssS'1CUVN2kn7mW5FjkqXTR2W1'
p4723
(dp4724
g3
S'Jonas Blue'
p4725
sg5
I9
sg6
S'https://open.spotify.com/track/1CUVN2kn7mW5FjkqXTR2W1'
p4726
sg8
S'Perfect Strangers'
p4727
ssS'1vVNlXi8gf8tZ7OhnEs4VE'
p4728
(dp4729
g3
S'French Montana'
p4730
sg5
I1
sg6
S'https://open.spotify.com/track/1vVNlXi8gf8tZ7OhnEs4VE'
p4731
sg8
S'A Lie'
p4732
ssS'0SGkqnVQo9KPytSri1H6cF'
p4733
(dp4734
g3
S'Big Sean'
p4735
sg5
I15
sg6
S'https://open.spotify.com/track/0SGkqnVQo9KPytSri1H6cF'
p4736
sg8
S'Bounce Back'
p4737
ssS'6JltcNxVQ1xl0LT6NTXjb3'
p4738
(dp4739
g3
S'RAF Camora'
p4740
sg5
I3
sg6
S'https://open.spotify.com/track/6JltcNxVQ1xl0LT6NTXjb3'
p4741
sg8
S'Entertainment'
p4742
ssS'3UjSOJ00E1eLMcayBm827Q'
p4743
(dp4744
g3
S'Salvador Sobral'
p4745
sg5
I1
sg6
S'https://open.spotify.com/track/3UjSOJ00E1eLMcayBm827Q'
p4746
sg8
S'Amar pelos Dois'
p4747
ssS'7nKBxz47S9SD79N086fuhn'
p4748
(dp4749
g3
S'Enrique Iglesias'
p4750
sg5
I32
sg6
S'https://open.spotify.com/track/7nKBxz47S9SD79N086fuhn'
p4751
sg8
S'SUBEME LA RADIO'
p4752
ssS'044qU7kwVZaDwzWnRsmVVL'
p4753
(dp4754
g3
S'The xx'
p4755
sg5
I1
sg6
S'https://open.spotify.com/track/044qU7kwVZaDwzWnRsmVVL'
p4756
sg8
S'I Dare You'
p4757
ssS'27SdWb2rFzO6GWiYDBTD9j'
p4758
(dp4759
g3
S'Sia'
p4760
sg5
I26
sg6
S'https://open.spotify.com/track/27SdWb2rFzO6GWiYDBTD9j'
p4761
sg8
S'Cheap Thrills'
p4762
ssS'4J2RaG4UH2HCThcqzDpeAF'
p4763
(dp4764
g3
S'Imagine Dragons'
p4765
sg5
I1
sg6
S'https://open.spotify.com/track/4J2RaG4UH2HCThcqzDpeAF'
p4766
sg8
S'Start Over'
p4767
ssS'3vgNmjuRDnGLxUFGCLkwpm'
p4768
(dp4769
g3
S'David Guetta'
p4770
sg5
I1
sg6
S'https://open.spotify.com/track/3vgNmjuRDnGLxUFGCLkwpm'
p4771
sg8
S'Light My Body Up (feat. Nicki Minaj & Lil Wayne)'
p4772
ssS'5xhJmd0I15jFcEdqxfCzKk'
p4773
(dp4774
g3
S'The Chainsmokers'
p4775
sg5
I1
sg6
S'https://open.spotify.com/track/5xhJmd0I15jFcEdqxfCzKk'
p4776
sg8
S"It Won't Kill Ya"
p4777
ssS'5dQJKDx0x73seZbwSORa1T'
p4778
(dp4779
g3
S'The Vamps'
p4780
sg5
I1
sg6
S'https://open.spotify.com/track/5dQJKDx0x73seZbwSORa1T'
p4781
sg8
S'Middle Of The Night'
p4782
ssS'6PJ8FF6UR8FZXfEvpHkIVN'
p4783
(dp4784
g3
S'Ed Sheeran'
p4785
sg5
I8
sg6
S'https://open.spotify.com/track/6PJ8FF6UR8FZXfEvpHkIVN'
p4786
sg8
S'How Would You Feel (Paean)'
p4787
ssS'6LUOMjoORvAkdhBYvESO46'
p4788
(dp4789
g3
S'Sia'
p4790
sg5
I9
sg6
S'https://open.spotify.com/track/6LUOMjoORvAkdhBYvESO46'
p4791
sg8
S'Move Your Body - Alan Walker Remix'
p4792
ssS'3nbtUeypf5UJvxBNA9KCJD'
p4793
(dp4794
g3
S'Kontra K'
p4795
sg5
I2
sg6
S'https://open.spotify.com/track/3nbtUeypf5UJvxBNA9KCJD'
p4796
sg8
S'Gift (feat. BTNG & AK Ausser Kontrolle)'
p4797
ssS'38mwJAySCI0sxFWJvN3KbC'
p4798
(dp4799
g3
S'Miami Yacine'
p4800
sg5
I4
sg6
S'https://open.spotify.com/track/38mwJAySCI0sxFWJvN3KbC'
p4801
sg8
S'Gro\xc3\x9fstadtdschungel'
p4802
ssS'20uKv8uFihEw4GSzJZ4PtS'
p4803
(dp4804
g3
S'RIN'
p4805
sg5
I1
sg6
S'https://open.spotify.com/track/20uKv8uFihEw4GSzJZ4PtS'
p4806
sg8
S'Vagabundo'
p4807
ssS'5ndfVSDyPq90jaIUhNPeby'
p4808
(dp4809
g3
S'Katy Perry'
p4810
sg5
I2
sg6
S'https://open.spotify.com/track/5ndfVSDyPq90jaIUhNPeby'
p4811
sg8
S'Chained To The Rhythm'
p4812
ssS'5uCax9HTNlzGybIStD3vDh'
p4813
(dp4814
g3
S'James Arthur'
p4815
sg5
I40
sg6
S'https://open.spotify.com/track/5uCax9HTNlzGybIStD3vDh'
p4816
sg8
S"Say You Won't Let Go"
p4817
ssS'7qiZfU4dY1lWllzX7mPBI3'
p4818
(dp4819
g3
S'Ed Sheeran'
p4820
sg5
I40
sg6
S'https://open.spotify.com/track/7qiZfU4dY1lWllzX7mPBI3'
p4821
sg8
S'Shape of You'
p4822
ssS'70f0ToGXTEtLKFSwHMbHoC'
p4823
(dp4824
g3
S'Eagles'
p4825
sg5
I1
sg6
S'https://open.spotify.com/track/70f0ToGXTEtLKFSwHMbHoC'
p4826
sg8
S'Please Come Home For Christmas - Bonus Track'
p4827
ssS'3nCcFA1iiehndgGSddMiV2'
p4828
(dp4829
g3
S'Tom Petty and the Heartbreakers'
p4830
sg5
I1
sg6
S'https://open.spotify.com/track/3nCcFA1iiehndgGSddMiV2'
p4831
sg8
S'Christmas All Over Again'
p4832
ssS'0wfbD5rAksdXUzRvMfM3x5'
p4833
(dp4834
g3
S'The Chainsmokers'
p4835
sg5
I10
sg6
S'https://open.spotify.com/track/0wfbD5rAksdXUzRvMfM3x5'
p4836
sg8
S'The One'
p4837
ssS'3e0mpxrpVrWj27EpEzs6ZV'
p4838
(dp4839
g3
S'Casper'
p4840
sg5
I1
sg6
S'https://open.spotify.com/track/3e0mpxrpVrWj27EpEzs6ZV'
p4841
sg8
S'Alles ist erleuchtet'
p4842
ssS'63Qco1ncI5U4qEUnxL1DsH'
p4843
(dp4844
g3
S'Bakermat'
p4845
sg5
I15
sg6
S'https://open.spotify.com/track/63Qco1ncI5U4qEUnxL1DsH'
p4846
sg8
S'Living'
p4847
ssS'6TsUpMfzc7ORiO8jN6yAzf'
p4848
(dp4849
g3
S'Kamaliya'
p4850
sg5
I5
sg6
S'https://open.spotify.com/track/6TsUpMfzc7ORiO8jN6yAzf'
p4851
sg8
S'Aphrodite - Violin'
p4852
ssS'0lQRATnAHfiULVw36bIpDJ'
p4853
(dp4854
g3
S'Cro'
p4855
sg5
I1
sg6
S'https://open.spotify.com/track/0lQRATnAHfiULVw36bIpDJ'
p4856
sg8
S'computiful'
p4857
ssS'0dPQeNbDOYCUlrEbJlxytV'
p4858
(dp4859
g3
S'Bilderbuch'
p4860
sg5
I1
sg6
S'https://open.spotify.com/track/0dPQeNbDOYCUlrEbJlxytV'
p4861
sg8
S'Sweetlove'
p4862
ssS'1yFiaFeSLpw4nDYTeErRZ6'
p4863
(dp4864
g3
S'Linkin Park'
p4865
sg5
I1
sg6
S'https://open.spotify.com/track/1yFiaFeSLpw4nDYTeErRZ6'
p4866
sg8
S'Leave Out All The Rest'
p4867
ssS'42HI1CnQ4meVfZCTSwZK0n'
p4868
(dp4869
g3
S'187 Strassenbande'
p4870
sg5
I4
sg6
S'https://open.spotify.com/track/42HI1CnQ4meVfZCTSwZK0n'
p4871
sg8
S'Sitzheizung'
p4872
ssS'3BCMPKOdAoXpvDXxiVCwKG'
p4873
(dp4874
g3
S'Mert'
p4875
sg5
I1
sg6
S'https://open.spotify.com/track/3BCMPKOdAoXpvDXxiVCwKG'
p4876
sg8
S'Like geile Bitches'
p4877
ssS'7bsnTsbiwOymZWjPF9v6Di'
p4878
(dp4879
g3
S'Macklemore'
p4880
sg5
I2
sg6
S'https://open.spotify.com/track/7bsnTsbiwOymZWjPF9v6Di'
p4881
sg8
S'Marmalade (feat. Lil Yachty)'
p4882
ssS'5ghIJDpPoe3CfHMGu71E6T'
p4883
(dp4884
g3
S'Nirvana'
p4885
sg5
I1
sg6
S'https://open.spotify.com/track/5ghIJDpPoe3CfHMGu71E6T'
p4886
sg8
S'Smells Like Teen Spirit'
p4887
ssS'1F2HXIJrE2Xn81OzT2zZvW'
p4888
(dp4889
g3
S'French Montana'
p4890
sg5
I13
sg6
S'https://open.spotify.com/track/1F2HXIJrE2Xn81OzT2zZvW'
p4891
sg8
S'Unforgettable'
p4892
ssS'6QgjcU0zLnzq5OrUoSZ3OK'
p4893
(dp4894
g3
S'Portugal. The Man'
p4895
sg5
I21
sg6
S'https://open.spotify.com/track/6QgjcU0zLnzq5OrUoSZ3OK'
p4896
sg8
S'Feel It Still'
p4897
ssS'3KbCjPkewCmJt09FYtyVK5'
p4898
(dp4899
g3
S'Gzuz'
p4900
sg5
I10
sg6
S'https://open.spotify.com/track/3KbCjPkewCmJt09FYtyVK5'
p4901
sg8
S'10 Jahre'
p4902
ssS'11Hq1xTlR8Bgm3Pgv9EqGs'
p4903
(dp4904
g3
S'Adolphe Adam'
p4905
sg5
I1
sg6
S'https://open.spotify.com/track/11Hq1xTlR8Bgm3Pgv9EqGs'
p4906
sg8
S'O Holy Night'
p4907
ssS'78rIJddV4X0HkNAInEcYde'
p4908
(dp4909
g3
S'Starley'
p4910
sg5
I42
sg6
S'https://open.spotify.com/track/78rIJddV4X0HkNAInEcYde'
p4911
sg8
S'Call On Me - Ryan Riback Extended Remix'
p4912
ssS'0L7loeTIg6akW84aEQZpCT'
p4913
(dp4914
g3
S'Major Lazer'
p4915
sg5
I27
sg6
S'https://open.spotify.com/track/0L7loeTIg6akW84aEQZpCT'
p4916
sg8
S'Light It Up (feat. Nyla & Fuse ODG) - Remix'
p4917
ssS'1BRdeyNaPcblzeqaBum5TS'
p4918
(dp4919
g3
S'PA Sports'
p4920
sg5
I9
sg6
S'https://open.spotify.com/track/1BRdeyNaPcblzeqaBum5TS'
p4921
sg8
S'Sie will'
p4922
ssS'4Q5yMlwAfAoitqg4r9oZHN'
p4923
(dp4924
g3
S'Cashmere Cat'
p4925
sg5
I7
sg6
S'https://open.spotify.com/track/4Q5yMlwAfAoitqg4r9oZHN'
p4926
sg8
S'Quit (feat. Ariana Grande)'
p4927
ssS'1Bqxj0aH5KewYHKUg1IdrF'
p4928
(dp4929
g3
S'G-Eazy'
p4930
sg5
I8
sg6
S'https://open.spotify.com/track/1Bqxj0aH5KewYHKUg1IdrF'
p4931
sg8
S'Some Kind Of Drug'
p4932
ssS'5ZHii46hUSor1kacWUhHQT'
p4933
(dp4934
g3
S'Cro'
p4935
sg5
I1
sg6
S'https://open.spotify.com/track/5ZHii46hUSor1kacWUhHQT'
p4936
sg8
S'hi'
p4937
ssS'3qlF4ENgFTbAbPZfFF9lxt'
p4938
(dp4939
g3
S'Yvonne Catterfeld'
p4940
sg5
I15
sg6
S'https://open.spotify.com/track/3qlF4ENgFTbAbPZfFF9lxt'
p4941
sg8
S'Irgendwas (feat. Bengio)'
p4942
ssS'1KUmTehYjtZJdVTbx2R5Zs'
p4943
(dp4944
g3
S'Cornerstone'
p4945
sg5
I2
sg6
S'https://open.spotify.com/track/1KUmTehYjtZJdVTbx2R5Zs'
p4946
sg8
S'Northern Light'
p4947
ssS'1LzguIGcb1qtA1Kw9pfwAP'
p4948
(dp4949
g3
S'Alice Merton'
p4950
sg5
I1
sg6
S'https://open.spotify.com/track/1LzguIGcb1qtA1Kw9pfwAP'
p4951
sg8
S'No Roots'
p4952
ssS'1HgK7BQsq5397JH2xzH3dn'
p4953
(dp4954
g3
S'Bushido'
p4955
sg5
I2
sg6
S'https://open.spotify.com/track/1HgK7BQsq5397JH2xzH3dn'
p4956
sg8
S'Sodom und Gomorrha'
p4957
ssS'167NczpNbRF7oWakJaY3Hh'
p4958
(dp4959
g3
S'Niall Horan'
p4960
sg5
I23
sg6
S'https://open.spotify.com/track/167NczpNbRF7oWakJaY3Hh'
p4961
sg8
S'Slow Hands'
p4962
ssS'51Bpjq1BdQlS3V852vJCw7'
p4963
(dp4964
g3
S'Macklemore'
p4965
sg5
I1
sg6
S'https://open.spotify.com/track/51Bpjq1BdQlS3V852vJCw7'
p4966
sg8
S'Intentions (feat. Dan Caplen)'
p4967
ssS'7DQXiMeLqiQsy1uqHSk0xc'
p4968
(dp4969
g3
S'Shawn Hook'
p4970
sg5
I3
sg6
S'https://open.spotify.com/track/7DQXiMeLqiQsy1uqHSk0xc'
p4971
sg8
S'Reminding Me'
p4972
ssS'4Tvekfes45AT2GWJlqdKar'
p4973
(dp4974
g3
S'Wanda'
p4975
sg5
I6
sg6
S'https://open.spotify.com/track/4Tvekfes45AT2GWJlqdKar'
p4976
sg8
S'Columbo'
p4977
ssS'0or0gNaKAXYYCsOrpvRzAu'
p4978
(dp4979
g3
S'Lorde'
p4980
sg5
I1
sg6
S'https://open.spotify.com/track/0or0gNaKAXYYCsOrpvRzAu'
p4981
sg8
S'Liability'
p4982
ssS'5dENcQGTiP77Re7LvaIMTT'
p4983
(dp4984
g3
S'Savas'
p4985
sg5
I1
sg6
S'https://open.spotify.com/track/5dENcQGTiP77Re7LvaIMTT'
p4986
sg8
S'Royal Bunker'
p4987
ssS'6cREm4bV7V79Yxdilx9HDo'
p4988
(dp4989
g3
S'Timeflies'
p4990
sg5
I1
sg6
S'https://open.spotify.com/track/6cREm4bV7V79Yxdilx9HDo'
p4991
sg8
S'Once In a While'
p4992
ssS'4ebyxcj1PnmLXRFFpWegGY'
p4993
(dp4994
g3
S'Zuna'
p4995
sg5
I1
sg6
S'https://open.spotify.com/track/4ebyxcj1PnmLXRFFpWegGY'
p4996
sg8
S'Guck Mama'
p4997
ssS'3ruUVcomUKxPlX8srBfMua'
p4998
(dp4999
g3
S'187 Strassenbande'
p5000
sg5
I2
sg6
S'https://open.spotify.com/track/3ruUVcomUKxPlX8srBfMua'
p5001
sg8
S'10 Dinger'
p5002
ssS'2gFYrhAsBGU9DUzOiCy16l'
p5003
(dp5004
g3
S'Nimo'
p5005
sg5
I2
sg6
S'https://open.spotify.com/track/2gFYrhAsBGU9DUzOiCy16l'
p5006
sg8
S'LFR'
p5007
ssS'0xG0SHshCStMEyNbNC5d4k'
p5008
(dp5009
g3
S'Julia Michaels'
p5010
sg5
I8
sg6
S'https://open.spotify.com/track/0xG0SHshCStMEyNbNC5d4k'
p5011
sg8
S'Issues'
p5012
ssS'7yHEDfrJNd0zWOfXwydNH0'
p5013
(dp5014
g3
S'Ariana Grande'
p5015
sg5
I1
sg6
S'https://open.spotify.com/track/7yHEDfrJNd0zWOfXwydNH0'
p5016
sg8
S'Into You'
p5017
ssS'1lntL1cI2UIWlxjL5QiN8g'
p5018
(dp5019
g3
S'Lauv'
p5020
sg5
I12
sg6
S'https://open.spotify.com/track/1lntL1cI2UIWlxjL5QiN8g'
p5021
sg8
S'The Other'
p5022
ssS'2nAAFnHiXRdWhsqoeqhhnr'
p5023
(dp5024
g3
S'London Grammar'
p5025
sg5
I1
sg6
S'https://open.spotify.com/track/2nAAFnHiXRdWhsqoeqhhnr'
p5026
sg8
S'Rooting For You'
p5027
ssS'0LtVx5vsq9nfpGsWgjUin6'
p5028
(dp5029
g3
S'Ryan Gosling'
p5030
sg5
I2
sg6
S'https://open.spotify.com/track/0LtVx5vsq9nfpGsWgjUin6'
p5031
sg8
S'City Of Stars - From La La Land Soundtrack'
p5032
ssS'2Lg1njXKvhgv72U9QkrwXi'
p5033
(dp5034
g3
S'Bilderbuch'
p5035
sg5
I11
sg6
S'https://open.spotify.com/track/2Lg1njXKvhgv72U9QkrwXi'
p5036
sg8
S'Maschin'
p5037
ssS'1839RWzPRZCVgvamu4sHSN'
p5038
(dp5039
g3
S'Cash Cash'
p5040
sg5
I11
sg6
S'https://open.spotify.com/track/1839RWzPRZCVgvamu4sHSN'
p5041
sg8
S'All My Love (feat. Conor Maynard)'
p5042
ssS'2LAudGqtk1ci9zTJD3Sq9B'
p5043
(dp5044
g3
S'Celo & Abdi'
p5045
sg5
I6
sg6
S'https://open.spotify.com/track/2LAudGqtk1ci9zTJD3Sq9B'
p5046
sg8
S"Rhythm n' Flouz"
p5047
ssS'6wHRm1KR8pzVDPdmR6Qovj'
p5048
(dp5049
g3
S'Bonez MC'
p5050
sg5
I42
sg6
S'https://open.spotify.com/track/6wHRm1KR8pzVDPdmR6Qovj'
p5051
sg8
S'Palmen aus Plastik'
p5052
ssS'5J9P2JiLn9VR5C8c2YAEPi'
p5053
(dp5054
g3
S'Savas'
p5055
sg5
I3
sg6
S'https://open.spotify.com/track/5J9P2JiLn9VR5C8c2YAEPi'
p5056
sg8
S'Royal Bunker'
p5057
ssS'11KJSRSgaDxqydKYiD2Jew'
p5058
(dp5059
g3
S'Drake'
p5060
sg5
I2
sg6
S'https://open.spotify.com/track/11KJSRSgaDxqydKYiD2Jew'
p5061
sg8
S'Too Good'
p5062
ssS'7pYFPMeK0TnaTGdS6qOtEr'
p5063
(dp5064
g3
S'Stargate'
p5065
sg5
I6
sg6
S'https://open.spotify.com/track/7pYFPMeK0TnaTGdS6qOtEr'
p5066
sg8
S'Waterfall'
p5067
ssS'7675gjlUZzneYiMrQ9Inx8'
p5068
(dp5069
g3
S'Lukas Graham'
p5070
sg5
I1
sg6
S'https://open.spotify.com/track/7675gjlUZzneYiMrQ9Inx8'
p5071
sg8
S'Mama Said'
p5072
ssS'1yNyoWWWikbLhwIGWjZuDW'
p5073
(dp5074
g3
S'The Vamps'
p5075
sg5
I27
sg6
S'https://open.spotify.com/track/1yNyoWWWikbLhwIGWjZuDW'
p5076
sg8
S'All Night'
p5077
ssS'26AuyrZGzWWiYZPSd3XBIg'
p5078
(dp5079
g3
S'The Chainsmokers'
p5080
sg5
I2
sg6
S'https://open.spotify.com/track/26AuyrZGzWWiYZPSd3XBIg'
p5081
sg8
S'Bloodstream'
p5082
ssS'7FpW9V6XATqH6z7jhqQjlp'
p5083
(dp5084
g3
S'Capital Bra'
p5085
sg5
I7
sg6
S'https://open.spotify.com/track/7FpW9V6XATqH6z7jhqQjlp'
p5086
sg8
S'Ol\xc3\xa9 Ol\xc3\xa9'
p5087
ssS'3Dwq1oiOFys6Sxr5SslmXw'
p5088
(dp5089
g3
S'Harry Styles'
p5090
sg5
I1
sg6
S'https://open.spotify.com/track/3Dwq1oiOFys6Sxr5SslmXw'
p5091
sg8
S'Carolina'
p5092
ssS'4vb4mFvYsr2h6enhjJsq9Y'
p5093
(dp5094
g3
S'Adele'
p5095
sg5
I15
sg6
S'https://open.spotify.com/track/4vb4mFvYsr2h6enhjJsq9Y'
p5096
sg8
S'Water Under the Bridge'
p5097
ssS'61JOmMKpKfmkN5IAKZPTRY'
p5098
(dp5099
g3
S'Mert'
p5100
sg5
I1
sg6
S'https://open.spotify.com/track/61JOmMKpKfmkN5IAKZPTRY'
p5101
sg8
S'Liebe hei\xc3\x9ft'
p5102
ssS'2kVHAQKVtczchKctctzbtK'
p5103
(dp5104
g3
S'Katy Perry'
p5105
sg5
I5
sg6
S'https://open.spotify.com/track/2kVHAQKVtczchKctctzbtK'
p5106
sg8
S'Swish Swish'
p5107
ssS'17Fd6Yb7mSbinKG8LoWfFl'
p5108
(dp5109
g3
S'Mike Posner'
p5110
sg5
I24
sg6
S'https://open.spotify.com/track/17Fd6Yb7mSbinKG8LoWfFl'
p5111
sg8
S'I Took A Pill In Ibiza - Seeb Remix'
p5112
ssS'7zTx8ePYAmPFQuxP3xlXZn'
p5113
(dp5114
g3
S'San Holo'
p5115
sg5
I9
sg6
S'https://open.spotify.com/track/7zTx8ePYAmPFQuxP3xlXZn'
p5116
sg8
S'Light'
p5117
ssS'4wNoRqV13QFo0ioevVaP1W'
p5118
(dp5119
g3
S'Capital Bra'
p5120
sg5
I1
sg6
S'https://open.spotify.com/track/4wNoRqV13QFo0ioevVaP1W'
p5121
sg8
S'BMW Alpina'
p5122
ssS'4tCtwWceOPWzenK2HAIJSb'
p5123
(dp5124
g3
S'Fifth Harmony'
p5125
sg5
I13
sg6
S'https://open.spotify.com/track/4tCtwWceOPWzenK2HAIJSb'
p5126
sg8
S'Work from Home'
p5127
ssS'10LHzP0shFKnoi02OgaAJP'
p5128
(dp5129
g3
S'Sammy Davis Jr.'
p5130
sg5
I1
sg6
S'https://open.spotify.com/track/10LHzP0shFKnoi02OgaAJP'
p5131
sg8
S'Jingle Bells - Remastered'
p5132
ssS'7d2QNWdojil8IXENPnAgTv'
p5133
(dp5134
g3
S'RAF Camora'
p5135
sg5
I5
sg6
S'https://open.spotify.com/track/7d2QNWdojil8IXENPnAgTv'
p5136
sg8
S'Alles probiert'
p5137
ssS'3TZ3MiMILR5wrQbbWiFUwI'
p5138
(dp5139
g3
S'A R I Z O N A'
p5140
sg5
I33
sg6
S'https://open.spotify.com/track/3TZ3MiMILR5wrQbbWiFUwI'
p5141
sg8
S'I Was Wrong - Robin Schulz Remix'
p5142
ssS'5fpujciVjGBhnR2XFx06E7'
p5143
(dp5144
g3
S'Kurdo'
p5145
sg5
I28
sg6
S'https://open.spotify.com/track/5fpujciVjGBhnR2XFx06E7'
p5146
sg8
S'Ya Salam'
p5147
ssS'6Sr3iRWoMsyqVfNDJJQmzk'
p5148
(dp5149
g3
S'Cro'
p5150
sg5
I1
sg6
S'https://open.spotify.com/track/6Sr3iRWoMsyqVfNDJJQmzk'
p5151
sg8
S'Bye Bye'
p5152
ssS'1DmTjPulewJKFW2xbhYNJE'
p5153
(dp5154
g3
S'Casper'
p5155
sg5
I1
sg6
S'https://open.spotify.com/track/1DmTjPulewJKFW2xbhYNJE'
p5156
sg8
S'Lass sie gehen'
p5157
ssS'3hB5DgAiMAQ4DzYbsMq1IT'
p5158
(dp5159
g3
S'Justin Bieber'
p5160
sg5
I12
sg6
S'https://open.spotify.com/track/3hB5DgAiMAQ4DzYbsMq1IT'
p5161
sg8
S'Love Yourself'
p5162
ssS'1foCxQtxBweJtZmdxhEHVO'
p5163
(dp5164
g3
S'Eartha Kitt'
p5165
sg5
I1
sg6
S'https://open.spotify.com/track/1foCxQtxBweJtZmdxhEHVO'
p5166
sg8
S'Santa Baby'
p5167
ssS'32OWobmyAz8J2qA8iWekyS'
p5168
(dp5169
g3
S'Justin Bieber'
p5170
sg5
I1
sg6
S'https://open.spotify.com/track/32OWobmyAz8J2qA8iWekyS'
p5171
sg8
S'Mistletoe'
p5172
ssS'6hjck7ERXicpsW51UkdHCA'
p5173
(dp5174
g3
S'Maxwell'
p5175
sg5
I6
sg6
S'https://open.spotify.com/track/6hjck7ERXicpsW51UkdHCA'
p5176
sg8
S'Safari'
p5177
ssS'6XOYVSmNDjKUNMXooU4s4z'
p5178
(dp5179
g3
S'OneRepublic'
p5180
sg5
I24
sg6
S'https://open.spotify.com/track/6XOYVSmNDjKUNMXooU4s4z'
p5181
sg8
S'No Vacancy'
p5182
ssS'1oc4kHthIpfa2jQnIL33GE'
p5183
(dp5184
g3
S'OneRepublic'
p5185
sg5
I9
sg6
S'https://open.spotify.com/track/1oc4kHthIpfa2jQnIL33GE'
p5186
sg8
S"Let's Hurt Tonight"
p5187
ssS'06ieFuGkwHCOFP2cmOBmgb'
p5188
(dp5189
g3
S'RIN'
p5190
sg5
I6
sg6
S'https://open.spotify.com/track/06ieFuGkwHCOFP2cmOBmgb'
p5191
sg8
S'Monica Bellucci'
p5192
ssS'3bidbhpOYeV4knp8AIu8Xn'
p5193
(dp5194
g3
S'Macklemore & Ryan Lewis'
p5195
sg5
I11
sg6
S'https://open.spotify.com/track/3bidbhpOYeV4knp8AIu8Xn'
p5196
sg8
S"Can't Hold Us - feat. Ray Dalton"
p5197
ssS'5nm2zzI4IUPdyVhTZ5QvmR'
p5198
(dp5199
g3
S'Zuna'
p5200
sg5
I5
sg6
S'https://open.spotify.com/track/5nm2zzI4IUPdyVhTZ5QvmR'
p5201
sg8
S'Original'
p5202
ssS'6hyQOWD7kUVEJTjIHtJXdM'
p5203
(dp5204
g3
S'Kontra K'
p5205
sg5
I8
sg6
S'https://open.spotify.com/track/6hyQOWD7kUVEJTjIHtJXdM'
p5206
sg8
S'Mehr als ein Job'
p5207
ssS'46l2oL1piMcccv8OZE5xmd'
p5208
(dp5209
g3
S'Bing Crosby'
p5210
sg5
I1
sg6
S'https://open.spotify.com/track/46l2oL1piMcccv8OZE5xmd'
p5211
sg8
S'Mele Kalikimaka'
p5212
ssS'6PGoSes0D9eUDeeAafB2As'
p5213
(dp5214
g3
S'Kendrick Lamar'
p5215
sg5
I5
sg6
S'https://open.spotify.com/track/6PGoSes0D9eUDeeAafB2As'
p5216
sg8
S'LOVE. FEAT. ZACARI.'
p5217
ssS'1lItf5ZXJc1by9SbPeljFd'
p5218
(dp5219
g3
S'Zay Hilfigerrr'
p5220
sg5
I4
sg6
S'https://open.spotify.com/track/1lItf5ZXJc1by9SbPeljFd'
p5221
sg8
S'Juju On That Beat (TZ Anthem)'
p5222
ssS'5tz69p7tJuGPeMGwNTxYuV'
p5223
(dp5224
g3
S'Logic'
p5225
sg5
I19
sg6
S'https://open.spotify.com/track/5tz69p7tJuGPeMGwNTxYuV'
p5226
sg8
S'1-800-273-8255'
p5227
ssS'2GdIKPluDT6hT3xBxxKiUK'
p5228
(dp5229
g3
S'Ilinca'
p5230
sg5
I1
sg6
S'https://open.spotify.com/track/2GdIKPluDT6hT3xBxxKiUK'
p5231
sg8
S'Yodel it!'
p5232
ss.