(dp0
S'0mel2N9Ws9r4yLQn5QE21Y'
p1
(dp2
S'artistName'
p3
S'Sam Smith'
p4
sS'weeksOnChart'
p5
I5
sS'track_href'
p6
S'https://open.spotify.com/track/0mel2N9Ws9r4yLQn5QE21Y'
p7
sS'songName'
p8
S'Too Good At Goodbyes'
p9
ssS'728zbo72kOoYdGR3AhNsyF'
p10
(dp11
g3
S'The xx'
p12
sg5
I1
sg6
S'https://open.spotify.com/track/728zbo72kOoYdGR3AhNsyF'
p13
sg8
S'Say Something Loving'
p14
ssS'0XpHRYDkbyrX9UwkkfrE9e'
p15
(dp16
g3
S'Jocie Kok'
p17
sg5
I2
sg6
S'https://open.spotify.com/track/0XpHRYDkbyrX9UwkkfrE9e'
p18
sg8
S'\xe4\xbd\xa0\xe8\x83\xbd\xe8\x81\xbd\xe8\xa6\x8b\xe5\x97\x8e - 52Hz\xe7\x89\x88'
p19
ssS'60a0Rd6pjrkxjPbaKzXjfq'
p20
(dp21
g3
S'Linkin Park'
p22
sg5
I4
sg6
S'https://open.spotify.com/track/60a0Rd6pjrkxjPbaKzXjfq'
p23
sg8
S'In The End'
p24
ssS'6mzTuMlbCgEtoCitsszlqP'
p25
(dp26
g3
S'Avicii'
p27
sg5
I1
sg6
S'https://open.spotify.com/track/6mzTuMlbCgEtoCitsszlqP'
p28
sg8
S'What Would I Change It To (feat. AlunaGeorge)'
p29
ssS'0prNGof3XqfTvNDxHonvdK'
p30
(dp31
g3
S'Alessia Cara'
p32
sg5
I15
sg6
S'https://open.spotify.com/track/0prNGof3XqfTvNDxHonvdK'
p33
sg8
S'Scars To Your Beautiful'
p34
ssS'4EFh4DkdqSvPfIoOg6vxvS'
p35
(dp36
g3
S'Joi Chua'
p37
sg5
I2
sg6
S'https://open.spotify.com/track/4EFh4DkdqSvPfIoOg6vxvS'
p38
sg8
S'\xe6\x95\xb4\xe8\xa3\x9d'
p39
ssS'1pJQAHpD51J7GYaFrrFO9S'
p40
(dp41
g3
S'The Chainsmokers'
p42
sg5
I3
sg6
S'https://open.spotify.com/track/1pJQAHpD51J7GYaFrrFO9S'
p43
sg8
S"Don't Say"
p44
ssS'6HUnnBwYZqcED1eQztxMBN'
p45
(dp46
g3
S'Martin Jensen'
p47
sg5
I40
sg6
S'https://open.spotify.com/track/6HUnnBwYZqcED1eQztxMBN'
p48
sg8
S'Solo Dance'
p49
ssS'4Tulf6yVo59f2ofSi3YUqW'
p50
(dp51
g3
S'Rich Chigga'
p52
sg5
I1
sg6
S'https://open.spotify.com/track/4Tulf6yVo59f2ofSi3YUqW'
p53
sg8
S'Glow Like Dat'
p54
ssS'7IX7VAXujvcZ3e1PG7sGP7'
p55
(dp56
g3
S'Coldplay'
p57
sg5
I1
sg6
S'https://open.spotify.com/track/7IX7VAXujvcZ3e1PG7sGP7'
p58
sg8
S'Kaleidoscope'
p59
ssS'0F1Rc18rZcJOALxIIQPTYd'
p60
(dp61
g3
S'Maty Noyes'
p62
sg5
I1
sg6
S'https://open.spotify.com/track/0F1Rc18rZcJOALxIIQPTYd'
p63
sg8
S'in my miNd'
p64
ssS'3QWjljChcOMkRDYSzF33Qr'
p65
(dp66
g3
S'Kiiara'
p67
sg5
I7
sg6
S'https://open.spotify.com/track/3QWjljChcOMkRDYSzF33Qr'
p68
sg8
S'Whippin (feat. Felix Snow)'
p69
ssS'0lLdorYw7lVrJydTINhWdI'
p70
(dp71
g3
S'Michael Bubl\xc3\xa9'
p72
sg5
I1
sg6
S'https://open.spotify.com/track/0lLdorYw7lVrJydTINhWdI'
p73
sg8
S"It's Beginning To Look A Lot Like Christmas"
p74
ssS'6CdUgvL597jWmW4w8P5kHs'
p75
(dp76
g3
S'TAEYEON'
p77
sg5
I14
sg6
S'https://open.spotify.com/track/6CdUgvL597jWmW4w8P5kHs'
p78
sg8
S'Fine'
p79
ssS'2aksifNn5ph8igDOkPBA02'
p80
(dp81
g3
S'Rihanna'
p82
sg5
I4
sg6
S'https://open.spotify.com/track/2aksifNn5ph8igDOkPBA02'
p83
sg8
S'Love On The Brain'
p84
ssS'5o4yGlG0PfeVUa6ClIyOxq'
p85
(dp86
g3
S'Charli XCX'
p87
sg5
I8
sg6
S'https://open.spotify.com/track/5o4yGlG0PfeVUa6ClIyOxq'
p88
sg8
S'Boys'
p89
ssS'4b4KcovePX8Ke2cLIQTLM0'
p90
(dp91
g3
S'The Vamps'
p92
sg5
I1
sg6
S'https://open.spotify.com/track/4b4KcovePX8Ke2cLIQTLM0'
p93
sg8
S'All Night'
p94
ssS'2XiSB3m4WSkxD3xIUrYHfV'
p95
(dp96
g3
S'Coldplay'
p97
sg5
I1
sg6
S'https://open.spotify.com/track/2XiSB3m4WSkxD3xIUrYHfV'
p98
sg8
S'Adventure Of A Lifetime - Live From Spotify London'
p99
ssS'7LJjWqhqK594nN7qJzLVXE'
p100
(dp101
g3
S'BLACKPINK'
p102
sg5
I10
sg6
S'https://open.spotify.com/track/7LJjWqhqK594nN7qJzLVXE'
p103
sg8
S"As If It's Your Last"
p104
ssS'0jdny0dhgjUwoIp5GkqEaA'
p105
(dp106
g3
S'Kesha'
p107
sg5
I5
sg6
S'https://open.spotify.com/track/0jdny0dhgjUwoIp5GkqEaA'
p108
sg8
S'Praying'
p109
ssS'5mS0BGxAAebA3amJg6LkVk'
p110
(dp111
g3
S'Namewee'
p112
sg5
I31
sg6
S'https://open.spotify.com/track/5mS0BGxAAebA3amJg6LkVk'
p113
sg8
S'\xe9\xa3\x84\xe5\x90\x91\xe5\x8c\x97\xe6\x96\xb9'
p114
ssS'7KcGEssn7BnJdTgildK5y0'
p115
(dp116
g3
S'Nicki Minaj'
p117
sg5
I1
sg6
S'https://open.spotify.com/track/7KcGEssn7BnJdTgildK5y0'
p118
sg8
S'No Frauds'
p119
ssS'5wik2zLgiI5y4T2RzpkWQ5'
p120
(dp121
g3
S'Suming'
p122
sg5
I1
sg6
S'https://open.spotify.com/track/5wik2zLgiI5y4T2RzpkWQ5'
p123
sg8
S'\xe7\x9c\xbc\xe6\xb7\x9a\xe4\xb8\x8d\xe8\xa6\x81\xe6\x8e\x89\xe4\xb8\x8b\xe4\xbe\x86 - \xe6\xb7\xb1\xe5\xa4\x9c\xe7\x89\x88'
p124
ssS'1CnPYaKxTVb4LWOtiGOm0m'
p125
(dp126
g3
S'Jon Bellion'
p127
sg5
I15
sg6
S'https://open.spotify.com/track/1CnPYaKxTVb4LWOtiGOm0m'
p128
sg8
S'All Time Low'
p129
ssS'4OZEu0Vwq0RB2LAq14v99n'
p130
(dp131
g3
S'DJ Snake'
p132
sg5
I6
sg6
S'https://open.spotify.com/track/4OZEu0Vwq0RB2LAq14v99n'
p133
sg8
S'Middle'
p134
ssS'3l1owXkkY14cChafkwrNwM'
p135
(dp136
g3
S'Fish Leong'
p137
sg5
I1
sg6
S'https://open.spotify.com/track/3l1owXkkY14cChafkwrNwM'
p138
sg8
S'\xe5\x8f\xaf\xe4\xbb\xa5\xe7\x9a\x84\xe8\xa9\xb1'
p139
ssS'6Pw3Gvw4wNMZfTYZa6IQal'
p140
(dp141
g3
S'Bebe Rexha'
p142
sg5
I17
sg6
S'https://open.spotify.com/track/6Pw3Gvw4wNMZfTYZa6IQal'
p143
sg8
S'The Way I Are (Dance With Somebody) [feat. Lil Wayne]'
p144
ssS'152lZdxL1OR0ZMW6KquMif'
p145
(dp146
g3
S'Khalid'
p147
sg5
I23
sg6
S'https://open.spotify.com/track/152lZdxL1OR0ZMW6KquMif'
p148
sg8
S'Location'
p149
ssS'3Tm4NaSrJPAlyIbKNGdKnT'
p150
(dp151
g3
S'No Party For Cao Dong'
p152
sg5
I12
sg6
S'https://open.spotify.com/track/3Tm4NaSrJPAlyIbKNGdKnT'
p153
sg8
S'\xe5\xb1\xb1\xe6\xb5\xb7'
p154
ssS'2Gq8bwrWXzc1gW9g2EnHTh'
p155
(dp156
g3
S'AOA'
p157
sg5
I1
sg6
S'https://open.spotify.com/track/2Gq8bwrWXzc1gW9g2EnHTh'
p158
sg8
S'Excuse Me'
p159
ssS'18sAGLtcv4bRvwUfmfM5o9'
p160
(dp161
g3
S'\xe6\xb4\xaa\xe4\xbd\xa9\xe7\x91\x9c'
p162
sg5
I23
sg6
S'https://open.spotify.com/track/18sAGLtcv4bRvwUfmfM5o9'
p163
sg8
S'\xe8\xb8\xae\xe8\xb5\xb7\xe8\x85\xb3\xe5\xb0\x96\xe6\x84\x9b'
p164
ssS'2FRnf9qhLbvw8fu4IBXx78'
p165
(dp166
g3
S'Wham!'
p167
sg5
I1
sg6
S'https://open.spotify.com/track/2FRnf9qhLbvw8fu4IBXx78'
p168
sg8
S'Last Christmas'
p169
ssS'0jzDEmL1YQSElsZMeWyBFy'
p170
(dp171
g3
S'A-Lin'
p172
sg5
I4
sg6
S'https://open.spotify.com/track/0jzDEmL1YQSElsZMeWyBFy'
p173
sg8
S'\xe6\x9c\xaa\xe5\x96\xae\xe8\xba\xab'
p174
ssS'7fJFDK6XjYsXcMKNHESbot'
p175
(dp176
g3
S'Coldplay'
p177
sg5
I1
sg6
S'https://open.spotify.com/track/7fJFDK6XjYsXcMKNHESbot'
p178
sg8
S'Fun (feat. Tove Lo)'
p179
ssS'1XxIOeXiiGEj7DorVnjukG'
p180
(dp181
g3
S'\xe5\xa5\xbd\xe6\xa8\x82\xe5\x9c\x98'
p182
sg5
I12
sg6
S'https://open.spotify.com/track/1XxIOeXiiGEj7DorVnjukG'
p183
sg8
S'\xe6\x88\x91\xe6\x8a\x8a\xe6\x88\x91\xe7\x9a\x84\xe9\x9d\x92\xe6\x98\xa5\xe7\xb5\xa6\xe4\xbd\xa0'
p184
ssS'61kyeuTz4ratNUYHG6UzcG'
p185
(dp186
g3
S'Sandee Chan'
p187
sg5
I1
sg6
S'https://open.spotify.com/track/61kyeuTz4ratNUYHG6UzcG'
p188
sg8
S'\xe4\xb8\x8d\xe8\xa6\x81\xe4\xb8\x8d\xe8\xa6\x81 feat. \xe9\xad\x8f\xe5\xa6\x82\xe8\x90\xb1'
p189
ssS'0wqQBpHfJLgontHc7xO0mx'
p190
(dp191
g3
S'Valen Hsu'
p192
sg5
I1
sg6
S'https://open.spotify.com/track/0wqQBpHfJLgontHc7xO0mx'
p193
sg8
S'\xe6\x9c\x80\xe9\x9b\xa3\xe7\x9a\x84\xe6\x98\xaf\xe7\x9b\xb8\xe9\x81\x87'
p194
ssS'3gfmFoJgmn9LiIj5mV8oSS'
p195
(dp196
g3
S'R3HAB'
p197
sg5
I4
sg6
S'https://open.spotify.com/track/3gfmFoJgmn9LiIj5mV8oSS'
p198
sg8
S"I Just Can't"
p199
ssS'2kxxThuM9DX5Qn5QAgQlbX'
p200
(dp201
g3
S'Sodagreen'
p202
sg5
I5
sg6
S'https://open.spotify.com/track/2kxxThuM9DX5Qn5QAgQlbX'
p203
sg8
S'\xe6\x95\x85\xe4\xba\x8b - Endless Story Live'
p204
ssS'1v0WT8Lta6O9m8KuhbSUpI'
p205
(dp206
g3
S'Fish Leong'
p207
sg5
I2
sg6
S'https://open.spotify.com/track/1v0WT8Lta6O9m8KuhbSUpI'
p208
sg8
S'\xe6\x9c\x83\xe5\x91\xbc\xe5\x90\xb8\xe7\x9a\x84\xe7\x97\x9b'
p209
ssS'2vMFq3lqRLRZQIjLsfD5im'
p210
(dp211
g3
S'LaLa Hsu'
p212
sg5
I9
sg6
S'https://open.spotify.com/track/2vMFq3lqRLRZQIjLsfD5im'
p213
sg8
S'\xe5\xb0\x8b\xe4\xba\xba\xe5\x95\x9f\xe4\xba\x8b'
p214
ssS'262Q20zX8BmAOIA6cFB2t9'
p215
(dp216
g3
S'Li Yugang'
p217
sg5
I15
sg6
S'https://open.spotify.com/track/262Q20zX8BmAOIA6cFB2t9'
p218
sg8
S'\xe5\x88\x9a\xe5\xa5\xbd\xe9\x81\x87\xe8\xa7\x81\xe4\xbd\xa0'
p219
ssS'4pLwZjInHj3SimIyN9SnOz'
p220
(dp221
g3
S'Ariana Grande'
p222
sg5
I24
sg6
S'https://open.spotify.com/track/4pLwZjInHj3SimIyN9SnOz'
p223
sg8
S'Side To Side'
p224
ssS'6OAUhxFZzaRHHC8XiuIkvb'
p225
(dp226
g3
S'A-Mei Chang'
p227
sg5
I12
sg6
S'https://open.spotify.com/track/6OAUhxFZzaRHHC8XiuIkvb'
p228
sg8
S'\xe4\xba\xba\xe8\xb3\xaa'
p229
ssS'3E2Zh20GDCR9B1EYjfXWyv'
p230
(dp231
g3
S'AJR'
p232
sg5
I18
sg6
S'https://open.spotify.com/track/3E2Zh20GDCR9B1EYjfXWyv'
p233
sg8
S'Weak'
p234
ssS'2Gl0FzuLxflY6nPifJp5Dr'
p235
(dp236
g3
S'Kygo'
p237
sg5
I24
sg6
S'https://open.spotify.com/track/2Gl0FzuLxflY6nPifJp5Dr'
p238
sg8
S'First Time'
p239
ssS'1KvyBpAxgllKW7bQb0GYCR'
p240
(dp241
g3
S'Linkin Park'
p242
sg5
I1
sg6
S'https://open.spotify.com/track/1KvyBpAxgllKW7bQb0GYCR'
p243
sg8
S'Halfway Right'
p244
ssS'34isqXjbTstbYwl2MfdzDq'
p245
(dp246
g3
S'Linkin Park'
p247
sg5
I1
sg6
S'https://open.spotify.com/track/34isqXjbTstbYwl2MfdzDq'
p248
sg8
S'Sorry for Now'
p249
ssS'4BHzQ9C00ceJxfG16AlNWb'
p250
(dp251
g3
S'Adele'
p252
sg5
I2
sg6
S'https://open.spotify.com/track/4BHzQ9C00ceJxfG16AlNWb'
p253
sg8
S'Send My Love (To Your New Lover)'
p254
ssS'4TY6iCGEXJOOwyhMAuiwHh'
p255
(dp256
g3
S'Eric Chou'
p257
sg5
I3
sg6
S'https://open.spotify.com/track/4TY6iCGEXJOOwyhMAuiwHh'
p258
sg8
S'\xe5\xbf\xab\xe6\xa8\x82\xe4\xb8\x80\xe6\xac\xa1\xe6\x93\x81\xe6\x9c\x89'
p259
ssS'4Km5HrUvYTaSUfiSGPJeQR'
p260
(dp261
g3
S'Migos'
p262
sg5
I11
sg6
S'https://open.spotify.com/track/4Km5HrUvYTaSUfiSGPJeQR'
p263
sg8
S'Bad and Boujee (feat. Lil Uzi Vert)'
p264
ssS'50PWlIBU7PlGGwzgN8TiFJ'
p265
(dp266
g3
S'Lady Gaga'
p267
sg5
I12
sg6
S'https://open.spotify.com/track/50PWlIBU7PlGGwzgN8TiFJ'
p268
sg8
S'Million Reasons'
p269
ssS'3O7p9Itz8PXUoAjD2vmuM6'
p270
(dp271
g3
S'Lana Del Rey'
p272
sg5
I1
sg6
S'https://open.spotify.com/track/3O7p9Itz8PXUoAjD2vmuM6'
p273
sg8
S'Beautiful People Beautiful Problems (feat. Stevie Nicks)'
p274
ssS'2RttW7RAu5nOAfq6YFvApB'
p275
(dp276
g3
S'Ed Sheeran'
p277
sg5
I17
sg6
S'https://open.spotify.com/track/2RttW7RAu5nOAfq6YFvApB'
p278
sg8
S'Happier'
p279
ssS'0zqmCAx4rhIkKXFzKaVscd'
p280
(dp281
g3
S'Han Suji'
p282
sg5
I4
sg6
S'https://open.spotify.com/track/0zqmCAx4rhIkKXFzKaVscd'
p283
sg8
S'Winter Is Coming'
p284
ssS'5LYQSNHZxEA880URXFHg6h'
p285
(dp286
g3
S'Lana Del Rey'
p287
sg5
I5
sg6
S'https://open.spotify.com/track/5LYQSNHZxEA880URXFHg6h'
p288
sg8
S'Lust for Life (with The Weeknd)'
p289
ssS'3EmmCZoqpWOTY1g2GBwJoR'
p290
(dp291
g3
S'Steve Aoki'
p292
sg5
I29
sg6
S'https://open.spotify.com/track/3EmmCZoqpWOTY1g2GBwJoR'
p293
sg8
S'Just Hold On'
p294
ssS'2Ce5IyMlVRVvN997ZJjJJA'
p295
(dp296
g3
S'Future'
p297
sg5
I14
sg6
S'https://open.spotify.com/track/2Ce5IyMlVRVvN997ZJjJJA'
p298
sg8
S'Selfish'
p299
ssS'7iypwu1yQ4GftHl3nbUgK6'
p300
(dp301
g3
S'P!nk'
p302
sg5
I1
sg6
S'https://open.spotify.com/track/7iypwu1yQ4GftHl3nbUgK6'
p303
sg8
S'Whatever You Want'
p304
ssS'3AVrVz5rK8Hrqo9YGiVGN5'
p305
(dp306
g3
S'Cigarettes After Sex'
p307
sg5
I1
sg6
S'https://open.spotify.com/track/3AVrVz5rK8Hrqo9YGiVGN5'
p308
sg8
S'Apocalypse'
p309
ssS'1I0wNk30nKoyFgs1hVIi3C'
p310
(dp311
g3
S'\xe7\x8e\x8b\xe8\x97\x8d\xe8\x8c\xb5'
p312
sg5
I16
sg6
S'https://open.spotify.com/track/1I0wNk30nKoyFgs1hVIi3C'
p313
sg8
S'\xe6\x83\xa1\xe4\xbd\x9c\xe5\x8a\x87'
p314
ssS'0gbBzIqrECJOEPvQJIBFs5'
p315
(dp316
g3
S'Lorde'
p317
sg5
I10
sg6
S'https://open.spotify.com/track/0gbBzIqrECJOEPvQJIBFs5'
p318
sg8
S'Green Light'
p319
ssS'44PelqgstAM0lb8rHPKfHq'
p320
(dp321
g3
S'Gorillaz'
p322
sg5
I1
sg6
S'https://open.spotify.com/track/44PelqgstAM0lb8rHPKfHq'
p323
sg8
S'Let Me Out (feat. Mavis Staples & Pusha T)'
p324
ssS'6FJK9abb448IbJhrlMNMRV'
p325
(dp326
g3
S'Jolin Tsai'
p327
sg5
I5
sg6
S'https://open.spotify.com/track/6FJK9abb448IbJhrlMNMRV'
p328
sg8
S'\xe8\xae\x93\xe6\x84\x9b\xe5\x82\xb3\xe5\x87\xba\xe5\x8e\xbb - 2017\xe5\xa4\xa7\xe6\x84\x9b\xe9\x9b\xbb\xe8\xa6\x961+1\xe4\xbd\xa0\xe5\x8a\xa0\xe6\x88\x91\xe4\xb8\xbb\xe9\xa1\x8c\xe6\x9b\xb2'
p329
ssS'7KlTFTpy7dXLzr2NtLkvG6'
p330
(dp331
g3
S'BTS'
p332
sg5
I14
sg6
S'https://open.spotify.com/track/7KlTFTpy7dXLzr2NtLkvG6'
p333
sg8
S'Not Today'
p334
ssS'5kRPPEWFJIMox5qIkQkiz5'
p335
(dp336
g3
S'Harry Styles'
p337
sg5
I2
sg6
S'https://open.spotify.com/track/5kRPPEWFJIMox5qIkQkiz5'
p338
sg8
S'Sweet Creature'
p339
ssS'5eqK0tbzUPo2SoeZsov04s'
p340
(dp341
g3
S'21 Savage'
p342
sg5
I7
sg6
S'https://open.spotify.com/track/5eqK0tbzUPo2SoeZsov04s'
p343
sg8
S'Bank Account'
p344
ssS'4TZ1xAwR0kJNN20H6GW82h'
p345
(dp346
g3
S'Lukas Graham'
p347
sg5
I1
sg6
S'https://open.spotify.com/track/4TZ1xAwR0kJNN20H6GW82h'
p348
sg8
S'Off to See the World'
p349
ssS'4qXEqMLJccyFMny6brZDet'
p350
(dp351
g3
S'Rosie Yang'
p352
sg5
I5
sg6
S'https://open.spotify.com/track/4qXEqMLJccyFMny6brZDet'
p353
sg8
S'\xe6\x80\x8e\xe9\xba\xbc\xe9\x82\x84\xe4\xb8\x8d\xe6\x84\x9b(\xe9\x9b\x80\xe8\xba\x8d\xe7\x8b\x82\xe6\x84\x9b\xe7\x89\x88) \xe4\xb8\x89\xe7\xab\x8b\xe5\x81\xb6\xe5\x83\x8f\xe5\x8a\x87[\xe6\x96\x99\xe7\x90\x86\xe9\xab\x98\xe6\xa0\xa1\xe7\x94\x9f]\xe7\x89\x87\xe5\xb0\xbe\xe6\x9b\xb2'
p354
ssS'4xlrALxuaCf9yZBHJeTSG6'
p355
(dp356
g3
S'Jonas Blue'
p357
sg5
I9
sg6
S'https://open.spotify.com/track/4xlrALxuaCf9yZBHJeTSG6'
p358
sg8
S'Mama'
p359
ssS'7jv78xbDu7HT5L1IEOO7GZ'
p360
(dp361
g3
S'Will Pan'
p362
sg5
I1
sg6
S'https://open.spotify.com/track/7jv78xbDu7HT5L1IEOO7GZ'
p363
sg8
S'\xe7\xac\xac\xe4\xb8\x89\xe9\xa1\x9e\xe6\x8e\xa5\xe8\xa7\xb8'
p364
ssS'3RXkboS74UYzN14xTqzPyY'
p365
(dp366
g3
S''
p367
sg5
I1
sg6
S'https://open.spotify.com/track/3RXkboS74UYzN14xTqzPyY'
p368
sg8
g367
ssS'4izg6Hydc6XGErWW6nbdsV'
p369
(dp370
g3
S'Imagine Dragons'
p371
sg5
I3
sg6
S'https://open.spotify.com/track/4izg6Hydc6XGErWW6nbdsV'
p372
sg8
S'Whatever It Takes'
p373
ssS'23khhseCLQqVMCIT1WMAns'
p374
(dp375
g3
S'Coldplay'
p376
sg5
I2
sg6
S'https://open.spotify.com/track/23khhseCLQqVMCIT1WMAns'
p377
sg8
S'Magic'
p378
ssS'7ClKYu6ngiXnz4M8zWQ1AW'
p379
(dp380
g3
S'Z-Chen'
p381
sg5
I32
sg6
S'https://open.spotify.com/track/7ClKYu6ngiXnz4M8zWQ1AW'
p382
sg8
S'\xe6\x88\x91\xe6\x84\x9b\xe7\x9a\x84\xe4\xba\xba\xe4\xb8\x8d\xe6\x84\x9b\xe6\x88\x91'
p383
ssS'709KzfwT1nOcSzBkLmO9mV'
p384
(dp385
g3
S'Penny Tai'
p386
sg5
I1
sg6
S'https://open.spotify.com/track/709KzfwT1nOcSzBkLmO9mV'
p387
sg8
S'\xe4\xbd\xa0\xe8\xa6\x81\xe7\x9a\x84\xe6\x84\x9b'
p388
ssS'3pzjHKrQSvXGHQ98dx18HI'
p389
(dp390
g3
S'Justin Bieber'
p391
sg5
I3
sg6
S'https://open.spotify.com/track/3pzjHKrQSvXGHQ98dx18HI'
p392
sg8
S'What Do You Mean?'
p393
ssS'000xQL6tZNLJzIrtIgxqSl'
p394
(dp395
g3
S'ZAYN'
p396
sg5
I10
sg6
S'https://open.spotify.com/track/000xQL6tZNLJzIrtIgxqSl'
p397
sg8
S'Still Got Time'
p398
ssS'2bFHbxjRekY0WVZx1me2EQ'
p399
(dp400
g3
S'Bolly'
p401
sg5
I1
sg6
S'https://open.spotify.com/track/2bFHbxjRekY0WVZx1me2EQ'
p402
sg8
S'Lose your mind'
p403
ssS'1D3ODoXHBLpdxolZRHWV1j'
p404
(dp405
g3
S'Jonas Blue'
p406
sg5
I34
sg6
S'https://open.spotify.com/track/1D3ODoXHBLpdxolZRHWV1j'
p407
sg8
S'By Your Side'
p408
ssS'1CKd1PnqfYx0H12V9MSaIY'
p409
(dp410
g3
S'Zedd'
p411
sg5
I13
sg6
S'https://open.spotify.com/track/1CKd1PnqfYx0H12V9MSaIY'
p412
sg8
S'Get Low (with Liam Payne)'
p413
ssS'042x9bsUBWW2fJgJ6fUh61'
p414
(dp415
g3
S'DVBBS'
p416
sg5
I14
sg6
S'https://open.spotify.com/track/042x9bsUBWW2fJgJ6fUh61'
p417
sg8
S'Not Going Home'
p418
ssS'2DGa7iaidT5s0qnINlwMjJ'
p419
(dp420
g3
S'Alan Walker'
p421
sg5
I4
sg6
S'https://open.spotify.com/track/2DGa7iaidT5s0qnINlwMjJ'
p422
sg8
S'The Spectre'
p423
ssS'2nvC4i2aMo4CzRjRflysah'
p424
(dp425
g3
S'Coldplay'
p426
sg5
I2
sg6
S'https://open.spotify.com/track/2nvC4i2aMo4CzRjRflysah'
p427
sg8
S'In My Place'
p428
ssS'5CtI0qwDJkDQGwXD1H1cLb'
p429
(dp430
g3
S'Luis Fonsi'
p431
sg5
I26
sg6
S'https://open.spotify.com/track/5CtI0qwDJkDQGwXD1H1cLb'
p432
sg8
S'Despacito - Remix'
p433
ssS'6jIpuClSFwyBoGTwwpkKU5'
p434
(dp435
g3
S'TWICE'
p436
sg5
I1
sg6
S'https://open.spotify.com/track/6jIpuClSFwyBoGTwwpkKU5'
p437
sg8
S'CHEER UP'
p438
ssS'3t7GX7UAoxFcvkWCDqEvLW'
p439
(dp440
g3
S'J.Sheon'
p441
sg5
I27
sg6
S'https://open.spotify.com/track/3t7GX7UAoxFcvkWCDqEvLW'
p442
sg8
S'\xe5\x88\xa5\xe5\x95\x8f\xe5\xbe\x88\xe5\x8f\xaf\xe6\x80\x95'
p443
ssS'0Nhu3zSYbEz32IYiobV75e'
p444
(dp445
g3
S'Halsey'
p446
sg5
I10
sg6
S'https://open.spotify.com/track/0Nhu3zSYbEz32IYiobV75e'
p447
sg8
S'Now Or Never'
p448
ssS'0zCfmceT1YvtZXGbR6Roht'
p449
(dp450
g3
S'La La Land Cast'
p451
sg5
I12
sg6
S'https://open.spotify.com/track/0zCfmceT1YvtZXGbR6Roht'
p452
sg8
S'Another Day Of Sun - From La La Land Soundtrack'
p453
ssS'0BcDe0azCqMFU4kAXvUqqk'
p454
(dp455
g3
S'\xe5\x90\xb3\xe4\xba\xa6\xe5\xb8\x86'
p456
sg5
I8
sg6
S'https://open.spotify.com/track/0BcDe0azCqMFU4kAXvUqqk'
p457
sg8
S'\xe4\xb8\x8d\xe6\x83\xb3\xe7\xb5\x90\xe6\x9d\x9f'
p458
ssS'1a5Yu5L18qNxVhXx38njON'
p459
(dp460
g3
S'Alok'
p461
sg5
I12
sg6
S'https://open.spotify.com/track/1a5Yu5L18qNxVhXx38njON'
p462
sg8
S'Hear Me Now'
p463
ssS'4g8jooRMGEoBErcWFetQDY'
p464
(dp465
g3
S'Frande'
p466
sg5
I7
sg6
S'https://open.spotify.com/track/4g8jooRMGEoBErcWFetQDY'
p467
sg8
S'\xe8\xa9\xb2\xe6\xad\xbb\xe7\x9a\x84\xe5\x86\xb7\xe6\x88\xb0'
p468
ssS'1Eck97uRMlprKOOJN9oO1E'
p469
(dp470
g3
S'G-Eazy'
p471
sg5
I25
sg6
S'https://open.spotify.com/track/1Eck97uRMlprKOOJN9oO1E'
p472
sg8
S'Good Life (with G-Eazy & Kehlani)'
p473
ssS'7ARveOiD31w2Nq0n5FsSf8'
p474
(dp475
g3
S'Lorde'
p476
sg5
I1
sg6
S'https://open.spotify.com/track/7ARveOiD31w2Nq0n5FsSf8'
p477
sg8
S'Perfect Places'
p478
ssS'2ekn2ttSfGqwhhate0LSR0'
p479
(dp480
g3
S'Dua Lipa'
p481
sg5
I14
sg6
S'https://open.spotify.com/track/2ekn2ttSfGqwhhate0LSR0'
p482
sg8
S'New Rules'
p483
ssS'6Ueak5DDCwth4IdeTmLpYC'
p484
(dp485
g3
S'\xe5\x9a\xb4\xe8\x97\x9d\xe4\xb8\xb9'
p486
sg5
I2
sg6
S'https://open.spotify.com/track/6Ueak5DDCwth4IdeTmLpYC'
p487
sg8
S'\xe6\x95\xb2 \xe5\x96\x9c\xe6\xad\xa1\xe4\xbd\xa0'
p488
ssS'5WEqjIUHkwZ5h3DSE7F9bM'
p489
(dp490
g3
S'Avicii'
p491
sg5
I1
sg6
S'https://open.spotify.com/track/5WEqjIUHkwZ5h3DSE7F9bM'
p492
sg8
S'Friend Of Mine (feat. Vargas & Lagola)'
p493
ssS'03m5ynXvoV7XkMKQUvtYgy'
p494
(dp495
g3
S'Victor Wong'
p496
sg5
I3
sg6
S'https://open.spotify.com/track/03m5ynXvoV7XkMKQUvtYgy'
p497
sg8
S'\xe6\x88\x91\xe4\xbb\xa5\xe7\x82\xba'
p498
ssS'7nAfXgeHfDO50upcOjJOaq'
p499
(dp500
g3
S'Linkin Park'
p501
sg5
I4
sg6
S'https://open.spotify.com/track/7nAfXgeHfDO50upcOjJOaq'
p502
sg8
S'Talking to Myself'
p503
ssS'1sCxVKWImDZSZKvG0U9B23'
p504
(dp505
g3
S'Selena Gomez'
p506
sg5
I20
sg6
S'https://open.spotify.com/track/1sCxVKWImDZSZKvG0U9B23'
p507
sg8
S'Bad Liar'
p508
ssS'3rvEwBi1mFFHqCnkrGmnWp'
p509
(dp510
g3
S'Robin Schulz'
p511
sg5
I2
sg6
S'https://open.spotify.com/track/3rvEwBi1mFFHqCnkrGmnWp'
p512
sg8
S'Unforgettable'
p513
ssS'6jmngk8Fwup05JZ6kgXEGX'
p514
(dp515
g3
S'Imagine Dragons'
p516
sg5
I3
sg6
S'https://open.spotify.com/track/6jmngk8Fwup05JZ6kgXEGX'
p517
sg8
S'Walking The Wire'
p518
ssS'7mowUlgzJfCpNrzTQGIfjQ'
p519
(dp520
g3
S'Della'
p521
sg5
I3
sg6
S'https://open.spotify.com/track/7mowUlgzJfCpNrzTQGIfjQ'
p522
sg8
S'\xe6\x9c\x80\xe5\xb0\x8f\xe7\x9a\x84\xe5\x81\x89\xe5\xa4\xa7'
p523
ssS'7KXjTSCq5nL1LoYtL7XAwS'
p524
(dp525
g3
S'Kendrick Lamar'
p526
sg5
I28
sg6
S'https://open.spotify.com/track/7KXjTSCq5nL1LoYtL7XAwS'
p527
sg8
S'HUMBLE.'
p528
ssS'7oVEtyuv9NBmnytsCIsY5I'
p529
(dp530
g3
S'Linkin Park'
p531
sg5
I1
sg6
S'https://open.spotify.com/track/7oVEtyuv9NBmnytsCIsY5I'
p532
sg8
S'BURN IT DOWN'
p533
ssS'3du0nEqwYbPyhSAnGBXvZK'
p534
(dp535
g3
S'Grady Guan'
p536
sg5
I1
sg6
S'https://open.spotify.com/track/3du0nEqwYbPyhSAnGBXvZK'
p537
sg8
S'\xe6\xb2\x90\xe5\xa4\x8f\xe4\xb9\x8b\xe6\x88\x80'
p538
ssS'1ojFTmZl4FYSOAINvPSgbu'
p539
(dp540
g3
S'Nana Lee'
p541
sg5
I1
sg6
S'https://open.spotify.com/track/1ojFTmZl4FYSOAINvPSgbu'
p542
sg8
S'\xe8\xaa\xaa\xe5\xaf\xa6\xe8\xa9\xb1'
p543
ssS'4hiUYb2nb6NlfTP9CD38Pe'
p544
(dp545
g3
S'Ti\xc3\xabsto'
p546
sg5
I9
sg6
S'https://open.spotify.com/track/4hiUYb2nb6NlfTP9CD38Pe'
p547
sg8
S'On My Way'
p548
ssS'3TRFq09DUgYj1mug6RRqJW'
p549
(dp550
g3
S'Luke Christopher'
p551
sg5
I8
sg6
S'https://open.spotify.com/track/3TRFq09DUgYj1mug6RRqJW'
p552
sg8
S'Lot to Learn'
p553
ssS'3OkFyfE2CGRfc4MqwAKdgi'
p554
(dp555
g3
S'Sia'
p556
sg5
I2
sg6
S'https://open.spotify.com/track/3OkFyfE2CGRfc4MqwAKdgi'
p557
sg8
S"Rainbow (From The Original Motion Picture Soundtrack 'My Little Pony: The Movie')"
p558
ssS'6O6M7pJLABmfBRoGZMu76Y'
p559
(dp560
g3
S'The Chainsmokers'
p561
sg5
I34
sg6
S'https://open.spotify.com/track/6O6M7pJLABmfBRoGZMu76Y'
p562
sg8
S'Roses'
p563
ssS'1rIKgCH4H52lrvDcz50hS8'
p564
(dp565
g3
S'Zara Larsson'
p566
sg5
I1
sg6
S'https://open.spotify.com/track/1rIKgCH4H52lrvDcz50hS8'
p567
sg8
S'Lush Life'
p568
ssS'0SYdaGH1uRZnWK82FAFltl'
p569
(dp570
g3
S'Yoyo Sham'
p571
sg5
I6
sg6
S'https://open.spotify.com/track/0SYdaGH1uRZnWK82FAFltl'
p572
sg8
S'\xe5\xa6\x82\xe6\x9e\x9c\xe6\x88\x91\xe6\x98\xaf\xe4\xb8\x80\xe9\xa6\x96\xe6\xad\x8c'
p573
ssS'7vGuf3Y35N4wmASOKLUVVU'
p574
(dp575
g3
S'Marshmello'
p576
sg5
I9
sg6
S'https://open.spotify.com/track/7vGuf3Y35N4wmASOKLUVVU'
p577
sg8
S'Silence'
p578
ssS'7pstxLUhvsJC3M4TxHe2aI'
p579
(dp580
g3
S'Ti\xc3\xabsto'
p581
sg5
I2
sg6
S'https://open.spotify.com/track/7pstxLUhvsJC3M4TxHe2aI'
p582
sg8
S'Carry You Home'
p583
ssS'1Bjy9ZtwMle3uhVgoBgiGN'
p584
(dp585
g3
S"Girls' Generation"
p586
sg5
I4
sg6
S'https://open.spotify.com/track/1Bjy9ZtwMle3uhVgoBgiGN'
p587
sg8
S'Holiday'
p588
ssS'1nMbZ9OsVNSLEyijI80EST'
p589
(dp590
g3
S'TWICE'
p591
sg5
I23
sg6
S'https://open.spotify.com/track/1nMbZ9OsVNSLEyijI80EST'
p592
sg8
S'TT'
p593
ssS'0Rg6hoXD1wBiOFZ4pmzoWh'
p594
(dp595
g3
S'C\xc3\xa9line Dion'
p596
sg5
I2
sg6
S'https://open.spotify.com/track/0Rg6hoXD1wBiOFZ4pmzoWh'
p597
sg8
S'How Does A Moment Last Forever'
p598
ssS'3zoYkqS4y2BsGVShPL2nTE'
p599
(dp600
g3
S'CNCO'
p601
sg5
I4
sg6
S'https://open.spotify.com/track/3zoYkqS4y2BsGVShPL2nTE'
p602
sg8
S'Reggaet\xc3\xb3n Lento (Remix) [CNCO & Little Mix]'
p603
ssS'4zeU8x5M7n7YqKh2ds7vCn'
p604
(dp605
g3
S'\xe9\xbc\x93\xe9\xbc\x93'
p606
sg5
I10
sg6
S'https://open.spotify.com/track/4zeU8x5M7n7YqKh2ds7vCn'
p607
sg8
S'\xe7\x82\xba\xe6\x84\x9b\xe8\x80\x8c\xe6\x84\x9b'
p608
ssS'7iDxZ5Cd0Yg08d4fI5WVtG'
p609
(dp610
g3
S'Calvin Harris'
p611
sg5
I1
sg6
S'https://open.spotify.com/track/7iDxZ5Cd0Yg08d4fI5WVtG'
p612
sg8
S'Skrt On Me'
p613
ssS'4ftmQfBiImYLtJjVaaxLSP'
p614
(dp615
g3
S'\xe5\xb0\x8f\xe7\x90\x83'
p616
sg5
I1
sg6
S'https://open.spotify.com/track/4ftmQfBiImYLtJjVaaxLSP'
p617
sg8
S'\xe5\xbd\xbc\xe6\xad\xa4\xe5\xbd\xbc\xe6\xad\xa4'
p618
ssS'7129iqBafaphfc3WPCGC0L'
p619
(dp620
g3
S'Lukas Graham'
p621
sg5
I12
sg6
S'https://open.spotify.com/track/7129iqBafaphfc3WPCGC0L'
p622
sg8
S'7 Years'
p623
ssS'4WjH9Bzt3kx7z8kl0awxh4'
p624
(dp625
g3
S'Major Lazer'
p626
sg5
I6
sg6
S'https://open.spotify.com/track/4WjH9Bzt3kx7z8kl0awxh4'
p627
sg8
S'Lean On (feat. M\xc3\x98 & DJ Snake)'
p628
ssS'5GbtkYcTIJ9hsLJxZVP0MZ'
p629
(dp630
g3
S'Nico & Kim'
p631
sg5
I2
sg6
S'https://open.spotify.com/track/5GbtkYcTIJ9hsLJxZVP0MZ'
p632
sg8
S'\xe7\x88\xb6\xe6\xaf\x8d'
p633
ssS'6RWaeePOtZROiS2kyQhMs3'
p634
(dp635
g3
S'DNCE'
p636
sg5
I2
sg6
S'https://open.spotify.com/track/6RWaeePOtZROiS2kyQhMs3'
p637
sg8
S'Truthfully'
p638
ssS'57p8CBvPOxrvyCbn6ttl5r'
p639
(dp640
g3
S'Skrillex'
p641
sg5
I10
sg6
S'https://open.spotify.com/track/57p8CBvPOxrvyCbn6ttl5r'
p642
sg8
S'Would You Ever'
p643
ssS'2oZJWtQZ6CLPHHsnUhC3IY'
p644
(dp645
g3
S'Tanya Chua'
p646
sg5
I22
sg6
S'https://open.spotify.com/track/2oZJWtQZ6CLPHHsnUhC3IY'
p647
sg8
S'\xe6\x8b\x8b\xe7\x89\xa9\xe7\xb7\x9a'
p648
ssS'43jBqV3j3Xi1g6wO0bhIMd'
p649
(dp650
g3
S'Sage The Gemini'
p651
sg5
I10
sg6
S'https://open.spotify.com/track/43jBqV3j3Xi1g6wO0bhIMd'
p652
sg8
S'Now and Later'
p653
ssS'7oolFzHipTMg2nL7shhdz2'
p654
(dp655
g3
S'Ed Sheeran'
p656
sg5
I3
sg6
S'https://open.spotify.com/track/7oolFzHipTMg2nL7shhdz2'
p657
sg8
S'Eraser'
p658
ssS'4Yf5bqU3NK4kNOypcrLYwU'
p659
(dp660
g3
S'Linkin Park'
p661
sg5
I1
sg6
S'https://open.spotify.com/track/4Yf5bqU3NK4kNOypcrLYwU'
p662
sg8
S'Faint'
p663
ssS'5UlBZAWrKnDxKAytl4eLR4'
p664
(dp665
g3
S'Ronghao Li'
p666
sg5
I1
sg6
S'https://open.spotify.com/track/5UlBZAWrKnDxKAytl4eLR4'
p667
sg8
S'\xe9\x87\x8e\xe7\x94\x9f\xe5\x8b\x95\xe7\x89\xa9'
p668
ssS'3NdDpSvN911VPGivFlV5d0'
p669
(dp670
g3
S'ZAYN'
p671
sg5
I42
sg6
S'https://open.spotify.com/track/3NdDpSvN911VPGivFlV5d0'
p672
sg8
S'I Don\xe2\x80\x99t Wanna Live Forever (Fifty Shades Darker) - From Fifty Shades Darker (Original Motion Picture Soundtrack)'
p673
ssS'3gGHAScxUDsJqcAM6ZvjuH'
p674
(dp675
g3
S'John Legend'
p676
sg5
I8
sg6
S'https://open.spotify.com/track/3gGHAScxUDsJqcAM6ZvjuH'
p677
sg8
S'Start A Fire'
p678
ssS'1wC93sZRGcTgKLN2UWRSwW'
p679
(dp680
g3
S'Lorde'
p681
sg5
I1
sg6
S'https://open.spotify.com/track/1wC93sZRGcTgKLN2UWRSwW'
p682
sg8
S'Perfect Places'
p683
ssS'269ABinFLUoi45FAxEH7RF'
p684
(dp685
g3
S'A-Lin'
p686
sg5
I4
sg6
S'https://open.spotify.com/track/269ABinFLUoi45FAxEH7RF'
p687
sg8
S'\xe6\x9c\xaa\xe5\x96\xae\xe8\xba\xab'
p688
ssS'6gzskMARxr1C1fWQTeEj2T'
p689
(dp690
g3
S'\xe9\x98\xbf\xe5\xa6\xb9'
p691
sg5
I5
sg6
S'https://open.spotify.com/track/6gzskMARxr1C1fWQTeEj2T'
p692
sg8
S'\xe5\xaf\x82\xe5\xaf\x9e\xe5\xaf\x82\xe5\xaf\x9e\xe5\xb0\xb1\xe5\xa5\xbd - Sound Of My Dream / Live'
p693
ssS'6W1iPVf8TjHaOqwvkyPjzF'
p694
(dp695
g3
S'Jam Hsiao'
p696
sg5
I4
sg6
S'https://open.spotify.com/track/6W1iPVf8TjHaOqwvkyPjzF'
p697
sg8
S'\xe5\x85\x89\xe7\xb7\x9a\xe8\x83\x8c\xe5\xbe\x8c'
p698
ssS'1LR9tyaedcM6WOs5wlMmPS'
p699
(dp700
g3
S'\xe5\xbb\x96\xe7\xab\x9f\xe6\xb7\xb3'
p701
sg5
I6
sg6
S'https://open.spotify.com/track/1LR9tyaedcM6WOs5wlMmPS'
p702
sg8
S'\xe4\xb8\x8d\xe6\x98\xaf\xe6\x88\x91\xe4\xb8\x8d\xe8\xa6\x81'
p703
ssS'6wV12xIUb8oFY7lBy4KuQe'
p704
(dp705
g3
S'Aaron Carter'
p706
sg5
I9
sg6
S'https://open.spotify.com/track/6wV12xIUb8oFY7lBy4KuQe'
p707
sg8
S'Sooner Or Later'
p708
ssS'4Ab0UWC7GmtKgEiVr0I08O'
p709
(dp710
g3
S'R-chord'
p711
sg5
I1
sg6
S'https://open.spotify.com/track/4Ab0UWC7GmtKgEiVr0I08O'
p712
sg8
S'\xe6\x84\x9b\xe4\xb8\x8d\xe9\x9c\x80\xe8\xa6\x81\xe8\xa3\x9d\xe4\xb9\x96 (feat.\xe7\x8e\x8b\xe8\xa9\xa9\xe5\xae\x89)'
p713
ssS'7q8jJ1XZEliBakZSUMFde5'
p714
(dp715
g3
S'Cheat Codes'
p716
sg5
I10
sg6
S'https://open.spotify.com/track/7q8jJ1XZEliBakZSUMFde5'
p717
sg8
S'Stay With You'
p718
ssS'2SR8QbdNfzA3SUv4rt33sJ'
p719
(dp720
g3
S'Justin Hurwitz'
p721
sg5
I8
sg6
S'https://open.spotify.com/track/2SR8QbdNfzA3SUv4rt33sJ'
p722
sg8
S'Herman\xe2\x80\x99s Habit - From La La Land Soundtrack'
p723
ssS'2eMwDehkIC1j68U6FA3Eiq'
p724
(dp725
g3
S'Lil Uzi Vert'
p726
sg5
I17
sg6
S'https://open.spotify.com/track/2eMwDehkIC1j68U6FA3Eiq'
p727
sg8
S'XO TOUR Llif3'
p728
ssS'3Ijxe0KKNAXJA0TGrLHLaG'
p729
(dp730
g3
S'Tanya Chua'
p731
sg5
I1
sg6
S'https://open.spotify.com/track/3Ijxe0KKNAXJA0TGrLHLaG'
p732
sg8
S'\xe7\xb4\xab'
p733
ssS'3CRDbSIZ4r5MsZ0YwxuEkn'
p734
(dp735
g3
S'Twenty One Pilots'
p736
sg5
I1
sg6
S'https://open.spotify.com/track/3CRDbSIZ4r5MsZ0YwxuEkn'
p737
sg8
S'Stressed Out'
p738
ssS'6mICuAdrwEjh6Y6lroV2Kg'
p739
(dp740
g3
S'Shakira'
p741
sg5
I12
sg6
S'https://open.spotify.com/track/6mICuAdrwEjh6Y6lroV2Kg'
p742
sg8
S'Chantaje'
p743
ssS'67BbMuItfrHmaNqDxBPF7c'
p744
(dp745
g3
S'BLACKPINK'
p746
sg5
I2
sg6
S'https://open.spotify.com/track/67BbMuItfrHmaNqDxBPF7c'
p747
sg8
S'WHISTLE - KR Ver.'
p748
ssS'1VBZd2cxMr0xj6QFCKraRs'
p749
(dp750
g3
S'Ronghao Li'
p751
sg5
I6
sg6
S'https://open.spotify.com/track/1VBZd2cxMr0xj6QFCKraRs'
p752
sg8
S'\xe6\xad\x8c\xe8\xac\xa0'
p753
ssS'4C4Cy09FnI2hD4rRWYaluX'
p754
(dp755
g3
S'No Party For Cao Dong'
p756
sg5
I7
sg6
S'https://open.spotify.com/track/4C4Cy09FnI2hD4rRWYaluX'
p757
sg8
S'\xe9\x86\x9c'
p758
ssS'2SYa5Lx1uoCvyDIW4oee9b'
p759
(dp760
g3
S'BTS'
p761
sg5
I4
sg6
S'https://open.spotify.com/track/2SYa5Lx1uoCvyDIW4oee9b'
p762
sg8
S'MIC Drop'
p763
ssS'0w4Sf61CbM69gDD7RVmaBD'
p764
(dp765
g3
S'Ronghao Li'
p766
sg5
I1
sg6
S'https://open.spotify.com/track/0w4Sf61CbM69gDD7RVmaBD'
p767
sg8
S'\xe7\x88\xb8\xe7\x88\xb8\xe5\xaa\xbd\xe5\xaa\xbd'
p768
ssS'2Zc7pDoOlX2zdH3ffG2R7A'
p769
(dp770
g3
S'A-Mei Chang'
p771
sg5
I1
sg6
S'https://open.spotify.com/track/2Zc7pDoOlX2zdH3ffG2R7A'
p772
sg8
S'\xe6\x8e\x89\xe4\xba\x86 - Remastered'
p773
ssS'60TlmLgVCXyJ80SYIxGIYM'
p774
(dp775
g3
S'\xe5\xa7\x9a\xe4\xba\xa6\xe6\x99\xb4'
p776
sg5
I11
sg6
S'https://open.spotify.com/track/60TlmLgVCXyJ80SYIxGIYM'
p777
sg8
S'Getting Stronger'
p778
ssS'7gHs73wELdeycvS48JfIos'
p779
(dp780
g3
S'Alan Walker'
p781
sg5
I42
sg6
S'https://open.spotify.com/track/7gHs73wELdeycvS48JfIos'
p782
sg8
S'Faded'
p783
ssS'27zrFrtUtWl2urlvjOn5xc'
p784
(dp785
g3
S'Loco'
p786
sg5
I2
sg6
S'https://open.spotify.com/track/27zrFrtUtWl2urlvjOn5xc'
p787
sg8
S'Say Yes'
p788
ssS'1Zyd6zQnC6XIIzmg3hP7Ot'
p789
(dp790
g3
S'BLACKPINK'
p791
sg5
I6
sg6
S'https://open.spotify.com/track/1Zyd6zQnC6XIIzmg3hP7Ot'
p792
sg8
S"As If It's Your Last"
p793
ssS'1xd3OqTbx17HutN7RfJOTj'
p794
(dp795
g3
S'Alok'
p796
sg5
I1
sg6
S'https://open.spotify.com/track/1xd3OqTbx17HutN7RfJOTj'
p797
sg8
S'Big Jet Plane'
p798
ssS'56lF5BpJB1jZLcv2JcNuSC'
p799
(dp800
g3
S'Miley Cyrus'
p801
sg5
I1
sg6
S'https://open.spotify.com/track/56lF5BpJB1jZLcv2JcNuSC'
p802
sg8
S'Week Without You'
p803
ssS'00lNx0OcTJrS3MKHcB80HY'
p804
(dp805
g3
S'Jax Jones'
p806
sg5
I10
sg6
S'https://open.spotify.com/track/00lNx0OcTJrS3MKHcB80HY'
p807
sg8
S"You Don't Know Me - Radio Edit"
p808
ssS'3OdzZtbKhKpQNkN2fQGNo8'
p809
(dp810
g3
S'A-Mei Chang'
p811
sg5
I20
sg6
S'https://open.spotify.com/track/3OdzZtbKhKpQNkN2fQGNo8'
p812
sg8
S'\xe5\xbd\xa9\xe8\x99\xb9 - Remastered'
p813
ssS'2s76aKBWKShlwPC4xTtEEE'
p814
(dp815
g3
S'State of Sound'
p816
sg5
I4
sg6
S'https://open.spotify.com/track/2s76aKBWKShlwPC4xTtEEE'
p817
sg8
S'Wake Up Where You Are'
p818
ssS'470bSvQ50kOkCWLpOajILT'
p819
(dp820
g3
S'Naiwen Yang'
p821
sg5
I7
sg6
S'https://open.spotify.com/track/470bSvQ50kOkCWLpOajILT'
p822
sg8
S'\xe9\x80\x83\xe5\x85\xb5 (\xe9\x9b\xbb\xe5\xbd\xb1\xe3\x80\x8a\xe7\xb6\x81\xe6\x9e\xb6\xe8\x80\x85\xe3\x80\x8b\xe4\xb8\xbb\xe9\xa1\x8c\xe6\x9b\xb2)'
p823
ssS'5ffwnb6hqsKZp8cG6q90OW'
p824
(dp825
g3
S'Coldplay'
p826
sg5
I2
sg6
S'https://open.spotify.com/track/5ffwnb6hqsKZp8cG6q90OW'
p827
sg8
S'Something Just Like This - Tokyo Remix'
p828
ssS'6c0I7CfL9ziGZN8yYkLppP'
p829
(dp830
g3
S'Linkin Park'
p831
sg5
I1
sg6
S'https://open.spotify.com/track/6c0I7CfL9ziGZN8yYkLppP'
p832
sg8
S'Sharp Edges'
p833
ssS'2zjEMw9kkROEbAxIXk6Ivp'
p834
(dp835
g3
S'Linkin Park'
p836
sg5
I1
sg6
S'https://open.spotify.com/track/2zjEMw9kkROEbAxIXk6Ivp'
p837
sg8
S'Shadow Of The Day'
p838
ssS'6t2ubAB4iSYOuIpRAOGd4t'
p839
(dp840
g3
S'Flo Rida'
p841
sg5
I13
sg6
S'https://open.spotify.com/track/6t2ubAB4iSYOuIpRAOGd4t'
p842
sg8
S'Cake'
p843
ssS'4nDfc6F2uVcc6wdG7kBzWO'
p844
(dp845
g3
S'Nick Jonas'
p846
sg5
I3
sg6
S'https://open.spotify.com/track/4nDfc6F2uVcc6wdG7kBzWO'
p847
sg8
S'Bom Bidi Bom - From Fifty Shades Darker (Original Motion Picture Soundtrack)'
p848
ssS'0dj1CtyRxZ4bnIT4Q20jNT'
p849
(dp850
g3
S'The Chainsmokers'
p851
sg5
I2
sg6
S'https://open.spotify.com/track/0dj1CtyRxZ4bnIT4Q20jNT'
p852
sg8
S'Wake Up Alone'
p853
ssS'0kBIGMw5ngDwLWUy2RrUw6'
p854
(dp855
g3
S'Joker Xue'
p856
sg5
I3
sg6
S'https://open.spotify.com/track/0kBIGMw5ngDwLWUy2RrUw6'
p857
sg8
S'\xe5\x8b\x95\xe7\x89\xa9\xe4\xb8\x96\xe7\x95\x8c'
p858
ssS'0fg8CqpjdojMyXLNzM2PaJ'
p859
(dp860
g3
S'Major Lazer'
p861
sg5
I15
sg6
S'https://open.spotify.com/track/0fg8CqpjdojMyXLNzM2PaJ'
p862
sg8
S'Run Up (feat. PARTYNEXTDOOR & Nicki Minaj)'
p863
ssS'0bp5sVqEQEwT8wFm9A7j96'
p864
(dp865
g3
S'Will Pan'
p866
sg5
I3
sg6
S'https://open.spotify.com/track/0bp5sVqEQEwT8wFm9A7j96'
p867
sg8
S'\xe7\xac\xac\xe4\xb8\x89\xe9\xa1\x9e\xe6\x8e\xa5\xe8\xa7\xb8'
p868
ssS'114qi5XMfRkOEf9hR4gaVr'
p869
(dp870
g3
S'Crowd Lu'
p871
sg5
I2
sg6
S'https://open.spotify.com/track/114qi5XMfRkOEf9hR4gaVr'
p872
sg8
S'\xe4\xba\x8c\xe5\x8d\x81\xe5\x9b\x9b\xe5\xb0\x8f\xe6\x99\x82\xe6\x9f\x92\xe5\xa4\xa9'
p873
ssS'6uFsE1JgZ20EXyU0JQZbUR'
p874
(dp875
g3
S'Taylor Swift'
p876
sg5
I7
sg6
S'https://open.spotify.com/track/6uFsE1JgZ20EXyU0JQZbUR'
p877
sg8
S'Look What You Made Me Do'
p878
ssS'0jFHMDRXxKaREor3hBEEST'
p879
(dp880
g3
S'SUNMI'
p881
sg5
I6
sg6
S'https://open.spotify.com/track/0jFHMDRXxKaREor3hBEEST'
p882
sg8
S'Gashina'
p883
ssS'2BPXILn0MqOe5WroVXlvN1'
p884
(dp885
g3
S'Ailee'
p886
sg5
I10
sg6
S'https://open.spotify.com/track/2BPXILn0MqOe5WroVXlvN1'
p887
sg8
S'I will go to you like the first snow'
p888
ssS'5CPqOpKSk0QcJ3dGdaWcRB'
p889
(dp890
g3
S'The xx'
p891
sg5
I1
sg6
S'https://open.spotify.com/track/5CPqOpKSk0QcJ3dGdaWcRB'
p892
sg8
S'On Hold'
p893
ssS'2XqJL0Fsb7HoH6fPJMqbej'
p894
(dp895
g3
S'Jordan Chan'
p896
sg5
I8
sg6
S'https://open.spotify.com/track/2XqJL0Fsb7HoH6fPJMqbej'
p897
sg8
S'\xe7\x8d\xa8\xe5\xae\xb6\xe8\xa8\x98\xe6\x86\xb6'
p898
ssS'0RYXEibxMami3QuT8kn4Iz'
p899
(dp900
g3
S'Macklemore'
p901
sg5
I1
sg6
S'https://open.spotify.com/track/0RYXEibxMami3QuT8kn4Iz'
p902
sg8
S'Marmalade (feat. Lil Yachty)'
p903
ssS'66QK2ov3jneXmdquV0JpZ1'
p904
(dp905
g3
S'Cashmere Cat'
p906
sg5
I1
sg6
S'https://open.spotify.com/track/66QK2ov3jneXmdquV0JpZ1'
p907
sg8
S'9 (After Coachella) (feat. M\xc3\x98 & SOPHIE)'
p908
ssS'4xBjsLUSjcx2h7PcRikpQp'
p909
(dp910
g3
S'Camila Cabello'
p911
sg5
I9
sg6
S'https://open.spotify.com/track/4xBjsLUSjcx2h7PcRikpQp'
p912
sg8
S'OMG'
p913
ssS'7tr2za8SQg2CI8EDgrdtNl'
p914
(dp915
g3
S'Calvin Harris'
p916
sg5
I24
sg6
S'https://open.spotify.com/track/7tr2za8SQg2CI8EDgrdtNl'
p917
sg8
S'Slide'
p918
ssS'7GX5flRQZVHRAGd6B4TmDO'
p919
(dp920
g3
S'Lil Uzi Vert'
p921
sg5
I7
sg6
S'https://open.spotify.com/track/7GX5flRQZVHRAGd6B4TmDO'
p922
sg8
S'XO TOUR Llif3'
p923
ssS'5DH8nF7aWoXXg5Sm3gjCWD'
p924
(dp925
g3
S'Ronghao Li'
p926
sg5
I42
sg6
S'https://open.spotify.com/track/5DH8nF7aWoXXg5Sm3gjCWD'
p927
sg8
S'\xe4\xb8\x8d\xe5\xb0\x87\xe5\xb0\xb1 - \xe9\x9b\xbb\xe5\xbd\xb1\xe3\x80\x8a\xe4\xbd\x95\xe4\xbb\xa5\xe7\xac\x99\xe7\xb0\xab\xe9\xbb\x98\xe3\x80\x8b\xe7\x89\x87\xe5\xb0\xbe\xe6\x9b\xb2'
p928
ssS'0oSNOJEcBIKNcQzRc5TfyR'
p929
(dp930
g3
S'BTS'
p931
sg5
I17
sg6
S'https://open.spotify.com/track/0oSNOJEcBIKNcQzRc5TfyR'
p932
sg8
S'Blood Sweat & Tears'
p933
ssS'4F7A0DXBrmUAkp32uenhZt'
p934
(dp935
g3
S'The Weeknd'
p936
sg5
I2
sg6
S'https://open.spotify.com/track/4F7A0DXBrmUAkp32uenhZt'
p937
sg8
S'Party Monster'
p938
ssS'0JpVgNURWP6VsB9RPiA19W'
p939
(dp940
g3
S'The Freshman'
p941
sg5
I6
sg6
S'https://open.spotify.com/track/0JpVgNURWP6VsB9RPiA19W'
p942
sg8
S'\xe5\x8e\x9f\xe5\x9c\xb0\xe6\x89\x93\xe8\xbd\x89 - \xe9\x9b\xbb\xe8\xa6\x96\xe5\x8a\x87\xe3\x80\x8a\xe5\xa4\xa2\xe6\x83\xb3\xe7\xa8\x8b\xe5\xbc\x8f\xe3\x80\x8b\xe6\x8f\x92\xe6\x9b\xb2'
p943
ssS'5q5gzmbBS5yQzos2BvVr1t'
p944
(dp945
g3
S'M\xc3\x98'
p946
sg5
I12
sg6
S'https://open.spotify.com/track/5q5gzmbBS5yQzos2BvVr1t'
p947
sg8
S'Nights With You'
p948
ssS'3HWDWyIqWuLsTHECx9DvXF'
p949
(dp950
g3
S'Coldplay'
p951
sg5
I2
sg6
S'https://open.spotify.com/track/3HWDWyIqWuLsTHECx9DvXF'
p952
sg8
S'Birds'
p953
ssS'0CokSRCu5hZgPxcZBaEzVE'
p954
(dp955
g3
S'Macklemore'
p956
sg5
I3
sg6
S'https://open.spotify.com/track/0CokSRCu5hZgPxcZBaEzVE'
p957
sg8
S'Glorious (feat. Skylar Grey)'
p958
ssS'4nMlau89VAjmV7agkl7OY3'
p959
(dp960
g3
S'Andy Grammer'
p961
sg5
I9
sg6
S'https://open.spotify.com/track/4nMlau89VAjmV7agkl7OY3'
p962
sg8
S'Fresh Eyes'
p963
ssS'1mgRnm7MhmaMixc5w3huis'
p964
(dp965
g3
S'Mayday'
p966
sg5
I4
sg6
S'https://open.spotify.com/track/1mgRnm7MhmaMixc5w3huis'
p967
sg8
S'\xe6\x88\x91\xe4\xb8\x8d\xe9\xa1\x98\xe8\xae\x93\xe4\xbd\xa0\xe4\xb8\x80\xe5\x80\x8b\xe4\xba\xba'
p968
ssS'7pcTLUekZJQnzDOUDuExVJ'
p969
(dp970
g3
S'DAOKO\xc3\x97\xe7\xb1\xb3\xe6\xb4\xa5\xe7\x8e\x84\xe5\xb8\xab'
p971
sg5
I5
sg6
S'https://open.spotify.com/track/7pcTLUekZJQnzDOUDuExVJ'
p972
sg8
S'\xe6\x89\x93\xe4\xb8\x8a\xe8\x8a\xb1\xe7\x81\xab'
p973
ssS'3aYBjxTMvrEOP0A0UXg9ER'
p974
(dp975
g3
S'Linkin Park'
p976
sg5
I1
sg6
S'https://open.spotify.com/track/3aYBjxTMvrEOP0A0UXg9ER'
p977
sg8
S'Final Masquerade'
p978
ssS'1GlvmsbhciFeavqvFm0n67'
p979
(dp980
g3
S'\xe6\xbd\x98\xe8\xa3\x95\xe6\x96\x87'
p981
sg5
I3
sg6
S'https://open.spotify.com/track/1GlvmsbhciFeavqvFm0n67'
p982
sg8
S'\xe7\xa9\xba\xe6\x83\xb3\xe5\xa4\x9c\xe8\xbb\x8a'
p983
ssS'1sTUEdVO85YU8Ymk2jeAls'
p984
(dp985
g3
S'MiC LOWRY'
p986
sg5
I4
sg6
S'https://open.spotify.com/track/1sTUEdVO85YU8Ymk2jeAls'
p987
sg8
S'Oh Lord'
p988
ssS'7BKLCZ1jbUBVqRi2FVlTVw'
p989
(dp990
g3
S'The Chainsmokers'
p991
sg5
I42
sg6
S'https://open.spotify.com/track/7BKLCZ1jbUBVqRi2FVlTVw'
p992
sg8
S'Closer'
p993
ssS'7hDc8b7IXETo14hHIHdnhd'
p994
(dp995
g3
S'Drake'
p996
sg5
I17
sg6
S'https://open.spotify.com/track/7hDc8b7IXETo14hHIHdnhd'
p997
sg8
S'Passionfruit'
p998
ssS'3RiPr603aXAoi4GHyXx0uy'
p999
(dp1000
g3
S'Coldplay'
p1001
sg5
I17
sg6
S'https://open.spotify.com/track/3RiPr603aXAoi4GHyXx0uy'
p1002
sg8
S'Hymn For The Weekend'
p1003
ssS'7nKQ5WAcjnG48knyLuo8gO'
p1004
(dp1005
g3
S'Red Velvet'
p1006
sg5
I5
sg6
S'https://open.spotify.com/track/7nKQ5WAcjnG48knyLuo8gO'
p1007
sg8
S'\xeb\xb9\xa8\xea\xb0\x84 \xeb\xa7\x9b Red Flavor'
p1008
ssS'3Lfiu5sZ4M4B6JaKMBc0FU'
p1009
(dp1010
g3
S'Ed Sheeran'
p1011
sg5
I3
sg6
S'https://open.spotify.com/track/3Lfiu5sZ4M4B6JaKMBc0FU'
p1012
sg8
S'Barcelona'
p1013
ssS'2LTlO3NuNVN70lp2ZbVswF'
p1014
(dp1015
g3
S'Kendrick Lamar'
p1016
sg5
I1
sg6
S'https://open.spotify.com/track/2LTlO3NuNVN70lp2ZbVswF'
p1017
sg8
S'FEEL.'
p1018
ssS'5ULRlgiSPSKTaJN1vU9yso'
p1019
(dp1020
g3
S'Ed Sheeran'
p1021
sg5
I1
sg6
S'https://open.spotify.com/track/5ULRlgiSPSKTaJN1vU9yso'
p1022
sg8
S'Shape of You - Acoustic'
p1023
ssS'7HBnZdg7fIQwqMhQhci0VV'
p1024
(dp1025
g3
S'Coldplay'
p1026
sg5
I1
sg6
S'https://open.spotify.com/track/7HBnZdg7fIQwqMhQhci0VV'
p1027
sg8
S'Hypnotised - EP Mix'
p1028
ssS'3UdbvqY6xk7CLQEra1dShw'
p1029
(dp1030
g3
S'Ricky Hsiao'
p1031
sg5
I3
sg6
S'https://open.spotify.com/track/3UdbvqY6xk7CLQEra1dShw'
p1032
sg8
S'\xe6\xad\xbb\xe5\xbf\x83\xe4\xba\x86\xe6\xb2\x92\xe6\x9c\x89'
p1033
ssS'3AGNelLUbtwbNnaV2EwDzq'
p1034
(dp1035
g3
S'Yvonne'
p1036
sg5
I2
sg6
S'https://open.spotify.com/track/3AGNelLUbtwbNnaV2EwDzq'
p1037
sg8
S'\xe5\xa4\x9a\xe9\x9b\xa3\xe5\xbe\x97 (\xe9\x9b\xbb\xe8\xa6\x96\xe5\x8a\x87<\xe6\xa4\x8d\xe5\x8a\x87\xe5\xa0\xb4-\xe8\x8d\xbc\xe8\x98\xbc>\xe6\x8f\x92\xe6\x9b\xb2)'
p1038
ssS'5gcA28rUaSsEOM5g7Q5wF5'
p1039
(dp1040
g3
S'Justin Hurwitz'
p1041
sg5
I8
sg6
S'https://open.spotify.com/track/5gcA28rUaSsEOM5g7Q5wF5'
p1042
sg8
S'Planetarium - From La La Land Soundtrack'
p1043
ssS'7tFgdizQuZVtWaX5PmllEa'
p1044
(dp1045
g3
S'\xe7\x8d\x85\xe5\xad\x90\xe5\x90\x88\xe5\x94\xb1\xe5\x9c\x98'
p1046
sg5
I2
sg6
S'https://open.spotify.com/track/7tFgdizQuZVtWaX5PmllEa'
p1047
sg8
S'\xe6\x88\x91\xe5\x80\x91\xe7\x9a\x84\xe6\x84\x9b'
p1048
ssS'0XLOf9LhyazPX9Ld8jPiUq'
p1049
(dp1050
g3
S'Selena Gomez'
p1051
sg5
I12
sg6
S'https://open.spotify.com/track/0XLOf9LhyazPX9Ld8jPiUq'
p1052
sg8
S'Fetish (feat. Gucci Mane)'
p1053
ssS'3MSHoPCIqjUtJXr39RvGIX'
p1054
(dp1055
g3
S'Z.TAO'
p1056
sg5
I2
sg6
S'https://open.spotify.com/track/3MSHoPCIqjUtJXr39RvGIX'
p1057
sg8
S'Promise'
p1058
ssS'0kN8xEmgMW9mh7UmDYHlJP'
p1059
(dp1060
g3
S'Bruno Mars'
p1061
sg5
I14
sg6
S'https://open.spotify.com/track/0kN8xEmgMW9mh7UmDYHlJP'
p1062
sg8
S'Versace On The Floor'
p1063
ssS'1yxgsra98r3qAtxqiGZPiX'
p1064
(dp1065
g3
S'Travis Scott'
p1066
sg5
I9
sg6
S'https://open.spotify.com/track/1yxgsra98r3qAtxqiGZPiX'
p1067
sg8
S'Butterfly Effect'
p1068
ssS'06EMBzxDm2hueehobAlMtm'
p1069
(dp1070
g3
S'IU'
p1071
sg5
I2
sg6
S'https://open.spotify.com/track/06EMBzxDm2hueehobAlMtm'
p1072
sg8
S'Ending Scene'
p1073
ssS'7hP6liTX5TRBFDD5yOD6Is'
p1074
(dp1075
g3
S'\xe6\x80\x9d\xe8\xa1\x9b'
p1076
sg5
I4
sg6
S'https://open.spotify.com/track/7hP6liTX5TRBFDD5yOD6Is'
p1077
sg8
S'\xe5\xb0\x8f\xe5\xb0\x8f\xe7\x9a\x84'
p1078
ssS'0DF6ogOpB1CYZF0PlG7WdR'
p1079
(dp1080
g3
S'Miss Ko'
p1081
sg5
I14
sg6
S'https://open.spotify.com/track/0DF6ogOpB1CYZF0PlG7WdR'
p1082
sg8
S'\xe5\xb0\xb1\xe6\x94\xb9\xe5\xa4\xa9'
p1083
ssS'3xXBsjrbG1xQIm1xv1cKOt'
p1084
(dp1085
g3
S'Linkin Park'
p1086
sg5
I3
sg6
S'https://open.spotify.com/track/3xXBsjrbG1xQIm1xv1cKOt'
p1087
sg8
S'One More Light'
p1088
ssS'3A7qX2QjDlPnazUsRk5y0M'
p1089
(dp1090
g3
S'David Guetta'
p1091
sg5
I17
sg6
S'https://open.spotify.com/track/3A7qX2QjDlPnazUsRk5y0M'
p1092
sg8
S'2U (feat. Justin Bieber)'
p1093
ssS'6A8dnC0xkiuWN4BshmTB2I'
p1094
(dp1095
g3
S'A R I Z O N A'
p1096
sg5
I22
sg6
S'https://open.spotify.com/track/6A8dnC0xkiuWN4BshmTB2I'
p1097
sg8
S'Oceans Away'
p1098
ssS'5xLuSXgzSbFlvsOslGVaI8'
p1099
(dp1100
g3
S'\xe7\x8e\x8b\xe8\x97\x8d\xe8\x8c\xb5'
p1101
sg5
I7
sg6
S'https://open.spotify.com/track/5xLuSXgzSbFlvsOslGVaI8'
p1102
sg8
S'\xe5\xa6\x82\xe6\x9e\x9c\xe7\x9a\x84\xe4\xba\x8b'
p1103
ssS'56lBX2WHqfGuoeZxZvUnVj'
p1104
(dp1105
g3
S'Imagine Dragons'
p1106
sg5
I3
sg6
S'https://open.spotify.com/track/56lBX2WHqfGuoeZxZvUnVj'
p1107
sg8
S'Thunder'
p1108
ssS'0XfOi87h82i09rQjWYG0Bm'
p1109
(dp1110
g3
S'Jax Jones'
p1111
sg5
I3
sg6
S'https://open.spotify.com/track/0XfOi87h82i09rQjWYG0Bm'
p1112
sg8
S'Instruction (feat. Demi Lovato & Stefflon Don)'
p1113
ssS'20eQ3szxVA3Ulq9Mgvu3yM'
p1114
(dp1115
g3
S'Diana Wang'
p1116
sg5
I1
sg6
S'https://open.spotify.com/track/20eQ3szxVA3Ulq9Mgvu3yM'
p1117
sg8
S'\xe6\x84\x9b\xe5\xad\x98\xe5\x9c\xa8'
p1118
ssS'0NiXXAI876aGImAd6rTj8w'
p1119
(dp1120
g3
S'Jonas Blue'
p1121
sg5
I14
sg6
S'https://open.spotify.com/track/0NiXXAI876aGImAd6rTj8w'
p1122
sg8
S'Mama'
p1123
ssS'4IWAyPf1KMq7JCyGeCjTeH'
p1124
(dp1125
g3
S'Imagine Dragons'
p1126
sg5
I7
sg6
S'https://open.spotify.com/track/4IWAyPf1KMq7JCyGeCjTeH'
p1127
sg8
S'Whatever It Takes'
p1128
ssS'1AJQ97yAt6xfeF7nQaE1t8'
p1129
(dp1130
g3
S'Imagine Dragons'
p1131
sg5
I1
sg6
S'https://open.spotify.com/track/1AJQ97yAt6xfeF7nQaE1t8'
p1132
sg8
S'Walking The Wire'
p1133
ssS'5Ui5JmdLq2IJRntC0lAaiN'
p1134
(dp1135
g3
S'Mayday'
p1136
sg5
I2
sg6
S'https://open.spotify.com/track/5Ui5JmdLq2IJRntC0lAaiN'
p1137
sg8
S'\xe6\x98\x9f\xe7\xa9\xba'
p1138
ssS'0ZExP2I5Ej92PsnG4G1jVG'
p1139
(dp1140
g3
S'Julia Michaels'
p1141
sg5
I3
sg6
S'https://open.spotify.com/track/0ZExP2I5Ej92PsnG4G1jVG'
p1142
sg8
S'Uh Huh'
p1143
ssS'3Q3myFA7q4Op95DOpHplaY'
p1144
(dp1145
g3
S'blackbear'
p1146
sg5
I4
sg6
S'https://open.spotify.com/track/3Q3myFA7q4Op95DOpHplaY'
p1147
sg8
S'do re mi'
p1148
ssS'2mjJn3jZaam3Z7qgtKMNrq'
p1149
(dp1150
g3
S'R-chord'
p1151
sg5
I42
sg6
S'https://open.spotify.com/track/2mjJn3jZaam3Z7qgtKMNrq'
p1152
sg8
S'\xe8\xac\x9d\xe8\xac\x9d\xe5\xa6\xb3\xe6\x84\x9b\xe6\x88\x91'
p1153
ssS'0WCEaydwN65cvwaW8aqptF'
p1154
(dp1155
g3
S'Olivia Holt'
p1156
sg5
I22
sg6
S'https://open.spotify.com/track/0WCEaydwN65cvwaW8aqptF'
p1157
sg8
S'History'
p1158
ssS'1VxogbO6bfygdfaCnE9oLb'
p1159
(dp1160
g3
S'Marshmello'
p1161
sg5
I1
sg6
S'https://open.spotify.com/track/1VxogbO6bfygdfaCnE9oLb'
p1162
sg8
S'Chasing Colors (feat. Noah Cyrus)'
p1163
ssS'3FiE2d325mIOc4YjkSLVJR'
p1164
(dp1165
g3
S'Ariana Grande'
p1166
sg5
I6
sg6
S'https://open.spotify.com/track/3FiE2d325mIOc4YjkSLVJR'
p1167
sg8
S'Everyday'
p1168
ssS'2ZHKTpQTRDVmVsZEhBTtFK'
p1169
(dp1170
g3
S'No Party For Cao Dong'
p1171
sg5
I6
sg6
S'https://open.spotify.com/track/2ZHKTpQTRDVmVsZEhBTtFK'
p1172
sg8
S'\xe7\xad\x89'
p1173
ssS'07tsxA3VTCCs35M17sBs88'
p1174
(dp1175
g3
S'Sia'
p1176
sg5
I1
sg6
S'https://open.spotify.com/track/07tsxA3VTCCs35M17sBs88'
p1177
sg8
S'Free Me'
p1178
ssS'1Rt8bwO4rqGvgA1UWM1QXx'
p1179
(dp1180
g3
S'Leanne & Naara'
p1181
sg5
I1
sg6
S'https://open.spotify.com/track/1Rt8bwO4rqGvgA1UWM1QXx'
p1182
sg8
S'New York And Back'
p1183
ssS'2bjwRfXMk4uRgOD9IBYl9h'
p1184
(dp1185
g3
S'Drake'
p1186
sg5
I3
sg6
S'https://open.spotify.com/track/2bjwRfXMk4uRgOD9IBYl9h'
p1187
sg8
S'Portland'
p1188
ssS'0FuTx2s3YH1ppmtiM6l0zI'
p1189
(dp1190
g3
S'JP Cooper'
p1191
sg5
I16
sg6
S'https://open.spotify.com/track/0FuTx2s3YH1ppmtiM6l0zI'
p1192
sg8
S'September Song'
p1193
ssS'1Eaoqo94mLIpAgHhEuReCL'
p1194
(dp1195
g3
S'\xe8\x80\x81\xe9\xac\xbc\xe5\x9c\x98'
p1196
sg5
I2
sg6
S'https://open.spotify.com/track/1Eaoqo94mLIpAgHhEuReCL'
p1197
sg8
S'\xe5\x9c\xa8\xe6\x84\x9b\xe8\xa3\xa1\xe8\x87\xa3\xe6\x9c\x8d'
p1198
ssS'4ZyCH8K17IgWmLwfmItVgc'
p1199
(dp1200
g3
S'Grady Guan'
p1201
sg5
I2
sg6
S'https://open.spotify.com/track/4ZyCH8K17IgWmLwfmItVgc'
p1202
sg8
S'\xe9\xbb\x91\xe7\x99\xbd'
p1203
ssS'5GFDrUTLGJix84sNhjCG0g'
p1204
(dp1205
g3
S'Amin\xc3\xa9'
p1206
sg5
I1
sg6
S'https://open.spotify.com/track/5GFDrUTLGJix84sNhjCG0g'
p1207
sg8
S'Caroline'
p1208
ssS'33B2QbtAj8mbDpwvGTOnBt'
p1209
(dp1210
g3
S'The xx'
p1211
sg5
I1
sg6
S'https://open.spotify.com/track/33B2QbtAj8mbDpwvGTOnBt'
p1212
sg8
S'Dangerous'
p1213
ssS'0azC730Exh71aQlOt9Zj3y'
p1214
(dp1215
g3
S'Calvin Harris'
p1216
sg5
I29
sg6
S'https://open.spotify.com/track/0azC730Exh71aQlOt9Zj3y'
p1217
sg8
S'This Is What You Came For'
p1218
ssS'4mJDfMcT7odIUjWlb2WO4L'
p1219
(dp1220
g3
S'Ed Sheeran'
p1221
sg5
I2
sg6
S'https://open.spotify.com/track/4mJDfMcT7odIUjWlb2WO4L'
p1222
sg8
S'...Baby One More Time - Recorded at Spotify Studios NYC'
p1223
ssS'7i2DJ88J7jQ8K7zqFX2fW8'
p1224
(dp1225
g3
S'Halsey'
p1226
sg5
I14
sg6
S'https://open.spotify.com/track/7i2DJ88J7jQ8K7zqFX2fW8'
p1227
sg8
S'Now Or Never'
p1228
ssS'3qVS40B9udu90K4Bo0Jlnl'
p1229
(dp1230
g3
S'Sticky Rice'
p1231
sg5
I1
sg6
S'https://open.spotify.com/track/3qVS40B9udu90K4Bo0Jlnl'
p1232
sg8
S'\xe5\x88\xa5\xe6\x80\xa5\xe8\x91\x97\xe8\xaa\xaa\xe5\xa6\xb3\xe6\x84\x9b\xe6\x88\x91\xe5\x88\xb0\xe5\xa4\xa9\xe9\x95\xb7\xe5\x9c\xb0\xe4\xb9\x85'
p1233
ssS'7EbpUdQ4nQ5VnnFlZjvqYl'
p1234
(dp1235
g3
S'Linkin Park'
p1236
sg5
I1
sg6
S'https://open.spotify.com/track/7EbpUdQ4nQ5VnnFlZjvqYl'
p1237
sg8
S'New Divide'
p1238
ssS'3gLBLSmqKSMys9kYcEFDbH'
p1239
(dp1240
g3
S'\xe5\xb0\x8f\xe7\x94\xb7\xe5\xad\xa9\xe6\xa8\x82\xe5\x9c\x98'
p1241
sg5
I1
sg6
S'https://open.spotify.com/track/3gLBLSmqKSMys9kYcEFDbH'
p1242
sg8
S'\xe5\xa4\xa9\xe4\xbd\xbf\xe4\xb9\x9f\xe6\x9c\x83\xe5\x8f\x97\xe5\x82\xb7'
p1243
ssS'1krrHDSNdYqSa3gYz6h0jr'
p1244
(dp1245
g3
S'MURMURSHOW'
p1246
sg5
I4
sg6
S'https://open.spotify.com/track/1krrHDSNdYqSa3gYz6h0jr'
p1247
sg8
S'SE-NO'
p1248
ssS'5sNESr6pQfIhL3krM8CtZn'
p1249
(dp1250
g3
S'JAY Z'
p1251
sg5
I1
sg6
S'https://open.spotify.com/track/5sNESr6pQfIhL3krM8CtZn'
p1252
sg8
S'Numb / Encore'
p1253
ssS'68EMU2RD1ECNeOeJ5qAXCV'
p1254
(dp1255
g3
S'Charlie Puth'
p1256
sg5
I42
sg6
S'https://open.spotify.com/track/68EMU2RD1ECNeOeJ5qAXCV'
p1257
sg8
S"We Don't Talk Anymore (feat. Selena Gomez)"
p1258
ssS'0kk2uT5Ff2o9BpWUoRLArr'
p1259
(dp1260
g3
S'No Party For Cao Dong'
p1261
sg5
I3
sg6
S'https://open.spotify.com/track/0kk2uT5Ff2o9BpWUoRLArr'
p1262
sg8
S'\xe6\x88\x91\xe5\x80\x91'
p1263
ssS'3b5Li4QKDVBx1x7fQuu54a'
p1264
(dp1265
g3
S'Alan Walker'
p1266
sg5
I21
sg6
S'https://open.spotify.com/track/3b5Li4QKDVBx1x7fQuu54a'
p1267
sg8
S'Tired'
p1268
ssS'0Clb9aiXWa0dvVff5aN4VN'
p1269
(dp1270
g3
S'Astrid S'
p1271
sg5
I1
sg6
S'https://open.spotify.com/track/0Clb9aiXWa0dvVff5aN4VN'
p1272
sg8
S'Think Before I Talk'
p1273
ssS'6vSwxzO2Qf4BinHSXRwZJe'
p1274
(dp1275
g3
S'Ed Sheeran'
p1276
sg5
I6
sg6
S'https://open.spotify.com/track/6vSwxzO2Qf4BinHSXRwZJe'
p1277
sg8
S'Tenerife Sea'
p1278
ssS'7zShjmnls29Ie3DnrwsGfT'
p1279
(dp1280
g3
S'Mayday'
p1281
sg5
I2
sg6
S'https://open.spotify.com/track/7zShjmnls29Ie3DnrwsGfT'
p1282
sg8
S'\xe4\xbb\xbb\xe6\x84\x8f\xe9\x96\x80'
p1283
ssS'5XiZK7m9PLppgIzJBpw2x5'
p1284
(dp1285
g3
S'Martin Jensen'
p1286
sg5
I4
sg6
S'https://open.spotify.com/track/5XiZK7m9PLppgIzJBpw2x5'
p1287
sg8
S'Wait'
p1288
ssS'6lpWMtQoGqQyEZuyIwhbkO'
p1289
(dp1290
g3
S'Coldplay'
p1291
sg5
I2
sg6
S'https://open.spotify.com/track/6lpWMtQoGqQyEZuyIwhbkO'
p1292
sg8
S'Every Teardrop Is a Waterfall'
p1293
ssS'3DXncPQOG4VBw3QHh3S817'
p1294
(dp1295
g3
S'DJ Khaled'
p1296
sg5
I20
sg6
S'https://open.spotify.com/track/3DXncPQOG4VBw3QHh3S817'
p1297
sg8
S"I'm the One"
p1298
ssS'2two26n0nxOfLDsMbfOZMb'
p1299
(dp1300
g3
S'Jam Hsiao'
p1301
sg5
I3
sg6
S'https://open.spotify.com/track/2two26n0nxOfLDsMbfOZMb'
p1302
sg8
S'\xe6\xb2\xb3 (\xe7\xb6\xb2\xe8\xb7\xaf\xe5\x8a\x87\xe6\xb2\xb3\xe7\xa5\x9e\xe4\xb8\xbb\xe9\xa1\x8c\xe6\x9b\xb2)'
p1303
ssS'3UMjZ9bAT1AnpcWD4aKyP8'
p1304
(dp1305
g3
S'AKDONG MUSICIAN'
p1306
sg5
I5
sg6
S'https://open.spotify.com/track/3UMjZ9bAT1AnpcWD4aKyP8'
p1307
sg8
S'DINOSAUR'
p1308
ssS'4iohEcyDqSrl2OKMkH4vtg'
p1309
(dp1310
g3
S'Eason Chan'
p1311
sg5
I14
sg6
S'https://open.spotify.com/track/4iohEcyDqSrl2OKMkH4vtg'
p1312
sg8
S'\xe5\x85\xa8\xe4\xb8\x96\xe7\x95\x8c\xe5\xa4\xb1\xe7\x9c\xa0'
p1313
ssS'4VuS959DSpr82t3qBqCrWG'
p1314
(dp1315
g3
S'Ed Sheeran'
p1316
sg5
I6
sg6
S'https://open.spotify.com/track/4VuS959DSpr82t3qBqCrWG'
p1317
sg8
S'Supermarket Flowers'
p1318
ssS'2PQjHiMq8j4upwNjv6sVQR'
p1319
(dp1320
g3
S'G.E.M.'
p1321
sg5
I2
sg6
S'https://open.spotify.com/track/2PQjHiMq8j4upwNjv6sVQR'
p1322
sg8
S'\xe5\xbf\x83\xe4\xb9\x8b\xe7\x84\xb0'
p1323
ssS'0CZt1VGIieJgj2wv3mWSUn'
p1324
(dp1325
g3
S'Joey Yung'
p1326
sg5
I1
sg6
S'https://open.spotify.com/track/0CZt1VGIieJgj2wv3mWSUn'
p1327
sg8
S'\xe7\xac\xac\xe4\xb8\x80\xe7\x99\xbe\xe5\x80\x8b\xe6\x88\x91'
p1328
ssS'2Za1AlJNvksouPPWbXpR2X'
p1329
(dp1330
g3
S'Macklemore'
p1331
sg5
I3
sg6
S'https://open.spotify.com/track/2Za1AlJNvksouPPWbXpR2X'
p1332
sg8
S'Good Old Days (feat. Kesha)'
p1333
ssS'0e1tfuK9btbDxK0bCBd5Md'
p1334
(dp1335
g3
S'\xe5\xbc\xb5\xe5\x82\x91'
p1336
sg5
I8
sg6
S'https://open.spotify.com/track/0e1tfuK9btbDxK0bCBd5Md'
p1337
sg8
S'\xe9\x87\x8d\xe6\x92\xad'
p1338
ssS'1WOmEg42Mgaz1nRimIMR9C'
p1339
(dp1340
g3
S'Justin Hurwitz'
p1341
sg5
I8
sg6
S'https://open.spotify.com/track/1WOmEg42Mgaz1nRimIMR9C'
p1342
sg8
S'Epilogue - From La La Land Soundtrack'
p1343
ssS'5XTePlyEtcOY5oRdJHNagB'
p1344
(dp1345
g3
S'Frande'
p1346
sg5
I2
sg6
S'https://open.spotify.com/track/5XTePlyEtcOY5oRdJHNagB'
p1347
sg8
S'\xe5\xa4\x9a\xe6\x83\xb3\xe5\xb0\x87\xe4\xb8\x80\xe5\x88\x87\xe5\x81\x9a\xe5\xbe\x97\xe5\xae\x8c\xe7\xbe\x8e (\xe9\x9b\xbb\xe8\xa6\x96\xe5\x8a\x87\xe3\x80\x8a\xe4\xbb\x96\xe5\x80\x91\xe5\x9c\xa8\xe7\x95\xa2\xe6\xa5\xad\xe7\x9a\x84\xe5\x89\x8d\xe4\xb8\x80\xe5\xa4\xa9\xe7\x88\x86\xe7\x82\xb8 \xe4\xba\x8c\xe9\x83\xa8\xe6\x9b\xb2\xe3\x80\x8b\xe6\x8f\x92\xe6\x9b\xb2)'
p1348
ssS'3labnWeZNbNUqxWSMLQaZr'
p1349
(dp1350
g3
S'\xe6\xb1\xaa\xe7\x9d\xbf'
p1351
sg5
I2
sg6
S'https://open.spotify.com/track/3labnWeZNbNUqxWSMLQaZr'
p1352
sg8
S'\xe5\xa5\xb9\xe7\x9a\x84\xe6\x95\x85\xe4\xba\x8b'
p1353
ssS'0Zx8khUcEfCFK2AEoIhC92'
p1354
(dp1355
g3
S'Snakehips'
p1356
sg5
I19
sg6
S'https://open.spotify.com/track/0Zx8khUcEfCFK2AEoIhC92'
p1357
sg8
S"Don't Leave"
p1358
ssS'15dnkAHcHC0vrIUlbiPiqU'
p1359
(dp1360
g3
S'Imagine Dragons'
p1361
sg5
I1
sg6
S'https://open.spotify.com/track/15dnkAHcHC0vrIUlbiPiqU'
p1362
sg8
S'I Don\xe2\x80\x99t Know Why'
p1363
ssS'4dQnrCOotjslEw8WZRG8Jc'
p1364
(dp1365
g3
S'G.E.M.'
p1366
sg5
I1
sg6
S'https://open.spotify.com/track/4dQnrCOotjslEw8WZRG8Jc'
p1367
sg8
S'\xe6\xad\xbb\xe4\xba\x86\xe9\x83\xbd\xe8\xa6\x81.\xe6\x84\x9b'
p1368
ssS'1crSsvtU9wZB15dIQXV2QH'
p1369
(dp1370
g3
S'John Mayer'
p1371
sg5
I1
sg6
S'https://open.spotify.com/track/1crSsvtU9wZB15dIQXV2QH'
p1372
sg8
S'Moving On and Getting Over'
p1373
ssS'095rDYLjAHYmis3vU8gRxo'
p1374
(dp1375
g3
S'Sons of People'
p1376
sg5
I3
sg6
S'https://open.spotify.com/track/095rDYLjAHYmis3vU8gRxo'
p1377
sg8
S'NEVER'
p1378
ssS'2XoRjxwu96Ey0XwBGR3d1A'
p1379
(dp1380
g3
S'\xe9\x98\xbf\xe9\x81\x94'
p1381
sg5
I5
sg6
S'https://open.spotify.com/track/2XoRjxwu96Ey0XwBGR3d1A'
p1382
sg8
S'\xe6\x88\x91\xe8\xaa\xaa\xe5\xaf\xb6\xe8\xb2\x9d'
p1383
ssS'1r1fPuhj9H4VdXr7OK6FL5'
p1384
(dp1385
g3
S'Linkin Park'
p1386
sg5
I1
sg6
S'https://open.spotify.com/track/1r1fPuhj9H4VdXr7OK6FL5'
p1387
sg8
S'CASTLE OF GLASS'
p1388
ssS'5pvVAwQbuFoR7LkcicrKnk'
p1389
(dp1390
g3
S'Vice'
p1391
sg5
I7
sg6
S'https://open.spotify.com/track/5pvVAwQbuFoR7LkcicrKnk'
p1392
sg8
S'Obsession (feat. Jon Bellion)'
p1393
ssS'3CDcr9ogSecLIwourcz760'
p1394
(dp1395
g3
S'Guo Ding'
p1396
sg5
I6
sg6
S'https://open.spotify.com/track/3CDcr9ogSecLIwourcz760'
p1397
sg8
S'\xe6\xb0\xb4\xe6\x98\x9f\xe8\xa8\x98'
p1398
ssS'3BbfgC1wM6x5TRYgAVZYi0'
p1399
(dp1400
g3
S'TWICE'
p1401
sg5
I4
sg6
S'https://open.spotify.com/track/3BbfgC1wM6x5TRYgAVZYi0'
p1402
sg8
S'SIGNAL'
p1403
ssS'0NeNAcCVtGqLAAmf4FhWWT'
p1404
(dp1405
g3
S'BLACKPINK'
p1406
sg5
I12
sg6
S'https://open.spotify.com/track/0NeNAcCVtGqLAAmf4FhWWT'
p1407
sg8
S'BOOMBAYAH'
p1408
ssS'0SE7gSflAhE1a5HEs5Hk9R'
p1409
(dp1410
g3
S'The Knocks'
p1411
sg5
I1
sg6
S'https://open.spotify.com/track/0SE7gSflAhE1a5HEs5Hk9R'
p1412
sg8
S'TROUBLE (feat. Absofacto)'
p1413
ssS'61WbtB6ujkpNAsAf5LjF4b'
p1414
(dp1415
g3
S'Katy Perry'
p1416
sg5
I5
sg6
S'https://open.spotify.com/track/61WbtB6ujkpNAsAf5LjF4b'
p1417
sg8
S'Bon app\xc3\xa9tit'
p1418
ssS'1rAywAtbOxHszio4OTwYPf'
p1419
(dp1420
g3
S'Tia Lee'
p1421
sg5
I42
sg6
S'https://open.spotify.com/track/1rAywAtbOxHszio4OTwYPf'
p1422
sg8
S'\xe6\x98\xaf\xe6\x88\x91\xe4\xb8\x8d\xe5\xa4\xa0\xe5\xa5\xbd'
p1423
ssS'0YHUITU3w6ws1v8ehT264g'
p1424
(dp1425
g3
S'Little Mix'
p1426
sg5
I3
sg6
S'https://open.spotify.com/track/0YHUITU3w6ws1v8ehT264g'
p1427
sg8
S'Shout Out to My Ex'
p1428
ssS'2TmALSxWNkmpqPSDf8JJ3X'
p1429
(dp1430
g3
S'Mayday'
p1431
sg5
I16
sg6
S'https://open.spotify.com/track/2TmALSxWNkmpqPSDf8JJ3X'
p1432
sg8
S'\xe5\xa6\x82\xe6\x9e\x9c\xe6\x88\x91\xe5\x80\x91\xe4\xb8\x8d\xe6\x9b\xbe\xe7\x9b\xb8\xe9\x81\x87'
p1433
ssS'0vpN7maQX6FCaKaVJc8134'
p1434
(dp1435
g3
S'Xiao Yu'
p1436
sg5
I1
sg6
S'https://open.spotify.com/track/0vpN7maQX6FCaKaVJc8134'
p1437
sg8
S'\xe7\x90\x86\xe6\x83\xb3\xe6\x99\x82\xe4\xbb\xa3'
p1438
ssS'4NpBcvyasl1y3t6PSLRots'
p1439
(dp1440
g3
S'G.E.M.'
p1441
sg5
I1
sg6
S'https://open.spotify.com/track/4NpBcvyasl1y3t6PSLRots'
p1442
sg8
S'\xe5\xbf\x83\xe4\xb9\x8b\xe7\x84\xb0 (\xe9\x9b\xbb\xe8\xa6\x96\xe5\x8a\x87\xe3\x80\x8a\xe6\xa5\x9a\xe5\x96\xac\xe5\x82\xb3\xe3\x80\x8b\xe7\x89\x87\xe5\xb0\xbe\xe6\x9b\xb2)'
p1443
ssS'1xEOoCGmv8rotFDo7n8GAg'
p1444
(dp1445
g3
S'Hardwell'
p1446
sg5
I1
sg6
S'https://open.spotify.com/track/1xEOoCGmv8rotFDo7n8GAg'
p1447
sg8
S'Power'
p1448
ssS'6qt0IWS8y6yGR6gNTEmQzj'
p1449
(dp1450
g3
S'Coldplay'
p1451
sg5
I1
sg6
S'https://open.spotify.com/track/6qt0IWS8y6yGR6gNTEmQzj'
p1452
sg8
S'Viva La Vida - Live From Spotify London'
p1453
ssS'2XlHu0HcujBCkWMdIAvrqt'
p1454
(dp1455
g3
S'Drake'
p1456
sg5
I4
sg6
S'https://open.spotify.com/track/2XlHu0HcujBCkWMdIAvrqt'
p1457
sg8
S'Blem'
p1458
ssS'11dFghVXANMlKmJXsNCbNl'
p1459
(dp1460
g3
S'Carly Rae Jepsen'
p1461
sg5
I1
sg6
S'https://open.spotify.com/track/11dFghVXANMlKmJXsNCbNl'
p1462
sg8
S'Cut To The Feeling'
p1463
ssS'5I5oyzEMqhKtR7sbNplPXK'
p1464
(dp1465
g3
S'Mayday'
p1466
sg5
I1
sg6
S'https://open.spotify.com/track/5I5oyzEMqhKtR7sbNplPXK'
p1467
sg8
S'\xe5\xbf\x97\xe6\x98\x8e\xe8\x88\x87\xe6\x98\xa5\xe5\xac\x8c'
p1468
ssS'4JAyIDXOqNM6qHuZML01uX'
p1469
(dp1470
g3
g367
sg5
I1
sg6
S'https://open.spotify.com/track/4JAyIDXOqNM6qHuZML01uX'
p1471
sg8
g367
ssS'0KI0Fa8pmbAHzANilW4Tc0'
p1472
(dp1473
g3
S'Fish Leong'
p1474
sg5
I1
sg6
S'https://open.spotify.com/track/0KI0Fa8pmbAHzANilW4Tc0'
p1475
sg8
S'\xe5\x85\xa9\xe9\x9b\xa3'
p1476
ssS'2Sru5y6R0mYhV9nEHMDWJ7'
p1477
(dp1478
g3
S'Linkin Park'
p1479
sg5
I1
sg6
S'https://open.spotify.com/track/2Sru5y6R0mYhV9nEHMDWJ7'
p1480
sg8
S'Given Up'
p1481
ssS'5kZDxLcbqglZ2yYXg4Mkjc'
p1482
(dp1483
g3
S'JJ Lin'
p1484
sg5
I3
sg6
S'https://open.spotify.com/track/5kZDxLcbqglZ2yYXg4Mkjc'
p1485
sg8
S'\xe9\x82\xa3\xe4\xba\x9b\xe4\xbd\xa0\xe5\xbe\x88\xe5\x86\x92\xe9\x9a\xaa\xe7\x9a\x84\xe5\xa4\xa2'
p1486
ssS'2hX6HlfJeQFc39T5WI99Kw'
p1487
(dp1488
g3
S'Kim Kyunghee'
p1489
sg5
I5
sg6
S'https://open.spotify.com/track/2hX6HlfJeQFc39T5WI99Kw'
p1490
sg8
S"And I'm here"
p1491
ssS'65hX0qx1k4oXuSNkHnzALD'
p1492
(dp1493
g3
S'Diana Wang'
p1494
sg5
I2
sg6
S'https://open.spotify.com/track/65hX0qx1k4oXuSNkHnzALD'
p1495
sg8
S'\xe4\xb8\x80\xe6\xad\xa5\xe6\x88\x90\xe8\xa9\xa9'
p1496
ssS'5hYTyyh2odQKphUbMqc5gN'
p1497
(dp1498
g3
S'Alessia Cara'
p1499
sg5
I28
sg6
S'https://open.spotify.com/track/5hYTyyh2odQKphUbMqc5gN'
p1500
sg8
S"How Far I'll Go - From Moana"
p1501
ssS'1u8c2t2Cy7UBoG4ArRcF5g'
p1502
(dp1503
g3
S'Taylor Swift'
p1504
sg5
I6
sg6
S'https://open.spotify.com/track/1u8c2t2Cy7UBoG4ArRcF5g'
p1505
sg8
S'Blank Space'
p1506
ssS'3w79AoO52OguIQFNsX2K8H'
p1507
(dp1508
g3
S'G.E.M.'
p1509
sg5
I8
sg6
S'https://open.spotify.com/track/3w79AoO52OguIQFNsX2K8H'
p1510
sg8
S'\xe5\xa4\x9c\xe7\xa9\xba\xe4\xb8\xad\xe6\x9c\x80\xe4\xba\xae\xe7\x9a\x84\xe6\x98\x9f'
p1511
ssS'72jbDTw1piOOj770jWNeaG'
p1512
(dp1513
g3
S'The Chainsmokers'
p1514
sg5
I39
sg6
S'https://open.spotify.com/track/72jbDTw1piOOj770jWNeaG'
p1515
sg8
S'Paris'
p1516
ssS'742YV8T9ZyczCNdrTIAhaw'
p1517
(dp1518
g3
S'Miley Cyrus'
p1519
sg5
I1
sg6
S'https://open.spotify.com/track/742YV8T9ZyczCNdrTIAhaw'
p1520
sg8
S"Thinkin'"
p1521
ssS'0xG0SHshCStMEyNbNC5d4k'
p1522
(dp1523
g3
S'Julia Michaels'
p1524
sg5
I9
sg6
S'https://open.spotify.com/track/0xG0SHshCStMEyNbNC5d4k'
p1525
sg8
S'Issues'
p1526
ssS'4I39irD0xSyfRA099AsWow'
p1527
(dp1528
g3
S'Demi Lovato'
p1529
sg5
I1
sg6
S'https://open.spotify.com/track/4I39irD0xSyfRA099AsWow'
p1530
sg8
S"You Don't Do It For Me Anymore"
p1531
ssS'60IkVf7UfQXmt5CwkpcX8a'
p1532
(dp1533
g3
S'Linkin Park'
p1534
sg5
I1
sg6
S'https://open.spotify.com/track/60IkVf7UfQXmt5CwkpcX8a'
p1535
sg8
S'From The Inside'
p1536
ssS'6OocN63GLU7NF0wHdewhID'
p1537
(dp1538
g3
S'Linkin Park'
p1539
sg5
I3
sg6
S'https://open.spotify.com/track/6OocN63GLU7NF0wHdewhID'
p1540
sg8
S'Invisible'
p1541
ssS'46QANYYBeO2YJ0czgz622L'
p1542
(dp1543
g3
S'LaLa Hsu'
p1544
sg5
I15
sg6
S'https://open.spotify.com/track/46QANYYBeO2YJ0czgz622L'
p1545
sg8
S'\xe6\x9c\x80\xe5\x88\x9d\xe7\x9a\x84\xe8\xa8\x98\xe6\x86\xb6(\xe3\x80\x8a\xe5\xa4\x8f\xe8\x87\xb3\xe6\x9c\xaa\xe8\x87\xb3\xe3\x80\x8b\xe9\x9b\xbb\xe8\xa6\x96\xe5\x8a\x87\xe7\x89\x87\xe5\xb0\xbe\xe6\x9b\xb2)'
p1546
ssS'6FemVsNUb2lzWsDRm14FUJ'
p1547
(dp1548
g3
S'The Script'
p1549
sg5
I1
sg6
S'https://open.spotify.com/track/6FemVsNUb2lzWsDRm14FUJ'
p1550
sg8
S'Rain'
p1551
ssS'79JhCxQZaGOF8742mNMQry'
p1552
(dp1553
g3
S'Cheer Chen'
p1554
sg5
I1
sg6
S'https://open.spotify.com/track/79JhCxQZaGOF8742mNMQry'
p1555
sg8
S'\xe6\xb5\x81\xe6\xb5\xaa\xe8\x80\x85\xe4\xb9\x8b\xe6\xad\x8c'
p1556
ssS'5abwHwUhywLGNli5NDcEN7'
p1557
(dp1558
g3
S'Thomas Gold'
p1559
sg5
I5
sg6
S'https://open.spotify.com/track/5abwHwUhywLGNli5NDcEN7'
p1560
sg8
S'Magic'
p1561
ssS'43ogAyFAzG58KW7rhWeGQE'
p1562
(dp1563
g3
S'Jung joonil'
p1564
sg5
I6
sg6
S'https://open.spotify.com/track/43ogAyFAzG58KW7rhWeGQE'
p1565
sg8
S'The first snow'
p1566
ssS'04qqfjPWDqrg9q3HTToCfZ'
p1567
(dp1568
g3
S'Urban Zakapa'
p1569
sg5
I7
sg6
S'https://open.spotify.com/track/04qqfjPWDqrg9q3HTToCfZ'
p1570
sg8
S'Wish'
p1571
ssS'2OWKDTonST8HNko3dBlPPp'
p1572
(dp1573
g3
S'Dua Lipa'
p1574
sg5
I1
sg6
S'https://open.spotify.com/track/2OWKDTonST8HNko3dBlPPp'
p1575
sg8
S'Lost In Your Light (feat. Miguel)'
p1576
ssS'12o6dxWGk29uIAP3OWY0pM'
p1577
(dp1578
g3
S'Lorde'
p1579
sg5
I5
sg6
S'https://open.spotify.com/track/12o6dxWGk29uIAP3OWY0pM'
p1580
sg8
S'Homemade Dynamite'
p1581
ssS'5vRonmmNccsHrSQKwCfZMX'
p1582
(dp1583
g3
S'Mayday'
p1584
sg5
I1
sg6
S'https://open.spotify.com/track/5vRonmmNccsHrSQKwCfZMX'
p1585
sg8
S'Do You Ever Shine?'
p1586
ssS'20hsdn8oITBsuWNLhzr5eh'
p1587
(dp1588
g3
S'Martin Garrix'
p1589
sg5
I4
sg6
S'https://open.spotify.com/track/20hsdn8oITBsuWNLhzr5eh'
p1590
sg8
S'Byte'
p1591
ssS'0qepAQsUGIzofBj82iP17C'
p1592
(dp1593
g3
S'Mayday'
p1594
sg5
I42
sg6
S'https://open.spotify.com/track/0qepAQsUGIzofBj82iP17C'
p1595
sg8
S'\xe5\xbe\x8c\xe4\xbe\x86\xe7\x9a\x84\xe6\x88\x91\xe5\x80\x91'
p1596
ssS'7vqXbR8XwHRPjFXi6A5Ycf'
p1597
(dp1598
g3
S'Joker Xue'
p1599
sg5
I2
sg6
S'https://open.spotify.com/track/7vqXbR8XwHRPjFXi6A5Ycf'
p1600
sg8
S'\xe9\xab\x98\xe5\xb0\x9a'
p1601
ssS'3CE1HoJJ0FVKo7JHsWIuvC'
p1602
(dp1603
g3
S'JC'
p1604
sg5
I2
sg6
S'https://open.spotify.com/track/3CE1HoJJ0FVKo7JHsWIuvC'
p1605
sg8
S'\xe8\xaa\xaa\xe6\x95\xa3\xe5\xb0\xb1\xe6\x95\xa3'
p1606
ssS'7iV733e1KacKrFRaBNxVEf'
p1607
(dp1608
g3
S'BTS'
p1609
sg5
I4
sg6
S'https://open.spotify.com/track/7iV733e1KacKrFRaBNxVEf'
p1610
sg8
S'Intro: Serendipity'
p1611
ssS'75ZvA4QfFiZvzhj2xkaWAh'
p1612
(dp1613
g3
S'Post Malone'
p1614
sg5
I1
sg6
S'https://open.spotify.com/track/75ZvA4QfFiZvzhj2xkaWAh'
p1615
sg8
S'I Fall Apart'
p1616
ssS'0C1CV89LkoHB4DGYFzbtKB'
p1617
(dp1618
g3
S'Miu Chu'
p1619
sg5
I1
sg6
S'https://open.spotify.com/track/0C1CV89LkoHB4DGYFzbtKB'
p1620
sg8
S'\xe5\x8f\x8d\xe5\xb0\x8d\xe7\x9c\xbc\xe6\xb7\x9a'
p1621
ssS'3eLWL2OpQfag3blgCwRRXc'
p1622
(dp1623
g3
S'Yisa Yu'
p1624
sg5
I6
sg6
S'https://open.spotify.com/track/3eLWL2OpQfag3blgCwRRXc'
p1625
sg8
S'\xe5\xb0\x8f\xe5\xb0\x8f\xe5\xa4\xa9\xe6\xb6\xaf - \xe9\x9b\xbb\xe8\xa6\x96\xe5\x8a\x87\xe4\xb8\x8a\xe5\x8f\xa4\xe6\x83\x85\xe6\xad\x8c\xe6\x8f\x92\xe6\x9b\xb2'
p1626
ssS'77lGafvlU68CeHgB2pkHC9'
p1627
(dp1628
g3
S'Machine Gun Kelly'
p1629
sg5
I10
sg6
S'https://open.spotify.com/track/77lGafvlU68CeHgB2pkHC9'
p1630
sg8
S'At My Best (feat. Hailee Steinfeld)'
p1631
ssS'0dA2Mk56wEzDgegdC6R17g'
p1632
(dp1633
g3
S'Zedd'
p1634
sg5
I33
sg6
S'https://open.spotify.com/track/0dA2Mk56wEzDgegdC6R17g'
p1635
sg8
S'Stay (with Alessia Cara)'
p1636
ssS'3kGfazcbVvVkuZunzlLgTD'
p1637
(dp1638
g3
S'Sigala'
p1639
sg5
I5
sg6
S'https://open.spotify.com/track/3kGfazcbVvVkuZunzlLgTD'
p1640
sg8
S'Came Here for Love'
p1641
ssS'7esGqAgxS2hDJGQUad7kyD'
p1642
(dp1643
g3
S'Princess Ai'
p1644
sg5
I1
sg6
S'https://open.spotify.com/track/7esGqAgxS2hDJGQUad7kyD'
p1645
sg8
S'\xe6\x87\xa6\xe5\xbc\xb1(\xe4\xb8\x89\xe7\xab\x8b\xe5\x81\xb6\xe5\x83\x8f\xe5\x8a\x87\xe3\x80\x8c\xe5\x99\x97\xe9\x80\x9a\xe5\x99\x97\xe9\x80\x9a\xe6\x88\x91\xe6\x84\x9b\xe4\xbd\xa0\xe3\x80\x8d\xe6\x8f\x92\xe6\x9b\xb2) - Insert Song of Memory Love'
p1646
ssS'2kLf4myxQME1Nd0voeKZri'
p1647
(dp1648
g3
S'Mike Perry'
p1649
sg5
I2
sg6
S'https://open.spotify.com/track/2kLf4myxQME1Nd0voeKZri'
p1650
sg8
S'Stay Young'
p1651
ssS'2nJDePK69THatYkjkjQFE8'
p1652
(dp1653
g3
S'Eddy Kim'
p1654
sg5
I10
sg6
S'https://open.spotify.com/track/2nJDePK69THatYkjkjQFE8'
p1655
sg8
S'You are so beautiful'
p1656
ssS'3Ytr1SUCUi6J3L9dRFx5iH'
p1657
(dp1658
g3
S'Major Lazer'
p1659
sg5
I13
sg6
S'https://open.spotify.com/track/3Ytr1SUCUi6J3L9dRFx5iH'
p1660
sg8
S'Know No Better (feat. Quavo)'
p1661
ssS'1sl5tSzfK1JrcQIcA8rYDy'
p1662
(dp1663
g3
S'Grey'
p1664
sg5
I5
sg6
S'https://open.spotify.com/track/1sl5tSzfK1JrcQIcA8rYDy'
p1665
sg8
S'I Miss You'
p1666
ssS'4QVdnpSO5JGMFOEl6ys4RQ'
p1667
(dp1668
g3
S'Coldplay'
p1669
sg5
I1
sg6
S'https://open.spotify.com/track/4QVdnpSO5JGMFOEl6ys4RQ'
p1670
sg8
S'Christmas Lights - Live From Spotify London'
p1671
ssS'0c9TWvHZN95AjN4RCDNzxa'
p1672
(dp1673
g3
S'David Tao'
p1674
sg5
I3
sg6
S'https://open.spotify.com/track/0c9TWvHZN95AjN4RCDNzxa'
p1675
sg8
S'\xe9\xbb\x91\xe8\x89\xb2\xe6\x98\x9f\xe6\x9c\x9f\xe4\xba\x8c'
p1676
ssS'1OmcAT5Y8eg5bUPv9qJT4R'
p1677
(dp1678
g3
S'Post Malone'
p1679
sg5
I3
sg6
S'https://open.spotify.com/track/1OmcAT5Y8eg5bUPv9qJT4R'
p1680
sg8
S'rockstar'
p1681
ssS'2I3Upoe0x739KTkCnVHg5u'
p1682
(dp1683
g3
S'A-Lin'
p1684
sg5
I1
sg6
S'https://open.spotify.com/track/2I3Upoe0x739KTkCnVHg5u'
p1685
sg8
S'\xe7\x84\xa1\xe4\xba\xba\xe7\x9f\xa5\xe6\x9b\x89\xe7\x9a\x84\xe6\x88\x91'
p1686
ssS'2X2PpBmMlVnpLJOeurbLyp'
p1687
(dp1688
g3
S'Della'
p1689
sg5
I18
sg6
S'https://open.spotify.com/track/2X2PpBmMlVnpLJOeurbLyp'
p1690
sg8
S'\xe7\x8c\x9c\xe4\xb8\x8d\xe9\x80\x8f'
p1691
ssS'7nZmah2llfvLDiUjm0kiyz'
p1692
(dp1693
g3
S'Justin Bieber'
p1694
sg5
I8
sg6
S'https://open.spotify.com/track/7nZmah2llfvLDiUjm0kiyz'
p1695
sg8
S'Friends (with BloodPop\xc2\xae)'
p1696
ssS'6mzF8HvHdVrzJNd8M1uFCS'
p1697
(dp1698
g3
S'Crush'
p1699
sg5
I33
sg6
S'https://open.spotify.com/track/6mzF8HvHdVrzJNd8M1uFCS'
p1700
sg8
S'Beautiful'
p1701
ssS'3eFJqPe8VUYrABbFjSauuj'
p1702
(dp1703
g3
g367
sg5
I1
sg6
S'https://open.spotify.com/track/3eFJqPe8VUYrABbFjSauuj'
p1704
sg8
g367
ssS'7111V95U0ISPaNqVYVNZXu'
p1705
(dp1706
g3
S'Elva Hsiao'
p1707
sg5
I5
sg6
S'https://open.spotify.com/track/7111V95U0ISPaNqVYVNZXu'
p1708
sg8
S'\xe6\x98\x8e\xe5\xa4\xa9\xe7\x9a\x84\xe7\xa7\x98\xe5\xaf\x86 - \xe9\x9b\xbb\xe5\xbd\xb1\xe5\xbf\x83\xe7\x90\x86\xe7\xbd\xaa\xe6\x8e\xa8\xe5\xbb\xa3\xe6\x9b\xb2'
p1709
ssS'6D0b04NJIKfEMg040WioJQ'
p1710
(dp1711
g3
S'Julia Michaels'
p1712
sg5
I2
sg6
S'https://open.spotify.com/track/6D0b04NJIKfEMg040WioJQ'
p1713
sg8
S'Issues'
p1714
ssS'2VYJYUdhYEBHNwfblw8S7g'
p1715
(dp1716
g3
S'Della'
p1717
sg5
I10
sg6
S'https://open.spotify.com/track/2VYJYUdhYEBHNwfblw8S7g'
p1718
sg8
S'\xe5\xbe\x88\xe6\x84\x9b\xe9\x81\x8e\xe4\xb8\x80\xe5\x80\x8b\xe4\xba\xba'
p1719
ssS'06jplse4tO3svbp9oK9usS'
p1720
(dp1721
g3
S'Various Artists'
p1722
sg5
I3
sg6
S'https://open.spotify.com/track/06jplse4tO3svbp9oK9usS'
p1723
sg8
S'\xe6\x93\x81\xe6\x8a\xb1\xe4\xb8\x96\xe7\x95\x8c\xe6\x93\x81\xe6\x8a\xb1\xe4\xbd\xa0 - 2017\xe8\x87\xba\xe5\x8c\x97\xe4\xb8\x96\xe7\x95\x8c\xe5\xa4\xa7\xe5\xad\xb8\xe9\x81\x8b\xe5\x8b\x95\xe6\x9c\x83\xe4\xb8\xbb\xe9\xa1\x8c\xe6\x9b\xb2'
p1724
ssS'6GK9UX5iAjALpVRgtjR3MV'
p1725
(dp1726
g3
S'Kim Kyunghee'
p1727
sg5
I3
sg6
S'https://open.spotify.com/track/6GK9UX5iAjALpVRgtjR3MV'
p1728
sg8
S'Stuck In Love'
p1729
ssS'7of1slAJIWrXxP8ikAHxje'
p1730
(dp1731
g3
S'James Hersey'
p1732
sg5
I2
sg6
S'https://open.spotify.com/track/7of1slAJIWrXxP8ikAHxje'
p1733
sg8
S'Miss You'
p1734
ssS'5VaLhE67iBHeuPKbyGS2wk'
p1735
(dp1736
g3
S'Mike Perry'
p1737
sg5
I2
sg6
S'https://open.spotify.com/track/5VaLhE67iBHeuPKbyGS2wk'
p1738
sg8
S'Hands'
p1739
ssS'3Ymp3t5GmFrYglSpUSJyMM'
p1740
(dp1741
g3
S'Christopher'
p1742
sg5
I1
sg6
S'https://open.spotify.com/track/3Ymp3t5GmFrYglSpUSJyMM'
p1743
sg8
S'Naked'
p1744
ssS'0wJJhRgdHhT93Z3iWdMB0T'
p1745
(dp1746
g3
S'Kesha'
p1747
sg5
I1
sg6
S'https://open.spotify.com/track/0wJJhRgdHhT93Z3iWdMB0T'
p1748
sg8
S'Hymn'
p1749
ssS'2dfHh7ECGxfNqZTQno09Vk'
p1750
(dp1751
g3
S'Ed Sheeran'
p1752
sg5
I3
sg6
S'https://open.spotify.com/track/2dfHh7ECGxfNqZTQno09Vk'
p1753
sg8
S"Hearts Don't Break Around Here"
p1754
ssS'6n8TMVyFKoUmDc4apxceRD'
p1755
(dp1756
g3
S'Linkin Park'
p1757
sg5
I1
sg6
S'https://open.spotify.com/track/6n8TMVyFKoUmDc4apxceRD'
p1758
sg8
S'Breaking The Habit'
p1759
ssS'0DIdPrpYPicSxI3CwwSY8l'
p1760
(dp1761
g3
S'Mayday'
p1762
sg5
I1
sg6
S'https://open.spotify.com/track/0DIdPrpYPicSxI3CwwSY8l'
p1763
sg8
S'\xe8\xbb\x8b\xe8\xbb\x8a'
p1764
ssS'0D8ZpOXVjapLXrjz5VfZSD'
p1765
(dp1766
g3
S'Sam Smith'
p1767
sg5
I1
sg6
S'https://open.spotify.com/track/0D8ZpOXVjapLXrjz5VfZSD'
p1768
sg8
S'Pray'
p1769
ssS'7zyYmIdjqqiX6kLryb7QBx'
p1770
(dp1771
g3
S'Eric Chou'
p1772
sg5
I42
sg6
S'https://open.spotify.com/track/7zyYmIdjqqiX6kLryb7QBx'
p1773
sg8
S'\xe4\xbb\xa5\xe5\xbe\x8c\xe5\x88\xa5\xe5\x81\x9a\xe6\x9c\x8b\xe5\x8f\x8b'
p1774
ssS'70HWRkitkAKfos500LBk0T'
p1775
(dp1776
g3
S'Passenger'
p1777
sg5
I1
sg6
S'https://open.spotify.com/track/70HWRkitkAKfos500LBk0T'
p1778
sg8
S'Simple Song'
p1779
ssS'307X9VIIfhkCPq2AIEasmF'
p1780
(dp1781
g3
S'Joi Chua'
p1782
sg5
I4
sg6
S'https://open.spotify.com/track/307X9VIIfhkCPq2AIEasmF'
p1783
sg8
S'\xe6\x88\x91\xe6\x98\xaf\xe6\x88\x91'
p1784
ssS'3iVX6XiS0J31HIbZIzeF4R'
p1785
(dp1786
g3
S'G-DRAGON'
p1787
sg5
I1
sg6
S'https://open.spotify.com/track/3iVX6XiS0J31HIbZIzeF4R'
p1788
sg8
S'\xea\xb0\x9c\xec\x86\x8c\xeb\xa6\xac (BULLSHIT)'
p1789
ssS'3YgN5vmpnC7yVArRH4c2Y4'
p1790
(dp1791
g3
S'Sandee Chan'
p1792
sg5
I2
sg6
S'https://open.spotify.com/track/3YgN5vmpnC7yVArRH4c2Y4'
p1793
sg8
S'\xe6\x88\xb0\xe7\xa5\x9e\xe5\x8d\xa1\xe7\x88\xbe\xe8\xbf\xaa\xe4\xba\x9e'
p1794
ssS'5tz69p7tJuGPeMGwNTxYuV'
p1795
(dp1796
g3
S'Logic'
p1797
sg5
I20
sg6
S'https://open.spotify.com/track/5tz69p7tJuGPeMGwNTxYuV'
p1798
sg8
S'1-800-273-8255'
p1799
ssS'5fc6rQgAKiLutfUYWQ6QnJ'
p1800
(dp1801
g3
S'Sia'
p1802
sg5
I3
sg6
S'https://open.spotify.com/track/5fc6rQgAKiLutfUYWQ6QnJ'
p1803
sg8
S'Helium - From Fifty Shades Darker (Original Motion Picture Soundtrack)'
p1804
ssS'0ffweDHrg4bZqdG4IfGYuo'
p1805
(dp1806
g3
S'BTS'
p1807
sg5
I4
sg6
S'https://open.spotify.com/track/0ffweDHrg4bZqdG4IfGYuo'
p1808
sg8
S'Pied Piper'
p1809
ssS'1lfN1s93w3G8BYgTHZ5tFX'
p1810
(dp1811
g3
S'Yuzi Qin'
p1812
sg5
I1
sg6
S'https://open.spotify.com/track/1lfN1s93w3G8BYgTHZ5tFX'
p1813
sg8
S'LUNA'
p1814
ssS'6m5MnZVYfXmbWydM72WxsO'
p1815
(dp1816
g3
S'Andy Lau'
p1817
sg5
I1
sg6
S'https://open.spotify.com/track/6m5MnZVYfXmbWydM72WxsO'
p1818
sg8
S'\xe6\x85\xa2\xe6\x85\xa2\xe7\xbf\x92\xe6\x85\xa3 - \xe9\x9b\xbb\xe5\xbd\xb1 : \xe6\x8b\x86\xe5\xbd\x88\xe5\xb0\x88\xe5\xae\xb6 \xe4\xb8\xbb\xe9\xa1\x8c\xe6\x9b\xb2'
p1819
ssS'343YBumqHu19cGoGARUTsd'
p1820
(dp1821
g3
S'Drake'
p1822
sg5
I12
sg6
S'https://open.spotify.com/track/343YBumqHu19cGoGARUTsd'
p1823
sg8
S'Fake Love'
p1824
ssS'5HDPtsnyb3maFmPL8LLUTG'
p1825
(dp1826
g3
S'Ed Sheeran'
p1827
sg5
I9
sg6
S'https://open.spotify.com/track/5HDPtsnyb3maFmPL8LLUTG'
p1828
sg8
S'New Man'
p1829
ssS'2d6CzpeXeRUmtxKvhDBlK9'
p1830
(dp1831
g3
S'A Si'
p1832
sg5
I1
sg6
S'https://open.spotify.com/track/2d6CzpeXeRUmtxKvhDBlK9'
p1833
sg8
S'\xe8\x87\xb4\xe5\xa7\x8d\xe5\xa7\x8d\xe4\xbe\x86\xe9\x81\xb2\xe7\x9a\x84\xe4\xbd\xa0'
p1834
ssS'6V9kwssTrwkKT72imgowj9'
p1835
(dp1836
g3
S'The Chainsmokers'
p1837
sg5
I2
sg6
S'https://open.spotify.com/track/6V9kwssTrwkKT72imgowj9'
p1838
sg8
S'My Type'
p1839
ssS'0FMjqbY3aWo1QDbo3GwXib'
p1840
(dp1841
g3
S'Coldplay'
p1842
sg5
I1
sg6
S'https://open.spotify.com/track/0FMjqbY3aWo1QDbo3GwXib'
p1843
sg8
S'Always In My Head'
p1844
ssS'3nodtPfXcok53E8Uze8gvD'
p1845
(dp1846
g3
S'Snakehips'
p1847
sg5
I1
sg6
S'https://open.spotify.com/track/3nodtPfXcok53E8Uze8gvD'
p1848
sg8
S'Either Way'
p1849
ssS'6WbADFqMvR8N5u0BvtsWQE'
p1850
(dp1851
g3
S'Avicii'
p1852
sg5
I9
sg6
S'https://open.spotify.com/track/6WbADFqMvR8N5u0BvtsWQE'
p1853
sg8
S'Without You (feat. Sandro Cavazza)'
p1854
ssS'75JFxkI2RXiU7L9VXzMkle'
p1855
(dp1856
g3
S'Coldplay'
p1857
sg5
I30
sg6
S'https://open.spotify.com/track/75JFxkI2RXiU7L9VXzMkle'
p1858
sg8
S'The Scientist'
p1859
ssS'3m660poUr1chesgkkjQM7P'
p1860
(dp1861
g3
S'Demi Lovato'
p1862
sg5
I2
sg6
S'https://open.spotify.com/track/3m660poUr1chesgkkjQM7P'
p1863
sg8
S'Sorry Not Sorry'
p1864
ssS'4pdPtRcBmOSQDlJ3Fk945m'
p1865
(dp1866
g3
S'DJ Snake'
p1867
sg5
I40
sg6
S'https://open.spotify.com/track/4pdPtRcBmOSQDlJ3Fk945m'
p1868
sg8
S'Let Me Love You'
p1869
ssS'6yy47KowRmtNobnEq3DKRi'
p1870
(dp1871
g3
S'Maggie Chiang'
p1872
sg5
I6
sg6
S'https://open.spotify.com/track/6yy47KowRmtNobnEq3DKRi'
p1873
sg8
S'\xe8\xa6\xaa\xe6\x84\x9b\xe7\x9a\x84\xe4\xb8\x96\xe7\x95\x8c(\xe4\xb8\x89\xe7\xab\x8b\xe5\x81\xb6\xe5\x83\x8f\xe5\x8a\x87\xe3\x80\x8c\xe5\x99\x97\xe9\x80\x9a\xe5\x99\x97\xe9\x80\x9a\xe6\x88\x91\xe6\x84\x9b\xe4\xbd\xa0\xe3\x80\x8d\xe6\x8f\x92\xe6\x9b\xb2) - Insert Song of Memory Love'
p1874
ssS'3M6DkD5SjZ140lf7V6OxPz'
p1875
(dp1876
g3
S'Mayday'
p1877
sg5
I11
sg6
S'https://open.spotify.com/track/3M6DkD5SjZ140lf7V6OxPz'
p1878
sg8
S'\xe5\x87\xa1\xe4\xba\xba\xe6\xad\x8c'
p1879
ssS'5EnYT6F7wEcdege6mDHEfO'
p1880
(dp1881
g3
S'Drake'
p1882
sg5
I5
sg6
S'https://open.spotify.com/track/5EnYT6F7wEcdege6mDHEfO'
p1883
sg8
S'Signs'
p1884
ssS'1uoL9GX45dTnmrWQ7Ii1Ft'
p1885
(dp1886
g3
S'Halsey'
p1887
sg5
I3
sg6
S'https://open.spotify.com/track/1uoL9GX45dTnmrWQ7Ii1Ft'
p1888
sg8
S'Not Afraid Anymore'
p1889
ssS'1OAiWI2oPmglaOiv9fdioU'
p1890
(dp1891
g3
S'Coldplay'
p1892
sg5
I15
sg6
S'https://open.spotify.com/track/1OAiWI2oPmglaOiv9fdioU'
p1893
sg8
S'Hymn For The Weekend - Seeb Remix'
p1894
ssS'6Ll3qUTssdGWMxbwhMud2N'
p1895
(dp1896
g3
S'Nick Jonas'
p1897
sg5
I2
sg6
S'https://open.spotify.com/track/6Ll3qUTssdGWMxbwhMud2N'
p1898
sg8
S'Find You'
p1899
ssS'2krFxcsxN36nU4iR50gP5r'
p1900
(dp1901
g3
S'\xe7\xb0\xa1\xe5\xbc\x98\xe4\xba\xa6'
p1902
sg5
I2
sg6
S'https://open.spotify.com/track/2krFxcsxN36nU4iR50gP5r'
p1903
sg8
S'\xe7\xbe\xa4\xe5\xb1\x85\xe5\x8b\x95\xe7\x89\xa9'
p1904
ssS'7LEydI5NfjY6mZfKwYIptZ'
p1905
(dp1906
g3
S'Fifth Harmony'
p1907
sg5
I12
sg6
S'https://open.spotify.com/track/7LEydI5NfjY6mZfKwYIptZ'
p1908
sg8
S'Down'
p1909
ssS'7y9iMe8SOB6z3NoHE2OfXl'
p1910
(dp1911
g3
S'Halsey'
p1912
sg5
I7
sg6
S'https://open.spotify.com/track/7y9iMe8SOB6z3NoHE2OfXl'
p1913
sg8
S'Bad At Love'
p1914
ssS'4KJGMU6McN1cfnMoL2SdmD'
p1915
(dp1916
g3
S'BOXING\xe6\xa8\x82\xe5\x9c\x98'
p1917
sg5
I2
sg6
S'https://open.spotify.com/track/4KJGMU6McN1cfnMoL2SdmD'
p1918
sg8
S'\xe6\x88\x91\xe6\x83\xb3\xe5\xb8\xb6\xe5\xa6\xb3\xe5\x9b\x9e\xe5\xae\xb6'
p1919
ssS'0oZT2aKB40fzyHzqcXE3H3'
p1920
(dp1921
g3
S'BIGBANG'
p1922
sg5
I1
sg6
S'https://open.spotify.com/track/0oZT2aKB40fzyHzqcXE3H3'
p1923
sg8
S"Let's not fall in love - KR ver."
p1924
ssS'07G5C1wAil4Mp1qjbd3eTR'
p1925
(dp1926
g3
S'Miley Cyrus'
p1927
sg5
I1
sg6
S'https://open.spotify.com/track/07G5C1wAil4Mp1qjbd3eTR'
p1928
sg8
S'Week Without You'
p1929
ssS'4QK2UTlsQDP5EZPRK9t43J'
p1930
(dp1931
g3
S'Waa Wei'
p1932
sg5
I8
sg6
S'https://open.spotify.com/track/4QK2UTlsQDP5EZPRK9t43J'
p1933
sg8
S'\xe4\xb8\x80\xe8\x90\xac\xe5\x80\x8b\xe4\xb8\x8d\xe5\x9b\x9e\xe9\xa0\xad\xe7\x9a\x84\xe6\x96\xb9\xe6\xb3\x95'
p1934
ssS'2YlZnw2ikdb837oKMKjBkW'
p1935
(dp1936
g3
S'Meghan Trainor'
p1937
sg5
I1
sg6
S'https://open.spotify.com/track/2YlZnw2ikdb837oKMKjBkW'
p1938
sg8
S"Like I'm Gonna Lose You"
p1939
ssS'0xniQzb5VGD0xibLVlXFbM'
p1940
(dp1941
g3
S'Starr Chen'
p1942
sg5
I4
sg6
S'https://open.spotify.com/track/0xniQzb5VGD0xibLVlXFbM'
p1943
sg8
S'EGO-HOLIC\xe6\x88\x80\xe6\x88\x91\xe7\x99\x96'
p1944
ssS'2jYmK1cb3Uya6FFsocdpzO'
p1945
(dp1946
g3
S'Sabrina Carpenter'
p1947
sg5
I10
sg6
S'https://open.spotify.com/track/2jYmK1cb3Uya6FFsocdpzO'
p1948
sg8
S'Why'
p1949
ssS'1X2AFMit08KSjE1QLVOzxm'
p1950
(dp1951
g3
S'Tien Fu Chen'
p1952
sg5
I1
sg6
S'https://open.spotify.com/track/1X2AFMit08KSjE1QLVOzxm'
p1953
sg8
S'Beauty and the Beast - From Beauty and the Beast'
p1954
ssS'5X6TnKT37TaSDkFm0598Uo'
p1955
(dp1956
g3
S'Ed Sheeran'
p1957
sg5
I1
sg6
S'https://open.spotify.com/track/5X6TnKT37TaSDkFm0598Uo'
p1958
sg8
S'Castle on the Hill - Acoustic'
p1959
ssS'2jyjhRf6DVbMPU5zxagN2h'
p1960
(dp1961
g3
S'Passenger'
p1962
sg5
I4
sg6
S'https://open.spotify.com/track/2jyjhRf6DVbMPU5zxagN2h'
p1963
sg8
S'Let Her Go'
p1964
ssS'18NukpshPdoIf16kJIgiXn'
p1965
(dp1966
g3
S'Namewee'
p1967
sg5
I4
sg6
S'https://open.spotify.com/track/18NukpshPdoIf16kJIgiXn'
p1968
sg8
S'\xe5\x95\xaa\xe5\x95\xaa\xe5\x95\xaa'
p1969
ssS'7oLXIyY1ZUexU0zcr39Xj0'
p1970
(dp1971
g3
S'SISTAR'
p1972
sg5
I5
sg6
S'https://open.spotify.com/track/7oLXIyY1ZUexU0zcr39Xj0'
p1973
sg8
S'LONELY'
p1974
ssS'5vIvh4Doo68f0cUhdSfeiX'
p1975
(dp1976
g3
S'\xe8\x97\x8d\xe5\x8f\x88\xe6\x99\x82'
p1977
sg5
I1
sg6
S'https://open.spotify.com/track/5vIvh4Doo68f0cUhdSfeiX'
p1978
sg8
S'\xe5\xa4\xaa\xe5\x82\xbb\xe4\xba\x86'
p1979
ssS'2NZahxngwFLh73G9JnIqOj'
p1980
(dp1981
g3
S'Diana Wang'
p1982
sg5
I13
sg6
S'https://open.spotify.com/track/2NZahxngwFLh73G9JnIqOj'
p1983
sg8
S'Home'
p1984
ssS'0FVPOqIivjXR49CyJZAw7g'
p1985
(dp1986
g3
S'BIGBANG'
p1987
sg5
I1
sg6
S'https://open.spotify.com/track/0FVPOqIivjXR49CyJZAw7g'
p1988
sg8
S'IF YOU - KR ver.'
p1989
ssS'79cuOz3SPQTuFrp8WgftAu'
p1990
(dp1991
g3
S'Shawn Mendes'
p1992
sg5
I25
sg6
S'https://open.spotify.com/track/79cuOz3SPQTuFrp8WgftAu'
p1993
sg8
S"There's Nothing Holdin' Me Back"
p1994
ssS'4c2W3VKsOFoIg2SFaO6DY5'
p1995
(dp1996
g3
S'Rita Ora'
p1997
sg5
I20
sg6
S'https://open.spotify.com/track/4c2W3VKsOFoIg2SFaO6DY5'
p1998
sg8
S'Your Song'
p1999
ssS'0R8P9KfGJCDULmlEoBagcO'
p2000
(dp2001
g3
S'Coldplay'
p2002
sg5
I1
sg6
S'https://open.spotify.com/track/0R8P9KfGJCDULmlEoBagcO'
p2003
sg8
S'Trouble'
p2004
ssS'4pkUru7mlNlEP5B5urUbGL'
p2005
(dp2006
g3
S'Julia Peng'
p2007
sg5
I42
sg6
S'https://open.spotify.com/track/4pkUru7mlNlEP5B5urUbGL'
p2008
sg8
S'\xe5\xa4\xa7\xe9\xbd\xa1\xe5\xa5\xb3\xe5\xad\x90'
p2009
ssS'56pQAIABH8Y8L9qAXrL9sg'
p2010
(dp2011
g3
S'Waa Wei'
p2012
sg5
I13
sg6
S'https://open.spotify.com/track/56pQAIABH8Y8L9qAXrL9sg'
p2013
sg8
S'\xe6\x98\x9f\xe6\x9c\x9f\xe4\xb8\x89\xe6\x88\x96\xe7\xa6\xae\xe6\x8b\x9c\xe4\xb8\x89'
p2014
ssS'4112T3lOi4mSSzOIi5BDwZ'
p2015
(dp2016
g3
S'Yisa Yu'
p2017
sg5
I4
sg6
S'https://open.spotify.com/track/4112T3lOi4mSSzOIi5BDwZ'
p2018
sg8
S'\xe8\x90\xbd\xe5\x9c\xa8\xe8\x83\xb8\xe5\x8f\xa3\xe7\x9a\x84\xe6\x98\x9f\xe6\x98\x9f - \xe9\x9b\xbb\xe5\xbd\xb1\xe7\xbe\x8e\xe5\xae\xb9\xe9\x87\x9d\xe4\xb8\xbb\xe9\xa1\x8c\xe6\x9b\xb2'
p2019
ssS'51PYzHOuwTngW2whaPoYFW'
p2020
(dp2021
g3
S'Rainie Yang'
p2022
sg5
I42
sg6
S'https://open.spotify.com/track/51PYzHOuwTngW2whaPoYFW'
p2023
sg8
S'\xe5\xb9\xb4\xe8\xbc\xaa\xe8\xaa\xaa'
p2024
ssS'3UjJP4ludb74a29P5EHEIo'
p2025
(dp2026
g3
S'Sabrina Carpenter'
p2027
sg5
I4
sg6
S'https://open.spotify.com/track/3UjJP4ludb74a29P5EHEIo'
p2028
sg8
S'Thumbs'
p2029
ssS'1HYzRuWjmS9LXCkdVHi25K'
p2030
(dp2031
g3
S'Chanyeol'
p2032
sg5
I42
sg6
S'https://open.spotify.com/track/1HYzRuWjmS9LXCkdVHi25K'
p2033
sg8
S'Stay With Me'
p2034
ssS'3eR23VReFzcdmS7TYCrhCe'
p2035
(dp2036
g3
S'Kygo'
p2037
sg5
I33
sg6
S'https://open.spotify.com/track/3eR23VReFzcdmS7TYCrhCe'
p2038
sg8
S"It Ain't Me (with Selena Gomez)"
p2039
ssS'2eAZfqOm4EnOF9VvN50Tyc'
p2040
(dp2041
g3
S'Lil Uzi Vert'
p2042
sg5
I2
sg6
S'https://open.spotify.com/track/2eAZfqOm4EnOF9VvN50Tyc'
p2043
sg8
S'The Way Life Goes'
p2044
ssS'44trZ7w2tZhI56keenaT42'
p2045
(dp2046
g3
S'G-DRAGON'
p2047
sg5
I1
sg6
S'https://open.spotify.com/track/44trZ7w2tZhI56keenaT42'
p2048
sg8
S'BULLSHIT - KR Ver.'
p2049
ssS'0zMzyHAeMvwq5CRstru1Fp'
p2050
(dp2051
g3
S'Ruth B.'
p2052
sg5
I2
sg6
S'https://open.spotify.com/track/0zMzyHAeMvwq5CRstru1Fp'
p2053
sg8
S'Lost Boy'
p2054
ssS'12mGwph2YzDIlChtq3EdXP'
p2055
(dp2056
g3
S'Marshmello'
p2057
sg5
I7
sg6
S'https://open.spotify.com/track/12mGwph2YzDIlChtq3EdXP'
p2058
sg8
S'Alone'
p2059
ssS'699uMotXwFxdweHgLX2sJj'
p2060
(dp2061
g3
S'David Tao'
p2062
sg5
I1
sg6
S'https://open.spotify.com/track/699uMotXwFxdweHgLX2sJj'
p2063
sg8
S'Run Away'
p2064
ssS'6iu311jZAJFLPgoIWgrA72'
p2065
(dp2066
g3
S'BIGBANG'
p2067
sg5
I19
sg6
S'https://open.spotify.com/track/6iu311jZAJFLPgoIWgrA72'
p2068
sg8
S'BANG BANG BANG - KR ver.'
p2069
ssS'24PhZrRiALtUXgdwXkEwGt'
p2070
(dp2071
g3
S'NCT DREAM'
p2072
sg5
I1
sg6
S'https://open.spotify.com/track/24PhZrRiALtUXgdwXkEwGt'
p2073
sg8
S'\xeb\xa7\x88\xec\xa7\x80\xeb\xa7\x89 \xec\xb2\xab\xec\x82\xac\xeb\x9e\x91 My First and Last'
p2074
ssS'02LZ1fGJE8fB56yTlCVMEV'
p2075
(dp2076
g3
S'Iggy Azalea'
p2077
sg5
I1
sg6
S'https://open.spotify.com/track/02LZ1fGJE8fB56yTlCVMEV'
p2078
sg8
S'Switch'
p2079
ssS'5LXj9Ch3O9ATm1NoHT8GXn'
p2080
(dp2081
g3
S'Coldplay'
p2082
sg5
I4
sg6
S'https://open.spotify.com/track/5LXj9Ch3O9ATm1NoHT8GXn'
p2083
sg8
S'Hypnotised'
p2084
ssS'2nChvM2Tyv1ib8AvfCJcOe'
p2085
(dp2086
g3
S'NCT DREAM'
p2087
sg5
I1
sg6
S'https://open.spotify.com/track/2nChvM2Tyv1ib8AvfCJcOe'
p2088
sg8
S'We Young'
p2089
ssS'3hKbA5OnjR4wBxwmpjte8h'
p2090
(dp2091
g3
S'Tanya Chua'
p2092
sg5
I1
sg6
S'https://open.spotify.com/track/3hKbA5OnjR4wBxwmpjte8h'
p2093
sg8
S'\xe9\x99\x8c\xe7\x94\x9f\xe4\xba\xba'
p2094
ssS'5bZtRlMBU76vHuDOb1GM5u'
p2095
(dp2096
g3
S'Jonas Blue'
p2097
sg5
I1
sg6
S'https://open.spotify.com/track/5bZtRlMBU76vHuDOb1GM5u'
p2098
sg8
S'Perfect Strangers'
p2099
ssS'5hVaRXaXgpN9lNK61oyz2I'
p2100
(dp2101
g3
S'Eve Ai'
p2102
sg5
I42
sg6
S'https://open.spotify.com/track/5hVaRXaXgpN9lNK61oyz2I'
p2103
sg8
S'\xe5\xaf\x82\xe5\xaf\x9e\xe7\x84\xa1\xe5\xae\xb3(\xe5\x85\xab\xe5\xa4\xa7\xe9\x9f\x93\xe5\x8a\x87\xe2\x80\x9d\xe6\x8b\x9c\xe8\xa8\x97\xe4\xba\x86\xe5\xaa\xbd\xe5\xaa\xbd\xe2\x80\x9d\xe7\x89\x87\xe9\xa0\xad\xe6\x9b\xb2) - GTV Korean Series All about My Mom Opening Theme Song'
p2104
ssS'0Zbbxnx4SGGHoIow4PpISP'
p2105
(dp2106
g3
S'Kygo'
p2107
sg5
I3
sg6
S'https://open.spotify.com/track/0Zbbxnx4SGGHoIow4PpISP'
p2108
sg8
S'Stargazing'
p2109
ssS'1KT0xdIjm7t053xByACrrg'
p2110
(dp2111
g3
S'Ariana Grande'
p2112
sg5
I11
sg6
S'https://open.spotify.com/track/1KT0xdIjm7t053xByACrrg'
p2113
sg8
S'\xe7\xbe\x8e\xe5\xa5\xb3\xe3\x81\xa8\xe9\x87\x8e\xe7\x8d\xa3'
p2114
ssS'3hfN1wQSiLPa6b1RX5Kfbj'
p2115
(dp2116
g3
S'BLACKPINK'
p2117
sg5
I14
sg6
S'https://open.spotify.com/track/3hfN1wQSiLPa6b1RX5Kfbj'
p2118
sg8
S'WHISTLE'
p2119
ssS'7bG281gDAuvLUMRgmDgybX'
p2120
(dp2121
g3
S'A-do'
p2122
sg5
I7
sg6
S'https://open.spotify.com/track/7bG281gDAuvLUMRgmDgybX'
p2123
sg8
S'\xe7\x88\x9b\xe5\xa5\xbd\xe4\xba\xba'
p2124
ssS'0JiVRyTJcJnmlwCZ854K4p'
p2125
(dp2126
g3
S'Alan Walker'
p2127
sg5
I37
sg6
S'https://open.spotify.com/track/0JiVRyTJcJnmlwCZ854K4p'
p2128
sg8
S'Alone'
p2129
ssS'5EzitieoPnjyKHAq0gfRMa'
p2130
(dp2131
g3
S'EXO'
p2132
sg5
I5
sg6
S'https://open.spotify.com/track/5EzitieoPnjyKHAq0gfRMa'
p2133
sg8
S'Ko Ko Bop'
p2134
ssS'4lTZXnLKcAPU3h5NW17SYL'
p2135
(dp2136
g3
S'Eason Chan'
p2137
sg5
I7
sg6
S'https://open.spotify.com/track/4lTZXnLKcAPU3h5NW17SYL'
p2138
sg8
S'\xe6\x8a\xab\xe9\xa2\xa8'
p2139
ssS'6GeD5g9vZTz25Egf8kxoIY'
p2140
(dp2141
g3
S'The Chainsmokers'
p2142
sg5
I2
sg6
S'https://open.spotify.com/track/6GeD5g9vZTz25Egf8kxoIY'
p2143
sg8
S'Last Day Alive'
p2144
ssS'4IXp6p615ndlGMsKM7AJ82'
p2145
(dp2146
g3
S'A-Lin'
p2147
sg5
I6
sg6
S'https://open.spotify.com/track/4IXp6p615ndlGMsKM7AJ82'
p2148
sg8
S'\xe4\xbd\xa0\xe9\xbb\x9e\xe7\x9a\x84\xe6\xad\x8c\xe6\x95\x91\xe4\xba\x86\xe6\x88\x91 (\xe4\xb8\x89\xe7\xab\x8b\xe5\x81\xb6\xe5\x83\x8f\xe5\x8a\x87\xe3\x80\x8c\xe5\x99\x97\xe9\x80\x9a\xe5\x99\x97\xe9\x80\x9a\xe6\x88\x91\xe6\x84\x9b\xe4\xbd\xa0\xe3\x80\x8d\xe7\x89\x87\xe9\xa0\xad\xe6\x9b\xb2) - Opening theme of Memory Love'
p2149
ssS'1ZqHjApl3pfzwjweTfMi0g'
p2150
(dp2151
g3
S'Coldplay'
p2152
sg5
I1
sg6
S'https://open.spotify.com/track/1ZqHjApl3pfzwjweTfMi0g'
p2153
sg8
S'Violet Hill'
p2154
ssS'2lDWYLNnfYyXngjz4plpy2'
p2155
(dp2156
g3
S'Emma Stone'
p2157
sg5
I8
sg6
S'https://open.spotify.com/track/2lDWYLNnfYyXngjz4plpy2'
p2158
sg8
S'Audition (The Fools Who Dream) - From La La Land Soundtrack'
p2159
ssS'2mfUa8bLs2s5N4VaqJZ4lZ'
p2160
(dp2161
g3
S'Hailee Steinfeld'
p2162
sg5
I24
sg6
S'https://open.spotify.com/track/2mfUa8bLs2s5N4VaqJZ4lZ'
p2163
sg8
S'Most Girls'
p2164
ssS'7BpYWzZwrsljT1eIjb0TqR'
p2165
(dp2166
g3
S'Paramore'
p2167
sg5
I1
sg6
S'https://open.spotify.com/track/7BpYWzZwrsljT1eIjb0TqR'
p2168
sg8
S'Told You So'
p2169
ssS'4aWmUDTfIPGksMNLV2rQP2'
p2170
(dp2171
g3
S'Luis Fonsi'
p2172
sg5
I38
sg6
S'https://open.spotify.com/track/4aWmUDTfIPGksMNLV2rQP2'
p2173
sg8
S'Despacito (Featuring Daddy Yankee)'
p2174
ssS'0JddqUycMUJv6IoOzwUCVG'
p2175
(dp2176
g3
S'Rainie Yang'
p2177
sg5
I3
sg6
S'https://open.spotify.com/track/0JddqUycMUJv6IoOzwUCVG'
p2178
sg8
S'\xe9\x9d\x92\xe6\x98\xa5\xe4\xbd\x8f\xe4\xba\x86\xe8\xaa\xb0'
p2179
ssS'35QZaWQRkmnAVqBF1TLCxQ'
p2180
(dp2181
g3
S'Ed Sheeran'
p2182
sg5
I3
sg6
S'https://open.spotify.com/track/35QZaWQRkmnAVqBF1TLCxQ'
p2183
sg8
S'Nancy Mulligan'
p2184
ssS'60APt5N2NRaKWf5xzJdzyC'
p2185
(dp2186
g3
S'Calvin Harris'
p2187
sg5
I7
sg6
S'https://open.spotify.com/track/60APt5N2NRaKWf5xzJdzyC'
p2188
sg8
S'Heatstroke'
p2189
ssS'25C5CowdsfXld2jJanbiex'
p2190
(dp2191
g3
S'Demi Lovato'
p2192
sg5
I11
sg6
S'https://open.spotify.com/track/25C5CowdsfXld2jJanbiex'
p2193
sg8
S'Sorry Not Sorry'
p2194
ssS'6IcrwGdIvRsrImOnoYfG9Z'
p2195
(dp2196
g3
S'Wiz Khalifa'
p2197
sg5
I2
sg6
S'https://open.spotify.com/track/6IcrwGdIvRsrImOnoYfG9Z'
p2198
sg8
S'See You Again (feat. Charlie Puth) - From Furious 7'
p2199
ssS'1ejtHfSXQwvaAU7F82FXww'
p2200
(dp2201
g3
S'Adam Levine'
p2202
sg5
I13
sg6
S'https://open.spotify.com/track/1ejtHfSXQwvaAU7F82FXww'
p2203
sg8
S'Lost Stars'
p2204
ssS'1Quf5Hv5j6az3QavlmZiQG'
p2205
(dp2206
g3
S'Sia'
p2207
sg5
I3
sg6
S'https://open.spotify.com/track/1Quf5Hv5j6az3QavlmZiQG'
p2208
sg8
S'To Be Human'
p2209
ssS'7m9OqQk4RVRkw9JJdeAw96'
p2210
(dp2211
g3
S'XXXTENTACION'
p2212
sg5
I6
sg6
S'https://open.spotify.com/track/7m9OqQk4RVRkw9JJdeAw96'
p2213
sg8
S'Jocelyn Flores'
p2214
ssS'42x1FFg2gEpeUqepJM5UlM'
p2215
(dp2216
g3
S'Wanting'
p2217
sg5
I1
sg6
S'https://open.spotify.com/track/42x1FFg2gEpeUqepJM5UlM'
p2218
sg8
S'Moon And Back - JordanXL Remix'
p2219
ssS'0AUxbbqFtXJGE7Fn3jkGX5'
p2220
(dp2221
g3
S'TAEYEON'
p2222
sg5
I1
sg6
S'https://open.spotify.com/track/0AUxbbqFtXJGE7Fn3jkGX5'
p2223
sg8
S'Make Me Love You'
p2224
ssS'52okn5MNA47tk87PeZJLEL'
p2225
(dp2226
g3
S'NF'
p2227
sg5
I1
sg6
S'https://open.spotify.com/track/52okn5MNA47tk87PeZJLEL'
p2228
sg8
S'Let You Down'
p2229
ssS'0Q2bGwvx3oECbpe3W5yyBv'
p2230
(dp2231
g3
S'The Gregory Brothers'
p2232
sg5
I2
sg6
S'https://open.spotify.com/track/0Q2bGwvx3oECbpe3W5yyBv'
p2233
sg8
S'Chicken Attack'
p2234
ssS'27gUeiai56GKF6TxvmPJut'
p2235
(dp2236
g3
S'Linkin Park'
p2237
sg5
I1
sg6
S'https://open.spotify.com/track/27gUeiai56GKF6TxvmPJut'
p2238
sg8
S"Don't Stay"
p2239
ssS'5SleX0NFeODNY7Xenal3gr'
p2240
(dp2241
g3
S'Zara Larsson'
p2242
sg5
I1
sg6
S'https://open.spotify.com/track/5SleX0NFeODNY7Xenal3gr'
p2243
sg8
S'Only You'
p2244
ssS'6JV2JOEocMgcZxYSZelKcc'
p2245
(dp2246
g3
S'Justin Timberlake'
p2247
sg5
I15
sg6
S'https://open.spotify.com/track/6JV2JOEocMgcZxYSZelKcc'
p2248
sg8
S"CAN'T STOP THE FEELING! (Original Song from DreamWorks Animation's TROLLS)"
p2249
ssS'05KOgYg8PGeJyyWBPi5ja8'
p2250
(dp2251
g3
S'Drake'
p2252
sg5
I2
sg6
S'https://open.spotify.com/track/05KOgYg8PGeJyyWBPi5ja8'
p2253
sg8
S'Free Smoke'
p2254
ssS'6De0lHrwBfPfrhorm9q1Xl'
p2255
(dp2256
g3
S'Danny Ocean'
p2257
sg5
I12
sg6
S'https://open.spotify.com/track/6De0lHrwBfPfrhorm9q1Xl'
p2258
sg8
S'Me Reh\xc3\xbaso'
p2259
ssS'02DknGLIwU3L0USTonqYS1'
p2260
(dp2261
g3
S'Xiao Yu'
p2262
sg5
I5
sg6
S'https://open.spotify.com/track/02DknGLIwU3L0USTonqYS1'
p2263
sg8
S'\xe6\x85\xa3\xe6\x80\xa7\xe5\x8f\x96\xe6\x9a\x96'
p2264
ssS'75PnQLzg8YI5S4tlCGOjDA'
p2265
(dp2266
g3
S'G.E.M.'
p2267
sg5
I4
sg6
S'https://open.spotify.com/track/75PnQLzg8YI5S4tlCGOjDA'
p2268
sg8
S'\xe6\xa1\x83\xe8\x8a\xb1\xe8\xab\xbe - \xe4\xb8\x8a\xe5\x8f\xa4\xe6\x83\x85\xe6\xad\x8c\xe7\x89\x87\xe5\xb0\xbe\xe6\x9b\xb2'
p2269
ssS'7aV2mflaASUmGhCErm7kBO'
p2270
(dp2271
g3
S'Nevada'
p2272
sg5
I3
sg6
S'https://open.spotify.com/track/7aV2mflaASUmGhCErm7kBO'
p2273
sg8
S'The Mack'
p2274
ssS'1WusZnjJkInB0jmrrcGs2B'
p2275
(dp2276
g3
S'Sodagreen'
p2277
sg5
I1
sg6
S'https://open.spotify.com/track/1WusZnjJkInB0jmrrcGs2B'
p2278
sg8
S'\xe6\x88\x91\xe8\xb3\xb4\xe4\xbd\xa0'
p2279
ssS'20H2Hd5AkUcRjB4yL3UQtJ'
p2280
(dp2281
g3
S'Fifth Harmony'
p2282
sg5
I3
sg6
S'https://open.spotify.com/track/20H2Hd5AkUcRjB4yL3UQtJ'
p2283
sg8
S'Down'
p2284
ssS'6cwSbxCqAwBNbCqaLMZgbT'
p2285
(dp2286
g3
S'BIGBANG'
p2287
sg5
I1
sg6
S'https://open.spotify.com/track/6cwSbxCqAwBNbCqaLMZgbT'
p2288
sg8
S'LOSER - KR ver.'
p2289
ssS'0rlQthq5GVYh4hKdClCXRw'
p2290
(dp2291
g3
S'Cosmos People'
p2292
sg5
I1
sg6
S'https://open.spotify.com/track/0rlQthq5GVYh4hKdClCXRw'
p2293
sg8
S'\xe7\x8f\xbe\xe5\x9c\xa8\xe5\xb0\xb1\xe8\xae\x93\xe6\x88\x91\xe8\xb5\xb0'
p2294
ssS'2YMyVYNLmFDD0KGtNkkgFa'
p2295
(dp2296
g3
S'DNCE'
p2297
sg5
I2
sg6
S'https://open.spotify.com/track/2YMyVYNLmFDD0KGtNkkgFa'
p2298
sg8
S'Kissing Strangers'
p2299
ssS'0gAbzOOXtsOIJBKzK8H6VT'
p2300
(dp2301
g3
S'EXO'
p2302
sg5
I1
sg6
S'https://open.spotify.com/track/0gAbzOOXtsOIJBKzK8H6VT'
p2303
sg8
S'For Life'
p2304
ssS'3rOSwuTsUlJp0Pu0MkN8r8'
p2305
(dp2306
g3
S'Future'
p2307
sg5
I18
sg6
S'https://open.spotify.com/track/3rOSwuTsUlJp0Pu0MkN8r8'
p2308
sg8
S'Mask Off'
p2309
ssS'3ryjLm3oupIjJFGc39naNi'
p2310
(dp2311
g3
S'BTS'
p2312
sg5
I4
sg6
S'https://open.spotify.com/track/3ryjLm3oupIjJFGc39naNi'
p2313
sg8
S'dimple'
p2314
ssS'7DGxnirNgZXvo12tIqMjY6'
p2315
(dp2316
g3
S'Silence Wang'
p2317
sg5
I1
sg6
S'https://open.spotify.com/track/7DGxnirNgZXvo12tIqMjY6'
p2318
sg8
S'\xe9\x82\xa3\xe5\x80\x8b\xe7\x94\xb7\xe5\xad\xa9 - \xe9\x9b\xbb\xe8\xa6\x96\xe5\x8a\x87\xe5\xa4\x8f\xe8\x87\xb3\xe6\x9c\xaa\xe8\x87\xb3\xe6\x8f\x92\xe6\x9b\xb2'
p2319
ssS'55cJnJl87zSj1ZDXVkEEPc'
p2320
(dp2321
g3
S'MinChen'
p2322
sg5
I3
sg6
S'https://open.spotify.com/track/55cJnJl87zSj1ZDXVkEEPc'
p2323
sg8
S'Change'
p2324
ssS'1qOLh0tI7trd1zdDKxYZTe'
p2325
(dp2326
g3
S'Hailee Steinfeld'
p2327
sg5
I35
sg6
S'https://open.spotify.com/track/1qOLh0tI7trd1zdDKxYZTe'
p2328
sg8
S'Starving'
p2329
ssS'0cqRj7pUJDkTCEsJkx8snD'
p2330
(dp2331
g3
S'Taylor Swift'
p2332
sg5
I1
sg6
S'https://open.spotify.com/track/0cqRj7pUJDkTCEsJkx8snD'
p2333
sg8
S'Shake It Off'
p2334
ssS'4qFUeTSwNAEVXwvAxca9HB'
p2335
(dp2336
g3
S'No Party For Cao Dong'
p2337
sg5
I4
sg6
S'https://open.spotify.com/track/4qFUeTSwNAEVXwvAxca9HB'
p2338
sg8
S'\xe9\xac\xbc'
p2339
ssS'4KaIJ1FWXUoAAnOts1YWjD'
p2340
(dp2341
g3
S'Calvin Harris'
p2342
sg5
I1
sg6
S'https://open.spotify.com/track/4KaIJ1FWXUoAAnOts1YWjD'
p2343
sg8
S'Prayers Up'
p2344
ssS'3V9DfRoS7JfSkuTyNEsCxQ'
p2345
(dp2346
g3
S'Martin Jensen'
p2347
sg5
I4
sg6
S'https://open.spotify.com/track/3V9DfRoS7JfSkuTyNEsCxQ'
p2348
sg8
S'Wait'
p2349
ssS'11EDhDAVDtGPoSar6ootYA'
p2350
(dp2351
g3
S'Halsey'
p2352
sg5
I1
sg6
S'https://open.spotify.com/track/11EDhDAVDtGPoSar6ootYA'
p2353
sg8
S'Strangers'
p2354
ssS'1cG0umU5TKStygKsPFZ9pY'
p2355
(dp2356
g3
S'Robin Schulz'
p2357
sg5
I16
sg6
S'https://open.spotify.com/track/1cG0umU5TKStygKsPFZ9pY'
p2358
sg8
S'Shed a Light'
p2359
ssS'6520aj0B4FSKGVuKNsOCOi'
p2360
(dp2361
g3
S'Katy Perry'
p2362
sg5
I15
sg6
S'https://open.spotify.com/track/6520aj0B4FSKGVuKNsOCOi'
p2363
sg8
S'Chained To The Rhythm'
p2364
ssS'3caMfJGFp53NAH2TuigdNj'
p2365
(dp2366
g3
S'Galantis'
p2367
sg5
I3
sg6
S'https://open.spotify.com/track/3caMfJGFp53NAH2TuigdNj'
p2368
sg8
S'Hunter'
p2369
ssS'6U8VHaQxzECez4TSt0nmiP'
p2370
(dp2371
g3
S'Coldplay'
p2372
sg5
I1
sg6
S'https://open.spotify.com/track/6U8VHaQxzECez4TSt0nmiP'
p2373
sg8
S'Everglow - Live From Spotify London'
p2374
ssS'5dZEdKjFHH9jl9nmHRnwRd'
p2375
(dp2376
g3
S'Eason Chan'
p2377
sg5
I9
sg6
S'https://open.spotify.com/track/5dZEdKjFHH9jl9nmHRnwRd'
p2378
sg8
S'\xe8\xaa\xb0\xe4\xbe\x86\xe5\x89\xaa\xe6\x9c\x88\xe5\x85\x89'
p2379
ssS'5oSEjCvds0BrkQ2dVDHRpF'
p2380
(dp2381
g3
S'Xiao Yu'
p2382
sg5
I26
sg6
S'https://open.spotify.com/track/5oSEjCvds0BrkQ2dVDHRpF'
p2383
sg8
S'\xe6\x89\x80\xe8\xac\x82\xe7\x9a\x84\xe6\x84\x9b'
p2384
ssS'1wjzFQodRWrPcQ0AnYnvQ9'
p2385
(dp2386
g3
S'Lauv'
p2387
sg5
I19
sg6
S'https://open.spotify.com/track/1wjzFQodRWrPcQ0AnYnvQ9'
p2388
sg8
S'I Like Me Better'
p2389
ssS'1xeB2XCZjRZzblx8aqyiAT'
p2390
(dp2391
g3
S'Koala Liu'
p2392
sg5
I1
sg6
S'https://open.spotify.com/track/1xeB2XCZjRZzblx8aqyiAT'
p2393
sg8
S'\xe6\x84\x9b\xe5\x9c\xa8 \xe6\x88\x91\xe4\xb9\x9f\xe5\x9c\xa8'
p2394
ssS'3vAncbML0jhNrp63DKhsCo'
p2395
(dp2396
g3
S'HEIZE'
p2397
sg5
I8
sg6
S'https://open.spotify.com/track/3vAncbML0jhNrp63DKhsCo'
p2398
sg8
S'Round and round (feat. Han Suji)'
p2399
ssS'33koOQs551ijjVmLbmrcDc'
p2400
(dp2401
g3
S'Coldplay'
p2402
sg5
I1
sg6
S'https://open.spotify.com/track/33koOQs551ijjVmLbmrcDc'
p2403
sg8
S'Yellow - Live From Spotify London'
p2404
ssS'0ndIZ2XvGtXV0PIbEAwoIv'
p2405
(dp2406
g3
S'10cm'
p2407
sg5
I5
sg6
S'https://open.spotify.com/track/0ndIZ2XvGtXV0PIbEAwoIv'
p2408
sg8
S'My eyes'
p2409
ssS'6pwvH9LfroBLqd3dez9vBz'
p2410
(dp2411
g3
S'Coldplay'
p2412
sg5
I2
sg6
S'https://open.spotify.com/track/6pwvH9LfroBLqd3dez9vBz'
p2413
sg8
S'A L I E N S'
p2414
ssS'5tF8SFged0Sw8l8CBoQdT1'
p2415
(dp2416
g3
S'Faye \xe9\xa3\x9b'
p2417
sg5
I3
sg6
S'https://open.spotify.com/track/5tF8SFged0Sw8l8CBoQdT1'
p2418
sg8
S'\xe6\xb2\xb3\xe7\x95\x94'
p2419
ssS'6Upu6yjkdi0DVI8E3IBZEU'
p2420
(dp2421
g3
S'SEVENTEEN'
p2422
sg5
I7
sg6
S'https://open.spotify.com/track/6Upu6yjkdi0DVI8E3IBZEU'
p2423
sg8
S"Don't Wanna Cry"
p2424
ssS'35B0D3BnZfxl0mA3KkstVK'
p2425
(dp2426
g3
S'JJ Lin'
p2427
sg5
I5
sg6
S'https://open.spotify.com/track/35B0D3BnZfxl0mA3KkstVK'
p2428
sg8
S'\xe9\x97\x9c\xe9\x8d\xb5\xe8\xa9\x9e'
p2429
ssS'6cqG6uyhuGDqsRyBwFrzxJ'
p2430
(dp2431
g3
S'Jia Jia'
p2432
sg5
I26
sg6
S'https://open.spotify.com/track/6cqG6uyhuGDqsRyBwFrzxJ'
p2433
sg8
S'\xe5\xae\xb6\xe5\xae\xb6\xe9\x85\x92'
p2434
ssS'5mnevkfhOWDzuvIIfRqv1c'
p2435
(dp2436
g3
S'WINNER'
p2437
sg5
I2
sg6
S'https://open.spotify.com/track/5mnevkfhOWDzuvIIfRqv1c'
p2438
sg8
S'FOOL'
p2439
ssS'3HwyNPs2e1iaD9slrimZ2Q'
p2440
(dp2441
g3
S'Mayday'
p2442
sg5
I27
sg6
S'https://open.spotify.com/track/3HwyNPs2e1iaD9slrimZ2Q'
p2443
sg8
S'\xe6\xb4\xbe\xe5\xb0\x8d\xe5\x8b\x95\xe7\x89\xa9'
p2444
ssS'2uWx84DNKWmstqgLRSBkEw'
p2445
(dp2446
g3
S'TAEYANG'
p2447
sg5
I1
sg6
S'https://open.spotify.com/track/2uWx84DNKWmstqgLRSBkEw'
p2448
sg8
S'WHITE NIGHT'
p2449
ssS'4rksgQSbONtzovKPwj3cTa'
p2450
(dp2451
g3
S'A-Mei Chang'
p2452
sg5
I10
sg6
S'https://open.spotify.com/track/4rksgQSbONtzovKPwj3cTa'
p2453
sg8
S'\xe5\xa7\x8a\xe5\xa6\xb92016 - \xe5\xb9\xb3\xe8\xa1\x8c\xe5\xae\x87\xe5\xae\x99\xe7\x89\x88'
p2454
ssS'0qYTZCo5Bwh1nsUFGZP3zn'
p2455
(dp2456
g3
S'Maluma'
p2457
sg5
I7
sg6
S'https://open.spotify.com/track/0qYTZCo5Bwh1nsUFGZP3zn'
p2458
sg8
S'Felices los 4'
p2459
ssS'1KqvRRQd3lfM0pAlkGPrgD'
p2460
(dp2461
g3
S'Ed Sheeran'
p2462
sg5
I1
sg6
S'https://open.spotify.com/track/1KqvRRQd3lfM0pAlkGPrgD'
p2463
sg8
S'Shape of You (Major Lazer Remix) [feat. Nyla & Kranium]'
p2464
ssS'2XMTqoHHSH0lvuXrvIEdco'
p2465
(dp2466
g3
S'FRENSHIP'
p2467
sg5
I8
sg6
S'https://open.spotify.com/track/2XMTqoHHSH0lvuXrvIEdco'
p2468
sg8
S'Capsize'
p2469
ssS'5MFzQMkrl1FOOng9tq6R9r'
p2470
(dp2471
g3
S'Maroon 5'
p2472
sg5
I23
sg6
S'https://open.spotify.com/track/5MFzQMkrl1FOOng9tq6R9r'
p2473
sg8
S"Don't Wanna Know"
p2474
ssS'5Z3GHaZ6ec9bsiI5BenrbY'
p2475
(dp2476
g3
S'Khalid'
p2477
sg5
I13
sg6
S'https://open.spotify.com/track/5Z3GHaZ6ec9bsiI5BenrbY'
p2478
sg8
S'Young Dumb & Broke'
p2479
ssS'3t73sJMWuI9uLFmAdecTN5'
p2480
(dp2481
g3
S'Frande'
p2482
sg5
I1
sg6
S'https://open.spotify.com/track/3t73sJMWuI9uLFmAdecTN5'
p2483
sg8
S'\xe6\x88\x91\xe5\x8f\xaa\xe6\x98\xaf\xe4\xbd\xa0\xe7\x9a\x84\xe6\x84\x9b\xe4\xba\xba(DinPei Remix)'
p2484
ssS'3FDrI0FLKzrYQiWxPhqV2W'
p2485
(dp2486
g3
S'Calvin Harris'
p2487
sg5
I4
sg6
S'https://open.spotify.com/track/3FDrI0FLKzrYQiWxPhqV2W'
p2488
sg8
S'Rollin'
p2489
ssS'4iB718pFfVa2mEHevHsaXu'
p2490
(dp2491
g3
S'JJ Lin'
p2492
sg5
I4
sg6
S'https://open.spotify.com/track/4iB718pFfVa2mEHevHsaXu'
p2493
sg8
S'\xe4\xb8\xb9\xe5\xaf\xa7\xe5\x9f\xb7\xe8\x91\x97 (feat. \xe6\xb6\x88\xe9\x99\xa4\xe8\x81\xaf\xe8\x90\x8c)'
p2494
ssS'7wBMyVtVAUhuY02Tp2VU8n'
p2495
(dp2496
g3
S'Jocie Kok'
p2497
sg5
I10
sg6
S'https://open.spotify.com/track/7wBMyVtVAUhuY02Tp2VU8n'
p2498
sg8
S'\xe6\x88\x91\xe6\x9c\x83\xe4\xb8\x80\xe7\x9b\xb4\xe6\x83\xb3\xe4\xbd\xa0'
p2499
ssS'5XQMr19TL7Mfksq9zihbOu'
p2500
(dp2501
g3
S'Chris Brown'
p2502
sg5
I6
sg6
S'https://open.spotify.com/track/5XQMr19TL7Mfksq9zihbOu'
p2503
sg8
S'Questions'
p2504
ssS'3SfbB0Y3saMIQnNctxMVhj'
p2505
(dp2506
g3
S'SOYOU'
p2507
sg5
I19
sg6
S'https://open.spotify.com/track/3SfbB0Y3saMIQnNctxMVhj'
p2508
sg8
S'I Miss You'
p2509
ssS'4opWQWmRcam3BApZwmPX7c'
p2510
(dp2511
g3
S'Miu Chu'
p2512
sg5
I4
sg6
S'https://open.spotify.com/track/4opWQWmRcam3BApZwmPX7c'
p2513
sg8
S'\xe5\x85\xb6\xe5\xaf\xa6\xe6\xb2\x92\xe8\x81\x8a\xe4\xbb\x80\xe9\xba\xbc'
p2514
ssS'1CmzpXH78pZl7n3rEjJXUo'
p2515
(dp2516
g3
S'G-DRAGON'
p2517
sg5
I1
sg6
S'https://open.spotify.com/track/1CmzpXH78pZl7n3rEjJXUo'
p2518
sg8
S'SUPER STAR'
p2519
ssS'1WP1r7fuvRqZRnUaTi2I1Q'
p2520
(dp2521
g3
S'Shawn Mendes'
p2522
sg5
I2
sg6
S'https://open.spotify.com/track/1WP1r7fuvRqZRnUaTi2I1Q'
p2523
sg8
S'Stitches'
p2524
ssS'51PIvodunv6NmX5250zxAh'
p2525
(dp2526
g3
S'Lady Gaga'
p2527
sg5
I26
sg6
S'https://open.spotify.com/track/51PIvodunv6NmX5250zxAh'
p2528
sg8
S'The Cure'
p2529
ssS'2sb6AZQLeoD3VgA4zglQB6'
p2530
(dp2531
g3
S'Crowd Lu'
p2532
sg5
I20
sg6
S'https://open.spotify.com/track/2sb6AZQLeoD3VgA4zglQB6'
p2533
sg8
S'\xe9\xad\x9a\xe4\xbb\x94'
p2534
ssS'2eAAEa8pxKF7My0EO4rFgR'
p2535
(dp2536
g3
S'Dua Lipa'
p2537
sg5
I1
sg6
S'https://open.spotify.com/track/2eAAEa8pxKF7My0EO4rFgR'
p2538
sg8
S'Blow Your Mind (Mwah)'
p2539
ssS'1jYiIOC5d6soxkJP81fxq2'
p2540
(dp2541
g3
S'DJ Khaled'
p2542
sg5
I1
sg6
S'https://open.spotify.com/track/1jYiIOC5d6soxkJP81fxq2'
p2543
sg8
S"I'm the One"
p2544
ssS'5JHNg1hxZFT7TDEphhM4wj'
p2545
(dp2546
g3
S'Linkin Park'
p2547
sg5
I1
sg6
S'https://open.spotify.com/track/5JHNg1hxZFT7TDEphhM4wj'
p2548
sg8
S'Waiting For The End'
p2549
ssS'6fOPuabPdAJ0HgqJFcDGb1'
p2550
(dp2551
g3
S'OneRepublic'
p2552
sg5
I1
sg6
S'https://open.spotify.com/track/6fOPuabPdAJ0HgqJFcDGb1'
p2553
sg8
S'Apologize'
p2554
ssS'69ZEgPX0hxWXJIqkTlYz41'
p2555
(dp2556
g3
S'Linkin Park'
p2557
sg5
I1
sg6
S'https://open.spotify.com/track/69ZEgPX0hxWXJIqkTlYz41'
p2558
sg8
S'Iridescent'
p2559
ssS'1sUiOsM0biaMdPDDSyfbC7'
p2560
(dp2561
g3
S'Frande'
p2562
sg5
I2
sg6
S'https://open.spotify.com/track/1sUiOsM0biaMdPDDSyfbC7'
p2563
sg8
S'\xe6\x88\x91\xe5\x8f\xaa\xe6\x98\xaf\xe4\xbd\xa0\xe7\x9a\x84\xe6\x84\x9b\xe4\xba\xba'
p2564
ssS'3MzDvWYbRMAgkOFu5DhNvh'
p2565
(dp2566
g3
S'James Blunt'
p2567
sg5
I1
sg6
S'https://open.spotify.com/track/3MzDvWYbRMAgkOFu5DhNvh'
p2568
sg8
S'Love Me Better'
p2569
ssS'1mea3bSkSGXuIRvnydlB5b'
p2570
(dp2571
g3
S'Coldplay'
p2572
sg5
I3
sg6
S'https://open.spotify.com/track/1mea3bSkSGXuIRvnydlB5b'
p2573
sg8
S'Viva La Vida'
p2574
ssS'4vB5YCnhYmXy7oTl9Erwkq'
p2575
(dp2576
g3
S'A-Lin'
p2577
sg5
I3
sg6
S'https://open.spotify.com/track/4vB5YCnhYmXy7oTl9Erwkq'
p2578
sg8
S'\xe5\x85\x89\xe4\xb9\x8b\xe6\xb5\xb7'
p2579
ssS'6KchrRctYX9tUIgImAt9nD'
p2580
(dp2581
g3
S'\xe9\x98\xbf\xe9\x81\x94'
p2582
sg5
I2
sg6
S'https://open.spotify.com/track/6KchrRctYX9tUIgImAt9nD'
p2583
sg8
S'\xe8\xba\xab\xe9\xab\x94\xe5\x81\xa5\xe5\xba\xb7'
p2584
ssS'7zgqtptZvhf8GEmdsM2vp2'
p2585
(dp2586
g3
S'Taylor Swift'
p2587
sg5
I1
sg6
S'https://open.spotify.com/track/7zgqtptZvhf8GEmdsM2vp2'
p2588
sg8
S'...Ready For It?'
p2589
ssS'2eQKuCrif2IVCI0CZTKumu'
p2590
(dp2591
g3
S'No Party For Cao Dong'
p2592
sg5
I3
sg6
S'https://open.spotify.com/track/2eQKuCrif2IVCI0CZTKumu'
p2593
sg8
S'\xe5\x9c\xa8'
p2594
ssS'6f49kbOuQSOsStBpyGvQfA'
p2595
(dp2596
g3
S'Coldplay'
p2597
sg5
I2
sg6
S'https://open.spotify.com/track/6f49kbOuQSOsStBpyGvQfA'
p2598
sg8
S'A Head Full Of Dreams'
p2599
ssS'4A95W8Z7DGEFvD2j7pmtUB'
p2600
(dp2601
g3
S'U2'
p2602
sg5
I2
sg6
S'https://open.spotify.com/track/4A95W8Z7DGEFvD2j7pmtUB'
p2603
sg8
S'You\xe2\x80\x99re The Best Thing About Me - U2 Vs. Kygo'
p2604
ssS'3VC1IEz9M1txlMSx3h3tPM'
p2605
(dp2606
g3
S'KARD'
p2607
sg5
I2
sg6
S'https://open.spotify.com/track/3VC1IEz9M1txlMSx3h3tPM'
p2608
sg8
S'Hola Hola'
p2609
ssS'2nnsEg2pjJLXjhoeFPscfa'
p2610
(dp2611
g3
S'A-Lin'
p2612
sg5
I17
sg6
S'https://open.spotify.com/track/2nnsEg2pjJLXjhoeFPscfa'
p2613
sg8
S'\xe5\xbf\x98\xe8\xa8\x98\xe6\x93\x81\xe6\x8a\xb1 \xe9\x9b\xbb\xe5\xbd\xb1 \xe3\x80\x8c234\xe8\xaa\xaa\xe6\x84\x9b\xe4\xbd\xa0\xe3\x80\x8d \xe4\xb8\xbb\xe9\xa1\x8c\xe6\x9b\xb2 - The movie theme song of Another Woman'
p2614
ssS'0NyOeqzqjVM9j7IuWp2oJ6'
p2615
(dp2616
g3
S'Gryffin'
p2617
sg5
I1
sg6
S'https://open.spotify.com/track/0NyOeqzqjVM9j7IuWp2oJ6'
p2618
sg8
S'Feel Good (feat. Daya)'
p2619
ssS'0tjd4d6UPApoNhO0MuyP3I'
p2620
(dp2621
g3
S'Ellen Loo'
p2622
sg5
I2
sg6
S'https://open.spotify.com/track/0tjd4d6UPApoNhO0MuyP3I'
p2623
sg8
S'\xe6\xad\xb8\xe4\xb8\x80'
p2624
ssS'2Okv1MY4rnI3hHyDXqOdvs'
p2625
(dp2626
g3
S'TAEYEON'
p2627
sg5
I2
sg6
S'https://open.spotify.com/track/2Okv1MY4rnI3hHyDXqOdvs'
p2628
sg8
S'Time Lapse'
p2629
ssS'5edBgVtRD0fvWk140Sl21T'
p2630
(dp2631
g3
S'OneRepublic'
p2632
sg5
I3
sg6
S'https://open.spotify.com/track/5edBgVtRD0fvWk140Sl21T'
p2633
sg8
S'Counting Stars'
p2634
ssS'3lwJRuROeMB9L6S8KBlbEM'
p2635
(dp2636
g3
S'AmPm'
p2637
sg5
I1
sg6
S'https://open.spotify.com/track/3lwJRuROeMB9L6S8KBlbEM'
p2638
sg8
S"I don't wanna talk"
p2639
ssS'7Jo5oEViT27zCkdRI5hEuG'
p2640
(dp2641
g3
S'Sam Kim'
p2642
sg5
I10
sg6
S'https://open.spotify.com/track/7Jo5oEViT27zCkdRI5hEuG'
p2643
sg8
S'Who are you'
p2644
ssS'4gDyoe1FImDlXVt58ssnMf'
p2645
(dp2646
g3
S'Coldplay'
p2647
sg5
I2
sg6
S'https://open.spotify.com/track/4gDyoe1FImDlXVt58ssnMf'
p2648
sg8
S'All I Can Think About Is You'
p2649
ssS'31MkGwj0SWgZaTvEt5Hgxv'
p2650
(dp2651
g3
S'P!nk'
p2652
sg5
I9
sg6
S'https://open.spotify.com/track/31MkGwj0SWgZaTvEt5Hgxv'
p2653
sg8
S'What About Us'
p2654
ssS'0PDUDa38GO8lMxLCRc4lL1'
p2655
(dp2656
g3
S'ZAYN'
p2657
sg5
I1
sg6
S'https://open.spotify.com/track/0PDUDa38GO8lMxLCRc4lL1'
p2658
sg8
S'PILLOWTALK'
p2659
ssS'39GAzyZ1iTRDytx3r21kOe'
p2660
(dp2661
g3
S'\xe3\x80\x8c\xe5\x9b\x9b\xe5\x88\x86\xe8\xa1\x9b\xe3\x80\x8d\xe6\xa8\x82\xe5\x9c\x98\xe4\xb8\xbb\xe5\x94\xb1\xe9\x98\xbf\xe5\xb1\xb1'
p2662
sg5
I1
sg6
S'https://open.spotify.com/track/39GAzyZ1iTRDytx3r21kOe'
p2663
sg8
S'I Am Here'
p2664
ssS'3pC1ILr9KzmQLMe8Kn5QBG'
p2665
(dp2666
g3
S'DJ Khaled'
p2667
sg5
I1
sg6
S'https://open.spotify.com/track/3pC1ILr9KzmQLMe8Kn5QBG'
p2668
sg8
S'To the Max'
p2669
ssS'4ieTruevt8RaU0BLSKjEnj'
p2670
(dp2671
g3
S'A-Lin'
p2672
sg5
I7
sg6
S'https://open.spotify.com/track/4ieTruevt8RaU0BLSKjEnj'
p2673
sg8
S'\xe4\xb8\x80\xe7\x9b\xb4\xe8\xb5\xb0'
p2674
ssS'2CjOXcBHUmjUbPgFuZwCr1'
p2675
(dp2676
g3
S'Suming'
p2677
sg5
I1
sg6
S'https://open.spotify.com/track/2CjOXcBHUmjUbPgFuZwCr1'
p2678
sg8
S'\xe7\x9c\xbc\xe6\xb7\x9a\xe4\xb8\x8d\xe8\xa6\x81\xe6\x8e\x89\xe4\xb8\x8b\xe4\xbe\x86 - \xe7\x88\x86\xe7\x82\xb8\xe7\x89\x88'
p2679
ssS'7ts15m3HQaHdKTFuS0Vt7Z'
p2680
(dp2681
g3
S'Eason Chan'
p2682
sg5
I1
sg6
S'https://open.spotify.com/track/7ts15m3HQaHdKTFuS0Vt7Z'
p2683
sg8
S'\xe6\x94\xbe - Budweiser EDM Remix'
p2684
ssS'6ihHuJiCsZxgTa75fs80x0'
p2685
(dp2686
g3
S'\xe6\xbd\x98\xe8\xa3\x95\xe6\x96\x87'
p2687
sg5
I2
sg6
S'https://open.spotify.com/track/6ihHuJiCsZxgTa75fs80x0'
p2688
sg8
S'\xe4\xb9\x9d\xe5\xb9\xb4'
p2689
ssS'3VRk65lHSwqd90TAkQqhvB'
p2690
(dp2691
g3
S'Katy Perry'
p2692
sg5
I2
sg6
S'https://open.spotify.com/track/3VRk65lHSwqd90TAkQqhvB'
p2693
sg8
S'Swish Swish'
p2694
ssS'332JydZv9waticOQHBiCFl'
p2695
(dp2696
g3
S'\xe6\x96\xb9\xe9\x9b\x85\xe8\xb3\xa2'
p2697
sg5
I1
sg6
S'https://open.spotify.com/track/332JydZv9waticOQHBiCFl'
p2698
sg8
S'\xe9\x81\x87\xe5\x88\xb0'
p2699
ssS'7z2M7DsEjZjwXBkWG3zd21'
p2700
(dp2701
g3
S'Stefanie Sun'
p2702
sg5
I5
sg6
S'https://open.spotify.com/track/7z2M7DsEjZjwXBkWG3zd21'
p2703
sg8
S'\xe6\x88\x91\xe6\x87\xb7\xe5\xbf\xb5\xe7\x9a\x84'
p2704
ssS'0x5CxIxVZUxwOQbwiVLS6J'
p2705
(dp2706
g3
S'Coldplay'
p2707
sg5
I2
sg6
S'https://open.spotify.com/track/0x5CxIxVZUxwOQbwiVLS6J'
p2708
sg8
S'Charlie Brown'
p2709
ssS'2G1kCLtTmaRPnTukpriHO8'
p2710
(dp2711
g3
S'Mayday'
p2712
sg5
I24
sg6
S'https://open.spotify.com/track/2G1kCLtTmaRPnTukpriHO8'
p2713
sg8
S'\xe5\xa5\xbd\xe5\xa5\xbd (\xe6\x83\xb3\xe6\x8a\x8a\xe4\xbd\xa0\xe5\xaf\xab\xe6\x88\x90\xe4\xb8\x80\xe9\xa6\x96\xe6\xad\x8c)'
p2714
ssS'3kxfsdsCpFgN412fpnW85Y'
p2715
(dp2716
g3
S'Childish Gambino'
p2717
sg5
I12
sg6
S'https://open.spotify.com/track/3kxfsdsCpFgN412fpnW85Y'
p2718
sg8
S'Redbone'
p2719
ssS'2Hd3jjgU5ZVo9q15f0XNr4'
p2720
(dp2721
g3
S'Fire EX.'
p2722
sg5
I1
sg6
S'https://open.spotify.com/track/2Hd3jjgU5ZVo9q15f0XNr4'
p2723
sg8
S'Song For You'
p2724
ssS'1OAh8uOEOvTDqkKFsKksCi'
p2725
(dp2726
g3
S'DJ Khaled'
p2727
sg5
I17
sg6
S'https://open.spotify.com/track/1OAh8uOEOvTDqkKFsKksCi'
p2728
sg8
S'Wild Thoughts'
p2729
ssS'0sJ7chRHiYpGcN5QA2ll05'
p2730
(dp2731
g3
S'Mayday'
p2732
sg5
I1
sg6
S'https://open.spotify.com/track/0sJ7chRHiYpGcN5QA2ll05'
p2733
sg8
S'\xe4\xbd\xa0\xe4\xb8\x8d\xe6\x98\xaf\xe7\x9c\x9f\xe6\xad\xa3\xe7\x9a\x84\xe5\xbf\xab\xe6\xa8\x82'
p2734
ssS'4q8PHoRsPUB52LFylX8Ulz'
p2735
(dp2736
g3
S'Axwell /\\ Ingrosso'
p2737
sg5
I2
sg6
S'https://open.spotify.com/track/4q8PHoRsPUB52LFylX8Ulz'
p2738
sg8
S'More Than You Know'
p2739
ssS'5olU48ccGC4YbZWRuDeVlk'
p2740
(dp2741
g3
S'EXID'
p2742
sg5
I1
sg6
S'https://open.spotify.com/track/5olU48ccGC4YbZWRuDeVlk'
p2743
sg8
S'Boy'
p2744
ssS'3qyeNnFY67zX6VmmIbzPsL'
p2745
(dp2746
g3
S'Mike Perry'
p2747
sg5
I6
sg6
S'https://open.spotify.com/track/3qyeNnFY67zX6VmmIbzPsL'
p2748
sg8
S'Body to Body'
p2749
ssS'1KeZgPUr54C8iz3FjqzVoz'
p2750
(dp2751
g3
S'The Chainsmokers'
p2752
sg5
I5
sg6
S'https://open.spotify.com/track/1KeZgPUr54C8iz3FjqzVoz'
p2753
sg8
S'Young'
p2754
ssS'4sPmO7WMQUAf45kwMOtONw'
p2755
(dp2756
g3
S'Adele'
p2757
sg5
I10
sg6
S'https://open.spotify.com/track/4sPmO7WMQUAf45kwMOtONw'
p2758
sg8
S'Hello'
p2759
ssS'3njZlgsB9MI6DVTg8wDPsg'
p2760
(dp2761
g3
S'The Script'
p2762
sg5
I1
sg6
S'https://open.spotify.com/track/3njZlgsB9MI6DVTg8wDPsg'
p2763
sg8
S'Rock the World'
p2764
ssS'3agtg0x11wPvLIWkYR39nZ'
p2765
(dp2766
g3
S'Linkin Park'
p2767
sg5
I1
sg6
S'https://open.spotify.com/track/3agtg0x11wPvLIWkYR39nZ'
p2768
sg8
S'Somewhere I Belong'
p2769
ssS'5YAiIE4ZGVFdK3LexsFej6'
p2770
(dp2771
g3
S'Eve Ai'
p2772
sg5
I14
sg6
S'https://open.spotify.com/track/5YAiIE4ZGVFdK3LexsFej6'
p2773
sg8
S'\xe6\x88\x91\xe4\xb8\x8d\xe7\x9f\xa5\xe9\x81\x93\xe6\x84\x9b\xe6\x98\xaf\xe4\xbb\x80\xe9\xba\xbc'
p2774
ssS'6BaCraQ9xeLYg4Sb9TBT2X'
p2775
(dp2776
g3
S'Calvin Harris'
p2777
sg5
I1
sg6
S'https://open.spotify.com/track/6BaCraQ9xeLYg4Sb9TBT2X'
p2778
sg8
S'Feels'
p2779
ssS'3y7ByLZ05tluscOTRgEJ9Y'
p2780
(dp2781
g3
S'IU'
p2782
sg5
I23
sg6
S'https://open.spotify.com/track/3y7ByLZ05tluscOTRgEJ9Y'
p2783
sg8
S'Palette (Feat. G-DRAGON)'
p2784
ssS'0lk8GaCBo5UmCtyzzFQgFf'
p2785
(dp2786
g3
S'\xe9\x99\xb3\xe4\xbb\xa5\xe6\xa1\x90'
p2787
sg5
I22
sg6
S'https://open.spotify.com/track/0lk8GaCBo5UmCtyzzFQgFf'
p2788
sg8
S'\xe5\x91\x8a\xe7\x99\xbd\xe6\xb0\x94\xe7\x90\x83'
p2789
ssS'0g3xY2ZkGUsVv9izhZk8y2'
p2790
(dp2791
g3
S'Miss Ko'
p2792
sg5
I13
sg6
S'https://open.spotify.com/track/0g3xY2ZkGUsVv9izhZk8y2'
p2793
sg8
S'\xe7\x9a\x87\xe5\x90\x8e\xe5\x8d\x80\xe7\x9a\x84\xe7\x9a\x87\xe5\x90\x8e'
p2794
ssS'6875MeXyCW0wLyT72Eetmo'
p2795
(dp2796
g3
S'Hailee Steinfeld'
p2797
sg5
I7
sg6
S'https://open.spotify.com/track/6875MeXyCW0wLyT72Eetmo'
p2798
sg8
S'Starving'
p2799
ssS'3P3UA61WRQqwCXaoFOTENd'
p2800
(dp2801
g3
S'IU'
p2802
sg5
I3
sg6
S'https://open.spotify.com/track/3P3UA61WRQqwCXaoFOTENd'
p2803
sg8
S'Through the Night'
p2804
ssS'2Vddm8aexsg6DBPg2ZoBk7'
p2805
(dp2806
g3
S'No Party For Cao Dong'
p2807
sg5
I2
sg6
S'https://open.spotify.com/track/2Vddm8aexsg6DBPg2ZoBk7'
p2808
sg8
S'Intro'
p2809
ssS'3OoZagIW3YK8vjt0ws6NOI'
p2810
(dp2811
g3
S'DJ Khaled'
p2812
sg5
I1
sg6
S'https://open.spotify.com/track/3OoZagIW3YK8vjt0ws6NOI'
p2813
sg8
S'Shining'
p2814
ssS'0B2odvEgW0NHtoYuByRPcR'
p2815
(dp2816
g3
S'Mayday'
p2817
sg5
I4
sg6
S'https://open.spotify.com/track/0B2odvEgW0NHtoYuByRPcR'
p2818
sg8
S'\xe9\xa0\x91\xe5\x9b\xba'
p2819
ssS'7pRU5CmUv2xCeck50kYDIK'
p2820
(dp2821
g3
S'\xe6\x9d\x8e\xe5\xb4\x97\xe9\x9c\x96'
p2822
sg5
I5
sg6
S'https://open.spotify.com/track/7pRU5CmUv2xCeck50kYDIK'
p2823
sg8
S'\xe6\x88\x91\xe6\xb2\x92\xe6\x9c\x89\xe8\xb5\xb0\xe9\x96\x8b'
p2824
ssS'30JvxpDThn5DR1tK2An0vB'
p2825
(dp2826
g3
S'Mayday'
p2827
sg5
I2
sg6
S'https://open.spotify.com/track/30JvxpDThn5DR1tK2An0vB'
p2828
sg8
S'\xe5\x82\xb7\xe5\xbf\x83\xe7\x9a\x84\xe4\xba\xba\xe5\x88\xa5\xe8\x81\xbd\xe6\x85\xa2\xe6\xad\x8c(\xe8\xb2\xab\xe5\xbe\xb9\xe5\xbf\xab\xe6\xa8\x82)'
p2829
ssS'5Gq33bYcS7uGKKW3ctedfG'
p2830
(dp2831
g3
S'Nico & Kim'
p2832
sg5
I10
sg6
S'https://open.spotify.com/track/5Gq33bYcS7uGKKW3ctedfG'
p2833
sg8
S'\xe5\xa6\xae\xe5\xa6\xae'
p2834
ssS'3jG9mYOVxK4ZhpqIhTXLka'
p2835
(dp2836
g3
S'Lyn'
p2837
sg5
I1
sg6
S'https://open.spotify.com/track/3jG9mYOVxK4ZhpqIhTXLka'
p2838
sg8
S'Love Story'
p2839
ssS'3CEs5Jnov3YkmYn0Vezrcr'
p2840
(dp2841
g3
S'Wanna One'
p2842
sg5
I7
sg6
S'https://open.spotify.com/track/3CEs5Jnov3YkmYn0Vezrcr'
p2843
sg8
S'Energetic'
p2844
ssS'6tinFGP1QJuRbyeCekZcLZ'
p2845
(dp2846
g3
S'Afrojack'
p2847
sg5
I2
sg6
S'https://open.spotify.com/track/6tinFGP1QJuRbyeCekZcLZ'
p2848
sg8
S'Another Life'
p2849
ssS'6mORGLOz79w6VsCRLWYYuK'
p2850
(dp2851
g3
S'Lord Huron'
p2852
sg5
I8
sg6
S'https://open.spotify.com/track/6mORGLOz79w6VsCRLWYYuK'
p2853
sg8
S'The Night We Met'
p2854
ssS'2fQrGHiQOvpL9UgPvtYy6G'
p2855
(dp2856
g3
S'21 Savage'
p2857
sg5
I3
sg6
S'https://open.spotify.com/track/2fQrGHiQOvpL9UgPvtYy6G'
p2858
sg8
S'Bank Account'
p2859
ssS'5aAx2yezTd8zXrkmtKl66Z'
p2860
(dp2861
g3
S'The Weeknd'
p2862
sg5
I26
sg6
S'https://open.spotify.com/track/5aAx2yezTd8zXrkmtKl66Z'
p2863
sg8
S'Starboy'
p2864
ssS'3vxgKOmAOVl11Csw4ehkmJ'
p2865
(dp2866
g3
S'NCT 127'
p2867
sg5
I1
sg6
S'https://open.spotify.com/track/3vxgKOmAOVl11Csw4ehkmJ'
p2868
sg8
S'\xe7\x84\xa1\xe9\x99\x90\xe7\x9a\x84\xe6\x88\x91 \xeb\xac\xb4\xed\x95\x9c\xec\xa0\x81\xec\x95\x84; LIMITLESS'
p2869
ssS'2BrzlUj1u1CtvaJDGIKpsP'
p2870
(dp2871
g3
S'Noah Cyrus'
p2872
sg5
I11
sg6
S'https://open.spotify.com/track/2BrzlUj1u1CtvaJDGIKpsP'
p2873
sg8
S'Make Me (Cry)'
p2874
ssS'1SJtlNRJDeYHioymcvsqev'
p2875
(dp2876
g3
S'Camila Cabello'
p2877
sg5
I16
sg6
S'https://open.spotify.com/track/1SJtlNRJDeYHioymcvsqev'
p2878
sg8
S'Crying in the Club'
p2879
ssS'7rYdfR1PHguFvfYUIs0ehf'
p2880
(dp2881
g3
S'Naiwen Yang'
p2882
sg5
I12
sg6
S'https://open.spotify.com/track/7rYdfR1PHguFvfYUIs0ehf'
p2883
sg8
S'\xe6\x8e\xa8\xe9\x96\x8b\xe4\xb8\x96\xe7\x95\x8c\xe7\x9a\x84\xe9\x96\x80'
p2884
ssS'0Wv5wuenRLI3BcwgT3HPIP'
p2885
(dp2886
g3
S'DJ Snake'
p2887
sg5
I3
sg6
S'https://open.spotify.com/track/0Wv5wuenRLI3BcwgT3HPIP'
p2888
sg8
S'A Different Way (with Lauv)'
p2889
ssS'1xFwX5o5qFPKaHKFXFlLLt'
p2890
(dp2891
g3
S'Sandee Chan'
p2892
sg5
I1
sg6
S'https://open.spotify.com/track/1xFwX5o5qFPKaHKFXFlLLt'
p2893
sg8
S'\xe4\xbb\x96\xe6\x98\xaf\xe6\x9c\xab\xe6\x97\xa5\xe9\xa0\x90\xe8\xa8\x80\xe4\xb8\xad\xe7\x9a\x84\xe5\xae\x87\xe5\xae\x99\xe7\xa2\x8e\xe7\x89\x87'
p2894
ssS'04DwTuZ2VBdJCCC5TROn7L'
p2895
(dp2896
g3
S'Martin Garrix'
p2897
sg5
I40
sg6
S'https://open.spotify.com/track/04DwTuZ2VBdJCCC5TROn7L'
p2898
sg8
S'In the Name of Love'
p2899
ssS'53YZi9zgTnF0Py0K6ejyWz'
p2900
(dp2901
g3
S'EXO'
p2902
sg5
I1
sg6
S'https://open.spotify.com/track/53YZi9zgTnF0Py0K6ejyWz'
p2903
sg8
S'Power'
p2904
ssS'12SCPvDuy54Tl8H2jSELxF'
p2905
(dp2906
g3
S'Fifth Harmony'
p2907
sg5
I1
sg6
S'https://open.spotify.com/track/12SCPvDuy54Tl8H2jSELxF'
p2908
sg8
S"Don't Say You Love Me"
p2909
ssS'3AJwUDP919kvQ9QcozQPxg'
p2910
(dp2911
g3
S'Coldplay'
p2912
sg5
I14
sg6
S'https://open.spotify.com/track/3AJwUDP919kvQ9QcozQPxg'
p2913
sg8
S'Yellow'
p2914
ssS'1JF95MYTdqGjg0Nq8C49X0'
p2915
(dp2916
g3
S'\xe4\xb9\xb1\xe5\xbd\x88\xe9\x98\xbf\xe7\xbf\x94'
p2917
sg5
I2
sg6
S'https://open.spotify.com/track/1JF95MYTdqGjg0Nq8C49X0'
p2918
sg8
S'\xe8\xa1\x9d'
p2919
ssS'3PYgmrJfalvsoUdOGUtqZq'
p2920
(dp2921
g3
S'Sodagreen'
p2922
sg5
I1
sg6
S'https://open.spotify.com/track/3PYgmrJfalvsoUdOGUtqZq'
p2923
sg8
S'\xe4\xbd\xa0\xe8\xa2\xab\xe5\xaf\xab\xe5\x9c\xa8\xe6\x88\x91\xe7\x9a\x84\xe6\xad\x8c\xe8\xa3\xa1'
p2924
ssS'4PDXtZQ83AJzfLWX0lcJux'
p2925
(dp2926
g3
S'Benjamin Francis Leftwich'
p2927
sg5
I1
sg6
S'https://open.spotify.com/track/4PDXtZQ83AJzfLWX0lcJux'
p2928
sg8
S'Shine'
p2929
ssS'6VRghJeP6I0w1KxkdWFfIh'
p2930
(dp2931
g3
S'Imagine Dragons'
p2932
sg5
I3
sg6
S'https://open.spotify.com/track/6VRghJeP6I0w1KxkdWFfIh'
p2933
sg8
S'Believer'
p2934
ssS'1B0DvDgNgvmccdfdEK4wB5'
p2935
(dp2936
g3
S'Pitbull'
p2937
sg5
I1
sg6
S'https://open.spotify.com/track/1B0DvDgNgvmccdfdEK4wB5'
p2938
sg8
S'Options'
p2939
ssS'7LVHVU3tWfcxj5aiPFEW4Q'
p2940
(dp2941
g3
S'Coldplay'
p2942
sg5
I10
sg6
S'https://open.spotify.com/track/7LVHVU3tWfcxj5aiPFEW4Q'
p2943
sg8
S'Fix You'
p2944
ssS'6SznMYPQJHzr3IwsAHLId2'
p2945
(dp2946
g3
S'Ed Sheeran'
p2947
sg5
I2
sg6
S'https://open.spotify.com/track/6SznMYPQJHzr3IwsAHLId2'
p2948
sg8
S'Bibia Be Ye Ye'
p2949
ssS'6LunoYd3xpZ19sICOXS8Xd'
p2950
(dp2951
g3
S'Joker Xue'
p2952
sg5
I42
sg6
S'https://open.spotify.com/track/6LunoYd3xpZ19sICOXS8Xd'
p2953
sg8
S'\xe6\xbc\x94\xe5\x93\xa1'
p2954
ssS'6wdQ0onhK5s5Wr2biVPX1y'
p2955
(dp2956
g3
S'Joker Xue'
p2957
sg5
I4
sg6
S'https://open.spotify.com/track/6wdQ0onhK5s5Wr2biVPX1y'
p2958
sg8
S'\xe6\x88\x91\xe5\xae\xb3\xe6\x80\x95'
p2959
ssS'02Z6xD2aeJjqdzYG4pWQwr'
p2960
(dp2961
g3
S'\xe7\x8e\x8b\xe4\xbf\x8a\xe5\x87\xb1'
p2962
sg5
I2
sg6
S'https://open.spotify.com/track/02Z6xD2aeJjqdzYG4pWQwr'
p2963
sg8
S'\xe4\xb8\x8d\xe5\xae\x8c\xe7\xbe\x8e\xe5\xb0\x8f\xe5\xad\xa9'
p2964
ssS'1aa2wl4aISMXWzNC9oOK8h'
p2965
(dp2966
g3
S'\xe6\x80\x9d\xe8\xa1\x9b'
p2967
sg5
I3
sg6
S'https://open.spotify.com/track/1aa2wl4aISMXWzNC9oOK8h'
p2968
sg8
S'\xe5\xb9\xb8\xe7\xa6\x8f\xe7\x9a\x84\xe6\xa8\xa1\xe6\xa8\xa3(\xe3\x80\x8a\xe7\xb4\x85\xe8\x89\xb2\xe6\xb0\xa3\xe7\x90\x83\xe3\x80\x8b\xe6\x8f\x92\xe6\x9b\xb2)'
p2969
ssS'6V6ZIG9KBzdi1Qpi48EPdT'
p2970
(dp2971
g3
S'Eve Ai'
p2972
sg5
I6
sg6
S'https://open.spotify.com/track/6V6ZIG9KBzdi1Qpi48EPdT'
p2973
sg8
S'Waterfall'
p2974
ssS'3S8MFB68isPbRVgaU0MaIW'
p2975
(dp2976
g3
S'Linkin Park'
p2977
sg5
I1
sg6
S'https://open.spotify.com/track/3S8MFB68isPbRVgaU0MaIW'
p2978
sg8
S'Wastelands'
p2979
ssS'4zHkiH22u64gB8fIK2QjmP'
p2980
(dp2981
g3
S'Afrojack'
p2982
sg5
I1
sg6
S'https://open.spotify.com/track/4zHkiH22u64gB8fIK2QjmP'
p2983
sg8
S'Wave Your Flag'
p2984
ssS'1EaKU4dMbesXXd3BrLCtYG'
p2985
(dp2986
g3
S'Kendrick Lamar'
p2987
sg5
I1
sg6
S'https://open.spotify.com/track/1EaKU4dMbesXXd3BrLCtYG'
p2988
sg8
S'ELEMENT.'
p2989
ssS'5K90WsjML7Etdwzzke9Dme'
p2990
(dp2991
g3
S'No Party For Cao Dong'
p2992
sg5
I7
sg6
S'https://open.spotify.com/track/5K90WsjML7Etdwzzke9Dme'
p2993
sg8
S'\xe5\x8b\x87\xe6\x95\xa2\xe7\x9a\x84\xe4\xba\xba'
p2994
ssS'3aQhZFzGoX0OQslPzdoiIg'
p2995
(dp2996
g3
S'Will Pan'
p2997
sg5
I2
sg6
S'https://open.spotify.com/track/3aQhZFzGoX0OQslPzdoiIg'
p2998
sg8
S'Coming Home'
p2999
ssS'2byvjijA9QWZZRIrW4cIn9'
p3000
(dp3001
g3
S'Mayday'
p3002
sg5
I2
sg6
S'https://open.spotify.com/track/2byvjijA9QWZZRIrW4cIn9'
p3003
sg8
S'\xe4\xb9\xbe\xe6\x9d\xaf'
p3004
ssS'5UJshy5HDHdNEVqlJwzsQB'
p3005
(dp3006
g3
S'Bruno Mars'
p3007
sg5
I2
sg6
S'https://open.spotify.com/track/5UJshy5HDHdNEVqlJwzsQB'
p3008
sg8
S'Versace On The Floor (Bruno Mars vs. David Guetta)'
p3009
ssS'3IEHJ5lWMxExmrn2zlhcVu'
p3010
(dp3011
g3
S'Fall Out Boy'
p3012
sg5
I1
sg6
S'https://open.spotify.com/track/3IEHJ5lWMxExmrn2zlhcVu'
p3013
sg8
S'Champion'
p3014
ssS'73w2RuzUEYs3o9lfkvbKQ4'
p3015
(dp3016
g3
S'OneRepublic'
p3017
sg5
I1
sg6
S'https://open.spotify.com/track/73w2RuzUEYs3o9lfkvbKQ4'
p3018
sg8
S'Truth To Power'
p3019
ssS'7ynCQo1KpBOyTdTdAnjSLZ'
p3020
(dp3021
g3
S'Sia'
p3022
sg5
I1
sg6
S'https://open.spotify.com/track/7ynCQo1KpBOyTdTdAnjSLZ'
p3023
sg8
S'Move Your Body - Single Mix'
p3024
ssS'1sYSP7gKa5kdKIfhANfori'
p3025
(dp3026
g3
S'MAX'
p3027
sg5
I9
sg6
S'https://open.spotify.com/track/1sYSP7gKa5kdKIfhANfori'
p3028
sg8
S'Lights Down Low'
p3029
ssS'5Ohxk2dO5COHF1krpoPigN'
p3030
(dp3031
g3
S'Harry Styles'
p3032
sg5
I15
sg6
S'https://open.spotify.com/track/5Ohxk2dO5COHF1krpoPigN'
p3033
sg8
S'Sign of the Times'
p3034
ssS'71P1N0X76YtZMbBIGG47un'
p3035
(dp3036
g3
S'Alok'
p3037
sg5
I1
sg6
S'https://open.spotify.com/track/71P1N0X76YtZMbBIGG47un'
p3038
sg8
S'Big Jet Plane'
p3039
ssS'2NHSYwGkAvPHzCinY0KwXo'
p3040
(dp3041
g3
S'Ed Sheeran'
p3042
sg5
I1
sg6
S'https://open.spotify.com/track/2NHSYwGkAvPHzCinY0KwXo'
p3043
sg8
S'Shape of You - Stormzy Remix'
p3044
ssS'4ULpb9FXugNqQtv6K6tlUk'
p3045
(dp3046
g3
S'Eve Ai'
p3047
sg5
I16
sg6
S'https://open.spotify.com/track/4ULpb9FXugNqQtv6K6tlUk'
p3048
sg8
S'\xe6\x88\x91\xe5\x80\x91\xe7\x9a\x84\xe7\xb8\xbd\xe5\x92\x8c'
p3049
ssS'0HpVxENhdCmFyTtf08th8s'
p3050
(dp3051
g3
S'TAEYEON'
p3052
sg5
I2
sg6
S'https://open.spotify.com/track/0HpVxENhdCmFyTtf08th8s'
p3053
sg8
S'\xeb\x82\xa0\xea\xb0\x9c Feel So Fine'
p3054
ssS'42NpUvd0I2kdIuMXX4nobE'
p3055
(dp3056
g3
S'Nick Jonas'
p3057
sg5
I1
sg6
S'https://open.spotify.com/track/42NpUvd0I2kdIuMXX4nobE'
p3058
sg8
S'Remember I Told You'
p3059
ssS'7FCfMXYTIiQ9b4hDYs4Iol'
p3060
(dp3061
g3
S'Dua Lipa'
p3062
sg5
I8
sg6
S'https://open.spotify.com/track/7FCfMXYTIiQ9b4hDYs4Iol'
p3063
sg8
S'Be The One'
p3064
ssS'4mxWSdf71VFO52qFeY0fZt'
p3065
(dp3066
g3
S'Maroon 5'
p3067
sg5
I6
sg6
S'https://open.spotify.com/track/4mxWSdf71VFO52qFeY0fZt'
p3068
sg8
S'What Lovers Do (feat. SZA)'
p3069
ssS'1ADjWm8QNhgNV8yCNNgQ1T'
p3070
(dp3071
g3
S'Ariana Grande'
p3072
sg5
I1
sg6
S'https://open.spotify.com/track/1ADjWm8QNhgNV8yCNNgQ1T'
p3073
sg8
S'Santa Tell Me'
p3074
ssS'4Hf7WnR761jpxPr5D46Bcd'
p3075
(dp3076
g3
S'Shawn Mendes'
p3077
sg5
I37
sg6
S'https://open.spotify.com/track/4Hf7WnR761jpxPr5D46Bcd'
p3078
sg8
S'Treat You Better'
p3079
ssS'4fhVodXZARPX0oTuQh8V9l'
p3080
(dp3081
g3
S'Astrid S'
p3082
sg5
I1
sg6
S'https://open.spotify.com/track/4fhVodXZARPX0oTuQh8V9l'
p3083
sg8
S'Breathe'
p3084
ssS'5HYBtE4U1oBmak8WoItiqJ'
p3085
(dp3086
g3
S'Mayday'
p3087
sg5
I2
sg6
S'https://open.spotify.com/track/5HYBtE4U1oBmak8WoItiqJ'
p3088
sg8
S'\xe6\x93\x81\xe6\x8a\xb1'
p3089
ssS'7wGoVu4Dady5GV0Sv4UIsx'
p3090
(dp3091
g3
S'Post Malone'
p3092
sg5
I1
sg6
S'https://open.spotify.com/track/7wGoVu4Dady5GV0Sv4UIsx'
p3093
sg8
S'rockstar'
p3094
ssS'5vz6fHKEltfHD8fJux38bb'
p3095
(dp3096
g3
S'No Party For Cao Dong'
p3097
sg5
I6
sg6
S'https://open.spotify.com/track/5vz6fHKEltfHD8fJux38bb'
p3098
sg8
S'\xe8\x89\xbe\xe7\x91\xaa'
p3099
ssS'7GmbugguDugdp6TCMBWdft'
p3100
(dp3101
g3
S'Ronghao Li'
p3102
sg5
I3
sg6
S'https://open.spotify.com/track/7GmbugguDugdp6TCMBWdft'
p3103
sg8
S'\xe6\x88\x91\xe7\x9c\x8b\xe8\x91\x97\xe4\xbd\xa0\xe7\x9a\x84\xe6\x99\x82\xe5\x80\x99'
p3104
ssS'450X3NhtLIVmYeMEIkV3mj'
p3105
(dp3106
g3
S'Lana Del Rey'
p3107
sg5
I1
sg6
S'https://open.spotify.com/track/450X3NhtLIVmYeMEIkV3mj'
p3108
sg8
S'Groupie Love (feat. A$AP Rocky)'
p3109
ssS'7cAzfu4sB1xF3f44Rrtldh'
p3110
(dp3111
g3
S'Maggie Chiang'
p3112
sg5
I2
sg6
S'https://open.spotify.com/track/7cAzfu4sB1xF3f44Rrtldh'
p3113
sg8
S'\xe9\x81\x87\xe4\xb8\x8d\xe5\x88\xb0 (Live) - Live'
p3114
ssS'5ubfQzhabDSLYyohz2ozaN'
p3115
(dp3116
g3
S'Red Velvet'
p3117
sg5
I3
sg6
S'https://open.spotify.com/track/5ubfQzhabDSLYyohz2ozaN'
p3118
sg8
S'Rookie'
p3119
ssS'2mqHMawyHWU5B5f2wA299P'
p3120
(dp3121
g3
S'A-Lin'
p3122
sg5
I19
sg6
S'https://open.spotify.com/track/2mqHMawyHWU5B5f2wA299P'
p3123
sg8
S'\xe6\x84\x9b \xe8\xab\x8b\xe5\x95\x8f\xe6\x80\x8e\xe9\xba\xbc\xe8\xb5\xb0'
p3124
ssS'6vSforRhuzsA0D0SO9fG1S'
p3125
(dp3126
g3
S'Charlie Puth'
p3127
sg5
I6
sg6
S'https://open.spotify.com/track/6vSforRhuzsA0D0SO9fG1S'
p3128
sg8
S'One Call Away'
p3129
ssS'69uxyAqqPIsUyTO8txoP2M'
p3130
(dp3131
g3
S'Coldplay'
p3132
sg5
I5
sg6
S'https://open.spotify.com/track/69uxyAqqPIsUyTO8txoP2M'
p3133
sg8
S'Adventure Of A Lifetime'
p3134
ssS'25ICsH1ZdAfUXHlnWKkiwd'
p3135
(dp3136
g3
S'Eli Hsieh'
p3137
sg5
I20
sg6
S'https://open.spotify.com/track/25ICsH1ZdAfUXHlnWKkiwd'
p3138
sg8
S'\xe4\xbd\xa0\xe7\x9a\x84\xe8\xa1\x8c\xe6\x9d\x8e'
p3139
ssS'1MksGqIztTT6M9R1ErKVs8'
p3140
(dp3141
g3
S'Big Sean'
p3142
sg5
I1
sg6
S'https://open.spotify.com/track/1MksGqIztTT6M9R1ErKVs8'
p3143
sg8
S'No Favors'
p3144
ssS'1Fw89KWIgMZyEpjCUY3DT9'
p3145
(dp3146
g3
S'J.Sheon'
p3147
sg5
I8
sg6
S'https://open.spotify.com/track/1Fw89KWIgMZyEpjCUY3DT9'
p3148
sg8
S"You'll Never Know"
p3149
ssS'5RRjo7lgYYJYaNstEAAthv'
p3150
(dp3151
g3
S'Ronghao Li'
p3152
sg5
I15
sg6
S'https://open.spotify.com/track/5RRjo7lgYYJYaNstEAAthv'
p3153
sg8
S'\xe5\xb0\xb1\xe9\x80\x99\xe6\xa8\xa3'
p3154
ssS'7xHWNBFm6ObGEQPaUxHuKO'
p3155
(dp3156
g3
S'Sia'
p3157
sg5
I7
sg6
S'https://open.spotify.com/track/7xHWNBFm6ObGEQPaUxHuKO'
p3158
sg8
S'The Greatest'
p3159
ssS'2fXH2iei02pBaSIdn5X4zJ'
p3160
(dp3161
g3
S'Ryan Gosling'
p3162
sg5
I8
sg6
S'https://open.spotify.com/track/2fXH2iei02pBaSIdn5X4zJ'
p3163
sg8
S'A Lovely Night - From La La Land Soundtrack'
p3164
ssS'5knuzwU65gJK7IF5yJsuaW'
p3165
(dp3166
g3
S'Clean Bandit'
p3167
sg5
I41
sg6
S'https://open.spotify.com/track/5knuzwU65gJK7IF5yJsuaW'
p3168
sg8
S'Rockabye (feat. Sean Paul & Anne-Marie)'
p3169
ssS'7aF09WaavZAmAWuUeYxlYD'
p3170
(dp3171
g3
S'OneRepublic'
p3172
sg5
I13
sg6
S'https://open.spotify.com/track/7aF09WaavZAmAWuUeYxlYD'
p3173
sg8
S'Rich Love (with Seeb)'
p3174
ssS'2uSLx5uwRIhiA3sJJraNqX'
p3175
(dp3176
g3
S'Maroon 5'
p3177
sg5
I1
sg6
S'https://open.spotify.com/track/2uSLx5uwRIhiA3sJJraNqX'
p3178
sg8
S'Help Me Out (with Julia Michaels)'
p3179
ssS'67QGnT1Vdfuuy4HkLTUVjj'
p3180
(dp3181
g3
S'TAEYEON'
p3182
sg5
I15
sg6
S'https://open.spotify.com/track/67QGnT1Vdfuuy4HkLTUVjj'
p3183
sg8
S'11:11'
p3184
ssS'3HVr6jTVwBHBa2flM0eURR'
p3185
(dp3186
g3
S'Macklemore'
p3187
sg5
I9
sg6
S'https://open.spotify.com/track/3HVr6jTVwBHBa2flM0eURR'
p3188
sg8
S'Glorious (feat. Skylar Grey)'
p3189
ssS'14WWzenpaEgQZlqPq2nk4v'
p3190
(dp3191
g3
S'Rihanna'
p3192
sg5
I2
sg6
S'https://open.spotify.com/track/14WWzenpaEgQZlqPq2nk4v'
p3193
sg8
S'Work'
p3194
ssS'6b8Be6ljOzmkOmFslEb23P'
p3195
(dp3196
g3
S'Bruno Mars'
p3197
sg5
I15
sg6
S'https://open.spotify.com/track/6b8Be6ljOzmkOmFslEb23P'
p3198
sg8
S'24K Magic'
p3199
ssS'45OALDywAY1JVLqI8eKF9y'
p3200
(dp3201
g3
S'Bebe Rexha'
p3202
sg5
I1
sg6
S'https://open.spotify.com/track/45OALDywAY1JVLqI8eKF9y'
p3203
sg8
S'Atmosphere'
p3204
ssS'0bYg9bo50gSsH3LtXe2SQn'
p3205
(dp3206
g3
S'Mariah Carey'
p3207
sg5
I1
sg6
S'https://open.spotify.com/track/0bYg9bo50gSsH3LtXe2SQn'
p3208
sg8
S'All I Want for Christmas Is You'
p3209
ssS'6uJwPeBGb3swi85TSr9iIz'
p3210
(dp3211
g3
S'Coldplay'
p3212
sg5
I2
sg6
S'https://open.spotify.com/track/6uJwPeBGb3swi85TSr9iIz'
p3213
sg8
S'Miracles (Someone Special)'
p3214
ssS'1839RWzPRZCVgvamu4sHSN'
p3215
(dp3216
g3
S'Cash Cash'
p3217
sg5
I13
sg6
S'https://open.spotify.com/track/1839RWzPRZCVgvamu4sHSN'
p3218
sg8
S'All My Love (feat. Conor Maynard)'
p3219
ssS'5gEv415M08g3s1dil727VF'
p3220
(dp3221
g3
S'Wu Bai'
p3222
sg5
I5
sg6
S'https://open.spotify.com/track/5gEv415M08g3s1dil727VF'
p3223
sg8
S'\xe9\x87\x98\xe5\xad\x90\xe8\x8a\xb1'
p3224
ssS'07MNtfddtgCo6VrUm3O9dw'
p3225
(dp3226
g3
S'Eason Chan'
p3227
sg5
I18
sg6
S'https://open.spotify.com/track/07MNtfddtgCo6VrUm3O9dw'
p3228
sg8
S'\xe8\xae\x93\xe6\x88\x91\xe7\x95\x99\xe5\x9c\xa8\xe4\xbd\xa0\xe8\xba\xab\xe9\x82\x8a'
p3229
ssS'4tIaYkMLoNNJEuYtdVqEmZ'
p3230
(dp3231
g3
S'Z-Chen'
p3232
sg5
I3
sg6
S'https://open.spotify.com/track/4tIaYkMLoNNJEuYtdVqEmZ'
p3233
sg8
S'\xe7\x98\x80\xe9\x9d\x92'
p3234
ssS'3gZ8MaUydTMX27teBh1L22'
p3235
(dp3236
g3
S'LaLa Hsu'
p3237
sg5
I18
sg6
S'https://open.spotify.com/track/3gZ8MaUydTMX27teBh1L22'
p3238
sg8
S'\xe6\xb5\xaa\xe8\xb2\xbb'
p3239
ssS'42I0KSHHaN51Q9KgQ0MhPT'
p3240
(dp3241
g3
S'Mayday'
p3242
sg5
I6
sg6
S'https://open.spotify.com/track/42I0KSHHaN51Q9KgQ0MhPT'
p3243
sg8
S'\xe6\x88\x90\xe5\x90\x8d\xe5\x9c\xa8\xe6\x9c\x9b'
p3244
ssS'16JnRultn7tptNHMBe94w3'
p3245
(dp3246
g3
S'Crowd Lu'
p3247
sg5
I7
sg6
S'https://open.spotify.com/track/16JnRultn7tptNHMBe94w3'
p3248
sg8
S'\xe4\xb8\x80\xe5\xae\x9a\xe8\xa6\x81\xe7\x9b\xb8\xe4\xbf\xa1\xe8\x87\xaa\xe5\xb7\xb1'
p3249
ssS'6rRtiujgKHYesXiAEVLjMm'
p3250
(dp3251
g3
S'G-DRAGON'
p3252
sg5
I1
sg6
S'https://open.spotify.com/track/6rRtiujgKHYesXiAEVLjMm'
p3253
sg8
S'OUTRO. \xec\x8b\xa0\xea\xb3\xa1(\xe7\xa5\x9e\xe6\x9b\xb2) (Divina Commedia)'
p3254
ssS'0o7glLPfZgns8ZF14Wlpf7'
p3255
(dp3256
g3
S'Kelly Clarkson'
p3257
sg5
I1
sg6
S'https://open.spotify.com/track/0o7glLPfZgns8ZF14Wlpf7'
p3258
sg8
S'Love So Soft'
p3259
ssS'47buYhvYRsdJf2cPMEWyL1'
p3260
(dp3261
g3
S'Faye \xe9\xa3\x9b'
p3262
sg5
I3
sg6
S'https://open.spotify.com/track/47buYhvYRsdJf2cPMEWyL1'
p3263
sg8
S'\xe6\xb2\xb3\xe7\x95\x94'
p3264
ssS'4Vs6evFt0o7M7So21aJr2l'
p3265
(dp3266
g3
S'Fish Leong'
p3267
sg5
I1
sg6
S'https://open.spotify.com/track/4Vs6evFt0o7M7So21aJr2l'
p3268
sg8
S'\xe7\xa7\x98\xe6\x9e\x9c'
p3269
ssS'6HZILIRieu8S0iqY8kIKhj'
p3270
(dp3271
g3
S'Kendrick Lamar'
p3272
sg5
I9
sg6
S'https://open.spotify.com/track/6HZILIRieu8S0iqY8kIKhj'
p3273
sg8
S'DNA.'
p3274
ssS'4NPARrLIbtMl29ZJv8ESr2'
p3275
(dp3276
g3
S'IU'
p3277
sg5
I2
sg6
S'https://open.spotify.com/track/4NPARrLIbtMl29ZJv8ESr2'
p3278
sg8
S'dlwlrma'
p3279
ssS'5MvxeZPiiLAuB5gI8k3ynk'
p3280
(dp3281
g3
S'IU'
p3282
sg5
I6
sg6
S'https://open.spotify.com/track/5MvxeZPiiLAuB5gI8k3ynk'
p3283
sg8
S"Can't Love You Anymore (With OHHYUK)"
p3284
ssS'2VttyNxWsQdSEl20i7Z7a7'
p3285
(dp3286
g3
S'Mayday'
p3287
sg5
I1
sg6
S'https://open.spotify.com/track/2VttyNxWsQdSEl20i7Z7a7'
p3288
sg8
S'\xe6\x88\x91\xe5\xbf\x83\xe4\xb8\xad\xe5\xb0\x9a\xe6\x9c\xaa\xe5\xb4\xa9\xe5\xa3\x9e\xe7\x9a\x84\xe5\x9c\xb0\xe6\x96\xb9'
p3289
ssS'7F9vK8hNFMml4GtHsaXui6'
p3290
(dp3291
g3
S'Louis Tomlinson'
p3292
sg5
I12
sg6
S'https://open.spotify.com/track/7F9vK8hNFMml4GtHsaXui6'
p3293
sg8
S'Back to You (feat. Bebe Rexha & Digital Farm Animals)'
p3294
ssS'11Fo4dAH31K7UZHGqCkCmE'
p3295
(dp3296
g3
S'Axwell /\\ Ingrosso'
p3297
sg5
I3
sg6
S'https://open.spotify.com/track/11Fo4dAH31K7UZHGqCkCmE'
p3298
sg8
S'I Love You'
p3299
ssS'3OHlLBozISkDzrLvmMbDWO'
p3300
(dp3301
g3
S'Rain Lee'
p3302
sg5
I2
sg6
S'https://open.spotify.com/track/3OHlLBozISkDzrLvmMbDWO'
p3303
sg8
S'\xe5\xa7\x8a\xe5\xa7\x8a'
p3304
ssS'2Un7JWfHNJOE0MUwzznzbS'
p3305
(dp3306
g3
S'Bae Fong'
p3307
sg5
I2
sg6
S'https://open.spotify.com/track/2Un7JWfHNJOE0MUwzznzbS'
p3308
sg8
S'\xe7\xa7\x98\xe8\xaa\x9e - \xe5\x8e\x9f\xe5\x94\xb1\xe4\xbd\x9c\xe7\x89\x88'
p3309
ssS'0B48113ZG9UfkWWt7qD9xX'
p3310
(dp3311
g3
S'Miley Cyrus'
p3312
sg5
I1
sg6
S'https://open.spotify.com/track/0B48113ZG9UfkWWt7qD9xX'
p3313
sg8
S'Younger Now'
p3314
ssS'62B73OiAcokQa8QL5kLrmC'
p3315
(dp3316
g3
S'Huang Yali'
p3317
sg5
I12
sg6
S'https://open.spotify.com/track/62B73OiAcokQa8QL5kLrmC'
p3318
sg8
S'\xe7\xb5\xa6\xe7\x9c\xbc\xe6\xb7\x9a\xe4\xb8\x80\xe9\xbb\x9e\xe6\x99\x82\xe9\x96\x93'
p3319
ssS'7soE9e9iQ4yzdNi7XNmHdM'
p3320
(dp3321
g3
S'Mayday'
p3322
sg5
I1
sg6
S'https://open.spotify.com/track/7soE9e9iQ4yzdNi7XNmHdM'
p3323
sg8
S'\xe4\xba\xba\xe7\x94\x9f\xe6\x9c\x89\xe9\x99\x90\xe5\x85\xac\xe5\x8f\xb8'
p3324
ssS'3B54sVLJ402zGa6Xm4YGNe'
p3325
(dp3326
g3
S'French Montana'
p3327
sg5
I14
sg6
S'https://open.spotify.com/track/3B54sVLJ402zGa6Xm4YGNe'
p3328
sg8
S'Unforgettable'
p3329
ssS'32DGGj6KlNuBr6WaqRxpxi'
p3330
(dp3331
g3
S'Charlie Puth'
p3332
sg5
I1
sg6
S'https://open.spotify.com/track/32DGGj6KlNuBr6WaqRxpxi'
p3333
sg8
S'How Long'
p3334
ssS'0ug5NqcwcFR2xrfTkc7k8e'
p3335
(dp3336
g3
S'Taylor Swift'
p3337
sg5
I1
sg6
S'https://open.spotify.com/track/0ug5NqcwcFR2xrfTkc7k8e'
p3338
sg8
S'Style'
p3339
ssS'5qfZRNjt2TkHEL12r3sDEU'
p3340
(dp3341
g3
S'Coldplay'
p3342
sg5
I4
sg6
S'https://open.spotify.com/track/5qfZRNjt2TkHEL12r3sDEU'
p3343
sg8
S'Everglow'
p3344
ssS'6gpcs5eMhJwax4mIfKDYQk'
p3345
(dp3346
g3
S'Calvin Harris'
p3347
sg5
I4
sg6
S'https://open.spotify.com/track/6gpcs5eMhJwax4mIfKDYQk'
p3348
sg8
S'Slide'
p3349
ssS'5bcTCxgc7xVfSaMV3RuVke'
p3350
(dp3351
g3
S'Calvin Harris'
p3352
sg5
I16
sg6
S'https://open.spotify.com/track/5bcTCxgc7xVfSaMV3RuVke'
p3353
sg8
S'Feels'
p3354
ssS'0QsvXIfqM0zZoerQfsI9lm'
p3355
(dp3356
g3
S'The Chainsmokers'
p3357
sg5
I42
sg6
S'https://open.spotify.com/track/0QsvXIfqM0zZoerQfsI9lm'
p3358
sg8
S"Don't Let Me Down"
p3359
ssS'4bh8MEA9GSIpjQinouyKcD'
p3360
(dp3361
g3
S'\xe8\x95\xad\xe9\x96\x8e\xe4\xbb\x81'
p3362
sg5
I18
sg6
S'https://open.spotify.com/track/4bh8MEA9GSIpjQinouyKcD'
p3363
sg8
S'\xe4\xbd\xa0\xe6\x9c\x80\xe5\x9c\xa8\xe4\xb9\x8e\xe7\x9a\x84\xe4\xba\x8b'
p3364
ssS'2CbvW8kgNDByBIQbFY0h3i'
p3365
(dp3366
g3
S'TAEYEON'
p3367
sg5
I1
sg6
S'https://open.spotify.com/track/2CbvW8kgNDByBIQbFY0h3i'
p3368
sg8
S'Sweet Love'
p3369
ssS'0fioLzGM8ngbD1w6fMmm45'
p3370
(dp3371
g3
S'Sam Smith'
p3372
sg5
I2
sg6
S'https://open.spotify.com/track/0fioLzGM8ngbD1w6fMmm45'
p3373
sg8
S"I'm Not The Only One"
p3374
ssS'4qqArAiTPueDxIp7cf87h7'
p3375
(dp3376
g3
S'M\xc3\x98'
p3377
sg5
I1
sg6
S'https://open.spotify.com/track/4qqArAiTPueDxIp7cf87h7'
p3378
sg8
S'Final Song'
p3379
ssS'6xHrD5K5nWsyiUMATl0ror'
p3380
(dp3381
g3
S'Hu Xia'
p3382
sg5
I6
sg6
S'https://open.spotify.com/track/6xHrD5K5nWsyiUMATl0ror'
p3383
sg8
S'\xe5\xa4\x8f\xe8\x87\xb3\xe6\x9c\xaa\xe8\x87\xb3 - \xe9\x9b\xbb\xe8\xa6\x96\xe5\x8a\x87\xe5\xa4\x8f\xe8\x87\xb3\xe6\x9c\xaa\xe8\x87\xb3\xe5\x90\x8c\xe5\x90\x8d\xe4\xb8\xbb\xe9\xa1\x8c\xe6\x9b\xb2'
p3384
ssS'06FmV54Khr2uKbMr4IfJ7I'
p3385
(dp3386
g3
S'Eason Chan'
p3387
sg5
I1
sg6
S'https://open.spotify.com/track/06FmV54Khr2uKbMr4IfJ7I'
p3388
sg8
S'\xe8\xaa\xb0\xe4\xbe\x86\xe5\x89\xaa\xe6\x9c\x88\xe5\x85\x89'
p3389
ssS'2nLtzopw4rPReszdYBJU6h'
p3390
(dp3391
g3
S'Linkin Park'
p3392
sg5
I3
sg6
S'https://open.spotify.com/track/2nLtzopw4rPReszdYBJU6h'
p3393
sg8
S'Numb'
p3394
ssS'2obwTBmNiyOVDj7sU1phcD'
p3395
(dp3396
g3
S'Eve Ai'
p3397
sg5
I1
sg6
S'https://open.spotify.com/track/2obwTBmNiyOVDj7sU1phcD'
p3398
sg8
S'\xe6\x8b\xbc\xe5\x9c\x96'
p3399
ssS'3a1lNhkSLSkpJE4MSHpDu9'
p3400
(dp3401
g3
S'Post Malone'
p3402
sg5
I33
sg6
S'https://open.spotify.com/track/3a1lNhkSLSkpJE4MSHpDu9'
p3403
sg8
S'Congratulations'
p3404
ssS'2h9L3U6h3jnfOpIAj8E86H'
p3405
(dp3406
g3
S'Tove Lo'
p3407
sg5
I1
sg6
S'https://open.spotify.com/track/2h9L3U6h3jnfOpIAj8E86H'
p3408
sg8
S'Disco Tits'
p3409
ssS'1yBXM5UQikrweJN9iumrMq'
p3410
(dp3411
g3
S'Crowd Lu'
p3412
sg5
I8
sg6
S'https://open.spotify.com/track/1yBXM5UQikrweJN9iumrMq'
p3413
sg8
S'\xe6\x85\xa2\xe9\x9d\x88\xe9\xad\x82'
p3414
ssS'36RTpeIUtwFkfR8w0zqLJ7'
p3415
(dp3416
g3
S'\xe6\x96\xb9\xe7\x82\xaf\xe9\x91\x8c'
p3417
sg5
I2
sg6
S'https://open.spotify.com/track/36RTpeIUtwFkfR8w0zqLJ7'
p3418
sg8
S'\xe6\x88\x91\xe4\xb8\x8d\xe6\x98\xaf\xe7\xa5\x9e'
p3419
ssS'1bkvGbgK4HU8B7Ue4k7O7I'
p3420
(dp3421
g3
S'G.E.M.'
p3422
sg5
I41
sg6
S'https://open.spotify.com/track/1bkvGbgK4HU8B7Ue4k7O7I'
p3423
sg8
S'\xe5\x85\x89\xe5\xb9\xb4\xe4\xb9\x8b\xe5\xa4\x96 (\xe9\x9b\xbb\xe5\xbd\xb1 \xe3\x80\x8aPassengers\xe3\x80\x8b \xe4\xb8\xad\xe5\x9c\x8b\xe5\x8d\x80\xe4\xb8\xbb\xe9\xa1\x8c\xe6\x9b\xb2)'
p3424
ssS'0kcYzEvagMWsp9wL6RxW90'
p3425
(dp3426
g3
S'Cheer Chen'
p3427
sg5
I1
sg6
S'https://open.spotify.com/track/0kcYzEvagMWsp9wL6RxW90'
p3428
sg8
S'\xe6\x97\x85\xe8\xa1\x8c\xe7\x9a\x84\xe6\x84\x8f\xe7\xbe\xa9'
p3429
ssS'79NlESqzFSW0hdBWgls4FX'
p3430
(dp3431
g3
S'Kesha'
p3432
sg5
I5
sg6
S'https://open.spotify.com/track/79NlESqzFSW0hdBWgls4FX'
p3433
sg8
S'Praying'
p3434
ssS'0ofbQMrRDsUaVKq2mGLEAb'
p3435
(dp3436
g3
S'Camila Cabello'
p3437
sg5
I10
sg6
S'https://open.spotify.com/track/0ofbQMrRDsUaVKq2mGLEAb'
p3438
sg8
S'Havana'
p3439
ssS'7cQMJ0wDqVS5iM0JIvP6Ay'
p3440
(dp3441
g3
S'Fall Out Boy'
p3442
sg5
I4
sg6
S'https://open.spotify.com/track/7cQMJ0wDqVS5iM0JIvP6Ay'
p3443
sg8
S'The Last Of The Real Ones'
p3444
ssS'6vaDtpLtwuSY1H3KHWuRmB'
p3445
(dp3446
g3
S'Cyndi Wang'
p3447
sg5
I6
sg6
S'https://open.spotify.com/track/6vaDtpLtwuSY1H3KHWuRmB'
p3448
sg8
S'\xe7\x95\xb6\xe4\xbd\xa0'
p3449
ssS'4QGYRrk7PPXJ3hEsn1BIRu'
p3450
(dp3451
g3
S'Eli Hsieh'
p3452
sg5
I15
sg6
S'https://open.spotify.com/track/4QGYRrk7PPXJ3hEsn1BIRu'
p3453
sg8
S'\xe7\x87\x88\xe5\x85\x89'
p3454
ssS'6bLopGnirdrilrpdVB6Um1'
p3455
(dp3456
g3
S'Sia'
p3457
sg5
I2
sg6
S'https://open.spotify.com/track/6bLopGnirdrilrpdVB6Um1'
p3458
sg8
S'The Greatest'
p3459
ssS'4fk5DpvG4qZBUVtK4DYn4N'
p3460
(dp3461
g3
S'Joker Xue'
p3462
sg5
I3
sg6
S'https://open.spotify.com/track/4fk5DpvG4qZBUVtK4DYn4N'
p3463
sg8
S'\xe6\x9b\x96\xe6\x98\xa7'
p3464
ssS'5kasuQTaCG7cYfE1wZA4DO'
p3465
(dp3466
g3
S'G.E.M.'
p3467
sg5
I4
sg6
S'https://open.spotify.com/track/5kasuQTaCG7cYfE1wZA4DO'
p3468
sg8
S'\xe7\xa9\xbf\xe8\xb6\x8a\xe7\x81\xab\xe7\xb7\x9a -\xe3\x80\x8a\xe7\xa9\xbf\xe8\xb6\x8a\xe7\x81\xab\xe7\xb7\x9a\xe3\x80\x8b\xe6\xb8\xb8\xe6\x88\xb2\xe4\xb8\xbb\xe9\xa1\x8c\xe6\x9b\xb2'
p3469
ssS'2gzEZzHEnTY8b0Rp69cu9Y'
p3470
(dp3471
g3
S'Kelly Poon'
p3472
sg5
I4
sg6
S'https://open.spotify.com/track/2gzEZzHEnTY8b0Rp69cu9Y'
p3473
sg8
S'\xe9\x82\x84\xe8\x83\xbd\xe6\x93\x81\xe6\x8a\xb1 - \xe9\x9b\xbb\xe8\xa6\x96\xe5\x8a\x87\xe3\x80\x8a\xe9\x90\x98\xe6\xa8\x93\xe6\x84\x9b\xe4\xba\xba\xe3\x80\x8b\xe6\x8f\x92\xe6\x9b\xb2'
p3474
ssS'6m8bgfRORTmgAAatOZ2kJ5'
p3475
(dp3476
g3
S"iT's"
p3477
sg5
I1
sg6
S'https://open.spotify.com/track/6m8bgfRORTmgAAatOZ2kJ5'
p3478
sg8
S'Show Time'
p3479
ssS'1vvNmPOiUuyCbgWmtc6yfm'
p3480
(dp3481
g3
S'Calvin Harris'
p3482
sg5
I10
sg6
S'https://open.spotify.com/track/1vvNmPOiUuyCbgWmtc6yfm'
p3483
sg8
S'My Way'
p3484
ssS'7DQXiMeLqiQsy1uqHSk0xc'
p3485
(dp3486
g3
S'Shawn Hook'
p3487
sg5
I3
sg6
S'https://open.spotify.com/track/7DQXiMeLqiQsy1uqHSk0xc'
p3488
sg8
S'Reminding Me'
p3489
ssS'4i1vPc4bueC4As3yQwcPjD'
p3490
(dp3491
g3
S'Tanya Chua'
p3492
sg5
I3
sg6
S'https://open.spotify.com/track/4i1vPc4bueC4As3yQwcPjD'
p3493
sg8
S'\xe5\xa4\xb1\xe8\xaa\x9e\xe8\x80\x85'
p3494
ssS'1gapVB9DEFDlhLyqKnADBz'
p3495
(dp3496
g3
S'Eason Chan'
p3497
sg5
I3
sg6
S'https://open.spotify.com/track/1gapVB9DEFDlhLyqKnADBz'
p3498
sg8
S'\xe6\x94\xbe'
p3499
ssS'6QAn6Crff7sfcqC83fH7dd'
p3500
(dp3501
g3
S'Nana Lee'
p3502
sg5
I27
sg6
S'https://open.spotify.com/track/6QAn6Crff7sfcqC83fH7dd'
p3503
sg8
S'\xe4\xb8\x8d\xe6\x9b\xbe\xe5\x9b\x9e\xe4\xbe\x86\xe9\x81\x8e - \xe9\x9b\xbb\xe8\xa6\x96\xe5\x8a\x87\xe9\x80\x9a\xe9\x9d\x88\xe5\xb0\x91\xe5\xa5\xb3\xe6\x8f\x92\xe6\x9b\xb2'
p3504
ssS'46rvJ45wk3IqapAdBfFyWt'
p3505
(dp3506
g3
S'\xe5\xb0\x8fS'
p3507
sg5
I1
sg6
S'https://open.spotify.com/track/46rvJ45wk3IqapAdBfFyWt'
p3508
sg8
S'\xe5\xb0\x8f\xe6\x99\x82\xe5\x80\x99'
p3509
ssS'1Sl3njkhhz8nrSPZroDQ82'
p3510
(dp3511
g3
S'Dimitri Vegas & Like Mike'
p3512
sg5
I11
sg6
S'https://open.spotify.com/track/1Sl3njkhhz8nrSPZroDQ82'
p3513
sg8
S'Complicated (feat. Kiiara)'
p3514
ssS'3dJj6o9o1fRgrojWjailuz'
p3515
(dp3516
g3
S'Linkin Park'
p3517
sg5
I2
sg6
S'https://open.spotify.com/track/3dJj6o9o1fRgrojWjailuz'
p3518
sg8
S'Nobody Can Save Me'
p3519
ssS'57BrRMwf9LrcmuOsyGilwr'
p3520
(dp3521
g3
S'Linkin Park'
p3522
sg5
I1
sg6
S'https://open.spotify.com/track/57BrRMwf9LrcmuOsyGilwr'
p3523
sg8
S'Crawling'
p3524
ssS'5Orlnis8mwywCBgZG7VTjV'
p3525
(dp3526
g3
S'Hardwell'
p3527
sg5
I2
sg6
S'https://open.spotify.com/track/5Orlnis8mwywCBgZG7VTjV'
p3528
sg8
S'Creatures Of The Night'
p3529
ssS'23JBZdzeOJyj68rJiWhNfm'
p3530
(dp3531
g3
S'No Party For Cao Dong'
p3532
sg5
I15
sg6
S'https://open.spotify.com/track/23JBZdzeOJyj68rJiWhNfm'
p3533
sg8
S'\xe7\x88\x9b\xe6\xb3\xa5'
p3534
ssS'0afhq8XCExXpqazXczTSve'
p3535
(dp3536
g3
S'Ed Sheeran'
p3537
sg5
I32
sg6
S'https://open.spotify.com/track/0afhq8XCExXpqazXczTSve'
p3538
sg8
S'Galway Girl'
p3539
ssS'2ZE3DJuizYTad2S4CvRRhK'
p3540
(dp3541
g3
S'Lauv'
p3542
sg5
I1
sg6
S'https://open.spotify.com/track/2ZE3DJuizYTad2S4CvRRhK'
p3543
sg8
S'Easy Love'
p3544
ssS'2N5pde8e2q06HrdWB76Aqm'
p3545
(dp3546
g3
S'DNCE'
p3547
sg5
I1
sg6
S'https://open.spotify.com/track/2N5pde8e2q06HrdWB76Aqm'
p3548
sg8
S'Good Day - End Of The World Remix'
p3549
ssS'1NDxZ7cFAo481dtYWdrUnR'
p3550
(dp3551
g3
S'Maggie Lindemann'
p3552
sg5
I28
sg6
S'https://open.spotify.com/track/1NDxZ7cFAo481dtYWdrUnR'
p3553
sg8
S'Pretty Girl - Cheat Codes X CADE Remix'
p3554
ssS'2aFiaMXmWsM3Vj72F9ksBl'
p3555
(dp3556
g3
S'DNCE'
p3557
sg5
I4
sg6
S'https://open.spotify.com/track/2aFiaMXmWsM3Vj72F9ksBl'
p3558
sg8
S'Cake By The Ocean'
p3559
ssS'4KbwDvkJalLYtseKjyoDvA'
p3560
(dp3561
g3
S'Sodagreen'
p3562
sg5
I4
sg6
S'https://open.spotify.com/track/4KbwDvkJalLYtseKjyoDvA'
p3563
sg8
S'\xe4\xb8\x8b\xe9\x9b\xa8\xe7\x9a\x84\xe5\xa4\x9c\xe6\x99\x9a'
p3564
ssS'4TZy1wLyHec06pwgFYDh1a'
p3565
(dp3566
g3
S'Shawn Mendes'
p3567
sg5
I10
sg6
S'https://open.spotify.com/track/4TZy1wLyHec06pwgFYDh1a'
p3568
sg8
S'Mercy'
p3569
ssS'7mxwldUO8HTQqta3EmduEp'
p3570
(dp3571
g3
S'J.Sheon'
p3572
sg5
I10
sg6
S'https://open.spotify.com/track/7mxwldUO8HTQqta3EmduEp'
p3573
sg8
S'\xe5\x95\xb5\xe5\x95\xa6'
p3574
ssS'4NjWSzrWAiaREOV1ME2OCm'
p3575
(dp3576
g3
S'Ronghao Li'
p3577
sg5
I6
sg6
S'https://open.spotify.com/track/4NjWSzrWAiaREOV1ME2OCm'
p3578
sg8
S'\xe8\xa3\x99\xe5\xa7\x8a'
p3579
ssS'5qtSNy9cdlzMqQQyaOzH6U'
p3580
(dp3581
g3
S'BIGBANG'
p3582
sg5
I4
sg6
S'https://open.spotify.com/track/5qtSNy9cdlzMqQQyaOzH6U'
p3583
sg8
S'GIRLFRIEND'
p3584
ssS'2IfSPLPDW6RGosdB5huwAA'
p3585
(dp3586
g3
S'G.E.M.'
p3587
sg5
I42
sg6
S'https://open.spotify.com/track/2IfSPLPDW6RGosdB5huwAA'
p3588
sg8
S'\xe6\xb3\xa1\xe6\xb2\xab'
p3589
ssS'79OiRyrqPS6F4bnqlcLk4I'
p3590
(dp3591
g3
S'Aska Yang'
p3592
sg5
I3
sg6
S'https://open.spotify.com/track/79OiRyrqPS6F4bnqlcLk4I'
p3593
sg8
S'\xe5\x85\xb6\xe5\xaf\xa6\xe9\x83\xbd\xe6\xb2\x92\xe6\x9c\x89'
p3594
ssS'1UwERmn5UogyCz6qo21BmA'
p3595
(dp3596
g3
S"Girls' Generation"
p3597
sg5
I3
sg6
S'https://open.spotify.com/track/1UwERmn5UogyCz6qo21BmA'
p3598
sg8
S'All Night'
p3599
ssS'6EpRaXYhGOB3fj4V2uDkMJ'
p3600
(dp3601
g3
S'Liam Payne'
p3602
sg5
I21
sg6
S'https://open.spotify.com/track/6EpRaXYhGOB3fj4V2uDkMJ'
p3603
sg8
S'Strip That Down'
p3604
ssS'1FUViuNSldssMIawrOXF2i'
p3605
(dp3606
g3
S'Bebe Rexha'
p3607
sg5
I30
sg6
S'https://open.spotify.com/track/1FUViuNSldssMIawrOXF2i'
p3608
sg8
S'I Got You'
p3609
ssS'2DQHzXM5eKjunrgtcnsefC'
p3610
(dp3611
g3
S'Julie Bergan'
p3612
sg5
I1
sg6
S'https://open.spotify.com/track/2DQHzXM5eKjunrgtcnsefC'
p3613
sg8
S'Blackout'
p3614
ssS'4nyO1azSuhT5JrETvzEahs'
p3615
(dp3616
g3
S'Waa Wei'
p3617
sg5
I42
sg6
S'https://open.spotify.com/track/4nyO1azSuhT5JrETvzEahs'
p3618
sg8
S'\xe4\xbd\xa0\xe5\x95\x8a\xe4\xbd\xa0\xe5\x95\x8a'
p3619
ssS'7LQFqrhg2zchnDtYS3BqCG'
p3620
(dp3621
g3
S'Mayday'
p3622
sg5
I1
sg6
S'https://open.spotify.com/track/7LQFqrhg2zchnDtYS3BqCG'
p3623
sg8
S'\xe7\x9f\xa5\xe8\xb6\xb3'
p3624
ssS'14E6n9HZxLcv7M8UXSvhmu'
p3625
(dp3626
g3
S'Hardwell'
p3627
sg5
I5
sg6
S'https://open.spotify.com/track/14E6n9HZxLcv7M8UXSvhmu'
p3628
sg8
S'We Are One'
p3629
ssS'3cNjgVBKTJ1SvKhunrCdVy'
p3630
(dp3631
g3
S'Joel Adams'
p3632
sg5
I11
sg6
S'https://open.spotify.com/track/3cNjgVBKTJ1SvKhunrCdVy'
p3633
sg8
S"Please Don't Go"
p3634
ssS'4HN2lu14JqrBVT1OYinP8f'
p3635
(dp3636
g3
S'Roy Kim'
p3637
sg5
I5
sg6
S'https://open.spotify.com/track/4HN2lu14JqrBVT1OYinP8f'
p3638
sg8
S'HEAVEN'
p3639
ssS'542Xd5qDeLBvgXZXhfW7LE'
p3640
(dp3641
g3
S'Vice'
p3642
sg5
I1
sg6
S'https://open.spotify.com/track/542Xd5qDeLBvgXZXhfW7LE'
p3643
sg8
S'Obsession (feat. Jon Bellion)'
p3644
ssS'4Q4jmPHwu0wrJvqrld0FQ6'
p3645
(dp3646
g3
S'Zara Larsson'
p3647
sg5
I11
sg6
S'https://open.spotify.com/track/4Q4jmPHwu0wrJvqrld0FQ6'
p3648
sg8
S'I Would Like'
p3649
ssS'4mDGkFRAqaYosoyWUI7QzM'
p3650
(dp3651
g3
S'R-chord'
p3652
sg5
I18
sg6
S'https://open.spotify.com/track/4mDGkFRAqaYosoyWUI7QzM'
p3653
sg8
S'\xe5\x9c\xa8\xe6\xb2\x92\xe6\x9c\x89\xe4\xbd\xa0\xe4\xbb\xa5\xe5\xbe\x8c (feat. \xe5\xbc\xb5\xe6\x99\xba\xe6\x88\x90)'
p3654
ssS'7KXEhfjwdxHVra8VcT2QHH'
p3655
(dp3656
g3
S'BTS'
p3657
sg5
I2
sg6
S'https://open.spotify.com/track/7KXEhfjwdxHVra8VcT2QHH'
p3658
sg8
S'Skit: Billboard Music Awards Speech'
p3659
ssS'7yyRTcZmCiyzzJlNzGC9Ol'
p3660
(dp3661
g3
S'DRAM'
p3662
sg5
I2
sg6
S'https://open.spotify.com/track/7yyRTcZmCiyzzJlNzGC9Ol'
p3663
sg8
S'Broccoli (feat. Lil Yachty)'
p3664
ssS'053ChGJlgyezPw6mMRBlhL'
p3665
(dp3666
g3
S'A-Lin'
p3667
sg5
I3
sg6
S'https://open.spotify.com/track/053ChGJlgyezPw6mMRBlhL'
p3668
sg8
S'\xe4\xbd\xa0\xe9\xbb\x9e\xe7\x9a\x84\xe6\xad\x8c\xe6\x95\x91\xe4\xba\x86\xe6\x88\x91 (\xe4\xb8\x89\xe7\xab\x8b\xe5\x81\xb6\xe5\x83\x8f\xe5\x8a\x87\xe3\x80\x8c\xe5\x99\x97\xe9\x80\x9a\xe5\x99\x97\xe9\x80\x9a\xe6\x88\x91\xe6\x84\x9b\xe4\xbd\xa0\xe3\x80\x8d\xe7\x89\x87\xe9\xa0\xad\xe6\x9b\xb2) - Opening theme of Memory Love'
p3669
ssS'3zHq9ouUJQFQRf3cm1rRLu'
p3670
(dp3671
g3
S'Ellie Goulding'
p3672
sg5
I3
sg6
S'https://open.spotify.com/track/3zHq9ouUJQFQRf3cm1rRLu'
p3673
sg8
S'Love Me Like You Do - From Fifty Shades Of Grey'
p3674
ssS'4GKk1uNzpxIptBuaY97Dkj'
p3675
(dp3676
g3
S'Coldplay'
p3677
sg5
I1
sg6
S'https://open.spotify.com/track/4GKk1uNzpxIptBuaY97Dkj'
p3678
sg8
S'Midnight'
p3679
ssS'3RGu8I21FfgSTTNG1tgPJo'
p3680
(dp3681
g3
S'Rachel Liang'
p3682
sg5
I1
sg6
S'https://open.spotify.com/track/3RGu8I21FfgSTTNG1tgPJo'
p3683
sg8
S'\xe8\x87\xaa\xe7\x84\xb6\xe3\x81\xae\xe9\xa1\x8f'
p3684
ssS'2Fjz5ZC5BvFdCqcnTZ3ilH'
p3685
(dp3686
g3
S'Alan Walker'
p3687
sg5
I20
sg6
S'https://open.spotify.com/track/2Fjz5ZC5BvFdCqcnTZ3ilH'
p3688
sg8
S'Sing Me to Sleep'
p3689
ssS'2fmUFSA8GV3SusglOWgltw'
p3690
(dp3691
g3
S'Kenji Wu'
p3692
sg5
I33
sg6
S'https://open.spotify.com/track/2fmUFSA8GV3SusglOWgltw'
p3693
sg8
S'\xe5\xad\xa4\xe7\x8d\xa8\xe6\x98\xaf\xe6\x9c\x83\xe4\xb8\x8a\xe7\x99\xae\xe7\x9a\x84'
p3694
ssS'30MM5jWpUmOxtTNd9Ey5LZ'
p3695
(dp3696
g3
S'Thomas Rhett'
p3697
sg5
I1
sg6
S'https://open.spotify.com/track/30MM5jWpUmOxtTNd9Ey5LZ'
p3698
sg8
S'Unforgettable'
p3699
ssS'2771LMNxwf62FTAdpJMQfM'
p3700
(dp3701
g3
S'Cardi B'
p3702
sg5
I8
sg6
S'https://open.spotify.com/track/2771LMNxwf62FTAdpJMQfM'
p3703
sg8
S'Bodak Yellow'
p3704
ssS'2vpDGSYfVUUGGapUEnL5Sy'
p3705
(dp3706
g3
S'Cosmos People'
p3707
sg5
I1
sg6
S'https://open.spotify.com/track/2vpDGSYfVUUGGapUEnL5Sy'
p3708
sg8
S'\xe7\x8f\xbe\xe5\x9c\xa8\xe5\xb0\xb1\xe8\xae\x93\xe6\x88\x91\xe8\xb5\xb0'
p3709
ssS'6PCUP3dWmTjcTtXY02oFdT'
p3710
(dp3711
g3
S'Ed Sheeran'
p3712
sg5
I34
sg6
S'https://open.spotify.com/track/6PCUP3dWmTjcTtXY02oFdT'
p3713
sg8
S'Castle on the Hill'
p3714
ssS'4YtwydmJ7lKYzMYsJSKFun'
p3715
(dp3716
g3
S'Twinko'
p3717
sg5
I1
sg6
S'https://open.spotify.com/track/4YtwydmJ7lKYzMYsJSKFun'
p3718
sg8
S'\xe5\xa4\xa2\xe9\x81\x8a\xe7\x97\x87 - \xe6\x9c\x80\xe5\xae\x8c\xe7\xbe\x8e\xe7\x9a\x84\xe5\xa5\xb3\xe5\xad\xa9\xe9\x9b\xbb\xe5\xbd\xb1\xe4\xb8\xbb\xe9\xa1\x8c\xe6\x9b\xb2'
p3719
ssS'2D2pqz9UjxOsLbucKFAHTV'
p3720
(dp3721
g3
S'VaVa'
p3722
sg5
I1
sg6
S'https://open.spotify.com/track/2D2pqz9UjxOsLbucKFAHTV'
p3723
sg8
S'\xe6\x88\x91\xe7\x9a\x84\xe6\x96\xb0\xe8\xa1\xa3 (feat. Ty. & \xe7\x8e\x8b\xe5\x80\xa9\xe5\x80\xa9)'
p3724
ssS'2QWP8NYYplOqEFBYGCcq0S'
p3725
(dp3726
g3
S'The Script'
p3727
sg5
I1
sg6
S'https://open.spotify.com/track/2QWP8NYYplOqEFBYGCcq0S'
p3728
sg8
S'Rain'
p3729
ssS'1ASz8M9r07WwDimKfgvvPw'
p3730
(dp3731
g3
S'Fire EX.'
p3732
sg5
I12
sg6
S'https://open.spotify.com/track/1ASz8M9r07WwDimKfgvvPw'
p3733
sg8
S'\xe9\x95\xb7\xe9\x80\x94\xe5\xa4\x9c\xe8\xbb\x8a'
p3734
ssS'7clUVcSOtkNWa58Gw5RfD4'
p3735
(dp3736
g3
S'Coldplay'
p3737
sg5
I1
sg6
S'https://open.spotify.com/track/7clUVcSOtkNWa58Gw5RfD4'
p3738
sg8
S'Speed Of Sound'
p3739
ssS'25JsYHDRiRvxIddliGESTT'
p3740
(dp3741
g3
S'TAEYEON'
p3742
sg5
I2
sg6
S'https://open.spotify.com/track/25JsYHDRiRvxIddliGESTT'
p3743
sg8
S'Cover up'
p3744
ssS'7bJwvubZZaoGE1AGEfu8Fi'
p3745
(dp3746
g3
S'Ariana Grande'
p3747
sg5
I1
sg6
S'https://open.spotify.com/track/7bJwvubZZaoGE1AGEfu8Fi'
p3748
sg8
S'One Last Time'
p3749
ssS'104buTcnP2AsxqB7U1FIZ4'
p3750
(dp3751
g3
S'Linkin Park'
p3752
sg5
I15
sg6
S'https://open.spotify.com/track/104buTcnP2AsxqB7U1FIZ4'
p3753
sg8
S'Heavy (feat. Kiiara)'
p3754
ssS'3hRZsdTF5uyGA2uhNqEuhm'
p3755
(dp3756
g3
S'Niall Horan'
p3757
sg5
I4
sg6
S'https://open.spotify.com/track/3hRZsdTF5uyGA2uhNqEuhm'
p3758
sg8
S'Too Much To Ask'
p3759
ssS'31oYHLXXagyUwDCWilKq9p'
p3760
(dp3761
g3
S'Naiwen Yang'
p3762
sg5
I3
sg6
S'https://open.spotify.com/track/31oYHLXXagyUwDCWilKq9p'
p3763
sg8
S'\xe9\x9b\xa2\xe5\xbf\x83\xe5\x8a\x9b'
p3764
ssS'7wBrglFVTNCcW6IhdgBkm1'
p3765
(dp3766
g3
S'Coldplay'
p3767
sg5
I3
sg6
S'https://open.spotify.com/track/7wBrglFVTNCcW6IhdgBkm1'
p3768
sg8
S'Paradise'
p3769
ssS'0CcQNd8CINkwQfe1RDtGV6'
p3770
(dp3771
g3
S'Imagine Dragons'
p3772
sg5
I33
sg6
S'https://open.spotify.com/track/0CcQNd8CINkwQfe1RDtGV6'
p3773
sg8
S'Believer'
p3774
ssS'650OeHTLxZAQmb4aEbGmaA'
p3775
(dp3776
g3
S'Linkin Park'
p3777
sg5
I5
sg6
S'https://open.spotify.com/track/650OeHTLxZAQmb4aEbGmaA'
p3778
sg8
S'Good Goodbye (feat. Pusha T and Stormzy)'
p3779
ssS'1PSBzsahR2AKwLJgx8ehBj'
p3780
(dp3781
g3
S'Machine Gun Kelly'
p3782
sg5
I23
sg6
S'https://open.spotify.com/track/1PSBzsahR2AKwLJgx8ehBj'
p3783
sg8
S'Bad Things (with Camila Cabello)'
p3784
ssS'53mrVsi49rLHIaKBiSvElG'
p3785
(dp3786
g3
S'blackbear'
p3787
sg5
I3
sg6
S'https://open.spotify.com/track/53mrVsi49rLHIaKBiSvElG'
p3788
sg8
S'do re mi (feat. Gucci Mane)'
p3789
ssS'2JJu8J1kvXs2GbUpQVbZ47'
p3790
(dp3791
g3
S'Crowd Lu'
p3792
sg5
I15
sg6
S'https://open.spotify.com/track/2JJu8J1kvXs2GbUpQVbZ47'
p3793
sg8
S'\xe5\xa4\xa7\xe4\xba\xba\xe4\xb8\xad'
p3794
ssS'190kU2WKyIzx9XaBjfWRPk'
p3795
(dp3796
g3
S'JJ Lin'
p3797
sg5
I39
sg6
S'https://open.spotify.com/track/190kU2WKyIzx9XaBjfWRPk'
p3798
sg8
S'\xe4\xbf\xae\xe7\x85\x89\xe6\x84\x9b\xe6\x83\x85'
p3799
ssS'3SGWp9fJCzgK0WcpcKSQdy'
p3800
(dp3801
g3
S'Stanaj'
p3802
sg5
I10
sg6
S'https://open.spotify.com/track/3SGWp9fJCzgK0WcpcKSQdy'
p3803
sg8
S'Romantic - NOTD Remix'
p3804
ssS'1IgRQvTqj7BKjNWRzjFEE0'
p3805
(dp3806
g3
S'TAEYEON'
p3807
sg5
I2
sg6
S'https://open.spotify.com/track/1IgRQvTqj7BKjNWRzjFEE0'
p3808
sg8
S'I Got Love'
p3809
ssS'3K4HG9evC7dg3N0R9cYqk4'
p3810
(dp3811
g3
S'Linkin Park'
p3812
sg5
I1
sg6
S'https://open.spotify.com/track/3K4HG9evC7dg3N0R9cYqk4'
p3813
sg8
S'One Step Closer'
p3814
ssS'1Vej0qeQ3ioKwpI6FUbRv1'
p3815
(dp3816
g3
S'Linkin Park'
p3817
sg5
I1
sg6
S'https://open.spotify.com/track/1Vej0qeQ3ioKwpI6FUbRv1'
p3818
sg8
S'Papercut'
p3819
ssS'0BCPKOYdS2jbQ8iyB56Zns'
p3820
(dp3821
g3
S'Coldplay'
p3822
sg5
I2
sg6
S'https://open.spotify.com/track/0BCPKOYdS2jbQ8iyB56Zns'
p3823
sg8
S'Clocks'
p3824
ssS'4C5ewaZ05vyXM23jFJdwd4'
p3825
(dp3826
g3
S'Halsey'
p3827
sg5
I1
sg6
S'https://open.spotify.com/track/4C5ewaZ05vyXM23jFJdwd4'
p3828
sg8
S'Strangers'
p3829
ssS'1VsS3qBghl8AwyKT8GAlj6'
p3830
(dp3831
g3
S'Sodagreen'
p3832
sg5
I2
sg6
S'https://open.spotify.com/track/1VsS3qBghl8AwyKT8GAlj6'
p3833
sg8
S'\xe6\x88\x91\xe5\xa5\xbd\xe6\x83\xb3\xe4\xbd\xa0'
p3834
ssS'3ebXMykcMXOcLeJ9xZ17XH'
p3835
(dp3836
g3
S'Martin Garrix'
p3837
sg5
I37
sg6
S'https://open.spotify.com/track/3ebXMykcMXOcLeJ9xZ17XH'
p3838
sg8
S'Scared to Be Lonely'
p3839
ssS'6fujklziTHa8uoM5OQSfIo'
p3840
(dp3841
g3
S'Rae Sremmurd'
p3842
sg5
I9
sg6
S'https://open.spotify.com/track/6fujklziTHa8uoM5OQSfIo'
p3843
sg8
S'Black Beatles'
p3844
ssS'19WjVVgXjdKXfLXoaDPwTM'
p3845
(dp3846
g3
S'Taylor Swift'
p3847
sg5
I5
sg6
S'https://open.spotify.com/track/19WjVVgXjdKXfLXoaDPwTM'
p3848
sg8
S'...Ready For It?'
p3849
ssS'0WG9TuJbzIwc5wddbQmfcv'
p3850
(dp3851
g3
S"Girls' Generation"
p3852
sg5
I1
sg6
S'https://open.spotify.com/track/0WG9TuJbzIwc5wddbQmfcv'
p3853
sg8
S'Girls Are Back'
p3854
ssS'0tKcYR2II1VCQWT79i5NrW'
p3855
(dp3856
g3
S'Imagine Dragons'
p3857
sg5
I21
sg6
S'https://open.spotify.com/track/0tKcYR2II1VCQWT79i5NrW'
p3858
sg8
S'Thunder'
p3859
ssS'4gqMQftUs22F8pOGVn5Acr'
p3860
(dp3861
g3
S'Shawn Hook'
p3862
sg5
I11
sg6
S'https://open.spotify.com/track/4gqMQftUs22F8pOGVn5Acr'
p3863
sg8
S'Reminding Me'
p3864
ssS'3PEgB3fkiojxms35ntsTgs'
p3865
(dp3866
g3
S'Axwell /\\ Ingrosso'
p3867
sg5
I8
sg6
S'https://open.spotify.com/track/3PEgB3fkiojxms35ntsTgs'
p3868
sg8
S'More Than You Know'
p3869
ssS'6WoQzK5Exbfcmow1AoNRkl'
p3870
(dp3871
g3
S'JJ Lin'
p3872
sg5
I42
sg6
S'https://open.spotify.com/track/6WoQzK5Exbfcmow1AoNRkl'
p3873
sg8
S'\xe5\x8f\xaf\xe6\x83\x9c\xe6\xb2\x92\xe5\xa6\x82\xe6\x9e\x9c'
p3874
ssS'0gtSPYz0OHoF7k09Auq1uC'
p3875
(dp3876
g3
S'Dua Lipa'
p3877
sg5
I1
sg6
S'https://open.spotify.com/track/0gtSPYz0OHoF7k09Auq1uC'
p3878
sg8
S"Thinking 'Bout You"
p3879
ssS'0rHnkLIGf54WbwMW6cyVoP'
p3880
(dp3881
g3
S'TAEYEON'
p3882
sg5
I1
sg6
S'https://open.spotify.com/track/0rHnkLIGf54WbwMW6cyVoP'
p3883
sg8
S"I'm OK"
p3884
ssS'2UYG331lOP6amEWplE7eno'
p3885
(dp3886
g3
S'EXO'
p3887
sg5
I1
sg6
S'https://open.spotify.com/track/2UYG331lOP6amEWplE7eno'
p3888
sg8
S'Ko Ko Bop - Chinese Version'
p3889
ssS'7iDa6hUg2VgEL1o1HjmfBn'
p3890
(dp3891
g3
S'Bebe Rexha'
p3892
sg5
I4
sg6
S'https://open.spotify.com/track/7iDa6hUg2VgEL1o1HjmfBn'
p3893
sg8
S'Meant to Be (feat. Florida Georgia Line)'
p3894
ssS'36ZXwLNujzc7WuRB0SfQ7l'
p3895
(dp3896
g3
S'Justin Hurwitz'
p3897
sg5
I6
sg6
S'https://open.spotify.com/track/36ZXwLNujzc7WuRB0SfQ7l'
p3898
sg8
S'Summer Montage / Madeline - From La La Land Soundtrack'
p3899
ssS'5OepnJhqZoyJN8qWo2LZzy'
p3900
(dp3901
g3
S'BLACKPINK'
p3902
sg5
I4
sg6
S'https://open.spotify.com/track/5OepnJhqZoyJN8qWo2LZzy'
p3903
sg8
S'PLAYING WITH FIRE - KR Ver.'
p3904
ssS'7l0mEEKB8oCEDC2SHpfYyL'
p3905
(dp3906
g3
S'Dizzy Dizzo'
p3907
sg5
I12
sg6
S'https://open.spotify.com/track/7l0mEEKB8oCEDC2SHpfYyL'
p3908
sg8
S'\xe7\xb4\xab\xe5\xa4\x96\xe7\xb7\x9a'
p3909
ssS'0B8B8cVRFIG1yznoQe7c9s'
p3910
(dp3911
g3
S'The Chainsmokers'
p3912
sg5
I9
sg6
S'https://open.spotify.com/track/0B8B8cVRFIG1yznoQe7c9s'
p3913
sg8
S'Setting Fires'
p3914
ssS'7LLj7DoK2rqJaDbjshn7zN'
p3915
(dp3916
g3
S'Maggie Fu'
p3917
sg5
I16
sg6
S'https://open.spotify.com/track/7LLj7DoK2rqJaDbjshn7zN'
p3918
sg8
S'\xe6\x84\x9b.\xe9\x80\x99\xe4\xbb\xb6\xe4\xba\x8b\xe6\x83\x85'
p3919
ssS'6KjbNLbRjuoa8rEq5yNA6H'
p3920
(dp3921
g3
S'The Chainsmokers'
p3922
sg5
I2
sg6
S'https://open.spotify.com/track/6KjbNLbRjuoa8rEq5yNA6H'
p3923
sg8
S'Honest'
p3924
ssS'02WacdrRpm4zlP8H7X6bnQ'
p3925
(dp3926
g3
S'Calum Scott'
p3927
sg5
I1
sg6
S'https://open.spotify.com/track/02WacdrRpm4zlP8H7X6bnQ'
p3928
sg8
S'Dancing On My Own'
p3929
ssS'1mDGDb2fUmUMdqV3tb8VKQ'
p3930
(dp3931
g3
S'Halsey'
p3932
sg5
I1
sg6
S'https://open.spotify.com/track/1mDGDb2fUmUMdqV3tb8VKQ'
p3933
sg8
S'Now Or Never'
p3934
ssS'0Ws8D3EWUDgY962Xftb0h5'
p3935
(dp3936
g3
S'Calvin Harris'
p3937
sg5
I1
sg6
S'https://open.spotify.com/track/0Ws8D3EWUDgY962Xftb0h5'
p3938
sg8
S'Cash Out'
p3939
ssS'2ccyyj6pdgDAfqEFUX9Voc'
p3940
(dp3941
g3
S'ANNA'
p3942
sg5
I1
sg6
S'https://open.spotify.com/track/2ccyyj6pdgDAfqEFUX9Voc'
p3943
sg8
S'Party Crasher'
p3944
ssS'1sBhJGPUKrdRycgKxve70v'
p3945
(dp3946
g3
S'Felix Jaehn'
p3947
sg5
I1
sg6
S'https://open.spotify.com/track/1sBhJGPUKrdRycgKxve70v'
p3948
sg8
S'Hot2Touch'
p3949
ssS'632VyMrvhsHIsO4zq9khts'
p3950
(dp3951
g3
S'JJ Lin'
p3952
sg5
I42
sg6
S'https://open.spotify.com/track/632VyMrvhsHIsO4zq9khts'
p3953
sg8
S'\xe5\xa5\xb9\xe8\xaa\xaa'
p3954
ssS'6OZh916QF8XNunWaP97WEZ'
p3955
(dp3956
g3
S'Jonas Blue'
p3957
sg5
I6
sg6
S'https://open.spotify.com/track/6OZh916QF8XNunWaP97WEZ'
p3958
sg8
S'Fast Car'
p3959
ssS'2rizacJSyD9S1IQUxUxnsK'
p3960
(dp3961
g3
S'The Chainsmokers'
p3962
sg5
I42
sg6
S'https://open.spotify.com/track/2rizacJSyD9S1IQUxUxnsK'
p3963
sg8
S'All We Know'
p3964
ssS'3uB6rxXYjmMEhOVJT763S6'
p3965
(dp3966
g3
S'Matoma'
p3967
sg5
I2
sg6
S'https://open.spotify.com/track/3uB6rxXYjmMEhOVJT763S6'
p3968
sg8
S'Staying Up'
p3969
ssS'0tgVpDi06FyKpA1z0VMD4v'
p3970
(dp3971
g3
S'Ed Sheeran'
p3972
sg5
I32
sg6
S'https://open.spotify.com/track/0tgVpDi06FyKpA1z0VMD4v'
p3973
sg8
S'Perfect'
p3974
ssS'7MSwrGiAf7gVSpqwyry6d6'
p3975
(dp3976
g3
S'Joey Yung'
p3977
sg5
I2
sg6
S'https://open.spotify.com/track/7MSwrGiAf7gVSpqwyry6d6'
p3978
sg8
S'\xe8\xa8\x98\xe6\x86\xb6\xe7\x9a\x84\xe5\x91\xb3\xe8\x95\xbe (\xe5\x9c\x8b)'
p3979
ssS'2NpoBjLgXTwFsxgUMcZ6Sg'
p3980
(dp3981
g3
S'Jessie J'
p3982
sg5
I1
sg6
S'https://open.spotify.com/track/2NpoBjLgXTwFsxgUMcZ6Sg'
p3983
sg8
S'Real Deal'
p3984
ssS'6oUZpsTiEgAsUWkE1ZLClu'
p3985
(dp3986
g3
S'Jocie Kok'
p3987
sg5
I20
sg6
S'https://open.spotify.com/track/6oUZpsTiEgAsUWkE1ZLClu'
p3988
sg8
S'\xe4\xb8\x80\xe7\x99\xbe\xe7\xa8\xae\xe5\xad\xa4\xe7\x8d\xa8\xe7\x9a\x84\xe7\x90\x86\xe7\x94\xb1'
p3989
ssS'6cAKeFFYW2aClZSUyvqAEW'
p3990
(dp3991
g3
S'Isaiah'
p3992
sg5
I21
sg6
S'https://open.spotify.com/track/6cAKeFFYW2aClZSUyvqAEW'
p3993
sg8
S"It's Gotta Be You"
p3994
ssS'26hcyzSE154xMZCbFdtInA'
p3995
(dp3996
g3
S'KREAM'
p3997
sg5
I7
sg6
S'https://open.spotify.com/track/26hcyzSE154xMZCbFdtInA'
p3998
sg8
S'Taped Up Heart (feat. Clara Mae)'
p3999
ssS'7Lgpic8BsBJR4jFrr9abbz'
p4000
(dp4001
g3
S'Robin Schulz'
p4002
sg5
I1
sg6
S'https://open.spotify.com/track/7Lgpic8BsBJR4jFrr9abbz'
p4003
sg8
S"I Believe I'm Fine"
p4004
ssS'34i4yxPrHWquuR4kjiivFO'
p4005
(dp4006
g3
S'V\xc3\x89RIT\xc3\x89'
p4007
sg5
I5
sg6
S'https://open.spotify.com/track/34i4yxPrHWquuR4kjiivFO'
p4008
sg8
S'Somebody Else'
p4009
ssS'4jP4FpFaw7PJ1PiIf3jcr7'
p4010
(dp4011
g3
S'PSY'
p4012
sg5
I1
sg6
S'https://open.spotify.com/track/4jP4FpFaw7PJ1PiIf3jcr7'
p4013
sg8
S'I LUV IT'
p4014
ssS'2wDjpPW3HZdA9quPPmZAMu'
p4015
(dp4016
g3
S'Cashmere Cat'
p4017
sg5
I6
sg6
S'https://open.spotify.com/track/2wDjpPW3HZdA9quPPmZAMu'
p4018
sg8
S'Trust Nobody (feat. Selena Gomez & Tory Lanez)'
p4019
ssS'2nuveZFpiOildSCxXuL44C'
p4020
(dp4021
g3
S'JP Cooper'
p4022
sg5
I1
sg6
S'https://open.spotify.com/track/2nuveZFpiOildSCxXuL44C'
p4023
sg8
S"She's On My Mind"
p4024
ssS'2EZQWlqxhPE2mfkGGt0M8i'
p4025
(dp4026
g3
S'\xe9\x98\xbf\xe5\xa6\xb9'
p4027
sg5
I5
sg6
S'https://open.spotify.com/track/2EZQWlqxhPE2mfkGGt0M8i'
p4028
sg8
S'\xe9\xbb\x98 - Sound Of My Dream / Live'
p4029
ssS'3d9JucRI60arArgQXqtfjJ'
p4030
(dp4031
g3
S'Alesso'
p4032
sg5
I5
sg6
S'https://open.spotify.com/track/3d9JucRI60arArgQXqtfjJ'
p4033
sg8
S'Falling'
p4034
ssS'72Q0FQQo32KJloivv5xge2'
p4035
(dp4036
g3
S'DJ Khaled'
p4037
sg5
I3
sg6
S'https://open.spotify.com/track/72Q0FQQo32KJloivv5xge2'
p4038
sg8
S"I'm the One"
p4039
ssS'25pWemriUQVrZ3yIiS2IBf'
p4040
(dp4041
g3
S'Eason Chan'
p4042
sg5
I23
sg6
S'https://open.spotify.com/track/25pWemriUQVrZ3yIiS2IBf'
p4043
sg8
S'\xe5\x8d\x81\xe5\xb9\xb4'
p4044
ssS'2HKExvYvJMad0dvNIQzjAV'
p4045
(dp4046
g3
S'Faye \xe9\xa3\x9b'
p4047
sg5
I2
sg6
S'https://open.spotify.com/track/2HKExvYvJMad0dvNIQzjAV'
p4048
sg8
S'\xe4\xbd\xa0\xe8\xaa\xaa'
p4049
ssS'3GtLFbuCBJcf8x07bELdoW'
p4050
(dp4051
g3
S'Victor Wong'
p4052
sg5
I4
sg6
S'https://open.spotify.com/track/3GtLFbuCBJcf8x07bELdoW'
p4053
sg8
S'\xe7\xad\x89'
p4054
ssS'0hNduWmlWmEmuwEFcYvRu1'
p4055
(dp4056
g3
S'Petit Biscuit'
p4057
sg5
I15
sg6
S'https://open.spotify.com/track/0hNduWmlWmEmuwEFcYvRu1'
p4058
sg8
S'Sunset Lover'
p4059
ssS'6n1wJXTJcsYHX4se6ptQ5w'
p4060
(dp4061
g3
S'\xe7\x8e\x96\xe5\xa3\xb9\xe5\xa3\xb9'
p4062
sg5
I1
sg6
S'https://open.spotify.com/track/6n1wJXTJcsYHX4se6ptQ5w'
p4063
sg8
S'\xe7\x99\xa1\xe6\x83\x85\xe7\x94\xb7\xe5\xad\x90\xe6\xbc\xa2'
p4064
ssS'1x5sYLZiu9r5E43kMlt9f8'
p4065
(dp4066
g3
S'Clean Bandit'
p4067
sg5
I30
sg6
S'https://open.spotify.com/track/1x5sYLZiu9r5E43kMlt9f8'
p4068
sg8
S'Symphony (feat. Zara Larsson)'
p4069
ssS'0wwfaAYsKsIkrudfueZoB3'
p4070
(dp4071
g3
S'G-DRAGON'
p4072
sg5
I1
sg6
S'https://open.spotify.com/track/0wwfaAYsKsIkrudfueZoB3'
p4073
sg8
S'INTRO. \xea\xb6\x8c\xec\xa7\x80\xec\x9a\xa9 (Middle Fingers-Up)'
p4074
ssS'21NmnwPP8SHKyVtjvubGSs'
p4075
(dp4076
g3
S'Eric Chou'
p4077
sg5
I20
sg6
S'https://open.spotify.com/track/21NmnwPP8SHKyVtjvubGSs'
p4078
sg8
S'\xe6\xb0\xb8\xe4\xb8\x8d\xe5\xa4\xb1\xe8\x81\xaf\xe7\x9a\x84\xe6\x84\x9b [\xe5\x8e\x9f\xe5\x89\xb5\xe6\xa6\x82\xe5\xbf\xb5\xe7\x89\x88]'
p4079
ssS'2rb5MvYT7ZIxbKW5hfcHx8'
p4080
(dp4081
g3
S'J Balvin'
p4082
sg5
I14
sg6
S'https://open.spotify.com/track/2rb5MvYT7ZIxbKW5hfcHx8'
p4083
sg8
S'Mi Gente'
p4084
ssS'7iz4bsfPOrK9wzhXkgUfya'
p4085
(dp4086
g3
S'Katy Perry'
p4087
sg5
I1
sg6
S'https://open.spotify.com/track/7iz4bsfPOrK9wzhXkgUfya'
p4088
sg8
S'Witness'
p4089
ssS'5SE57ljOIUJ1ybL9U6CuBH'
p4090
(dp4091
g3
S'BTS'
p4092
sg5
I4
sg6
S'https://open.spotify.com/track/5SE57ljOIUJ1ybL9U6CuBH'
p4093
sg8
S'DNA'
p4094
ssS'0WJVy5IYA9AeAI1htZDq0C'
p4095
(dp4096
g3
S'Wanna One'
p4097
sg5
I3
sg6
S'https://open.spotify.com/track/0WJVy5IYA9AeAI1htZDq0C'
p4098
sg8
S'Burn It Up'
p4099
ssS'3urogUGoBidulMDDoucJBB'
p4100
(dp4101
g3
S'Joker Xue'
p4102
sg5
I4
sg6
S'https://open.spotify.com/track/3urogUGoBidulMDDoucJBB'
p4103
sg8
S'\xe5\x89\x9b\xe5\x89\x9b\xe5\xa5\xbd'
p4104
ssS'2ifMqDfCntEIDo9ujUVYX6'
p4105
(dp4106
g3
S'Soo Wincci'
p4107
sg5
I2
sg6
S'https://open.spotify.com/track/2ifMqDfCntEIDo9ujUVYX6'
p4108
sg8
S'If You Still Cant Let Go \xe5\xa6\x82\xe6\x9e\x9c\xe4\xbd\xa0\xe8\xbf\x98\xe6\x94\xbe\xe4\xb8\x8d\xe4\xb8\x8b'
p4109
ssS'2OALaHcDdKkjYEpAr0Qzab'
p4110
(dp4111
g3
S'Avicii'
p4112
sg5
I9
sg6
S'https://open.spotify.com/track/2OALaHcDdKkjYEpAr0Qzab'
p4113
sg8
S'Lonely Together (feat. Rita Ora)'
p4114
ssS'6SwRhMLwNqEi6alNPVG00n'
p4115
(dp4116
g3
S'Kendrick Lamar'
p4117
sg5
I3
sg6
S'https://open.spotify.com/track/6SwRhMLwNqEi6alNPVG00n'
p4118
sg8
S'LOYALTY. FEAT. RIHANNA.'
p4119
ssS'4vBoopG4WzohMju1GUmwoi'
p4120
(dp4121
g3
S'LaLa Hsu'
p4122
sg5
I42
sg6
S'https://open.spotify.com/track/4vBoopG4WzohMju1GUmwoi'
p4123
sg8
S'\xe5\xa4\xb1\xe8\x90\xbd\xe6\xb2\x99\xe6\xb4\xb2'
p4124
ssS'2HzfRSfCogBSsgW2CckVA2'
p4125
(dp4126
g3
S'Luke Christopher'
p4127
sg5
I1
sg6
S'https://open.spotify.com/track/2HzfRSfCogBSsgW2CckVA2'
p4128
sg8
S'Lot to Learn'
p4129
ssS'0FDzzruyVECATHXKHFs9eJ'
p4130
(dp4131
g3
S'Coldplay'
p4132
sg5
I4
sg6
S'https://open.spotify.com/track/0FDzzruyVECATHXKHFs9eJ'
p4133
sg8
S'A Sky Full of Stars'
p4134
ssS'5z2Ha5yIuMB8tvQCvyNTPN'
p4135
(dp4136
g3
S'Mayday'
p4137
sg5
I1
sg6
S'https://open.spotify.com/track/5z2Ha5yIuMB8tvQCvyNTPN'
p4138
sg8
S'\xe5\x8b\x87\xe6\x95\xa2'
p4139
ssS'6yXc6lrQtoaSX4EeqquXVL'
p4140
(dp4141
g3
S'Tatiana Manaois'
p4142
sg5
I1
sg6
S'https://open.spotify.com/track/6yXc6lrQtoaSX4EeqquXVL'
p4143
sg8
S'B.O.M.O.'
p4144
ssS'6SRnVRobwLtovI4JEWejDv'
p4145
(dp4146
g3
S'Galantis'
p4147
sg5
I1
sg6
S'https://open.spotify.com/track/6SRnVRobwLtovI4JEWejDv'
p4148
sg8
S'True Feeling'
p4149
ssS'6DNtNfH8hXkqOX1sjqmI7p'
p4150
(dp4151
g3
S'Major Lazer'
p4152
sg5
I23
sg6
S'https://open.spotify.com/track/6DNtNfH8hXkqOX1sjqmI7p'
p4153
sg8
S'Cold Water (feat. Justin Bieber & M\xc3\x98)'
p4154
ssS'5NNlUMcOEOdoOIwwaWXv0k'
p4155
(dp4156
g3
S'Maroon 5'
p4157
sg5
I18
sg6
S'https://open.spotify.com/track/5NNlUMcOEOdoOIwwaWXv0k'
p4158
sg8
S'Cold'
p4159
ssS'63nFTbzXjy386EzP408NHi'
p4160
(dp4161
g3
S'Yvonne'
p4162
sg5
I21
sg6
S'https://open.spotify.com/track/63nFTbzXjy386EzP408NHi'
p4163
sg8
S'\xe6\x94\xbe\xe9\x80\x90\xe6\x84\x9b\xe6\x83\x85'
p4164
ssS'3t0J8vI9StQD8KIBkT2Cp5'
p4165
(dp4166
g3
S'Alan Walker'
p4167
sg5
I1
sg6
S'https://open.spotify.com/track/3t0J8vI9StQD8KIBkT2Cp5'
p4168
sg8
S'Tired - Kygo Remix'
p4169
ssS'1sXUWdKx03aP9Gmzft58rt'
p4170
(dp4171
g3
S'Julia Michaels'
p4172
sg5
I28
sg6
S'https://open.spotify.com/track/1sXUWdKx03aP9Gmzft58rt'
p4173
sg8
S'Issues'
p4174
ssS'50RJdoxw8iajGNtHQe6QeS'
p4175
(dp4176
g3
S'The Chainsmokers'
p4177
sg5
I1
sg6
S'https://open.spotify.com/track/50RJdoxw8iajGNtHQe6QeS'
p4178
sg8
S'Something Just Like This - Alesso Remix'
p4179
ssS'3bVbQvGVIe4n24AzyXovXh'
p4180
(dp4181
g3
g367
sg5
I1
sg6
S'https://open.spotify.com/track/3bVbQvGVIe4n24AzyXovXh'
p4182
sg8
g367
ssS'0YVsrgp4OOUhFuYMAVQazV'
p4183
(dp4184
g3
S'BIGBANG'
p4185
sg5
I24
sg6
S'https://open.spotify.com/track/0YVsrgp4OOUhFuYMAVQazV'
p4186
sg8
S'FXXK IT'
p4187
ssS'1zayuwd1YLZsYDArkruHdL'
p4188
(dp4189
g3
S'Kendrick Lamar'
p4190
sg5
I1
sg6
S'https://open.spotify.com/track/1zayuwd1YLZsYDArkruHdL'
p4191
sg8
S'The Heart Part 4'
p4192
ssS'14oOKFGuXu8DqvOe1W8vao'
p4193
(dp4194
g3
S'Katy Perry'
p4195
sg5
I1
sg6
S'https://open.spotify.com/track/14oOKFGuXu8DqvOe1W8vao'
p4196
sg8
S'Bon App\xc3\xa9tit'
p4197
ssS'47Qq2E5MqL30jOkaruCOnL'
p4198
(dp4199
g3
S'Andrew Tan'
p4200
sg5
I31
sg6
S'https://open.spotify.com/track/47Qq2E5MqL30jOkaruCOnL'
p4201
sg8
S'\xe5\xa5\xbd\xe6\x84\x9b\xe5\xa5\xbd\xe6\x95\xa3'
p4202
ssS'4BHSjbYylfOH5WAGusDyni'
p4203
(dp4204
g3
S'Kendrick Lamar'
p4205
sg5
I1
sg6
S'https://open.spotify.com/track/4BHSjbYylfOH5WAGusDyni'
p4206
sg8
S'YAH.'
p4207
ssS'0XPaE40MpRUNjPaJjgvAiS'
p4208
(dp4209
g3
S'\xe8\x97\x8d\xe5\x8f\x88\xe6\x99\x82'
p4210
sg5
I28
sg6
S'https://open.spotify.com/track/0XPaE40MpRUNjPaJjgvAiS'
p4211
sg8
S'\xe8\x81\xbd\xe8\xaa\xaa\xe8\x81\xbd\xe8\xaa\xaa'
p4212
ssS'7hETpLmqWiMAD5TtfrOlOe'
p4213
(dp4214
g3
S'SEOHYUN'
p4215
sg5
I1
sg6
S'https://open.spotify.com/track/7hETpLmqWiMAD5TtfrOlOe'
p4216
sg8
S"Don't Say No"
p4217
ssS'6TIU9Ehmi6dMzZK73Ym4yj'
p4218
(dp4219
g3
S'Ed Sheeran'
p4220
sg5
I2
sg6
S'https://open.spotify.com/track/6TIU9Ehmi6dMzZK73Ym4yj'
p4221
sg8
S'Save Myself'
p4222
ssS'2pJZ1v8HezrAoZ0Fhzby92'
p4223
(dp4224
g3
S'Ed Sheeran'
p4225
sg5
I11
sg6
S'https://open.spotify.com/track/2pJZ1v8HezrAoZ0Fhzby92'
p4226
sg8
S'What Do I Know?'
p4227
ssS'0KKkJNfGyhkQ5aFogxQAPU'
p4228
(dp4229
g3
S'Bruno Mars'
p4230
sg5
I35
sg6
S'https://open.spotify.com/track/0KKkJNfGyhkQ5aFogxQAPU'
p4231
sg8
S"That's What I Like"
p4232
ssS'57sk9X1fPLXRfkw74XNrmK'
p4233
(dp4234
g3
S'ONE OK ROCK'
p4235
sg5
I1
sg6
S'https://open.spotify.com/track/57sk9X1fPLXRfkw74XNrmK'
p4236
sg8
S'We Are'
p4237
ssS'494OU6M7NOf4ICYb4zWCf5'
p4238
(dp4239
g3
S'Maroon 5'
p4240
sg5
I32
sg6
S'https://open.spotify.com/track/494OU6M7NOf4ICYb4zWCf5'
p4241
sg8
S'Sugar'
p4242
ssS'1Slwb6dOYkBlWal1PGtnNg'
p4243
(dp4244
g3
S'Ed Sheeran'
p4245
sg5
I42
sg6
S'https://open.spotify.com/track/1Slwb6dOYkBlWal1PGtnNg'
p4246
sg8
S'Thinking Out Loud'
p4247
ssS'31g9QeRPnWXgTL4LBQ8pKp'
p4248
(dp4249
g3
S'Frande'
p4250
sg5
I1
sg6
S'https://open.spotify.com/track/31g9QeRPnWXgTL4LBQ8pKp'
p4251
sg8
S'\xe4\xb8\x80\xe6\x99\x82\xe8\x84\x86\xe5\xbc\xb1 (\xe9\x9b\xbb\xe8\xa6\x96\xe5\x8a\x87\xe3\x80\x8a\xe4\xbb\x96\xe5\x80\x91\xe5\x9c\xa8\xe7\x95\xa2\xe6\xa5\xad\xe7\x9a\x84\xe5\x89\x8d\xe4\xb8\x80\xe5\xa4\xa9\xe7\x88\x86\xe7\x82\xb8 \xe4\xba\x8c\xe9\x83\xa8\xe6\x9b\xb2\xe3\x80\x8b\xe7\x89\x87\xe9\xa0\xad\xe6\x9b\xb2)'
p4252
ssS'0D7sgJy6WGD4MrDWhSo2eV'
p4253
(dp4254
g3
S'Ivana Wong'
p4255
sg5
I6
sg6
S'https://open.spotify.com/track/0D7sgJy6WGD4MrDWhSo2eV'
p4256
sg8
S'\xe4\xb8\x8d\xe5\x86\x8d\xe8\xaa\xaa\xe5\x88\x86\xe6\x89\x8b (\xe9\x9b\xbb\xe5\xbd\xb1\xe5\x88\x86\xe6\x89\x8b100\xe6\xac\xa1\xe4\xb8\xbb\xe9\xa1\x8c\xe6\x9b\xb2) - \xe5\x9c\x8b'
p4257
ssS'7AywQEWcmIXP21gROxTzK6'
p4258
(dp4259
g3
S'Eli Hsieh'
p4260
sg5
I2
sg6
S'https://open.spotify.com/track/7AywQEWcmIXP21gROxTzK6'
p4261
sg8
S'\xe5\xbe\x88\xe6\x83\xb3\xe5\xbe\x88\xe6\x83\xb3\xe4\xbd\xa0'
p4262
ssS'6AUcZsYOTWcRXQmp7r83VS'
p4263
(dp4264
g3
S'Sammi Cheng'
p4265
sg5
I4
sg6
S'https://open.spotify.com/track/6AUcZsYOTWcRXQmp7r83VS'
p4266
sg8
S'\xe7\x90\x86\xe6\x99\xba\xe8\x88\x87\xe6\x84\x9f\xe6\x83\x85 (\xe9\x9b\xbb\xe5\xbd\xb1\xe5\x90\x88\xe7\xb4\x84\xe7\x94\xb7\xe5\xa5\xb3\xe4\xb8\xbb\xe9\xa1\x8c\xe6\x9b\xb2)'
p4267
ssS'5yntJb5HtBbLv7aflj3gGI'
p4268
(dp4269
g3
S'Wu Bai'
p4270
sg5
I2
sg6
S'https://open.spotify.com/track/5yntJb5HtBbLv7aflj3gGI'
p4271
sg8
S'\xe9\x87\x98\xe5\xad\x90\xe8\x8a\xb1 - EDM Remix'
p4272
ssS'43ZyHQITOjhciSUUNPVRHc'
p4273
(dp4274
g3
S'Lil Pump'
p4275
sg5
I1
sg6
S'https://open.spotify.com/track/43ZyHQITOjhciSUUNPVRHc'
p4276
sg8
S'Gucci Gang'
p4277
ssS'6KmWiz0zpYSPA56Poz0Cjb'
p4278
(dp4279
g3
S'WINNER'
p4280
sg5
I2
sg6
S'https://open.spotify.com/track/6KmWiz0zpYSPA56Poz0Cjb'
p4281
sg8
S'LOVE ME LOVE ME'
p4282
ssS'59U7BbyZv7nuO1kmXJutjm'
p4283
(dp4284
g3
S'G.E.M.'
p4285
sg5
I2
sg6
S'https://open.spotify.com/track/59U7BbyZv7nuO1kmXJutjm'
p4286
sg8
S'\xe6\x84\x9b\xe4\xbd\xa0 A.I.N.Y. 2017'
p4287
ssS'7vAXN57IQ0sj049wZGIboE'
p4288
(dp4289
g3
S'Imagine Dragons'
p4290
sg5
I1
sg6
S'https://open.spotify.com/track/7vAXN57IQ0sj049wZGIboE'
p4291
sg8
S'Rise Up'
p4292
ssS'2habSXqcJGExM6JJyskY7O'
p4293
(dp4294
g3
S'Miley Cyrus'
p4295
sg5
I10
sg6
S'https://open.spotify.com/track/2habSXqcJGExM6JJyskY7O'
p4296
sg8
S'Malibu'
p4297
ssS'5Ua3GXyHwiSfpNTMjq6m2z'
p4298
(dp4299
g3
S'Little Mix'
p4300
sg5
I12
sg6
S'https://open.spotify.com/track/5Ua3GXyHwiSfpNTMjq6m2z'
p4301
sg8
S'Touch'
p4302
ssS'6i0V12jOa3mr6uu4WYhUBr'
p4303
(dp4304
g3
S'Twenty One Pilots'
p4305
sg5
I10
sg6
S'https://open.spotify.com/track/6i0V12jOa3mr6uu4WYhUBr'
p4306
sg8
S'Heathens'
p4307
ssS'1louJpMmzEicAn7lzDalPW'
p4308
(dp4309
g3
S'Cheat Codes'
p4310
sg5
I28
sg6
S'https://open.spotify.com/track/1louJpMmzEicAn7lzDalPW'
p4311
sg8
S'No Promises (feat. Demi Lovato)'
p4312
ssS'40UroIGvsMPLPBYwH8rMNA'
p4313
(dp4314
g3
S'Vice'
p4315
sg5
I7
sg6
S'https://open.spotify.com/track/40UroIGvsMPLPBYwH8rMNA'
p4316
sg8
S'Steady 1234 (feat. Jasmine Thompson & Skizzy Mars)'
p4317
ssS'5nA67Y0XX9JipZwYxX7Gl7'
p4318
(dp4319
g3
S'Niall Horan'
p4320
sg5
I3
sg6
S'https://open.spotify.com/track/5nA67Y0XX9JipZwYxX7Gl7'
p4321
sg8
S'This Town'
p4322
ssS'02q0ZnV2L4XByzEvWZJqBC'
p4323
(dp4324
g3
S'BTS'
p4325
sg5
I24
sg6
S'https://open.spotify.com/track/02q0ZnV2L4XByzEvWZJqBC'
p4326
sg8
S'Spring Day'
p4327
ssS'5153LWKMJiMNIRCChGN4Ja'
p4328
(dp4329
g3
S'Mike Perry'
p4330
sg5
I1
sg6
S'https://open.spotify.com/track/5153LWKMJiMNIRCChGN4Ja'
p4331
sg8
S'Hands'
p4332
ssS'1tF0zeWqC91MCrdvoCh5GV'
p4333
(dp4334
g3
S'Yvonne'
p4335
sg5
I3
sg6
S'https://open.spotify.com/track/1tF0zeWqC91MCrdvoCh5GV'
p4336
sg8
S'\xe6\x82\xb2\xe5\x82\xb7\xe6\xad\xa2\xe6\xad\xa5'
p4337
ssS'2fAyCja3b2NSGvRKbWKgwP'
p4338
(dp4339
g3
S'Mayday'
p4340
sg5
I1
sg6
S'https://open.spotify.com/track/2fAyCja3b2NSGvRKbWKgwP'
p4341
sg8
S'\xe7\x9b\x9b\xe5\xa4\x8f\xe5\x85\x89\xe5\xb9\xb4'
p4342
ssS'3mTmGzRwgPPqLSi7Smvkxt'
p4343
(dp4344
g3
S'Mayday'
p4345
sg5
I8
sg6
S'https://open.spotify.com/track/3mTmGzRwgPPqLSi7Smvkxt'
p4346
sg8
S'\xe7\xaa\x81\xe7\x84\xb6\xe5\xa5\xbd\xe6\x83\xb3\xe4\xbd\xa0'
p4347
ssS'1UBRWQGHe8OQxgoOoghxzo'
p4348
(dp4349
g3
S'Ronghao Li'
p4350
sg5
I6
sg6
S'https://open.spotify.com/track/1UBRWQGHe8OQxgoOoghxzo'
p4351
sg8
S'\xe5\x97\xaf'
p4352
ssS'1R17cgUv6HeQFa78dzqb7s'
p4353
(dp4354
g3
S'Justin Hurwitz'
p4355
sg5
I11
sg6
S'https://open.spotify.com/track/1R17cgUv6HeQFa78dzqb7s'
p4356
sg8
S'Mia & Sebastian\xe2\x80\x99s Theme - From La La Land Soundtrack'
p4357
ssS'4bUXlEJRyV5YGERzh7AHuy'
p4358
(dp4359
g3
S'A-Lin'
p4360
sg5
I41
sg6
S'https://open.spotify.com/track/4bUXlEJRyV5YGERzh7AHuy'
p4361
sg8
S'\xe5\xb9\xb8\xe7\xa6\x8f\xe5\xa4\xaa\xe7\x9f\xad (\xe9\x9b\xbb\xe8\xa6\x96\xe5\x8a\x87\xe3\x80\x8c\xe5\xa5\x87\xe5\xa6\x99\xe7\x9a\x84\xe6\x99\x82\xe5\x85\x89\xe4\xb9\x8b\xe6\x97\x85\xe3\x80\x8d\xe7\x89\x87\xe5\xb0\xbe\xe6\x9b\xb2) - Ending theme song of TV Drama Magical Space-Time'
p4362
ssS'7rddtqLGuodJPVHhgEH4lK'
p4363
(dp4364
g3
S'Joey Yung'
p4365
sg5
I1
sg6
S'https://open.spotify.com/track/7rddtqLGuodJPVHhgEH4lK'
p4366
sg8
S'\xe8\xaa\xaa\xe7\x9c\x9f\xe7\x9a\x84'
p4367
ssS'6fxVffaTuwjgEk5h9QyRjy'
p4368
(dp4369
g3
S'Ed Sheeran'
p4370
sg5
I42
sg6
S'https://open.spotify.com/track/6fxVffaTuwjgEk5h9QyRjy'
p4371
sg8
S'Photograph'
p4372
ssS'0w5Bdu51Ka25Pf3hojsKHh'
p4373
(dp4374
g3
S'Paramore'
p4375
sg5
I2
sg6
S'https://open.spotify.com/track/0w5Bdu51Ka25Pf3hojsKHh'
p4376
sg8
S'Hard Times'
p4377
ssS'4DjMe5UQIMvg6HS3LoZwh3'
p4378
(dp4379
g3
S'Lin Hsin Yi'
p4380
sg5
I3
sg6
S'https://open.spotify.com/track/4DjMe5UQIMvg6HS3LoZwh3'
p4381
sg8
S'\xe9\x81\x93\xe8\x81\xbd\xe9\x80\x94\xe8\xaa\xaa'
p4382
ssS'1PJ5D7Ts7O6Wr2Tl28awqh'
p4383
(dp4384
g3
S'Karen Mok'
p4385
sg5
I5
sg6
S'https://open.spotify.com/track/1PJ5D7Ts7O6Wr2Tl28awqh'
p4386
sg8
S'I Do'
p4387
ssS'4h4qZgzHongzXzxyhCPKtt'
p4388
(dp4389
g3
S'Justin Hurwitz'
p4390
sg5
I5
sg6
S'https://open.spotify.com/track/4h4qZgzHongzXzxyhCPKtt'
p4391
sg8
S'City Of Stars (Humming) - From La La Land Soundtrack'
p4392
ssS'1VdZ0vKfR5jneCmWIUAMxK'
p4393
(dp4394
g3
S'Ed Sheeran'
p4395
sg5
I1
sg6
S'https://open.spotify.com/track/1VdZ0vKfR5jneCmWIUAMxK'
p4396
sg8
S'The A Team'
p4397
ssS'4uC800S8xp2RJZF9wsHsCa'
p4398
(dp4399
g3
S'Wu Bai'
p4400
sg5
I1
sg6
S'https://open.spotify.com/track/4uC800S8xp2RJZF9wsHsCa'
p4401
sg8
S'\xe9\x87\x98\xe5\xad\x90\xe8\x8a\xb1 - EDM Remix'
p4402
ssS'4w99eXGKJ64oxJSNF9tPNs'
p4403
(dp4404
g3
S'Leo\xe7\x8e\x8b'
p4405
sg5
I8
sg6
S'https://open.spotify.com/track/4w99eXGKJ64oxJSNF9tPNs'
p4406
sg8
S'\xe9\x99\xaa\xe5\xa6\xb3\xe9\x81\x8e\xe5\x81\x87\xe6\x97\xa5'
p4407
ssS'7xE4vKvjqUTtHyJ9zi0k1q'
p4408
(dp4409
g3
S'Emma Stone'
p4410
sg5
I11
sg6
S'https://open.spotify.com/track/7xE4vKvjqUTtHyJ9zi0k1q'
p4411
sg8
S'Someone In The Crowd - From La La Land Soundtrack'
p4412
ssS'6nxQdXa1uAL0rY72wPZu89'
p4413
(dp4414
g3
S'John Legend'
p4415
sg5
I9
sg6
S'https://open.spotify.com/track/6nxQdXa1uAL0rY72wPZu89'
p4416
sg8
S'Love Me Now'
p4417
ssS'4L7Y2OAPiY2I2GndZjAs5K'
p4418
(dp4419
g3
S'Lana Del Rey'
p4420
sg5
I2
sg6
S'https://open.spotify.com/track/4L7Y2OAPiY2I2GndZjAs5K'
p4421
sg8
S'Lust For Life (with The Weeknd)'
p4422
ssS'6kex4EBAj0WHXDKZMEJaaF'
p4423
(dp4424
g3
S'Jason Derulo'
p4425
sg5
I31
sg6
S'https://open.spotify.com/track/6kex4EBAj0WHXDKZMEJaaF'
p4426
sg8
S'Swalla (feat. Nicki Minaj & Ty Dolla $ign)'
p4427
ssS'1s7voXUxRTw98pmy1J8urv'
p4428
(dp4429
g3
S'Mike Perry'
p4430
sg5
I1
sg6
S'https://open.spotify.com/track/1s7voXUxRTw98pmy1J8urv'
p4431
sg8
S'Hands'
p4432
ssS'3Sk5vML32xkCFsysfuvNYl'
p4433
(dp4434
g3
S'Cheer Chen'
p4435
sg5
I21
sg6
S'https://open.spotify.com/track/3Sk5vML32xkCFsysfuvNYl'
p4436
sg8
S'\xe6\x88\x91\xe5\x96\x9c\xe6\xad\xa1\xe4\xb8\x8a\xe4\xbd\xa0\xe6\x99\x82\xe7\x9a\x84\xe5\x86\x85\xe5\xbf\x83\xe6\xb4\xbb\xe5\x8b\x95'
p4437
ssS'54h8xHewdRPnYzmbEHBhOO'
p4438
(dp4439
g3
S'Imagine Dragons'
p4440
sg5
I1
sg6
S'https://open.spotify.com/track/54h8xHewdRPnYzmbEHBhOO'
p4441
sg8
S'I\xe2\x80\x99ll Make It Up To You'
p4442
ssS'3sJHkcxojoJD2Ytbo1yLLF'
p4443
(dp4444
g3
S'Moon Taxi'
p4445
sg5
I7
sg6
S'https://open.spotify.com/track/3sJHkcxojoJD2Ytbo1yLLF'
p4446
sg8
S'Two High'
p4447
ssS'4E4XH4Uc8xZbbCwD5uwCno'
p4448
(dp4449
g3
S'A-Lin'
p4450
sg5
I2
sg6
S'https://open.spotify.com/track/4E4XH4Uc8xZbbCwD5uwCno'
p4451
sg8
S'\xe8\x81\xbd\xe8\xa6\x8b\xe4\xb8\x8b\xe9\x9b\xa8\xe7\x9a\x84\xe8\x81\xb2\xe9\x9f\xb3 (Live) - Live'
p4452
ssS'3qmvK8QARSPkFTuKeIXSbs'
p4453
(dp4454
g3
S'Linkin Park'
p4455
sg5
I1
sg6
S'https://open.spotify.com/track/3qmvK8QARSPkFTuKeIXSbs'
p4456
sg8
S'Bleed It Out'
p4457
ssS'54LGxQGf5LPXNGjtzDZ5IE'
p4458
(dp4459
g3
S'Zara Larsson'
p4460
sg5
I3
sg6
S'https://open.spotify.com/track/54LGxQGf5LPXNGjtzDZ5IE'
p4461
sg8
S'So Good'
p4462
ssS'12ip0ceCeszDTDFxDY1AXJ'
p4463
(dp4464
g3
S'Avicii'
p4465
sg5
I1
sg6
S'https://open.spotify.com/track/12ip0ceCeszDTDFxDY1AXJ'
p4466
sg8
S'You Be Love (feat. Billy Raffoul)'
p4467
ssS'08WPvDEsHvTFuB9w8tC2OS'
p4468
(dp4469
g3
S'Sage The Gemini'
p4470
sg5
I1
sg6
S'https://open.spotify.com/track/08WPvDEsHvTFuB9w8tC2OS'
p4471
sg8
S'Now and Later'
p4472
ssS'1H2qNVjNn13tlpKv6MtiYn'
p4473
(dp4474
g3
S'WINNER'
p4475
sg5
I17
sg6
S'https://open.spotify.com/track/1H2qNVjNn13tlpKv6MtiYn'
p4476
sg8
S'REALLY REALLY'
p4477
ssS'4ZJPwET9Jrgpkqi4Vo3Yg8'
p4478
(dp4479
g3
S'Bebe Rexha'
p4480
sg5
I7
sg6
S'https://open.spotify.com/track/4ZJPwET9Jrgpkqi4Vo3Yg8'
p4481
sg8
S'Bad Bitch (feat. Ty Dolla $ign)'
p4482
ssS'5wIeuNURiubue1VTcglU57'
p4483
(dp4484
g3
S'Kesha'
p4485
sg5
I1
sg6
S'https://open.spotify.com/track/5wIeuNURiubue1VTcglU57'
p4486
sg8
S'Woman'
p4487
ssS'6wtxefzd0CiFzdAkKJmx6j'
p4488
(dp4489
g3
S'JC'
p4490
sg5
I1
sg6
S'https://open.spotify.com/track/6wtxefzd0CiFzdAkKJmx6j'
p4491
sg8
S'\xe7\x8f\xbe\xe4\xbb\xbb\xe6\x9c\x8b\xe5\x8f\x8b'
p4492
ssS'2mNbgyi0gori4b1rFSPgIb'
p4493
(dp4494
g3
S'Lorde'
p4495
sg5
I2
sg6
S'https://open.spotify.com/track/2mNbgyi0gori4b1rFSPgIb'
p4496
sg8
S'Sober'
p4497
ssS'1CSceRZ3QvI4JczMF1PAil'
p4498
(dp4499
g3
S'2NE1'
p4500
sg5
I1
sg6
S'https://open.spotify.com/track/1CSceRZ3QvI4JczMF1PAil'
p4501
sg8
S'Goodbye'
p4502
ssS'4HKChR8rqTbkwcgczQROGj'
p4503
(dp4504
g3
S'Princess Ai'
p4505
sg5
I5
sg6
S'https://open.spotify.com/track/4HKChR8rqTbkwcgczQROGj'
p4506
sg8
S'\xe4\xbb\xa5\xe5\x88\x86\xe6\x89\x8b\xe7\x82\xba\xe5\x89\x8d\xe6\x8f\x90(\xe4\xb8\x89\xe7\xab\x8b\xe5\x81\xb6\xe5\x83\x8f\xe5\x8a\x87\xe3\x80\x8c\xe5\x99\x97\xe9\x80\x9a\xe5\x99\x97\xe9\x80\x9a\xe6\x88\x91\xe6\x84\x9b\xe4\xbd\xa0\xe3\x80\x8d\xe6\x8f\x92\xe6\x9b\xb2) - Insert Song of Memory Love'
p4507
ssS'2Ae5awwKvQpTBKQHr1TYCg'
p4508
(dp4509
g3
S'Nause'
p4510
sg5
I3
sg6
S'https://open.spotify.com/track/2Ae5awwKvQpTBKQHr1TYCg'
p4511
sg8
S'Dynamite (feat. Pretty Sister)'
p4512
ssS'3rQjCycDV0Ibadg6A1Nq45'
p4513
(dp4514
g3
S'TWICE'
p4515
sg5
I10
sg6
S'https://open.spotify.com/track/3rQjCycDV0Ibadg6A1Nq45'
p4516
sg8
S'KNOCK KNOCK'
p4517
ssS'73VrGWg4I2DJiWXtbseyiG'
p4518
(dp4519
g3
S'U2'
p4520
sg5
I1
sg6
S'https://open.spotify.com/track/73VrGWg4I2DJiWXtbseyiG'
p4521
sg8
S'You\xe2\x80\x99re The Best Thing About Me'
p4522
ssS'6mi1omJWULylMHDJqxOiiO'
p4523
(dp4524
g3
S'Xiao Yu'
p4525
sg5
I8
sg6
S'https://open.spotify.com/track/6mi1omJWULylMHDJqxOiiO'
p4526
sg8
S'\xe5\x90\x8c\xe5\x9c\xa8'
p4527
ssS'3bWAqKDWg6u1davspr5IkS'
p4528
(dp4529
g3
S'Robin Schulz'
p4530
sg5
I6
sg6
S'https://open.spotify.com/track/3bWAqKDWg6u1davspr5IkS'
p4531
sg8
S'OK'
p4532
ssS'4UWrKRl0692nS59FujSa8y'
p4533
(dp4534
g3
S'Jeffrey Kung'
p4535
sg5
I1
sg6
S'https://open.spotify.com/track/4UWrKRl0692nS59FujSa8y'
p4536
sg8
S'Real Life'
p4537
ssS'6Na5uKk5SsqZimk0hAWo8y'
p4538
(dp4539
g3
S'Drake'
p4540
sg5
I2
sg6
S'https://open.spotify.com/track/6Na5uKk5SsqZimk0hAWo8y'
p4541
sg8
S'Signs'
p4542
ssS'66X7Bem3jNhtsgYkHnn78x'
p4543
(dp4544
g3
S'Christopher'
p4545
sg5
I2
sg6
S'https://open.spotify.com/track/66X7Bem3jNhtsgYkHnn78x'
p4546
sg8
S'Heartbeat (feat. Kelly Poon)'
p4547
ssS'09KlDlkOYuC5x6hOaM7vaP'
p4548
(dp4549
g3
S'Fifth Harmony'
p4550
sg5
I1
sg6
S'https://open.spotify.com/track/09KlDlkOYuC5x6hOaM7vaP'
p4551
sg8
S'Angel'
p4552
ssS'74ODGXs4byLTRdnKGM4s6E'
p4553
(dp4554
g3
S'LANY'
p4555
sg5
I13
sg6
S'https://open.spotify.com/track/74ODGXs4byLTRdnKGM4s6E'
p4556
sg8
S'Super Far'
p4557
ssS'34CmV6Z4wddNicTZ3vWnNw'
p4558
(dp4559
g3
S'Nan Quan Ma Ma'
p4560
sg5
I2
sg6
S'https://open.spotify.com/track/34CmV6Z4wddNicTZ3vWnNw'
p4561
sg8
S'\xe6\xa9\x98\xe5\xad\x90\xe6\xb1\xbd\xe6\xb0\xb4'
p4562
ssS'32yIszOf09IiMF5MJ8d88H'
p4563
(dp4564
g3
S'YOONA'
p4565
sg5
I1
sg6
S'https://open.spotify.com/track/32yIszOf09IiMF5MJ8d88H'
p4566
sg8
S'\xeb\xb0\x94\xeb\x9e\x8c\xec\x9d\xb4 \xeb\xb6\x88\xeb\xa9\xb4 When The Wind Blows'
p4567
ssS'5ZyOA8xj0AiRzQKAQ5Lnc3'
p4568
(dp4569
g3
S'\xe5\x90\xb3\xe5\xbb\xba\xe8\xb1\xaa'
p4570
sg5
I2
sg6
S'https://open.spotify.com/track/5ZyOA8xj0AiRzQKAQ5Lnc3'
p4571
sg8
S'\xe4\xb8\x8b\xe4\xb8\x80\xe9\xa6\x96\xe6\x83\x85\xe6\xad\x8c'
p4572
ssS'6QcmKCa8gtJI9Z81r0GU2J'
p4573
(dp4574
g3
S'Mayday'
p4575
sg5
I1
sg6
S'https://open.spotify.com/track/6QcmKCa8gtJI9Z81r0GU2J'
p4576
sg8
S'\xe5\x80\x94\xe5\xbc\xb7(3DNA LIVE \xe7\x89\x88) - OT: Jue Qiang'
p4577
ssS'0n2bvWvMwr0gbjcuTm92eW'
p4578
(dp4579
g3
S'Lana Del Rey'
p4580
sg5
I5
sg6
S'https://open.spotify.com/track/0n2bvWvMwr0gbjcuTm92eW'
p4581
sg8
S'Love'
p4582
ssS'2It87P8dH2OZW5SM3ll4oo'
p4583
(dp4584
g3
S'Eason Chan'
p4585
sg5
I5
sg6
S'https://open.spotify.com/track/2It87P8dH2OZW5SM3ll4oo'
p4586
sg8
S'\xe6\xb5\xb7\xe8\x86\xbd'
p4587
ssS'4LSkEJ5P5MV0y3PZqw7guJ'
p4588
(dp4589
g3
S'Cheat Codes'
p4590
sg5
I7
sg6
S'https://open.spotify.com/track/4LSkEJ5P5MV0y3PZqw7guJ'
p4591
sg8
S'Sober'
p4592
ssS'3AsAuGTaDQzavZZThyYlop'
p4593
(dp4594
g3
S'NEIKED'
p4595
sg5
I1
sg6
S'https://open.spotify.com/track/3AsAuGTaDQzavZZThyYlop'
p4596
sg8
S'Sexual'
p4597
ssS'7zTx8ePYAmPFQuxP3xlXZn'
p4598
(dp4599
g3
S'San Holo'
p4600
sg5
I9
sg6
S'https://open.spotify.com/track/7zTx8ePYAmPFQuxP3xlXZn'
p4601
sg8
S'Light'
p4602
ssS'2qLUgEnhkYb6yBH0vaYg1y'
p4603
(dp4604
g3
S'The Vamps'
p4605
sg5
I1
sg6
S'https://open.spotify.com/track/2qLUgEnhkYb6yBH0vaYg1y'
p4606
sg8
S'Middle Of The Night'
p4607
ssS'393MehrSEiQgRYARQAixkT'
p4608
(dp4609
g3
S'Deserts Chang'
p4610
sg5
I1
sg6
S'https://open.spotify.com/track/393MehrSEiQgRYARQAixkT'
p4611
sg8
S'\xe5\x96\x9c\xe6\xad\xa1'
p4612
ssS'4iyH6JZBZjk3htdJdZ6r51'
p4613
(dp4614
g3
S'Demi Lovato'
p4615
sg5
I1
sg6
S'https://open.spotify.com/track/4iyH6JZBZjk3htdJdZ6r51'
p4616
sg8
S'Ruin The Friendship'
p4617
ssS'4N8bc3QFJJcVwXRu4rcEQO'
p4618
(dp4619
g3
S"Girls' Generation"
p4620
sg5
I1
sg6
S'https://open.spotify.com/track/4N8bc3QFJJcVwXRu4rcEQO'
p4621
sg8
S'One Last Time'
p4622
ssS'4kfm1uI9QGaoN9qm6CkAMn'
p4623
(dp4624
g3
S'Linkin Park'
p4625
sg5
I2
sg6
S'https://open.spotify.com/track/4kfm1uI9QGaoN9qm6CkAMn'
p4626
sg8
S"What I've Done"
p4627
ssS'69bp2EbF7Q2rqc5N3ylezZ'
p4628
(dp4629
g3
S'Justin Bieber'
p4630
sg5
I4
sg6
S'https://open.spotify.com/track/69bp2EbF7Q2rqc5N3ylezZ'
p4631
sg8
S'Sorry'
p4632
ssS'4uzaKmkExQmSM4ku8HmTxl'
p4633
(dp4634
g3
S'Christopher'
p4635
sg5
I7
sg6
S'https://open.spotify.com/track/4uzaKmkExQmSM4ku8HmTxl'
p4636
sg8
S'Heartbeat'
p4637
ssS'6eUncuJutsFi9BGO1JaBHh'
p4638
(dp4639
g3
S'Jason Derulo'
p4640
sg5
I6
sg6
S'https://open.spotify.com/track/6eUncuJutsFi9BGO1JaBHh'
p4641
sg8
S"If I'm Lucky"
p4642
ssS'5w3JjfTkj8UCQS56Vrvl9G'
p4643
(dp4644
g3
S'\xe8\x89\xb7\xe8\x96\x87'
p4645
sg5
I7
sg6
S'https://open.spotify.com/track/5w3JjfTkj8UCQS56Vrvl9G'
p4646
sg8
S'\xe6\xa1\x86\xe4\xb8\x8d\xe4\xbd\x8f\xe7\x9a\x84\xe6\x84\x9b(\xe3\x80\x8a\xe7\xb4\x85\xe8\x89\xb2\xe6\xb0\xa3\xe7\x90\x83\xe3\x80\x8b\xe6\x8f\x92\xe6\x9b\xb2)'
p4647
ssS'04CttTezSnv71USiiG9mIo'
p4648
(dp4649
g3
S'Hearts & Colors'
p4650
sg5
I9
sg6
S'https://open.spotify.com/track/04CttTezSnv71USiiG9mIo'
p4651
sg8
S'Lighthouse - Andrelli Remix'
p4652
ssS'4iLqG9SeJSnt0cSPICSjxv'
p4653
(dp4654
g3
S'Charlie Puth'
p4655
sg5
I25
sg6
S'https://open.spotify.com/track/4iLqG9SeJSnt0cSPICSjxv'
p4656
sg8
S'Attention'
p4657
ssS'298CJsrcLojsVyCfW8QdNp'
p4658
(dp4659
g3
S'\xe9\x84\xad\xe8\x88\x88\xe7\x90\xa6'
p4660
sg5
I2
sg6
S'https://open.spotify.com/track/298CJsrcLojsVyCfW8QdNp'
p4661
sg8
S'\xe4\xbd\xa0\xe9\x82\x84\xe5\xa5\xbd\xe8\x91\x97\xe5\x97\x8e'
p4662
ssS'6RUKPb4LETWmmr3iAEQktW'
p4663
(dp4664
g3
S'The Chainsmokers'
p4665
sg5
I34
sg6
S'https://open.spotify.com/track/6RUKPb4LETWmmr3iAEQktW'
p4666
sg8
S'Something Just Like This'
p4667
ssS'5ANbXf5qR48a4jfFnSq80w'
p4668
(dp4669
g3
S'BLACKPINK'
p4670
sg5
I31
sg6
S'https://open.spotify.com/track/5ANbXf5qR48a4jfFnSq80w'
p4671
sg8
S'PLAYING WITH FIRE'
p4672
ssS'0VhgEqMTNZwYL1ARDLLNCX'
p4673
(dp4674
g3
S'James Arthur'
p4675
sg5
I10
sg6
S'https://open.spotify.com/track/0VhgEqMTNZwYL1ARDLLNCX'
p4676
sg8
S'Can I Be Him'
p4677
ssS'2CPqh63wRVscbceKcPxwvv'
p4678
(dp4679
g3
S'Mike Perry'
p4680
sg5
I42
sg6
S'https://open.spotify.com/track/2CPqh63wRVscbceKcPxwvv'
p4681
sg8
S'The Ocean'
p4682
ssS'5H4II42ih0QhHGg6MW9COv'
p4683
(dp4684
g3
S'\xe9\xbb\x83\xe7\x8e\xa0'
p4685
sg5
I5
sg6
S'https://open.spotify.com/track/5H4II42ih0QhHGg6MW9COv'
p4686
sg8
S'\xe6\xb5\xb7\xe9\x82\x8a\xe6\x83\x85\xe6\xad\x8c'
p4687
ssS'5PYPCxyWltRIyPkhSsnWIk'
p4688
(dp4689
g3
S'Justin Hurwitz'
p4690
sg5
I6
sg6
S'https://open.spotify.com/track/5PYPCxyWltRIyPkhSsnWIk'
p4691
sg8
S'Engagement Party - From La La Land Soundtrack'
p4692
ssS'65MOTX6uSFAnqXl7dlAuId'
p4693
(dp4694
g3
S'Demi Lovato'
p4695
sg5
I3
sg6
S'https://open.spotify.com/track/65MOTX6uSFAnqXl7dlAuId'
p4696
sg8
S'Tell Me You Love Me'
p4697
ssS'3hivw0tZ8emjzn6Ei3a4jX'
p4698
(dp4699
g3
S'Zhang Bichen'
p4700
sg5
I19
sg6
S'https://open.spotify.com/track/3hivw0tZ8emjzn6Ei3a4jX'
p4701
sg8
S'\xe6\x9b\xbe\xe7\xb6\x93\xe5\xae\x88\xe5\x80\x99'
p4702
ssS'2bKS7HtZ9Cy4K7NGeRlePF'
p4703
(dp4704
g3
S'Charlie Puth'
p4705
sg5
I1
sg6
S'https://open.spotify.com/track/2bKS7HtZ9Cy4K7NGeRlePF'
p4706
sg8
S'Attention - Acoustic'
p4707
ssS'3ZcEfxszKBq1pdjKxaa7js'
p4708
(dp4709
g3
S'Mayday'
p4710
sg5
I1
sg6
S'https://open.spotify.com/track/3ZcEfxszKBq1pdjKxaa7js'
p4711
sg8
S'\xe7\x98\x8b\xe7\x8b\x82\xe4\xb8\x96\xe7\x95\x8c - Live'
p4712
ssS'4XrWar13kLO1jr535AzKrQ'
p4713
(dp4714
g3
S'Stefanie Sun'
p4715
sg5
I1
sg6
S'https://open.spotify.com/track/4XrWar13kLO1jr535AzKrQ'
p4716
sg8
S'\xe6\x88\x91\xe4\xb8\x8d\xe9\x9b\xa3\xe9\x81\x8e'
p4717
ssS'1xznGGDReH1oQq0xzbwXa3'
p4718
(dp4719
g3
S'Drake'
p4720
sg5
I10
sg6
S'https://open.spotify.com/track/1xznGGDReH1oQq0xzbwXa3'
p4721
sg8
S'One Dance'
p4722
ssS'5GXAXm5YOmYT0kL5jHvYBt'
p4723
(dp4724
g3
S'The Weeknd'
p4725
sg5
I23
sg6
S'https://open.spotify.com/track/5GXAXm5YOmYT0kL5jHvYBt'
p4726
sg8
S'I Feel It Coming'
p4727
ssS'28qVWIUvc0hfc0jhFvFg8H'
p4728
(dp4729
g3
S'Aska Yang'
p4730
sg5
I1
sg6
S'https://open.spotify.com/track/28qVWIUvc0hfc0jhFvFg8H'
p4731
sg8
S'\xe3\x80\x8a\xe8\xb6\x8a\xe9\x81\x8e\xe5\xb1\xb1\xe4\xb8\x98\xe3\x80\x8b\xe2\x80\x94\xe2\x80\x94\xe2\x80\x94 \xe8\x87\xb4\xe6\x9d\x8e\xe5\xae\x97\xe7\x9b\x9b\xe5\x85\x88\xe7\x94\x9f'
p4732
ssS'02nSt61uWF8nGuUENWkwLi'
p4733
(dp4734
g3
S'Jam Hsiao'
p4735
sg5
I6
sg6
S'https://open.spotify.com/track/02nSt61uWF8nGuUENWkwLi'
p4736
sg8
S'\xe5\x96\x84\xe7\x94\xb7\xe4\xbf\xa1\xe5\xa5\xb3'
p4737
ssS'6Lh3qHU2vry05vUEjLKvIb'
p4738
(dp4739
g3
S'Ronghao Li'
p4740
sg5
I3
sg6
S'https://open.spotify.com/track/6Lh3qHU2vry05vUEjLKvIb'
p4741
sg8
S'\xe5\x96\x9c\xe5\x8a\x87\xe4\xb9\x8b\xe7\x8e\x8b'
p4742
ssS'1irQqioH3g13sybtzD3jJL'
p4743
(dp4744
g3
S'Fergie'
p4745
sg5
I1
sg6
S'https://open.spotify.com/track/1irQqioH3g13sybtzD3jJL'
p4746
sg8
S'You Already Know (feat. Nicki Minaj)'
p4747
ssS'0lMbuWUpfTWhEmOKxppEau'
p4748
(dp4749
g3
S'Calvin Harris'
p4750
sg5
I10
sg6
S'https://open.spotify.com/track/0lMbuWUpfTWhEmOKxppEau'
p4751
sg8
S'Rollin'
p4752
ssS'6NMhHiixIYW0WLLcMZQvtJ'
p4753
(dp4754
g3
S'Mayday'
p4755
sg5
I2
sg6
S'https://open.spotify.com/track/6NMhHiixIYW0WLLcMZQvtJ'
p4756
sg8
S'\xe6\xb4\x8b\xe8\x94\xa5'
p4757
ssS'508hbpTQ7wclT2JDpKBUSV'
p4758
(dp4759
g3
S'Lorde'
p4760
sg5
I1
sg6
S'https://open.spotify.com/track/508hbpTQ7wclT2JDpKBUSV'
p4761
sg8
S'Perfect Places'
p4762
ssS'5UAGQJmL7Rn4gn7wlkMyqS'
p4763
(dp4764
g3
S'G.E.M.'
p4765
sg5
I7
sg6
S'https://open.spotify.com/track/5UAGQJmL7Rn4gn7wlkMyqS'
p4766
sg8
S'\xe5\x86\x8d\xe8\xa6\x8b'
p4767
ssS'7dhr1r6OWHxrpvrdHxfe1n'
p4768
(dp4769
g3
S'BIGBANG'
p4770
sg5
I12
sg6
S'https://open.spotify.com/track/7dhr1r6OWHxrpvrdHxfe1n'
p4771
sg8
S'LAST DANCE'
p4772
ssS'31L9yLXSj6LpCFupyMV6CR'
p4773
(dp4774
g3
S'Coldplay'
p4775
sg5
I3
sg6
S'https://open.spotify.com/track/31L9yLXSj6LpCFupyMV6CR'
p4776
sg8
S'Up&Up'
p4777
ssS'0ZiRSqlSsDlY0UyDYU9CTE'
p4778
(dp4779
g3
S'Thomas Rhett'
p4780
sg5
I3
sg6
S'https://open.spotify.com/track/0ZiRSqlSsDlY0UyDYU9CTE'
p4781
sg8
S'Unforgettable'
p4782
ssS'3l8yQMdniG6Os8gUBNXV57'
p4783
(dp4784
g3
S'BTS'
p4785
sg5
I3
sg6
S'https://open.spotify.com/track/3l8yQMdniG6Os8gUBNXV57'
p4786
sg8
S'Outro: Her'
p4787
ssS'0vBUsN3rew8OjgowVwykOn'
p4788
(dp4789
g3
S'TAEYANG'
p4790
sg5
I1
sg6
S'https://open.spotify.com/track/0vBUsN3rew8OjgowVwykOn'
p4791
sg8
S'WAKE ME UP'
p4792
ssS'51ChrwmUPDJvedPQnIU8Ls'
p4793
(dp4794
g3
S'Ed Sheeran'
p4795
sg5
I15
sg6
S'https://open.spotify.com/track/51ChrwmUPDJvedPQnIU8Ls'
p4796
sg8
S'Dive'
p4797
ssS'0tjXPgFz9p7U1e0ncz1ouE'
p4798
(dp4799
g3
S'A-do'
p4800
sg5
I5
sg6
S'https://open.spotify.com/track/0tjXPgFz9p7U1e0ncz1ouE'
p4801
sg8
S'\xe4\xb8\x80\xe8\xab\xbe\xe5\x8d\x83\xe5\xb9\xb4'
p4802
ssS'6jA8HL9i4QGzsj6fjoxp8Y'
p4803
(dp4804
g3
S'Martin Garrix'
p4805
sg5
I20
sg6
S'https://open.spotify.com/track/6jA8HL9i4QGzsj6fjoxp8Y'
p4806
sg8
S'There for You'
p4807
ssS'2tdq0CeAGSfhI2l4Gwkvgx'
p4808
(dp4809
g3
S'BTS'
p4810
sg5
I4
sg6
S'https://open.spotify.com/track/2tdq0CeAGSfhI2l4Gwkvgx'
p4811
sg8
S'Best Of Me'
p4812
ssS'1CUVN2kn7mW5FjkqXTR2W1'
p4813
(dp4814
g3
S'Jonas Blue'
p4815
sg5
I12
sg6
S'https://open.spotify.com/track/1CUVN2kn7mW5FjkqXTR2W1'
p4816
sg8
S'Perfect Strangers'
p4817
ssS'0SGkqnVQo9KPytSri1H6cF'
p4818
(dp4819
g3
S'Big Sean'
p4820
sg5
I9
sg6
S'https://open.spotify.com/track/0SGkqnVQo9KPytSri1H6cF'
p4821
sg8
S'Bounce Back'
p4822
ssS'7fwxSgKgvnktp7pwidNTmj'
p4823
(dp4824
g3
S'Fiona Sit'
p4825
sg5
I3
sg6
S'https://open.spotify.com/track/7fwxSgKgvnktp7pwidNTmj'
p4826
sg8
S'\xe9\x81\xa0\xe9\x81\xa0\xe9\x97\x9c\xe5\xbf\x83'
p4827
ssS'7nKBxz47S9SD79N086fuhn'
p4828
(dp4829
g3
S'Enrique Iglesias'
p4830
sg5
I4
sg6
S'https://open.spotify.com/track/7nKBxz47S9SD79N086fuhn'
p4831
sg8
S'SUBEME LA RADIO'
p4832
ssS'27SdWb2rFzO6GWiYDBTD9j'
p4833
(dp4834
g3
S'Sia'
p4835
sg5
I23
sg6
S'https://open.spotify.com/track/27SdWb2rFzO6GWiYDBTD9j'
p4836
sg8
S'Cheap Thrills'
p4837
ssS'3vgNmjuRDnGLxUFGCLkwpm'
p4838
(dp4839
g3
S'David Guetta'
p4840
sg5
I2
sg6
S'https://open.spotify.com/track/3vgNmjuRDnGLxUFGCLkwpm'
p4841
sg8
S'Light My Body Up (feat. Nicki Minaj & Lil Wayne)'
p4842
ssS'5xhJmd0I15jFcEdqxfCzKk'
p4843
(dp4844
g3
S'The Chainsmokers'
p4845
sg5
I2
sg6
S'https://open.spotify.com/track/5xhJmd0I15jFcEdqxfCzKk'
p4846
sg8
S"It Won't Kill Ya"
p4847
ssS'5dQJKDx0x73seZbwSORa1T'
p4848
(dp4849
g3
S'The Vamps'
p4850
sg5
I1
sg6
S'https://open.spotify.com/track/5dQJKDx0x73seZbwSORa1T'
p4851
sg8
S'Middle Of The Night'
p4852
ssS'6PJ8FF6UR8FZXfEvpHkIVN'
p4853
(dp4854
g3
S'Ed Sheeran'
p4855
sg5
I7
sg6
S'https://open.spotify.com/track/6PJ8FF6UR8FZXfEvpHkIVN'
p4856
sg8
S'How Would You Feel (Paean)'
p4857
ssS'1j4kHkkpqZRBwE0A4CN4Yv'
p4858
(dp4859
g3
S'ZAYN'
p4860
sg5
I5
sg6
S'https://open.spotify.com/track/1j4kHkkpqZRBwE0A4CN4Yv'
p4861
sg8
S'Dusk Till Dawn - Radio Edit'
p4862
ssS'1y3inOvjbVkdHOCl9LnACl'
p4863
(dp4864
g3
S'Tyrone Wells'
p4865
sg5
I1
sg6
S'https://open.spotify.com/track/1y3inOvjbVkdHOCl9LnACl'
p4866
sg8
S'Happy As The Sun'
p4867
ssS'2AmjhQbiL663mGtaVDB6Jx'
p4868
(dp4869
g3
S'Yellow Claw'
p4870
sg5
I1
sg6
S'https://open.spotify.com/track/2AmjhQbiL663mGtaVDB6Jx'
p4871
sg8
S'Good Day (feat. DJ Snake & Elliphant)'
p4872
ssS'3ZvofS0vgNaFLRQBVZLODt'
p4873
(dp4874
g3
S'Will Pan'
p4875
sg5
I9
sg6
S'https://open.spotify.com/track/3ZvofS0vgNaFLRQBVZLODt'
p4876
sg8
S'\xe5\x95\x9e\xe5\xb7\xb4'
p4877
ssS'1ipE3bBLWeLkIvxWUaxpSu'
p4878
(dp4879
g3
S'P!nk'
p4880
sg5
I2
sg6
S'https://open.spotify.com/track/1ipE3bBLWeLkIvxWUaxpSu'
p4881
sg8
S'Beautiful Trauma'
p4882
ssS'5uCax9HTNlzGybIStD3vDh'
p4883
(dp4884
g3
S'James Arthur'
p4885
sg5
I42
sg6
S'https://open.spotify.com/track/5uCax9HTNlzGybIStD3vDh'
p4886
sg8
S"Say You Won't Let Go"
p4887
ssS'7qiZfU4dY1lWllzX7mPBI3'
p4888
(dp4889
g3
S'Ed Sheeran'
p4890
sg5
I40
sg6
S'https://open.spotify.com/track/7qiZfU4dY1lWllzX7mPBI3'
p4891
sg8
S'Shape of You'
p4892
ssS'0wfbD5rAksdXUzRvMfM3x5'
p4893
(dp4894
g3
S'The Chainsmokers'
p4895
sg5
I19
sg6
S'https://open.spotify.com/track/0wfbD5rAksdXUzRvMfM3x5'
p4896
sg8
S'The One'
p4897
ssS'0q75NwOoFiARAVp4EXU4Bs'
p4898
(dp4899
g3
S'SZA'
p4900
sg5
I3
sg6
S'https://open.spotify.com/track/0q75NwOoFiARAVp4EXU4Bs'
p4901
sg8
S'Love Galore'
p4902
ssS'2EEeOnHehOozLq4aS0n6SL'
p4903
(dp4904
g3
S'KYLE'
p4905
sg5
I13
sg6
S'https://open.spotify.com/track/2EEeOnHehOozLq4aS0n6SL'
p4906
sg8
S'iSpy (feat. Lil Yachty)'
p4907
ssS'1GQOgx6dVteAI5xVlB3HiU'
p4908
(dp4909
g3
S'Lin Hsin Yi'
p4910
sg5
I3
sg6
S'https://open.spotify.com/track/1GQOgx6dVteAI5xVlB3HiU'
p4911
sg8
S'\xe6\x9c\x80\xe5\x88\x9d\xe4\xbe\x86\xe5\x88\xb0\xe4\xb8\x96\xe7\x95\x8c\xe7\x9a\x84\xe6\xa8\xa1\xe6\xa8\xa3'
p4912
ssS'5n5bXrfS6tVck1oZ5gdBKp'
p4913
(dp4914
g3
S'Joi Chua'
p4915
sg5
I5
sg6
S'https://open.spotify.com/track/5n5bXrfS6tVck1oZ5gdBKp'
p4916
sg8
S'\xe6\x9c\x83\xe5\xb9\xb8\xe7\xa6\x8f\xe5\x97\x8e'
p4917
ssS'1yFiaFeSLpw4nDYTeErRZ6'
p4918
(dp4919
g3
S'Linkin Park'
p4920
sg5
I1
sg6
S'https://open.spotify.com/track/1yFiaFeSLpw4nDYTeErRZ6'
p4921
sg8
S'Leave Out All The Rest'
p4922
ssS'5Gy8vRrST3td3W9ALb3M7Q'
p4923
(dp4924
g3
S'\xe5\xb0\x8f\xe7\x90\x83'
p4925
sg5
I9
sg6
S'https://open.spotify.com/track/5Gy8vRrST3td3W9ALb3M7Q'
p4926
sg8
S'\xe6\x98\x9f\xe4\xb9\x8b\xe6\x89\x80\xe5\x90\x91'
p4927
ssS'7fwXWKdDNI5IutOMc5OKYw'
p4928
(dp4929
g3
S'J Balvin'
p4930
sg5
I2
sg6
S'https://open.spotify.com/track/7fwXWKdDNI5IutOMc5OKYw'
p4931
sg8
S'Mi Gente (feat. Beyonc\xc3\xa9)'
p4932
ssS'2FiSTH0GYpIioUgjfzMIja'
p4933
(dp4934
g3
S'Kygo'
p4935
sg5
I2
sg6
S'https://open.spotify.com/track/2FiSTH0GYpIioUgjfzMIja'
p4936
sg8
S'Stay'
p4937
ssS'1F2HXIJrE2Xn81OzT2zZvW'
p4938
(dp4939
g3
S'French Montana'
p4940
sg5
I10
sg6
S'https://open.spotify.com/track/1F2HXIJrE2Xn81OzT2zZvW'
p4941
sg8
S'Unforgettable'
p4942
ssS'6QgjcU0zLnzq5OrUoSZ3OK'
p4943
(dp4944
g3
S'Portugal. The Man'
p4945
sg5
I11
sg6
S'https://open.spotify.com/track/6QgjcU0zLnzq5OrUoSZ3OK'
p4946
sg8
S'Feel It Still'
p4947
ssS'4A1oY6H4WNWyLjnbic8eNq'
p4948
(dp4949
g3
S'ANNA'
p4950
sg5
I3
sg6
S'https://open.spotify.com/track/4A1oY6H4WNWyLjnbic8eNq'
p4951
sg8
S'\xe8\xb8\xae\xe8\x85\xb3\xe5\xb0\x96'
p4952
ssS'5oAgI7Pzg6vxuKrfapg3Pi'
p4953
(dp4954
g3
S'Martin Garrix'
p4955
sg5
I5
sg6
S'https://open.spotify.com/track/5oAgI7Pzg6vxuKrfapg3Pi'
p4956
sg8
S'Pizza'
p4957
ssS'7jltqRIyxLXBDNZ1QlmnBp'
p4958
(dp4959
g3
S'Ryan Gosling'
p4960
sg5
I8
sg6
S'https://open.spotify.com/track/7jltqRIyxLXBDNZ1QlmnBp'
p4961
sg8
S'City Of Stars - From La La Land Soundtrack/Pier'
p4962
ssS'78rIJddV4X0HkNAInEcYde'
p4963
(dp4964
g3
S'Starley'
p4965
sg5
I40
sg6
S'https://open.spotify.com/track/78rIJddV4X0HkNAInEcYde'
p4966
sg8
S'Call On Me - Ryan Riback Extended Remix'
p4967
ssS'0L7loeTIg6akW84aEQZpCT'
p4968
(dp4969
g3
S'Major Lazer'
p4970
sg5
I2
sg6
S'https://open.spotify.com/track/0L7loeTIg6akW84aEQZpCT'
p4971
sg8
S'Light It Up (feat. Nyla & Fuse ODG) - Remix'
p4972
ssS'2hPLfPxvRUfXKNGD3VcJnT'
p4973
(dp4974
g3
S'Avicii'
p4975
sg5
I1
sg6
S'https://open.spotify.com/track/2hPLfPxvRUfXKNGD3VcJnT'
p4976
sg8
S'So Much Better - Avicii Remix'
p4977
ssS'4HwFQVCmXg7nXahGMqVqT9'
p4978
(dp4979
g3
S'No Party For Cao Dong'
p4980
sg5
I4
sg6
S'https://open.spotify.com/track/4HwFQVCmXg7nXahGMqVqT9'
p4981
sg8
S'\xe6\x83\x85\xe6\xad\x8c'
p4982
ssS'4Q5yMlwAfAoitqg4r9oZHN'
p4983
(dp4984
g3
S'Cashmere Cat'
p4985
sg5
I8
sg6
S'https://open.spotify.com/track/4Q5yMlwAfAoitqg4r9oZHN'
p4986
sg8
S'Quit (feat. Ariana Grande)'
p4987
ssS'1Bqxj0aH5KewYHKUg1IdrF'
p4988
(dp4989
g3
S'G-Eazy'
p4990
sg5
I9
sg6
S'https://open.spotify.com/track/1Bqxj0aH5KewYHKUg1IdrF'
p4991
sg8
S'Some Kind Of Drug'
p4992
ssS'7j2FhVH4n7X7D669o8T87z'
p4993
(dp4994
g3
S'TAEYEON'
p4995
sg5
I2
sg6
S'https://open.spotify.com/track/7j2FhVH4n7X7D669o8T87z'
p4996
sg8
S'Fire'
p4997
ssS'167NczpNbRF7oWakJaY3Hh'
p4998
(dp4999
g3
S'Niall Horan'
p5000
sg5
I23
sg6
S'https://open.spotify.com/track/167NczpNbRF7oWakJaY3Hh'
p5001
sg8
S'Slow Hands'
p5002
ssS'7DZ0uaQ70sbOTGfmeYZqW2'
p5003
(dp5004
g3
S'Kenji Wu'
p5005
sg5
I5
sg6
S'https://open.spotify.com/track/7DZ0uaQ70sbOTGfmeYZqW2'
p5006
sg8
S'\xe4\xba\xba\xe7\x94\x9f\xe8\xb6\x85\xe5\xb9\xbd\xe9\xbb\x98 (feat. \xe8\x8e\xab\xe5\xae\x89\xe7\x90\xaa)'
p5007
ssS'0fH86zQcE2CmATQju6WpXv'
p5008
(dp5009
g3
S'Kris Kross Amsterdam'
p5010
sg5
I1
sg6
S'https://open.spotify.com/track/0fH86zQcE2CmATQju6WpXv'
p5011
sg8
S'Are You Sure? (feat. Ty Dolla $ign)'
p5012
ssS'0or0gNaKAXYYCsOrpvRzAu'
p5013
(dp5014
g3
S'Lorde'
p5015
sg5
I6
sg6
S'https://open.spotify.com/track/0or0gNaKAXYYCsOrpvRzAu'
p5016
sg8
S'Liability'
p5017
ssS'4G5R7X1gXyjv8EZ39OVLEx'
p5018
(dp5019
g3
S'Jess Lee'
p5020
sg5
I1
sg6
S'https://open.spotify.com/track/4G5R7X1gXyjv8EZ39OVLEx'
p5021
sg8
S'\xe5\x88\x86\xe9\x9a\x94\xe7\xb7\x9a'
p5022
ssS'3dnUMJEjZ9AmukOaj7xIvd'
p5023
(dp5024
g3
S'Jess Lee'
p5025
sg5
I16
sg6
S'https://open.spotify.com/track/3dnUMJEjZ9AmukOaj7xIvd'
p5026
sg8
S'\xe9\x8d\x8a\xe6\x84\x9b'
p5027
ssS'1xwnvVY9gHdo69PuGQkG1U'
p5028
(dp5029
g3
S'GFriend'
p5030
sg5
I1
sg6
S'https://open.spotify.com/track/1xwnvVY9gHdo69PuGQkG1U'
p5031
sg8
S'LOVE WHISPER'
p5032
ssS'5RVsofiRRT48I9YAsexK8e'
p5033
(dp5034
g3
S'Eason Chan'
p5035
sg5
I8
sg6
S'https://open.spotify.com/track/5RVsofiRRT48I9YAsexK8e'
p5036
sg8
S'\xe6\xb7\x98\xe6\xb1\xb0(\xe5\x9c\x8b)'
p5037
ssS'2C0KFbb4v9CNWR5c9jWcKC'
p5038
(dp5039
g3
S'Gorillaz'
p5040
sg5
I1
sg6
S'https://open.spotify.com/track/2C0KFbb4v9CNWR5c9jWcKC'
p5041
sg8
S'Andromeda (feat. DRAM)'
p5042
ssS'4O78zYUVbR33WNhCVJCRwD'
p5043
(dp5044
g3
S'Xian Zi'
p5045
sg5
I2
sg6
S'https://open.spotify.com/track/4O78zYUVbR33WNhCVJCRwD'
p5046
sg8
S'\xe6\xb2\xbf\xe6\xb5\xb7\xe5\x9c\xb0\xe5\xb8\xb6'
p5047
ssS'1lG1qTkfle6es9X57Kitc5'
p5048
(dp5049
g3
S'Mayday'
p5050
sg5
I1
sg6
S'https://open.spotify.com/track/1lG1qTkfle6es9X57Kitc5'
p5051
sg8
S'\xe6\x9c\x80\xe6\x84\x9f\xe5\x8b\x95\xe7\x9a\x84\xe6\xbc\x94\xe5\x94\xb1\xe6\x9c\x83\xe6\x99\x82\xe5\x88\xbb...'
p5052
ssS'4CBGedl3oGI6BkLr1v294h'
p5053
(dp5054
g3
S'Rima Zeidan'
p5055
sg5
I3
sg6
S'https://open.spotify.com/track/4CBGedl3oGI6BkLr1v294h'
p5056
sg8
S'Journey'
p5057
ssS'7yHEDfrJNd0zWOfXwydNH0'
p5058
(dp5059
g3
S'Ariana Grande'
p5060
sg5
I2
sg6
S'https://open.spotify.com/track/7yHEDfrJNd0zWOfXwydNH0'
p5061
sg8
S'Into You'
p5062
ssS'2tG6FZtaX5NPWFA64d8DWz'
p5063
(dp5064
g3
S'NICKTHEREAL'
p5065
sg5
I42
sg6
S'https://open.spotify.com/track/2tG6FZtaX5NPWFA64d8DWz'
p5066
sg8
S'\xe5\xb8\xa5\xe5\x88\xb0\xe5\x88\x86\xe6\x89\x8b'
p5067
ssS'1lntL1cI2UIWlxjL5QiN8g'
p5068
(dp5069
g3
S'Lauv'
p5070
sg5
I25
sg6
S'https://open.spotify.com/track/1lntL1cI2UIWlxjL5QiN8g'
p5071
sg8
S'The Other'
p5072
ssS'6CKLOHuoNU6hfAxlQVzRlL'
p5073
(dp5074
g3
S'Crowd Lu'
p5075
sg5
I2
sg6
S'https://open.spotify.com/track/6CKLOHuoNU6hfAxlQVzRlL'
p5076
sg8
S'\xe6\x88\x91\xe6\x84\x9b\xe4\xbd\xa0'
p5077
ssS'0LtVx5vsq9nfpGsWgjUin6'
p5078
(dp5079
g3
S'Ryan Gosling'
p5080
sg5
I12
sg6
S'https://open.spotify.com/track/0LtVx5vsq9nfpGsWgjUin6'
p5081
sg8
S'City Of Stars - From La La Land Soundtrack'
p5082
ssS'7wPpC1zaGrrVQ1LQYzuaSE'
p5083
(dp5084
g3
S'Wu Bai'
p5085
sg5
I1
sg6
S'https://open.spotify.com/track/7wPpC1zaGrrVQ1LQYzuaSE'
p5086
sg8
S'\xe8\xb9\xa6\xe5\xad\x94 - Lil Pan & Double Dubstep Remix'
p5087
ssS'3wtV2ifnHzirkAElgTGh63'
p5088
(dp5089
g3
S'Coldplay'
p5090
sg5
I1
sg6
S'https://open.spotify.com/track/3wtV2ifnHzirkAElgTGh63'
p5091
sg8
S'Amazing Day'
p5092
ssS'1Himp3M7IH46qw2yBN1Fxy'
p5093
(dp5094
g3
S'Kesha'
p5095
sg5
I1
sg6
S'https://open.spotify.com/track/1Himp3M7IH46qw2yBN1Fxy'
p5096
sg8
S'Finding You'
p5097
ssS'0cZ1M4FJn1PvK46RQmm7jQ'
p5098
(dp5099
g3
S'Graham Colton'
p5100
sg5
I1
sg6
S'https://open.spotify.com/track/0cZ1M4FJn1PvK46RQmm7jQ'
p5101
sg8
S'Love Comes Back Around (acoustic)'
p5102
ssS'5Db9VIdDsN5yu3Eu7CT0i4'
p5103
(dp5104
g3
S'Sam Smith'
p5105
sg5
I2
sg6
S'https://open.spotify.com/track/5Db9VIdDsN5yu3Eu7CT0i4'
p5106
sg8
S'Stay With Me'
p5107
ssS'7nY0TjOsD1BZehkZgLiOxO'
p5108
(dp5109
g3
S'Katy Perry'
p5110
sg5
I1
sg6
S'https://open.spotify.com/track/7nY0TjOsD1BZehkZgLiOxO'
p5111
sg8
S'Hey Hey Hey'
p5112
ssS'4uoumbAMEMaKdtiv763jKz'
p5113
(dp5114
g3
S'Zara Larsson'
p5115
sg5
I10
sg6
S'https://open.spotify.com/track/4uoumbAMEMaKdtiv763jKz'
p5116
sg8
S'TG4M'
p5117
ssS'7pYFPMeK0TnaTGdS6qOtEr'
p5118
(dp5119
g3
S'Stargate'
p5120
sg5
I2
sg6
S'https://open.spotify.com/track/7pYFPMeK0TnaTGdS6qOtEr'
p5121
sg8
S'Waterfall'
p5122
ssS'1yNyoWWWikbLhwIGWjZuDW'
p5123
(dp5124
g3
S'The Vamps'
p5125
sg5
I25
sg6
S'https://open.spotify.com/track/1yNyoWWWikbLhwIGWjZuDW'
p5126
sg8
S'All Night'
p5127
ssS'26AuyrZGzWWiYZPSd3XBIg'
p5128
(dp5129
g3
S'The Chainsmokers'
p5130
sg5
I4
sg6
S'https://open.spotify.com/track/26AuyrZGzWWiYZPSd3XBIg'
p5131
sg8
S'Bloodstream'
p5132
ssS'4vb4mFvYsr2h6enhjJsq9Y'
p5133
(dp5134
g3
S'Adele'
p5135
sg5
I15
sg6
S'https://open.spotify.com/track/4vb4mFvYsr2h6enhjJsq9Y'
p5136
sg8
S'Water Under the Bridge'
p5137
ssS'6cPyTS0Kk2sc4xQwC93kOg'
p5138
(dp5139
g3
S'The Chainsmokers'
p5140
sg5
I8
sg6
S'https://open.spotify.com/track/6cPyTS0Kk2sc4xQwC93kOg'
p5141
sg8
S'Break Up Every Night'
p5142
ssS'3MhrGTUDdTunQuRHmh4Vpj'
p5143
(dp5144
g3
S'Lulu\xe9\xbb\x83\xe8\xb7\xaf\xe6\xa2\x93\xe8\x8c\xb5'
p5145
sg5
I1
sg6
S'https://open.spotify.com/track/3MhrGTUDdTunQuRHmh4Vpj'
p5146
sg8
S'\xe7\xbe\x8e\xe5\xb0\x8f\xe9\xb4\xa8'
p5147
ssS'2kVHAQKVtczchKctctzbtK'
p5148
(dp5149
g3
S'Katy Perry'
p5150
sg5
I10
sg6
S'https://open.spotify.com/track/2kVHAQKVtczchKctctzbtK'
p5151
sg8
S'Swish Swish'
p5152
ssS'17Fd6Yb7mSbinKG8LoWfFl'
p5153
(dp5154
g3
S'Mike Posner'
p5155
sg5
I29
sg6
S'https://open.spotify.com/track/17Fd6Yb7mSbinKG8LoWfFl'
p5156
sg8
S'I Took A Pill In Ibiza - Seeb Remix'
p5157
ssS'4l8BOVzWbksNs7fqYzmO9g'
p5158
(dp5159
g3
S'\xe6\xae\xb7\xe6\x82\x85'
p5160
sg5
I1
sg6
S'https://open.spotify.com/track/4l8BOVzWbksNs7fqYzmO9g'
p5161
sg8
S'\xe6\x84\x9b\xe5\xa4\x9a\xe5\xb0\x91 \xe6\x97\xa9\xe7\x9f\xa5\xe9\x81\x93'
p5162
ssS'2mEvsc8k8iwR099b49PccJ'
p5163
(dp5164
g3
S'Justin Hurwitz'
p5165
sg5
I5
sg6
S'https://open.spotify.com/track/2mEvsc8k8iwR099b49PccJ'
p5166
sg8
S'The End - From La La Land Soundtrack'
p5167
ssS'4tCtwWceOPWzenK2HAIJSb'
p5168
(dp5169
g3
S'Fifth Harmony'
p5170
sg5
I21
sg6
S'https://open.spotify.com/track/4tCtwWceOPWzenK2HAIJSb'
p5171
sg8
S'Work from Home'
p5172
ssS'6Sq6LI2JZUHNpH1ZUaX2LV'
p5173
(dp5174
g3
S'Mayday'
p5175
sg5
I1
sg6
S'https://open.spotify.com/track/6Sq6LI2JZUHNpH1ZUaX2LV'
p5176
sg8
S'\xe8\xa6\xba\xe5\xbe\x97\xe6\x9c\x80\xe6\x9c\x89\xe6\x84\x8f\xe7\xbe\xa9\xe7\x9a\x84\xe6\xad\x8c...'
p5177
ssS'43Y6XibvJzLJj3GyVQaEFJ'
p5178
(dp5179
g3
S'WINNER'
p5180
sg5
I1
sg6
S'https://open.spotify.com/track/43Y6XibvJzLJj3GyVQaEFJ'
p5181
sg8
S'ISLAND'
p5182
ssS'0VqSdtXseb9khdZrnYVyM1'
p5183
(dp5184
g3
S'JJ Lin'
p5185
sg5
I42
sg6
S'https://open.spotify.com/track/0VqSdtXseb9khdZrnYVyM1'
p5186
sg8
S'\xe4\xb8\x8d\xe7\x82\xba\xe8\xaa\xb0\xe8\x80\x8c\xe4\xbd\x9c\xe7\x9a\x84\xe6\xad\x8c'
p5187
ssS'17ufDTRcVua8gFLB31s9Gd'
p5188
(dp5189
g3
S'Eli Hsieh'
p5190
sg5
I9
sg6
S'https://open.spotify.com/track/17ufDTRcVua8gFLB31s9Gd'
p5191
sg8
S'\xe5\xb9\xb4'
p5192
ssS'5nq1uTNIR1cBR72T87viS0'
p5193
(dp5194
g3
S'BTS'
p5195
sg5
I4
sg6
S'https://open.spotify.com/track/5nq1uTNIR1cBR72T87viS0'
p5196
sg8
S'Go Go'
p5197
ssS'7mldq42yDuxiUNn08nvzHO'
p5198
(dp5199
g3
S'Sam Hunt'
p5200
sg5
I12
sg6
S'https://open.spotify.com/track/7mldq42yDuxiUNn08nvzHO'
p5201
sg8
S'Body Like A Back Road'
p5202
ssS'1DhreEbcvTyR9ANl7WfRpp'
p5203
(dp5204
g3
S'Will Pan'
p5205
sg5
I4
sg6
S'https://open.spotify.com/track/1DhreEbcvTyR9ANl7WfRpp'
p5206
sg8
S'Coming Home'
p5207
ssS'3hB5DgAiMAQ4DzYbsMq1IT'
p5208
(dp5209
g3
S'Justin Bieber'
p5210
sg5
I42
sg6
S'https://open.spotify.com/track/3hB5DgAiMAQ4DzYbsMq1IT'
p5211
sg8
S'Love Yourself'
p5212
ssS'32OWobmyAz8J2qA8iWekyS'
p5213
(dp5214
g3
S'Justin Bieber'
p5215
sg5
I1
sg6
S'https://open.spotify.com/track/32OWobmyAz8J2qA8iWekyS'
p5216
sg8
S'Mistletoe'
p5217
ssS'6XOYVSmNDjKUNMXooU4s4z'
p5218
(dp5219
g3
S'OneRepublic'
p5220
sg5
I12
sg6
S'https://open.spotify.com/track/6XOYVSmNDjKUNMXooU4s4z'
p5221
sg8
S'No Vacancy'
p5222
ssS'7oC9o6otwETE5g4WOFgf2x'
p5223
(dp5224
g3
S'\xe5\x90\xb3\xe5\x8d\x93\xe6\xba\x90'
p5225
sg5
I2
sg6
S'https://open.spotify.com/track/7oC9o6otwETE5g4WOFgf2x'
p5226
sg8
S'\xe5\xa4\x9c\xe6\x99\x9a'
p5227
ssS'2KynotKUVV1Kp5hx0RJofP'
p5228
(dp5229
g3
S'\xe9\x99\xb6\xe6\x99\xb6\xe7\x91\xa9'
p5230
sg5
I1
sg6
S'https://open.spotify.com/track/2KynotKUVV1Kp5hx0RJofP'
p5231
sg8
S'\xe5\xa6\x82\xe4\xbd\xa0\xe4\xb8\x80\xe8\x88\xac\xe7\x9a\x84\xe4\xba\xba'
p5232
ssS'2x1d6tYlsTn9fydVzxXLY9'
p5233
(dp5234
g3
S'Apink'
p5235
sg5
I1
sg6
S'https://open.spotify.com/track/2x1d6tYlsTn9fydVzxXLY9'
p5236
sg8
S'FIVE'
p5237
ssS'3FQCJI2t5LTbsRPfYVBSVB'
p5238
(dp5239
g3
S'Linkin Park'
p5240
sg5
I6
sg6
S'https://open.spotify.com/track/3FQCJI2t5LTbsRPfYVBSVB'
p5241
sg8
S'Battle Symphony'
p5242
ssS'5T5mhec5ZDTiecpRNPmxlc'
p5243
(dp5244
g3
S'Mayday'
p5245
sg5
I1
sg6
S'https://open.spotify.com/track/5T5mhec5ZDTiecpRNPmxlc'
p5246
sg8
S'\xe4\xba\xba\xe7\x94\x9f\xe6\xb5\xb7\xe6\xb5\xb7'
p5247
ssS'7lqihDfudBZIRzcbC5G32t'
p5248
(dp5249
g3
S'No Party For Cao Dong'
p5250
sg5
I16
sg6
S'https://open.spotify.com/track/7lqihDfudBZIRzcbC5G32t'
p5251
sg8
S'\xe5\xa4\xa7\xe9\xa2\xa8\xe5\x90\xb9'
p5252
ssS'6PGoSes0D9eUDeeAafB2As'
p5253
(dp5254
g3
S'Kendrick Lamar'
p5255
sg5
I3
sg6
S'https://open.spotify.com/track/6PGoSes0D9eUDeeAafB2As'
p5256
sg8
S'LOVE. FEAT. ZACARI.'
p5257
ssS'15ikUOToS4kR3AMbgguVLi'
p5258
(dp5259
g3
S'\xe9\x99\xb3\xe6\x83\xa0\xe5\xa9\xb7'
p5260
sg5
I1
sg6
S'https://open.spotify.com/track/15ikUOToS4kR3AMbgguVLi'
p5261
sg8
S'\xe8\xa8\x98\xe6\x86\xb6\xe9\x82\x8a\xe5\xa2\x83'
p5262
ssS'0QPo7oW4yxTzUjrXJmCZIy'
p5263
(dp5264
g3
S'The Killers'
p5265
sg5
I1
sg6
S'https://open.spotify.com/track/0QPo7oW4yxTzUjrXJmCZIy'
p5266
sg8
S'The Man'
p5267
ss.