(dp0
S'0mel2N9Ws9r4yLQn5QE21Y'
p1
(dp2
S'artistName'
p3
S'Sam Smith'
p4
sS'weeksOnChart'
p5
I5
sS'track_href'
p6
S'https://open.spotify.com/track/0mel2N9Ws9r4yLQn5QE21Y'
p7
sS'songName'
p8
S'Too Good At Goodbyes'
p9
ssS'728zbo72kOoYdGR3AhNsyF'
p10
(dp11
g3
S'The xx'
p12
sg5
I1
sg6
S'https://open.spotify.com/track/728zbo72kOoYdGR3AhNsyF'
p13
sg8
S'Say Something Loving'
p14
ssS'3sJHkcxojoJD2Ytbo1yLLF'
p15
(dp16
g3
S'Moon Taxi'
p17
sg5
I13
sg6
S'https://open.spotify.com/track/3sJHkcxojoJD2Ytbo1yLLF'
p18
sg8
S'Two High'
p19
ssS'1Q1Lz8shbr2AXR8zKReTqd'
p20
(dp21
g3
S'Hearts & Colors'
p22
sg5
I11
sg6
S'https://open.spotify.com/track/1Q1Lz8shbr2AXR8zKReTqd'
p23
sg8
S'For The Love'
p24
ssS'0jdny0dhgjUwoIp5GkqEaA'
p25
(dp26
g3
S'Kesha'
p27
sg5
I5
sg6
S'https://open.spotify.com/track/0jdny0dhgjUwoIp5GkqEaA'
p28
sg8
S'Praying'
p29
ssS'4pItP9yMHJ4Klk8U6eOmLx'
p30
(dp31
g3
S'Jakob Karlberg'
p32
sg5
I1
sg6
S'https://open.spotify.com/track/4pItP9yMHJ4Klk8U6eOmLx'
p33
sg8
S'Fan va bra'
p34
ssS'60a0Rd6pjrkxjPbaKzXjfq'
p35
(dp36
g3
S'Linkin Park'
p37
sg5
I2
sg6
S'https://open.spotify.com/track/60a0Rd6pjrkxjPbaKzXjfq'
p38
sg8
S'In The End'
p39
ssS'6mzTuMlbCgEtoCitsszlqP'
p40
(dp41
g3
S'Avicii'
p42
sg5
I7
sg6
S'https://open.spotify.com/track/6mzTuMlbCgEtoCitsszlqP'
p43
sg8
S'What Would I Change It To (feat. AlunaGeorge)'
p44
ssS'0prNGof3XqfTvNDxHonvdK'
p45
(dp46
g3
S'Alessia Cara'
p47
sg5
I36
sg6
S'https://open.spotify.com/track/0prNGof3XqfTvNDxHonvdK'
p48
sg8
S'Scars To Your Beautiful'
p49
ssS'01LWBjJwFdRSCeovqipb3D'
p50
(dp51
g3
S'Peter Lundblad'
p52
sg5
I1
sg6
S'https://open.spotify.com/track/01LWBjJwFdRSCeovqipb3D'
p53
sg8
S'Ta mig till havet'
p54
ssS'1pJQAHpD51J7GYaFrrFO9S'
p55
(dp56
g3
S'The Chainsmokers'
p57
sg5
I1
sg6
S'https://open.spotify.com/track/1pJQAHpD51J7GYaFrrFO9S'
p58
sg8
S"Don't Say"
p59
ssS'6HUnnBwYZqcED1eQztxMBN'
p60
(dp61
g3
S'Martin Jensen'
p62
sg5
I42
sg6
S'https://open.spotify.com/track/6HUnnBwYZqcED1eQztxMBN'
p63
sg8
S'Solo Dance'
p64
ssS'6hmhG1b4LEyNuashVvuIAo'
p65
(dp66
g3
S'Zara Larsson'
p67
sg5
I7
sg6
S'https://open.spotify.com/track/6hmhG1b4LEyNuashVvuIAo'
p68
sg8
S'Never Forget You'
p69
ssS'4van05q0OH556TIemPNxpH'
p70
(dp71
g3
S'Callum Beattie'
p72
sg5
I1
sg6
S'https://open.spotify.com/track/4van05q0OH556TIemPNxpH'
p73
sg8
S'We Are Stars'
p74
ssS'0lLdorYw7lVrJydTINhWdI'
p75
(dp76
g3
S'Michael Bubl\xc3\xa9'
p77
sg5
I1
sg6
S'https://open.spotify.com/track/0lLdorYw7lVrJydTINhWdI'
p78
sg8
S"It's Beginning To Look A Lot Like Christmas"
p79
ssS'1OAh8uOEOvTDqkKFsKksCi'
p80
(dp81
g3
S'DJ Khaled'
p82
sg5
I17
sg6
S'https://open.spotify.com/track/1OAh8uOEOvTDqkKFsKksCi'
p83
sg8
S'Wild Thoughts'
p84
ssS'2DGa7iaidT5s0qnINlwMjJ'
p85
(dp86
g3
S'Alan Walker'
p87
sg5
I4
sg6
S'https://open.spotify.com/track/2DGa7iaidT5s0qnINlwMjJ'
p88
sg8
S'The Spectre'
p89
ssS'6ZbiaHwI9x7CIxYGOEmXxd'
p90
(dp91
g3
S'Tungevaag & Raaban'
p92
sg5
I6
sg6
S'https://open.spotify.com/track/6ZbiaHwI9x7CIxYGOEmXxd'
p93
sg8
S'Beast'
p94
ssS'4b4KcovePX8Ke2cLIQTLM0'
p95
(dp96
g3
S'The Vamps'
p97
sg5
I5
sg6
S'https://open.spotify.com/track/4b4KcovePX8Ke2cLIQTLM0'
p98
sg8
S'All Night'
p99
ssS'7wGoVu4Dady5GV0Sv4UIsx'
p100
(dp101
g3
S'Post Malone'
p102
sg5
I1
sg6
S'https://open.spotify.com/track/7wGoVu4Dady5GV0Sv4UIsx'
p103
sg8
S'rockstar'
p104
ssS'2vD1hN8Oxqfh4umefOVIqP'
p105
(dp106
g3
S'Hov1'
p107
sg5
I24
sg6
S'https://open.spotify.com/track/2vD1hN8Oxqfh4umefOVIqP'
p108
sg8
S'Mandy Moore'
p109
ssS'4R8Psrq4XoEX6FV3a76KSY'
p110
(dp111
g3
S'Danny Saucedo'
p112
sg5
I9
sg6
S'https://open.spotify.com/track/4R8Psrq4XoEX6FV3a76KSY'
p113
sg8
S'F\xc3\xb6r k\xc3\xa4rlekens skull'
p114
ssS'7KcGEssn7BnJdTgildK5y0'
p115
(dp116
g3
S'Nicki Minaj'
p117
sg5
I1
sg6
S'https://open.spotify.com/track/7KcGEssn7BnJdTgildK5y0'
p118
sg8
S'No Frauds'
p119
ssS'1CnPYaKxTVb4LWOtiGOm0m'
p120
(dp121
g3
S'Jon Bellion'
p122
sg5
I17
sg6
S'https://open.spotify.com/track/1CnPYaKxTVb4LWOtiGOm0m'
p123
sg8
S'All Time Low'
p124
ssS'4Emp3P4740scVhkfYghivy'
p125
(dp126
g3
S'Oskar Linnros'
p127
sg5
I1
sg6
S'https://open.spotify.com/track/4Emp3P4740scVhkfYghivy'
p128
sg8
S'GeGeGeGe'
p129
ssS'6g1NlCpW7fgqDnWbCCDrHl'
p130
(dp131
g3
S'Avicii'
p132
sg5
I18
sg6
S'https://open.spotify.com/track/6g1NlCpW7fgqDnWbCCDrHl'
p133
sg8
S'Wake Me Up - Radio Edit'
p134
ssS'02OtqoVbJh8fkN4l0XRRcq'
p135
(dp136
g3
S'Samir Badran'
p137
sg5
I10
sg6
S'https://open.spotify.com/track/02OtqoVbJh8fkN4l0XRRcq'
p138
sg8
S'Vet att du vill ha mig (feat. Kevin)'
p139
ssS'5eJ314ozT4CTPlyjdsGq78'
p140
(dp141
g3
S'kent'
p142
sg5
I6
sg6
S'https://open.spotify.com/track/5eJ314ozT4CTPlyjdsGq78'
p143
sg8
S'Utan dina andetag'
p144
ssS'6X6kCTsrpTZFDDfrlH2wLV'
p145
(dp146
g3
S'Boris Ren\xc3\xa9'
p147
sg5
I9
sg6
S'https://open.spotify.com/track/6X6kCTsrpTZFDDfrlH2wLV'
p148
sg8
S'Her Kiss'
p149
ssS'1wLQwg0mloy3yXjL0jPE0N'
p150
(dp151
g3
S'Foo Fighters'
p152
sg5
I1
sg6
S'https://open.spotify.com/track/1wLQwg0mloy3yXjL0jPE0N'
p153
sg8
S'Run'
p154
ssS'6v158kg6ju9kq8ldB4NmIN'
p155
(dp156
g3
S'Peter J\xc3\xb6back'
p157
sg5
I1
sg6
S'https://open.spotify.com/track/6v158kg6ju9kq8ldB4NmIN'
p158
sg8
S'Jag kommer hem igen till jul'
p159
ssS'2FRnf9qhLbvw8fu4IBXx78'
p160
(dp161
g3
S'Wham!'
p162
sg5
I1
sg6
S'https://open.spotify.com/track/2FRnf9qhLbvw8fu4IBXx78'
p163
sg8
S'Last Christmas'
p164
ssS'1iGo1F5FKIDGf1fiKMHUIk'
p165
(dp166
g3
S'Denz'
p167
sg5
I6
sg6
S'https://open.spotify.com/track/1iGo1F5FKIDGf1fiKMHUIk'
p168
sg8
S'Ekta'
p169
ssS'7tr2za8SQg2CI8EDgrdtNl'
p170
(dp171
g3
S'Calvin Harris'
p172
sg5
I22
sg6
S'https://open.spotify.com/track/7tr2za8SQg2CI8EDgrdtNl'
p173
sg8
S'Slide'
p174
ssS'1vxw6aYJls2oq3gW0DujAo'
p175
(dp176
g3
S'Gnarls Barkley'
p177
sg5
I1
sg6
S'https://open.spotify.com/track/1vxw6aYJls2oq3gW0DujAo'
p178
sg8
S'Crazy'
p179
ssS'7B7OdAjUTyMAmnaUmuneVW'
p180
(dp181
g3
S'Freddy Kalas'
p182
sg5
I1
sg6
S'https://open.spotify.com/track/7B7OdAjUTyMAmnaUmuneVW'
p183
sg8
S'Feel Da Rush'
p184
ssS'25khomWgBVamSdKw7hzm3l'
p185
(dp186
g3
S'The Weeknd'
p187
sg5
I8
sg6
S'https://open.spotify.com/track/25khomWgBVamSdKw7hzm3l'
p188
sg8
S'The Hills'
p189
ssS'6xH0uUKbHZsMefcoUPTuV8'
p190
(dp191
g3
S'Astrid S'
p192
sg5
I6
sg6
S'https://open.spotify.com/track/6xH0uUKbHZsMefcoUPTuV8'
p193
sg8
S'Breathe'
p194
ssS'4p8qhuurSA5UOuMAFiyRSj'
p195
(dp196
g3
S'Sarah McLachlan'
p197
sg5
I1
sg6
S'https://open.spotify.com/track/4p8qhuurSA5UOuMAFiyRSj'
p198
sg8
S'Wintersong'
p199
ssS'4pLwZjInHj3SimIyN9SnOz'
p200
(dp201
g3
S'Ariana Grande'
p202
sg5
I15
sg6
S'https://open.spotify.com/track/4pLwZjInHj3SimIyN9SnOz'
p203
sg8
S'Side To Side'
p204
ssS'04LHuPqOMSpnHFaziPq1qO'
p205
(dp206
g3
S'H\xc3\xa5kan Hellstr\xc3\xb6m'
p207
sg5
I10
sg6
S'https://open.spotify.com/track/04LHuPqOMSpnHFaziPq1qO'
p208
sg8
S'Din tid kommer - Otto Knows Remix'
p209
ssS'3E2Zh20GDCR9B1EYjfXWyv'
p210
(dp211
g3
S'AJR'
p212
sg5
I21
sg6
S'https://open.spotify.com/track/3E2Zh20GDCR9B1EYjfXWyv'
p213
sg8
S'Weak'
p214
ssS'2Gl0FzuLxflY6nPifJp5Dr'
p215
(dp216
g3
S'Kygo'
p217
sg5
I24
sg6
S'https://open.spotify.com/track/2Gl0FzuLxflY6nPifJp5Dr'
p218
sg8
S'First Time'
p219
ssS'0xl1w2q4VLojeXp4JfazPL'
p220
(dp221
g3
S'Drake'
p222
sg5
I1
sg6
S'https://open.spotify.com/track/0xl1w2q4VLojeXp4JfazPL'
p223
sg8
S'Sacrifices'
p224
ssS'14AJI1RloVWTh8bJe9gBPM'
p225
(dp226
g3
S'Petra Marklund'
p227
sg5
I1
sg6
S'https://open.spotify.com/track/14AJI1RloVWTh8bJe9gBPM'
p228
sg8
S'H\xc3\xa4nderna mot himlen'
p229
ssS'5YCqzqb6yN6TsMOHb4FSVw'
p230
(dp231
g3
S'Kristian Kostov'
p232
sg5
I3
sg6
S'https://open.spotify.com/track/5YCqzqb6yN6TsMOHb4FSVw'
p233
sg8
S'Beautiful Mess'
p234
ssS'4BHzQ9C00ceJxfG16AlNWb'
p235
(dp236
g3
S'Adele'
p237
sg5
I7
sg6
S'https://open.spotify.com/track/4BHzQ9C00ceJxfG16AlNWb'
p238
sg8
S'Send My Love (To Your New Lover)'
p239
ssS'4Km5HrUvYTaSUfiSGPJeQR'
p240
(dp241
g3
S'Migos'
p242
sg5
I22
sg6
S'https://open.spotify.com/track/4Km5HrUvYTaSUfiSGPJeQR'
p243
sg8
S'Bad and Boujee (feat. Lil Uzi Vert)'
p244
ssS'50PWlIBU7PlGGwzgN8TiFJ'
p245
(dp246
g3
S'Lady Gaga'
p247
sg5
I16
sg6
S'https://open.spotify.com/track/50PWlIBU7PlGGwzgN8TiFJ'
p248
sg8
S'Million Reasons'
p249
ssS'2RttW7RAu5nOAfq6YFvApB'
p250
(dp251
g3
S'Ed Sheeran'
p252
sg5
I32
sg6
S'https://open.spotify.com/track/2RttW7RAu5nOAfq6YFvApB'
p253
sg8
S'Happier'
p254
ssS'5LYQSNHZxEA880URXFHg6h'
p255
(dp256
g3
S'Lana Del Rey'
p257
sg5
I6
sg6
S'https://open.spotify.com/track/5LYQSNHZxEA880URXFHg6h'
p258
sg8
S'Lust for Life (with The Weeknd)'
p259
ssS'3EmmCZoqpWOTY1g2GBwJoR'
p260
(dp261
g3
S'Steve Aoki'
p262
sg5
I16
sg6
S'https://open.spotify.com/track/3EmmCZoqpWOTY1g2GBwJoR'
p263
sg8
S'Just Hold On'
p264
ssS'3YQUpKTmtgPJf8u6ooi9KA'
p265
(dp266
g3
S'Elton John'
p267
sg5
I1
sg6
S'https://open.spotify.com/track/3YQUpKTmtgPJf8u6ooi9KA'
p268
sg8
S'Step Into Christmas'
p269
ssS'25V8NDi9if73rYvHwDKKw5'
p270
(dp271
g3
S'Norlie & KKV'
p272
sg5
I28
sg6
S'https://open.spotify.com/track/25V8NDi9if73rYvHwDKKw5'
p273
sg8
S'Ingen annan r\xc3\xb6r mig som du'
p274
ssS'7yq4Qj7cqayVTp3FF9CWbm'
p275
(dp276
g3
S'Vance Joy'
p277
sg5
I1
sg6
S'https://open.spotify.com/track/7yq4Qj7cqayVTp3FF9CWbm'
p278
sg8
S'Riptide'
p279
ssS'0Ws8D3EWUDgY962Xftb0h5'
p280
(dp281
g3
S'Calvin Harris'
p282
sg5
I1
sg6
S'https://open.spotify.com/track/0Ws8D3EWUDgY962Xftb0h5'
p283
sg8
S'Cash Out'
p284
ssS'5sWeVXwpdXhS88GbbQNxnI'
p285
(dp286
g3
S'Norlie & KKV'
p287
sg5
I23
sg6
S'https://open.spotify.com/track/5sWeVXwpdXhS88GbbQNxnI'
p288
sg8
S'S\xc3\xa4g n\xc3\xa5t som f\xc3\xa5r mig att stanna'
p289
ssS'0gbBzIqrECJOEPvQJIBFs5'
p290
(dp291
g3
S'Lorde'
p292
sg5
I9
sg6
S'https://open.spotify.com/track/0gbBzIqrECJOEPvQJIBFs5'
p293
sg8
S'Green Light'
p294
ssS'5MgXE0uKoY95GtZA1fO7j7'
p295
(dp296
g3
S'First Aid Kit'
p297
sg5
I1
sg6
S'https://open.spotify.com/track/5MgXE0uKoY95GtZA1fO7j7'
p298
sg8
S"It's a Shame"
p299
ssS'1J8teo08q8FlNWIJh9QFr3'
p300
(dp301
g3
S'Danny Saucedo'
p302
sg5
I10
sg6
S'https://open.spotify.com/track/1J8teo08q8FlNWIJh9QFr3'
p303
sg8
S'D\xc3\xb6r f\xc3\xb6r dig'
p304
ssS'5LLj8FOkOpBm1zSEchjVlS'
p305
(dp306
g3
S'TooManyLeftHands'
p307
sg5
I1
sg6
S'https://open.spotify.com/track/5LLj8FOkOpBm1zSEchjVlS'
p308
sg8
S'Mad For It'
p309
ssS'5eqK0tbzUPo2SoeZsov04s'
p310
(dp311
g3
S'21 Savage'
p312
sg5
I8
sg6
S'https://open.spotify.com/track/5eqK0tbzUPo2SoeZsov04s'
p313
sg8
S'Bank Account'
p314
ssS'4iYRa2btalAzPZoSYfROqF'
p315
(dp316
g3
S'Kendrick Lamar'
p317
sg5
I2
sg6
S'https://open.spotify.com/track/4iYRa2btalAzPZoSYfROqF'
p318
sg8
S'XXX. FEAT. U2.'
p319
ssS'3QWjljChcOMkRDYSzF33Qr'
p320
(dp321
g3
S'Kiiara'
p322
sg5
I3
sg6
S'https://open.spotify.com/track/3QWjljChcOMkRDYSzF33Qr'
p323
sg8
S'Whippin (feat. Felix Snow)'
p324
ssS'4xlrALxuaCf9yZBHJeTSG6'
p325
(dp326
g3
S'Jonas Blue'
p327
sg5
I9
sg6
S'https://open.spotify.com/track/4xlrALxuaCf9yZBHJeTSG6'
p328
sg8
S'Mama'
p329
ssS'6Nle9hKrkL1wQpwNfEkxjh'
p330
(dp331
g3
S'Frank Ocean'
p332
sg5
I1
sg6
S'https://open.spotify.com/track/6Nle9hKrkL1wQpwNfEkxjh'
p333
sg8
S'Chanel'
p334
ssS'6oO10y1h2VyxJQfomG4CtH'
p335
(dp336
g3
S'Jess Glynne'
p337
sg5
I1
sg6
S'https://open.spotify.com/track/6oO10y1h2VyxJQfomG4CtH'
p338
sg8
S'Take Me Home'
p339
ssS'00vk0sEfb6mr2ehwSw0Uhn'
p340
(dp341
g3
S'Imany'
p342
sg5
I39
sg6
S'https://open.spotify.com/track/00vk0sEfb6mr2ehwSw0Uhn'
p343
sg8
S"Don't Be So Shy - Filatov & Karas Remix"
p344
ssS'0CokSRCu5hZgPxcZBaEzVE'
p345
(dp346
g3
S'Macklemore'
p347
sg5
I3
sg6
S'https://open.spotify.com/track/0CokSRCu5hZgPxcZBaEzVE'
p348
sg8
S'Glorious (feat. Skylar Grey)'
p349
ssS'3pzjHKrQSvXGHQ98dx18HI'
p350
(dp351
g3
S'Justin Bieber'
p352
sg5
I1
sg6
S'https://open.spotify.com/track/3pzjHKrQSvXGHQ98dx18HI'
p353
sg8
S'What Do You Mean?'
p354
ssS'000xQL6tZNLJzIrtIgxqSl'
p355
(dp356
g3
S'ZAYN'
p357
sg5
I7
sg6
S'https://open.spotify.com/track/000xQL6tZNLJzIrtIgxqSl'
p358
sg8
S'Still Got Time'
p359
ssS'52okn5MNA47tk87PeZJLEL'
p360
(dp361
g3
S'NF'
p362
sg5
I1
sg6
S'https://open.spotify.com/track/52okn5MNA47tk87PeZJLEL'
p363
sg8
S'Let You Down'
p364
ssS'1D3ODoXHBLpdxolZRHWV1j'
p365
(dp366
g3
S'Jonas Blue'
p367
sg5
I5
sg6
S'https://open.spotify.com/track/1D3ODoXHBLpdxolZRHWV1j'
p368
sg8
S'By Your Side'
p369
ssS'1CKd1PnqfYx0H12V9MSaIY'
p370
(dp371
g3
S'Zedd'
p372
sg5
I7
sg6
S'https://open.spotify.com/track/1CKd1PnqfYx0H12V9MSaIY'
p373
sg8
S'Get Low (with Liam Payne)'
p374
ssS'5c4tB0saSkNHX5CyDosuF7'
p375
(dp376
g3
S'Burak Yeter'
p377
sg5
I2
sg6
S'https://open.spotify.com/track/5c4tB0saSkNHX5CyDosuF7'
p378
sg8
S'Tuesday'
p379
ssS'0KKkJNfGyhkQ5aFogxQAPU'
p380
(dp381
g3
S'Bruno Mars'
p382
sg5
I27
sg6
S'https://open.spotify.com/track/0KKkJNfGyhkQ5aFogxQAPU'
p383
sg8
S"That's What I Like"
p384
ssS'6W84ppZNhBGNJiaPwJULHv'
p385
(dp386
g3
S'George Michael'
p387
sg5
I1
sg6
S'https://open.spotify.com/track/6W84ppZNhBGNJiaPwJULHv'
p388
sg8
S'December Song (I Dreamed Of Christmas)'
p389
ssS'5Z01UMMf7V1o0MzF86s6WJ'
p390
(dp391
g3
S'Eminem'
p392
sg5
I35
sg6
S'https://open.spotify.com/track/5Z01UMMf7V1o0MzF86s6WJ'
p393
sg8
S'Lose Yourself - Soundtrack Version'
p394
ssS'5CtI0qwDJkDQGwXD1H1cLb'
p395
(dp396
g3
S'Luis Fonsi'
p397
sg5
I26
sg6
S'https://open.spotify.com/track/5CtI0qwDJkDQGwXD1H1cLb'
p398
sg8
S'Despacito - Remix'
p399
ssS'3aPn75EOXNtrqwA752ckpu'
p400
(dp401
g3
S'Stor'
p402
sg5
I1
sg6
S'https://open.spotify.com/track/3aPn75EOXNtrqwA752ckpu'
p403
sg8
S'Torka dina t\xc3\xa5rar'
p404
ssS'5o4yGlG0PfeVUa6ClIyOxq'
p405
(dp406
g3
S'Charli XCX'
p407
sg5
I1
sg6
S'https://open.spotify.com/track/5o4yGlG0PfeVUa6ClIyOxq'
p408
sg8
S'Boys'
p409
ssS'4aSfgWmRa9KsISD4Jmx7QB'
p410
(dp411
g3
S'Kygo'
p412
sg5
I2
sg6
S'https://open.spotify.com/track/4aSfgWmRa9KsISD4Jmx7QB'
p413
sg8
S'This Town'
p414
ssS'0D1blqxc4pvxRndcmB9YMK'
p415
(dp416
g3
S'Joakim Lundell'
p417
sg5
I6
sg6
S'https://open.spotify.com/track/0D1blqxc4pvxRndcmB9YMK'
p418
sg8
S'Monster'
p419
ssS'0Nhu3zSYbEz32IYiobV75e'
p420
(dp421
g3
S'Halsey'
p422
sg5
I10
sg6
S'https://open.spotify.com/track/0Nhu3zSYbEz32IYiobV75e'
p423
sg8
S'Now Or Never'
p424
ssS'3zJw3rugfpVrmBeDDnUYzy'
p425
(dp426
g3
S'John Lennon'
p427
sg5
I1
sg6
S'https://open.spotify.com/track/3zJw3rugfpVrmBeDDnUYzy'
p428
sg8
S'Happy Xmas (War Is Over) - 2010 Digital Remaster'
p429
ssS'2MHCiOohBZEQuLgDTPvSzF'
p430
(dp431
g3
S'Galantis'
p432
sg5
I33
sg6
S'https://open.spotify.com/track/2MHCiOohBZEQuLgDTPvSzF'
p433
sg8
S'Love On Me'
p434
ssS'2JCv3LADgWrOcJoOa0so6m'
p435
(dp436
g3
S'Depeche Mode'
p437
sg5
I1
sg6
S'https://open.spotify.com/track/2JCv3LADgWrOcJoOa0so6m'
p438
sg8
S"Where's the Revolution"
p439
ssS'1Eck97uRMlprKOOJN9oO1E'
p440
(dp441
g3
S'G-Eazy'
p442
sg5
I16
sg6
S'https://open.spotify.com/track/1Eck97uRMlprKOOJN9oO1E'
p443
sg8
S'Good Life (with G-Eazy & Kehlani)'
p444
ssS'2ekn2ttSfGqwhhate0LSR0'
p445
(dp446
g3
S'Dua Lipa'
p447
sg5
I13
sg6
S'https://open.spotify.com/track/2ekn2ttSfGqwhhate0LSR0'
p448
sg8
S'New Rules'
p449
ssS'5WEqjIUHkwZ5h3DSE7F9bM'
p450
(dp451
g3
S'Avicii'
p452
sg5
I10
sg6
S'https://open.spotify.com/track/5WEqjIUHkwZ5h3DSE7F9bM'
p453
sg8
S'Friend Of Mine (feat. Vargas & Lagola)'
p454
ssS'5humEOJehpAwMJEJmb0JJ2'
p455
(dp456
g3
S'Nat King Cole'
p457
sg5
I1
sg6
S'https://open.spotify.com/track/5humEOJehpAwMJEJmb0JJ2'
p458
sg8
S'The Christmas Song (Merry Christmas To You)'
p459
ssS'75gU1E0ou9Kf8GBVwGs1Xk'
p460
(dp461
g3
S'Zara Larsson'
p462
sg5
I4
sg6
S'https://open.spotify.com/track/75gU1E0ou9Kf8GBVwGs1Xk'
p463
sg8
S'Funeral'
p464
ssS'1sCxVKWImDZSZKvG0U9B23'
p465
(dp466
g3
S'Selena Gomez'
p467
sg5
I12
sg6
S'https://open.spotify.com/track/1sCxVKWImDZSZKvG0U9B23'
p468
sg8
S'Bad Liar'
p469
ssS'7lGKEWMXVWWTt3X71Bv44I'
p470
(dp471
g3
S'X Ambassadors'
p472
sg5
I6
sg6
S'https://open.spotify.com/track/7lGKEWMXVWWTt3X71Bv44I'
p473
sg8
S'Unsteady'
p474
ssS'1FUViuNSldssMIawrOXF2i'
p475
(dp476
g3
S'Bebe Rexha'
p477
sg5
I27
sg6
S'https://open.spotify.com/track/1FUViuNSldssMIawrOXF2i'
p478
sg8
S'I Got You'
p479
ssS'5u2wMciR6CrmTK0btZAu0K'
p480
(dp481
g3
S'Dani M'
p482
sg5
I10
sg6
S'https://open.spotify.com/track/5u2wMciR6CrmTK0btZAu0K'
p483
sg8
S'Cardio'
p484
ssS'2uSLx5uwRIhiA3sJJraNqX'
p485
(dp486
g3
S'Maroon 5'
p487
sg5
I1
sg6
S'https://open.spotify.com/track/2uSLx5uwRIhiA3sJJraNqX'
p488
sg8
S'Help Me Out (with Julia Michaels)'
p489
ssS'4Y8s3kA6vx4y51T79sNVOs'
p490
(dp491
g3
S'Marcus & Martinus'
p492
sg5
I9
sg6
S'https://open.spotify.com/track/4Y8s3kA6vx4y51T79sNVOs'
p493
sg8
S'Girls'
p494
ssS'0ADG9OgdVTL7fgREP75BrZ'
p495
(dp496
g3
S'Zara Larsson'
p497
sg5
I32
sg6
S'https://open.spotify.com/track/0ADG9OgdVTL7fgREP75BrZ'
p498
sg8
S"Ain't My Fault"
p499
ssS'5WC4x0M8zyTDv2h61zJahB'
p500
(dp501
g3
S'Tjuvjakt'
p502
sg5
I2
sg6
S'https://open.spotify.com/track/5WC4x0M8zyTDv2h61zJahB'
p503
sg8
S'T\xc3\xa5rarna i halsen'
p504
ssS'4VPXFi4vFTtS9wHe6oMQaT'
p505
(dp506
g3
S'Zara Larsson'
p507
sg5
I30
sg6
S'https://open.spotify.com/track/4VPXFi4vFTtS9wHe6oMQaT'
p508
sg8
S"I Can't Fall in Love Without You"
p509
ssS'3oIhthYPSKwAwJLA8JClkV'
p510
(dp511
g3
S'Astrid S'
p512
sg5
I1
sg6
S'https://open.spotify.com/track/3oIhthYPSKwAwJLA8JClkV'
p513
sg8
S'Such A Boy'
p514
ssS'4hiUYb2nb6NlfTP9CD38Pe'
p515
(dp516
g3
S'Ti\xc3\xabsto'
p517
sg5
I5
sg6
S'https://open.spotify.com/track/4hiUYb2nb6NlfTP9CD38Pe'
p518
sg8
S'On My Way'
p519
ssS'3TRFq09DUgYj1mug6RRqJW'
p520
(dp521
g3
S'Luke Christopher'
p522
sg5
I15
sg6
S'https://open.spotify.com/track/3TRFq09DUgYj1mug6RRqJW'
p523
sg8
S'Lot to Learn'
p524
ssS'4kbdUYBu8aRoigcOpVLMC4'
p525
(dp526
g3
S'Em Rossi'
p527
sg5
I1
sg6
S'https://open.spotify.com/track/4kbdUYBu8aRoigcOpVLMC4'
p528
sg8
S'No Easy Way (Acoustic)'
p529
ssS'6s2wpWPFPAgKg2LXxi1Oee'
p530
(dp531
g3
S'Bruce Springsteen'
p532
sg5
I1
sg6
S'https://open.spotify.com/track/6s2wpWPFPAgKg2LXxi1Oee'
p533
sg8
S"Santa Claus Is Comin' to Town - Single Version"
p534
ssS'3VsMDGtaLvkctJieuQ0qzA'
p535
(dp536
g3
S'Peps Persson'
p537
sg5
I1
sg6
S'https://open.spotify.com/track/3VsMDGtaLvkctJieuQ0qzA'
p538
sg8
S'Oh boy'
p539
ssS'1rIKgCH4H52lrvDcz50hS8'
p540
(dp541
g3
S'Zara Larsson'
p542
sg5
I35
sg6
S'https://open.spotify.com/track/1rIKgCH4H52lrvDcz50hS8'
p543
sg8
S'Lush Life'
p544
ssS'2q83iIfEGIk8kyrdT4uYOG'
p545
(dp546
g3
S'Marcus & Martinus'
p547
sg5
I35
sg6
S'https://open.spotify.com/track/2q83iIfEGIk8kyrdT4uYOG'
p548
sg8
S'Elektrisk'
p549
ssS'1Geum0bqpJcNA5GasmtVxU'
p550
(dp551
g3
S'Frej Larsson'
p552
sg5
I2
sg6
S'https://open.spotify.com/track/1Geum0bqpJcNA5GasmtVxU'
p553
sg8
S'Popcorn'
p554
ssS'76gUmNLXGQVOsGhfcshkFP'
p555
(dp556
g3
S'Drake'
p557
sg5
I2
sg6
S'https://open.spotify.com/track/76gUmNLXGQVOsGhfcshkFP'
p558
sg8
S'Madiba Riddim'
p559
ssS'3aLSrx8qhssXrh5yjB6oy9'
p560
(dp561
g3
S'Martin Solveig'
p562
sg5
I1
sg6
S'https://open.spotify.com/track/3aLSrx8qhssXrh5yjB6oy9'
p563
sg8
S'All Stars'
p564
ssS'7vGuf3Y35N4wmASOKLUVVU'
p565
(dp566
g3
S'Marshmello'
p567
sg5
I9
sg6
S'https://open.spotify.com/track/7vGuf3Y35N4wmASOKLUVVU'
p568
sg8
S'Silence'
p569
ssS'7pstxLUhvsJC3M4TxHe2aI'
p570
(dp571
g3
S'Ti\xc3\xabsto'
p572
sg5
I2
sg6
S'https://open.spotify.com/track/7pstxLUhvsJC3M4TxHe2aI'
p573
sg8
S'Carry You Home'
p574
ssS'3EfugazgSddQvzZpkof5I4'
p575
(dp576
g3
S'Anne-Marie'
p577
sg5
I1
sg6
S'https://open.spotify.com/track/3EfugazgSddQvzZpkof5I4'
p578
sg8
S'Ciao Adios'
p579
ssS'4fScePDGQMY0ibb3L90xS3'
p580
(dp581
g3
S'H\xc3\xa5kan Hellstr\xc3\xb6m'
p582
sg5
I3
sg6
S'https://open.spotify.com/track/4fScePDGQMY0ibb3L90xS3'
p583
sg8
S'Din tid kommer'
p584
ssS'5153LWKMJiMNIRCChGN4Ja'
p585
(dp586
g3
S'Mike Perry'
p587
sg5
I7
sg6
S'https://open.spotify.com/track/5153LWKMJiMNIRCChGN4Ja'
p588
sg8
S'Hands'
p589
ssS'7iDxZ5Cd0Yg08d4fI5WVtG'
p590
(dp591
g3
S'Calvin Harris'
p592
sg5
I2
sg6
S'https://open.spotify.com/track/7iDxZ5Cd0Yg08d4fI5WVtG'
p593
sg8
S'Skrt On Me'
p594
ssS'08bjJuoHJwfTnjNcuENOFz'
p595
(dp596
g3
S'Daniel Adams-Ray'
p597
sg5
I1
sg6
S'https://open.spotify.com/track/08bjJuoHJwfTnjNcuENOFz'
p598
sg8
S'Gubben i l\xc3\xa5dan'
p599
ssS'1WpQu8U3quBeGnhpZn0r7N'
p600
(dp601
g3
S'Nathan Trent'
p602
sg5
I1
sg6
S'https://open.spotify.com/track/1WpQu8U3quBeGnhpZn0r7N'
p603
sg8
S'Running On Air'
p604
ssS'2G7oeBr9WApu6pd5vyXTqi'
p605
(dp606
g3
S'Lani Mo'
p607
sg5
I1
sg6
S'https://open.spotify.com/track/2G7oeBr9WApu6pd5vyXTqi'
p608
sg8
S'Katterna'
p609
ssS'12nmbTit5bc9GK0UzHpnx6'
p610
(dp611
g3
S'Emil Asserg\xc3\xa5rd'
p612
sg5
I40
sg6
S'https://open.spotify.com/track/12nmbTit5bc9GK0UzHpnx6'
p613
sg8
S'All In'
p614
ssS'0L9lXMXddmoBbBUeF7A9An'
p615
(dp616
g3
S'Gavin James'
p617
sg5
I8
sg6
S'https://open.spotify.com/track/0L9lXMXddmoBbBUeF7A9An'
p618
sg8
S'Nervous (The Ooh Song) - Mark McCabe Remix'
p619
ssS'1HTtUBEY3tuw2btgwwI2Ja'
p620
(dp621
g3
S'Gucci Mane'
p622
sg5
I2
sg6
S'https://open.spotify.com/track/1HTtUBEY3tuw2btgwwI2Ja'
p623
sg8
S'I Get The Bag (feat. Migos)'
p624
ssS'57p8CBvPOxrvyCbn6ttl5r'
p625
(dp626
g3
S'Skrillex'
p627
sg5
I8
sg6
S'https://open.spotify.com/track/57p8CBvPOxrvyCbn6ttl5r'
p628
sg8
S'Would You Ever'
p629
ssS'75JFxkI2RXiU7L9VXzMkle'
p630
(dp631
g3
S'Coldplay'
p632
sg5
I2
sg6
S'https://open.spotify.com/track/75JFxkI2RXiU7L9VXzMkle'
p633
sg8
S'The Scientist'
p634
ssS'43jBqV3j3Xi1g6wO0bhIMd'
p635
(dp636
g3
S'Sage The Gemini'
p637
sg5
I14
sg6
S'https://open.spotify.com/track/43jBqV3j3Xi1g6wO0bhIMd'
p638
sg8
S'Now and Later'
p639
ssS'7oolFzHipTMg2nL7shhdz2'
p640
(dp641
g3
S'Ed Sheeran'
p642
sg5
I6
sg6
S'https://open.spotify.com/track/7oolFzHipTMg2nL7shhdz2'
p643
sg8
S'Eraser'
p644
ssS'5ZT5UB1SNVMkfYiTvnliz4'
p645
(dp646
g3
S'L\xc3\x89ON'
p647
sg5
I4
sg6
S'https://open.spotify.com/track/5ZT5UB1SNVMkfYiTvnliz4'
p648
sg8
S'I Believe in Us'
p649
ssS'3B7udSGy2PfgoCniMSb523'
p650
(dp651
g3
S'Ed Sheeran'
p652
sg5
I20
sg6
S'https://open.spotify.com/track/3B7udSGy2PfgoCniMSb523'
p653
sg8
S'I See Fire'
p654
ssS'2FPfeYlrbSBR8PwCU0zaqq'
p655
(dp656
g3
S'Frank Sinatra'
p657
sg5
I1
sg6
S'https://open.spotify.com/track/2FPfeYlrbSBR8PwCU0zaqq'
p658
sg8
S'Have Yourself A Merry Little Christmas - 1999 - Remaster'
p659
ssS'3NdDpSvN911VPGivFlV5d0'
p660
(dp661
g3
S'ZAYN'
p662
sg5
I42
sg6
S'https://open.spotify.com/track/3NdDpSvN911VPGivFlV5d0'
p663
sg8
S'I Don\xe2\x80\x99t Wanna Live Forever (Fifty Shades Darker) - From Fifty Shades Darker (Original Motion Picture Soundtrack)'
p664
ssS'0cbQXCWA8A17cZ9gm158Pz'
p665
(dp666
g3
S'Rhys'
p667
sg5
I34
sg6
S'https://open.spotify.com/track/0cbQXCWA8A17cZ9gm158Pz'
p668
sg8
S'Last Dance'
p669
ssS'5PB7EuGxRLK1GQJjYJGhTD'
p670
(dp671
g3
S'Benny Anderssons Orkester'
p672
sg5
I1
sg6
S'https://open.spotify.com/track/5PB7EuGxRLK1GQJjYJGhTD'
p673
sg8
S'Nu t\xc3\xa4ndas tusen juleljus'
p674
ssS'64v06aMByxJypLo1USwDVw'
p675
(dp676
g3
S'Frans'
p677
sg5
I1
sg6
S'https://open.spotify.com/track/64v06aMByxJypLo1USwDVw'
p678
sg8
S'Liar'
p679
ssS'37F0uwRSrdzkBiuj0D5UHI'
p680
(dp681
g3
S'The Weeknd'
p682
sg5
I2
sg6
S'https://open.spotify.com/track/37F0uwRSrdzkBiuj0D5UHI'
p683
sg8
S'Reminder'
p684
ssS'78pbUsshESYGcyA8WwDfcE'
p685
(dp686
g3
S'Mustasch'
p687
sg5
I4
sg6
S'https://open.spotify.com/track/78pbUsshESYGcyA8WwDfcE'
p688
sg8
S'\xc3\x84nglahund'
p689
ssS'0gb1J5UrTpzaU1s3nupgCd'
p690
(dp691
g3
S'Galantis'
p692
sg5
I5
sg6
S'https://open.spotify.com/track/0gb1J5UrTpzaU1s3nupgCd'
p693
sg8
S'No Money'
p694
ssS'4BM4ml3TgBFALLaCaJtVhi'
p695
(dp696
g3
S'Klingande'
p697
sg5
I5
sg6
S'https://open.spotify.com/track/4BM4ml3TgBFALLaCaJtVhi'
p698
sg8
S'Pumped Up'
p699
ssS'1UZOjK1BwmwWU14Erba9CZ'
p700
(dp701
g3
S'Miley Cyrus'
p702
sg5
I1
sg6
S'https://open.spotify.com/track/1UZOjK1BwmwWU14Erba9CZ'
p703
sg8
S'Malibu'
p704
ssS'2eMwDehkIC1j68U6FA3Eiq'
p705
(dp706
g3
S'Lil Uzi Vert'
p707
sg5
I20
sg6
S'https://open.spotify.com/track/2eMwDehkIC1j68U6FA3Eiq'
p708
sg8
S'XO TOUR Llif3'
p709
ssS'2KklXplRtxMsBYo474Es0w'
p710
(dp711
g3
S'Ofenbach'
p712
sg5
I13
sg6
S'https://open.spotify.com/track/2KklXplRtxMsBYo474Es0w'
p713
sg8
S'Be Mine'
p714
ssS'7Hz6LLOVxrojLPIHJJ1S0E'
p715
(dp716
g3
S'Sam Smith'
p717
sg5
I1
sg6
S'https://open.spotify.com/track/7Hz6LLOVxrojLPIHJJ1S0E'
p718
sg8
S'Have Yourself A Merry Little Christmas'
p719
ssS'3CRDbSIZ4r5MsZ0YwxuEkn'
p720
(dp721
g3
S'Twenty One Pilots'
p722
sg5
I9
sg6
S'https://open.spotify.com/track/3CRDbSIZ4r5MsZ0YwxuEkn'
p723
sg8
S'Stressed Out'
p724
ssS'3YqKe8g3NEZ1fqj4kYzta6'
p725
(dp726
g3
S'Dimitri Vangelis & Wyman'
p727
sg5
I1
sg6
S'https://open.spotify.com/track/3YqKe8g3NEZ1fqj4kYzta6'
p728
sg8
S'Shine'
p729
ssS'1d1BeKPNgaQ36wcxGqnfU3'
p730
(dp731
g3
S'Gyllene Tider'
p732
sg5
I5
sg6
S'https://open.spotify.com/track/1d1BeKPNgaQ36wcxGqnfU3'
p733
sg8
S'Sommartider'
p734
ssS'3z7rJ0GJHDk2Yv1wA2DKvR'
p735
(dp736
g3
S'Sigrid Bernson'
p737
sg5
I6
sg6
S'https://open.spotify.com/track/3z7rJ0GJHDk2Yv1wA2DKvR'
p738
sg8
S'This Summer'
p739
ssS'6mICuAdrwEjh6Y6lroV2Kg'
p740
(dp741
g3
S'Shakira'
p742
sg5
I18
sg6
S'https://open.spotify.com/track/6mICuAdrwEjh6Y6lroV2Kg'
p743
sg8
S'Chantaje'
p744
ssS'1KTu92zFjElqc3h20XCwE3'
p745
(dp746
g3
S'Frank Pierce'
p747
sg5
I7
sg6
S'https://open.spotify.com/track/1KTu92zFjElqc3h20XCwE3'
p748
sg8
S'Vibe'
p749
ssS'3gWu8y0TKCIdy2mpTqVnTl'
p750
(dp751
g3
S'NF'
p752
sg5
I2
sg6
S'https://open.spotify.com/track/3gWu8y0TKCIdy2mpTqVnTl'
p753
sg8
S'Let You Down'
p754
ssS'63kgvYkyiyVAAomPuP2Ipt'
p755
(dp756
g3
S'Tonsatt'
p757
sg5
I21
sg6
S'https://open.spotify.com/track/63kgvYkyiyVAAomPuP2Ipt'
p758
sg8
S'N\xc3\xa4r man festar festar man'
p759
ssS'7gHs73wELdeycvS48JfIos'
p760
(dp761
g3
S'Alan Walker'
p762
sg5
I42
sg6
S'https://open.spotify.com/track/7gHs73wELdeycvS48JfIos'
p763
sg8
S'Faded'
p764
ssS'0HVS3uAvp6y6A0hpnjwWDn'
p765
(dp766
g3
S'Sam Feldt'
p767
sg5
I6
sg6
S'https://open.spotify.com/track/0HVS3uAvp6y6A0hpnjwWDn'
p768
sg8
S'Runaways'
p769
ssS'6LUOMjoORvAkdhBYvESO46'
p770
(dp771
g3
S'Sia'
p772
sg5
I19
sg6
S'https://open.spotify.com/track/6LUOMjoORvAkdhBYvESO46'
p773
sg8
S'Move Your Body - Alan Walker Remix'
p774
ssS'3OoZagIW3YK8vjt0ws6NOI'
p775
(dp776
g3
S'DJ Khaled'
p777
sg5
I3
sg6
S'https://open.spotify.com/track/3OoZagIW3YK8vjt0ws6NOI'
p778
sg8
S'Shining'
p779
ssS'5nFOqQz9mRELVYkw2LQXpK'
p780
(dp781
g3
S'Amanda Jenssen'
p782
sg5
I1
sg6
S'https://open.spotify.com/track/5nFOqQz9mRELVYkw2LQXpK'
p783
sg8
S'Another Christmas'
p784
ssS'00lNx0OcTJrS3MKHcB80HY'
p785
(dp786
g3
S'Jax Jones'
p787
sg5
I35
sg6
S'https://open.spotify.com/track/00lNx0OcTJrS3MKHcB80HY'
p788
sg8
S"You Don't Know Me - Radio Edit"
p789
ssS'2s76aKBWKShlwPC4xTtEEE'
p790
(dp791
g3
S'State of Sound'
p792
sg5
I9
sg6
S'https://open.spotify.com/track/2s76aKBWKShlwPC4xTtEEE'
p793
sg8
S'Wake Up Where You Are'
p794
ssS'1f7bJzsezTm9ZS2DVBUVOM'
p795
(dp796
g3
S'Jill Johnson'
p797
sg5
I16
sg6
S'https://open.spotify.com/track/1f7bJzsezTm9ZS2DVBUVOM'
p798
sg8
S'Open Your Heart'
p799
ssS'1uXbwHHfgsXcUKfSZw5ZJ0'
p800
(dp801
g3
S'Beyonc\xc3\xa9'
p802
sg5
I1
sg6
S'https://open.spotify.com/track/1uXbwHHfgsXcUKfSZw5ZJ0'
p803
sg8
S'Run the World (Girls)'
p804
ssS'4nDfc6F2uVcc6wdG7kBzWO'
p805
(dp806
g3
S'Nick Jonas'
p807
sg5
I3
sg6
S'https://open.spotify.com/track/4nDfc6F2uVcc6wdG7kBzWO'
p808
sg8
S'Bom Bidi Bom - From Fifty Shades Darker (Original Motion Picture Soundtrack)'
p809
ssS'7JiKokpshCDLgo4ZXaRNpR'
p810
(dp811
g3
S'Sandro Cavazza'
p812
sg5
I1
sg6
S'https://open.spotify.com/track/7JiKokpshCDLgo4ZXaRNpR'
p813
sg8
S'What It Feels Like'
p814
ssS'0fg8CqpjdojMyXLNzM2PaJ'
p815
(dp816
g3
S'Major Lazer'
p817
sg5
I15
sg6
S'https://open.spotify.com/track/0fg8CqpjdojMyXLNzM2PaJ'
p818
sg8
S'Run Up (feat. PARTYNEXTDOOR & Nicki Minaj)'
p819
ssS'5wf1wTJwJ1nnLJYzwHIvsx'
p820
(dp821
g3
S'Lorentz'
p822
sg5
I1
sg6
S'https://open.spotify.com/track/5wf1wTJwJ1nnLJYzwHIvsx'
p823
sg8
S'Schnip schnip'
p824
ssS'3hxOl3gt7LxHV9b75UKuKO'
p825
(dp826
g3
S'Molly Sand\xc3\xa9n'
p827
sg5
I8
sg6
S'https://open.spotify.com/track/3hxOl3gt7LxHV9b75UKuKO'
p828
sg8
S'Rygg mot rygg'
p829
ssS'2GdIKPluDT6hT3xBxxKiUK'
p830
(dp831
g3
S'Ilinca'
p832
sg5
I1
sg6
S'https://open.spotify.com/track/2GdIKPluDT6hT3xBxxKiUK'
p833
sg8
S'Yodel it!'
p834
ssS'6uFsE1JgZ20EXyU0JQZbUR'
p835
(dp836
g3
S'Taylor Swift'
p837
sg5
I7
sg6
S'https://open.spotify.com/track/6uFsE1JgZ20EXyU0JQZbUR'
p838
sg8
S'Look What You Made Me Do'
p839
ssS'27O6BAKukft6YwdwWIlnnP'
p840
(dp841
g3
S'Stiftelsen'
p842
sg5
I2
sg6
S'https://open.spotify.com/track/27O6BAKukft6YwdwWIlnnP'
p843
sg8
S'UB2'
p844
ssS'3kYnVdgso6c24nSPRixpNm'
p845
(dp846
g3
S'Carola'
p847
sg5
I1
sg6
S'https://open.spotify.com/track/3kYnVdgso6c24nSPRixpNm'
p848
sg8
S'Nu t\xc3\xa4ndas tusen juleljus'
p849
ssS'6kTZ2RyWlh6AzodUsYy63y'
p850
(dp851
g3
S'Johnossi'
p852
sg5
I1
sg6
S'https://open.spotify.com/track/6kTZ2RyWlh6AzodUsYy63y'
p853
sg8
S'Hands'
p854
ssS'2NHAh9RwSCEwDo9jHeeQbp'
p855
(dp856
g3
S'Hov1'
p857
sg5
I25
sg6
S'https://open.spotify.com/track/2NHAh9RwSCEwDo9jHeeQbp'
p858
sg8
S'Gift'
p859
ssS'4U0EIUAwYsHgNwWOHt6gqV'
p860
(dp861
g3
S'Champion J.R'
p862
sg5
I1
sg6
S'https://open.spotify.com/track/4U0EIUAwYsHgNwWOHt6gqV'
p863
sg8
S'Callaloo'
p864
ssS'3QKxz43voebR2NmdKxHQg0'
p865
(dp866
g3
S'Tjuvjakt'
p867
sg5
I22
sg6
S'https://open.spotify.com/track/3QKxz43voebR2NmdKxHQg0'
p868
sg8
S'T\xc3\xa5rarna i halsen'
p869
ssS'79fObEnvKwbIjh3p4cf6dQ'
p870
(dp871
g3
S'Ben Mitkus'
p872
sg5
I1
sg6
S'https://open.spotify.com/track/79fObEnvKwbIjh3p4cf6dQ'
p873
sg8
S'Do U Love Me'
p874
ssS'0gHS4d1Per54lZHgO9B64x'
p875
(dp876
g3
S'Sam Feldt'
p877
sg5
I3
sg6
S'https://open.spotify.com/track/0gHS4d1Per54lZHgO9B64x'
p878
sg8
S'YES'
p879
ssS'378iszndTZAR4dH8kwsLC6'
p880
(dp881
g3
S'Sia'
p882
sg5
I1
sg6
S'https://open.spotify.com/track/378iszndTZAR4dH8kwsLC6'
p883
sg8
S'Cheap Thrills'
p884
ssS'7GX5flRQZVHRAGd6B4TmDO'
p885
(dp886
g3
S'Lil Uzi Vert'
p887
sg5
I7
sg6
S'https://open.spotify.com/track/7GX5flRQZVHRAGd6B4TmDO'
p888
sg8
S'XO TOUR Llif3'
p889
ssS'4F7A0DXBrmUAkp32uenhZt'
p890
(dp891
g3
S'The Weeknd'
p892
sg5
I10
sg6
S'https://open.spotify.com/track/4F7A0DXBrmUAkp32uenhZt'
p893
sg8
S'Party Monster'
p894
ssS'5kRPPEWFJIMox5qIkQkiz5'
p895
(dp896
g3
S'Harry Styles'
p897
sg5
I4
sg6
S'https://open.spotify.com/track/5kRPPEWFJIMox5qIkQkiz5'
p898
sg8
S'Sweet Creature'
p899
ssS'3V9DfRoS7JfSkuTyNEsCxQ'
p900
(dp901
g3
S'Martin Jensen'
p902
sg5
I4
sg6
S'https://open.spotify.com/track/3V9DfRoS7JfSkuTyNEsCxQ'
p903
sg8
S'Wait'
p904
ssS'5ULRlgiSPSKTaJN1vU9yso'
p905
(dp906
g3
S'Ed Sheeran'
p907
sg5
I10
sg6
S'https://open.spotify.com/track/5ULRlgiSPSKTaJN1vU9yso'
p908
sg8
S'Shape of You - Acoustic'
p909
ssS'6fO2yOX9vV2YL4vczMz6ij'
p910
(dp911
g3
S'Hov1'
p912
sg5
I7
sg6
S'https://open.spotify.com/track/6fO2yOX9vV2YL4vczMz6ij'
p913
sg8
S'Sex'
p914
ssS'5tVA6TkbaAH9QMITTQRrNv'
p915
(dp916
g3
S'Tom Petty'
p917
sg5
I2
sg6
S'https://open.spotify.com/track/5tVA6TkbaAH9QMITTQRrNv'
p918
sg8
S"Free Fallin'"
p919
ssS'75ZvA4QfFiZvzhj2xkaWAh'
p920
(dp921
g3
S'Post Malone'
p922
sg5
I2
sg6
S'https://open.spotify.com/track/75ZvA4QfFiZvzhj2xkaWAh'
p923
sg8
S'I Fall Apart'
p924
ssS'6EbzYIiVoxMeYig8e5pm1T'
p925
(dp926
g3
S'Jon Henrik Fj\xc3\xa4llgren'
p927
sg5
I11
sg6
S'https://open.spotify.com/track/6EbzYIiVoxMeYig8e5pm1T'
p928
sg8
S'En v\xc3\xa4rld full av strider - Eatneme gusnie jeenh d\xc3\xa5aroeh'
p929
ssS'6JSryEdVJTZq6YBn3wK2sn'
p930
(dp931
g3
S'Foo Fighters'
p932
sg5
I1
sg6
S'https://open.spotify.com/track/6JSryEdVJTZq6YBn3wK2sn'
p933
sg8
S'Arrows'
p934
ssS'4kflIGfjdZJW4ot2ioixTB'
p935
(dp936
g3
S'Adele'
p937
sg5
I23
sg6
S'https://open.spotify.com/track/4kflIGfjdZJW4ot2ioixTB'
p938
sg8
S'Someone Like You'
p939
ssS'64F7bSuYMryLMef8BSvQw0'
p940
(dp941
g3
S'Miriam Bryant'
p942
sg5
I18
sg6
S'https://open.spotify.com/track/64F7bSuYMryLMef8BSvQw0'
p943
sg8
S'Everything'
p944
ssS'7hDc8b7IXETo14hHIHdnhd'
p945
(dp946
g3
S'Drake'
p947
sg5
I21
sg6
S'https://open.spotify.com/track/7hDc8b7IXETo14hHIHdnhd'
p948
sg8
S'Passionfruit'
p949
ssS'6grsbjkrl7DN6waueAmNbm'
p950
(dp951
g3
S'James TW'
p952
sg5
I2
sg6
S'https://open.spotify.com/track/6grsbjkrl7DN6waueAmNbm'
p953
sg8
S'Ex'
p954
ssS'7pgXvBRfmm8JS86DdtOZnM'
p955
(dp956
g3
S'Adrijana'
p957
sg5
I8
sg6
S'https://open.spotify.com/track/7pgXvBRfmm8JS86DdtOZnM'
p958
sg8
S'Amare'
p959
ssS'2V0B9LptTa2Sfm1db4tEXF'
p960
(dp961
g3
S'Les Gordons'
p962
sg5
I2
sg6
S'https://open.spotify.com/track/2V0B9LptTa2Sfm1db4tEXF'
p963
sg8
S'Bound To Fall'
p964
ssS'5XgBoFLmWyBKMtVEfES2z8'
p965
(dp966
g3
S'Adel'
p967
sg5
I6
sg6
S'https://open.spotify.com/track/5XgBoFLmWyBKMtVEfES2z8'
p968
sg8
S'Skina'
p969
ssS'0tICYNayWWhH9GPeFrfjfD'
p970
(dp971
g3
S'Kungs'
p972
sg5
I10
sg6
S'https://open.spotify.com/track/0tICYNayWWhH9GPeFrfjfD'
p973
sg8
S"This Girl (Kungs Vs. Cookin' On 3 Burners) - Kungs Vs. Cookin' On 3 Burners"
p974
ssS'3Lfiu5sZ4M4B6JaKMBc0FU'
p975
(dp976
g3
S'Ed Sheeran'
p977
sg5
I8
sg6
S'https://open.spotify.com/track/3Lfiu5sZ4M4B6JaKMBc0FU'
p978
sg8
S'Barcelona'
p979
ssS'2LTlO3NuNVN70lp2ZbVswF'
p980
(dp981
g3
S'Kendrick Lamar'
p982
sg5
I2
sg6
S'https://open.spotify.com/track/2LTlO3NuNVN70lp2ZbVswF'
p983
sg8
S'FEEL.'
p984
ssS'1Swuz3vZ0kog3L6paF2upE'
p985
(dp986
g3
S'Stiftelsen'
p987
sg5
I1
sg6
S'https://open.spotify.com/track/1Swuz3vZ0kog3L6paF2upE'
p988
sg8
S'Som ingen annan'
p989
ssS'44TSWwpukPG1LvnJeupLYy'
p990
(dp991
g3
S'Hov1'
p992
sg5
I17
sg6
S'https://open.spotify.com/track/44TSWwpukPG1LvnJeupLYy'
p993
sg8
S'Hov1'
p994
ssS'1louJpMmzEicAn7lzDalPW'
p995
(dp996
g3
S'Cheat Codes'
p997
sg5
I28
sg6
S'https://open.spotify.com/track/1louJpMmzEicAn7lzDalPW'
p998
sg8
S'No Promises (feat. Demi Lovato)'
p999
ssS'4P6tyL5Uom1pIcFtTwO898'
p1000
(dp1001
g3
S'Matoma'
p1002
sg5
I2
sg6
S'https://open.spotify.com/track/4P6tyL5Uom1pIcFtTwO898'
p1003
sg8
S'Girl At Coachella (with Matoma & MAGIC! feat. DRAM)'
p1004
ssS'7zgqtptZvhf8GEmdsM2vp2'
p1005
(dp1006
g3
S'Taylor Swift'
p1007
sg5
I1
sg6
S'https://open.spotify.com/track/7zgqtptZvhf8GEmdsM2vp2'
p1008
sg8
S'...Ready For It?'
p1009
ssS'0XLOf9LhyazPX9Ld8jPiUq'
p1010
(dp1011
g3
S'Selena Gomez'
p1012
sg5
I8
sg6
S'https://open.spotify.com/track/0XLOf9LhyazPX9Ld8jPiUq'
p1013
sg8
S'Fetish (feat. Gucci Mane)'
p1014
ssS'1yxgsra98r3qAtxqiGZPiX'
p1015
(dp1016
g3
S'Travis Scott'
p1017
sg5
I13
sg6
S'https://open.spotify.com/track/1yxgsra98r3qAtxqiGZPiX'
p1018
sg8
S'Butterfly Effect'
p1019
ssS'2Fjz5ZC5BvFdCqcnTZ3ilH'
p1020
(dp1021
g3
S'Alan Walker'
p1022
sg5
I10
sg6
S'https://open.spotify.com/track/2Fjz5ZC5BvFdCqcnTZ3ilH'
p1023
sg8
S'Sing Me to Sleep'
p1024
ssS'0Clb9aiXWa0dvVff5aN4VN'
p1025
(dp1026
g3
S'Astrid S'
p1027
sg5
I7
sg6
S'https://open.spotify.com/track/0Clb9aiXWa0dvVff5aN4VN'
p1028
sg8
S'Think Before I Talk'
p1029
ssS'3A7qX2QjDlPnazUsRk5y0M'
p1030
(dp1031
g3
S'David Guetta'
p1032
sg5
I17
sg6
S'https://open.spotify.com/track/3A7qX2QjDlPnazUsRk5y0M'
p1033
sg8
S'2U (feat. Justin Bieber)'
p1034
ssS'5M2y8QdDepGYMsWyxhoxQU'
p1035
(dp1036
g3
S'Veronica Maggio'
p1037
sg5
I2
sg6
S'https://open.spotify.com/track/5M2y8QdDepGYMsWyxhoxQU'
p1038
sg8
S'Jag kommer'
p1039
ssS'6A8dnC0xkiuWN4BshmTB2I'
p1040
(dp1041
g3
S'A R I Z O N A'
p1042
sg5
I21
sg6
S'https://open.spotify.com/track/6A8dnC0xkiuWN4BshmTB2I'
p1043
sg8
S'Oceans Away'
p1044
ssS'2OALaHcDdKkjYEpAr0Qzab'
p1045
(dp1046
g3
S'Avicii'
p1047
sg5
I9
sg6
S'https://open.spotify.com/track/2OALaHcDdKkjYEpAr0Qzab'
p1048
sg8
S'Lonely Together (feat. Rita Ora)'
p1049
ssS'56lBX2WHqfGuoeZxZvUnVj'
p1050
(dp1051
g3
S'Imagine Dragons'
p1052
sg5
I3
sg6
S'https://open.spotify.com/track/56lBX2WHqfGuoeZxZvUnVj'
p1053
sg8
S'Thunder'
p1054
ssS'0XfOi87h82i09rQjWYG0Bm'
p1055
(dp1056
g3
S'Jax Jones'
p1057
sg5
I12
sg6
S'https://open.spotify.com/track/0XfOi87h82i09rQjWYG0Bm'
p1058
sg8
S'Instruction (feat. Demi Lovato & Stefflon Don)'
p1059
ssS'1GDQMDZbpjZMuyRtTqvVtj'
p1060
(dp1061
g3
S'Etzia'
p1062
sg5
I2
sg6
S'https://open.spotify.com/track/1GDQMDZbpjZMuyRtTqvVtj'
p1063
sg8
S'Up'
p1064
ssS'5JUu0unA8VwhTZ9LkMWUVI'
p1065
(dp1066
g3
S'Drake'
p1067
sg5
I1
sg6
S'https://open.spotify.com/track/5JUu0unA8VwhTZ9LkMWUVI'
p1068
sg8
S'Since Way Back'
p1069
ssS'4IWAyPf1KMq7JCyGeCjTeH'
p1070
(dp1071
g3
S'Imagine Dragons'
p1072
sg5
I4
sg6
S'https://open.spotify.com/track/4IWAyPf1KMq7JCyGeCjTeH'
p1073
sg8
S'Whatever It Takes'
p1074
ssS'53MLQmyHFwaGQwi0t9XHKY'
p1075
(dp1076
g3
S'Hov1'
p1077
sg5
I22
sg6
S'https://open.spotify.com/track/53MLQmyHFwaGQwi0t9XHKY'
p1078
sg8
S'K\xc3\xa4rleksbrev'
p1079
ssS'1DJY8zj0Cbglv1kMjDivke'
p1080
(dp1081
g3
S'Zara Larsson'
p1082
sg5
I3
sg6
S'https://open.spotify.com/track/1DJY8zj0Cbglv1kMjDivke'
p1083
sg8
S'Make That Money Girl'
p1084
ssS'1SqnBI3z3vM648PkfhPU1c'
p1085
(dp1086
g3
S'Kongsted'
p1087
sg5
I1
sg6
S'https://open.spotify.com/track/1SqnBI3z3vM648PkfhPU1c'
p1088
sg8
S'Tik Tok'
p1089
ssS'7fwXWKdDNI5IutOMc5OKYw'
p1090
(dp1091
g3
S'J Balvin'
p1092
sg5
I2
sg6
S'https://open.spotify.com/track/7fwXWKdDNI5IutOMc5OKYw'
p1093
sg8
S'Mi Gente (feat. Beyonc\xc3\xa9)'
p1094
ssS'6XAGQBdN6pdjGrhTGryIUE'
p1095
(dp1096
g3
S'Joakim Lundell'
p1097
sg5
I21
sg6
S'https://open.spotify.com/track/6XAGQBdN6pdjGrhTGryIUE'
p1098
sg8
S'My Addiction'
p1099
ssS'5stBjr01wRUJa6BGqkxPD7'
p1100
(dp1101
g3
S'Alessia Cara'
p1102
sg5
I2
sg6
S'https://open.spotify.com/track/5stBjr01wRUJa6BGqkxPD7'
p1103
sg8
S'The Other Side (Alessia Cara Version)'
p1104
ssS'67M8Sg4R7bEidOf0cag0Ld'
p1105
(dp1106
g3
S'HAIM'
p1107
sg5
I1
sg6
S'https://open.spotify.com/track/67M8Sg4R7bEidOf0cag0Ld'
p1108
sg8
S'Little of Your Love - BloodPop\xc2\xae Remix'
p1109
ssS'0e2WTl90DATKYgsjNN0K6R'
p1110
(dp1111
g3
S'Marcus & Martinus'
p1112
sg5
I4
sg6
S'https://open.spotify.com/track/0e2WTl90DATKYgsjNN0K6R'
p1113
sg8
S'First Kiss'
p1114
ssS'6nsLzJfvp5OLd4mgqUJkpq'
p1115
(dp1116
g3
S'Avicii'
p1117
sg5
I1
sg6
S'https://open.spotify.com/track/6nsLzJfvp5OLd4mgqUJkpq'
p1118
sg8
S'Waiting For Love'
p1119
ssS'5paNYIC0vrVj1EWGVzfJzb'
p1120
(dp1121
g3
S'Freddy Kalas'
p1122
sg5
I8
sg6
S'https://open.spotify.com/track/5paNYIC0vrVj1EWGVzfJzb'
p1123
sg8
S'Jovial'
p1124
ssS'73Qw33wmrc3r4kSRBXHGSX'
p1125
(dp1126
g3
S'Susan Boyle'
p1127
sg5
I1
sg6
S'https://open.spotify.com/track/73Qw33wmrc3r4kSRBXHGSX'
p1128
sg8
S'Auld Lang Syne'
p1129
ssS'0WCEaydwN65cvwaW8aqptF'
p1130
(dp1131
g3
S'Olivia Holt'
p1132
sg5
I14
sg6
S'https://open.spotify.com/track/0WCEaydwN65cvwaW8aqptF'
p1133
sg8
S'History'
p1134
ssS'6KjbNLbRjuoa8rEq5yNA6H'
p1135
(dp1136
g3
S'The Chainsmokers'
p1137
sg5
I1
sg6
S'https://open.spotify.com/track/6KjbNLbRjuoa8rEq5yNA6H'
p1138
sg8
S'Honest'
p1139
ssS'00qnS9VBfyaUGm59RBHKQw'
p1140
(dp1141
g3
S'Henrik Berggren'
p1142
sg5
I1
sg6
S'https://open.spotify.com/track/00qnS9VBfyaUGm59RBHKQw'
p1143
sg8
S'Hold on to Your Dreams'
p1144
ssS'5BOZ4skcMubA0R6RD4zf64'
p1145
(dp1146
g3
S'Tinie Tempah'
p1147
sg5
I13
sg6
S'https://open.spotify.com/track/5BOZ4skcMubA0R6RD4zf64'
p1148
sg8
S'Girls Like (feat. Zara Larsson)'
p1149
ssS'0FuTx2s3YH1ppmtiM6l0zI'
p1150
(dp1151
g3
S'JP Cooper'
p1152
sg5
I23
sg6
S'https://open.spotify.com/track/0FuTx2s3YH1ppmtiM6l0zI'
p1153
sg8
S'September Song'
p1154
ssS'0Zbbxnx4SGGHoIow4PpISP'
p1155
(dp1156
g3
S'Kygo'
p1157
sg5
I3
sg6
S'https://open.spotify.com/track/0Zbbxnx4SGGHoIow4PpISP'
p1158
sg8
S'Stargazing'
p1159
ssS'0d324sZPTwhsNjTxaFNbfn'
p1160
(dp1161
g3
S'Owe Th\xc3\xb6rnqvist'
p1162
sg5
I4
sg6
S'https://open.spotify.com/track/0d324sZPTwhsNjTxaFNbfn'
p1163
sg8
S'Boogieman Blues'
p1164
ssS'66WPXyhXqMlkM1kZhyEXWK'
p1165
(dp1166
g3
S'Michael Bubl\xc3\xa9'
p1167
sg5
I1
sg6
S'https://open.spotify.com/track/66WPXyhXqMlkM1kZhyEXWK'
p1168
sg8
S'Christmas (Baby Please Come Home)'
p1169
ssS'5GFDrUTLGJix84sNhjCG0g'
p1170
(dp1171
g3
S'Amin\xc3\xa9'
p1172
sg5
I2
sg6
S'https://open.spotify.com/track/5GFDrUTLGJix84sNhjCG0g'
p1173
sg8
S'Caroline'
p1174
ssS'33B2QbtAj8mbDpwvGTOnBt'
p1175
(dp1176
g3
S'The xx'
p1177
sg5
I1
sg6
S'https://open.spotify.com/track/33B2QbtAj8mbDpwvGTOnBt'
p1178
sg8
S'Dangerous'
p1179
ssS'0azC730Exh71aQlOt9Zj3y'
p1180
(dp1181
g3
S'Calvin Harris'
p1182
sg5
I7
sg6
S'https://open.spotify.com/track/0azC730Exh71aQlOt9Zj3y'
p1183
sg8
S'This Is What You Came For'
p1184
ssS'4mJDfMcT7odIUjWlb2WO4L'
p1185
(dp1186
g3
S'Ed Sheeran'
p1187
sg5
I1
sg6
S'https://open.spotify.com/track/4mJDfMcT7odIUjWlb2WO4L'
p1188
sg8
S'...Baby One More Time - Recorded at Spotify Studios NYC'
p1189
ssS'57Y51hxqMn2j3dosW75R6n'
p1190
(dp1191
g3
S'Robin Bengtsson'
p1192
sg5
I24
sg6
S'https://open.spotify.com/track/57Y51hxqMn2j3dosW75R6n'
p1193
sg8
S'I Can\xc2\xb4t Go On'
p1194
ssS'5QSopEjYDlFtMhkFI8W9C0'
p1195
(dp1196
g3
S'BACALL'
p1197
sg5
I1
sg6
S'https://open.spotify.com/track/5QSopEjYDlFtMhkFI8W9C0'
p1198
sg8
S'Gone Love'
p1199
ssS'2jyjhRf6DVbMPU5zxagN2h'
p1200
(dp1201
g3
S'Passenger'
p1202
sg5
I17
sg6
S'https://open.spotify.com/track/2jyjhRf6DVbMPU5zxagN2h'
p1203
sg8
S'Let Her Go'
p1204
ssS'7i2DJ88J7jQ8K7zqFX2fW8'
p1205
(dp1206
g3
S'Halsey'
p1207
sg5
I2
sg6
S'https://open.spotify.com/track/7i2DJ88J7jQ8K7zqFX2fW8'
p1208
sg8
S'Now Or Never'
p1209
ssS'6yuG9MJgec1f18LA7fWJW0'
p1210
(dp1211
g3
S'JLC'
p1212
sg5
I15
sg6
S'https://open.spotify.com/track/6yuG9MJgec1f18LA7fWJW0'
p1213
sg8
S'Sommar sommar sol'
p1214
ssS'0Wuuv3x3IOTTrKd1MaWwKA'
p1215
(dp1216
g3
S'Elias Abbas'
p1217
sg5
I4
sg6
S'https://open.spotify.com/track/0Wuuv3x3IOTTrKd1MaWwKA'
p1218
sg8
S'Min Queen'
p1219
ssS'4I39irD0xSyfRA099AsWow'
p1220
(dp1221
g3
S'Demi Lovato'
p1222
sg5
I1
sg6
S'https://open.spotify.com/track/4I39irD0xSyfRA099AsWow'
p1223
sg8
S"You Don't Do It For Me Anymore"
p1224
ssS'72F8BbpqcJzKuLt1Dh06zI'
p1225
(dp1226
g3
S'Miss Li'
p1227
sg5
I2
sg6
S'https://open.spotify.com/track/72F8BbpqcJzKuLt1Dh06zI'
p1228
sg8
S'Aqualung'
p1229
ssS'5sNESr6pQfIhL3krM8CtZn'
p1230
(dp1231
g3
S'JAY Z'
p1232
sg5
I1
sg6
S'https://open.spotify.com/track/5sNESr6pQfIhL3krM8CtZn'
p1233
sg8
S'Numb / Encore'
p1234
ssS'68EMU2RD1ECNeOeJ5qAXCV'
p1235
(dp1236
g3
S'Charlie Puth'
p1237
sg5
I9
sg6
S'https://open.spotify.com/track/68EMU2RD1ECNeOeJ5qAXCV'
p1238
sg8
S"We Don't Talk Anymore (feat. Selena Gomez)"
p1239
ssS'69eU15kQJegHHEOaSnKWzE'
p1240
(dp1241
g3
S'Erik Hassle'
p1242
sg5
I1
sg6
S'https://open.spotify.com/track/69eU15kQJegHHEOaSnKWzE'
p1243
sg8
S'Missing You - Olov Remix'
p1244
ssS'3yWsWi2PAo9s6elIhnywIS'
p1245
(dp1246
g3
S'WALK THE MOON'
p1247
sg5
I1
sg6
S'https://open.spotify.com/track/3yWsWi2PAo9s6elIhnywIS'
p1248
sg8
S'One Foot'
p1249
ssS'3b5Li4QKDVBx1x7fQuu54a'
p1250
(dp1251
g3
S'Alan Walker'
p1252
sg5
I21
sg6
S'https://open.spotify.com/track/3b5Li4QKDVBx1x7fQuu54a'
p1253
sg8
S'Tired'
p1254
ssS'0XoGiZY2XtBW5qXB3ZzZOX'
p1255
(dp1256
g3
S'Tommy K\xc3\xb6rberg'
p1257
sg5
I1
sg6
S'https://open.spotify.com/track/0XoGiZY2XtBW5qXB3ZzZOX'
p1258
sg8
S'O helga natt'
p1259
ssS'0C0AlZKEPGUzpePvzqwkxP'
p1260
(dp1261
g3
S'kent'
p1262
sg5
I3
sg6
S'https://open.spotify.com/track/0C0AlZKEPGUzpePvzqwkxP'
p1263
sg8
S'Den sista s\xc3\xa5ngen'
p1264
ssS'1yEP2QUmAWtE1PTUFfNqFS'
p1265
(dp1266
g3
S'Urban Cone'
p1267
sg5
I1
sg6
S'https://open.spotify.com/track/1yEP2QUmAWtE1PTUFfNqFS'
p1268
sg8
S'Pumping Up Clouds'
p1269
ssS'5XiZK7m9PLppgIzJBpw2x5'
p1270
(dp1271
g3
S'Martin Jensen'
p1272
sg5
I4
sg6
S'https://open.spotify.com/track/5XiZK7m9PLppgIzJBpw2x5'
p1273
sg8
S'Wait'
p1274
ssS'1cImYkHOQMFE7AZC9aOk4y'
p1275
(dp1276
g3
S'Bobby Helms'
p1277
sg5
I1
sg6
S'https://open.spotify.com/track/1cImYkHOQMFE7AZC9aOk4y'
p1278
sg8
S'Jingle Bell Rock'
p1279
ssS'2q6tgiA9tpb6DMguABwCWE'
p1280
(dp1281
g3
S'John Legend'
p1282
sg5
I13
sg6
S'https://open.spotify.com/track/2q6tgiA9tpb6DMguABwCWE'
p1283
sg8
S'All of Me'
p1284
ssS'4VuS959DSpr82t3qBqCrWG'
p1285
(dp1286
g3
S'Ed Sheeran'
p1287
sg5
I11
sg6
S'https://open.spotify.com/track/4VuS959DSpr82t3qBqCrWG'
p1288
sg8
S'Supermarket Flowers'
p1289
ssS'7lP1Itp08ETqtjqJRTbmeh'
p1290
(dp1291
g3
S'Linnea Henriksson'
p1292
sg5
I5
sg6
S'https://open.spotify.com/track/7lP1Itp08ETqtjqJRTbmeh'
p1293
sg8
S'S\xc3\xa4ga mig'
p1294
ssS'2Za1AlJNvksouPPWbXpR2X'
p1295
(dp1296
g3
S'Macklemore'
p1297
sg5
I3
sg6
S'https://open.spotify.com/track/2Za1AlJNvksouPPWbXpR2X'
p1298
sg8
S'Good Old Days (feat. Kesha)'
p1299
ssS'4kDxEgxDsxbvepRR3LwpOn'
p1300
(dp1301
g3
S'kent'
p1302
sg5
I3
sg6
S'https://open.spotify.com/track/4kDxEgxDsxbvepRR3LwpOn'
p1303
sg8
S'Andromeda'
p1304
ssS'3ZFTkvIE7kyPt6Nu3PEa7V'
p1305
(dp1306
g3
S'Shakira'
p1307
sg5
I1
sg6
S'https://open.spotify.com/track/3ZFTkvIE7kyPt6Nu3PEa7V'
p1308
sg8
S"Hips Don't Lie"
p1309
ssS'0Zx8khUcEfCFK2AEoIhC92'
p1310
(dp1311
g3
S'Snakehips'
p1312
sg5
I9
sg6
S'https://open.spotify.com/track/0Zx8khUcEfCFK2AEoIhC92'
p1313
sg8
S"Don't Leave"
p1314
ssS'5RAZlINOlt1wJm7FcnW0As'
p1315
(dp1316
g3
S'H\xc3\xa5kan Hellstr\xc3\xb6m'
p1317
sg5
I1
sg6
S'https://open.spotify.com/track/5RAZlINOlt1wJm7FcnW0As'
p1318
sg8
S'I sprickorna kommer ljuset in'
p1319
ssS'1crSsvtU9wZB15dIQXV2QH'
p1320
(dp1321
g3
S'John Mayer'
p1322
sg5
I2
sg6
S'https://open.spotify.com/track/1crSsvtU9wZB15dIQXV2QH'
p1323
sg8
S'Moving On and Getting Over'
p1324
ssS'0oiCeOPwm4zhwfyIpAE37y'
p1325
(dp1326
g3
S'John Mayer'
p1327
sg5
I1
sg6
S'https://open.spotify.com/track/0oiCeOPwm4zhwfyIpAE37y'
p1328
sg8
S'Love on the Weekend'
p1329
ssS'6n3HGiq4v35D6eFOSwqYuo'
p1330
(dp1331
g3
S'Drake'
p1332
sg5
I2
sg6
S'https://open.spotify.com/track/6n3HGiq4v35D6eFOSwqYuo'
p1333
sg8
S'Teenage Fever'
p1334
ssS'6uucB29G6Y7LThzNfuRkiw'
p1335
(dp1336
g3
S'Kaliffa'
p1337
sg5
I1
sg6
S'https://open.spotify.com/track/6uucB29G6Y7LThzNfuRkiw'
p1338
sg8
S'Helt seri\xc3\xb6st'
p1339
ssS'5IFsFwlVkt6uzlAVkOOKk3'
p1340
(dp1341
g3
S'Ella Fitzgerald'
p1342
sg5
I1
sg6
S'https://open.spotify.com/track/5IFsFwlVkt6uzlAVkOOKk3'
p1343
sg8
S'Let It Snow! Let It Snow! Let It Snow!'
p1344
ssS'61WbtB6ujkpNAsAf5LjF4b'
p1345
(dp1346
g3
S'Katy Perry'
p1347
sg5
I5
sg6
S'https://open.spotify.com/track/61WbtB6ujkpNAsAf5LjF4b'
p1348
sg8
S'Bon app\xc3\xa9tit'
p1349
ssS'0YHUITU3w6ws1v8ehT264g'
p1350
(dp1351
g3
S'Little Mix'
p1352
sg5
I7
sg6
S'https://open.spotify.com/track/0YHUITU3w6ws1v8ehT264g'
p1353
sg8
S'Shout Out to My Ex'
p1354
ssS'0BpP7O4FoZNjbDwegdOyPD'
p1355
(dp1356
g3
S'Jireel'
p1357
sg5
I40
sg6
S'https://open.spotify.com/track/0BpP7O4FoZNjbDwegdOyPD'
p1358
sg8
S'Cataleya'
p1359
ssS'2yz5IaQLnO8WBCIWMXoRBS'
p1360
(dp1361
g3
S'H\xc3\xa5kan Hellstr\xc3\xb6m'
p1362
sg5
I7
sg6
S'https://open.spotify.com/track/2yz5IaQLnO8WBCIWMXoRBS'
p1363
sg8
S'K\xc3\xa4nn ingen sorg f\xc3\xb6r mig G\xc3\xb6teborg'
p1364
ssS'3bVbQvGVIe4n24AzyXovXh'
p1365
(dp1366
g3
S''
p1367
sg5
I1
sg6
S'https://open.spotify.com/track/3bVbQvGVIe4n24AzyXovXh'
p1368
sg8
g1367
ssS'7dWJBwpPuUWqUoTZ0FXQg5'
p1369
(dp1370
g3
S'Danny Saucedo'
p1371
sg5
I21
sg6
S'https://open.spotify.com/track/7dWJBwpPuUWqUoTZ0FXQg5'
p1372
sg8
S'Super 8'
p1373
ssS'0lFgXIJbSU1jvCwETjZnwN'
p1374
(dp1375
g3
S'Linnea Henriksson'
p1376
sg5
I4
sg6
S'https://open.spotify.com/track/0lFgXIJbSU1jvCwETjZnwN'
p1377
sg8
S'Sl\xc3\xa4pper allt'
p1378
ssS'2XlHu0HcujBCkWMdIAvrqt'
p1379
(dp1380
g3
S'Drake'
p1381
sg5
I6
sg6
S'https://open.spotify.com/track/2XlHu0HcujBCkWMdIAvrqt'
p1382
sg8
S'Blem'
p1383
ssS'1zbdCXxuqFMNieBlze3DNw'
p1384
(dp1385
g3
S'Linda Pira'
p1386
sg5
I1
sg6
S'https://open.spotify.com/track/1zbdCXxuqFMNieBlze3DNw'
p1387
sg8
S'Knas'
p1388
ssS'104buTcnP2AsxqB7U1FIZ4'
p1389
(dp1390
g3
S'Linkin Park'
p1391
sg5
I2
sg6
S'https://open.spotify.com/track/104buTcnP2AsxqB7U1FIZ4'
p1392
sg8
S'Heavy (feat. Kiiara)'
p1393
ssS'4JAyIDXOqNM6qHuZML01uX'
p1394
(dp1395
g3
g1367
sg5
I1
sg6
S'https://open.spotify.com/track/4JAyIDXOqNM6qHuZML01uX'
p1396
sg8
g1367
ssS'2VoJe7vkKkigs7C3CGnSXL'
p1397
(dp1398
g3
S'Stefflon Don'
p1399
sg5
I1
sg6
S'https://open.spotify.com/track/2VoJe7vkKkigs7C3CGnSXL'
p1400
sg8
S"Hurtin' Me"
p1401
ssS'6DwnAl6l63e83dDgIzY8P4'
p1402
(dp1403
g3
S'Michael Bubl\xc3\xa9'
p1404
sg5
I1
sg6
S'https://open.spotify.com/track/6DwnAl6l63e83dDgIzY8P4'
p1405
sg8
S'Santa Baby'
p1406
ssS'6I2YxUXKKMKaTy83Lm8peq'
p1407
(dp1408
g3
S'BEK & Wallin'
p1409
sg5
I9
sg6
S'https://open.spotify.com/track/6I2YxUXKKMKaTy83Lm8peq'
p1410
sg8
S'Fakkboi (Mytikas 2017)'
p1411
ssS'5hYTyyh2odQKphUbMqc5gN'
p1412
(dp1413
g3
S'Alessia Cara'
p1414
sg5
I41
sg6
S'https://open.spotify.com/track/5hYTyyh2odQKphUbMqc5gN'
p1415
sg8
S"How Far I'll Go - From Moana"
p1416
ssS'0Hz0ySp6XYrBhEQPU16Hz8'
p1417
(dp1418
g3
S'H\xc3\xa5kan Hellstr\xc3\xb6m'
p1419
sg5
I18
sg6
S'https://open.spotify.com/track/0Hz0ySp6XYrBhEQPU16Hz8'
p1420
sg8
S'Valborg'
p1421
ssS'72jbDTw1piOOj770jWNeaG'
p1422
(dp1423
g3
S'The Chainsmokers'
p1424
sg5
I37
sg6
S'https://open.spotify.com/track/72jbDTw1piOOj770jWNeaG'
p1425
sg8
S'Paris'
p1426
ssS'77TElDNtl51FmG1ljLGJy3'
p1427
(dp1428
g3
S'Magnus Uggla'
p1429
sg5
I1
sg6
S'https://open.spotify.com/track/77TElDNtl51FmG1ljLGJy3'
p1430
sg8
S'Dyngrak'
p1431
ssS'4ECv88UJvcKFQX1HuLixjg'
p1432
(dp1433
g3
S'Ricky Rich'
p1434
sg5
I1
sg6
S'https://open.spotify.com/track/4ECv88UJvcKFQX1HuLixjg'
p1435
sg8
S'Habibi'
p1436
ssS'6FemVsNUb2lzWsDRm14FUJ'
p1437
(dp1438
g3
S'The Script'
p1439
sg5
I3
sg6
S'https://open.spotify.com/track/6FemVsNUb2lzWsDRm14FUJ'
p1440
sg8
S'Rain'
p1441
ssS'2vzBZ87UkwvkIycWEWFrYp'
p1442
(dp1443
g3
S'Tungevaag & Raaban'
p1444
sg5
I1
sg6
S'https://open.spotify.com/track/2vzBZ87UkwvkIycWEWFrYp'
p1445
sg8
S'Wake Up Alone'
p1446
ssS'7LVHVU3tWfcxj5aiPFEW4Q'
p1447
(dp1448
g3
S'Coldplay'
p1449
sg5
I6
sg6
S'https://open.spotify.com/track/7LVHVU3tWfcxj5aiPFEW4Q'
p1450
sg8
S'Fix You'
p1451
ssS'7FIcV2kEiO2mvvMbxU5Jkn'
p1452
(dp1453
g3
S'Johnny Cash'
p1454
sg5
I1
sg6
S'https://open.spotify.com/track/7FIcV2kEiO2mvvMbxU5Jkn'
p1455
sg8
S'The Little Drummer Boy - Mono Version'
p1456
ssS'5f5r2N4Lp9WoULWPH9zp2W'
p1457
(dp1458
g3
S'Drake'
p1459
sg5
I1
sg6
S'https://open.spotify.com/track/5f5r2N4Lp9WoULWPH9zp2W'
p1460
sg8
S"Can't Have Everything"
p1461
ssS'28irpKCCK9nn9DZSik2zEx'
p1462
(dp1463
g3
S'Drake'
p1464
sg5
I1
sg6
S'https://open.spotify.com/track/28irpKCCK9nn9DZSik2zEx'
p1465
sg8
S'Glow'
p1466
ssS'4Y4DvBJFzkGVFvzH36qVqg'
p1467
(dp1468
g3
S'Anis Don Demina'
p1469
sg5
I2
sg6
S'https://open.spotify.com/track/4Y4DvBJFzkGVFvzH36qVqg'
p1470
sg8
S'On My Mind'
p1471
ssS'6YnzBV7YkaXZNCK3tlnCfg'
p1472
(dp1473
g3
S'Boney M.'
p1474
sg5
I1
sg6
S'https://open.spotify.com/track/6YnzBV7YkaXZNCK3tlnCfg'
p1475
sg8
S"Mary's Boy Child / Oh My Lord"
p1476
ssS'2KvHC9z14GSl4YpkNMX384'
p1477
(dp1478
g3
S'Drake'
p1479
sg5
I1
sg6
S'https://open.spotify.com/track/2KvHC9z14GSl4YpkNMX384'
p1480
sg8
S'Do Not Disturb'
p1481
ssS'3dyHvTXrfU6wZbuxl6h3H3'
p1482
(dp1483
g3
S'Per Gessle'
p1484
sg5
I1
sg6
S'https://open.spotify.com/track/3dyHvTXrfU6wZbuxl6h3H3'
p1485
sg8
S'H\xc3\xa4r kommer alla k\xc3\xa4nslorna (P\xc3\xa5 en och samma g\xc3\xa5ng)'
p1486
ssS'2gbCG4Rt9984UZ7Tc0dIFd'
p1487
(dp1488
g3
S'Michael Bubl\xc3\xa9'
p1489
sg5
I1
sg6
S'https://open.spotify.com/track/2gbCG4Rt9984UZ7Tc0dIFd'
p1490
sg8
S'White Christmas (Duet With Shania Twain)'
p1491
ssS'59fQzvSv0wPQorW2Bh0pns'
p1492
(dp1493
g3
S'Volbeat'
p1494
sg5
I8
sg6
S'https://open.spotify.com/track/59fQzvSv0wPQorW2Bh0pns'
p1495
sg8
S'For Evigt'
p1496
ssS'2LTUU8GVI7JuJmD3Rwnk8y'
p1497
(dp1498
g3
S'Emil Asserg\xc3\xa5rd'
p1499
sg5
I2
sg6
S'https://open.spotify.com/track/2LTUU8GVI7JuJmD3Rwnk8y'
p1500
sg8
S'Sp\xc3\xa5ra'
p1501
ssS'7lTHeR7tl5EoZZaCjbOL48'
p1502
(dp1503
g3
S'Kapten R\xc3\xb6d'
p1504
sg5
I3
sg6
S'https://open.spotify.com/track/7lTHeR7tl5EoZZaCjbOL48'
p1505
sg8
S'\xc3\x96ver Min D\xc3\xb6da'
p1506
ssS'48SDCCacrI1hM1wImM0IZF'
p1507
(dp1508
g3
S'Sabina Ddumba'
p1509
sg5
I28
sg6
S'https://open.spotify.com/track/48SDCCacrI1hM1wImM0IZF'
p1510
sg8
S'Did It For The Fame'
p1511
ssS'3kGfazcbVvVkuZunzlLgTD'
p1512
(dp1513
g3
S'Sigala'
p1514
sg5
I13
sg6
S'https://open.spotify.com/track/3kGfazcbVvVkuZunzlLgTD'
p1515
sg8
S'Came Here for Love'
p1516
ssS'2kLf4myxQME1Nd0voeKZri'
p1517
(dp1518
g3
S'Mike Perry'
p1519
sg5
I6
sg6
S'https://open.spotify.com/track/2kLf4myxQME1Nd0voeKZri'
p1520
sg8
S'Stay Young'
p1521
ssS'7gZQfdEQpmwAoPHSbEHzms'
p1522
(dp1523
g3
S'Matoma'
p1524
sg5
I24
sg6
S'https://open.spotify.com/track/7gZQfdEQpmwAoPHSbEHzms'
p1525
sg8
S'False Alarm'
p1526
ssS'3Ytr1SUCUi6J3L9dRFx5iH'
p1527
(dp1528
g3
S'Major Lazer'
p1529
sg5
I18
sg6
S'https://open.spotify.com/track/3Ytr1SUCUi6J3L9dRFx5iH'
p1530
sg8
S'Know No Better (feat. Quavo)'
p1531
ssS'61W1tnl7e2ZCP01atVHCiD'
p1532
(dp1533
g3
S'Nano'
p1534
sg5
I3
sg6
S'https://open.spotify.com/track/61W1tnl7e2ZCP01atVHCiD'
p1535
sg8
S'One'
p1536
ssS'5cXne3fQ8Q2vbSMwGjunM8'
p1537
(dp1538
g3
S'Andreas Weise'
p1539
sg5
I1
sg6
S'https://open.spotify.com/track/5cXne3fQ8Q2vbSMwGjunM8'
p1540
sg8
S'Before Christmas'
p1541
ssS'1Co1RNm1i1RL9v1VeShNO3'
p1542
(dp1543
g3
S'Robyn'
p1544
sg5
I1
sg6
S'https://open.spotify.com/track/1Co1RNm1i1RL9v1VeShNO3'
p1545
sg8
S'Dancing On My Own'
p1546
ssS'1OmcAT5Y8eg5bUPv9qJT4R'
p1547
(dp1548
g3
S'Post Malone'
p1549
sg5
I3
sg6
S'https://open.spotify.com/track/1OmcAT5Y8eg5bUPv9qJT4R'
p1550
sg8
S'rockstar'
p1551
ssS'7bCV5n3FGxgNf5eHp0wZZp'
p1552
(dp1553
g3
S'kent'
p1554
sg5
I8
sg6
S'https://open.spotify.com/track/7bCV5n3FGxgNf5eHp0wZZp'
p1555
sg8
S'Egoist'
p1556
ssS'2sQOFwtjo6sjNoutONMyUJ'
p1557
(dp1558
g3
S'Dani M'
p1559
sg5
I42
sg6
S'https://open.spotify.com/track/2sQOFwtjo6sjNoutONMyUJ'
p1560
sg8
S'N\xc3\xa5n Annan'
p1561
ssS'1PSBzsahR2AKwLJgx8ehBj'
p1562
(dp1563
g3
S'Machine Gun Kelly'
p1564
sg5
I11
sg6
S'https://open.spotify.com/track/1PSBzsahR2AKwLJgx8ehBj'
p1565
sg8
S'Bad Things (with Camila Cabello)'
p1566
ssS'7nZmah2llfvLDiUjm0kiyz'
p1567
(dp1568
g3
S'Justin Bieber'
p1569
sg5
I8
sg6
S'https://open.spotify.com/track/7nZmah2llfvLDiUjm0kiyz'
p1570
sg8
S'Friends (with BloodPop\xc2\xae)'
p1571
ssS'13HVjjWUZFaWilh2QUJKsP'
p1572
(dp1573
g3
S'James Bay'
p1574
sg5
I9
sg6
S'https://open.spotify.com/track/13HVjjWUZFaWilh2QUJKsP'
p1575
sg8
S'Let It Go'
p1576
ssS'6AvK18xgjLRGM2aKqe5rBW'
p1577
(dp1578
g3
S'Magnus Uggla'
p1579
sg5
I3
sg6
S'https://open.spotify.com/track/6AvK18xgjLRGM2aKqe5rBW'
p1580
sg8
S'Kung f\xc3\xb6r en dag'
p1581
ssS'0y9uTzK9cNKSAEHnpeRG8C'
p1582
(dp1583
g3
S'Kendrick Lamar'
p1584
sg5
I1
sg6
S'https://open.spotify.com/track/0y9uTzK9cNKSAEHnpeRG8C'
p1585
sg8
S'DUCKWORTH.'
p1586
ssS'75clRtmtXSkZsPm6SjjQ5j'
p1587
(dp1588
g3
S'Frank Sinatra'
p1589
sg5
I1
sg6
S'https://open.spotify.com/track/75clRtmtXSkZsPm6SjjQ5j'
p1590
sg8
S"Santa Claus Is Comin' to Town"
p1591
ssS'4kZ9f48xQEUdFtD5cn68tf'
p1592
(dp1593
g3
S'Yasin'
p1594
sg5
I5
sg6
S'https://open.spotify.com/track/4kZ9f48xQEUdFtD5cn68tf'
p1595
sg8
S'Hey (Rinkeby)'
p1596
ssS'6D0b04NJIKfEMg040WioJQ'
p1597
(dp1598
g3
S'Julia Michaels'
p1599
sg5
I2
sg6
S'https://open.spotify.com/track/6D0b04NJIKfEMg040WioJQ'
p1600
sg8
S'Issues'
p1601
ssS'2anW3nrk332N8n6oFM0yMx'
p1602
(dp1603
g3
S'Peter J\xc3\xb6back'
p1604
sg5
I1
sg6
S'https://open.spotify.com/track/2anW3nrk332N8n6oFM0yMx'
p1605
sg8
S'Sn\xc3\xb6n f\xc3\xb6ll'
p1606
ssS'6zp4h4jVjsNlRdhUWtG4l0'
p1607
(dp1608
g3
S'Busungarna'
p1609
sg5
I1
sg6
S'https://open.spotify.com/track/6zp4h4jVjsNlRdhUWtG4l0'
p1610
sg8
S'Tomten jag vill ha en riktig jul'
p1611
ssS'5VaLhE67iBHeuPKbyGS2wk'
p1612
(dp1613
g3
S'Mike Perry'
p1614
sg5
I7
sg6
S'https://open.spotify.com/track/5VaLhE67iBHeuPKbyGS2wk'
p1615
sg8
S'Hands'
p1616
ssS'5BjXWZl2JejuwhY6djkImJ'
p1617
(dp1618
g3
S'Newkid'
p1619
sg5
I1
sg6
S'https://open.spotify.com/track/5BjXWZl2JejuwhY6djkImJ'
p1620
sg8
S'Kate Moss'
p1621
ssS'5AWtyrY4AiMBfM2KV2hAC6'
p1622
(dp1623
g3
S'Lisa Ajax'
p1624
sg5
I11
sg6
S'https://open.spotify.com/track/5AWtyrY4AiMBfM2KV2hAC6'
p1625
sg8
S'I Don\xc2\xb4t Give A'
p1626
ssS'2dfHh7ECGxfNqZTQno09Vk'
p1627
(dp1628
g3
S'Ed Sheeran'
p1629
sg5
I6
sg6
S'https://open.spotify.com/track/2dfHh7ECGxfNqZTQno09Vk'
p1630
sg8
S"Hearts Don't Break Around Here"
p1631
ssS'1xznGGDReH1oQq0xzbwXa3'
p1632
(dp1633
g3
S'Drake'
p1634
sg5
I39
sg6
S'https://open.spotify.com/track/1xznGGDReH1oQq0xzbwXa3'
p1635
sg8
S'One Dance'
p1636
ssS'4iqroWSTElC2W5hVHgJGLD'
p1637
(dp1638
g3
S'Miriam Bryant'
p1639
sg5
I2
sg6
S'https://open.spotify.com/track/4iqroWSTElC2W5hVHgJGLD'
p1640
sg8
S'Rocket (feat. NEIKED)'
p1641
ssS'5b4mzPhnxJSQATpZtnxoKn'
p1642
(dp1643
g3
S'Intim'
p1644
sg5
I1
sg6
S'https://open.spotify.com/track/5b4mzPhnxJSQATpZtnxoKn'
p1645
sg8
S'16 svenska hits p\xc3\xa5 6 minuter'
p1646
ssS'1Yc4z9MWH2gtGzLY2RjGqW'
p1647
(dp1648
g3
S'kent'
p1649
sg5
I1
sg6
S'https://open.spotify.com/track/1Yc4z9MWH2gtGzLY2RjGqW'
p1650
sg8
S'Utan dina andetag'
p1651
ssS'4ssp8b33uhyd6KJPFd0pJW'
p1652
(dp1653
g3
S'Oskar Linnros'
p1654
sg5
I1
sg6
S'https://open.spotify.com/track/4ssp8b33uhyd6KJPFd0pJW'
p1655
sg8
S'\xc3\x96verAllt'
p1656
ssS'02djQtbRlUjbQGrJjaG0Oj'
p1657
(dp1658
g3
S'Kartellen'
p1659
sg5
I24
sg6
S'https://open.spotify.com/track/02djQtbRlUjbQGrJjaG0Oj'
p1660
sg8
S'Mina omr\xc3\xa5den'
p1661
ssS'5tz69p7tJuGPeMGwNTxYuV'
p1662
(dp1663
g3
S'Logic'
p1664
sg5
I23
sg6
S'https://open.spotify.com/track/5tz69p7tJuGPeMGwNTxYuV'
p1665
sg8
S'1-800-273-8255'
p1666
ssS'5fc6rQgAKiLutfUYWQ6QnJ'
p1667
(dp1668
g3
S'Sia'
p1669
sg5
I15
sg6
S'https://open.spotify.com/track/5fc6rQgAKiLutfUYWQ6QnJ'
p1670
sg8
S'Helium - From Fifty Shades Darker (Original Motion Picture Soundtrack)'
p1671
ssS'2hERd854sHNp9fX139mEFs'
p1672
(dp1673
g3
S'Z.E'
p1674
sg5
I9
sg6
S'https://open.spotify.com/track/2hERd854sHNp9fX139mEFs'
p1675
sg8
S'Caramel'
p1676
ssS'343YBumqHu19cGoGARUTsd'
p1677
(dp1678
g3
S'Drake'
p1679
sg5
I17
sg6
S'https://open.spotify.com/track/343YBumqHu19cGoGARUTsd'
p1680
sg8
S'Fake Love'
p1681
ssS'5HDPtsnyb3maFmPL8LLUTG'
p1682
(dp1683
g3
S'Ed Sheeran'
p1684
sg5
I8
sg6
S'https://open.spotify.com/track/5HDPtsnyb3maFmPL8LLUTG'
p1685
sg8
S'New Man'
p1686
ssS'4xyNG8vZR3g8FnphVkbjRo'
p1687
(dp1688
g3
S'Lana Del Rey'
p1689
sg5
I4
sg6
S'https://open.spotify.com/track/4xyNG8vZR3g8FnphVkbjRo'
p1690
sg8
S'Love'
p1691
ssS'6V9kwssTrwkKT72imgowj9'
p1692
(dp1693
g3
S'The Chainsmokers'
p1694
sg5
I1
sg6
S'https://open.spotify.com/track/6V9kwssTrwkKT72imgowj9'
p1695
sg8
S'My Type'
p1696
ssS'77Y57qRJBvkGCUw9qs0qMg'
p1697
(dp1698
g3
S'John Mayer'
p1699
sg5
I1
sg6
S'https://open.spotify.com/track/77Y57qRJBvkGCUw9qs0qMg'
p1700
sg8
S'In the Blood'
p1701
ssS'4sKGkVi8boc00JTpw7aVB7'
p1702
(dp1703
g3
S'Hov1'
p1704
sg5
I5
sg6
S'https://open.spotify.com/track/4sKGkVi8boc00JTpw7aVB7'
p1705
sg8
S'Channel Orange'
p1706
ssS'6WbADFqMvR8N5u0BvtsWQE'
p1707
(dp1708
g3
S'Avicii'
p1709
sg5
I9
sg6
S'https://open.spotify.com/track/6WbADFqMvR8N5u0BvtsWQE'
p1710
sg8
S'Without You (feat. Sandro Cavazza)'
p1711
ssS'0Skpofj44N2m60sa74Aufz'
p1712
(dp1713
g3
S'P\xc3\xa1pai Joci'
p1714
sg5
I1
sg6
S'https://open.spotify.com/track/0Skpofj44N2m60sa74Aufz'
p1715
sg8
S'Origo - Eurovision Version'
p1716
ssS'7tx0NDsCViutjOyd1c4A28'
p1717
(dp1718
g3
S'Otto Knows'
p1719
sg5
I2
sg6
S'https://open.spotify.com/track/7tx0NDsCViutjOyd1c4A28'
p1720
sg8
S'Not Alone'
p1721
ssS'6IZvVAP7VPPnsGX6bvgkqg'
p1722
(dp1723
g3
S'Kendrick Lamar'
p1724
sg5
I2
sg6
S'https://open.spotify.com/track/6IZvVAP7VPPnsGX6bvgkqg'
p1725
sg8
S'PRIDE.'
p1726
ssS'4pdPtRcBmOSQDlJ3Fk945m'
p1727
(dp1728
g3
S'DJ Snake'
p1729
sg5
I34
sg6
S'https://open.spotify.com/track/4pdPtRcBmOSQDlJ3Fk945m'
p1730
sg8
S'Let Me Love You'
p1731
ssS'4nQwFdIvrRVd8RallsI0ru'
p1732
(dp1733
g3
S'Oskar Linnros'
p1734
sg5
I1
sg6
S'https://open.spotify.com/track/4nQwFdIvrRVd8RallsI0ru'
p1735
sg8
S'Psalm f\xc3\xb6r skolg\xc3\xa5rdar'
p1736
ssS'54DEdGLgtE60M6AHrGPkx5'
p1737
(dp1738
g3
S'kent'
p1739
sg5
I4
sg6
S'https://open.spotify.com/track/54DEdGLgtE60M6AHrGPkx5'
p1740
sg8
S'Vi \xc3\xa4r inte l\xc3\xa4ngre d\xc3\xa4r'
p1741
ssS'0eekaX32hUmJgcinPCL1iZ'
p1742
(dp1743
g3
S'Freddy Kalas'
p1744
sg5
I3
sg6
S'https://open.spotify.com/track/0eekaX32hUmJgcinPCL1iZ'
p1745
sg8
S'Hey Ho'
p1746
ssS'1OAiWI2oPmglaOiv9fdioU'
p1747
(dp1748
g3
S'Coldplay'
p1749
sg5
I33
sg6
S'https://open.spotify.com/track/1OAiWI2oPmglaOiv9fdioU'
p1750
sg8
S'Hymn For The Weekend - Seeb Remix'
p1751
ssS'6Ll3qUTssdGWMxbwhMud2N'
p1752
(dp1753
g3
S'Nick Jonas'
p1754
sg5
I1
sg6
S'https://open.spotify.com/track/6Ll3qUTssdGWMxbwhMud2N'
p1755
sg8
S'Find You'
p1756
ssS'7LEydI5NfjY6mZfKwYIptZ'
p1757
(dp1758
g3
S'Fifth Harmony'
p1759
sg5
I7
sg6
S'https://open.spotify.com/track/7LEydI5NfjY6mZfKwYIptZ'
p1760
sg8
S'Down'
p1761
ssS'2Na0z2gfN67Rzf0vp74Wi3'
p1762
(dp1763
g3
S'Drake'
p1764
sg5
I1
sg6
S'https://open.spotify.com/track/2Na0z2gfN67Rzf0vp74Wi3'
p1765
sg8
S'Lose You'
p1766
ssS'6dLGScc1KoYx4e3bNyvlKH'
p1767
(dp1768
g3
S'LBSB'
p1769
sg5
I17
sg6
S'https://open.spotify.com/track/6dLGScc1KoYx4e3bNyvlKH'
p1770
sg8
S'Pumpa Den'
p1771
ssS'4Ux0Y0eQYv4HJPvuxioosx'
p1772
(dp1773
g3
S'R3HAB'
p1774
sg5
I1
sg6
S'https://open.spotify.com/track/4Ux0Y0eQYv4HJPvuxioosx'
p1775
sg8
S"I Just Can't"
p1776
ssS'4EnYTyWAlXNo3K7Ayxh3NT'
p1777
(dp1778
g3
S'Benjamin Ingrosso'
p1779
sg5
I11
sg6
S'https://open.spotify.com/track/4EnYTyWAlXNo3K7Ayxh3NT'
p1780
sg8
S"Good Lovin'"
p1781
ssS'2a1o6ZejUi8U3wzzOtCOYw'
p1782
(dp1783
g3
S'Don Omar'
p1784
sg5
I9
sg6
S'https://open.spotify.com/track/2a1o6ZejUi8U3wzzOtCOYw'
p1785
sg8
S'Danza Kuduro'
p1786
ssS'2WATrpIPvtgmByc8MrIuHs'
p1787
(dp1788
g3
S'kent'
p1789
sg5
I1
sg6
S'https://open.spotify.com/track/2WATrpIPvtgmByc8MrIuHs'
p1790
sg8
S'Vi \xc3\xa4r f\xc3\xb6r alltid'
p1791
ssS'5OOkp4U9P9oL23maHFHL1h'
p1792
(dp1793
g3
S'Desiigner'
p1794
sg5
I10
sg6
S'https://open.spotify.com/track/5OOkp4U9P9oL23maHFHL1h'
p1795
sg8
S'Panda'
p1796
ssS'7y6c07pgjZvtHI9kuMVqk1'
p1797
(dp1798
g3
S'Drake'
p1799
sg5
I3
sg6
S'https://open.spotify.com/track/7y6c07pgjZvtHI9kuMVqk1'
p1800
sg8
S'Get It Together'
p1801
ssS'3TQbr3G3U5wlwEJejmqC1F'
p1802
(dp1803
g3
S'John Mayer'
p1804
sg5
I1
sg6
S'https://open.spotify.com/track/3TQbr3G3U5wlwEJejmqC1F'
p1805
sg8
S'Never on the Day You Leave'
p1806
ssS'5nUjgFwreuQOnMRzA1lHk7'
p1807
(dp1808
g3
S'Seeb'
p1809
sg5
I3
sg6
S'https://open.spotify.com/track/5nUjgFwreuQOnMRzA1lHk7'
p1810
sg8
S'Boys In The Street'
p1811
ssS'79cuOz3SPQTuFrp8WgftAu'
p1812
(dp1813
g3
S'Shawn Mendes'
p1814
sg5
I25
sg6
S'https://open.spotify.com/track/79cuOz3SPQTuFrp8WgftAu'
p1815
sg8
S"There's Nothing Holdin' Me Back"
p1816
ssS'4c2W3VKsOFoIg2SFaO6DY5'
p1817
(dp1818
g3
S'Rita Ora'
p1819
sg5
I20
sg6
S'https://open.spotify.com/track/4c2W3VKsOFoIg2SFaO6DY5'
p1820
sg8
S'Your Song'
p1821
ssS'0lmdsH1MIoLsMymnNpd6HU'
p1822
(dp1823
g3
S'Dante Klein'
p1824
sg5
I1
sg6
S'https://open.spotify.com/track/0lmdsH1MIoLsMymnNpd6HU'
p1825
sg8
S'Let Me Hold You (Turn Me On)'
p1826
ssS'6ZX2qXkhaueabbzp6vfabS'
p1827
(dp1828
g3
S'ALMA'
p1829
sg5
I3
sg6
S'https://open.spotify.com/track/6ZX2qXkhaueabbzp6vfabS'
p1830
sg8
S'Phases'
p1831
ssS'3UjJP4ludb74a29P5EHEIo'
p1832
(dp1833
g3
S'Sabrina Carpenter'
p1834
sg5
I9
sg6
S'https://open.spotify.com/track/3UjJP4ludb74a29P5EHEIo'
p1835
sg8
S'Thumbs'
p1836
ssS'2xI4CmkT6Bl4s5b4qggcgU'
p1837
(dp1838
g3
S'Isaiah'
p1839
sg5
I3
sg6
S'https://open.spotify.com/track/2xI4CmkT6Bl4s5b4qggcgU'
p1840
sg8
S"Don't Come Easy"
p1841
ssS'4izg6Hydc6XGErWW6nbdsV'
p1842
(dp1843
g3
S'Imagine Dragons'
p1844
sg5
I1
sg6
S'https://open.spotify.com/track/4izg6Hydc6XGErWW6nbdsV'
p1845
sg8
S'Whatever It Takes'
p1846
ssS'3eR23VReFzcdmS7TYCrhCe'
p1847
(dp1848
g3
S'Kygo'
p1849
sg5
I33
sg6
S'https://open.spotify.com/track/3eR23VReFzcdmS7TYCrhCe'
p1850
sg8
S"It Ain't Me (with Selena Gomez)"
p1851
ssS'6a9vKVMFfNBi741DVSit3H'
p1852
(dp1853
g3
S'Felix Jaehn'
p1854
sg5
I1
sg6
S'https://open.spotify.com/track/6a9vKVMFfNBi741DVSit3H'
p1855
sg8
S'Feel Good'
p1856
ssS'2eAZfqOm4EnOF9VvN50Tyc'
p1857
(dp1858
g3
S'Lil Uzi Vert'
p1859
sg5
I3
sg6
S'https://open.spotify.com/track/2eAZfqOm4EnOF9VvN50Tyc'
p1860
sg8
S'The Way Life Goes'
p1861
ssS'3UDx2hezZFhGk0vUGW65KE'
p1862
(dp1863
g3
S'Linda Pira'
p1864
sg5
I2
sg6
S'https://open.spotify.com/track/3UDx2hezZFhGk0vUGW65KE'
p1865
sg8
S'L\xc3\xa5t dom hata'
p1866
ssS'0zMzyHAeMvwq5CRstru1Fp'
p1867
(dp1868
g3
S'Ruth B.'
p1869
sg5
I15
sg6
S'https://open.spotify.com/track/0zMzyHAeMvwq5CRstru1Fp'
p1870
sg8
S'Lost Boy'
p1871
ssS'1Gzv0cMy3xm7sgN5gd7WkU'
p1872
(dp1873
g3
S'Axwell /\\ Ingrosso'
p1874
sg5
I1
sg6
S'https://open.spotify.com/track/1Gzv0cMy3xm7sgN5gd7WkU'
p1875
sg8
S'Sun Is Shining'
p1876
ssS'6jA8HL9i4QGzsj6fjoxp8Y'
p1877
(dp1878
g3
S'Martin Garrix'
p1879
sg5
I20
sg6
S'https://open.spotify.com/track/6jA8HL9i4QGzsj6fjoxp8Y'
p1880
sg8
S'There for You'
p1881
ssS'3mXXkDfLaCN5IaZpHVJPth'
p1882
(dp1883
g3
S'Nano'
p1884
sg5
I20
sg6
S'https://open.spotify.com/track/3mXXkDfLaCN5IaZpHVJPth'
p1885
sg8
S'Hold On - D&B Version'
p1886
ssS'2ODKShrWcNSyoqqCWHzuzR'
p1887
(dp1888
g3
S'Galantis'
p1889
sg5
I1
sg6
S'https://open.spotify.com/track/2ODKShrWcNSyoqqCWHzuzR'
p1890
sg8
S'Girls On Boys'
p1891
ssS'1zayuwd1YLZsYDArkruHdL'
p1892
(dp1893
g3
S'Kendrick Lamar'
p1894
sg5
I1
sg6
S'https://open.spotify.com/track/1zayuwd1YLZsYDArkruHdL'
p1895
sg8
S'The Heart Part 4'
p1896
ssS'1FrGraOrJtVmK7aXA6lbej'
p1897
(dp1898
g3
S'Kamferdrops'
p1899
sg5
I8
sg6
S'https://open.spotify.com/track/1FrGraOrJtVmK7aXA6lbej'
p1900
sg8
S'Tusen Bitar'
p1901
ssS'5LXj9Ch3O9ATm1NoHT8GXn'
p1902
(dp1903
g3
S'Coldplay'
p1904
sg5
I1
sg6
S'https://open.spotify.com/track/5LXj9Ch3O9ATm1NoHT8GXn'
p1905
sg8
S'Hypnotised'
p1906
ssS'5bZtRlMBU76vHuDOb1GM5u'
p1907
(dp1908
g3
S'Jonas Blue'
p1909
sg5
I9
sg6
S'https://open.spotify.com/track/5bZtRlMBU76vHuDOb1GM5u'
p1910
sg8
S'Perfect Strangers'
p1911
ssS'6TIU9Ehmi6dMzZK73Ym4yj'
p1912
(dp1913
g3
S'Ed Sheeran'
p1914
sg5
I5
sg6
S'https://open.spotify.com/track/6TIU9Ehmi6dMzZK73Ym4yj'
p1915
sg8
S'Save Myself'
p1916
ssS'7taXf5odg9xCAZERYfyOkS'
p1917
(dp1918
g3
S'Jos\xc3\xa9 Feliciano'
p1919
sg5
I1
sg6
S'https://open.spotify.com/track/7taXf5odg9xCAZERYfyOkS'
p1920
sg8
S'Feliz Navidad'
p1921
ssS'3AVnIi6HvEiHGlIj4c6ok2'
p1922
(dp1923
g3
S'Vigiland'
p1924
sg5
I9
sg6
S'https://open.spotify.com/track/3AVnIi6HvEiHGlIj4c6ok2'
p1925
sg8
S'Pong Dance'
p1926
ssS'7wBrglFVTNCcW6IhdgBkm1'
p1927
(dp1928
g3
S'Coldplay'
p1929
sg5
I1
sg6
S'https://open.spotify.com/track/7wBrglFVTNCcW6IhdgBkm1'
p1930
sg8
S'Paradise'
p1931
ssS'7jHzO2EPJzt1JgHQ80aRu0'
p1932
(dp1933
g3
S'Astrid S'
p1934
sg5
I10
sg6
S'https://open.spotify.com/track/7jHzO2EPJzt1JgHQ80aRu0'
p1935
sg8
S'Such A Boy'
p1936
ssS'7shcnBgfWJ6AT7jmvAw4xO'
p1937
(dp1938
g3
S'Kaliffa'
p1939
sg5
I16
sg6
S'https://open.spotify.com/track/7shcnBgfWJ6AT7jmvAw4xO'
p1940
sg8
S'Helt seri\xc3\xb6st'
p1941
ssS'5bebLYCEiqV4AHWb3FMh4P'
p1942
(dp1943
g3
S'Miriam Bryant'
p1944
sg5
I2
sg6
S'https://open.spotify.com/track/5bebLYCEiqV4AHWb3FMh4P'
p1945
sg8
S'Words'
p1946
ssS'1hCowBAyytVNFhdZeQWU9M'
p1947
(dp1948
g3
S'Selena Gomez'
p1949
sg5
I1
sg6
S'https://open.spotify.com/track/1hCowBAyytVNFhdZeQWU9M'
p1950
sg8
S'Only You'
p1951
ssS'7rohDMzsbmSmol7sIZs0Px'
p1952
(dp1953
g3
S'The Mayries'
p1954
sg5
I1
sg6
S'https://open.spotify.com/track/7rohDMzsbmSmol7sIZs0Px'
p1955
sg8
S'Girls Just Wanna Have Fun - Acoustic'
p1956
ssS'2mfUa8bLs2s5N4VaqJZ4lZ'
p1957
(dp1958
g3
S'Hailee Steinfeld'
p1959
sg5
I11
sg6
S'https://open.spotify.com/track/2mfUa8bLs2s5N4VaqJZ4lZ'
p1960
sg8
S'Most Girls'
p1961
ssS'6ldrrA9dkZjIrX4wUOXTz2'
p1962
(dp1963
g3
S'Gianluca Vacchi'
p1964
sg5
I1
sg6
S'https://open.spotify.com/track/6ldrrA9dkZjIrX4wUOXTz2'
p1965
sg8
S'Viento'
p1966
ssS'4aWmUDTfIPGksMNLV2rQP2'
p1967
(dp1968
g3
S'Luis Fonsi'
p1969
sg5
I38
sg6
S'https://open.spotify.com/track/4aWmUDTfIPGksMNLV2rQP2'
p1970
sg8
S'Despacito (Featuring Daddy Yankee)'
p1971
ssS'58zsLZPvfflaiIbNWoA22O'
p1972
(dp1973
g3
S"Rag'n'Bone Man"
p1974
sg5
I21
sg6
S'https://open.spotify.com/track/58zsLZPvfflaiIbNWoA22O'
p1975
sg8
S'Human'
p1976
ssS'4u1EePjSjbBxU2sKLeUuh7'
p1977
(dp1978
g3
S'Hkeem'
p1979
sg5
I3
sg6
S'https://open.spotify.com/track/4u1EePjSjbBxU2sKLeUuh7'
p1980
sg8
S'Fy faen - Jireel & Cherrie Remix'
p1981
ssS'5dKyZWlgjWw1oJgLa4GCZD'
p1982
(dp1983
g3
S'Tove Lo'
p1984
sg5
I4
sg6
S'https://open.spotify.com/track/5dKyZWlgjWw1oJgLa4GCZD'
p1985
sg8
S'Cool Girl'
p1986
ssS'60APt5N2NRaKWf5xzJdzyC'
p1987
(dp1988
g3
S'Calvin Harris'
p1989
sg5
I5
sg6
S'https://open.spotify.com/track/60APt5N2NRaKWf5xzJdzyC'
p1990
sg8
S'Heatstroke'
p1991
ssS'3PEgB3fkiojxms35ntsTgs'
p1992
(dp1993
g3
S'Axwell /\\ Ingrosso'
p1994
sg5
I11
sg6
S'https://open.spotify.com/track/3PEgB3fkiojxms35ntsTgs'
p1995
sg8
S'More Than You Know'
p1996
ssS'25C5CowdsfXld2jJanbiex'
p1997
(dp1998
g3
S'Demi Lovato'
p1999
sg5
I11
sg6
S'https://open.spotify.com/track/25C5CowdsfXld2jJanbiex'
p2000
sg8
S'Sorry Not Sorry'
p2001
ssS'6IcrwGdIvRsrImOnoYfG9Z'
p2002
(dp2003
g3
S'Wiz Khalifa'
p2004
sg5
I1
sg6
S'https://open.spotify.com/track/6IcrwGdIvRsrImOnoYfG9Z'
p2005
sg8
S'See You Again (feat. Charlie Puth) - From Furious 7'
p2006
ssS'2EKzS2s2VKnbQ7jxyk2WHi'
p2007
(dp2008
g3
S'Gyllene Tider'
p2009
sg5
I2
sg6
S'https://open.spotify.com/track/2EKzS2s2VKnbQ7jxyk2WHi'
p2010
sg8
S'N\xc3\xa4r vi tv\xc3\xa5 blir en'
p2011
ssS'3f8TbkkP0VIdOKvLTMMTvU'
p2012
(dp2013
g3
S'Kygo'
p2014
sg5
I3
sg6
S'https://open.spotify.com/track/3f8TbkkP0VIdOKvLTMMTvU'
p2015
sg8
S'Cruise - From Fifty Shades Darker (Original Motion Picture Soundtrack)'
p2016
ssS'2Z8WuEywRWYTKe1NybPQEW'
p2017
(dp2018
g3
S'Twenty One Pilots'
p2019
sg5
I1
sg6
S'https://open.spotify.com/track/2Z8WuEywRWYTKe1NybPQEW'
p2020
sg8
S'Ride'
p2021
ssS'2dY1QsrYUeWDtSCvXlx0WW'
p2022
(dp2023
g3
S'Junge Junge'
p2024
sg5
I12
sg6
S'https://open.spotify.com/track/2dY1QsrYUeWDtSCvXlx0WW'
p2025
sg8
S"I Don't Love You (I'm Just Lonely)"
p2026
ssS'2kzWnWUUsn3o44PbOzFSjc'
p2027
(dp2028
g3
S'Mitch James'
p2029
sg5
I4
sg6
S'https://open.spotify.com/track/2kzWnWUUsn3o44PbOzFSjc'
p2030
sg8
S'No Fixed Abode'
p2031
ssS'3Q06XfNgOjBQAyPV4GbYaR'
p2032
(dp2033
g3
S'Miriam Bryant'
p2034
sg5
I6
sg6
S'https://open.spotify.com/track/3Q06XfNgOjBQAyPV4GbYaR'
p2035
sg8
S'Allt jag beh\xc3\xb6ver'
p2036
ssS'5SleX0NFeODNY7Xenal3gr'
p2037
(dp2038
g3
S'Zara Larsson'
p2039
sg5
I30
sg6
S'https://open.spotify.com/track/5SleX0NFeODNY7Xenal3gr'
p2040
sg8
S'Only You'
p2041
ssS'6JV2JOEocMgcZxYSZelKcc'
p2042
(dp2043
g3
S'Justin Timberlake'
p2044
sg5
I42
sg6
S'https://open.spotify.com/track/6JV2JOEocMgcZxYSZelKcc'
p2045
sg8
S"CAN'T STOP THE FEELING! (Original Song from DreamWorks Animation's TROLLS)"
p2046
ssS'1Z3kYKYAUvol0Hhsjikkuu'
p2047
(dp2048
g3
S'LBSB'
p2049
sg5
I14
sg6
S'https://open.spotify.com/track/1Z3kYKYAUvol0Hhsjikkuu'
p2050
sg8
S'Aristob\xc3\xa4r'
p2051
ssS'05KOgYg8PGeJyyWBPi5ja8'
p2052
(dp2053
g3
S'Drake'
p2054
sg5
I2
sg6
S'https://open.spotify.com/track/05KOgYg8PGeJyyWBPi5ja8'
p2055
sg8
S'Free Smoke'
p2056
ssS'6De0lHrwBfPfrhorm9q1Xl'
p2057
(dp2058
g3
S'Danny Ocean'
p2059
sg5
I17
sg6
S'https://open.spotify.com/track/6De0lHrwBfPfrhorm9q1Xl'
p2060
sg8
S'Me Reh\xc3\xbaso'
p2061
ssS'3qy7P1Vr6eGIwHP9DCUHwK'
p2062
(dp2063
g3
S'Kamferdrops'
p2064
sg5
I22
sg6
S'https://open.spotify.com/track/3qy7P1Vr6eGIwHP9DCUHwK'
p2065
sg8
S'Jag trodde \xc3\xa4nglarna fanns'
p2066
ssS'3GVkPk8mqxz0itaAriG1L7'
p2067
(dp2068
g3
S'XXXTENTACION'
p2069
sg5
I7
sg6
S'https://open.spotify.com/track/3GVkPk8mqxz0itaAriG1L7'
p2070
sg8
S'Everybody Dies In Their Nightmares'
p2071
ssS'7aV2mflaASUmGhCErm7kBO'
p2072
(dp2073
g3
S'Nevada'
p2074
sg5
I5
sg6
S'https://open.spotify.com/track/7aV2mflaASUmGhCErm7kBO'
p2075
sg8
S'The Mack'
p2076
ssS'0bYg9bo50gSsH3LtXe2SQn'
p2077
(dp2078
g3
S'Mariah Carey'
p2079
sg5
I1
sg6
S'https://open.spotify.com/track/0bYg9bo50gSsH3LtXe2SQn'
p2080
sg8
S'All I Want for Christmas Is You'
p2081
ssS'4LHbWysQISmwjqFhOBo3na'
p2082
(dp2083
g3
S'Newkid'
p2084
sg5
I1
sg6
S'https://open.spotify.com/track/4LHbWysQISmwjqFhOBo3na'
p2085
sg8
S'Drama'
p2086
ssS'2p4p9YGwmJIdf5IA9sSWhm'
p2087
(dp2088
g3
S'mansionz'
p2089
sg5
I5
sg6
S'https://open.spotify.com/track/2p4p9YGwmJIdf5IA9sSWhm'
p2090
sg8
S'STFU'
p2091
ssS'4MV8yeKSsls4xev14yDXL6'
p2092
(dp2093
g3
S'TRXD'
p2094
sg5
I1
sg6
S'https://open.spotify.com/track/4MV8yeKSsls4xev14yDXL6'
p2095
sg8
S'Our City'
p2096
ssS'6BWTZwXamKhjdYlicjjVjB'
p2097
(dp2098
g3
S'L\xc3\x89ON'
p2099
sg5
I2
sg6
S'https://open.spotify.com/track/6BWTZwXamKhjdYlicjjVjB'
p2100
sg8
S'Think About You'
p2101
ssS'27TFfAFo4sE4fw04QDqJmD'
p2102
(dp2103
g3
S'Ted G\xc3\xa4rdestad'
p2104
sg5
I1
sg6
S'https://open.spotify.com/track/27TFfAFo4sE4fw04QDqJmD'
p2105
sg8
S'Himlen \xc3\xa4r oskyldigt bl\xc3\xa5'
p2106
ssS'7dOcnA7N0DlKHIH7krZlLA'
p2107
(dp2108
g3
S'Dismissed'
p2109
sg5
I3
sg6
S'https://open.spotify.com/track/7dOcnA7N0DlKHIH7krZlLA'
p2110
sg8
S'Hearts Align'
p2111
ssS'1qOLh0tI7trd1zdDKxYZTe'
p2112
(dp2113
g3
S'Hailee Steinfeld'
p2114
sg5
I25
sg6
S'https://open.spotify.com/track/1qOLh0tI7trd1zdDKxYZTe'
p2115
sg8
S'Starving'
p2116
ssS'0cqRj7pUJDkTCEsJkx8snD'
p2117
(dp2118
g3
S'Taylor Swift'
p2119
sg5
I2
sg6
S'https://open.spotify.com/track/0cqRj7pUJDkTCEsJkx8snD'
p2120
sg8
S'Shake It Off'
p2121
ssS'1ieq2YaXJBzyJ33fOYvG8W'
p2122
(dp2123
g3
S'Werner & Werner'
p2124
sg5
I1
sg6
S'https://open.spotify.com/track/1ieq2YaXJBzyJ33fOYvG8W'
p2125
sg8
S'V\xc3\xa5r julskinka har rymt'
p2126
ssS'3HVr6jTVwBHBa2flM0eURR'
p2127
(dp2128
g3
S'Macklemore'
p2129
sg5
I11
sg6
S'https://open.spotify.com/track/3HVr6jTVwBHBa2flM0eURR'
p2130
sg8
S'Glorious (feat. Skylar Grey)'
p2131
ssS'7inXu0Eaeg02VsM8kHNvzM'
p2132
(dp2133
g3
S'Frank Sinatra'
p2134
sg5
I1
sg6
S'https://open.spotify.com/track/7inXu0Eaeg02VsM8kHNvzM'
p2135
sg8
S'Let It Snow! Let It Snow! Let It Snow!'
p2136
ssS'0JiVRyTJcJnmlwCZ854K4p'
p2137
(dp2138
g3
S'Alan Walker'
p2139
sg5
I33
sg6
S'https://open.spotify.com/track/0JiVRyTJcJnmlwCZ854K4p'
p2140
sg8
S'Alone'
p2141
ssS'10tZablwJjnyBV8SO8lJxF'
p2142
(dp2143
g3
S'Dr K\xc3\xa4rlek'
p2144
sg5
I2
sg6
S'https://open.spotify.com/track/10tZablwJjnyBV8SO8lJxF'
p2145
sg8
S'Fin i bikini'
p2146
ssS'1cG0umU5TKStygKsPFZ9pY'
p2147
(dp2148
g3
S'Robin Schulz'
p2149
sg5
I12
sg6
S'https://open.spotify.com/track/1cG0umU5TKStygKsPFZ9pY'
p2150
sg8
S'Shed a Light'
p2151
ssS'7xHWNBFm6ObGEQPaUxHuKO'
p2152
(dp2153
g3
S'Sia'
p2154
sg5
I8
sg6
S'https://open.spotify.com/track/7xHWNBFm6ObGEQPaUxHuKO'
p2155
sg8
S'The Greatest'
p2156
ssS'3caMfJGFp53NAH2TuigdNj'
p2157
(dp2158
g3
S'Galantis'
p2159
sg5
I19
sg6
S'https://open.spotify.com/track/3caMfJGFp53NAH2TuigdNj'
p2160
sg8
S'Hunter'
p2161
ssS'7BKLCZ1jbUBVqRi2FVlTVw'
p2162
(dp2163
g3
S'The Chainsmokers'
p2164
sg5
I41
sg6
S'https://open.spotify.com/track/7BKLCZ1jbUBVqRi2FVlTVw'
p2165
sg8
S'Closer'
p2166
ssS'6EpRaXYhGOB3fj4V2uDkMJ'
p2167
(dp2168
g3
S'Liam Payne'
p2169
sg5
I21
sg6
S'https://open.spotify.com/track/6EpRaXYhGOB3fj4V2uDkMJ'
p2170
sg8
S'Strip That Down'
p2171
ssS'4kEy0x4FEUG8mZ4T3zvzt4'
p2172
(dp2173
g3
S'Jireel'
p2174
sg5
I1
sg6
S'https://open.spotify.com/track/4kEy0x4FEUG8mZ4T3zvzt4'
p2175
sg8
S'Amen'
p2176
ssS'1Q1oGJBjncrFjeLxu5Dyd3'
p2177
(dp2178
g3
S'Miriam Bryant'
p2179
sg5
I2
sg6
S'https://open.spotify.com/track/1Q1oGJBjncrFjeLxu5Dyd3'
p2180
sg8
S'Words'
p2181
ssS'5cAgat02lrCcVVogqn1qsu'
p2182
(dp2183
g3
S'Axel Schylstr\xc3\xb6m'
p2184
sg5
I7
sg6
S'https://open.spotify.com/track/5cAgat02lrCcVVogqn1qsu'
p2185
sg8
S'N\xc3\xa4r ingen ser'
p2186
ssS'0BiGd2FNDQ0eh79ZHfp6tS'
p2187
(dp2188
g3
S'Martin Jensen'
p2189
sg5
I39
sg6
S'https://open.spotify.com/track/0BiGd2FNDQ0eh79ZHfp6tS'
p2190
sg8
S'All I Wanna Do'
p2191
ssS'379S6VBwFo9FUrK5rz33mq'
p2192
(dp2193
g3
S'Oskar Linnros'
p2194
sg5
I19
sg6
S'https://open.spotify.com/track/379S6VBwFo9FUrK5rz33mq'
p2195
sg8
S'Fr\xc3\xa5n och med Du'
p2196
ssS'3iAJRvvn8pywXZtvBNNP71'
p2197
(dp2198
g3
S'Glenmark Eriksson Str\xc3\xb6mstedt'
p2199
sg5
I1
sg6
S'https://open.spotify.com/track/3iAJRvvn8pywXZtvBNNP71'
p2200
sg8
S'N\xc3\xa4r vi gr\xc3\xa4ver guld i USA'
p2201
ssS'1wjzFQodRWrPcQ0AnYnvQ9'
p2202
(dp2203
g3
S'Lauv'
p2204
sg5
I18
sg6
S'https://open.spotify.com/track/1wjzFQodRWrPcQ0AnYnvQ9'
p2205
sg8
S'I Like Me Better'
p2206
ssS'7lx4PtPvS63cuNuLvCBxD5'
p2207
(dp2208
g3
S'VAX'
p2209
sg5
I3
sg6
S'https://open.spotify.com/track/7lx4PtPvS63cuNuLvCBxD5'
p2210
sg8
S'Fireproof'
p2211
ssS'51PIvodunv6NmX5250zxAh'
p2212
(dp2213
g3
S'Lady Gaga'
p2214
sg5
I8
sg6
S'https://open.spotify.com/track/51PIvodunv6NmX5250zxAh'
p2215
sg8
S'The Cure'
p2216
ssS'5TYH3jUG7s5JQmAs703N6v'
p2217
(dp2218
g3
S'Miriam Bryant'
p2219
sg5
I2
sg6
S'https://open.spotify.com/track/5TYH3jUG7s5JQmAs703N6v'
p2220
sg8
S'Black Car'
p2221
ssS'7iDa6hUg2VgEL1o1HjmfBn'
p2222
(dp2223
g3
S'Bebe Rexha'
p2224
sg5
I3
sg6
S'https://open.spotify.com/track/7iDa6hUg2VgEL1o1HjmfBn'
p2225
sg8
S'Meant to Be (feat. Florida Georgia Line)'
p2226
ssS'7abpmGpF7PGep2rDU68GBR'
p2227
(dp2228
g3
S'Burak Yeter'
p2229
sg5
I24
sg6
S'https://open.spotify.com/track/7abpmGpF7PGep2rDU68GBR'
p2230
sg8
S'Tuesday'
p2231
ssS'2uFaJJtFpPDc5Pa95XzTvg'
p2232
(dp2233
g3
S'Dean Martin'
p2234
sg5
I1
sg6
S'https://open.spotify.com/track/2uFaJJtFpPDc5Pa95XzTvg'
p2235
sg8
S'Let It Snow! Let It Snow! Let It Snow!'
p2236
ssS'3WKBNbYx32xlJQ0puFCnAJ'
p2237
(dp2238
g3
S'Rhys'
p2239
sg5
I3
sg6
S'https://open.spotify.com/track/3WKBNbYx32xlJQ0puFCnAJ'
p2240
sg8
S'Too Good To Be True'
p2241
ssS'0qYTZCo5Bwh1nsUFGZP3zn'
p2242
(dp2243
g3
S'Maluma'
p2244
sg5
I15
sg6
S'https://open.spotify.com/track/0qYTZCo5Bwh1nsUFGZP3zn'
p2245
sg8
S'Felices los 4'
p2246
ssS'3GPI7hYiqD6enLRobhkBm8'
p2247
(dp2248
g3
S'ItaloBrothers'
p2249
sg5
I18
sg6
S'https://open.spotify.com/track/3GPI7hYiqD6enLRobhkBm8'
p2250
sg8
S'Summer Air'
p2251
ssS'1KqvRRQd3lfM0pAlkGPrgD'
p2252
(dp2253
g3
S'Ed Sheeran'
p2254
sg5
I11
sg6
S'https://open.spotify.com/track/1KqvRRQd3lfM0pAlkGPrgD'
p2255
sg8
S'Shape of You (Major Lazer Remix) [feat. Nyla & Kranium]'
p2256
ssS'2XMTqoHHSH0lvuXrvIEdco'
p2257
(dp2258
g3
S'FRENSHIP'
p2259
sg5
I10
sg6
S'https://open.spotify.com/track/2XMTqoHHSH0lvuXrvIEdco'
p2260
sg8
S'Capsize'
p2261
ssS'5MFzQMkrl1FOOng9tq6R9r'
p2262
(dp2263
g3
S'Maroon 5'
p2264
sg5
I14
sg6
S'https://open.spotify.com/track/5MFzQMkrl1FOOng9tq6R9r'
p2265
sg8
S"Don't Wanna Know"
p2266
ssS'5Z3GHaZ6ec9bsiI5BenrbY'
p2267
(dp2268
g3
S'Khalid'
p2269
sg5
I8
sg6
S'https://open.spotify.com/track/5Z3GHaZ6ec9bsiI5BenrbY'
p2270
sg8
S'Young Dumb & Broke'
p2271
ssS'0CmLGKwqZXmE4ocJPT3A2S'
p2272
(dp2273
g3
S'Carola'
p2274
sg5
I1
sg6
S'https://open.spotify.com/track/0CmLGKwqZXmE4ocJPT3A2S'
p2275
sg8
S'N\xc3\xa4r det lider mot jul'
p2276
ssS'6iHGIa2dOWjtup3xkCKSE5'
p2277
(dp2278
g3
S'Edward Blom'
p2279
sg5
I1
sg6
S'https://open.spotify.com/track/6iHGIa2dOWjtup3xkCKSE5'
p2280
sg8
S'Nu lagar vi julen'
p2281
ssS'1FgmP7AOTcn7MGYmImj0kn'
p2282
(dp2283
g3
S'Macklemore'
p2284
sg5
I1
sg6
S'https://open.spotify.com/track/1FgmP7AOTcn7MGYmImj0kn'
p2285
sg8
S"Ain't Gonna Die Tonight (feat. Eric Nally)"
p2286
ssS'2sySAfWy1kKsAS1KQLfBTf'
p2287
(dp2288
g3
S'Miss Li'
p2289
sg5
I1
sg6
S'https://open.spotify.com/track/2sySAfWy1kKsAS1KQLfBTf'
p2290
sg8
S'The Day I Die (I Want You to Celebrate)'
p2291
ssS'5xYVqJ7ppf4bTbbztvVOYx'
p2292
(dp2293
g3
S'Timeflies'
p2294
sg5
I2
sg6
S'https://open.spotify.com/track/5xYVqJ7ppf4bTbbztvVOYx'
p2295
sg8
S'Raincoat (feat. Shy Martin)'
p2296
ssS'0eCkBrobTQFiBVqa1p92KA'
p2297
(dp2298
g3
S'JP Cooper'
p2299
sg5
I6
sg6
S'https://open.spotify.com/track/0eCkBrobTQFiBVqa1p92KA'
p2300
sg8
S'Birthday'
p2301
ssS'6eT7xZZlB2mwyzJ2sUKG6w'
p2302
(dp2303
g3
S'Post Malone'
p2304
sg5
I4
sg6
S'https://open.spotify.com/track/6eT7xZZlB2mwyzJ2sUKG6w'
p2305
sg8
S'White Iverson'
p2306
ssS'1tp1xMJ1uaOktksskS0Fzs'
p2307
(dp2308
g3
S'Gucci Mane'
p2309
sg5
I1
sg6
S'https://open.spotify.com/track/1tp1xMJ1uaOktksskS0Fzs'
p2310
sg8
S'Curve (feat. The Weeknd)'
p2311
ssS'6Nm0PIjQHqW8OxQlNB2ze9'
p2312
(dp2313
g3
S'Sondr'
p2314
sg5
I18
sg6
S'https://open.spotify.com/track/6Nm0PIjQHqW8OxQlNB2ze9'
p2315
sg8
S'Live Love Learn'
p2316
ssS'08zOhhRo5RWwp8sJSMaKWj'
p2317
(dp2318
g3
S'Oskar Linnros'
p2319
sg5
I5
sg6
S'https://open.spotify.com/track/08zOhhRo5RWwp8sJSMaKWj'
p2320
sg8
S'Oavsett'
p2321
ssS'2q6kL6Tnbd3lJuxWL0v7ur'
p2322
(dp2323
g3
S'Darin'
p2324
sg5
I28
sg6
S'https://open.spotify.com/track/2q6kL6Tnbd3lJuxWL0v7ur'
p2325
sg8
S'Ja m\xc3\xa5 du leva'
p2326
ssS'1jYiIOC5d6soxkJP81fxq2'
p2327
(dp2328
g3
S'DJ Khaled'
p2329
sg5
I1
sg6
S'https://open.spotify.com/track/1jYiIOC5d6soxkJP81fxq2'
p2330
sg8
S"I'm the One"
p2331
ssS'00wxIcA1PPbqEzATkHT4e1'
p2332
(dp2333
g3
S'Francesco Gabbani'
p2334
sg5
I1
sg6
S'https://open.spotify.com/track/00wxIcA1PPbqEzATkHT4e1'
p2335
sg8
S"Occidentali's Karma - Radio Edit"
p2336
ssS'0eZBeB2xFIS65jQHerispi'
p2337
(dp2338
g3
S'Disturbed'
p2339
sg5
I42
sg6
S'https://open.spotify.com/track/0eZBeB2xFIS65jQHerispi'
p2340
sg8
S'The Sound Of Silence'
p2341
ssS'5QqyRUZeBE04yJxsD1OC0I'
p2342
(dp2343
g3
S'Lana Del Rey'
p2344
sg5
I1
sg6
S'https://open.spotify.com/track/5QqyRUZeBE04yJxsD1OC0I'
p2345
sg8
S'Summer Bummer (feat. A$AP Rocky & Playboi Carti)'
p2346
ssS'3S9f5FsGhgiUuJ8rVj7MLj'
p2347
(dp2348
g3
S'Axwell /\\ Ingrosso'
p2349
sg5
I1
sg6
S'https://open.spotify.com/track/3S9f5FsGhgiUuJ8rVj7MLj'
p2350
sg8
S'Renegade'
p2351
ssS'2HLSReP87lABaI9cuypOP8'
p2352
(dp2353
g3
S'Miriam Bryant'
p2354
sg5
I1
sg6
S'https://open.spotify.com/track/2HLSReP87lABaI9cuypOP8'
p2355
sg8
S'Teddybear'
p2356
ssS'2jTujnt0y344ai1rNOywgr'
p2357
(dp2358
g3
S'Drake'
p2359
sg5
I2
sg6
S'https://open.spotify.com/track/2jTujnt0y344ai1rNOywgr'
p2360
sg8
S'KMT'
p2361
ssS'6pVW5LRWgeLaHudxauOTJU'
p2362
(dp2363
g3
S'Daryl Hall & John Oates'
p2364
sg5
I1
sg6
S'https://open.spotify.com/track/6pVW5LRWgeLaHudxauOTJU'
p2365
sg8
S'Jingle Bell Rock from Daryl'
p2366
ssS'0h4FK0CnlZ3oJnZ6quEk1P'
p2367
(dp2368
g3
S'Seeb'
p2369
sg5
I16
sg6
S'https://open.spotify.com/track/0h4FK0CnlZ3oJnZ6quEk1P'
p2370
sg8
S'What Do You Love'
p2371
ssS'273KFpOFtPJqAJIGzwJax1'
p2372
(dp2373
g3
S'Thomas Sekelius'
p2374
sg5
I1
sg6
S'https://open.spotify.com/track/273KFpOFtPJqAJIGzwJax1'
p2375
sg8
S'Awakening'
p2376
ssS'3MzDvWYbRMAgkOFu5DhNvh'
p2377
(dp2378
g3
S'James Blunt'
p2379
sg5
I2
sg6
S'https://open.spotify.com/track/3MzDvWYbRMAgkOFu5DhNvh'
p2380
sg8
S'Love Me Better'
p2381
ssS'1mea3bSkSGXuIRvnydlB5b'
p2382
(dp2383
g3
S'Coldplay'
p2384
sg5
I1
sg6
S'https://open.spotify.com/track/1mea3bSkSGXuIRvnydlB5b'
p2385
sg8
S'Viva La Vida'
p2386
ssS'6gBFPUFcJLzWGx4lenP6h2'
p2387
(dp2388
g3
S'Travis Scott'
p2389
sg5
I4
sg6
S'https://open.spotify.com/track/6gBFPUFcJLzWGx4lenP6h2'
p2390
sg8
S'goosebumps'
p2391
ssS'3FtVPxBNvwtRksGhN4oKQz'
p2392
(dp2393
g3
S'Ace Wilder'
p2394
sg5
I8
sg6
S'https://open.spotify.com/track/3FtVPxBNvwtRksGhN4oKQz'
p2395
sg8
S'Wild Child'
p2396
ssS'6DB2KOEwHnjkgEnBt5SdeJ'
p2397
(dp2398
g3
S'Future'
p2399
sg5
I2
sg6
S'https://open.spotify.com/track/6DB2KOEwHnjkgEnBt5SdeJ'
p2400
sg8
S'Mask Off - Remix'
p2401
ssS'5oAgI7Pzg6vxuKrfapg3Pi'
p2402
(dp2403
g3
S'Martin Garrix'
p2404
sg5
I1
sg6
S'https://open.spotify.com/track/5oAgI7Pzg6vxuKrfapg3Pi'
p2405
sg8
S'Pizza'
p2406
ssS'2hqycTvN1LuEOaiHvTjMBf'
p2407
(dp2408
g3
S'Per Gessle'
p2409
sg5
I23
sg6
S'https://open.spotify.com/track/2hqycTvN1LuEOaiHvTjMBf'
p2410
sg8
S'Sm\xc3\xa5stadsprat'
p2411
ssS'2K6ZdFYngMVzTFiNQhBzM4'
p2412
(dp2413
g3
S'H\xc3\xa5kan Hellstr\xc3\xb6m'
p2414
sg5
I3
sg6
S'https://open.spotify.com/track/2K6ZdFYngMVzTFiNQhBzM4'
p2415
sg8
S'Jag utan dig'
p2416
ssS'2YTCLIK4GO5zRX1BMAMrLN'
p2417
(dp2418
g3
S'Laleh'
p2419
sg5
I1
sg6
S'https://open.spotify.com/track/2YTCLIK4GO5zRX1BMAMrLN'
p2420
sg8
S'Work'
p2421
ssS'48TJ9qPIvCL3utozOnTsxM'
p2422
(dp2423
g3
S'Darin'
p2424
sg5
I4
sg6
S'https://open.spotify.com/track/48TJ9qPIvCL3utozOnTsxM'
p2425
sg8
S'Alla \xc3\xb6gon p\xc3\xa5 mig'
p2426
ssS'15tyBuF8kPOtOzLJw4NshT'
p2427
(dp2428
g3
S'Carola'
p2429
sg5
I1
sg6
S'https://open.spotify.com/track/15tyBuF8kPOtOzLJw4NshT'
p2430
sg8
S'V\xc3\xa5r dr\xc3\xb6m om julen'
p2431
ssS'4gZOWIMzQnn8H2ENrs7UsW'
p2432
(dp2433
g3
S'Axwell /\\ Ingrosso'
p2434
sg5
I10
sg6
S'https://open.spotify.com/track/4gZOWIMzQnn8H2ENrs7UsW'
p2435
sg8
S'I Love You'
p2436
ssS'6cPyTS0Kk2sc4xQwC93kOg'
p2437
(dp2438
g3
S'The Chainsmokers'
p2439
sg5
I3
sg6
S'https://open.spotify.com/track/6cPyTS0Kk2sc4xQwC93kOg'
p2440
sg8
S'Break Up Every Night'
p2441
ssS'4BtWbJZG0t04rT6qZV1AzF'
p2442
(dp2443
g3
S'Benjamin Ingrosso'
p2444
sg5
I6
sg6
S'https://open.spotify.com/track/4BtWbJZG0t04rT6qZV1AzF'
p2445
sg8
S'Do You Think About Me'
p2446
ssS'3SjXx3rbNGk8nCho8YEoz5'
p2447
(dp2448
g3
S'H\xc3\xa5kan Hellstr\xc3\xb6m'
p2449
sg5
I29
sg6
S'https://open.spotify.com/track/3SjXx3rbNGk8nCho8YEoz5'
p2450
sg8
S'Det kommer aldrig va \xc3\xb6ver f\xc3\xb6r mig'
p2451
ssS'31MkGwj0SWgZaTvEt5Hgxv'
p2452
(dp2453
g3
S'P!nk'
p2454
sg5
I9
sg6
S'https://open.spotify.com/track/31MkGwj0SWgZaTvEt5Hgxv'
p2455
sg8
S'What About Us'
p2456
ssS'1xolMlj2dbqzRQDNIUX4LZ'
p2457
(dp2458
g3
S'Galavant'
p2459
sg5
I1
sg6
S'https://open.spotify.com/track/1xolMlj2dbqzRQDNIUX4LZ'
p2460
sg8
S'Youth'
p2461
ssS'3pC1ILr9KzmQLMe8Kn5QBG'
p2462
(dp2463
g3
S'DJ Khaled'
p2464
sg5
I1
sg6
S'https://open.spotify.com/track/3pC1ILr9KzmQLMe8Kn5QBG'
p2465
sg8
S'To the Max'
p2466
ssS'6LOCAhFzZiavHcLJucLuDy'
p2467
(dp2468
g3
S'DJ Khaled'
p2469
sg5
I1
sg6
S'https://open.spotify.com/track/6LOCAhFzZiavHcLJucLuDy'
p2470
sg8
S"Don't Quit"
p2471
ssS'1ghCkVIhgOgVdtabH7W0Lp'
p2472
(dp2473
g3
S'Little Jinder'
p2474
sg5
I1
sg6
S'https://open.spotify.com/track/1ghCkVIhgOgVdtabH7W0Lp'
p2475
sg8
S'Kvicksand'
p2476
ssS'35QZaWQRkmnAVqBF1TLCxQ'
p2477
(dp2478
g3
S'Ed Sheeran'
p2479
sg5
I8
sg6
S'https://open.spotify.com/track/35QZaWQRkmnAVqBF1TLCxQ'
p2480
sg8
S'Nancy Mulligan'
p2481
ssS'783FqtyD7IA0QHtzmxc1LS'
p2482
(dp2483
g3
S'Samir & Viktor'
p2484
sg5
I9
sg6
S'https://open.spotify.com/track/783FqtyD7IA0QHtzmxc1LS'
p2485
sg8
S'Vi g\xc3\xb6r det \xc3\xa4nd\xc3\xa5'
p2486
ssS'4WfSDuJ4MrpdSSCEOanwzD'
p2487
(dp2488
g3
S'E.M.D.'
p2489
sg5
I1
sg6
S'https://open.spotify.com/track/4WfSDuJ4MrpdSSCEOanwzD'
p2490
sg8
S'V\xc3\xa4lkommen hem'
p2491
ssS'1cxUcd6YEtyjvQXV9l9GXq'
p2492
(dp2493
g3
S'Hov1'
p2494
sg5
I1
sg6
S'https://open.spotify.com/track/1cxUcd6YEtyjvQXV9l9GXq'
p2495
sg8
S'Hur Kan Du S\xc3\xa4ga Saker'
p2496
ssS'1a5Yu5L18qNxVhXx38njON'
p2497
(dp2498
g3
S'Alok'
p2499
sg5
I26
sg6
S'https://open.spotify.com/track/1a5Yu5L18qNxVhXx38njON'
p2500
sg8
S'Hear Me Now'
p2501
ssS'6WG7lWqmHXg9BNBouYNTuJ'
p2502
(dp2503
g3
S'M\xc3\xa5ns Zelmerl\xc3\xb6w'
p2504
sg5
I1
sg6
S'https://open.spotify.com/track/6WG7lWqmHXg9BNBouYNTuJ'
p2505
sg8
S'December'
p2506
ssS'1KZisUrtRpcafagqjIqwDG'
p2507
(dp2508
g3
S'Oskar Linnros'
p2509
sg5
I11
sg6
S'https://open.spotify.com/track/1KZisUrtRpcafagqjIqwDG'
p2510
sg8
S'B\xc3\xa4st'
p2511
ssS'2dfqS3MRtbLZSZA1IL8xY5'
p2512
(dp2513
g3
S'Drake'
p2514
sg5
I1
sg6
S'https://open.spotify.com/track/2dfqS3MRtbLZSZA1IL8xY5'
p2515
sg8
S'Skepta Interlude'
p2516
ssS'3kxfsdsCpFgN412fpnW85Y'
p2517
(dp2518
g3
S'Childish Gambino'
p2519
sg5
I16
sg6
S'https://open.spotify.com/track/3kxfsdsCpFgN412fpnW85Y'
p2520
sg8
S'Redbone'
p2521
ssS'4q8PHoRsPUB52LFylX8Ulz'
p2522
(dp2523
g3
S'Axwell /\\ Ingrosso'
p2524
sg5
I9
sg6
S'https://open.spotify.com/track/4q8PHoRsPUB52LFylX8Ulz'
p2525
sg8
S'More Than You Know'
p2526
ssS'3qyeNnFY67zX6VmmIbzPsL'
p2527
(dp2528
g3
S'Mike Perry'
p2529
sg5
I23
sg6
S'https://open.spotify.com/track/3qyeNnFY67zX6VmmIbzPsL'
p2530
sg8
S'Body to Body'
p2531
ssS'1KeZgPUr54C8iz3FjqzVoz'
p2532
(dp2533
g3
S'The Chainsmokers'
p2534
sg5
I1
sg6
S'https://open.spotify.com/track/1KeZgPUr54C8iz3FjqzVoz'
p2535
sg8
S'Young'
p2536
ssS'4sPmO7WMQUAf45kwMOtONw'
p2537
(dp2538
g3
S'Adele'
p2539
sg5
I16
sg6
S'https://open.spotify.com/track/4sPmO7WMQUAf45kwMOtONw'
p2540
sg8
S'Hello'
p2541
ssS'6vSwxzO2Qf4BinHSXRwZJe'
p2542
(dp2543
g3
S'Ed Sheeran'
p2544
sg5
I5
sg6
S'https://open.spotify.com/track/6vSwxzO2Qf4BinHSXRwZJe'
p2545
sg8
S'Tenerife Sea'
p2546
ssS'06FCvd7rrRcF3DdvWH5Isp'
p2547
(dp2548
g3
S'Kendrick Lamar'
p2549
sg5
I1
sg6
S'https://open.spotify.com/track/06FCvd7rrRcF3DdvWH5Isp'
p2550
sg8
S'LUST.'
p2551
ssS'5p3NP9mQblDsVJLdfNZJ3I'
p2552
(dp2553
g3
S'Kendrick Lamar'
p2554
sg5
I1
sg6
S'https://open.spotify.com/track/5p3NP9mQblDsVJLdfNZJ3I'
p2555
sg8
S'GOD.'
p2556
ssS'6BaCraQ9xeLYg4Sb9TBT2X'
p2557
(dp2558
g3
S'Calvin Harris'
p2559
sg5
I1
sg6
S'https://open.spotify.com/track/6BaCraQ9xeLYg4Sb9TBT2X'
p2560
sg8
S'Feels'
p2561
ssS'561jH07mF1jHuk7KlaeF0s'
p2562
(dp2563
g3
S'Eminem'
p2564
sg5
I3
sg6
S'https://open.spotify.com/track/561jH07mF1jHuk7KlaeF0s'
p2565
sg8
S'Mockingbird'
p2566
ssS'3T8j0WDSw7G98rNLAe2M2X'
p2567
(dp2568
g3
S'Madden'
p2569
sg5
I5
sg6
S'https://open.spotify.com/track/3T8j0WDSw7G98rNLAe2M2X'
p2570
sg8
S'Golden Light (feat. 6AM)'
p2571
ssS'6R6ihJhRbgu7JxJKIbW57w'
p2572
(dp2573
g3
S'Frank Ocean'
p2574
sg5
I1
sg6
S'https://open.spotify.com/track/6R6ihJhRbgu7JxJKIbW57w'
p2575
sg8
S'Provider'
p2576
ssS'6s1R9UKMaSkAreX9vgRNqB'
p2577
(dp2578
g3
S'Troll'
p2579
sg5
I1
sg6
S'https://open.spotify.com/track/6s1R9UKMaSkAreX9vgRNqB'
p2580
sg8
S'Jag s\xc3\xa5g mamma kyssa tomten'
p2581
ssS'6Knv6wdA0luoMUuuoYi2i1'
p2582
(dp2583
g3
S'Flo Rida'
p2584
sg5
I5
sg6
S'https://open.spotify.com/track/6Knv6wdA0luoMUuuoYi2i1'
p2585
sg8
S'My House'
p2586
ssS'6a9Yc4mnNameCjDEdfpXSv'
p2587
(dp2588
g3
S'Marcus & Martinus'
p2589
sg5
I3
sg6
S'https://open.spotify.com/track/6a9Yc4mnNameCjDEdfpXSv'
p2590
sg8
S'Dance With You'
p2591
ssS'3mXedqURIapcqLBf1PnPTR'
p2592
(dp2593
g3
S'Donny Hathaway'
p2594
sg5
I1
sg6
S'https://open.spotify.com/track/3mXedqURIapcqLBf1PnPTR'
p2595
sg8
S'This Christmas - Single Edit'
p2596
ssS'6gTJaPuj8DT8RjuDJyBgzP'
p2597
(dp2598
g3
S'Ed Sheeran'
p2599
sg5
I1
sg6
S'https://open.spotify.com/track/6gTJaPuj8DT8RjuDJyBgzP'
p2600
sg8
S"Don't"
p2601
ssS'3T7dNA7O8c3Axj5WyDNcH3'
p2602
(dp2603
g3
S'Brenda Lee'
p2604
sg5
I1
sg6
S'https://open.spotify.com/track/3T7dNA7O8c3Axj5WyDNcH3'
p2605
sg8
S"Rockin' Around The Christmas Tree - Single Version"
p2606
ssS'5q5gzmbBS5yQzos2BvVr1t'
p2607
(dp2608
g3
S'M\xc3\x98'
p2609
sg5
I6
sg6
S'https://open.spotify.com/track/5q5gzmbBS5yQzos2BvVr1t'
p2610
sg8
S'Nights With You'
p2611
ssS'3DXncPQOG4VBw3QHh3S817'
p2612
(dp2613
g3
S'DJ Khaled'
p2614
sg5
I20
sg6
S'https://open.spotify.com/track/3DXncPQOG4VBw3QHh3S817'
p2615
sg8
S"I'm the One"
p2616
ssS'7CCWyhZL6wDvKdbdsVpk8Q'
p2617
(dp2618
g3
S'Adoo'
p2619
sg5
I1
sg6
S'https://open.spotify.com/track/7CCWyhZL6wDvKdbdsVpk8Q'
p2620
sg8
S'Champagne'
p2621
ssS'7m9OqQk4RVRkw9JJdeAw96'
p2622
(dp2623
g3
S'XXXTENTACION'
p2624
sg5
I7
sg6
S'https://open.spotify.com/track/7m9OqQk4RVRkw9JJdeAw96'
p2625
sg8
S'Jocelyn Flores'
p2626
ssS'0Z9HQ8YvHqdeOjTwsR3cS7'
p2627
(dp2628
g3
S'Moon Taxi'
p2629
sg5
I1
sg6
S'https://open.spotify.com/track/0Z9HQ8YvHqdeOjTwsR3cS7'
p2630
sg8
S'Two High'
p2631
ssS'6MbH1QiphMCPTqVEVC7UYi'
p2632
(dp2633
g3
S'Drake'
p2634
sg5
I1
sg6
S'https://open.spotify.com/track/6MbH1QiphMCPTqVEVC7UYi'
p2635
sg8
S'Nothings Into Somethings'
p2636
ssS'6mORGLOz79w6VsCRLWYYuK'
p2637
(dp2638
g3
S'Lord Huron'
p2639
sg5
I15
sg6
S'https://open.spotify.com/track/6mORGLOz79w6VsCRLWYYuK'
p2640
sg8
S'The Night We Met'
p2641
ssS'0WGzoXYjWNl5lZKiu376oV'
p2642
(dp2643
g3
S'Veronica Maggio'
p2644
sg5
I7
sg6
S'https://open.spotify.com/track/0WGzoXYjWNl5lZKiu376oV'
p2645
sg8
S'Vi mot v\xc3\xa4rlden'
p2646
ssS'2fQrGHiQOvpL9UgPvtYy6G'
p2647
(dp2648
g3
S'21 Savage'
p2649
sg5
I3
sg6
S'https://open.spotify.com/track/2fQrGHiQOvpL9UgPvtYy6G'
p2650
sg8
S'Bank Account'
p2651
ssS'5aAx2yezTd8zXrkmtKl66Z'
p2652
(dp2653
g3
S'The Weeknd'
p2654
sg5
I42
sg6
S'https://open.spotify.com/track/5aAx2yezTd8zXrkmtKl66Z'
p2655
sg8
S'Starboy'
p2656
ssS'2BrzlUj1u1CtvaJDGIKpsP'
p2657
(dp2658
g3
S'Noah Cyrus'
p2659
sg5
I12
sg6
S'https://open.spotify.com/track/2BrzlUj1u1CtvaJDGIKpsP'
p2660
sg8
S'Make Me (Cry)'
p2661
ssS'58facAQuyUDml53CS4fOd3'
p2662
(dp2663
g3
S'Thomas Stenstr\xc3\xb6m'
p2664
sg5
I5
sg6
S'https://open.spotify.com/track/58facAQuyUDml53CS4fOd3'
p2665
sg8
S'Sl\xc3\xa5 mig h\xc3\xa5rt i ansiktet'
p2666
ssS'1SJtlNRJDeYHioymcvsqev'
p2667
(dp2668
g3
S'Camila Cabello'
p2669
sg5
I13
sg6
S'https://open.spotify.com/track/1SJtlNRJDeYHioymcvsqev'
p2670
sg8
S'Crying in the Club'
p2671
ssS'0Wv5wuenRLI3BcwgT3HPIP'
p2672
(dp2673
g3
S'DJ Snake'
p2674
sg5
I3
sg6
S'https://open.spotify.com/track/0Wv5wuenRLI3BcwgT3HPIP'
p2675
sg8
S'A Different Way (with Lauv)'
p2676
ssS'04DwTuZ2VBdJCCC5TROn7L'
p2677
(dp2678
g3
S'Martin Garrix'
p2679
sg5
I12
sg6
S'https://open.spotify.com/track/04DwTuZ2VBdJCCC5TROn7L'
p2680
sg8
S'In the Name of Love'
p2681
ssS'4fzyvSu73BhGvi96p2zwjL'
p2682
(dp2683
g3
S'Coldplay'
p2684
sg5
I1
sg6
S'https://open.spotify.com/track/4fzyvSu73BhGvi96p2zwjL'
p2685
sg8
S'Christmas Lights'
p2686
ssS'2nUJvBO87SkxCViQsLc9Zr'
p2687
(dp2688
g3
S'Big Shaq'
p2689
sg5
I2
sg6
S'https://open.spotify.com/track/2nUJvBO87SkxCViQsLc9Zr'
p2690
sg8
S"Man's Not Hot"
p2691
ssS'3AJwUDP919kvQ9QcozQPxg'
p2692
(dp2693
g3
S'Coldplay'
p2694
sg5
I1
sg6
S'https://open.spotify.com/track/3AJwUDP919kvQ9QcozQPxg'
p2695
sg8
S'Yellow'
p2696
ssS'2bjwRfXMk4uRgOD9IBYl9h'
p2697
(dp2698
g3
S'Drake'
p2699
sg5
I7
sg6
S'https://open.spotify.com/track/2bjwRfXMk4uRgOD9IBYl9h'
p2700
sg8
S'Portland'
p2701
ssS'4q2kLNrtErPRrKKbbnCUW6'
p2702
(dp2703
g3
S'Sarah Dawn Finer'
p2704
sg5
I1
sg6
S'https://open.spotify.com/track/4q2kLNrtErPRrKKbbnCUW6'
p2705
sg8
S'K\xc3\xa4rleksvisan'
p2706
ssS'7fUI392NnuMh8s7yXJZwqL'
p2707
(dp2708
g3
S'Jireel'
p2709
sg5
I2
sg6
S'https://open.spotify.com/track/7fUI392NnuMh8s7yXJZwqL'
p2710
sg8
S'Tagga'
p2711
ssS'5KyKycgbncmgyxU3xYMfBB'
p2712
(dp2713
g3
S'Hov1'
p2714
sg5
I21
sg6
S'https://open.spotify.com/track/5KyKycgbncmgyxU3xYMfBB'
p2715
sg8
S'Hj\xc3\xa4rtslag'
p2716
ssS'6VRghJeP6I0w1KxkdWFfIh'
p2717
(dp2718
g3
S'Imagine Dragons'
p2719
sg5
I3
sg6
S'https://open.spotify.com/track/6VRghJeP6I0w1KxkdWFfIh'
p2720
sg8
S'Believer'
p2721
ssS'56fCI6qlI3HOE2rjp9SKAm'
p2722
(dp2723
g3
S'Marcus & Martinus'
p2724
sg5
I6
sg6
S'https://open.spotify.com/track/56fCI6qlI3HOE2rjp9SKAm'
p2725
sg8
S'Like It Like It'
p2726
ssS'6SznMYPQJHzr3IwsAHLId2'
p2727
(dp2728
g3
S'Ed Sheeran'
p2729
sg5
I5
sg6
S'https://open.spotify.com/track/6SznMYPQJHzr3IwsAHLId2'
p2730
sg8
S'Bibia Be Ye Ye'
p2731
ssS'6jmngk8Fwup05JZ6kgXEGX'
p2732
(dp2733
g3
S'Imagine Dragons'
p2734
sg5
I1
sg6
S'https://open.spotify.com/track/6jmngk8Fwup05JZ6kgXEGX'
p2735
sg8
S'Walking The Wire'
p2736
ssS'4wdZdkEugVVorAfzqRqC6N'
p2737
(dp2738
g3
S'Post Malone'
p2739
sg5
I3
sg6
S'https://open.spotify.com/track/4wdZdkEugVVorAfzqRqC6N'
p2740
sg8
S'Candy Paint'
p2741
ssS'46NBoIAHrmR7qcUGCIFEjR'
p2742
(dp2743
g3
S'David Guetta'
p2744
sg5
I6
sg6
S'https://open.spotify.com/track/46NBoIAHrmR7qcUGCIFEjR'
p2745
sg8
S"This One's For You (feat. Zara Larsson) - Official Song UEFA EURO 2016"
p2746
ssS'0NiXXAI876aGImAd6rTj8w'
p2747
(dp2748
g3
S'Jonas Blue'
p2749
sg5
I14
sg6
S'https://open.spotify.com/track/0NiXXAI876aGImAd6rTj8w'
p2750
sg8
S'Mama'
p2751
ssS'4BA7nSAIvO173A1DD8MAEx'
p2752
(dp2753
g3
S'N\xc3\xa4\xc3\xa4\xc3\xa4k & Nimo'
p2754
sg5
I1
sg6
S'https://open.spotify.com/track/4BA7nSAIvO173A1DD8MAEx'
p2755
sg8
S'Allt f\xc3\xb6r dig'
p2756
ssS'3LG5h1QIvHZkChgmc2MVGq'
p2757
(dp2758
g3
S'Otto Knows'
p2759
sg5
I5
sg6
S'https://open.spotify.com/track/3LG5h1QIvHZkChgmc2MVGq'
p2760
sg8
S'With You'
p2761
ssS'0tgVpDi06FyKpA1z0VMD4v'
p2762
(dp2763
g3
S'Ed Sheeran'
p2764
sg5
I32
sg6
S'https://open.spotify.com/track/0tgVpDi06FyKpA1z0VMD4v'
p2765
sg8
S'Perfect'
p2766
ssS'5fX2oPyLCe5mBKqGDbOWqC'
p2767
(dp2768
g3
S'James TW'
p2769
sg5
I30
sg6
S'https://open.spotify.com/track/5fX2oPyLCe5mBKqGDbOWqC'
p2770
sg8
S'When You Love Someone'
p2771
ssS'1svVszZtjwyAurNFPgcIzN'
p2772
(dp2773
g3
S'Aden'
p2774
sg5
I9
sg6
S'https://open.spotify.com/track/1svVszZtjwyAurNFPgcIzN'
p2775
sg8
S'Kasse'
p2776
ssS'0xLCa6dp0wmDUhkDGKzDpv'
p2777
(dp2778
g3
S'Bebe Rexha'
p2779
sg5
I1
sg6
S'https://open.spotify.com/track/0xLCa6dp0wmDUhkDGKzDpv'
p2780
sg8
S'F.F.F. (feat. G-Eazy)'
p2781
ssS'5Oh3cW5gnEEKPsHb1WrVWm'
p2782
(dp2783
g3
S'DJ Katch'
p2784
sg5
I20
sg6
S'https://open.spotify.com/track/5Oh3cW5gnEEKPsHb1WrVWm'
p2785
sg8
S'Lights Out (Too Drunk) [feat. Hayley]'
p2786
ssS'1SrRg0gY3qgUhfU2XPab1X'
p2787
(dp2788
g3
S'Jireel'
p2789
sg5
I3
sg6
S'https://open.spotify.com/track/1SrRg0gY3qgUhfU2XPab1X'
p2790
sg8
S'Man Of The Year'
p2791
ssS'1n4jwRVXdkK2U34nBDUKKT'
p2792
(dp2793
g3
S'Kendrick Lamar'
p2794
sg5
I1
sg6
S'https://open.spotify.com/track/1n4jwRVXdkK2U34nBDUKKT'
p2795
sg8
S'BLOOD.'
p2796
ssS'0tUh8HzIVpZPFW7HzE5Vhk'
p2797
(dp2798
g3
S'Loreen'
p2799
sg5
I8
sg6
S'https://open.spotify.com/track/0tUh8HzIVpZPFW7HzE5Vhk'
p2800
sg8
S'Statements'
p2801
ssS'65ACnVMmePTp8Xdk11jP2y'
p2802
(dp2803
g3
S'Zara Larsson'
p2804
sg5
I6
sg6
S'https://open.spotify.com/track/65ACnVMmePTp8Xdk11jP2y'
p2805
sg8
S"Don't Let Me Be Yours"
p2806
ssS'5Ohxk2dO5COHF1krpoPigN'
p2807
(dp2808
g3
S'Harry Styles'
p2809
sg5
I27
sg6
S'https://open.spotify.com/track/5Ohxk2dO5COHF1krpoPigN'
p2810
sg8
S'Sign of the Times'
p2811
ssS'0MkNKegiXN9ut0qMpCbhj1'
p2812
(dp2813
g3
S'Gee Dixon'
p2814
sg5
I1
sg6
S'https://open.spotify.com/track/0MkNKegiXN9ut0qMpCbhj1'
p2815
sg8
S'Shouf Remix'
p2816
ssS'1oqBXd0XminrHKHEaEzpY4'
p2817
(dp2818
g3
S'Sara Varga'
p2819
sg5
I2
sg6
S'https://open.spotify.com/track/1oqBXd0XminrHKHEaEzpY4'
p2820
sg8
S'Du f\xc3\xa5r inte \xc3\xa4ndra p\xc3\xa5 mig'
p2821
ssS'0vzBe9Z2BW4cNfokXV61EE'
p2822
(dp2823
g3
S'C\xc3\xa9line Dion'
p2824
sg5
I1
sg6
S'https://open.spotify.com/track/0vzBe9Z2BW4cNfokXV61EE'
p2825
sg8
S'The Prayer'
p2826
ssS'4mxWSdf71VFO52qFeY0fZt'
p2827
(dp2828
g3
S'Maroon 5'
p2829
sg5
I6
sg6
S'https://open.spotify.com/track/4mxWSdf71VFO52qFeY0fZt'
p2830
sg8
S'What Lovers Do (feat. SZA)'
p2831
ssS'1ADjWm8QNhgNV8yCNNgQ1T'
p2832
(dp2833
g3
S'Ariana Grande'
p2834
sg5
I1
sg6
S'https://open.spotify.com/track/1ADjWm8QNhgNV8yCNNgQ1T'
p2835
sg8
S'Santa Tell Me'
p2836
ssS'4nPj0CUR45ADUNXj6UiZyS'
p2837
(dp2838
g3
S'Henrik Berggren'
p2839
sg5
I1
sg6
S'https://open.spotify.com/track/4nPj0CUR45ADUNXj6UiZyS'
p2840
sg8
S'Wild Child'
p2841
ssS'4Hf7WnR761jpxPr5D46Bcd'
p2842
(dp2843
g3
S'Shawn Mendes'
p2844
sg5
I34
sg6
S'https://open.spotify.com/track/4Hf7WnR761jpxPr5D46Bcd'
p2845
sg8
S'Treat You Better'
p2846
ssS'4BATUkk8UMuiMb6lr5CH5G'
p2847
(dp2848
g3
S'NEIKED'
p2849
sg5
I1
sg6
S'https://open.spotify.com/track/4BATUkk8UMuiMb6lr5CH5G'
p2850
sg8
S'Call Me'
p2851
ssS'4fhVodXZARPX0oTuQh8V9l'
p2852
(dp2853
g3
S'Astrid S'
p2854
sg5
I15
sg6
S'https://open.spotify.com/track/4fhVodXZARPX0oTuQh8V9l'
p2855
sg8
S'Breathe'
p2856
ssS'4mq14Qa6OehdiyZFtHcdCH'
p2857
(dp2858
g3
S'Lana Del Rey'
p2859
sg5
I1
sg6
S'https://open.spotify.com/track/4mq14Qa6OehdiyZFtHcdCH'
p2860
sg8
S'13 Beaches'
p2861
ssS'0dXNQ8dckG4eYfEtq9zcva'
p2862
(dp2863
g3
S'The Vamps'
p2864
sg5
I1
sg6
S'https://open.spotify.com/track/0dXNQ8dckG4eYfEtq9zcva'
p2865
sg8
S'All Night'
p2866
ssS'03t3IRKAyXPGeAWCidF03q'
p2867
(dp2868
g3
S'Noah Kahan'
p2869
sg5
I2
sg6
S'https://open.spotify.com/track/03t3IRKAyXPGeAWCidF03q'
p2870
sg8
S'Hurt Somebody'
p2871
ssS'7F1LWA9sIlTorHUo4amGqk'
p2872
(dp2873
g3
S'The Weeknd'
p2874
sg5
I1
sg6
S'https://open.spotify.com/track/7F1LWA9sIlTorHUo4amGqk'
p2875
sg8
S'Reminder - Remix'
p2876
ssS'2RF4YUblnfECntXOmBvv5M'
p2877
(dp2878
g3
S'Hovig'
p2879
sg5
I1
sg6
S'https://open.spotify.com/track/2RF4YUblnfECntXOmBvv5M'
p2880
sg8
S'Gravity'
p2881
ssS'5PXEj5bJ1VFQemUhuJ8BSA'
p2882
(dp2883
g3
S'Benjamin Ingrosso'
p2884
sg5
I3
sg6
S'https://open.spotify.com/track/5PXEj5bJ1VFQemUhuJ8BSA'
p2885
sg8
S'One More Time'
p2886
ssS'0iVAPfPW2NkfxCqu0a1UBl'
p2887
(dp2888
g3
S'James Arthur'
p2889
sg5
I1
sg6
S'https://open.spotify.com/track/0iVAPfPW2NkfxCqu0a1UBl'
p2890
sg8
S'Can I Be Him - Acoustic Live Version'
p2891
ssS'3FS2e59gXFXrcg7sN2mL5z'
p2892
(dp2893
g3
S'Vigiland'
p2894
sg5
I1
sg6
S'https://open.spotify.com/track/3FS2e59gXFXrcg7sN2mL5z'
p2895
sg8
S'Shots & Squats'
p2896
ssS'2mSjhD5X0iFqtzPLTGUHim'
p2897
(dp2898
g3
S'Peg Parnevik'
p2899
sg5
I7
sg6
S'https://open.spotify.com/track/2mSjhD5X0iFqtzPLTGUHim'
p2900
sg8
S"Don't Tell Ma"
p2901
ssS'6fTBbn7WXH6lmaWYOqdPuc'
p2902
(dp2903
g3
S'ODZ'
p2904
sg5
I3
sg6
S'https://open.spotify.com/track/6fTBbn7WXH6lmaWYOqdPuc'
p2905
sg8
S'Helt Crack'
p2906
ssS'1MksGqIztTT6M9R1ErKVs8'
p2907
(dp2908
g3
S'Big Sean'
p2909
sg5
I1
sg6
S'https://open.spotify.com/track/1MksGqIztTT6M9R1ErKVs8'
p2910
sg8
S'No Favors'
p2911
ssS'1EaKU4dMbesXXd3BrLCtYG'
p2912
(dp2913
g3
S'Kendrick Lamar'
p2914
sg5
I4
sg6
S'https://open.spotify.com/track/1EaKU4dMbesXXd3BrLCtYG'
p2915
sg8
S'ELEMENT.'
p2916
ssS'2Ce5IyMlVRVvN997ZJjJJA'
p2917
(dp2918
g3
S'Future'
p2919
sg5
I13
sg6
S'https://open.spotify.com/track/2Ce5IyMlVRVvN997ZJjJJA'
p2920
sg8
S'Selfish'
p2921
ssS'5knuzwU65gJK7IF5yJsuaW'
p2922
(dp2923
g3
S'Clean Bandit'
p2924
sg5
I42
sg6
S'https://open.spotify.com/track/5knuzwU65gJK7IF5yJsuaW'
p2925
sg8
S'Rockabye (feat. Sean Paul & Anne-Marie)'
p2926
ssS'7aF09WaavZAmAWuUeYxlYD'
p2927
(dp2928
g3
S'OneRepublic'
p2929
sg5
I13
sg6
S'https://open.spotify.com/track/7aF09WaavZAmAWuUeYxlYD'
p2930
sg8
S'Rich Love (with Seeb)'
p2931
ssS'3bWAqKDWg6u1davspr5IkS'
p2932
(dp2933
g3
S'Robin Schulz'
p2934
sg5
I21
sg6
S'https://open.spotify.com/track/3bWAqKDWg6u1davspr5IkS'
p2935
sg8
S'OK'
p2936
ssS'3ci54ALghP4tulQ1yO0rFj'
p2937
(dp2938
g3
S'Danny Saucedo'
p2939
sg5
I5
sg6
S'https://open.spotify.com/track/3ci54ALghP4tulQ1yO0rFj'
p2940
sg8
S'Jag f\xc3\xa5r inte nog'
p2941
ssS'14WWzenpaEgQZlqPq2nk4v'
p2942
(dp2943
g3
S'Rihanna'
p2944
sg5
I2
sg6
S'https://open.spotify.com/track/14WWzenpaEgQZlqPq2nk4v'
p2945
sg8
S'Work'
p2946
ssS'4lnlrSpwIA5ip0Jtrl3yQH'
p2947
(dp2948
g3
S'Yasin'
p2949
sg5
I1
sg6
S'https://open.spotify.com/track/4lnlrSpwIA5ip0Jtrl3yQH'
p2950
sg8
S'St\xc3\xa4cka'
p2951
ssS'36YCdzT57us0LhDmCYtrNE'
p2952
(dp2953
g3
S'The Weeknd'
p2954
sg5
I1
sg6
S'https://open.spotify.com/track/36YCdzT57us0LhDmCYtrNE'
p2955
sg8
S'Rockin\xe2\x80\x99'
p2956
ssS'6b8Be6ljOzmkOmFslEb23P'
p2957
(dp2958
g3
S'Bruno Mars'
p2959
sg5
I12
sg6
S'https://open.spotify.com/track/6b8Be6ljOzmkOmFslEb23P'
p2960
sg8
S'24K Magic'
p2961
ssS'0Arho21onY1yo49so5Cam3'
p2962
(dp2963
g3
S'kent'
p2964
sg5
I1
sg6
S'https://open.spotify.com/track/0Arho21onY1yo49so5Cam3'
p2965
sg8
S'999'
p2966
ssS'69uxyAqqPIsUyTO8txoP2M'
p2967
(dp2968
g3
S'Coldplay'
p2969
sg5
I1
sg6
S'https://open.spotify.com/track/69uxyAqqPIsUyTO8txoP2M'
p2970
sg8
S'Adventure Of A Lifetime'
p2971
ssS'6Ep6BzIOB9tz3P4sWqiiAB'
p2972
(dp2973
g3
S'Imagine Dragons'
p2974
sg5
I1
sg6
S'https://open.spotify.com/track/6Ep6BzIOB9tz3P4sWqiiAB'
p2975
sg8
S'Radioactive'
p2976
ssS'6uJwPeBGb3swi85TSr9iIz'
p2977
(dp2978
g3
S'Coldplay'
p2979
sg5
I2
sg6
S'https://open.spotify.com/track/6uJwPeBGb3swi85TSr9iIz'
p2980
sg8
S'Miracles (Someone Special)'
p2981
ssS'4DfxFGwreu9BquiLRClwh8'
p2982
(dp2983
g3
S'John De Sohn'
p2984
sg5
I15
sg6
S'https://open.spotify.com/track/4DfxFGwreu9BquiLRClwh8'
p2985
sg8
S'Hum With Me'
p2986
ssS'57bgtoPSgt236HzfBOd8kj'
p2987
(dp2988
g3
S'AC/DC'
p2989
sg5
I2
sg6
S'https://open.spotify.com/track/57bgtoPSgt236HzfBOd8kj'
p2990
sg8
S'Thunderstruck'
p2991
ssS'3hRZsdTF5uyGA2uhNqEuhm'
p2992
(dp2993
g3
S'Niall Horan'
p2994
sg5
I4
sg6
S'https://open.spotify.com/track/3hRZsdTF5uyGA2uhNqEuhm'
p2995
sg8
S'Too Much To Ask'
p2996
ssS'4so0Wek9Ig1p6CRCHuINwW'
p2997
(dp2998
g3
S'Bing Crosby'
p2999
sg5
I1
sg6
S'https://open.spotify.com/track/4so0Wek9Ig1p6CRCHuINwW'
p3000
sg8
S'White Christmas'
p3001
ssS'3VXUovsqEZRBCEeFSDDd2v'
p3002
(dp3003
g3
S'Total Ape'
p3004
sg5
I2
sg6
S'https://open.spotify.com/track/3VXUovsqEZRBCEeFSDDd2v'
p3005
sg8
S'More (feat. Miss Li)'
p3006
ssS'6yaxdh87KVj82QIYKTP1zt'
p3007
(dp3008
g3
S'Bing Crosby'
p3009
sg5
I1
sg6
S'https://open.spotify.com/track/6yaxdh87KVj82QIYKTP1zt'
p3010
sg8
S"It's Beginning To Look A Lot Like Christmas"
p3011
ssS'23luOrEVHMfoX0AhfbQuS6'
p3012
(dp3013
g3
S'Kendrick Lamar'
p3014
sg5
I1
sg6
S'https://open.spotify.com/track/23luOrEVHMfoX0AhfbQuS6'
p3015
sg8
S'FEAR.'
p3016
ssS'458ESscRcqCVX1xbllEmPn'
p3017
(dp3018
g3
S'NEIKED'
p3019
sg5
I1
sg6
S'https://open.spotify.com/track/458ESscRcqCVX1xbllEmPn'
p3020
sg8
S'Call Me'
p3021
ssS'5DA77EqppDmCTWGovd4oTP'
p3022
(dp3023
g3
S'Cheat Codes'
p3024
sg5
I9
sg6
S'https://open.spotify.com/track/5DA77EqppDmCTWGovd4oTP'
p3025
sg8
S'Sex'
p3026
ssS'2hPLfPxvRUfXKNGD3VcJnT'
p3027
(dp3028
g3
S'Avicii'
p3029
sg5
I7
sg6
S'https://open.spotify.com/track/2hPLfPxvRUfXKNGD3VcJnT'
p3030
sg8
S'So Much Better - Avicii Remix'
p3031
ssS'29Xp9qXcl1LBpGMFtfUZ4O'
p3032
(dp3033
g3
S'Junge Junge'
p3034
sg5
I10
sg6
S'https://open.spotify.com/track/29Xp9qXcl1LBpGMFtfUZ4O'
p3035
sg8
S'Run Run Run'
p3036
ssS'6l2a1MlPoJQoRJC464tcUa'
p3037
(dp3038
g3
S'Elin Bergman'
p3039
sg5
I1
sg6
S'https://open.spotify.com/track/6l2a1MlPoJQoRJC464tcUa'
p3040
sg8
S'Naked'
p3041
ssS'4h90qkbnW1Qq6pBhoPvwko'
p3042
(dp3043
g3
S'The Weeknd'
p3044
sg5
I1
sg6
S'https://open.spotify.com/track/4h90qkbnW1Qq6pBhoPvwko'
p3045
sg8
S'Sidewalks'
p3046
ssS'6HZILIRieu8S0iqY8kIKhj'
p3047
(dp3048
g3
S'Kendrick Lamar'
p3049
sg5
I12
sg6
S'https://open.spotify.com/track/6HZILIRieu8S0iqY8kIKhj'
p3050
sg8
S'DNA.'
p3051
ssS'2A17f6I4fh6GqYX0J8noGr'
p3052
(dp3053
g3
S'Ed Sheeran'
p3054
sg5
I18
sg6
S'https://open.spotify.com/track/2A17f6I4fh6GqYX0J8noGr'
p3055
sg8
S'Galway Girl - Martin Jensen Remix'
p3056
ssS'4mwjmreHLdjaQk47WhOZnA'
p3057
(dp3058
g3
S'Hov1'
p3059
sg5
I16
sg6
S'https://open.spotify.com/track/4mwjmreHLdjaQk47WhOZnA'
p3060
sg8
S'Damn'
p3061
ssS'7F9vK8hNFMml4GtHsaXui6'
p3062
(dp3063
g3
S'Louis Tomlinson'
p3064
sg5
I12
sg6
S'https://open.spotify.com/track/7F9vK8hNFMml4GtHsaXui6'
p3065
sg8
S'Back to You (feat. Bebe Rexha & Digital Farm Animals)'
p3066
ssS'11Fo4dAH31K7UZHGqCkCmE'
p3067
(dp3068
g3
S'Axwell /\\ Ingrosso'
p3069
sg5
I24
sg6
S'https://open.spotify.com/track/11Fo4dAH31K7UZHGqCkCmE'
p3070
sg8
S'I Love You'
p3071
ssS'69uCmYNvkqnvIpyTKJXZ5P'
p3072
(dp3073
g3
S'Hot Shade'
p3074
sg5
I5
sg6
S'https://open.spotify.com/track/69uCmYNvkqnvIpyTKJXZ5P'
p3075
sg8
S'Better'
p3076
ssS'6SUocL0caib4mLHe8ZrZzi'
p3077
(dp3078
g3
S'Rudimental'
p3079
sg5
I6
sg6
S'https://open.spotify.com/track/6SUocL0caib4mLHe8ZrZzi'
p3080
sg8
S'Sun Comes Up'
p3081
ssS'6UbwfQeAEzhnolDwXiPowY'
p3082
(dp3083
g3
S'Adolphson & Falk'
p3084
sg5
I1
sg6
S'https://open.spotify.com/track/6UbwfQeAEzhnolDwXiPowY'
p3085
sg8
S'Mer jul'
p3086
ssS'5yQHRt2jsjQdj0WNASwvKK'
p3087
(dp3088
g3
S'The Boy Next Door'
p3089
sg5
I2
sg6
S'https://open.spotify.com/track/5yQHRt2jsjQdj0WNASwvKK'
p3090
sg8
S'La Colegiala'
p3091
ssS'3d9JucRI60arArgQXqtfjJ'
p3092
(dp3093
g3
S'Alesso'
p3094
sg5
I5
sg6
S'https://open.spotify.com/track/3d9JucRI60arArgQXqtfjJ'
p3095
sg8
S'Falling'
p3096
ssS'4q1WaJZoHTtojqDHX8QvaC'
p3097
(dp3098
g3
S'VAX'
p3099
sg5
I5
sg6
S'https://open.spotify.com/track/4q1WaJZoHTtojqDHX8QvaC'
p3100
sg8
S'Fireproof'
p3101
ssS'32DGGj6KlNuBr6WaqRxpxi'
p3102
(dp3103
g3
S'Charlie Puth'
p3104
sg5
I1
sg6
S'https://open.spotify.com/track/32DGGj6KlNuBr6WaqRxpxi'
p3105
sg8
S'How Long'
p3106
ssS'1AfdWCYXaJHzHWsgGVkjhe'
p3107
(dp3108
g3
S'Snook'
p3109
sg5
I1
sg6
S'https://open.spotify.com/track/1AfdWCYXaJHzHWsgGVkjhe'
p3110
sg8
S'Mister Cool'
p3111
ssS'3rOSwuTsUlJp0Pu0MkN8r8'
p3112
(dp3113
g3
S'Future'
p3114
sg5
I33
sg6
S'https://open.spotify.com/track/3rOSwuTsUlJp0Pu0MkN8r8'
p3115
sg8
S'Mask Off'
p3116
ssS'6gpcs5eMhJwax4mIfKDYQk'
p3117
(dp3118
g3
S'Calvin Harris'
p3119
sg5
I4
sg6
S'https://open.spotify.com/track/6gpcs5eMhJwax4mIfKDYQk'
p3120
sg8
S'Slide'
p3121
ssS'5bcTCxgc7xVfSaMV3RuVke'
p3122
(dp3123
g3
S'Calvin Harris'
p3124
sg5
I16
sg6
S'https://open.spotify.com/track/5bcTCxgc7xVfSaMV3RuVke'
p3125
sg8
S'Feels'
p3126
ssS'0QsvXIfqM0zZoerQfsI9lm'
p3127
(dp3128
g3
S'The Chainsmokers'
p3129
sg5
I34
sg6
S'https://open.spotify.com/track/0QsvXIfqM0zZoerQfsI9lm'
p3130
sg8
S"Don't Let Me Down"
p3131
ssS'26VKwUgkXYyYzHCwDMmJTN'
p3132
(dp3133
g3
S'Jireel'
p3134
sg5
I18
sg6
S'https://open.spotify.com/track/26VKwUgkXYyYzHCwDMmJTN'
p3135
sg8
S'Snap'
p3136
ssS'0fioLzGM8ngbD1w6fMmm45'
p3137
(dp3138
g3
S'Sam Smith'
p3139
sg5
I1
sg6
S'https://open.spotify.com/track/0fioLzGM8ngbD1w6fMmm45'
p3140
sg8
S"I'm Not The Only One"
p3141
ssS'4qqArAiTPueDxIp7cf87h7'
p3142
(dp3143
g3
S'M\xc3\x98'
p3144
sg5
I5
sg6
S'https://open.spotify.com/track/4qqArAiTPueDxIp7cf87h7'
p3145
sg8
S'Final Song'
p3146
ssS'5hslUAKq9I9CG2bAulFkHN'
p3147
(dp3148
g3
S'Andy Williams'
p3149
sg5
I1
sg6
S'https://open.spotify.com/track/5hslUAKq9I9CG2bAulFkHN'
p3150
sg8
S"It's the Most Wonderful Time of the Year"
p3151
ssS'1gFZDb5kvPayobaRnCiytK'
p3152
(dp3153
g3
S'Norlie & KKV'
p3154
sg5
I2
sg6
S'https://open.spotify.com/track/1gFZDb5kvPayobaRnCiytK'
p3155
sg8
S'Din Idiot'
p3156
ssS'0rleRAsgvRKxBVf44lmcY7'
p3157
(dp3158
g3
S'Danny Saucedo'
p3159
sg5
I24
sg6
S'https://open.spotify.com/track/0rleRAsgvRKxBVf44lmcY7'
p3160
sg8
S'Snacket p\xc3\xa5 stan'
p3161
ssS'3a1lNhkSLSkpJE4MSHpDu9'
p3162
(dp3163
g3
S'Post Malone'
p3164
sg5
I34
sg6
S'https://open.spotify.com/track/3a1lNhkSLSkpJE4MSHpDu9'
p3165
sg8
S'Congratulations'
p3166
ssS'4uw3tHPjnriyikT4S3mXc2'
p3167
(dp3168
g3
S'NOTD'
p3169
sg5
I1
sg6
S'https://open.spotify.com/track/4uw3tHPjnriyikT4S3mXc2'
p3170
sg8
S'Summer Of Love'
p3171
ssS'1SZDQMXX1FrA97YY7Lt3Fj'
p3172
(dp3173
g3
S'Miriam Bryant'
p3174
sg5
I13
sg6
S'https://open.spotify.com/track/1SZDQMXX1FrA97YY7Lt3Fj'
p3175
sg8
S'Ett sista glas'
p3176
ssS'6yr8GiTHWvFfi4o6Q5ebdT'
p3177
(dp3178
g3
S'Eminem'
p3179
sg5
I18
sg6
S'https://open.spotify.com/track/6yr8GiTHWvFfi4o6Q5ebdT'
p3180
sg8
S"'Till I Collapse"
p3181
ssS'6wV12xIUb8oFY7lBy4KuQe'
p3182
(dp3183
g3
S'Aaron Carter'
p3184
sg5
I4
sg6
S'https://open.spotify.com/track/6wV12xIUb8oFY7lBy4KuQe'
p3185
sg8
S'Sooner Or Later'
p3186
ssS'7rklm17yoayxw45lpzv5uv'
p3187
(dp3188
g3
S'Petter'
p3189
sg5
I42
sg6
S'https://open.spotify.com/track/7rklm17yoayxw45lpzv5uv'
p3190
sg8
S'Se p\xc3\xa5 mig nu - Singelversion'
p3191
ssS'0wyTaLdr1Rc0tMPpMTPUWD'
p3192
(dp3193
g3
S'John De Sohn'
p3194
sg5
I7
sg6
S'https://open.spotify.com/track/0wyTaLdr1Rc0tMPpMTPUWD'
p3195
sg8
S'Standing When It All Falls Down - Official NiP Team Song'
p3196
ssS'2fkeWbM6iqTw7oGHTYm2lw'
p3197
(dp3198
g3
S'Drake'
p3199
sg5
I2
sg6
S'https://open.spotify.com/track/2fkeWbM6iqTw7oGHTYm2lw'
p3200
sg8
S'4422'
p3201
ssS'0ofbQMrRDsUaVKq2mGLEAb'
p3202
(dp3203
g3
S'Camila Cabello'
p3204
sg5
I10
sg6
S'https://open.spotify.com/track/0ofbQMrRDsUaVKq2mGLEAb'
p3205
sg8
S'Havana'
p3206
ssS'6I6NX6tjGsxFAsIfGzY9lJ'
p3207
(dp3208
g3
S'J. Cole'
p3209
sg5
I5
sg6
S'https://open.spotify.com/track/6I6NX6tjGsxFAsIfGzY9lJ'
p3210
sg8
S'Deja Vu'
p3211
ssS'4Zo33RKIwOIiVsZZtXsKU4'
p3212
(dp3213
g3
S'Bing Crosby'
p3214
sg5
I1
sg6
S'https://open.spotify.com/track/4Zo33RKIwOIiVsZZtXsKU4'
p3215
sg8
S'Twelve Days Of Christmas - Single Version'
p3216
ssS'6bLopGnirdrilrpdVB6Um1'
p3217
(dp3218
g3
S'Sia'
p3219
sg5
I2
sg6
S'https://open.spotify.com/track/6bLopGnirdrilrpdVB6Um1'
p3220
sg8
S'The Greatest'
p3221
ssS'5yuShbu70mtHXY0yLzCQLQ'
p3222
(dp3223
g3
S'Post Malone'
p3224
sg5
I15
sg6
S'https://open.spotify.com/track/5yuShbu70mtHXY0yLzCQLQ'
p3225
sg8
S'Go Flex'
p3226
ssS'4lgFAspCCj6QFU5Pk985kR'
p3227
(dp3228
g3
S'kent'
p3229
sg5
I1
sg6
S'https://open.spotify.com/track/4lgFAspCCj6QFU5Pk985kR'
p3230
sg8
S'F\xc3\xb6rl\xc3\xa5telsen'
p3231
ssS'1x5sYLZiu9r5E43kMlt9f8'
p3232
(dp3233
g3
S'Clean Bandit'
p3234
sg5
I30
sg6
S'https://open.spotify.com/track/1x5sYLZiu9r5E43kMlt9f8'
p3235
sg8
S'Symphony (feat. Zara Larsson)'
p3236
ssS'1vvNmPOiUuyCbgWmtc6yfm'
p3237
(dp3238
g3
S'Calvin Harris'
p3239
sg5
I10
sg6
S'https://open.spotify.com/track/1vvNmPOiUuyCbgWmtc6yfm'
p3240
sg8
S'My Way'
p3241
ssS'1yQ8woSt5tJ7pGJyQGuc2q'
p3242
(dp3243
g3
S'Zara Larsson'
p3244
sg5
I3
sg6
S'https://open.spotify.com/track/1yQ8woSt5tJ7pGJyQGuc2q'
p3245
sg8
S'Sundown'
p3246
ssS'7DQXiMeLqiQsy1uqHSk0xc'
p3247
(dp3248
g3
S'Shawn Hook'
p3249
sg5
I1
sg6
S'https://open.spotify.com/track/7DQXiMeLqiQsy1uqHSk0xc'
p3250
sg8
S'Reminding Me'
p3251
ssS'0CcQNd8CINkwQfe1RDtGV6'
p3252
(dp3253
g3
S'Imagine Dragons'
p3254
sg5
I33
sg6
S'https://open.spotify.com/track/0CcQNd8CINkwQfe1RDtGV6'
p3255
sg8
S'Believer'
p3256
ssS'4WrS6vezaPwOafKJmHqMEU'
p3257
(dp3258
g3
S'Jax Jones'
p3259
sg5
I1
sg6
S'https://open.spotify.com/track/4WrS6vezaPwOafKJmHqMEU'
p3260
sg8
S"You Don't Know Me - Radio Edit"
p3261
ssS'4JqJofEjChNytY6MMTJsi7'
p3262
(dp3263
g3
S'Hearts & Colors'
p3264
sg5
I3
sg6
S'https://open.spotify.com/track/4JqJofEjChNytY6MMTJsi7'
p3265
sg8
S'Shame'
p3266
ssS'5xMzazov0IHYllrc8U2K6F'
p3267
(dp3268
g3
S'Jennifer Lopez'
p3269
sg5
I1
sg6
S'https://open.spotify.com/track/5xMzazov0IHYllrc8U2K6F'
p3270
sg8
S'Ni T\xc3\xba Ni Yo'
p3271
ssS'5KyH1Ee4owGW96o8AhTJxb'
p3272
(dp3273
g3
S'Blizzy'
p3274
sg5
I1
sg6
S'https://open.spotify.com/track/5KyH1Ee4owGW96o8AhTJxb'
p3275
sg8
S'Bad girl'
p3276
ssS'0afhq8XCExXpqazXczTSve'
p3277
(dp3278
g3
S'Ed Sheeran'
p3279
sg5
I32
sg6
S'https://open.spotify.com/track/0afhq8XCExXpqazXczTSve'
p3280
sg8
S'Galway Girl'
p3281
ssS'1AJQ97yAt6xfeF7nQaE1t8'
p3282
(dp3283
g3
S'Imagine Dragons'
p3284
sg5
I1
sg6
S'https://open.spotify.com/track/1AJQ97yAt6xfeF7nQaE1t8'
p3285
sg8
S'Walking The Wire'
p3286
ssS'2ZE3DJuizYTad2S4CvRRhK'
p3287
(dp3288
g3
S'Lauv'
p3289
sg5
I1
sg6
S'https://open.spotify.com/track/2ZE3DJuizYTad2S4CvRRhK'
p3290
sg8
S'Easy Love'
p3291
ssS'0vbGtjxIN6Baztc9geaAEG'
p3292
(dp3293
g3
S'Icona Pop'
p3294
sg5
I10
sg6
S'https://open.spotify.com/track/0vbGtjxIN6Baztc9geaAEG'
p3295
sg8
S'GIRLS GIRLS'
p3296
ssS'2W7tzqjAPXG97RthXx6pNR'
p3297
(dp3298
g3
S'Tomas Ledin'
p3299
sg5
I1
sg6
S'https://open.spotify.com/track/2W7tzqjAPXG97RthXx6pNR'
p3300
sg8
S'Sommaren \xc3\xa4r kort'
p3301
ssS'1h3vEdVj2BPSt5bA5tMAyn'
p3302
(dp3303
g3
S'Thomas Sekelius'
p3304
sg5
I1
sg6
S'https://open.spotify.com/track/1h3vEdVj2BPSt5bA5tMAyn'
p3305
sg8
S'One More in the Crowd'
p3306
ssS'1NDxZ7cFAo481dtYWdrUnR'
p3307
(dp3308
g3
S'Maggie Lindemann'
p3309
sg5
I28
sg6
S'https://open.spotify.com/track/1NDxZ7cFAo481dtYWdrUnR'
p3310
sg8
S'Pretty Girl - Cheat Codes X CADE Remix'
p3311
ssS'2aFiaMXmWsM3Vj72F9ksBl'
p3312
(dp3313
g3
S'DNCE'
p3314
sg5
I1
sg6
S'https://open.spotify.com/track/2aFiaMXmWsM3Vj72F9ksBl'
p3315
sg8
S'Cake By The Ocean'
p3316
ssS'152lZdxL1OR0ZMW6KquMif'
p3317
(dp3318
g3
S'Khalid'
p3319
sg5
I24
sg6
S'https://open.spotify.com/track/152lZdxL1OR0ZMW6KquMif'
p3320
sg8
S'Location'
p3321
ssS'4XuK9jJP3mpYBq5qf68vfF'
p3322
(dp3323
g3
S'Julie Bergan'
p3324
sg5
I9
sg6
S'https://open.spotify.com/track/4XuK9jJP3mpYBq5qf68vfF'
p3325
sg8
S'Arigato'
p3326
ssS'4TZy1wLyHec06pwgFYDh1a'
p3327
(dp3328
g3
S'Shawn Mendes'
p3329
sg5
I29
sg6
S'https://open.spotify.com/track/4TZy1wLyHec06pwgFYDh1a'
p3330
sg8
S'Mercy'
p3331
ssS'4ofJfEEpdRojamBiNRrc1P'
p3332
(dp3333
g3
S'KIDDO'
p3334
sg5
I1
sg6
S'https://open.spotify.com/track/4ofJfEEpdRojamBiNRrc1P'
p3335
sg8
S'A Little Longer'
p3336
ssS'164C9bSF4ryqWXI4XgxTE0'
p3337
(dp3338
g3
S'Davai'
p3339
sg5
I7
sg6
S'https://open.spotify.com/track/164C9bSF4ryqWXI4XgxTE0'
p3340
sg8
S'Replay'
p3341
ssS'7gSpmvpI5iyMw7gRCLPwoA'
p3342
(dp3343
g3
S'Laleh'
p3344
sg5
I1
sg6
S'https://open.spotify.com/track/7gSpmvpI5iyMw7gRCLPwoA'
p3345
sg8
S'Aldrig Bli Som F\xc3\xb6rr'
p3346
ssS'6EcTjceNc3WhEqrWzXIFwA'
p3347
(dp3348
g3
S'Hkeem'
p3349
sg5
I16
sg6
S'https://open.spotify.com/track/6EcTjceNc3WhEqrWzXIFwA'
p3350
sg8
S'Fy faen'
p3351
ssS'3VRk65lHSwqd90TAkQqhvB'
p3352
(dp3353
g3
S'Katy Perry'
p3354
sg5
I2
sg6
S'https://open.spotify.com/track/3VRk65lHSwqd90TAkQqhvB'
p3355
sg8
S'Swish Swish'
p3356
ssS'3RXkboS74UYzN14xTqzPyY'
p3357
(dp3358
g3
g1367
sg5
I1
sg6
S'https://open.spotify.com/track/3RXkboS74UYzN14xTqzPyY'
p3359
sg8
g1367
ssS'4Q3N4Ct4zCuIHuZ65E3BD4'
p3360
(dp3361
g3
S'Kodak Black'
p3362
sg5
I2
sg6
S'https://open.spotify.com/track/4Q3N4Ct4zCuIHuZ65E3BD4'
p3363
sg8
S'Tunnel Vision'
p3364
ssS'2CKFFnG21nC5ssngZV8Yi5'
p3365
(dp3366
g3
S'Anton Hagman'
p3367
sg5
I12
sg6
S'https://open.spotify.com/track/2CKFFnG21nC5ssngZV8Yi5'
p3368
sg8
S'Kiss You Goodbye'
p3369
ssS'4oUfwAQJZGPufJHHzUNByB'
p3370
(dp3371
g3
S'ABBA'
p3372
sg5
I2
sg6
S'https://open.spotify.com/track/4oUfwAQJZGPufJHHzUNByB'
p3373
sg8
S'Happy New Year'
p3374
ssS'0HEmnAUT8PHznIAAmVXqFJ'
p3375
(dp3376
g3
S'George Michael'
p3377
sg5
I1
sg6
S'https://open.spotify.com/track/0HEmnAUT8PHznIAAmVXqFJ'
p3378
sg8
S'Faith - Remastered'
p3379
ssS'6cfGXm5yLVqqh8OgyoUlJo'
p3380
(dp3381
g3
S'Hov1'
p3382
sg5
I37
sg6
S'https://open.spotify.com/track/6cfGXm5yLVqqh8OgyoUlJo'
p3383
sg8
S'Gr\xc3\xa5zon'
p3384
ssS'2DQHzXM5eKjunrgtcnsefC'
p3385
(dp3386
g3
S'Julie Bergan'
p3387
sg5
I1
sg6
S'https://open.spotify.com/track/2DQHzXM5eKjunrgtcnsefC'
p3388
sg8
S'Blackout'
p3389
ssS'1gY7gzJEDub8cACXFKYA9D'
p3390
(dp3391
g3
S'Molly Sand\xc3\xa9n'
p3392
sg5
I1
sg6
S'https://open.spotify.com/track/1gY7gzJEDub8cACXFKYA9D'
p3393
sg8
S'Rygg mot rygg - Akustisk liveversion'
p3394
ssS'7HGHhLbAklVxGkYdwyeVML'
p3395
(dp3396
g3
S'Vigiland'
p3397
sg5
I24
sg6
S'https://open.spotify.com/track/7HGHhLbAklVxGkYdwyeVML'
p3398
sg8
S'Friday Night'
p3399
ssS'3cNjgVBKTJ1SvKhunrCdVy'
p3400
(dp3401
g3
S'Joel Adams'
p3402
sg5
I17
sg6
S'https://open.spotify.com/track/3cNjgVBKTJ1SvKhunrCdVy'
p3403
sg8
S"Please Don't Go"
p3404
ssS'6iZTQ7OJ0B4Z4Lij5o7Ub0'
p3405
(dp3406
g3
S'Tove Styrke'
p3407
sg5
I2
sg6
S'https://open.spotify.com/track/6iZTQ7OJ0B4Z4Lij5o7Ub0'
p3408
sg8
S'Say My Name'
p3409
ssS'6OuV4vfyb8v3vGGGksqyKf'
p3410
(dp3411
g3
S'AJR'
p3412
sg5
I2
sg6
S'https://open.spotify.com/track/6OuV4vfyb8v3vGGGksqyKf'
p3413
sg8
S'Weak'
p3414
ssS'6tqV3r11AD8w5nrpyLtsxo'
p3415
(dp3416
g3
S'Lamix'
p3417
sg5
I18
sg6
S'https://open.spotify.com/track/6tqV3r11AD8w5nrpyLtsxo'
p3418
sg8
S'Hey Baby'
p3419
ssS'4Q4jmPHwu0wrJvqrld0FQ6'
p3420
(dp3421
g3
S'Zara Larsson'
p3422
sg5
I25
sg6
S'https://open.spotify.com/track/4Q4jmPHwu0wrJvqrld0FQ6'
p3423
sg8
S'I Would Like'
p3424
ssS'4fyBFOYrtF6hGzZXtDCega'
p3425
(dp3426
g3
S'James Arthur'
p3427
sg5
I1
sg6
S'https://open.spotify.com/track/4fyBFOYrtF6hGzZXtDCega'
p3428
sg8
S'Safe Inside - Mark McCabe Remix'
p3429
ssS'7129iqBafaphfc3WPCGC0L'
p3430
(dp3431
g3
S'Lukas Graham'
p3432
sg5
I19
sg6
S'https://open.spotify.com/track/7129iqBafaphfc3WPCGC0L'
p3433
sg8
S'7 Years'
p3434
ssS'5aspgVO0MxLbOWLxKMCqio'
p3435
(dp3436
g3
S'Kilian & Jo'
p3437
sg5
I1
sg6
S'https://open.spotify.com/track/5aspgVO0MxLbOWLxKMCqio'
p3438
sg8
S'Suburbia'
p3439
ssS'3Db8OhBMmNPLv2rHYoP7Wf'
p3440
(dp3441
g3
S'John Gibbons'
p3442
sg5
I2
sg6
S'https://open.spotify.com/track/3Db8OhBMmNPLv2rHYoP7Wf'
p3443
sg8
S'P.Y.T. (Pretty Young Thing)'
p3444
ssS'7yyRTcZmCiyzzJlNzGC9Ol'
p3445
(dp3446
g3
S'DRAM'
p3447
sg5
I3
sg6
S'https://open.spotify.com/track/7yyRTcZmCiyzzJlNzGC9Ol'
p3448
sg8
S'Broccoli (feat. Lil Yachty)'
p3449
ssS'5OYUtKjALXnNjXRwTVStCK'
p3450
(dp3451
g3
S'AronChupa'
p3452
sg5
I5
sg6
S'https://open.spotify.com/track/5OYUtKjALXnNjXRwTVStCK'
p3453
sg8
S'Llama In My Living Room'
p3454
ssS'3vcHPShfJAFP3TtAAsTHsV'
p3455
(dp3456
g3
S'Sunstroke Project'
p3457
sg5
I13
sg6
S'https://open.spotify.com/track/3vcHPShfJAFP3TtAAsTHsV'
p3458
sg8
S'Hey Mamma - Radio Edit'
p3459
ssS'1lLuhJSggOEPVfSgfa9r2n'
p3460
(dp3461
g3
S'Lao Ra'
p3462
sg5
I1
sg6
S'https://open.spotify.com/track/1lLuhJSggOEPVfSgfa9r2n'
p3463
sg8
S'Body Bounce'
p3464
ssS'0r8cXiw1PpmJ41vKVuo8UE'
p3465
(dp3466
g3
S'kent'
p3467
sg5
I28
sg6
S'https://open.spotify.com/track/0r8cXiw1PpmJ41vKVuo8UE'
p3468
sg8
S'Utan dina andetag'
p3469
ssS'2Ae5awwKvQpTBKQHr1TYCg'
p3470
(dp3471
g3
S'Nause'
p3472
sg5
I28
sg6
S'https://open.spotify.com/track/2Ae5awwKvQpTBKQHr1TYCg'
p3473
sg8
S'Dynamite (feat. Pretty Sister)'
p3474
ssS'4ricyQVd20UQde1jpXCSuJ'
p3475
(dp3476
g3
S'Tony Bennett'
p3477
sg5
I1
sg6
S'https://open.spotify.com/track/4ricyQVd20UQde1jpXCSuJ'
p3478
sg8
S'Winter Wonderland'
p3479
ssS'2771LMNxwf62FTAdpJMQfM'
p3480
(dp3481
g3
S'Cardi B'
p3482
sg5
I8
sg6
S'https://open.spotify.com/track/2771LMNxwf62FTAdpJMQfM'
p3483
sg8
S'Bodak Yellow'
p3484
ssS'0kEhLZfyNSzEgrboEqJDrV'
p3485
(dp3486
g3
S'Dean Martin'
p3487
sg5
I1
sg6
S'https://open.spotify.com/track/0kEhLZfyNSzEgrboEqJDrV'
p3488
sg8
S'Jingle Bells - 1998 Digital Remaster'
p3489
ssS'6PCUP3dWmTjcTtXY02oFdT'
p3490
(dp3491
g3
S'Ed Sheeran'
p3492
sg5
I40
sg6
S'https://open.spotify.com/track/6PCUP3dWmTjcTtXY02oFdT'
p3493
sg8
S'Castle on the Hill'
p3494
ssS'6oBq2geg1LugUiisAzYTDE'
p3495
(dp3496
g3
S'Jireel'
p3497
sg5
I3
sg6
S'https://open.spotify.com/track/6oBq2geg1LugUiisAzYTDE'
p3498
sg8
S'Cataleya - Spirello Remix'
p3499
ssS'6SwRhMLwNqEi6alNPVG00n'
p3500
(dp3501
g3
S'Kendrick Lamar'
p3502
sg5
I5
sg6
S'https://open.spotify.com/track/6SwRhMLwNqEi6alNPVG00n'
p3503
sg8
S'LOYALTY. FEAT. RIHANNA.'
p3504
ssS'2JjYLNDThj8rm8W5m1blwV'
p3505
(dp3506
g3
S'LIAMOO'
p3507
sg5
I8
sg6
S'https://open.spotify.com/track/2JjYLNDThj8rm8W5m1blwV'
p3508
sg8
S'Playing With Fire'
p3509
ssS'5pvVAwQbuFoR7LkcicrKnk'
p3510
(dp3511
g3
S'Vice'
p3512
sg5
I8
sg6
S'https://open.spotify.com/track/5pvVAwQbuFoR7LkcicrKnk'
p3513
sg8
S'Obsession (feat. Jon Bellion)'
p3514
ssS'5ev0Z2lFzmhjlQCWpRAWiG'
p3515
(dp3516
g3
S'Sigala'
p3517
sg5
I7
sg6
S'https://open.spotify.com/track/5ev0Z2lFzmhjlQCWpRAWiG'
p3518
sg8
S'Only One - Radio Edit'
p3519
ssS'2FnUyLhe7sjXgnZlK9sc0z'
p3520
(dp3521
g3
S'Laleh'
p3522
sg5
I42
sg6
S'https://open.spotify.com/track/2FnUyLhe7sjXgnZlK9sc0z'
p3523
sg8
S'Bara F\xc3\xa5 Va Mig Sj\xc3\xa4lv'
p3524
ssS'5mMchLiMiVmZETS4sp0Yfk'
p3525
(dp3526
g3
S'Zara Larsson'
p3527
sg5
I1
sg6
S'https://open.spotify.com/track/5mMchLiMiVmZETS4sp0Yfk'
p3528
sg8
S'Only You - KREAM Remix'
p3529
ssS'2CvOqDpQIMw69cCzWqr5yr'
p3530
(dp3531
g3
S'Beyonc\xc3\xa9'
p3532
sg5
I4
sg6
S'https://open.spotify.com/track/2CvOqDpQIMw69cCzWqr5yr'
p3533
sg8
S'Halo'
p3534
ssS'68jkh9nqSjpmRtkkA9f0ld'
p3535
(dp3536
g3
S'Samir & Viktor'
p3537
sg5
I23
sg6
S'https://open.spotify.com/track/68jkh9nqSjpmRtkkA9f0ld'
p3538
sg8
S'Bada nakna'
p3539
ssS'7Dgju7iB9XTjAxHBkRWoEX'
p3540
(dp3541
g3
S'Dinah Nah'
p3542
sg5
I7
sg6
S'https://open.spotify.com/track/7Dgju7iB9XTjAxHBkRWoEX'
p3543
sg8
S'One More Night'
p3544
ssS'2mmivOje18ZuxkoRmNW3Ig'
p3545
(dp3546
g3
S'Seinabo Sey'
p3547
sg5
I1
sg6
S'https://open.spotify.com/track/2mmivOje18ZuxkoRmNW3Ig'
p3548
sg8
S'Still - Charming Horses Remix'
p3549
ssS'3bXntWHHOFwLdY3u0NnthP'
p3550
(dp3551
g3
S'Norlie & KKV'
p3552
sg5
I39
sg6
S'https://open.spotify.com/track/3bXntWHHOFwLdY3u0NnthP'
p3553
sg8
S'Din Idiot'
p3554
ssS'3UNxQRqZuyN9s4YKlPW8qz'
p3555
(dp3556
g3
S'Sebastian Stakset'
p3557
sg5
I3
sg6
S'https://open.spotify.com/track/3UNxQRqZuyN9s4YKlPW8qz'
p3558
sg8
S'Jag vill ge dig allt'
p3559
ssS'5ZMviM6vjWp1QEfx5KRESP'
p3560
(dp3561
g3
S'Cherrie'
p3562
sg5
I2
sg6
S'https://open.spotify.com/track/5ZMviM6vjWp1QEfx5KRESP'
p3563
sg8
S'163 F\xc3\xb6r Evigt'
p3564
ssS'7KOlJ92bu51cltsD9KU5I7'
p3565
(dp3566
g3
S'Migos'
p3567
sg5
I3
sg6
S'https://open.spotify.com/track/7KOlJ92bu51cltsD9KU5I7'
p3568
sg8
S'T-Shirt'
p3569
ssS'0D8ZpOXVjapLXrjz5VfZSD'
p3570
(dp3571
g3
S'Sam Smith'
p3572
sg5
I1
sg6
S'https://open.spotify.com/track/0D8ZpOXVjapLXrjz5VfZSD'
p3573
sg8
S'Pray'
p3574
ssS'1My0Hfu5dTCbYisBk9ZRGr'
p3575
(dp3576
g3
S'Galantis'
p3577
sg5
I4
sg6
S'https://open.spotify.com/track/1My0Hfu5dTCbYisBk9ZRGr'
p3578
sg8
S'Hunter'
p3579
ssS'3m660poUr1chesgkkjQM7P'
p3580
(dp3581
g3
S'Demi Lovato'
p3582
sg5
I2
sg6
S'https://open.spotify.com/track/3m660poUr1chesgkkjQM7P'
p3583
sg8
S'Sorry Not Sorry'
p3584
ssS'3SGWp9fJCzgK0WcpcKSQdy'
p3585
(dp3586
g3
S'Stanaj'
p3587
sg5
I8
sg6
S'https://open.spotify.com/track/3SGWp9fJCzgK0WcpcKSQdy'
p3588
sg8
S'Romantic - NOTD Remix'
p3589
ssS'2Vhd5uZB4brKHmM0MNxkZo'
p3590
(dp3591
g3
S'Kygo'
p3592
sg5
I3
sg6
S'https://open.spotify.com/track/2Vhd5uZB4brKHmM0MNxkZo'
p3593
sg8
S'Raging'
p3594
ssS'0xG0SHshCStMEyNbNC5d4k'
p3595
(dp3596
g3
S'Julia Michaels'
p3597
sg5
I9
sg6
S'https://open.spotify.com/track/0xG0SHshCStMEyNbNC5d4k'
p3598
sg8
S'Issues'
p3599
ssS'3ebXMykcMXOcLeJ9xZ17XH'
p3600
(dp3601
g3
S'Martin Garrix'
p3602
sg5
I37
sg6
S'https://open.spotify.com/track/3ebXMykcMXOcLeJ9xZ17XH'
p3603
sg8
S'Scared to Be Lonely'
p3604
ssS'6fujklziTHa8uoM5OQSfIo'
p3605
(dp3606
g3
S'Rae Sremmurd'
p3607
sg5
I14
sg6
S'https://open.spotify.com/track/6fujklziTHa8uoM5OQSfIo'
p3608
sg8
S'Black Beatles'
p3609
ssS'19WjVVgXjdKXfLXoaDPwTM'
p3610
(dp3611
g3
S'Taylor Swift'
p3612
sg5
I5
sg6
S'https://open.spotify.com/track/19WjVVgXjdKXfLXoaDPwTM'
p3613
sg8
S'...Ready For It?'
p3614
ssS'6UjfByV1lDLW0SOVQA4NAi'
p3615
(dp3616
g3
S'Drake'
p3617
sg5
I3
sg6
S'https://open.spotify.com/track/6UjfByV1lDLW0SOVQA4NAi'
p3618
sg8
S'Gyalchester'
p3619
ssS'0tKcYR2II1VCQWT79i5NrW'
p3620
(dp3621
g3
S'Imagine Dragons'
p3622
sg5
I21
sg6
S'https://open.spotify.com/track/0tKcYR2II1VCQWT79i5NrW'
p3623
sg8
S'Thunder'
p3624
ssS'6r2BFEIErNwG0owW4rOQB8'
p3625
(dp3626
g3
S'Coldplay'
p3627
sg5
I7
sg6
S'https://open.spotify.com/track/6r2BFEIErNwG0owW4rOQB8'
p3628
sg8
S'Everglow - Single Version'
p3629
ssS'1iypPJIDylRHI2Ci6aD2uV'
p3630
(dp3631
g3
S'Joakim Lundell'
p3632
sg5
I1
sg6
S'https://open.spotify.com/track/1iypPJIDylRHI2Ci6aD2uV'
p3633
sg8
S'All I Need - Acoustic Version'
p3634
ssS'3UCb1RY3m6LZfF4bkxU8g3'
p3635
(dp3636
g3
S'NONONO'
p3637
sg5
I1
sg6
S'https://open.spotify.com/track/3UCb1RY3m6LZfF4bkxU8g3'
p3638
sg8
S'Masterpiece'
p3639
ssS'0tLIHRIPpTrauBK0O1XmtR'
p3640
(dp3641
g3
S'Sandro Cavazza'
p3642
sg5
I1
sg6
S'https://open.spotify.com/track/0tLIHRIPpTrauBK0O1XmtR'
p3643
sg8
S"Don't Hold Me"
p3644
ssS'6CfrYuD3YRDYdYvH9jNtXY'
p3645
(dp3646
g3
S'Drake'
p3647
sg5
I2
sg6
S'https://open.spotify.com/track/6CfrYuD3YRDYdYvH9jNtXY'
p3648
sg8
S'No Long Talk'
p3649
ssS'2ApQPcuuLINcWRNESDCV5Z'
p3650
(dp3651
g3
S'Erik Rapp'
p3652
sg5
I1
sg6
S'https://open.spotify.com/track/2ApQPcuuLINcWRNESDCV5Z'
p3653
sg8
S'No Reason'
p3654
ssS'1XRTXNP8eLpWXfso8Q4dC5'
p3655
(dp3656
g3
S'Mike Perry'
p3657
sg5
I32
sg6
S'https://open.spotify.com/track/1XRTXNP8eLpWXfso8Q4dC5'
p3658
sg8
S'Talk About It'
p3659
ssS'3JA8IZsJMtUvk45rO37kUD'
p3660
(dp3661
g3
S'Parham'
p3662
sg5
I1
sg6
S'https://open.spotify.com/track/3JA8IZsJMtUvk45rO37kUD'
p3663
sg8
S'Allting med dig'
p3664
ssS'7aiVBCp1ibIWE5GeHkbtxr'
p3665
(dp3666
g3
S'Britney Spears'
p3667
sg5
I1
sg6
S'https://open.spotify.com/track/7aiVBCp1ibIWE5GeHkbtxr'
p3668
sg8
S'My Only Wish (This Year)'
p3669
ssS'1lntL1cI2UIWlxjL5QiN8g'
p3670
(dp3671
g3
S'Lauv'
p3672
sg5
I17
sg6
S'https://open.spotify.com/track/1lntL1cI2UIWlxjL5QiN8g'
p3673
sg8
S'The Other'
p3674
ssS'02WacdrRpm4zlP8H7X6bnQ'
p3675
(dp3676
g3
S'Calum Scott'
p3677
sg5
I27
sg6
S'https://open.spotify.com/track/02WacdrRpm4zlP8H7X6bnQ'
p3678
sg8
S'Dancing On My Own'
p3679
ssS'1mDGDb2fUmUMdqV3tb8VKQ'
p3680
(dp3681
g3
S'Halsey'
p3682
sg5
I1
sg6
S'https://open.spotify.com/track/1mDGDb2fUmUMdqV3tb8VKQ'
p3683
sg8
S'Now Or Never'
p3684
ssS'3qaYuV5XZAwiOvGE91HhwS'
p3685
(dp3686
g3
S'Mike Perry'
p3687
sg5
I36
sg6
S'https://open.spotify.com/track/3qaYuV5XZAwiOvGE91HhwS'
p3688
sg8
S'Inside the Lines'
p3689
ssS'2HuMRW4PILLHwRb21oUhdO'
p3690
(dp3691
g3
S'Yasin'
p3692
sg5
I3
sg6
S'https://open.spotify.com/track/2HuMRW4PILLHwRb21oUhdO'
p3693
sg8
S'Trakten min'
p3694
ssS'0sZfuG1rArPovx9CdZ40vZ'
p3695
(dp3696
g3
S'Tove Styrke'
p3697
sg5
I4
sg6
S'https://open.spotify.com/track/0sZfuG1rArPovx9CdZ40vZ'
p3698
sg8
S'Mistakes'
p3699
ssS'1sBhJGPUKrdRycgKxve70v'
p3700
(dp3701
g3
S'Felix Jaehn'
p3702
sg5
I13
sg6
S'https://open.spotify.com/track/1sBhJGPUKrdRycgKxve70v'
p3703
sg8
S'Hot2Touch'
p3704
ssS'42NpUvd0I2kdIuMXX4nobE'
p3705
(dp3706
g3
S'Nick Jonas'
p3707
sg5
I1
sg6
S'https://open.spotify.com/track/42NpUvd0I2kdIuMXX4nobE'
p3708
sg8
S'Remember I Told You'
p3709
ssS'0K7Dd9DP6fvOl0mrlX0aUa'
p3710
(dp3711
g3
S'Galantis'
p3712
sg5
I1
sg6
S'https://open.spotify.com/track/0K7Dd9DP6fvOl0mrlX0aUa'
p3713
sg8
S'Rich Boy'
p3714
ssS'6OZh916QF8XNunWaP97WEZ'
p3715
(dp3716
g3
S'Jonas Blue'
p3717
sg5
I9
sg6
S'https://open.spotify.com/track/6OZh916QF8XNunWaP97WEZ'
p3718
sg8
S'Fast Car'
p3719
ssS'2rizacJSyD9S1IQUxUxnsK'
p3720
(dp3721
g3
S'The Chainsmokers'
p3722
sg5
I15
sg6
S'https://open.spotify.com/track/2rizacJSyD9S1IQUxUxnsK'
p3723
sg8
S'All We Know'
p3724
ssS'2FUkfqsCAFt58Ued9Dhd3C'
p3725
(dp3726
g3
S'Kapten R\xc3\xb6d'
p3727
sg5
I3
sg6
S'https://open.spotify.com/track/2FUkfqsCAFt58Ued9Dhd3C'
p3728
sg8
S'Rudeboy Love'
p3729
ssS'6RsWqX8zABZLhZydXxEFOm'
p3730
(dp3731
g3
S'The Weeknd'
p3732
sg5
I1
sg6
S'https://open.spotify.com/track/6RsWqX8zABZLhZydXxEFOm'
p3733
sg8
S"Can't Feel My Face"
p3734
ssS'79NlESqzFSW0hdBWgls4FX'
p3735
(dp3736
g3
S'Kesha'
p3737
sg5
I5
sg6
S'https://open.spotify.com/track/79NlESqzFSW0hdBWgls4FX'
p3738
sg8
S'Praying'
p3739
ssS'53HCk0K40gzfdHnz0yMNE0'
p3740
(dp3741
g3
S'De Vet Du'
p3742
sg5
I18
sg6
S'https://open.spotify.com/track/53HCk0K40gzfdHnz0yMNE0'
p3743
sg8
S'Road Trip'
p3744
ssS'1K2a8QcaPTDTZ1e4M0s8gQ'
p3745
(dp3746
g3
S'Tjuvjakt'
p3747
sg5
I34
sg6
S'https://open.spotify.com/track/1K2a8QcaPTDTZ1e4M0s8gQ'
p3748
sg8
S'Tandtr\xc3\xa5d'
p3749
ssS'3Cc3ssgsvdSaEbFT6KHBAv'
p3750
(dp3751
g3
S'HEDEGAARD'
p3752
sg5
I3
sg6
S'https://open.spotify.com/track/3Cc3ssgsvdSaEbFT6KHBAv'
p3753
sg8
S'That\xc2\xb4s Me'
p3754
ssS'45OfR7ugJMgbFDuNOVpIq3'
p3755
(dp3756
g3
S'Matoma'
p3757
sg5
I16
sg6
S'https://open.spotify.com/track/45OfR7ugJMgbFDuNOVpIq3'
p3758
sg8
S'Party On The West Coast (feat. Snoop Dogg)'
p3759
ssS'6cAKeFFYW2aClZSUyvqAEW'
p3760
(dp3761
g3
S'Isaiah'
p3762
sg5
I40
sg6
S'https://open.spotify.com/track/6cAKeFFYW2aClZSUyvqAEW'
p3763
sg8
S"It's Gotta Be You"
p3764
ssS'26hcyzSE154xMZCbFdtInA'
p3765
(dp3766
g3
S'KREAM'
p3767
sg5
I6
sg6
S'https://open.spotify.com/track/26hcyzSE154xMZCbFdtInA'
p3768
sg8
S'Taped Up Heart (feat. Clara Mae)'
p3769
ssS'0B48113ZG9UfkWWt7qD9xX'
p3770
(dp3771
g3
S'Miley Cyrus'
p3772
sg5
I4
sg6
S'https://open.spotify.com/track/0B48113ZG9UfkWWt7qD9xX'
p3773
sg8
S'Younger Now'
p3774
ssS'5XQMr19TL7Mfksq9zihbOu'
p3775
(dp3776
g3
S'Chris Brown'
p3777
sg5
I8
sg6
S'https://open.spotify.com/track/5XQMr19TL7Mfksq9zihbOu'
p3778
sg8
S'Questions'
p3779
ssS'1hvpDAxZPKjKztOc72sv06'
p3780
(dp3781
g3
S'Band Aid'
p3782
sg5
I1
sg6
S'https://open.spotify.com/track/1hvpDAxZPKjKztOc72sv06'
p3783
sg8
S"Do They Know It's Christmas? - 1984 Version"
p3784
ssS'72Q0FQQo32KJloivv5xge2'
p3785
(dp3786
g3
S'DJ Khaled'
p3787
sg5
I3
sg6
S'https://open.spotify.com/track/72Q0FQQo32KJloivv5xge2'
p3788
sg8
S"I'm the One"
p3789
ssS'2o6FVF216wxf8D6QBSKQ4n'
p3790
(dp3791
g3
S'Den svenska bj\xc3\xb6rnstammen'
p3792
sg5
I1
sg6
S'https://open.spotify.com/track/2o6FVF216wxf8D6QBSKQ4n'
p3793
sg8
S'F\xc3\xb6rlorare utan chans'
p3794
ssS'49EgauTc1cGkHwPGCaHh1f'
p3795
(dp3796
g3
S'Lil Yachty'
p3797
sg5
I1
sg6
S'https://open.spotify.com/track/49EgauTc1cGkHwPGCaHh1f'
p3798
sg8
S'Better'
p3799
ssS'0hNduWmlWmEmuwEFcYvRu1'
p3800
(dp3801
g3
S'Petit Biscuit'
p3802
sg5
I25
sg6
S'https://open.spotify.com/track/0hNduWmlWmEmuwEFcYvRu1'
p3803
sg8
S'Sunset Lover'
p3804
ssS'4j6xtutAW62JXJemFchwyG'
p3805
(dp3806
g3
S'Miriam Bryant'
p3807
sg5
I33
sg6
S'https://open.spotify.com/track/4j6xtutAW62JXJemFchwyG'
p3808
sg8
S'Black Car'
p3809
ssS'22XLejydTArtMDaGEVRRdX'
p3810
(dp3811
g3
S'Bella & Filippa'
p3812
sg5
I6
sg6
S'https://open.spotify.com/track/22XLejydTArtMDaGEVRRdX'
p3813
sg8
S'Crucified'
p3814
ssS'4Chq6k6Hmy2C4jjjtEr2BB'
p3815
(dp3816
g3
S'Gyllene Tider'
p3817
sg5
I2
sg6
S'https://open.spotify.com/track/4Chq6k6Hmy2C4jjjtEr2BB'
p3818
sg8
S'Ljudet av ett annat hj\xc3\xa4rta'
p3819
ssS'2rb5MvYT7ZIxbKW5hfcHx8'
p3820
(dp3821
g3
S'J Balvin'
p3822
sg5
I15
sg6
S'https://open.spotify.com/track/2rb5MvYT7ZIxbKW5hfcHx8'
p3823
sg8
S'Mi Gente'
p3824
ssS'1wWsJt1j7kgB7FwTMXFbAo'
p3825
(dp3826
g3
S'Samir & Viktor'
p3827
sg5
I16
sg6
S'https://open.spotify.com/track/1wWsJt1j7kgB7FwTMXFbAo'
p3828
sg8
S'Kung'
p3829
ssS'7El2vEmipKVcOo6thhhTzD'
p3830
(dp3831
g3
S'Clueless Swede'
p3832
sg5
I3
sg6
S'https://open.spotify.com/track/7El2vEmipKVcOo6thhhTzD'
p3833
sg8
S'Shurdaslakt'
p3834
ssS'5SE57ljOIUJ1ybL9U6CuBH'
p3835
(dp3836
g3
S'BTS'
p3837
sg5
I1
sg6
S'https://open.spotify.com/track/5SE57ljOIUJ1ybL9U6CuBH'
p3838
sg8
S'DNA'
p3839
ssS'6fTsxhIosAU6zXTAhSaemI'
p3840
(dp3841
g3
S'ALMA'
p3842
sg5
I2
sg6
S'https://open.spotify.com/track/6fTsxhIosAU6zXTAhSaemI'
p3843
sg8
S'Chasing Highs'
p3844
ssS'6520aj0B4FSKGVuKNsOCOi'
p3845
(dp3846
g3
S'Katy Perry'
p3847
sg5
I28
sg6
S'https://open.spotify.com/track/6520aj0B4FSKGVuKNsOCOi'
p3848
sg8
S'Chained To The Rhythm'
p3849
ssS'6imDZroB2WHIorvebEzKi3'
p3850
(dp3851
g3
S'Emil Asserg\xc3\xa5rd'
p3852
sg5
I5
sg6
S'https://open.spotify.com/track/6imDZroB2WHIorvebEzKi3'
p3853
sg8
S'Intima'
p3854
ssS'7oArXBmMlLCtZdUkXWQZGs'
p3855
(dp3856
g3
S'Zara Larsson'
p3857
sg5
I8
sg6
S'https://open.spotify.com/track/7oArXBmMlLCtZdUkXWQZGs'
p3858
sg8
S'One Mississippi'
p3859
ssS'3dNrN6aaJN6fellsTGqTAq'
p3860
(dp3861
g3
S'Ben Mitkus'
p3862
sg5
I1
sg6
S'https://open.spotify.com/track/3dNrN6aaJN6fellsTGqTAq'
p3863
sg8
S'Heartbreak Love Song'
p3864
ssS'22Q8pNJlSdfAU6LqitpSWo'
p3865
(dp3866
g3
S'Ansiktet'
p3867
sg5
I4
sg6
S'https://open.spotify.com/track/22Q8pNJlSdfAU6LqitpSWo'
p3868
sg8
S'En annan v\xc3\xa4g hem'
p3869
ssS'2HzfRSfCogBSsgW2CckVA2'
p3870
(dp3871
g3
S'Luke Christopher'
p3872
sg5
I1
sg6
S'https://open.spotify.com/track/2HzfRSfCogBSsgW2CckVA2'
p3873
sg8
S'Lot to Learn'
p3874
ssS'0FDzzruyVECATHXKHFs9eJ'
p3875
(dp3876
g3
S'Coldplay'
p3877
sg5
I1
sg6
S'https://open.spotify.com/track/0FDzzruyVECATHXKHFs9eJ'
p3878
sg8
S'A Sky Full of Stars'
p3879
ssS'4cGPWeCfoQTw7i0wqNRcjI'
p3880
(dp3881
g3
S'Tommy K\xc3\xb6rberg'
p3882
sg5
I1
sg6
S'https://open.spotify.com/track/4cGPWeCfoQTw7i0wqNRcjI'
p3883
sg8
S'Julen \xc3\xa4r h\xc3\xa4r'
p3884
ssS'3FDrI0FLKzrYQiWxPhqV2W'
p3885
(dp3886
g3
S'Calvin Harris'
p3887
sg5
I4
sg6
S'https://open.spotify.com/track/3FDrI0FLKzrYQiWxPhqV2W'
p3888
sg8
S'Rollin'
p3889
ssS'2Dn9vUjWCOJtoN688PZygE'
p3890
(dp3891
g3
S'Roger Pontare'
p3892
sg5
I5
sg6
S'https://open.spotify.com/track/2Dn9vUjWCOJtoN688PZygE'
p3893
sg8
S'Himmel och hav'
p3894
ssS'6SRnVRobwLtovI4JEWejDv'
p3895
(dp3896
g3
S'Galantis'
p3897
sg5
I3
sg6
S'https://open.spotify.com/track/6SRnVRobwLtovI4JEWejDv'
p3898
sg8
S'True Feeling'
p3899
ssS'6DNtNfH8hXkqOX1sjqmI7p'
p3900
(dp3901
g3
S'Major Lazer'
p3902
sg5
I22
sg6
S'https://open.spotify.com/track/6DNtNfH8hXkqOX1sjqmI7p'
p3903
sg8
S'Cold Water (feat. Justin Bieber & M\xc3\x98)'
p3904
ssS'6yf3MxEOScNBTYCHOAIiNQ'
p3905
(dp3906
g3
S'Jax Jones'
p3907
sg5
I1
sg6
S'https://open.spotify.com/track/6yf3MxEOScNBTYCHOAIiNQ'
p3908
sg8
S'Instruction (feat. Demi Lovato & Stefflon Don)'
p3909
ssS'5NNlUMcOEOdoOIwwaWXv0k'
p3910
(dp3911
g3
S'Maroon 5'
p3912
sg5
I16
sg6
S'https://open.spotify.com/track/5NNlUMcOEOdoOIwwaWXv0k'
p3913
sg8
S'Cold'
p3914
ssS'78mNkiUBAwHqjT0QOeEqqg'
p3915
(dp3916
g3
S'A R I Z O N A'
p3917
sg5
I1
sg6
S'https://open.spotify.com/track/78mNkiUBAwHqjT0QOeEqqg'
p3918
sg8
S'Oceans Away - Sam Feldt Remix'
p3919
ssS'3t0J8vI9StQD8KIBkT2Cp5'
p3920
(dp3921
g3
S'Alan Walker'
p3922
sg5
I2
sg6
S'https://open.spotify.com/track/3t0J8vI9StQD8KIBkT2Cp5'
p3923
sg8
S'Tired - Kygo Remix'
p3924
ssS'1sXUWdKx03aP9Gmzft58rt'
p3925
(dp3926
g3
S'Julia Michaels'
p3927
sg5
I28
sg6
S'https://open.spotify.com/track/1sXUWdKx03aP9Gmzft58rt'
p3928
sg8
S'Issues'
p3929
ssS'3QiAAp20rPC3dcAtKtMaqQ'
p3930
(dp3931
g3
S'Elvis Presley'
p3932
sg5
I1
sg6
S'https://open.spotify.com/track/3QiAAp20rPC3dcAtKtMaqQ'
p3933
sg8
S'Blue Christmas'
p3934
ssS'7IWkJwX9C0J7tHurTD7ViL'
p3935
(dp3936
g3
S'Adele'
p3937
sg5
I38
sg6
S'https://open.spotify.com/track/7IWkJwX9C0J7tHurTD7ViL'
p3938
sg8
S'When We Were Young'
p3939
ssS'585oJpOcH5ZK3h6dC7Wn50'
p3940
(dp3941
g3
S'Sarah Dawn Finer'
p3942
sg5
I1
sg6
S'https://open.spotify.com/track/585oJpOcH5ZK3h6dC7Wn50'
p3943
sg8
S'Vinterland'
p3944
ssS'4L7Y2OAPiY2I2GndZjAs5K'
p3945
(dp3946
g3
S'Lana Del Rey'
p3947
sg5
I1
sg6
S'https://open.spotify.com/track/4L7Y2OAPiY2I2GndZjAs5K'
p3948
sg8
S'Lust For Life (with The Weeknd)'
p3949
ssS'14oOKFGuXu8DqvOe1W8vao'
p3950
(dp3951
g3
S'Katy Perry'
p3952
sg5
I2
sg6
S'https://open.spotify.com/track/14oOKFGuXu8DqvOe1W8vao'
p3953
sg8
S'Bon App\xc3\xa9tit'
p3954
ssS'1rudppuYTKpVCtWoocDiS1'
p3955
(dp3956
g3
S'Ulf Lundell'
p3957
sg5
I1
sg6
S'https://open.spotify.com/track/1rudppuYTKpVCtWoocDiS1'
p3958
sg8
S'\xc3\x96ppna landskap'
p3959
ssS'4BHSjbYylfOH5WAGusDyni'
p3960
(dp3961
g3
S'Kendrick Lamar'
p3962
sg5
I2
sg6
S'https://open.spotify.com/track/4BHSjbYylfOH5WAGusDyni'
p3963
sg8
S'YAH.'
p3964
ssS'4uoumbAMEMaKdtiv763jKz'
p3965
(dp3966
g3
S'Zara Larsson'
p3967
sg5
I15
sg6
S'https://open.spotify.com/track/4uoumbAMEMaKdtiv763jKz'
p3968
sg8
S'TG4M'
p3969
ssS'2tFgv3sLFNc088KLtjxzVa'
p3970
(dp3971
g3
S'Gabrielle'
p3972
sg5
I31
sg6
S'https://open.spotify.com/track/2tFgv3sLFNc088KLtjxzVa'
p3973
sg8
S'5 fine fr\xc3\xb8kner'
p3974
ssS'1Pxo1dWDiJvy5xgLisONke'
p3975
(dp3976
g3
S'Ricky Rich'
p3977
sg5
I1
sg6
S'https://open.spotify.com/track/1Pxo1dWDiJvy5xgLisONke'
p3978
sg8
S'Habibi'
p3979
ssS'0zBCh8mPbjZSsaM5E3LXCh'
p3980
(dp3981
g3
S'Ronan Keating'
p3982
sg5
I1
sg6
S'https://open.spotify.com/track/0zBCh8mPbjZSsaM5E3LXCh'
p3983
sg8
S'Fairytale Of New York'
p3984
ssS'2ISl1zekPsc26sUQpVt8UB'
p3985
(dp3986
g3
S"Shakin' Stevens"
p3987
sg5
I1
sg6
S'https://open.spotify.com/track/2ISl1zekPsc26sUQpVt8UB'
p3988
sg8
S'Merry Christmas Everyone - Remastered'
p3989
ssS'2pJZ1v8HezrAoZ0Fhzby92'
p3990
(dp3991
g3
S'Ed Sheeran'
p3992
sg5
I14
sg6
S'https://open.spotify.com/track/2pJZ1v8HezrAoZ0Fhzby92'
p3993
sg8
S'What Do I Know?'
p3994
ssS'6y2Kaz9QI01XBKJ8mTb7Pf'
p3995
(dp3996
g3
S"Rag'n'Bone Man"
p3997
sg5
I10
sg6
S'https://open.spotify.com/track/6y2Kaz9QI01XBKJ8mTb7Pf'
p3998
sg8
S'Skin'
p3999
ssS'3v6cw7IEvWM4y7ewk2E52v'
p4000
(dp4001
g3
S'S\xc3\xa4kert!'
p4002
sg5
I1
sg6
S'https://open.spotify.com/track/3v6cw7IEvWM4y7ewk2E52v'
p4003
sg8
S'Kommer h\xc3\xa4nda'
p4004
ssS'1Slwb6dOYkBlWal1PGtnNg'
p4005
(dp4006
g3
S'Ed Sheeran'
p4007
sg5
I37
sg6
S'https://open.spotify.com/track/1Slwb6dOYkBlWal1PGtnNg'
p4008
sg8
S'Thinking Out Loud'
p4009
ssS'3kXqUXnukwkpsxhW8emNC0'
p4010
(dp4011
g3
S'Blanche'
p4012
sg5
I14
sg6
S'https://open.spotify.com/track/3kXqUXnukwkpsxhW8emNC0'
p4013
sg8
S'City Lights'
p4014
ssS'3zoYkqS4y2BsGVShPL2nTE'
p4015
(dp4016
g3
S'CNCO'
p4017
sg5
I1
sg6
S'https://open.spotify.com/track/3zoYkqS4y2BsGVShPL2nTE'
p4018
sg8
S'Reggaet\xc3\xb3n Lento (Remix) [CNCO & Little Mix]'
p4019
ssS'3B54sVLJ402zGa6Xm4YGNe'
p4020
(dp4021
g3
S'French Montana'
p4022
sg5
I14
sg6
S'https://open.spotify.com/track/3B54sVLJ402zGa6Xm4YGNe'
p4023
sg8
S'Unforgettable'
p4024
ssS'0ivYdbkBZnS18uZxNLHEhx'
p4025
(dp4026
g3
S'Norlie & KKV'
p4027
sg5
I2
sg6
S'https://open.spotify.com/track/0ivYdbkBZnS18uZxNLHEhx'
p4028
sg8
S'Ingen annan r\xc3\xb6r mig som du'
p4029
ssS'43ZyHQITOjhciSUUNPVRHc'
p4030
(dp4031
g3
S'Lil Pump'
p4032
sg5
I1
sg6
S'https://open.spotify.com/track/43ZyHQITOjhciSUUNPVRHc'
p4033
sg8
S'Gucci Gang'
p4034
ssS'6oDkCmfVcSd9NXAKk1b4Ll'
p4035
(dp4036
g3
S'Frans'
p4037
sg5
I6
sg6
S'https://open.spotify.com/track/6oDkCmfVcSd9NXAKk1b4Ll'
p4038
sg8
S'If I Were Sorry'
p4039
ssS'1MhHLLKSSwrY0l1QWJrmiu'
p4040
(dp4041
g3
S'Krista Siegfrids'
p4042
sg5
I3
sg6
S'https://open.spotify.com/track/1MhHLLKSSwrY0l1QWJrmiu'
p4043
sg8
S'Snurra min jord'
p4044
ssS'0oYOmiNt465aDweCIEDA6G'
p4045
(dp4046
g3
S'Magnus Carlson'
p4047
sg5
I11
sg6
S'https://open.spotify.com/track/0oYOmiNt465aDweCIEDA6G'
p4048
sg8
S'Eternal Love'
p4049
ssS'2habSXqcJGExM6JJyskY7O'
p4050
(dp4051
g3
S'Miley Cyrus'
p4052
sg5
I17
sg6
S'https://open.spotify.com/track/2habSXqcJGExM6JJyskY7O'
p4053
sg8
S'Malibu'
p4054
ssS'5Ua3GXyHwiSfpNTMjq6m2z'
p4055
(dp4056
g3
S'Little Mix'
p4057
sg5
I13
sg6
S'https://open.spotify.com/track/5Ua3GXyHwiSfpNTMjq6m2z'
p4058
sg8
S'Touch'
p4059
ssS'6i0V12jOa3mr6uu4WYhUBr'
p4060
(dp4061
g3
S'Twenty One Pilots'
p4062
sg5
I12
sg6
S'https://open.spotify.com/track/6i0V12jOa3mr6uu4WYhUBr'
p4063
sg8
S'Heathens'
p4064
ssS'2a5VluIESm1JP4Qwvo02H8'
p4065
(dp4066
g3
S'Jamie Lawson'
p4067
sg5
I8
sg6
S'https://open.spotify.com/track/2a5VluIESm1JP4Qwvo02H8'
p4068
sg8
S"Wasn't Expecting That"
p4069
ssS'6zQMbR8e1AQyRDmKUBxoz5'
p4070
(dp4071
g3
S'Marcus & Martinus'
p4072
sg5
I2
sg6
S'https://open.spotify.com/track/6zQMbR8e1AQyRDmKUBxoz5'
p4073
sg8
S'Make You Believe In Love'
p4074
ssS'2UK7DcbNI19uSSd6bEQEiM'
p4075
(dp4076
g3
S'State of Sound'
p4077
sg5
I2
sg6
S'https://open.spotify.com/track/2UK7DcbNI19uSSd6bEQEiM'
p4078
sg8
S'Love Me Like That'
p4079
ssS'5VIZcrKXPd9wL4hqE4YN8z'
p4080
(dp4081
g3
S'Wiktoria'
p4082
sg5
I33
sg6
S'https://open.spotify.com/track/5VIZcrKXPd9wL4hqE4YN8z'
p4083
sg8
S'As I Lay Me Down'
p4084
ssS'40UroIGvsMPLPBYwH8rMNA'
p4085
(dp4086
g3
S'Vice'
p4087
sg5
I8
sg6
S'https://open.spotify.com/track/40UroIGvsMPLPBYwH8rMNA'
p4088
sg8
S'Steady 1234 (feat. Jasmine Thompson & Skizzy Mars)'
p4089
ssS'5nA67Y0XX9JipZwYxX7Gl7'
p4090
(dp4091
g3
S'Niall Horan'
p4092
sg5
I34
sg6
S'https://open.spotify.com/track/5nA67Y0XX9JipZwYxX7Gl7'
p4093
sg8
S'This Town'
p4094
ssS'58tfkTsqH8WBp9QRXpVlBu'
p4095
(dp4096
g3
S'Miriam Bryant'
p4097
sg5
I23
sg6
S'https://open.spotify.com/track/58tfkTsqH8WBp9QRXpVlBu'
p4098
sg8
S'Rocket (feat. NEIKED)'
p4099
ssS'0SuG9kyzGRpDqrCWtgD6Lq'
p4100
(dp4101
g3
S'Ed Sheeran'
p4102
sg5
I1
sg6
S'https://open.spotify.com/track/0SuG9kyzGRpDqrCWtgD6Lq'
p4103
sg8
S'Give Me Love'
p4104
ssS'4chgBnYTuTMTytBrNhO6IO'
p4105
(dp4106
g3
S'Sofi Tukker'
p4107
sg5
I3
sg6
S'https://open.spotify.com/track/4chgBnYTuTMTytBrNhO6IO'
p4108
sg8
S'Fuck They'
p4109
ssS'4L2K7JKseFCBoHMZEAszW0'
p4110
(dp4111
g3
S'Labrinth'
p4112
sg5
I1
sg6
S'https://open.spotify.com/track/4L2K7JKseFCBoHMZEAszW0'
p4113
sg8
S'Jealous'
p4114
ssS'7pJ4iEOOwUEzO3m9Hh3Ojr'
p4115
(dp4116
g3
S'Jasmine Thompson'
p4117
sg5
I2
sg6
S'https://open.spotify.com/track/7pJ4iEOOwUEzO3m9Hh3Ojr'
p4118
sg8
S'Old Friends - Jonas Blue Remix'
p4119
ssS'7wiESxCGoUkRdgZF2JOLZu'
p4120
(dp4121
g3
S'Phil Spector'
p4122
sg5
I1
sg6
S'https://open.spotify.com/track/7wiESxCGoUkRdgZF2JOLZu'
p4123
sg8
S'Sleigh Ride'
p4124
ssS'7LgatCb8lCxHqaUOeyg2UV'
p4125
(dp4126
g3
S'JCY'
p4127
sg5
I2
sg6
S'https://open.spotify.com/track/7LgatCb8lCxHqaUOeyg2UV'
p4128
sg8
S'Thong Song (feat. Sisqo)'
p4129
ssS'2nLtzopw4rPReszdYBJU6h'
p4130
(dp4131
g3
S'Linkin Park'
p4132
sg5
I2
sg6
S'https://open.spotify.com/track/2nLtzopw4rPReszdYBJU6h'
p4133
sg8
S'Numb'
p4134
ssS'0V9cosR5jWa4fr2koARmhD'
p4135
(dp4136
g3
S'ItaloBrothers'
p4137
sg5
I5
sg6
S'https://open.spotify.com/track/0V9cosR5jWa4fr2koARmhD'
p4138
sg8
S'Summer Air'
p4139
ssS'6fxVffaTuwjgEk5h9QyRjy'
p4140
(dp4141
g3
S'Ed Sheeran'
p4142
sg5
I41
sg6
S'https://open.spotify.com/track/6fxVffaTuwjgEk5h9QyRjy'
p4143
sg8
S'Photograph'
p4144
ssS'0w5Bdu51Ka25Pf3hojsKHh'
p4145
(dp4146
g3
S'Paramore'
p4147
sg5
I1
sg6
S'https://open.spotify.com/track/0w5Bdu51Ka25Pf3hojsKHh'
p4148
sg8
S'Hard Times'
p4149
ssS'1YuSFOIqLm1AiihkxZPB2d'
p4150
(dp4151
g3
S'Lemaitre'
p4152
sg5
I2
sg6
S'https://open.spotify.com/track/1YuSFOIqLm1AiihkxZPB2d'
p4153
sg8
S'Closer'
p4154
ssS'5Ba9wvTCOui7xlPtwoUmaR'
p4155
(dp4156
g3
S'Mariette'
p4157
sg5
I9
sg6
S'https://open.spotify.com/track/5Ba9wvTCOui7xlPtwoUmaR'
p4158
sg8
S'A Million Years'
p4159
ssS'1VdZ0vKfR5jneCmWIUAMxK'
p4160
(dp4161
g3
S'Ed Sheeran'
p4162
sg5
I3
sg6
S'https://open.spotify.com/track/1VdZ0vKfR5jneCmWIUAMxK'
p4163
sg8
S'The A Team'
p4164
ssS'4JzThtmqvzoBORb8K0Sjyo'
p4165
(dp4166
g3
S'Th\xc3\xa5str\xc3\xb6m'
p4167
sg5
I1
sg6
S'https://open.spotify.com/track/4JzThtmqvzoBORb8K0Sjyo'
p4168
sg8
S'Bluesen i Malm\xc3\xb6'
p4169
ssS'1wur1SW656paPv7EyTqWu4'
p4170
(dp4171
g3
S'C\xc3\xa9line Dion'
p4172
sg5
I1
sg6
S'https://open.spotify.com/track/1wur1SW656paPv7EyTqWu4'
p4173
sg8
S'Happy Xmas (War Is Over)'
p4174
ssS'13e6f8t7RKXuxZ0JdaaJRG'
p4175
(dp4176
g3
S'Drake'
p4177
sg5
I2
sg6
S'https://open.spotify.com/track/13e6f8t7RKXuxZ0JdaaJRG'
p4178
sg8
S'Jorja Interlude'
p4179
ssS'6nxQdXa1uAL0rY72wPZu89'
p4180
(dp4181
g3
S'John Legend'
p4182
sg5
I10
sg6
S'https://open.spotify.com/track/6nxQdXa1uAL0rY72wPZu89'
p4183
sg8
S'Love Me Now'
p4184
ssS'6kex4EBAj0WHXDKZMEJaaF'
p4185
(dp4186
g3
S'Jason Derulo'
p4187
sg5
I33
sg6
S'https://open.spotify.com/track/6kex4EBAj0WHXDKZMEJaaF'
p4188
sg8
S'Swalla (feat. Nicki Minaj & Ty Dolla $ign)'
p4189
ssS'1s7voXUxRTw98pmy1J8urv'
p4190
(dp4191
g3
S'Mike Perry'
p4192
sg5
I1
sg6
S'https://open.spotify.com/track/1s7voXUxRTw98pmy1J8urv'
p4193
sg8
S'Hands'
p4194
ssS'15M6SHzRlL4uSdgRTQtH33'
p4195
(dp4196
g3
S'kent'
p4197
sg5
I2
sg6
S'https://open.spotify.com/track/15M6SHzRlL4uSdgRTQtH33'
p4198
sg8
S'La Belle Epoque'
p4199
ssS'3Xtm3bkEwlrZidgBqTYtjq'
p4200
(dp4201
g3
S'LVNDSCAPE'
p4202
sg5
I3
sg6
S'https://open.spotify.com/track/3Xtm3bkEwlrZidgBqTYtjq'
p4203
sg8
S'Walk Away'
p4204
ssS'2jfCy43LsFbCQoB6HyetlY'
p4205
(dp4206
g3
S'SJUR'
p4207
sg5
I12
sg6
S'https://open.spotify.com/track/2jfCy43LsFbCQoB6HyetlY'
p4208
sg8
S'Let Me Love You'
p4209
ssS'1gbuH3d1hJpFAwf36eCCIE'
p4210
(dp4211
g3
S'Nause'
p4212
sg5
I1
sg6
S'https://open.spotify.com/track/1gbuH3d1hJpFAwf36eCCIE'
p4213
sg8
S'Summer Hangover'
p4214
ssS'54LGxQGf5LPXNGjtzDZ5IE'
p4215
(dp4216
g3
S'Zara Larsson'
p4217
sg5
I17
sg6
S'https://open.spotify.com/track/54LGxQGf5LPXNGjtzDZ5IE'
p4218
sg8
S'So Good'
p4219
ssS'08WPvDEsHvTFuB9w8tC2OS'
p4220
(dp4221
g3
S'Sage The Gemini'
p4222
sg5
I1
sg6
S'https://open.spotify.com/track/08WPvDEsHvTFuB9w8tC2OS'
p4223
sg8
S'Now and Later'
p4224
ssS'6tIMAJsJ6HlzdygffqWJwy'
p4225
(dp4226
g3
S'Hov1'
p4227
sg5
I4
sg6
S'https://open.spotify.com/track/6tIMAJsJ6HlzdygffqWJwy'
p4228
sg8
S'Runaway Bride'
p4229
ssS'7M4pAbgcKPAelcZxsUPPwE'
p4230
(dp4231
g3
S'Darin'
p4232
sg5
I4
sg6
S'https://open.spotify.com/track/7M4pAbgcKPAelcZxsUPPwE'
p4233
sg8
S'Tvillingen'
p4234
ssS'7qA8S7mbV9uPy9rFprdN3C'
p4235
(dp4236
g3
S'Laleh'
p4237
sg5
I36
sg6
S'https://open.spotify.com/track/7qA8S7mbV9uPy9rFprdN3C'
p4238
sg8
S'Goliat'
p4239
ssS'6eGMMPRVYzpssGgednRvzU'
p4240
(dp4241
g3
S'Lana Del Rey'
p4242
sg5
I1
sg6
S'https://open.spotify.com/track/6eGMMPRVYzpssGgednRvzU'
p4243
sg8
S'Cherry'
p4244
ssS'7KXjTSCq5nL1LoYtL7XAwS'
p4245
(dp4246
g3
S'Kendrick Lamar'
p4247
sg5
I28
sg6
S'https://open.spotify.com/track/7KXjTSCq5nL1LoYtL7XAwS'
p4248
sg8
S'HUMBLE.'
p4249
ssS'6tjituizSxwSmBB5vtgHZE'
p4250
(dp4251
g3
S'Michael Bubl\xc3\xa9'
p4252
sg5
I1
sg6
S'https://open.spotify.com/track/6tjituizSxwSmBB5vtgHZE'
p4253
sg8
S'Holly Jolly Christmas'
p4254
ssS'3wml3LYkMHQmfFzfiasmzL'
p4255
(dp4256
g3
S'Joakim Lundell'
p4257
sg5
I13
sg6
S'https://open.spotify.com/track/3wml3LYkMHQmfFzfiasmzL'
p4258
sg8
S'Waiting For'
p4259
ssS'0P7lnn81aNwdv2kYWkCFLK'
p4260
(dp4261
g3
S'BACALL'
p4262
sg5
I8
sg6
S'https://open.spotify.com/track/0P7lnn81aNwdv2kYWkCFLK'
p4263
sg8
S'Africa - Radio Version'
p4264
ssS'2N43TKlYTUfNPlyJK2exnh'
p4265
(dp4266
g3
S'IMRI'
p4267
sg5
I1
sg6
S'https://open.spotify.com/track/2N43TKlYTUfNPlyJK2exnh'
p4268
sg8
S'I Feel Alive'
p4269
ssS'6Na5uKk5SsqZimk0hAWo8y'
p4270
(dp4271
g3
S'Drake'
p4272
sg5
I2
sg6
S'https://open.spotify.com/track/6Na5uKk5SsqZimk0hAWo8y'
p4273
sg8
S'Signs'
p4274
ssS'12ip0ceCeszDTDFxDY1AXJ'
p4275
(dp4276
g3
S'Avicii'
p4277
sg5
I7
sg6
S'https://open.spotify.com/track/12ip0ceCeszDTDFxDY1AXJ'
p4278
sg8
S'You Be Love (feat. Billy Raffoul)'
p4279
ssS'1D08Sxk2UfEVoSMRt2UJTf'
p4280
(dp4281
g3
S'The Band Perry'
p4282
sg5
I1
sg6
S'https://open.spotify.com/track/1D08Sxk2UfEVoSMRt2UJTf'
p4283
sg8
S'Stay In The Dark'
p4284
ssS'0n2bvWvMwr0gbjcuTm92eW'
p4285
(dp4286
g3
S'Lana Del Rey'
p4287
sg5
I13
sg6
S'https://open.spotify.com/track/0n2bvWvMwr0gbjcuTm92eW'
p4288
sg8
S'Love'
p4289
ssS'4yRuPrh3Zf5NFJjbC6NvKp'
p4290
(dp4291
g3
S'Boehm'
p4292
sg5
I1
sg6
S'https://open.spotify.com/track/4yRuPrh3Zf5NFJjbC6NvKp'
p4293
sg8
S'We Come - Radio Edit'
p4294
ssS'19TSNGmvdTtlxYn4YqYUMf'
p4295
(dp4296
g3
S'Alan Walker'
p4297
sg5
I3
sg6
S'https://open.spotify.com/track/19TSNGmvdTtlxYn4YqYUMf'
p4298
sg8
S'Routine'
p4299
ssS'3AsAuGTaDQzavZZThyYlop'
p4300
(dp4301
g3
S'NEIKED'
p4302
sg5
I9
sg6
S'https://open.spotify.com/track/3AsAuGTaDQzavZZThyYlop'
p4303
sg8
S'Sexual'
p4304
ssS'0IqKeD8ZSP72KbGYyzEcAs'
p4305
(dp4306
g3
S'Hozier'
p4307
sg5
I10
sg6
S'https://open.spotify.com/track/0IqKeD8ZSP72KbGYyzEcAs'
p4308
sg8
S'Take Me To Church'
p4309
ssS'1pIOKbyKaJjI8B0WXGt4m7'
p4310
(dp4311
g3
S'Maroon 5'
p4312
sg5
I4
sg6
S'https://open.spotify.com/track/1pIOKbyKaJjI8B0WXGt4m7'
p4313
sg8
S'Cold - Hot Shade & Mike Perry Remix'
p4314
ssS'77lGafvlU68CeHgB2pkHC9'
p4315
(dp4316
g3
S'Machine Gun Kelly'
p4317
sg5
I5
sg6
S'https://open.spotify.com/track/77lGafvlU68CeHgB2pkHC9'
p4318
sg8
S'At My Best (feat. Hailee Steinfeld)'
p4319
ssS'2nuveZFpiOildSCxXuL44C'
p4320
(dp4321
g3
S'JP Cooper'
p4322
sg5
I1
sg6
S'https://open.spotify.com/track/2nuveZFpiOildSCxXuL44C'
p4323
sg8
S"She's On My Mind"
p4324
ssS'4kfm1uI9QGaoN9qm6CkAMn'
p4325
(dp4326
g3
S'Linkin Park'
p4327
sg5
I1
sg6
S'https://open.spotify.com/track/4kfm1uI9QGaoN9qm6CkAMn'
p4328
sg8
S"What I've Done"
p4329
ssS'69bp2EbF7Q2rqc5N3ylezZ'
p4330
(dp4331
g3
S'Justin Bieber'
p4332
sg5
I11
sg6
S'https://open.spotify.com/track/69bp2EbF7Q2rqc5N3ylezZ'
p4333
sg8
S'Sorry'
p4334
ssS'6eUncuJutsFi9BGO1JaBHh'
p4335
(dp4336
g3
S'Jason Derulo'
p4337
sg5
I6
sg6
S'https://open.spotify.com/track/6eUncuJutsFi9BGO1JaBHh'
p4338
sg8
S"If I'm Lucky"
p4339
ssS'6zDJo66uIkQrs8PBXFd8Mi'
p4340
(dp4341
g3
S'Th\xc3\xa5str\xc3\xb6m'
p4342
sg5
I1
sg6
S'https://open.spotify.com/track/6zDJo66uIkQrs8PBXFd8Mi'
p4343
sg8
S'Centralmassivet'
p4344
ssS'0dA2Mk56wEzDgegdC6R17g'
p4345
(dp4346
g3
S'Zedd'
p4347
sg5
I33
sg6
S'https://open.spotify.com/track/0dA2Mk56wEzDgegdC6R17g'
p4348
sg8
S'Stay (with Alessia Cara)'
p4349
ssS'2HdwWqPjWZrgH0jVowNIqH'
p4350
(dp4351
g3
S'Oskar Linnros'
p4352
sg5
I1
sg6
S'https://open.spotify.com/track/2HdwWqPjWZrgH0jVowNIqH'
p4353
sg8
S'Fri'
p4354
ssS'1Sl3njkhhz8nrSPZroDQ82'
p4355
(dp4356
g3
S'Dimitri Vegas & Like Mike'
p4357
sg5
I9
sg6
S'https://open.spotify.com/track/1Sl3njkhhz8nrSPZroDQ82'
p4358
sg8
S'Complicated (feat. Kiiara)'
p4359
ssS'08QmhAybC6VHeG8gah84qA'
p4360
(dp4361
g3
S'NEIKED'
p4362
sg5
I6
sg6
S'https://open.spotify.com/track/08QmhAybC6VHeG8gah84qA'
p4363
sg8
S'Call Me'
p4364
ssS'04CttTezSnv71USiiG9mIo'
p4365
(dp4366
g3
S'Hearts & Colors'
p4367
sg5
I17
sg6
S'https://open.spotify.com/track/04CttTezSnv71USiiG9mIo'
p4368
sg8
S'Lighthouse - Andrelli Remix'
p4369
ssS'7fJv128BqCw23AmENDqJuj'
p4370
(dp4371
g3
S'Astrid S'
p4372
sg5
I5
sg6
S'https://open.spotify.com/track/7fJv128BqCw23AmENDqJuj'
p4373
sg8
S'Breathe'
p4374
ssS'4iLqG9SeJSnt0cSPICSjxv'
p4375
(dp4376
g3
S'Charlie Puth'
p4377
sg5
I25
sg6
S'https://open.spotify.com/track/4iLqG9SeJSnt0cSPICSjxv'
p4378
sg8
S'Attention'
p4379
ssS'15dnkAHcHC0vrIUlbiPiqU'
p4380
(dp4381
g3
S'Imagine Dragons'
p4382
sg5
I1
sg6
S'https://open.spotify.com/track/15dnkAHcHC0vrIUlbiPiqU'
p4383
sg8
S'I Don\xe2\x80\x99t Know Why'
p4384
ssS'1dbWrAchrTMYxhbCjbtg6X'
p4385
(dp4386
g3
S'FO&O'
p4387
sg5
I13
sg6
S'https://open.spotify.com/track/1dbWrAchrTMYxhbCjbtg6X'
p4388
sg8
S'Gotta Thing About You'
p4389
ssS'6RUKPb4LETWmmr3iAEQktW'
p4390
(dp4391
g3
S'The Chainsmokers'
p4392
sg5
I34
sg6
S'https://open.spotify.com/track/6RUKPb4LETWmmr3iAEQktW'
p4393
sg8
S'Something Just Like This'
p4394
ssS'7M16mAuWuFA5rC9HvkXaGx'
p4395
(dp4396
g3
S'Jax Jones'
p4397
sg5
I5
sg6
S'https://open.spotify.com/track/7M16mAuWuFA5rC9HvkXaGx'
p4398
sg8
S"You Don't Know Me - Radio Edit"
p4399
ssS'3mRcWCyteY2133a7xVMrYw'
p4400
(dp4401
g3
S'Future'
p4402
sg5
I2
sg6
S'https://open.spotify.com/track/3mRcWCyteY2133a7xVMrYw'
p4403
sg8
S'Comin Out Strong'
p4404
ssS'1vVNlXi8gf8tZ7OhnEs4VE'
p4405
(dp4406
g3
S'French Montana'
p4407
sg5
I1
sg6
S'https://open.spotify.com/track/1vVNlXi8gf8tZ7OhnEs4VE'
p4408
sg8
S'A Lie'
p4409
ssS'74BGCq2L25uHnxC7Zwgp8q'
p4410
(dp4411
g3
S'Seeb'
p4412
sg5
I2
sg6
S'https://open.spotify.com/track/74BGCq2L25uHnxC7Zwgp8q'
p4413
sg8
S'Under Your Skin'
p4414
ssS'2CPqh63wRVscbceKcPxwvv'
p4415
(dp4416
g3
S'Mike Perry'
p4417
sg5
I42
sg6
S'https://open.spotify.com/track/2CPqh63wRVscbceKcPxwvv'
p4418
sg8
S'The Ocean'
p4419
ssS'22Cj3SdQUmdYWTe5ntVx46'
p4420
(dp4421
g3
S'Alice'
p4422
sg5
I4
sg6
S'https://open.spotify.com/track/22Cj3SdQUmdYWTe5ntVx46'
p4423
sg8
S'Running With Lions'
p4424
ssS'65MOTX6uSFAnqXl7dlAuId'
p4425
(dp4426
g3
S'Demi Lovato'
p4427
sg5
I1
sg6
S'https://open.spotify.com/track/65MOTX6uSFAnqXl7dlAuId'
p4428
sg8
S'Tell Me You Love Me'
p4429
ssS'2PD70CPXPOsnTxJdoaaN95'
p4430
(dp4431
g3
S'H\xc3\xa5kan Hellstr\xc3\xb6m'
p4432
sg5
I1
sg6
S'https://open.spotify.com/track/2PD70CPXPOsnTxJdoaaN95'
p4433
sg8
S'En midsommarnattsdr\xc3\xb6m'
p4434
ssS'0WeT9UnF79pGH5ohYHsnD9'
p4435
(dp4436
g3
S'Triad'
p4437
sg5
I1
sg6
S'https://open.spotify.com/track/0WeT9UnF79pGH5ohYHsnD9'
p4438
sg8
S'T\xc3\xa4nd ett ljus'
p4439
ssS'7CiatbFJpSnXnbCiVaGlm0'
p4440
(dp4441
g3
S'JOWST'
p4442
sg5
I2
sg6
S'https://open.spotify.com/track/7CiatbFJpSnXnbCiVaGlm0'
p4443
sg8
S'Grab The Moment'
p4444
ssS'3VTNVsTTu05dmTsVFrmGpK'
p4445
(dp4446
g3
S'The Pogues'
p4447
sg5
I1
sg6
S'https://open.spotify.com/track/3VTNVsTTu05dmTsVFrmGpK'
p4448
sg8
S'Fairytale of New York (feat. Kirsty MacColl)'
p4449
ssS'4vv1KjUzPwrtDbozizSfQc'
p4450
(dp4451
g3
S'DJ Khaled'
p4452
sg5
I4
sg6
S'https://open.spotify.com/track/4vv1KjUzPwrtDbozizSfQc'
p4453
sg8
S"Don't Quit"
p4454
ssS'4nWn9o7NTpuqzHQ5hyae8U'
p4455
(dp4456
g3
S'Snoop Dogg'
p4457
sg5
I2
sg6
S'https://open.spotify.com/track/4nWn9o7NTpuqzHQ5hyae8U'
p4458
sg8
S'I Wanna Fuck You'
p4459
ssS'4bHsxqR3GMrXTxEPLuK5ue'
p4460
(dp4461
g3
S'Journey'
p4462
sg5
I41
sg6
S'https://open.spotify.com/track/4bHsxqR3GMrXTxEPLuK5ue'
p4463
sg8
S"Don't Stop Believin'"
p4464
ssS'5GXAXm5YOmYT0kL5jHvYBt'
p4465
(dp4466
g3
S'The Weeknd'
p4467
sg5
I42
sg6
S'https://open.spotify.com/track/5GXAXm5YOmYT0kL5jHvYBt'
p4468
sg8
S'I Feel It Coming'
p4469
ssS'7m0IW3ZMCZfpG01Ns2nsKM'
p4470
(dp4471
g3
S'Jan Malmsj\xc3\xb6'
p4472
sg5
I1
sg6
S'https://open.spotify.com/track/7m0IW3ZMCZfpG01Ns2nsKM'
p4473
sg8
S'Ser du stj\xc3\xa4rnan i det bl\xc3\xa5'
p4474
ssS'1MMeScdLmniNyO4WMuoIxb'
p4475
(dp4476
g3
S'Just D'
p4477
sg5
I1
sg6
S'https://open.spotify.com/track/1MMeScdLmniNyO4WMuoIxb'
p4478
sg8
S'Juligen'
p4479
ssS'0lMbuWUpfTWhEmOKxppEau'
p4480
(dp4481
g3
S'Calvin Harris'
p4482
sg5
I9
sg6
S'https://open.spotify.com/track/0lMbuWUpfTWhEmOKxppEau'
p4483
sg8
S'Rollin'
p4484
ssS'41kE0bBBpwPUZEZKxSIROh'
p4485
(dp4486
g3
S'Urban Cone'
p4487
sg5
I9
sg6
S'https://open.spotify.com/track/41kE0bBBpwPUZEZKxSIROh'
p4488
sg8
S'Old School'
p4489
ssS'51ChrwmUPDJvedPQnIU8Ls'
p4490
(dp4491
g3
S'Ed Sheeran'
p4492
sg5
I10
sg6
S'https://open.spotify.com/track/51ChrwmUPDJvedPQnIU8Ls'
p4493
sg8
S'Dive'
p4494
ssS'2R7858bg0GHuBBxjTyOL7N'
p4495
(dp4496
g3
S'George Michael'
p4497
sg5
I1
sg6
S'https://open.spotify.com/track/2R7858bg0GHuBBxjTyOL7N'
p4498
sg8
S'Careless Whisper'
p4499
ssS'7kOgMK63girYyYwLCo5aiW'
p4500
(dp4501
g3
S'Sultan + Shepard '
p4502
sg5
I3
sg6
S'https://open.spotify.com/track/7kOgMK63girYyYwLCo5aiW'
p4503
sg8
S'Almost Home'
p4504
ssS'1CUVN2kn7mW5FjkqXTR2W1'
p4505
(dp4506
g3
S'Jonas Blue'
p4507
sg5
I27
sg6
S'https://open.spotify.com/track/1CUVN2kn7mW5FjkqXTR2W1'
p4508
sg8
S'Perfect Strangers'
p4509
ssS'7mkm8ry8rZEzJ9C5wQZZrY'
p4510
(dp4511
g3
S'Basic Tape'
p4512
sg5
I2
sg6
S'https://open.spotify.com/track/7mkm8ry8rZEzJ9C5wQZZrY'
p4513
sg8
S'No Matter (Basic Tape vs. Frances)'
p4514
ssS'0SGkqnVQo9KPytSri1H6cF'
p4515
(dp4516
g3
S'Big Sean'
p4517
sg5
I10
sg6
S'https://open.spotify.com/track/0SGkqnVQo9KPytSri1H6cF'
p4518
sg8
S'Bounce Back'
p4519
ssS'3UjSOJ00E1eLMcayBm827Q'
p4520
(dp4521
g3
S'Salvador Sobral'
p4522
sg5
I2
sg6
S'https://open.spotify.com/track/3UjSOJ00E1eLMcayBm827Q'
p4523
sg8
S'Amar pelos Dois'
p4524
ssS'7nKBxz47S9SD79N086fuhn'
p4525
(dp4526
g3
S'Enrique Iglesias'
p4527
sg5
I31
sg6
S'https://open.spotify.com/track/7nKBxz47S9SD79N086fuhn'
p4528
sg8
S'SUBEME LA RADIO'
p4529
ssS'27SdWb2rFzO6GWiYDBTD9j'
p4530
(dp4531
g3
S'Sia'
p4532
sg5
I20
sg6
S'https://open.spotify.com/track/27SdWb2rFzO6GWiYDBTD9j'
p4533
sg8
S'Cheap Thrills'
p4534
ssS'3vgNmjuRDnGLxUFGCLkwpm'
p4535
(dp4536
g3
S'David Guetta'
p4537
sg5
I2
sg6
S'https://open.spotify.com/track/3vgNmjuRDnGLxUFGCLkwpm'
p4538
sg8
S'Light My Body Up (feat. Nicki Minaj & Lil Wayne)'
p4539
ssS'2hk3ghXhrZmfvm5FrkwDVn'
p4540
(dp4541
g3
S'Tjuvjakt'
p4542
sg5
I1
sg6
S'https://open.spotify.com/track/2hk3ghXhrZmfvm5FrkwDVn'
p4543
sg8
S'Flickv\xc3\xa4n'
p4544
ssS'5xhJmd0I15jFcEdqxfCzKk'
p4545
(dp4546
g3
S'The Chainsmokers'
p4547
sg5
I1
sg6
S'https://open.spotify.com/track/5xhJmd0I15jFcEdqxfCzKk'
p4548
sg8
S"It Won't Kill Ya"
p4549
ssS'5dQJKDx0x73seZbwSORa1T'
p4550
(dp4551
g3
S'The Vamps'
p4552
sg5
I1
sg6
S'https://open.spotify.com/track/5dQJKDx0x73seZbwSORa1T'
p4553
sg8
S'Middle Of The Night'
p4554
ssS'06ZpMjkNdIDKVf3mK29UiC'
p4555
(dp4556
g3
S'Alok'
p4557
sg5
I2
sg6
S'https://open.spotify.com/track/06ZpMjkNdIDKVf3mK29UiC'
p4558
sg8
S'Never Let Me Go'
p4559
ssS'6PJ8FF6UR8FZXfEvpHkIVN'
p4560
(dp4561
g3
S'Ed Sheeran'
p4562
sg5
I10
sg6
S'https://open.spotify.com/track/6PJ8FF6UR8FZXfEvpHkIVN'
p4563
sg8
S'How Would You Feel (Paean)'
p4564
ssS'2jhKxqWIkHiBfjAQcAMERw'
p4565
(dp4566
g3
S'Vigiland'
p4567
sg5
I5
sg6
S'https://open.spotify.com/track/2jhKxqWIkHiBfjAQcAMERw'
p4568
sg8
S'Another Shot'
p4569
ssS'1j4kHkkpqZRBwE0A4CN4Yv'
p4570
(dp4571
g3
S'ZAYN'
p4572
sg5
I5
sg6
S'https://open.spotify.com/track/1j4kHkkpqZRBwE0A4CN4Yv'
p4573
sg8
S'Dusk Till Dawn - Radio Edit'
p4574
ssS'3eFJqPe8VUYrABbFjSauuj'
p4575
(dp4576
g3
g1367
sg5
I1
sg6
S'https://open.spotify.com/track/3eFJqPe8VUYrABbFjSauuj'
p4577
sg8
g1367
ssS'3kdMzXOcrDIdSWLdONHNK5'
p4578
(dp4579
g3
S'Foo Fighters'
p4580
sg5
I1
sg6
S'https://open.spotify.com/track/3kdMzXOcrDIdSWLdONHNK5'
p4581
sg8
S'The Sky Is A Neighborhood'
p4582
ssS'2AmjhQbiL663mGtaVDB6Jx'
p4583
(dp4584
g3
S'Yellow Claw'
p4585
sg5
I1
sg6
S'https://open.spotify.com/track/2AmjhQbiL663mGtaVDB6Jx'
p4586
sg8
S'Good Day (feat. DJ Snake & Elliphant)'
p4587
ssS'5ndfVSDyPq90jaIUhNPeby'
p4588
(dp4589
g3
S'Katy Perry'
p4590
sg5
I2
sg6
S'https://open.spotify.com/track/5ndfVSDyPq90jaIUhNPeby'
p4591
sg8
S'Chained To The Rhythm'
p4592
ssS'5uCax9HTNlzGybIStD3vDh'
p4593
(dp4594
g3
S'James Arthur'
p4595
sg5
I42
sg6
S'https://open.spotify.com/track/5uCax9HTNlzGybIStD3vDh'
p4596
sg8
S"Say You Won't Let Go"
p4597
ssS'7qiZfU4dY1lWllzX7mPBI3'
p4598
(dp4599
g3
S'Ed Sheeran'
p4600
sg5
I40
sg6
S'https://open.spotify.com/track/7qiZfU4dY1lWllzX7mPBI3'
p4601
sg8
S'Shape of You'
p4602
ssS'0hnErtVKN1JyvfBNfpWDpO'
p4603
(dp4604
g3
S'Bryan Adams'
p4605
sg5
I1
sg6
S'https://open.spotify.com/track/0hnErtVKN1JyvfBNfpWDpO'
p4606
sg8
S'Christmas Time'
p4607
ssS'7wb4tNJwBOpW5bZbph5t5Y'
p4608
(dp4609
g3
S'Peter J\xc3\xb6back'
p4610
sg5
I1
sg6
S'https://open.spotify.com/track/7wb4tNJwBOpW5bZbph5t5Y'
p4611
sg8
S'Decembernatt (Halleluja)'
p4612
ssS'0wfbD5rAksdXUzRvMfM3x5'
p4613
(dp4614
g3
S'The Chainsmokers'
p4615
sg5
I10
sg6
S'https://open.spotify.com/track/0wfbD5rAksdXUzRvMfM3x5'
p4616
sg8
S'The One'
p4617
ssS'1TOiDnIY8HgPyDLSR08QXq'
p4618
(dp4619
g3
S'Zara Larsson'
p4620
sg5
I5
sg6
S'https://open.spotify.com/track/1TOiDnIY8HgPyDLSR08QXq'
p4621
sg8
S'What They Say'
p4622
ssS'2idTnDVMIFBqdoHodX8WQc'
p4623
(dp4624
g3
S'Lost Kings'
p4625
sg5
I1
sg6
S'https://open.spotify.com/track/2idTnDVMIFBqdoHodX8WQc'
p4626
sg8
S'Look At Us Now'
p4627
ssS'6Pgkp4qUoTmJIPn7ReaGxL'
p4628
(dp4629
g3
S'Avicii'
p4630
sg5
I1
sg6
S'https://open.spotify.com/track/6Pgkp4qUoTmJIPn7ReaGxL'
p4631
sg8
S'Without You (feat. Sandro Cavazza)'
p4632
ssS'0LGCloCfw3fk1XQh0zbrs1'
p4633
(dp4634
g3
S'Mike Perry'
p4635
sg5
I1
sg6
S'https://open.spotify.com/track/0LGCloCfw3fk1XQh0zbrs1'
p4636
sg8
S'Hands'
p4637
ssS'2FiSTH0GYpIioUgjfzMIja'
p4638
(dp4639
g3
S'Kygo'
p4640
sg5
I1
sg6
S'https://open.spotify.com/track/2FiSTH0GYpIioUgjfzMIja'
p4641
sg8
S'Stay'
p4642
ssS'1F2HXIJrE2Xn81OzT2zZvW'
p4643
(dp4644
g3
S'French Montana'
p4645
sg5
I13
sg6
S'https://open.spotify.com/track/1F2HXIJrE2Xn81OzT2zZvW'
p4646
sg8
S'Unforgettable'
p4647
ssS'6QgjcU0zLnzq5OrUoSZ3OK'
p4648
(dp4649
g3
S'Portugal. The Man'
p4650
sg5
I6
sg6
S'https://open.spotify.com/track/6QgjcU0zLnzq5OrUoSZ3OK'
p4651
sg8
S'Feel It Still'
p4652
ssS'0EgWPK90G0BlnP00LdKnGK'
p4653
(dp4654
g3
S'Jasmine Kara'
p4655
sg5
I4
sg6
S'https://open.spotify.com/track/0EgWPK90G0BlnP00LdKnGK'
p4656
sg8
S'Gravity'
p4657
ssS'6Yk3pZPw8hlUBMTeLLLRC1'
p4658
(dp4659
g3
S'The Boy Next Door'
p4660
sg5
I2
sg6
S'https://open.spotify.com/track/6Yk3pZPw8hlUBMTeLLLRC1'
p4661
sg8
S'La Colegiala'
p4662
ssS'33z5crv3IO5U2BOi8xod92'
p4663
(dp4664
g3
S'Wiz Khalifa'
p4665
sg5
I1
sg6
S'https://open.spotify.com/track/33z5crv3IO5U2BOi8xod92'
p4666
sg8
S'Something New (feat. Ty Dolla $ign)'
p4667
ssS'78rIJddV4X0HkNAInEcYde'
p4668
(dp4669
g3
S'Starley'
p4670
sg5
I42
sg6
S'https://open.spotify.com/track/78rIJddV4X0HkNAInEcYde'
p4671
sg8
S'Call On Me - Ryan Riback Extended Remix'
p4672
ssS'0L7loeTIg6akW84aEQZpCT'
p4673
(dp4674
g3
S'Major Lazer'
p4675
sg5
I6
sg6
S'https://open.spotify.com/track/0L7loeTIg6akW84aEQZpCT'
p4676
sg8
S'Light It Up (feat. Nyla & Fuse ODG) - Remix'
p4677
ssS'32xDfb3gJNmpHNkwoghrrg'
p4678
(dp4679
g3
S'Martin Masarov'
p4680
sg5
I2
sg6
S'https://open.spotify.com/track/32xDfb3gJNmpHNkwoghrrg'
p4681
sg8
S'Fuckgirl'
p4682
ssS'02Ilno0GQjWvVpsYYHIpl7'
p4683
(dp4684
g3
S'Danny Saucedo'
p4685
sg5
I1
sg6
S'https://open.spotify.com/track/02Ilno0GQjWvVpsYYHIpl7'
p4686
sg8
S'Skepp'
p4687
ssS'7Lgpic8BsBJR4jFrr9abbz'
p4688
(dp4689
g3
S'Robin Schulz'
p4690
sg5
I3
sg6
S'https://open.spotify.com/track/7Lgpic8BsBJR4jFrr9abbz'
p4691
sg8
S"I Believe I'm Fine"
p4692
ssS'7o2CTH4ctstm8TNelqjb51'
p4693
(dp4694
g3
S"Guns N' Roses"
p4695
sg5
I1
sg6
S'https://open.spotify.com/track/7o2CTH4ctstm8TNelqjb51'
p4696
sg8
S"Sweet Child O' Mine"
p4697
ssS'2EEeOnHehOozLq4aS0n6SL'
p4698
(dp4699
g3
S'KYLE'
p4700
sg5
I18
sg6
S'https://open.spotify.com/track/2EEeOnHehOozLq4aS0n6SL'
p4701
sg8
S'iSpy (feat. Lil Yachty)'
p4702
ssS'22BH6K8RlpwNzIINvWS4Jj'
p4703
(dp4704
g3
S'Bebe Rexha'
p4705
sg5
I1
sg6
S'https://open.spotify.com/track/22BH6K8RlpwNzIINvWS4Jj'
p4706
sg8
S'(Not) The One'
p4707
ssS'56iqawhV0wliXwPOnREEIt'
p4708
(dp4709
g3
S'Miriam Bryant'
p4710
sg5
I8
sg6
S'https://open.spotify.com/track/56iqawhV0wliXwPOnREEIt'
p4711
sg8
S'Svart bil'
p4712
ssS'5TXDeTFVRVY7Cvt0Dw4vWW'
p4713
(dp4714
g3
S'XXXTENTACION'
p4715
sg5
I3
sg6
S'https://open.spotify.com/track/5TXDeTFVRVY7Cvt0Dw4vWW'
p4716
sg8
S'Revenge'
p4717
ssS'167NczpNbRF7oWakJaY3Hh'
p4718
(dp4719
g3
S'Niall Horan'
p4720
sg5
I23
sg6
S'https://open.spotify.com/track/167NczpNbRF7oWakJaY3Hh'
p4721
sg8
S'Slow Hands'
p4722
ssS'0fH86zQcE2CmATQju6WpXv'
p4723
(dp4724
g3
S'Kris Kross Amsterdam'
p4725
sg5
I8
sg6
S'https://open.spotify.com/track/0fH86zQcE2CmATQju6WpXv'
p4726
sg8
S'Are You Sure? (feat. Ty Dolla $ign)'
p4727
ssS'0or0gNaKAXYYCsOrpvRzAu'
p4728
(dp4729
g3
S'Lorde'
p4730
sg5
I1
sg6
S'https://open.spotify.com/track/0or0gNaKAXYYCsOrpvRzAu'
p4731
sg8
S'Liability'
p4732
ssS'2JmbwcqfsSc9FIA10WH45J'
p4733
(dp4734
g3
S'Markoolio'
p4735
sg5
I1
sg6
S'https://open.spotify.com/track/2JmbwcqfsSc9FIA10WH45J'
p4736
sg8
S'Bastukungen'
p4737
ssS'5JumjbpoKigvotk9JFyf3O'
p4738
(dp4739
g3
S'Tove Lo'
p4740
sg5
I2
sg6
S'https://open.spotify.com/track/5JumjbpoKigvotk9JFyf3O'
p4741
sg8
S'Lies In The Dark - From Fifty Shades Darker (Original Motion Picture Soundtrack)'
p4742
ssS'0xKGPkn1RLsVifjDs4183v'
p4743
(dp4744
g3
S'Maisie Peters'
p4745
sg5
I1
sg6
S'https://open.spotify.com/track/0xKGPkn1RLsVifjDs4183v'
p4746
sg8
S'Place We Were Made'
p4747
ssS'4A95W8Z7DGEFvD2j7pmtUB'
p4748
(dp4749
g3
S'U2'
p4750
sg5
I2
sg6
S'https://open.spotify.com/track/4A95W8Z7DGEFvD2j7pmtUB'
p4751
sg8
S'You\xe2\x80\x99re The Best Thing About Me - U2 Vs. Kygo'
p4752
ssS'0vmorHpH7qAUxEpcROPmo6'
p4753
(dp4754
g3
S'Charlotte Perrelli'
p4755
sg5
I1
sg6
S'https://open.spotify.com/track/0vmorHpH7qAUxEpcROPmo6'
p4756
sg8
S'Mitt liv'
p4757
ssS'7AQim7LbvFVZJE3O8TYgf2'
p4758
(dp4759
g3
S'XXXTENTACION'
p4760
sg5
I7
sg6
S'https://open.spotify.com/track/7AQim7LbvFVZJE3O8TYgf2'
p4761
sg8
S'Fuck Love (feat. Trippie Redd)'
p4762
ssS'6vBgJ1SLmpB4VMcEVy1ovL'
p4763
(dp4764
g3
S'Joakim Lundell'
p4765
sg5
I35
sg6
S'https://open.spotify.com/track/6vBgJ1SLmpB4VMcEVy1ovL'
p4766
sg8
S'All I Need'
p4767
ssS'0fmFX2bQOdqJ1hVlSxRl2F'
p4768
(dp4769
g3
S'Ella Eyre'
p4770
sg5
I1
sg6
S'https://open.spotify.com/track/0fmFX2bQOdqJ1hVlSxRl2F'
p4771
sg8
S'Ego (feat. Ty Dolla $ign)'
p4772
ssS'1ecJdAizaDklfgCVtEUQsG'
p4773
(dp4774
g3
S'Freestyle'
p4775
sg5
I1
sg6
S'https://open.spotify.com/track/1ecJdAizaDklfgCVtEUQsG'
p4776
sg8
S'Vill ha dig'
p4777
ssS'7yHEDfrJNd0zWOfXwydNH0'
p4778
(dp4779
g3
S'Ariana Grande'
p4780
sg5
I4
sg6
S'https://open.spotify.com/track/7yHEDfrJNd0zWOfXwydNH0'
p4781
sg8
S'Into You'
p4782
ssS'0IDcDD5CapUNkDw9snR8N9'
p4783
(dp4784
g3
S'Denz'
p4785
sg5
I1
sg6
S'https://open.spotify.com/track/0IDcDD5CapUNkDw9snR8N9'
p4786
sg8
S'Dash'
p4787
ssS'6t2ubAB4iSYOuIpRAOGd4t'
p4788
(dp4789
g3
S'Flo Rida'
p4790
sg5
I9
sg6
S'https://open.spotify.com/track/6t2ubAB4iSYOuIpRAOGd4t'
p4791
sg8
S'Cake'
p4792
ssS'2nAAFnHiXRdWhsqoeqhhnr'
p4793
(dp4794
g3
S'London Grammar'
p4795
sg5
I1
sg6
S'https://open.spotify.com/track/2nAAFnHiXRdWhsqoeqhhnr'
p4796
sg8
S'Rooting For You'
p4797
ssS'2h9L3U6h3jnfOpIAj8E86H'
p4798
(dp4799
g3
S'Tove Lo'
p4800
sg5
I3
sg6
S'https://open.spotify.com/track/2h9L3U6h3jnfOpIAj8E86H'
p4801
sg8
S'Disco Tits'
p4802
ssS'6tUMdozpJETJYMjbk54LjA'
p4803
(dp4804
g3
S'Andreas Weise'
p4805
sg5
I1
sg6
S'https://open.spotify.com/track/6tUMdozpJETJYMjbk54LjA'
p4806
sg8
S'Christmas Dream'
p4807
ssS'5wpxDeRAgF5VyELTSuTeWv'
p4808
(dp4809
g3
S'Marcus & Martinus'
p4810
sg5
I1
sg6
S'https://open.spotify.com/track/5wpxDeRAgF5VyELTSuTeWv'
p4811
sg8
S'Bae'
p4812
ssS'5Db9VIdDsN5yu3Eu7CT0i4'
p4813
(dp4814
g3
S'Sam Smith'
p4815
sg5
I17
sg6
S'https://open.spotify.com/track/5Db9VIdDsN5yu3Eu7CT0i4'
p4816
sg8
S'Stay With Me'
p4817
ssS'7nY0TjOsD1BZehkZgLiOxO'
p4818
(dp4819
g3
S'Katy Perry'
p4820
sg5
I2
sg6
S'https://open.spotify.com/track/7nY0TjOsD1BZehkZgLiOxO'
p4821
sg8
S'Hey Hey Hey'
p4822
ssS'4b0P9EnFGvRE5o96OH9xtf'
p4823
(dp4824
g3
S'Labyrint'
p4825
sg5
I11
sg6
S'https://open.spotify.com/track/4b0P9EnFGvRE5o96OH9xtf'
p4826
sg8
S'Pang Pang'
p4827
ssS'11KJSRSgaDxqydKYiD2Jew'
p4828
(dp4829
g3
S'Drake'
p4830
sg5
I7
sg6
S'https://open.spotify.com/track/11KJSRSgaDxqydKYiD2Jew'
p4831
sg8
S'Too Good'
p4832
ssS'7pYFPMeK0TnaTGdS6qOtEr'
p4833
(dp4834
g3
S'Stargate'
p4835
sg5
I6
sg6
S'https://open.spotify.com/track/7pYFPMeK0TnaTGdS6qOtEr'
p4836
sg8
S'Waterfall'
p4837
ssS'1yNyoWWWikbLhwIGWjZuDW'
p4838
(dp4839
g3
S'The Vamps'
p4840
sg5
I27
sg6
S'https://open.spotify.com/track/1yNyoWWWikbLhwIGWjZuDW'
p4841
sg8
S'All Night'
p4842
ssS'26AuyrZGzWWiYZPSd3XBIg'
p4843
(dp4844
g3
S'The Chainsmokers'
p4845
sg5
I1
sg6
S'https://open.spotify.com/track/26AuyrZGzWWiYZPSd3XBIg'
p4846
sg8
S'Bloodstream'
p4847
ssS'1PDhGWgfGZp7JYEu89TVEF'
p4848
(dp4849
g3
S'Ella Fitzgerald'
p4850
sg5
I1
sg6
S'https://open.spotify.com/track/1PDhGWgfGZp7JYEu89TVEF'
p4851
sg8
S'Rudolph The Red-Nosed Reindeer'
p4852
ssS'51lPx6ZCSalL2kvSrDUyJc'
p4853
(dp4854
g3
S'John Mayer'
p4855
sg5
I1
sg6
S'https://open.spotify.com/track/51lPx6ZCSalL2kvSrDUyJc'
p4856
sg8
S"You're Gonna Live Forever in Me"
p4857
ssS'3Dwq1oiOFys6Sxr5SslmXw'
p4858
(dp4859
g3
S'Harry Styles'
p4860
sg5
I1
sg6
S'https://open.spotify.com/track/3Dwq1oiOFys6Sxr5SslmXw'
p4861
sg8
S'Carolina'
p4862
ssS'4vb4mFvYsr2h6enhjJsq9Y'
p4863
(dp4864
g3
S'Adele'
p4865
sg5
I18
sg6
S'https://open.spotify.com/track/4vb4mFvYsr2h6enhjJsq9Y'
p4866
sg8
S'Water Under the Bridge'
p4867
ssS'2kVHAQKVtczchKctctzbtK'
p4868
(dp4869
g3
S'Katy Perry'
p4870
sg5
I10
sg6
S'https://open.spotify.com/track/2kVHAQKVtczchKctctzbtK'
p4871
sg8
S'Swish Swish'
p4872
ssS'6mPvmqLqpQPgYAfUFKcMeX'
p4873
(dp4874
g3
S'Uno Svenningsson'
p4875
sg5
I1
sg6
S'https://open.spotify.com/track/6mPvmqLqpQPgYAfUFKcMeX'
p4876
sg8
S'V\xc3\xa5gorna'
p4877
ssS'17Fd6Yb7mSbinKG8LoWfFl'
p4878
(dp4879
g3
S'Mike Posner'
p4880
sg5
I22
sg6
S'https://open.spotify.com/track/17Fd6Yb7mSbinKG8LoWfFl'
p4881
sg8
S'I Took A Pill In Ibiza - Seeb Remix'
p4882
ssS'3cLDh9TvVq3tUCFkqn078p'
p4883
(dp4884
g3
S'Allyawan'
p4885
sg5
I3
sg6
S'https://open.spotify.com/track/3cLDh9TvVq3tUCFkqn078p'
p4886
sg8
S'Vart har du vart'
p4887
ssS'4tCtwWceOPWzenK2HAIJSb'
p4888
(dp4889
g3
S'Fifth Harmony'
p4890
sg5
I5
sg6
S'https://open.spotify.com/track/4tCtwWceOPWzenK2HAIJSb'
p4891
sg8
S'Work from Home'
p4892
ssS'12SWqE11ch4cKGKJZ2yHXq'
p4893
(dp4894
g3
S'Tjuvjakt'
p4895
sg5
I1
sg6
S'https://open.spotify.com/track/12SWqE11ch4cKGKJZ2yHXq'
p4896
sg8
S'Mittenfingret upp'
p4897
ssS'3uB6rxXYjmMEhOVJT763S6'
p4898
(dp4899
g3
S'Matoma'
p4900
sg5
I2
sg6
S'https://open.spotify.com/track/3uB6rxXYjmMEhOVJT763S6'
p4901
sg8
S'Staying Up'
p4902
ssS'3RiPr603aXAoi4GHyXx0uy'
p4903
(dp4904
g3
S'Coldplay'
p4905
sg5
I1
sg6
S'https://open.spotify.com/track/3RiPr603aXAoi4GHyXx0uy'
p4906
sg8
S'Hymn For The Weekend'
p4907
ssS'3hB5DgAiMAQ4DzYbsMq1IT'
p4908
(dp4909
g3
S'Justin Bieber'
p4910
sg5
I42
sg6
S'https://open.spotify.com/track/3hB5DgAiMAQ4DzYbsMq1IT'
p4911
sg8
S'Love Yourself'
p4912
ssS'1foCxQtxBweJtZmdxhEHVO'
p4913
(dp4914
g3
S'Eartha Kitt'
p4915
sg5
I1
sg6
S'https://open.spotify.com/track/1foCxQtxBweJtZmdxhEHVO'
p4916
sg8
S'Santa Baby'
p4917
ssS'32OWobmyAz8J2qA8iWekyS'
p4918
(dp4919
g3
S'Justin Bieber'
p4920
sg5
I1
sg6
S'https://open.spotify.com/track/32OWobmyAz8J2qA8iWekyS'
p4921
sg8
S'Mistletoe'
p4922
ssS'0m2orA1i5lLZUOt9XLwSd0'
p4923
(dp4924
g3
S'Fifth Harmony'
p4925
sg5
I1
sg6
S'https://open.spotify.com/track/0m2orA1i5lLZUOt9XLwSd0'
p4926
sg8
S'He Like That'
p4927
ssS'6XOYVSmNDjKUNMXooU4s4z'
p4928
(dp4929
g3
S'OneRepublic'
p4930
sg5
I17
sg6
S'https://open.spotify.com/track/6XOYVSmNDjKUNMXooU4s4z'
p4931
sg8
S'No Vacancy'
p4932
ssS'5KN6UJklrnBWR0NXXnt4Vz'
p4933
(dp4934
g3
S'Lamix'
p4935
sg5
I12
sg6
S'https://open.spotify.com/track/5KN6UJklrnBWR0NXXnt4Vz'
p4936
sg8
S'Hey Baby - Remix'
p4937
ssS'4gDyoe1FImDlXVt58ssnMf'
p4938
(dp4939
g3
S'Coldplay'
p4940
sg5
I2
sg6
S'https://open.spotify.com/track/4gDyoe1FImDlXVt58ssnMf'
p4941
sg8
S'All I Can Think About Is You'
p4942
ssS'0gQtd0FQjuJSsuK2qHFYoF'
p4943
(dp4944
g3
S'Tomas Ledin'
p4945
sg5
I1
sg6
S'https://open.spotify.com/track/0gQtd0FQjuJSsuK2qHFYoF'
p4946
sg8
S'En del av mitt hj\xc3\xa4rta'
p4947
ssS'0JYPskutaGqXF57vBMujZ9'
p4948
(dp4949
g3
S'Oskar Linnros'
p4950
sg5
I2
sg6
S'https://open.spotify.com/track/0JYPskutaGqXF57vBMujZ9'
p4951
sg8
S'B\xc3\xa4st'
p4952
ssS'5EnYT6F7wEcdege6mDHEfO'
p4953
(dp4954
g3
S'Drake'
p4955
sg5
I8
sg6
S'https://open.spotify.com/track/5EnYT6F7wEcdege6mDHEfO'
p4956
sg8
S'Signs'
p4957
ssS'3YZ6EIAmZbMGpqEmgeq8JA'
p4958
(dp4959
g3
S'Blizzy'
p4960
sg5
I1
sg6
S'https://open.spotify.com/track/3YZ6EIAmZbMGpqEmgeq8JA'
p4961
sg8
S'Diva (Remix)'
p4962
ssS'6PGoSes0D9eUDeeAafB2As'
p4963
(dp4964
g3
S'Kendrick Lamar'
p4965
sg5
I4
sg6
S'https://open.spotify.com/track/6PGoSes0D9eUDeeAafB2As'
p4966
sg8
S'LOVE. FEAT. ZACARI.'
p4967
ssS'1lItf5ZXJc1by9SbPeljFd'
p4968
(dp4969
g3
S'Zay Hilfigerrr'
p4970
sg5
I4
sg6
S'https://open.spotify.com/track/1lItf5ZXJc1by9SbPeljFd'
p4971
sg8
S'Juju On That Beat (TZ Anthem)'
p4972
ss.