(dp0
S'0mel2N9Ws9r4yLQn5QE21Y'
p1
(dp2
S'artistName'
p3
S'Sam Smith'
p4
sS'weeksOnChart'
p5
I5
sS'track_href'
p6
S'https://open.spotify.com/track/0mel2N9Ws9r4yLQn5QE21Y'
p7
sS'songName'
p8
S'Too Good At Goodbyes'
p9
ssS'1pJQAHpD51J7GYaFrrFO9S'
p10
(dp11
g3
S'The Chainsmokers'
p12
sg5
I2
sg6
S'https://open.spotify.com/track/1pJQAHpD51J7GYaFrrFO9S'
p13
sg8
S"Don't Say"
p14
ssS'1phM99AMGMC8DhmCOKFbBa'
p15
(dp16
g3
S'Kary Ng'
p17
sg5
I1
sg6
S'https://open.spotify.com/track/1phM99AMGMC8DhmCOKFbBa'
p18
sg8
S'\xe6\x88\x91\xe6\x9c\xac\xe4\xba\xba'
p19
ssS'0jdny0dhgjUwoIp5GkqEaA'
p20
(dp21
g3
S'Kesha'
p22
sg5
I5
sg6
S'https://open.spotify.com/track/0jdny0dhgjUwoIp5GkqEaA'
p23
sg8
S'Praying'
p24
ssS'3ehzxWtA5tXu8o3zFdhNSq'
p25
(dp26
g3
S'Eason Chan'
p27
sg5
I1
sg6
S'https://open.spotify.com/track/3ehzxWtA5tXu8o3zFdhNSq'
p28
sg8
S'\xe8\x91\xa1\xe8\x90\x84\xe6\x88\x90\xe7\x86\x9f\xe6\x99\x82'
p29
ssS'0prNGof3XqfTvNDxHonvdK'
p30
(dp31
g3
S'Alessia Cara'
p32
sg5
I16
sg6
S'https://open.spotify.com/track/0prNGof3XqfTvNDxHonvdK'
p33
sg8
S'Scars To Your Beautiful'
p34
ssS'6HUnnBwYZqcED1eQztxMBN'
p35
(dp36
g3
S'Martin Jensen'
p37
sg5
I37
sg6
S'https://open.spotify.com/track/6HUnnBwYZqcED1eQztxMBN'
p38
sg8
S'Solo Dance'
p39
ssS'0RYXEibxMami3QuT8kn4Iz'
p40
(dp41
g3
S'Macklemore'
p42
sg5
I4
sg6
S'https://open.spotify.com/track/0RYXEibxMami3QuT8kn4Iz'
p43
sg8
S'Marmalade (feat. Lil Yachty)'
p44
ssS'0F1Rc18rZcJOALxIIQPTYd'
p45
(dp46
g3
S'Maty Noyes'
p47
sg5
I1
sg6
S'https://open.spotify.com/track/0F1Rc18rZcJOALxIIQPTYd'
p48
sg8
S'in my miNd'
p49
ssS'3QWjljChcOMkRDYSzF33Qr'
p50
(dp51
g3
S'Kiiara'
p52
sg5
I8
sg6
S'https://open.spotify.com/track/3QWjljChcOMkRDYSzF33Qr'
p53
sg8
S'Whippin (feat. Felix Snow)'
p54
ssS'1qAPA8TooLVEqAZ58fhcrt'
p55
(dp56
g3
S'BLACKPINK'
p57
sg5
I6
sg6
S'https://open.spotify.com/track/1qAPA8TooLVEqAZ58fhcrt'
p58
sg8
S'BOOMBAYAH - KR Ver.'
p59
ssS'0lLdorYw7lVrJydTINhWdI'
p60
(dp61
g3
S'Michael Bubl\xc3\xa9'
p62
sg5
I1
sg6
S'https://open.spotify.com/track/0lLdorYw7lVrJydTINhWdI'
p63
sg8
S"It's Beginning To Look A Lot Like Christmas"
p64
ssS'6CdUgvL597jWmW4w8P5kHs'
p65
(dp66
g3
S'TAEYEON'
p67
sg5
I4
sg6
S'https://open.spotify.com/track/6CdUgvL597jWmW4w8P5kHs'
p68
sg8
S'Fine'
p69
ssS'2aksifNn5ph8igDOkPBA02'
p70
(dp71
g3
S'Rihanna'
p72
sg5
I5
sg6
S'https://open.spotify.com/track/2aksifNn5ph8igDOkPBA02'
p73
sg8
S'Love On The Brain'
p74
ssS'5o4yGlG0PfeVUa6ClIyOxq'
p75
(dp76
g3
S'Charli XCX'
p77
sg5
I7
sg6
S'https://open.spotify.com/track/5o4yGlG0PfeVUa6ClIyOxq'
p78
sg8
S'Boys'
p79
ssS'4b4KcovePX8Ke2cLIQTLM0'
p80
(dp81
g3
S'The Vamps'
p82
sg5
I4
sg6
S'https://open.spotify.com/track/4b4KcovePX8Ke2cLIQTLM0'
p83
sg8
S'All Night'
p84
ssS'7wGoVu4Dady5GV0Sv4UIsx'
p85
(dp86
g3
S'Post Malone'
p87
sg5
I1
sg6
S'https://open.spotify.com/track/7wGoVu4Dady5GV0Sv4UIsx'
p88
sg8
S'rockstar'
p89
ssS'7LJjWqhqK594nN7qJzLVXE'
p90
(dp91
g3
S'BLACKPINK'
p92
sg5
I10
sg6
S'https://open.spotify.com/track/7LJjWqhqK594nN7qJzLVXE'
p93
sg8
S"As If It's Your Last"
p94
ssS'2fek6ArojeFFIsDygqLINP'
p95
(dp96
g3
S'Gin Lee'
p97
sg5
I1
sg6
S'https://open.spotify.com/track/2fek6ArojeFFIsDygqLINP'
p98
sg8
S'\xe5\x92\x8c\xe6\xaf\x8f\xe5\xa4\xa9\xe8\xac\x9b\xe5\x86\x8d\xe8\xa6\x8b'
p99
ssS'1CnPYaKxTVb4LWOtiGOm0m'
p100
(dp101
g3
S'Jon Bellion'
p102
sg5
I19
sg6
S'https://open.spotify.com/track/1CnPYaKxTVb4LWOtiGOm0m'
p103
sg8
S'All Time Low'
p104
ssS'4OZEu0Vwq0RB2LAq14v99n'
p105
(dp106
g3
S'DJ Snake'
p107
sg5
I5
sg6
S'https://open.spotify.com/track/4OZEu0Vwq0RB2LAq14v99n'
p108
sg8
S'Middle'
p109
ssS'6Pw3Gvw4wNMZfTYZa6IQal'
p110
(dp111
g3
S'Bebe Rexha'
p112
sg5
I15
sg6
S'https://open.spotify.com/track/6Pw3Gvw4wNMZfTYZa6IQal'
p113
sg8
S'The Way I Are (Dance With Somebody) [feat. Lil Wayne]'
p114
ssS'6RW3u8RL4ivTi3beqQ715p'
p115
(dp116
g3
S'Kay Tse'
p117
sg5
I1
sg6
S'https://open.spotify.com/track/6RW3u8RL4ivTi3beqQ715p'
p118
sg8
S'\xe5\xad\xa4\xe5\xb6\xba\xe8\x8a\xb1 - (\xe5\x8a\x87\xe9\x9b\x86 \xe5\xb7\xbe\xe5\xb9\x97\xe6\xa2\x9f\xe9\x9b\x84\xe4\xb9\x8b\xe8\xab\x9c\xe8\xa1\x80\xe9\x95\xb7\xe5\xa4\xa9 \xe4\xb8\xbb\xe9\xa1\x8c\xe6\x9b\xb2)'
p119
ssS'6TNz79kvUVVQSM2EhZQVq8'
p120
(dp121
g3
S'Supper Moment'
p122
sg5
I42
sg6
S'https://open.spotify.com/track/6TNz79kvUVVQSM2EhZQVq8'
p123
sg8
S'\xe7\x84\xa1\xe7\x9b\xa1'
p124
ssS'2Gq8bwrWXzc1gW9g2EnHTh'
p125
(dp126
g3
S'AOA'
p127
sg5
I1
sg6
S'https://open.spotify.com/track/2Gq8bwrWXzc1gW9g2EnHTh'
p128
sg8
S'Excuse Me'
p129
ssS'6c0I7CfL9ziGZN8yYkLppP'
p130
(dp131
g3
S'Linkin Park'
p132
sg5
I1
sg6
S'https://open.spotify.com/track/6c0I7CfL9ziGZN8yYkLppP'
p133
sg8
S'Sharp Edges'
p134
ssS'2FRnf9qhLbvw8fu4IBXx78'
p135
(dp136
g3
S'Wham!'
p137
sg5
I1
sg6
S'https://open.spotify.com/track/2FRnf9qhLbvw8fu4IBXx78'
p138
sg8
S'Last Christmas'
p139
ssS'7tr2za8SQg2CI8EDgrdtNl'
p140
(dp141
g3
S'Calvin Harris'
p142
sg5
I22
sg6
S'https://open.spotify.com/track/7tr2za8SQg2CI8EDgrdtNl'
p143
sg8
S'Slide'
p144
ssS'0Ie5uiv54KgCr7P4sYDTHl'
p145
(dp146
g3
S'Idina Menzel'
p147
sg5
I1
sg6
S'https://open.spotify.com/track/0Ie5uiv54KgCr7P4sYDTHl'
p148
sg8
S"Baby It's Cold Outside (duet with Michael Bubl\xc3\xa9)"
p149
ssS'07nLIslzbG6oEtVejXxMw2'
p150
(dp151
g3
S'JW'
p152
sg5
I10
sg6
S'https://open.spotify.com/track/07nLIslzbG6oEtVejXxMw2'
p153
sg8
S'\xe5\xae\x89\xe5\x85\xa8\xe6\x84\x9f'
p154
ssS'1P3J7jcnPj1GooZxCWInQ5'
p155
(dp156
g3
S'Joyce Cheng'
p157
sg5
I21
sg6
S'https://open.spotify.com/track/1P3J7jcnPj1GooZxCWInQ5'
p158
sg8
S'\xe5\xa5\xb3\xe7\xa5\x9e'
p159
ssS'06FCvd7rrRcF3DdvWH5Isp'
p160
(dp161
g3
S'Kendrick Lamar'
p162
sg5
I1
sg6
S'https://open.spotify.com/track/06FCvd7rrRcF3DdvWH5Isp'
p163
sg8
S'LUST.'
p164
ssS'4pLwZjInHj3SimIyN9SnOz'
p165
(dp166
g3
S'Ariana Grande'
p167
sg5
I39
sg6
S'https://open.spotify.com/track/4pLwZjInHj3SimIyN9SnOz'
p168
sg8
S'Side To Side'
p169
ssS'3E2Zh20GDCR9B1EYjfXWyv'
p170
(dp171
g3
S'AJR'
p172
sg5
I22
sg6
S'https://open.spotify.com/track/3E2Zh20GDCR9B1EYjfXWyv'
p173
sg8
S'Weak'
p174
ssS'2Gl0FzuLxflY6nPifJp5Dr'
p175
(dp176
g3
S'Kygo'
p177
sg5
I24
sg6
S'https://open.spotify.com/track/2Gl0FzuLxflY6nPifJp5Dr'
p178
sg8
S'First Time'
p179
ssS'1KvyBpAxgllKW7bQb0GYCR'
p180
(dp181
g3
S'Linkin Park'
p182
sg5
I1
sg6
S'https://open.spotify.com/track/1KvyBpAxgllKW7bQb0GYCR'
p183
sg8
S'Halfway Right'
p184
ssS'34isqXjbTstbYwl2MfdzDq'
p185
(dp186
g3
S'Linkin Park'
p187
sg5
I1
sg6
S'https://open.spotify.com/track/34isqXjbTstbYwl2MfdzDq'
p188
sg8
S'Sorry for Now'
p189
ssS'4BHzQ9C00ceJxfG16AlNWb'
p190
(dp191
g3
S'Adele'
p192
sg5
I3
sg6
S'https://open.spotify.com/track/4BHzQ9C00ceJxfG16AlNWb'
p193
sg8
S'Send My Love (To Your New Lover)'
p194
ssS'4Km5HrUvYTaSUfiSGPJeQR'
p195
(dp196
g3
S'Migos'
p197
sg5
I11
sg6
S'https://open.spotify.com/track/4Km5HrUvYTaSUfiSGPJeQR'
p198
sg8
S'Bad and Boujee (feat. Lil Uzi Vert)'
p199
ssS'50PWlIBU7PlGGwzgN8TiFJ'
p200
(dp201
g3
S'Lady Gaga'
p202
sg5
I9
sg6
S'https://open.spotify.com/track/50PWlIBU7PlGGwzgN8TiFJ'
p203
sg8
S'Million Reasons'
p204
ssS'2RttW7RAu5nOAfq6YFvApB'
p205
(dp206
g3
S'Ed Sheeran'
p207
sg5
I20
sg6
S'https://open.spotify.com/track/2RttW7RAu5nOAfq6YFvApB'
p208
sg8
S'Happier'
p209
ssS'5LYQSNHZxEA880URXFHg6h'
p210
(dp211
g3
S'Lana Del Rey'
p212
sg5
I3
sg6
S'https://open.spotify.com/track/5LYQSNHZxEA880URXFHg6h'
p213
sg8
S'Lust for Life (with The Weeknd)'
p214
ssS'3EmmCZoqpWOTY1g2GBwJoR'
p215
(dp216
g3
S'Steve Aoki'
p217
sg5
I22
sg6
S'https://open.spotify.com/track/3EmmCZoqpWOTY1g2GBwJoR'
p218
sg8
S'Just Hold On'
p219
ssS'2Ce5IyMlVRVvN997ZJjJJA'
p220
(dp221
g3
S'Future'
p222
sg5
I14
sg6
S'https://open.spotify.com/track/2Ce5IyMlVRVvN997ZJjJJA'
p223
sg8
S'Selfish'
p224
ssS'5hQwJOWx41wiWH305GT7pf'
p225
(dp226
g3
S'Justin Lo'
p227
sg5
I15
sg6
S'https://open.spotify.com/track/5hQwJOWx41wiWH305GT7pf'
p228
sg8
S'Kong'
p229
ssS'3eFJqPe8VUYrABbFjSauuj'
p230
(dp231
g3
S''
p232
sg5
I1
sg6
S'https://open.spotify.com/track/3eFJqPe8VUYrABbFjSauuj'
p233
sg8
g232
ssS'4hlQ99WLcKibOJLLHL3KL3'
p234
(dp235
g3
S'Ivana Wong'
p236
sg5
I16
sg6
S'https://open.spotify.com/track/4hlQ99WLcKibOJLLHL3KL3'
p237
sg8
S'\xe7\xaa\x81\xe7\x84\xb6\xe4\xb8\x80\xe7\x94\x9f\xe4\xba\xba'
p238
ssS'7KlTFTpy7dXLzr2NtLkvG6'
p239
(dp240
g3
S'BTS'
p241
sg5
I8
sg6
S'https://open.spotify.com/track/7KlTFTpy7dXLzr2NtLkvG6'
p242
sg8
S'Not Today'
p243
ssS'54LGxQGf5LPXNGjtzDZ5IE'
p244
(dp245
g3
S'Zara Larsson'
p246
sg5
I1
sg6
S'https://open.spotify.com/track/54LGxQGf5LPXNGjtzDZ5IE'
p247
sg8
S'So Good'
p248
ssS'6NBREJ4ZZX9sOOMw2OO8Nv'
p249
(dp250
g3
S'Supper Moment'
p251
sg5
I42
sg6
S'https://open.spotify.com/track/6NBREJ4ZZX9sOOMw2OO8Nv'
p252
sg8
S'\xe9\xa2\xa8\xe7\xae\x8f'
p253
ssS'4iYRa2btalAzPZoSYfROqF'
p254
(dp255
g3
S'Kendrick Lamar'
p256
sg5
I1
sg6
S'https://open.spotify.com/track/4iYRa2btalAzPZoSYfROqF'
p257
sg8
S'XXX. FEAT. U2.'
p258
ssS'0F02KChKwbcQ3tk4q1YxLH'
p259
(dp260
g3
S'Jay Chou'
p261
sg5
I37
sg6
S'https://open.spotify.com/track/0F02KChKwbcQ3tk4q1YxLH'
p262
sg8
S'\xe6\x99\xb4\xe5\xa4\xa9'
p263
ssS'6Nle9hKrkL1wQpwNfEkxjh'
p264
(dp265
g3
S'Frank Ocean'
p266
sg5
I1
sg6
S'https://open.spotify.com/track/6Nle9hKrkL1wQpwNfEkxjh'
p267
sg8
S'Chanel'
p268
ssS'4izg6Hydc6XGErWW6nbdsV'
p269
(dp270
g3
S'Imagine Dragons'
p271
sg5
I3
sg6
S'https://open.spotify.com/track/4izg6Hydc6XGErWW6nbdsV'
p272
sg8
S'Whatever It Takes'
p273
ssS'2GrYIUrAYK5TZhSh0RJV6H'
p274
(dp275
g3
S'BIGBANG'
p276
sg5
I1
sg6
S'https://open.spotify.com/track/2GrYIUrAYK5TZhSh0RJV6H'
p277
sg8
S'Fantastic Boy'
p278
ssS'4C5ewaZ05vyXM23jFJdwd4'
p279
(dp280
g3
S'Halsey'
p281
sg5
I1
sg6
S'https://open.spotify.com/track/4C5ewaZ05vyXM23jFJdwd4'
p282
sg8
S'Strangers'
p283
ssS'56lBX2WHqfGuoeZxZvUnVj'
p284
(dp285
g3
S'Imagine Dragons'
p286
sg5
I3
sg6
S'https://open.spotify.com/track/56lBX2WHqfGuoeZxZvUnVj'
p287
sg8
S'Thunder'
p288
ssS'3pzjHKrQSvXGHQ98dx18HI'
p289
(dp290
g3
S'Justin Bieber'
p291
sg5
I3
sg6
S'https://open.spotify.com/track/3pzjHKrQSvXGHQ98dx18HI'
p292
sg8
S'What Do You Mean?'
p293
ssS'000xQL6tZNLJzIrtIgxqSl'
p294
(dp295
g3
S'ZAYN'
p296
sg5
I11
sg6
S'https://open.spotify.com/track/000xQL6tZNLJzIrtIgxqSl'
p297
sg8
S'Still Got Time'
p298
ssS'52okn5MNA47tk87PeZJLEL'
p299
(dp300
g3
S'NF'
p301
sg5
I1
sg6
S'https://open.spotify.com/track/52okn5MNA47tk87PeZJLEL'
p302
sg8
S'Let You Down'
p303
ssS'7cQMJ0wDqVS5iM0JIvP6Ay'
p304
(dp305
g3
S'Fall Out Boy'
p306
sg5
I3
sg6
S'https://open.spotify.com/track/7cQMJ0wDqVS5iM0JIvP6Ay'
p307
sg8
S'The Last Of The Real Ones'
p308
ssS'1D3ODoXHBLpdxolZRHWV1j'
p309
(dp310
g3
S'Jonas Blue'
p311
sg5
I26
sg6
S'https://open.spotify.com/track/1D3ODoXHBLpdxolZRHWV1j'
p312
sg8
S'By Your Side'
p313
ssS'1CKd1PnqfYx0H12V9MSaIY'
p314
(dp315
g3
S'Zedd'
p316
sg5
I10
sg6
S'https://open.spotify.com/track/1CKd1PnqfYx0H12V9MSaIY'
p317
sg8
S'Get Low (with Liam Payne)'
p318
ssS'042x9bsUBWW2fJgJ6fUh61'
p319
(dp320
g3
S'DVBBS'
p321
sg5
I12
sg6
S'https://open.spotify.com/track/042x9bsUBWW2fJgJ6fUh61'
p322
sg8
S'Not Going Home'
p323
ssS'2DGa7iaidT5s0qnINlwMjJ'
p324
(dp325
g3
S'Alan Walker'
p326
sg5
I4
sg6
S'https://open.spotify.com/track/2DGa7iaidT5s0qnINlwMjJ'
p327
sg8
S'The Spectre'
p328
ssS'5CtI0qwDJkDQGwXD1H1cLb'
p329
(dp330
g3
S'Luis Fonsi'
p331
sg5
I26
sg6
S'https://open.spotify.com/track/5CtI0qwDJkDQGwXD1H1cLb'
p332
sg8
S'Despacito - Remix'
p333
ssS'7m9OqQk4RVRkw9JJdeAw96'
p334
(dp335
g3
S'XXXTENTACION'
p336
sg5
I7
sg6
S'https://open.spotify.com/track/7m9OqQk4RVRkw9JJdeAw96'
p337
sg8
S'Jocelyn Flores'
p338
ssS'343YBumqHu19cGoGARUTsd'
p339
(dp340
g3
S'Drake'
p341
sg5
I14
sg6
S'https://open.spotify.com/track/343YBumqHu19cGoGARUTsd'
p342
sg8
S'Fake Love'
p343
ssS'6jIpuClSFwyBoGTwwpkKU5'
p344
(dp345
g3
S'TWICE'
p346
sg5
I6
sg6
S'https://open.spotify.com/track/6jIpuClSFwyBoGTwwpkKU5'
p347
sg8
S'CHEER UP'
p348
ssS'0Nhu3zSYbEz32IYiobV75e'
p349
(dp350
g3
S'Halsey'
p351
sg5
I10
sg6
S'https://open.spotify.com/track/0Nhu3zSYbEz32IYiobV75e'
p352
sg8
S'Now Or Never'
p353
ssS'5MYYcO1VqkswRwl2DQQ7xN'
p354
(dp355
g3
S'Ivana Wong'
p356
sg5
I1
sg6
S'https://open.spotify.com/track/5MYYcO1VqkswRwl2DQQ7xN'
p357
sg8
S'\xe5\xbf\x98\xe8\xa8\x98\xe6\x9c\x89\xe6\x99\x82'
p358
ssS'3zJw3rugfpVrmBeDDnUYzy'
p359
(dp360
g3
S'John Lennon'
p361
sg5
I1
sg6
S'https://open.spotify.com/track/3zJw3rugfpVrmBeDDnUYzy'
p362
sg8
S'Happy Xmas (War Is Over) - 2010 Digital Remaster'
p363
ssS'1a5Yu5L18qNxVhXx38njON'
p364
(dp365
g3
S'Alok'
p366
sg5
I11
sg6
S'https://open.spotify.com/track/1a5Yu5L18qNxVhXx38njON'
p367
sg8
S'Hear Me Now'
p368
ssS'1Eck97uRMlprKOOJN9oO1E'
p369
(dp370
g3
S'G-Eazy'
p371
sg5
I21
sg6
S'https://open.spotify.com/track/1Eck97uRMlprKOOJN9oO1E'
p372
sg8
S'Good Life (with G-Eazy & Kehlani)'
p373
ssS'7ARveOiD31w2Nq0n5FsSf8'
p374
(dp375
g3
S'Lorde'
p376
sg5
I1
sg6
S'https://open.spotify.com/track/7ARveOiD31w2Nq0n5FsSf8'
p377
sg8
S'Perfect Places'
p378
ssS'2ekn2ttSfGqwhhate0LSR0'
p379
(dp380
g3
S'Dua Lipa'
p381
sg5
I13
sg6
S'https://open.spotify.com/track/2ekn2ttSfGqwhhate0LSR0'
p382
sg8
S'New Rules'
p383
ssS'6d07WYgpKGBO5yRJNx1vXY'
p384
(dp385
g3
S'Feanna Wong'
p386
sg5
I1
sg6
S'https://open.spotify.com/track/6d07WYgpKGBO5yRJNx1vXY'
p387
sg8
S'\xe5\xb7\xae\xe4\xb8\x80\xe9\xbb\x9e\xe6\x88\x91\xe5\x80\x91\xe6\x9c\x83\xe9\xa3\x9b - \xe9\x9b\xbb\xe5\xbd\xb1\xe3\x80\x8c\xe5\x93\xaa\xe4\xb8\x80\xe5\xa4\xa9\xe6\x88\x91\xe5\x80\x91\xe6\x9c\x83\xe9\xa3\x9b\xe3\x80\x8d\xe4\xb8\xbb\xe9\xa1\x8c\xe6\x9b\xb2'
p388
ssS'7nAfXgeHfDO50upcOjJOaq'
p389
(dp390
g3
S'Linkin Park'
p391
sg5
I2
sg6
S'https://open.spotify.com/track/7nAfXgeHfDO50upcOjJOaq'
p392
sg8
S'Talking to Myself'
p393
ssS'1sCxVKWImDZSZKvG0U9B23'
p394
(dp395
g3
S'Selena Gomez'
p396
sg5
I16
sg6
S'https://open.spotify.com/track/1sCxVKWImDZSZKvG0U9B23'
p397
sg8
S'Bad Liar'
p398
ssS'6jmngk8Fwup05JZ6kgXEGX'
p399
(dp400
g3
S'Imagine Dragons'
p401
sg5
I2
sg6
S'https://open.spotify.com/track/6jmngk8Fwup05JZ6kgXEGX'
p402
sg8
S'Walking The Wire'
p403
ssS'2uSLx5uwRIhiA3sJJraNqX'
p404
(dp405
g3
S'Maroon 5'
p406
sg5
I1
sg6
S'https://open.spotify.com/track/2uSLx5uwRIhiA3sJJraNqX'
p407
sg8
S'Help Me Out (with Julia Michaels)'
p408
ssS'6V9kwssTrwkKT72imgowj9'
p409
(dp410
g3
S'The Chainsmokers'
p411
sg5
I2
sg6
S'https://open.spotify.com/track/6V9kwssTrwkKT72imgowj9'
p412
sg8
S'My Type'
p413
ssS'7gMJDavVEw4jDdFp0RNFP6'
p414
(dp415
g3
S'Juno Mak'
p416
sg5
I42
sg6
S'https://open.spotify.com/track/7gMJDavVEw4jDdFp0RNFP6'
p417
sg8
S'\xe7\xbe\x85\xe7\x94\x9f\xe9\x96\x80'
p418
ssS'7pcTLUekZJQnzDOUDuExVJ'
p419
(dp420
g3
S'DAOKO\xc3\x97\xe7\xb1\xb3\xe6\xb4\xa5\xe7\x8e\x84\xe5\xb8\xab'
p421
sg5
I2
sg6
S'https://open.spotify.com/track/7pcTLUekZJQnzDOUDuExVJ'
p422
sg8
S'\xe6\x89\x93\xe4\xb8\x8a\xe8\x8a\xb1\xe7\x81\xab'
p423
ssS'4VrWlk8IQxevMvERoX08iC'
p424
(dp425
g3
S'Sia'
p426
sg5
I3
sg6
S'https://open.spotify.com/track/4VrWlk8IQxevMvERoX08iC'
p427
sg8
S'Chandelier'
p428
ssS'7vAXN57IQ0sj049wZGIboE'
p429
(dp430
g3
S'Imagine Dragons'
p431
sg5
I1
sg6
S'https://open.spotify.com/track/7vAXN57IQ0sj049wZGIboE'
p432
sg8
S'Rise Up'
p433
ssS'3TRFq09DUgYj1mug6RRqJW'
p434
(dp435
g3
S'Luke Christopher'
p436
sg5
I18
sg6
S'https://open.spotify.com/track/3TRFq09DUgYj1mug6RRqJW'
p437
sg8
S'Lot to Learn'
p438
ssS'6O6M7pJLABmfBRoGZMu76Y'
p439
(dp440
g3
S'The Chainsmokers'
p441
sg5
I16
sg6
S'https://open.spotify.com/track/6O6M7pJLABmfBRoGZMu76Y'
p442
sg8
S'Roses'
p443
ssS'1rIKgCH4H52lrvDcz50hS8'
p444
(dp445
g3
S'Zara Larsson'
p446
sg5
I2
sg6
S'https://open.spotify.com/track/1rIKgCH4H52lrvDcz50hS8'
p447
sg8
S'Lush Life'
p448
ssS'074PLP0jXNMhbqbLYHjlJu'
p449
(dp450
g3
S'Fiona Sit'
p451
sg5
I1
sg6
S'https://open.spotify.com/track/074PLP0jXNMhbqbLYHjlJu'
p452
sg8
S'\xe5\x8d\x81\xe5\xb9\xb4\xe5\xbe\x8c\xe7\x9a\x84\xe6\x88\x91'
p453
ssS'1Bjy9ZtwMle3uhVgoBgiGN'
p454
(dp455
g3
S"Girls' Generation"
p456
sg5
I3
sg6
S'https://open.spotify.com/track/1Bjy9ZtwMle3uhVgoBgiGN'
p457
sg8
S'Holiday'
p458
ssS'1nMbZ9OsVNSLEyijI80EST'
p459
(dp460
g3
S'TWICE'
p461
sg5
I28
sg6
S'https://open.spotify.com/track/1nMbZ9OsVNSLEyijI80EST'
p462
sg8
S'TT'
p463
ssS'0Rg6hoXD1wBiOFZ4pmzoWh'
p464
(dp465
g3
S'C\xc3\xa9line Dion'
p466
sg5
I3
sg6
S'https://open.spotify.com/track/0Rg6hoXD1wBiOFZ4pmzoWh'
p467
sg8
S'How Does A Moment Last Forever'
p468
ssS'1up4mLCtunt9gKyaQHSJpn'
p469
(dp470
g3
S'Supper Moment'
p471
sg5
I3
sg6
S'https://open.spotify.com/track/1up4mLCtunt9gKyaQHSJpn'
p472
sg8
S'\xe6\xb2\x99\xe7\x87\x95\xe4\xb9\x8b\xe6\xad\x8c - \xe9\x9b\xbb\xe5\xbd\xb1 : \xe9\xbb\x9e\xe4\xba\x94\xe6\xad\xa5 \xe4\xb8\xbb\xe9\xa1\x8c\xe6\x9b\xb2'
p473
ssS'3xSCLxQ5YLyW9ae76m0sPB'
p474
(dp475
g3
S'Eason Chan'
p476
sg5
I3
sg6
S'https://open.spotify.com/track/3xSCLxQ5YLyW9ae76m0sPB'
p477
sg8
S'\xe6\xad\xb2\xe6\x9c\x88\xe5\xa6\x82\xe6\xad\x8c'
p478
ssS'7129iqBafaphfc3WPCGC0L'
p479
(dp480
g3
S'Lukas Graham'
p481
sg5
I23
sg6
S'https://open.spotify.com/track/7129iqBafaphfc3WPCGC0L'
p482
sg8
S'7 Years'
p483
ssS'331aol4yMUVA93MsVBZV9R'
p484
(dp485
g3
S'Justin Lo'
p486
sg5
I42
sg6
S'https://open.spotify.com/track/331aol4yMUVA93MsVBZV9R'
p487
sg8
S'\xe5\x91\xbd\xe7\xa1\xac'
p488
ssS'57p8CBvPOxrvyCbn6ttl5r'
p489
(dp490
g3
S'Skrillex'
p491
sg5
I10
sg6
S'https://open.spotify.com/track/57p8CBvPOxrvyCbn6ttl5r'
p492
sg8
S'Would You Ever'
p493
ssS'7vGuf3Y35N4wmASOKLUVVU'
p494
(dp495
g3
S'Marshmello'
p496
sg5
I9
sg6
S'https://open.spotify.com/track/7vGuf3Y35N4wmASOKLUVVU'
p497
sg8
S'Silence'
p498
ssS'0CcQNd8CINkwQfe1RDtGV6'
p499
(dp500
g3
S'Imagine Dragons'
p501
sg5
I33
sg6
S'https://open.spotify.com/track/0CcQNd8CINkwQfe1RDtGV6'
p502
sg8
S'Believer'
p503
ssS'7oolFzHipTMg2nL7shhdz2'
p504
(dp505
g3
S'Ed Sheeran'
p506
sg5
I4
sg6
S'https://open.spotify.com/track/7oolFzHipTMg2nL7shhdz2'
p507
sg8
S'Eraser'
p508
ssS'4Yf5bqU3NK4kNOypcrLYwU'
p509
(dp510
g3
S'Linkin Park'
p511
sg5
I1
sg6
S'https://open.spotify.com/track/4Yf5bqU3NK4kNOypcrLYwU'
p512
sg8
S'Faint'
p513
ssS'7BKLCZ1jbUBVqRi2FVlTVw'
p514
(dp515
g3
S'The Chainsmokers'
p516
sg5
I42
sg6
S'https://open.spotify.com/track/7BKLCZ1jbUBVqRi2FVlTVw'
p517
sg8
S'Closer'
p518
ssS'3NdDpSvN911VPGivFlV5d0'
p519
(dp520
g3
S'ZAYN'
p521
sg5
I42
sg6
S'https://open.spotify.com/track/3NdDpSvN911VPGivFlV5d0'
p522
sg8
S'I Don\xe2\x80\x99t Wanna Live Forever (Fifty Shades Darker) - From Fifty Shades Darker (Original Motion Picture Soundtrack)'
p523
ssS'3gGHAScxUDsJqcAM6ZvjuH'
p524
(dp525
g3
S'John Legend'
p526
sg5
I6
sg6
S'https://open.spotify.com/track/3gGHAScxUDsJqcAM6ZvjuH'
p527
sg8
S'Start A Fire'
p528
ssS'1iZvTeOXaLf9sE3FowtbG9'
p529
(dp530
g3
S'Janice Vidal'
p531
sg5
I11
sg6
S'https://open.spotify.com/track/1iZvTeOXaLf9sE3FowtbG9'
p532
sg8
S'\xe5\xa4\xa9\xe6\x95\xb5'
p533
ssS'0nmJE2cYELMVmrVaRUtdtx'
p534
(dp535
g3
S'Hins Cheung'
p536
sg5
I2
sg6
S'https://open.spotify.com/track/0nmJE2cYELMVmrVaRUtdtx'
p537
sg8
S'\xe9\xa4\x98\xe9\x9c\x87'
p538
ssS'3H9gYJcdtqeUiM8WX8YrZz'
p539
(dp540
g3
S'Wilfred Lau'
p541
sg5
I21
sg6
S'https://open.spotify.com/track/3H9gYJcdtqeUiM8WX8YrZz'
p542
sg8
S'\xe6\x80\x9d\xe8\xa6\xba\xe5\xa4\xb1\xe8\xaa\xbf'
p543
ssS'6wV12xIUb8oFY7lBy4KuQe'
p544
(dp545
g3
S'Aaron Carter'
p546
sg5
I10
sg6
S'https://open.spotify.com/track/6wV12xIUb8oFY7lBy4KuQe'
p547
sg8
S'Sooner Or Later'
p548
ssS'632VyMrvhsHIsO4zq9khts'
p549
(dp550
g3
S'JJ Lin'
p551
sg5
I42
sg6
S'https://open.spotify.com/track/632VyMrvhsHIsO4zq9khts'
p552
sg8
S'\xe5\xa5\xb9\xe8\xaa\xaa'
p553
ssS'7q8jJ1XZEliBakZSUMFde5'
p554
(dp555
g3
S'Cheat Codes'
p556
sg5
I16
sg6
S'https://open.spotify.com/track/7q8jJ1XZEliBakZSUMFde5'
p557
sg8
S'Stay With You'
p558
ssS'2SR8QbdNfzA3SUv4rt33sJ'
p559
(dp560
g3
S'Justin Hurwitz'
p561
sg5
I6
sg6
S'https://open.spotify.com/track/2SR8QbdNfzA3SUv4rt33sJ'
p562
sg8
S'Herman\xe2\x80\x99s Habit - From La La Land Soundtrack'
p563
ssS'2eMwDehkIC1j68U6FA3Eiq'
p564
(dp565
g3
S'Lil Uzi Vert'
p566
sg5
I17
sg6
S'https://open.spotify.com/track/2eMwDehkIC1j68U6FA3Eiq'
p567
sg8
S'XO TOUR Llif3'
p568
ssS'7Hz6LLOVxrojLPIHJJ1S0E'
p569
(dp570
g3
S'Sam Smith'
p571
sg5
I1
sg6
S'https://open.spotify.com/track/7Hz6LLOVxrojLPIHJJ1S0E'
p572
sg8
S'Have Yourself A Merry Little Christmas'
p573
ssS'3CRDbSIZ4r5MsZ0YwxuEkn'
p574
(dp575
g3
S'Twenty One Pilots'
p576
sg5
I3
sg6
S'https://open.spotify.com/track/3CRDbSIZ4r5MsZ0YwxuEkn'
p577
sg8
S'Stressed Out'
p578
ssS'6mICuAdrwEjh6Y6lroV2Kg'
p579
(dp580
g3
S'Shakira'
p581
sg5
I7
sg6
S'https://open.spotify.com/track/6mICuAdrwEjh6Y6lroV2Kg'
p582
sg8
S'Chantaje'
p583
ssS'67BbMuItfrHmaNqDxBPF7c'
p584
(dp585
g3
S'BLACKPINK'
p586
sg5
I2
sg6
S'https://open.spotify.com/track/67BbMuItfrHmaNqDxBPF7c'
p587
sg8
S'WHISTLE - KR Ver.'
p588
ssS'3MooAR0niDCEgMVd1UdPjG'
p589
(dp590
g3
S'Edmond Leung'
p591
sg5
I10
sg6
S'https://open.spotify.com/track/3MooAR0niDCEgMVd1UdPjG'
p592
sg8
S'\xe4\xb8\x83\xe5\x8f\x8b'
p593
ssS'7gHs73wELdeycvS48JfIos'
p594
(dp595
g3
S'Alan Walker'
p596
sg5
I42
sg6
S'https://open.spotify.com/track/7gHs73wELdeycvS48JfIos'
p597
sg8
S'Faded'
p598
ssS'12ip0ceCeszDTDFxDY1AXJ'
p599
(dp600
g3
S'Avicii'
p601
sg5
I1
sg6
S'https://open.spotify.com/track/12ip0ceCeszDTDFxDY1AXJ'
p602
sg8
S'You Be Love (feat. Billy Raffoul)'
p603
ssS'3hDyV9IdZ9FMkN5fGb21ex'
p604
(dp605
g3
S'Endy Chow'
p606
sg5
I4
sg6
S'https://open.spotify.com/track/3hDyV9IdZ9FMkN5fGb21ex'
p607
sg8
S'\xe4\xbb\x8a\xe7\x94\x9f\xe4\xb8\x8d\xe5\x9b\x9e\xe5\xae\xb6'
p608
ssS'1Zyd6zQnC6XIIzmg3hP7Ot'
p609
(dp610
g3
S'BLACKPINK'
p611
sg5
I6
sg6
S'https://open.spotify.com/track/1Zyd6zQnC6XIIzmg3hP7Ot'
p612
sg8
S"As If It's Your Last"
p613
ssS'00lNx0OcTJrS3MKHcB80HY'
p614
(dp615
g3
S'Jax Jones'
p616
sg5
I10
sg6
S'https://open.spotify.com/track/00lNx0OcTJrS3MKHcB80HY'
p617
sg8
S"You Don't Know Me - Radio Edit"
p618
ssS'2s76aKBWKShlwPC4xTtEEE'
p619
(dp620
g3
S'State of Sound'
p621
sg5
I3
sg6
S'https://open.spotify.com/track/2s76aKBWKShlwPC4xTtEEE'
p622
sg8
S'Wake Up Where You Are'
p623
ssS'5ffwnb6hqsKZp8cG6q90OW'
p624
(dp625
g3
S'Coldplay'
p626
sg5
I1
sg6
S'https://open.spotify.com/track/5ffwnb6hqsKZp8cG6q90OW'
p627
sg8
S'Something Just Like This - Tokyo Remix'
p628
ssS'0OY3anAsi7yBJQqmeOPNsg'
p629
(dp630
g3
S'Dear Jane'
p631
sg5
I13
sg6
S'https://open.spotify.com/track/0OY3anAsi7yBJQqmeOPNsg'
p632
sg8
S'\xe7\x84\xa1\xe5\x8f\xaf\xe9\x81\xbf\xe5\x85\x8d'
p633
ssS'6t2ubAB4iSYOuIpRAOGd4t'
p634
(dp635
g3
S'Flo Rida'
p636
sg5
I13
sg6
S'https://open.spotify.com/track/6t2ubAB4iSYOuIpRAOGd4t'
p637
sg8
S'Cake'
p638
ssS'4nDfc6F2uVcc6wdG7kBzWO'
p639
(dp640
g3
S'Nick Jonas'
p641
sg5
I1
sg6
S'https://open.spotify.com/track/4nDfc6F2uVcc6wdG7kBzWO'
p642
sg8
S'Bom Bidi Bom - From Fifty Shades Darker (Original Motion Picture Soundtrack)'
p643
ssS'0dj1CtyRxZ4bnIT4Q20jNT'
p644
(dp645
g3
S'The Chainsmokers'
p646
sg5
I1
sg6
S'https://open.spotify.com/track/0dj1CtyRxZ4bnIT4Q20jNT'
p647
sg8
S'Wake Up Alone'
p648
ssS'0fg8CqpjdojMyXLNzM2PaJ'
p649
(dp650
g3
S'Major Lazer'
p651
sg5
I15
sg6
S'https://open.spotify.com/track/0fg8CqpjdojMyXLNzM2PaJ'
p652
sg8
S'Run Up (feat. PARTYNEXTDOOR & Nicki Minaj)'
p653
ssS'6uFsE1JgZ20EXyU0JQZbUR'
p654
(dp655
g3
S'Taylor Swift'
p656
sg5
I7
sg6
S'https://open.spotify.com/track/6uFsE1JgZ20EXyU0JQZbUR'
p657
sg8
S'Look What You Made Me Do'
p658
ssS'0jFHMDRXxKaREor3hBEEST'
p659
(dp660
g3
S'SUNMI'
p661
sg5
I6
sg6
S'https://open.spotify.com/track/0jFHMDRXxKaREor3hBEEST'
p662
sg8
S'Gashina'
p663
ssS'2BPXILn0MqOe5WroVXlvN1'
p664
(dp665
g3
S'Ailee'
p666
sg5
I7
sg6
S'https://open.spotify.com/track/2BPXILn0MqOe5WroVXlvN1'
p667
sg8
S'I will go to you like the first snow'
p668
ssS'0StuO1Spn9uXwcnR8R523C'
p669
(dp670
g3
S'Joey Yung'
p671
sg5
I3
sg6
S'https://open.spotify.com/track/0StuO1Spn9uXwcnR8R523C'
p672
sg8
S'\xe7\x97\x9b\xe6\x84\x9b'
p673
ssS'1Us7HBNaxMEaS4W5IUK882'
p674
(dp675
g3
S'Supper Moment'
p676
sg5
I42
sg6
S'https://open.spotify.com/track/1Us7HBNaxMEaS4W5IUK882'
p677
sg8
S'\xe5\xb9\xb8\xe7\xa6\x8f\xe4\xb9\x8b\xe6\xad\x8c'
p678
ssS'4xBjsLUSjcx2h7PcRikpQp'
p679
(dp680
g3
S'Camila Cabello'
p681
sg5
I10
sg6
S'https://open.spotify.com/track/4xBjsLUSjcx2h7PcRikpQp'
p682
sg8
S'OMG'
p683
ssS'7GX5flRQZVHRAGd6B4TmDO'
p684
(dp685
g3
S'Lil Uzi Vert'
p686
sg5
I7
sg6
S'https://open.spotify.com/track/7GX5flRQZVHRAGd6B4TmDO'
p687
sg8
S'XO TOUR Llif3'
p688
ssS'0oSNOJEcBIKNcQzRc5TfyR'
p689
(dp690
g3
S'BTS'
p691
sg5
I13
sg6
S'https://open.spotify.com/track/0oSNOJEcBIKNcQzRc5TfyR'
p692
sg8
S'Blood Sweat & Tears'
p693
ssS'4F7A0DXBrmUAkp32uenhZt'
p694
(dp695
g3
S'The Weeknd'
p696
sg5
I4
sg6
S'https://open.spotify.com/track/4F7A0DXBrmUAkp32uenhZt'
p697
sg8
S'Party Monster'
p698
ssS'5kRPPEWFJIMox5qIkQkiz5'
p699
(dp700
g3
S'Harry Styles'
p701
sg5
I3
sg6
S'https://open.spotify.com/track/5kRPPEWFJIMox5qIkQkiz5'
p702
sg8
S'Sweet Creature'
p703
ssS'0CokSRCu5hZgPxcZBaEzVE'
p704
(dp705
g3
S'Macklemore'
p706
sg5
I3
sg6
S'https://open.spotify.com/track/0CokSRCu5hZgPxcZBaEzVE'
p707
sg8
S'Glorious (feat. Skylar Grey)'
p708
ssS'1W3mTAGO3ecMb1xWb5lnNO'
p709
(dp710
g3
S'Hins Cheung'
p711
sg5
I28
sg6
S'https://open.spotify.com/track/1W3mTAGO3ecMb1xWb5lnNO'
p712
sg8
S'\xe6\x98\xa5\xe7\xa7\x8b'
p713
ssS'1mgRnm7MhmaMixc5w3huis'
p714
(dp715
g3
S'Mayday'
p716
sg5
I3
sg6
S'https://open.spotify.com/track/1mgRnm7MhmaMixc5w3huis'
p717
sg8
S'\xe6\x88\x91\xe4\xb8\x8d\xe9\xa1\x98\xe8\xae\x93\xe4\xbd\xa0\xe4\xb8\x80\xe5\x80\x8b\xe4\xba\xba'
p718
ssS'2SLjuVYSrcUhZmpBokuupj'
p719
(dp720
g3
S'Janice Vidal'
p721
sg5
I11
sg6
S'https://open.spotify.com/track/2SLjuVYSrcUhZmpBokuupj'
p722
sg8
S'\xe9\xa9\x97\xe5\x82\xb7'
p723
ssS'75ZvA4QfFiZvzhj2xkaWAh'
p724
(dp725
g3
S'Post Malone'
p726
sg5
I2
sg6
S'https://open.spotify.com/track/75ZvA4QfFiZvzhj2xkaWAh'
p727
sg8
S'I Fall Apart'
p728
ssS'1sTUEdVO85YU8Ymk2jeAls'
p729
(dp730
g3
S'MiC LOWRY'
p731
sg5
I5
sg6
S'https://open.spotify.com/track/1sTUEdVO85YU8Ymk2jeAls'
p732
sg8
S'Oh Lord'
p733
ssS'4kflIGfjdZJW4ot2ioixTB'
p734
(dp735
g3
S'Adele'
p736
sg5
I1
sg6
S'https://open.spotify.com/track/4kflIGfjdZJW4ot2ioixTB'
p737
sg8
S'Someone Like You'
p738
ssS'7hDc8b7IXETo14hHIHdnhd'
p739
(dp740
g3
S'Drake'
p741
sg5
I18
sg6
S'https://open.spotify.com/track/7hDc8b7IXETo14hHIHdnhd'
p742
sg8
S'Passionfruit'
p743
ssS'3RiPr603aXAoi4GHyXx0uy'
p744
(dp745
g3
S'Coldplay'
p746
sg5
I1
sg6
S'https://open.spotify.com/track/3RiPr603aXAoi4GHyXx0uy'
p747
sg8
S'Hymn For The Weekend'
p748
ssS'7nKQ5WAcjnG48knyLuo8gO'
p749
(dp750
g3
S'Red Velvet'
p751
sg5
I4
sg6
S'https://open.spotify.com/track/7nKQ5WAcjnG48knyLuo8gO'
p752
sg8
S'\xeb\xb9\xa8\xea\xb0\x84 \xeb\xa7\x9b Red Flavor'
p753
ssS'3zHq9ouUJQFQRf3cm1rRLu'
p754
(dp755
g3
S'Ellie Goulding'
p756
sg5
I1
sg6
S'https://open.spotify.com/track/3zHq9ouUJQFQRf3cm1rRLu'
p757
sg8
S'Love Me Like You Do - From Fifty Shades Of Grey'
p758
ssS'0Z9HQ8YvHqdeOjTwsR3cS7'
p759
(dp760
g3
S'Moon Taxi'
p761
sg5
I1
sg6
S'https://open.spotify.com/track/0Z9HQ8YvHqdeOjTwsR3cS7'
p762
sg8
S'Two High'
p763
ssS'2LTlO3NuNVN70lp2ZbVswF'
p764
(dp765
g3
S'Kendrick Lamar'
p766
sg5
I1
sg6
S'https://open.spotify.com/track/2LTlO3NuNVN70lp2ZbVswF'
p767
sg8
S'FEEL.'
p768
ssS'2lNW5QL7nedgPJJo0ajYsj'
p769
(dp770
g3
S'Jason Chan'
p771
sg5
I8
sg6
S'https://open.spotify.com/track/2lNW5QL7nedgPJJo0ajYsj'
p772
sg8
S'\xe5\x91\x8a\xe5\x88\xa5\xe4\xb9\x8b\xe5\x89\x8d'
p773
ssS'7HBnZdg7fIQwqMhQhci0VV'
p774
(dp775
g3
S'Coldplay'
p776
sg5
I1
sg6
S'https://open.spotify.com/track/7HBnZdg7fIQwqMhQhci0VV'
p777
sg8
S'Hypnotised - EP Mix'
p778
ssS'1eVRnmGhDPATPxz6kqWuCP'
p779
(dp780
g3
S'Julia Michaels'
p781
sg5
I2
sg6
S'https://open.spotify.com/track/1eVRnmGhDPATPxz6kqWuCP'
p782
sg8
S'Uh Huh'
p783
ssS'3CEs5Jnov3YkmYn0Vezrcr'
p784
(dp785
g3
S'Wanna One'
p786
sg5
I4
sg6
S'https://open.spotify.com/track/3CEs5Jnov3YkmYn0Vezrcr'
p787
sg8
S'Energetic'
p788
ssS'3byg5BtnxICWdXAcCgjJWm'
p789
(dp790
g3
S'Kwan Gor'
p791
sg5
I11
sg6
S'https://open.spotify.com/track/3byg5BtnxICWdXAcCgjJWm'
p792
sg8
S'\xe5\x8e\x9f\xe4\xbe\x86\xe5\x8f\xaa\xe5\x9b\xa0\xe6\xb7\xb1\xe6\x84\x9b\xe8\x91\x97'
p793
ssS'5gcA28rUaSsEOM5g7Q5wF5'
p794
(dp795
g3
S'Justin Hurwitz'
p796
sg5
I6
sg6
S'https://open.spotify.com/track/5gcA28rUaSsEOM5g7Q5wF5'
p797
sg8
S'Planetarium - From La La Land Soundtrack'
p798
ssS'0XLOf9LhyazPX9Ld8jPiUq'
p799
(dp800
g3
S'Selena Gomez'
p801
sg5
I12
sg6
S'https://open.spotify.com/track/0XLOf9LhyazPX9Ld8jPiUq'
p802
sg8
S'Fetish (feat. Gucci Mane)'
p803
ssS'5qHBW0JE5hE3Uq5Vlu4gP9'
p804
(dp805
g3
S'Alfred Hui'
p806
sg5
I17
sg6
S'https://open.spotify.com/track/5qHBW0JE5hE3Uq5Vlu4gP9'
p807
sg8
S'\xe6\xa0\xb9 (feat. 2868)'
p808
ssS'0kN8xEmgMW9mh7UmDYHlJP'
p809
(dp810
g3
S'Bruno Mars'
p811
sg5
I42
sg6
S'https://open.spotify.com/track/0kN8xEmgMW9mh7UmDYHlJP'
p812
sg8
S'Versace On The Floor'
p813
ssS'1yxgsra98r3qAtxqiGZPiX'
p814
(dp815
g3
S'Travis Scott'
p816
sg5
I12
sg6
S'https://open.spotify.com/track/1yxgsra98r3qAtxqiGZPiX'
p817
sg8
S'Butterfly Effect'
p818
ssS'06EMBzxDm2hueehobAlMtm'
p819
(dp820
g3
S'IU'
p821
sg5
I1
sg6
S'https://open.spotify.com/track/06EMBzxDm2hueehobAlMtm'
p822
sg8
S'Ending Scene'
p823
ssS'0Clb9aiXWa0dvVff5aN4VN'
p824
(dp825
g3
S'Astrid S'
p826
sg5
I1
sg6
S'https://open.spotify.com/track/0Clb9aiXWa0dvVff5aN4VN'
p827
sg8
S'Think Before I Talk'
p828
ssS'3xXBsjrbG1xQIm1xv1cKOt'
p829
(dp830
g3
S'Linkin Park'
p831
sg5
I2
sg6
S'https://open.spotify.com/track/3xXBsjrbG1xQIm1xv1cKOt'
p832
sg8
S'One More Light'
p833
ssS'4if8FSvGsWhOGTLAbKxeZV'
p834
(dp835
g3
S'Kwan Gor'
p836
sg5
I2
sg6
S'https://open.spotify.com/track/4if8FSvGsWhOGTLAbKxeZV'
p837
sg8
S'\xe5\x85\xb5\xe5\x85\xb5 - [\xe5\xbc\xb5\xe6\x99\xba\xe9\x9c\x96 + \xe5\x90\xb3\xe6\xa5\xad\xe5\x9d\xa4]'
p838
ssS'3A7qX2QjDlPnazUsRk5y0M'
p839
(dp840
g3
S'David Guetta'
p841
sg5
I17
sg6
S'https://open.spotify.com/track/3A7qX2QjDlPnazUsRk5y0M'
p842
sg8
S'2U (feat. Justin Bieber)'
p843
ssS'6A8dnC0xkiuWN4BshmTB2I'
p844
(dp845
g3
S'A R I Z O N A'
p846
sg5
I11
sg6
S'https://open.spotify.com/track/6A8dnC0xkiuWN4BshmTB2I'
p847
sg8
S'Oceans Away'
p848
ssS'6oHNXUrt4s5JJIM1WoOwsZ'
p849
(dp850
g3
S'Dear Jane'
p851
sg5
I42
sg6
S'https://open.spotify.com/track/6oHNXUrt4s5JJIM1WoOwsZ'
p852
sg8
S'\xe5\x93\xaa\xe8\xa3\xa1\xe5\x8f\xaa\xe5\xbe\x97\xe6\x88\x91\xe5\x85\xb1\xe4\xbd\xa0'
p853
ssS'2OALaHcDdKkjYEpAr0Qzab'
p854
(dp855
g3
S'Avicii'
p856
sg5
I9
sg6
S'https://open.spotify.com/track/2OALaHcDdKkjYEpAr0Qzab'
p857
sg8
S'Lonely Together (feat. Rita Ora)'
p858
ssS'5RWTkdVC1ty7bMB6oqAlwh'
p859
(dp860
g3
S'Alex Fong'
p861
sg5
I21
sg6
S'https://open.spotify.com/track/5RWTkdVC1ty7bMB6oqAlwh'
p862
sg8
S'\xe5\xa5\xbd\xe5\xbf\x83\xe5\xa5\xbd\xe5\xa0\xb1 - \xe5\x90\x88\xe5\x94\xb1'
p863
ssS'0XfOi87h82i09rQjWYG0Bm'
p864
(dp865
g3
S'Jax Jones'
p866
sg5
I4
sg6
S'https://open.spotify.com/track/0XfOi87h82i09rQjWYG0Bm'
p867
sg8
S'Instruction (feat. Demi Lovato & Stefflon Don)'
p868
ssS'4IWAyPf1KMq7JCyGeCjTeH'
p869
(dp870
g3
S'Imagine Dragons'
p871
sg5
I8
sg6
S'https://open.spotify.com/track/4IWAyPf1KMq7JCyGeCjTeH'
p872
sg8
S'Whatever It Takes'
p873
ssS'1AJQ97yAt6xfeF7nQaE1t8'
p874
(dp875
g3
S'Imagine Dragons'
p876
sg5
I1
sg6
S'https://open.spotify.com/track/1AJQ97yAt6xfeF7nQaE1t8'
p877
sg8
S'Walking The Wire'
p878
ssS'0ZExP2I5Ej92PsnG4G1jVG'
p879
(dp880
g3
S'Julia Michaels'
p881
sg5
I4
sg6
S'https://open.spotify.com/track/0ZExP2I5Ej92PsnG4G1jVG'
p882
sg8
S'Uh Huh'
p883
ssS'3Q3myFA7q4Op95DOpHplaY'
p884
(dp885
g3
S'blackbear'
p886
sg5
I7
sg6
S'https://open.spotify.com/track/3Q3myFA7q4Op95DOpHplaY'
p887
sg8
S'do re mi'
p888
ssS'17zR3JBL1iFlPt7CqH7Yt0'
p889
(dp890
g3
S'Jason Chan'
p891
sg5
I3
sg6
S'https://open.spotify.com/track/17zR3JBL1iFlPt7CqH7Yt0'
p892
sg8
S'\xe7\xa3\x9a\xe9\xa0\xad'
p893
ssS'4Pr4sdIX20OJiYPBEtiFpj'
p894
(dp895
g3
S'Gin Lee'
p896
sg5
I1
sg6
S'https://open.spotify.com/track/4Pr4sdIX20OJiYPBEtiFpj'
p897
sg8
S'\xe5\xa4\xa9\xe8\xae\x8a\xe5\x9c\xb0\xe8\xae\x8a\xe6\x83\x85\xe4\xb8\x8d\xe8\xae\x8a'
p898
ssS'0WCEaydwN65cvwaW8aqptF'
p899
(dp900
g3
S'Olivia Holt'
p901
sg5
I21
sg6
S'https://open.spotify.com/track/0WCEaydwN65cvwaW8aqptF'
p902
sg8
S'History'
p903
ssS'3FiE2d325mIOc4YjkSLVJR'
p904
(dp905
g3
S'Ariana Grande'
p906
sg5
I7
sg6
S'https://open.spotify.com/track/3FiE2d325mIOc4YjkSLVJR'
p907
sg8
S'Everyday'
p908
ssS'44OSnRjkxmkB6TAyoJI8GU'
p909
(dp910
g3
S'Ruco Chan'
p911
sg5
I16
sg6
S'https://open.spotify.com/track/44OSnRjkxmkB6TAyoJI8GU'
p912
sg8
S'\xe5\xbe\x9e\xe6\x9c\xaa\xe7\x9f\xa5\xe9\x81\x93\xe4\xbd\xa0\xe6\x9c\x80\xe5\xa5\xbd - (\xe5\x8a\x87\xe9\x9b\x86 \xe5\x9f\x8e\xe5\xaf\xa8\xe8\x8b\xb1\xe9\x9b\x84 \xe7\x89\x87\xe5\xb0\xbe\xe6\x9b\xb2)'
p913
ssS'2bjwRfXMk4uRgOD9IBYl9h'
p914
(dp915
g3
S'Drake'
p916
sg5
I3
sg6
S'https://open.spotify.com/track/2bjwRfXMk4uRgOD9IBYl9h'
p917
sg8
S'Portland'
p918
ssS'0FuTx2s3YH1ppmtiM6l0zI'
p919
(dp920
g3
S'JP Cooper'
p921
sg5
I21
sg6
S'https://open.spotify.com/track/0FuTx2s3YH1ppmtiM6l0zI'
p922
sg8
S'September Song'
p923
ssS'0Zbbxnx4SGGHoIow4PpISP'
p924
(dp925
g3
S'Kygo'
p926
sg5
I3
sg6
S'https://open.spotify.com/track/0Zbbxnx4SGGHoIow4PpISP'
p927
sg8
S'Stargazing'
p928
ssS'1OmcAT5Y8eg5bUPv9qJT4R'
p929
(dp930
g3
S'Post Malone'
p931
sg5
I3
sg6
S'https://open.spotify.com/track/1OmcAT5Y8eg5bUPv9qJT4R'
p932
sg8
S'rockstar'
p933
ssS'5GFDrUTLGJix84sNhjCG0g'
p934
(dp935
g3
S'Amin\xc3\xa9'
p936
sg5
I3
sg6
S'https://open.spotify.com/track/5GFDrUTLGJix84sNhjCG0g'
p937
sg8
S'Caroline'
p938
ssS'0azC730Exh71aQlOt9Zj3y'
p939
(dp940
g3
S'Calvin Harris'
p941
sg5
I26
sg6
S'https://open.spotify.com/track/0azC730Exh71aQlOt9Zj3y'
p942
sg8
S'This Is What You Came For'
p943
ssS'77JhqIuQjqzVmkRTUcm9ji'
p944
(dp945
g3
S'Emma Watson'
p946
sg5
I1
sg6
S'https://open.spotify.com/track/77JhqIuQjqzVmkRTUcm9ji'
p947
sg8
S'Something There'
p948
ssS'43ZyHQITOjhciSUUNPVRHc'
p949
(dp950
g3
S'Lil Pump'
p951
sg5
I1
sg6
S'https://open.spotify.com/track/43ZyHQITOjhciSUUNPVRHc'
p952
sg8
S'Gucci Gang'
p953
ssS'5sNESr6pQfIhL3krM8CtZn'
p954
(dp955
g3
S'JAY Z'
p956
sg5
I1
sg6
S'https://open.spotify.com/track/5sNESr6pQfIhL3krM8CtZn'
p957
sg8
S'Numb / Encore'
p958
ssS'68EMU2RD1ECNeOeJ5qAXCV'
p959
(dp960
g3
S'Charlie Puth'
p961
sg5
I42
sg6
S'https://open.spotify.com/track/68EMU2RD1ECNeOeJ5qAXCV'
p962
sg8
S"We Don't Talk Anymore (feat. Selena Gomez)"
p963
ssS'3tQZiwKZL6xduOGDOpkfZ4'
p964
(dp965
g3
S'Eason Chan'
p966
sg5
I4
sg6
S'https://open.spotify.com/track/3tQZiwKZL6xduOGDOpkfZ4'
p967
sg8
S'\xe4\xbb\xbb\xe6\x88\x91\xe8\xa1\x8c'
p968
ssS'2wgF570uODvVSxfd8o3eRf'
p969
(dp970
g3
S'Jason Chan'
p971
sg5
I42
sg6
S'https://open.spotify.com/track/2wgF570uODvVSxfd8o3eRf'
p972
sg8
S'\xe5\x88\xa5\xe4\xbe\x86\xe7\x84\xa1\xe6\x81\x99'
p973
ssS'1j4kHkkpqZRBwE0A4CN4Yv'
p974
(dp975
g3
S'ZAYN'
p976
sg5
I5
sg6
S'https://open.spotify.com/track/1j4kHkkpqZRBwE0A4CN4Yv'
p977
sg8
S'Dusk Till Dawn - Radio Edit'
p978
ssS'3y7ByLZ05tluscOTRgEJ9Y'
p979
(dp980
g3
S'IU'
p981
sg5
I12
sg6
S'https://open.spotify.com/track/3y7ByLZ05tluscOTRgEJ9Y'
p982
sg8
S'Palette (Feat. G-DRAGON)'
p983
ssS'1cImYkHOQMFE7AZC9aOk4y'
p984
(dp985
g3
S'Bobby Helms'
p986
sg5
I1
sg6
S'https://open.spotify.com/track/1cImYkHOQMFE7AZC9aOk4y'
p987
sg8
S'Jingle Bell Rock'
p988
ssS'4VuS959DSpr82t3qBqCrWG'
p989
(dp990
g3
S'Ed Sheeran'
p991
sg5
I8
sg6
S'https://open.spotify.com/track/4VuS959DSpr82t3qBqCrWG'
p992
sg8
S'Supermarket Flowers'
p993
ssS'0CZt1VGIieJgj2wv3mWSUn'
p994
(dp995
g3
S'Joey Yung'
p996
sg5
I1
sg6
S'https://open.spotify.com/track/0CZt1VGIieJgj2wv3mWSUn'
p997
sg8
S'\xe7\xac\xac\xe4\xb8\x80\xe7\x99\xbe\xe5\x80\x8b\xe6\x88\x91'
p998
ssS'2Za1AlJNvksouPPWbXpR2X'
p999
(dp1000
g3
S'Macklemore'
p1001
sg5
I3
sg6
S'https://open.spotify.com/track/2Za1AlJNvksouPPWbXpR2X'
p1002
sg8
S'Good Old Days (feat. Kesha)'
p1003
ssS'1WOmEg42Mgaz1nRimIMR9C'
p1004
(dp1005
g3
S'Justin Hurwitz'
p1006
sg5
I7
sg6
S'https://open.spotify.com/track/1WOmEg42Mgaz1nRimIMR9C'
p1007
sg8
S'Epilogue - From La La Land Soundtrack'
p1008
ssS'0VDZOfddJ9KVmKLGz7cChC'
p1009
(dp1010
g3
S'Candy Lo'
p1011
sg5
I2
sg6
S'https://open.spotify.com/track/0VDZOfddJ9KVmKLGz7cChC'
p1012
sg8
S'\xe4\xb8\x89\xe8\xa7\x92\xe8\xaa\x8c'
p1013
ssS'0Zx8khUcEfCFK2AEoIhC92'
p1014
(dp1015
g3
S'Snakehips'
p1016
sg5
I16
sg6
S'https://open.spotify.com/track/0Zx8khUcEfCFK2AEoIhC92'
p1017
sg8
S"Don't Leave"
p1018
ssS'34kSAsvs36tXZ8DaiBphUG'
p1019
(dp1020
g3
S'Carly Rae Jepsen'
p1021
sg5
I1
sg6
S'https://open.spotify.com/track/34kSAsvs36tXZ8DaiBphUG'
p1022
sg8
S'Last Christmas'
p1023
ssS'0nt1LAZjaTjrf30S8hdRDU'
p1024
(dp1025
g3
S'Jay Chou'
p1026
sg5
I3
sg6
S'https://open.spotify.com/track/0nt1LAZjaTjrf30S8hdRDU'
p1027
sg8
S'\xe8\x81\xbd\xe8\xa6\x8b\xe4\xb8\x8b\xe9\x9b\xa8\xe7\x9a\x84\xe8\x81\xb2\xe9\x9f\xb3'
p1028
ssS'095rDYLjAHYmis3vU8gRxo'
p1029
(dp1030
g3
S'Sons of People'
p1031
sg5
I2
sg6
S'https://open.spotify.com/track/095rDYLjAHYmis3vU8gRxo'
p1032
sg8
S'NEVER'
p1033
ssS'3BbfgC1wM6x5TRYgAVZYi0'
p1034
(dp1035
g3
S'TWICE'
p1036
sg5
I8
sg6
S'https://open.spotify.com/track/3BbfgC1wM6x5TRYgAVZYi0'
p1037
sg8
S'SIGNAL'
p1038
ssS'0NeNAcCVtGqLAAmf4FhWWT'
p1039
(dp1040
g3
S'BLACKPINK'
p1041
sg5
I15
sg6
S'https://open.spotify.com/track/0NeNAcCVtGqLAAmf4FhWWT'
p1042
sg8
S'BOOMBAYAH'
p1043
ssS'61WbtB6ujkpNAsAf5LjF4b'
p1044
(dp1045
g3
S'Katy Perry'
p1046
sg5
I5
sg6
S'https://open.spotify.com/track/61WbtB6ujkpNAsAf5LjF4b'
p1047
sg8
S'Bon app\xc3\xa9tit'
p1048
ssS'3FQCJI2t5LTbsRPfYVBSVB'
p1049
(dp1050
g3
S'Linkin Park'
p1051
sg5
I2
sg6
S'https://open.spotify.com/track/3FQCJI2t5LTbsRPfYVBSVB'
p1052
sg8
S'Battle Symphony'
p1053
ssS'0YHUITU3w6ws1v8ehT264g'
p1054
(dp1055
g3
S'Little Mix'
p1056
sg5
I5
sg6
S'https://open.spotify.com/track/0YHUITU3w6ws1v8ehT264g'
p1057
sg8
S'Shout Out to My Ex'
p1058
ssS'2TmALSxWNkmpqPSDf8JJ3X'
p1059
(dp1060
g3
S'Mayday'
p1061
sg5
I4
sg6
S'https://open.spotify.com/track/2TmALSxWNkmpqPSDf8JJ3X'
p1062
sg8
S'\xe5\xa6\x82\xe6\x9e\x9c\xe6\x88\x91\xe5\x80\x91\xe4\xb8\x8d\xe6\x9b\xbe\xe7\x9b\xb8\xe9\x81\x87'
p1063
ssS'3dJj6o9o1fRgrojWjailuz'
p1064
(dp1065
g3
S'Linkin Park'
p1066
sg5
I1
sg6
S'https://open.spotify.com/track/3dJj6o9o1fRgrojWjailuz'
p1067
sg8
S'Nobody Can Save Me'
p1068
ssS'209lkexhDOdjGJMv9iw3rJ'
p1069
(dp1070
g3
S'Eason Chan'
p1071
sg5
I5
sg6
S'https://open.spotify.com/track/209lkexhDOdjGJMv9iw3rJ'
p1072
sg8
S'\xe6\xad\xb2\xe6\x9c\x88\xe5\xa6\x82\xe6\xad\x8c'
p1073
ssS'5Hmldq1s1Ap8cSZBXpZquV'
p1074
(dp1075
g3
S'Janice Vidal'
p1076
sg5
I3
sg6
S'https://open.spotify.com/track/5Hmldq1s1Ap8cSZBXpZquV'
p1077
sg8
S'\xe4\xb8\x80\xe6\xa0\xbc\xe6\xa0\xbc'
p1078
ssS'2XlHu0HcujBCkWMdIAvrqt'
p1079
(dp1080
g3
S'Drake'
p1081
sg5
I4
sg6
S'https://open.spotify.com/track/2XlHu0HcujBCkWMdIAvrqt'
p1082
sg8
S'Blem'
p1083
ssS'5WEqjIUHkwZ5h3DSE7F9bM'
p1084
(dp1085
g3
S'Avicii'
p1086
sg5
I1
sg6
S'https://open.spotify.com/track/5WEqjIUHkwZ5h3DSE7F9bM'
p1087
sg8
S'Friend Of Mine (feat. Vargas & Lagola)'
p1088
ssS'4JAyIDXOqNM6qHuZML01uX'
p1089
(dp1090
g3
g232
sg5
I1
sg6
S'https://open.spotify.com/track/4JAyIDXOqNM6qHuZML01uX'
p1091
sg8
g232
ssS'5kZDxLcbqglZ2yYXg4Mkjc'
p1092
(dp1093
g3
S'JJ Lin'
p1094
sg5
I9
sg6
S'https://open.spotify.com/track/5kZDxLcbqglZ2yYXg4Mkjc'
p1095
sg8
S'\xe9\x82\xa3\xe4\xba\x9b\xe4\xbd\xa0\xe5\xbe\x88\xe5\x86\x92\xe9\x9a\xaa\xe7\x9a\x84\xe5\xa4\xa2'
p1096
ssS'2hX6HlfJeQFc39T5WI99Kw'
p1097
(dp1098
g3
S'Kim Kyunghee'
p1099
sg5
I1
sg6
S'https://open.spotify.com/track/2hX6HlfJeQFc39T5WI99Kw'
p1100
sg8
S"And I'm here"
p1101
ssS'5hYTyyh2odQKphUbMqc5gN'
p1102
(dp1103
g3
S'Alessia Cara'
p1104
sg5
I25
sg6
S'https://open.spotify.com/track/5hYTyyh2odQKphUbMqc5gN'
p1105
sg8
S"How Far I'll Go - From Moana"
p1106
ssS'1u8c2t2Cy7UBoG4ArRcF5g'
p1107
(dp1108
g3
S'Taylor Swift'
p1109
sg5
I8
sg6
S'https://open.spotify.com/track/1u8c2t2Cy7UBoG4ArRcF5g'
p1110
sg8
S'Blank Space'
p1111
ssS'72jbDTw1piOOj770jWNeaG'
p1112
(dp1113
g3
S'The Chainsmokers'
p1114
sg5
I39
sg6
S'https://open.spotify.com/track/72jbDTw1piOOj770jWNeaG'
p1115
sg8
S'Paris'
p1116
ssS'0xG0SHshCStMEyNbNC5d4k'
p1117
(dp1118
g3
S'Julia Michaels'
p1119
sg5
I8
sg6
S'https://open.spotify.com/track/0xG0SHshCStMEyNbNC5d4k'
p1120
sg8
S'Issues'
p1121
ssS'6FemVsNUb2lzWsDRm14FUJ'
p1122
(dp1123
g3
S'The Script'
p1124
sg5
I1
sg6
S'https://open.spotify.com/track/6FemVsNUb2lzWsDRm14FUJ'
p1125
sg8
S'Rain'
p1126
ssS'5abwHwUhywLGNli5NDcEN7'
p1127
(dp1128
g3
S'Thomas Gold'
p1129
sg5
I5
sg6
S'https://open.spotify.com/track/5abwHwUhywLGNli5NDcEN7'
p1130
sg8
S'Magic'
p1131
ssS'43ogAyFAzG58KW7rhWeGQE'
p1132
(dp1133
g3
S'Jung joonil'
p1134
sg5
I1
sg6
S'https://open.spotify.com/track/43ogAyFAzG58KW7rhWeGQE'
p1135
sg8
S'The first snow'
p1136
ssS'04qqfjPWDqrg9q3HTToCfZ'
p1137
(dp1138
g3
S'Urban Zakapa'
p1139
sg5
I3
sg6
S'https://open.spotify.com/track/04qqfjPWDqrg9q3HTToCfZ'
p1140
sg8
S'Wish'
p1141
ssS'12o6dxWGk29uIAP3OWY0pM'
p1142
(dp1143
g3
S'Lorde'
p1144
sg5
I5
sg6
S'https://open.spotify.com/track/12o6dxWGk29uIAP3OWY0pM'
p1145
sg8
S'Homemade Dynamite'
p1146
ssS'0qepAQsUGIzofBj82iP17C'
p1147
(dp1148
g3
S'Mayday'
p1149
sg5
I42
sg6
S'https://open.spotify.com/track/0qepAQsUGIzofBj82iP17C'
p1150
sg8
S'\xe5\xbe\x8c\xe4\xbe\x86\xe7\x9a\x84\xe6\x88\x91\xe5\x80\x91'
p1151
ssS'3CE1HoJJ0FVKo7JHsWIuvC'
p1152
(dp1153
g3
S'JC'
p1154
sg5
I42
sg6
S'https://open.spotify.com/track/3CE1HoJJ0FVKo7JHsWIuvC'
p1155
sg8
S'\xe8\xaa\xaa\xe6\x95\xa3\xe5\xb0\xb1\xe6\x95\xa3'
p1156
ssS'7iV733e1KacKrFRaBNxVEf'
p1157
(dp1158
g3
S'BTS'
p1159
sg5
I3
sg6
S'https://open.spotify.com/track/7iV733e1KacKrFRaBNxVEf'
p1160
sg8
S'Intro: Serendipity'
p1161
ssS'77lGafvlU68CeHgB2pkHC9'
p1162
(dp1163
g3
S'Machine Gun Kelly'
p1164
sg5
I10
sg6
S'https://open.spotify.com/track/77lGafvlU68CeHgB2pkHC9'
p1165
sg8
S'At My Best (feat. Hailee Steinfeld)'
p1166
ssS'0dA2Mk56wEzDgegdC6R17g'
p1167
(dp1168
g3
S'Zedd'
p1169
sg5
I33
sg6
S'https://open.spotify.com/track/0dA2Mk56wEzDgegdC6R17g'
p1170
sg8
S'Stay (with Alessia Cara)'
p1171
ssS'4BEtV1oUJkEDdmiN4nYgXi'
p1172
(dp1173
g3
S'Stephanie Ho'
p1174
sg5
I25
sg6
S'https://open.spotify.com/track/4BEtV1oUJkEDdmiN4nYgXi'
p1175
sg8
S'\xe6\x84\x9b\xe9\x9c\x80\xe8\xa6\x81\xe5\x8b\x87\xe6\xb0\xa3 - \xe9\x9b\xbb\xe8\xa6\x96\xe5\x8a\x87\xe3\x80\x8c\xe8\x87\xb4\xe5\x91\xbd\xe5\xbe\xa9\xe6\xb4\xbb\xe3\x80\x8d\xe7\x89\x87\xe5\xb0\xbe\xe6\x9b\xb2'
p1176
ssS'2nJDePK69THatYkjkjQFE8'
p1177
(dp1178
g3
S'Eddy Kim'
p1179
sg5
I5
sg6
S'https://open.spotify.com/track/2nJDePK69THatYkjkjQFE8'
p1180
sg8
S'You are so beautiful'
p1181
ssS'3Ytr1SUCUi6J3L9dRFx5iH'
p1182
(dp1183
g3
S'Major Lazer'
p1184
sg5
I13
sg6
S'https://open.spotify.com/track/3Ytr1SUCUi6J3L9dRFx5iH'
p1185
sg8
S'Know No Better (feat. Quavo)'
p1186
ssS'1sl5tSzfK1JrcQIcA8rYDy'
p1187
(dp1188
g3
S'Grey'
p1189
sg5
I4
sg6
S'https://open.spotify.com/track/1sl5tSzfK1JrcQIcA8rYDy'
p1190
sg8
S'I Miss You'
p1191
ssS'71Bv7K46NJOEViehjCRMVh'
p1192
(dp1193
g3
S'Joyce Cheng'
p1194
sg5
I18
sg6
S'https://open.spotify.com/track/71Bv7K46NJOEViehjCRMVh'
p1195
sg8
S'\xe7\x84\xa1\xe8\xa1\xa8\xe9\x9d\xa2\xe5\x82\xb7\xe7\x97\x95'
p1196
ssS'7nZmah2llfvLDiUjm0kiyz'
p1197
(dp1198
g3
S'Justin Bieber'
p1199
sg5
I8
sg6
S'https://open.spotify.com/track/7nZmah2llfvLDiUjm0kiyz'
p1200
sg8
S'Friends (with BloodPop\xc2\xae)'
p1201
ssS'6mzF8HvHdVrzJNd8M1uFCS'
p1202
(dp1203
g3
S'Crush'
p1204
sg5
I15
sg6
S'https://open.spotify.com/track/6mzF8HvHdVrzJNd8M1uFCS'
p1205
sg8
S'Beautiful'
p1206
ssS'6D0b04NJIKfEMg040WioJQ'
p1207
(dp1208
g3
S'Julia Michaels'
p1209
sg5
I2
sg6
S'https://open.spotify.com/track/6D0b04NJIKfEMg040WioJQ'
p1210
sg8
S'Issues'
p1211
ssS'7fwXWKdDNI5IutOMc5OKYw'
p1212
(dp1213
g3
S'J Balvin'
p1214
sg5
I2
sg6
S'https://open.spotify.com/track/7fwXWKdDNI5IutOMc5OKYw'
p1215
sg8
S'Mi Gente (feat. Beyonc\xc3\xa9)'
p1216
ssS'7of1slAJIWrXxP8ikAHxje'
p1217
(dp1218
g3
S'James Hersey'
p1219
sg5
I2
sg6
S'https://open.spotify.com/track/7of1slAJIWrXxP8ikAHxje'
p1220
sg8
S'Miss You'
p1221
ssS'3hRZsdTF5uyGA2uhNqEuhm'
p1222
(dp1223
g3
S'Niall Horan'
p1224
sg5
I4
sg6
S'https://open.spotify.com/track/3hRZsdTF5uyGA2uhNqEuhm'
p1225
sg8
S'Too Much To Ask'
p1226
ssS'2dfHh7ECGxfNqZTQno09Vk'
p1227
(dp1228
g3
S'Ed Sheeran'
p1229
sg5
I5
sg6
S'https://open.spotify.com/track/2dfHh7ECGxfNqZTQno09Vk'
p1230
sg8
S"Hearts Don't Break Around Here"
p1231
ssS'4cjQlDvr2Zy1a1pCTHQWVa'
p1232
(dp1233
g3
S'Joey Yung'
p1234
sg5
I31
sg6
S'https://open.spotify.com/track/4cjQlDvr2Zy1a1pCTHQWVa'
p1235
sg8
S'\xe9\xba\xbb\xe7\x85\xa9\xe4\xbd\xa0'
p1236
ssS'7zyYmIdjqqiX6kLryb7QBx'
p1237
(dp1238
g3
S'Eric Chou'
p1239
sg5
I42
sg6
S'https://open.spotify.com/track/7zyYmIdjqqiX6kLryb7QBx'
p1240
sg8
S'\xe4\xbb\xa5\xe5\xbe\x8c\xe5\x88\xa5\xe5\x81\x9a\xe6\x9c\x8b\xe5\x8f\x8b'
p1241
ssS'6bMzZfqXUnQeKUUIIVheqI'
p1242
(dp1243
g3
S'Shiga Lin'
p1244
sg5
I21
sg6
S'https://open.spotify.com/track/6bMzZfqXUnQeKUUIIVheqI'
p1245
sg8
S'\xe4\xb8\x80\xe8\xb5\xb0\xe4\xba\x86\xe4\xb9\x8b'
p1246
ssS'1PwnLoYB1sJQbvmZH8dSEt'
p1247
(dp1248
g3
S'Eason Chan'
p1249
sg5
I1
sg6
S'https://open.spotify.com/track/1PwnLoYB1sJQbvmZH8dSEt'
p1250
sg8
S'\xe9\x98\xbf\xe7\x89\x9b'
p1251
ssS'3iVX6XiS0J31HIbZIzeF4R'
p1252
(dp1253
g3
S'G-DRAGON'
p1254
sg5
I1
sg6
S'https://open.spotify.com/track/3iVX6XiS0J31HIbZIzeF4R'
p1255
sg8
S'\xea\xb0\x9c\xec\x86\x8c\xeb\xa6\xac (BULLSHIT)'
p1256
ssS'0Mv3NvuV3n35ix4g6sKihQ'
p1257
(dp1258
g3
S'JW'
p1259
sg5
I7
sg6
S'https://open.spotify.com/track/0Mv3NvuV3n35ix4g6sKihQ'
p1260
sg8
S'\xe5\xa4\x9a\xe5\xb0\x91\xe5\xb9\xb4'
p1261
ssS'0B2fMb8KALZeoFbRv7m3iE'
p1262
(dp1263
g3
S'Dear Jane'
p1264
sg5
I42
sg6
S'https://open.spotify.com/track/0B2fMb8KALZeoFbRv7m3iE'
p1265
sg8
S'\xe4\xb8\x8d\xe8\xa8\xb1\xe4\xbd\xa0\xe6\xb3\xa8\xe5\xae\x9a\xe4\xb8\x80\xe4\xba\xba'
p1266
ssS'3eugNE3gCkZL4DXU9nKeB2'
p1267
(dp1268
g3
S'Gin Lee'
p1269
sg5
I42
sg6
S'https://open.spotify.com/track/3eugNE3gCkZL4DXU9nKeB2'
p1270
sg8
S'\xe6\x9c\x88\xe7\x90\x83\xe4\xb8\x8b\xe7\x9a\x84\xe4\xba\xba'
p1271
ssS'5fc6rQgAKiLutfUYWQ6QnJ'
p1272
(dp1273
g3
S'Sia'
p1274
sg5
I2
sg6
S'https://open.spotify.com/track/5fc6rQgAKiLutfUYWQ6QnJ'
p1275
sg8
S'Helium - From Fifty Shades Darker (Original Motion Picture Soundtrack)'
p1276
ssS'0ffweDHrg4bZqdG4IfGYuo'
p1277
(dp1278
g3
S'BTS'
p1279
sg5
I3
sg6
S'https://open.spotify.com/track/0ffweDHrg4bZqdG4IfGYuo'
p1280
sg8
S'Pied Piper'
p1281
ssS'0JB2nnrP35zVYnQcYpAnCb'
p1282
(dp1283
g3
S'Jay Chou'
p1284
sg5
I1
sg6
S'https://open.spotify.com/track/0JB2nnrP35zVYnQcYpAnCb'
p1285
sg8
S'\xe9\x96\x8b\xe4\xb8\x8d\xe4\xba\x86\xe5\x8f\xa3'
p1286
ssS'5HDPtsnyb3maFmPL8LLUTG'
p1287
(dp1288
g3
S'Ed Sheeran'
p1289
sg5
I6
sg6
S'https://open.spotify.com/track/5HDPtsnyb3maFmPL8LLUTG'
p1290
sg8
S'New Man'
p1291
ssS'4hYHaROtjB6YREh6AgW3fd'
p1292
(dp1293
g3
S'Jay Chou'
p1294
sg5
I1
sg6
S'https://open.spotify.com/track/4hYHaROtjB6YREh6AgW3fd'
p1295
sg8
S'\xe8\x92\xb2\xe5\x85\xac\xe8\x8b\xb1\xe7\x9a\x84\xe7\xb4\x84\xe5\xae\x9a'
p1296
ssS'6WbADFqMvR8N5u0BvtsWQE'
p1297
(dp1298
g3
S'Avicii'
p1299
sg5
I9
sg6
S'https://open.spotify.com/track/6WbADFqMvR8N5u0BvtsWQE'
p1300
sg8
S'Without You (feat. Sandro Cavazza)'
p1301
ssS'75JFxkI2RXiU7L9VXzMkle'
p1302
(dp1303
g3
S'Coldplay'
p1304
sg5
I25
sg6
S'https://open.spotify.com/track/75JFxkI2RXiU7L9VXzMkle'
p1305
sg8
S'The Scientist'
p1306
ssS'5V7K0PneTnNe6GRwE7EFN8'
p1307
(dp1308
g3
S'Dear Jane'
p1309
sg5
I42
sg6
S'https://open.spotify.com/track/5V7K0PneTnNe6GRwE7EFN8'
p1310
sg8
S'\xe5\x8f\xaa\xe7\x9f\xa5\xe6\x84\x9f\xe8\xa6\xba\xe5\xa4\xb1\xe4\xba\x86\xe8\xb9\xa4'
p1311
ssS'3m660poUr1chesgkkjQM7P'
p1312
(dp1313
g3
S'Demi Lovato'
p1314
sg5
I2
sg6
S'https://open.spotify.com/track/3m660poUr1chesgkkjQM7P'
p1315
sg8
S'Sorry Not Sorry'
p1316
ssS'4pdPtRcBmOSQDlJ3Fk945m'
p1317
(dp1318
g3
S'DJ Snake'
p1319
sg5
I42
sg6
S'https://open.spotify.com/track/4pdPtRcBmOSQDlJ3Fk945m'
p1320
sg8
S'Let Me Love You'
p1321
ssS'04x6DpeFQ72efXsD0DmWPQ'
p1322
(dp1323
g3
S'Jay Chou'
p1324
sg5
I41
sg6
S'https://open.spotify.com/track/04x6DpeFQ72efXsD0DmWPQ'
p1325
sg8
S'\xe6\x98\x8e\xe6\x98\x8e\xe5\xb0\xb1'
p1326
ssS'5EnYT6F7wEcdege6mDHEfO'
p1327
(dp1328
g3
S'Drake'
p1329
sg5
I5
sg6
S'https://open.spotify.com/track/5EnYT6F7wEcdege6mDHEfO'
p1330
sg8
S'Signs'
p1331
ssS'1uoL9GX45dTnmrWQ7Ii1Ft'
p1332
(dp1333
g3
S'Halsey'
p1334
sg5
I1
sg6
S'https://open.spotify.com/track/1uoL9GX45dTnmrWQ7Ii1Ft'
p1335
sg8
S'Not Afraid Anymore'
p1336
ssS'2D8mhPj7OdawGO7MswFwmx'
p1337
(dp1338
g3
S'Stephanie Ho'
p1339
sg5
I11
sg6
S'https://open.spotify.com/track/2D8mhPj7OdawGO7MswFwmx'
p1340
sg8
S'\xe6\x88\x91\xe4\xb8\x8d\xe6\x9c\x83\xe6\x92\x92\xe5\xac\x8c - \xe5\x8a\x87\xe9\x9b\x86 \xe4\xb8\x8d\xe6\x87\x82\xe6\x92\x92\xe5\xac\x8c\xe7\x9a\x84\xe5\xa5\xb3\xe4\xba\xba \xe4\xb8\xbb\xe9\xa1\x8c\xe6\x9b\xb2'
p1341
ssS'1OAiWI2oPmglaOiv9fdioU'
p1342
(dp1343
g3
S'Coldplay'
p1344
sg5
I6
sg6
S'https://open.spotify.com/track/1OAiWI2oPmglaOiv9fdioU'
p1345
sg8
S'Hymn For The Weekend - Seeb Remix'
p1346
ssS'6Ll3qUTssdGWMxbwhMud2N'
p1347
(dp1348
g3
S'Nick Jonas'
p1349
sg5
I2
sg6
S'https://open.spotify.com/track/6Ll3qUTssdGWMxbwhMud2N'
p1350
sg8
S'Find You'
p1351
ssS'7LEydI5NfjY6mZfKwYIptZ'
p1352
(dp1353
g3
S'Fifth Harmony'
p1354
sg5
I12
sg6
S'https://open.spotify.com/track/7LEydI5NfjY6mZfKwYIptZ'
p1355
sg8
S'Down'
p1356
ssS'7y9iMe8SOB6z3NoHE2OfXl'
p1357
(dp1358
g3
S'Halsey'
p1359
sg5
I7
sg6
S'https://open.spotify.com/track/7y9iMe8SOB6z3NoHE2OfXl'
p1360
sg8
S'Bad At Love'
p1361
ssS'3K4HG9evC7dg3N0R9cYqk4'
p1362
(dp1363
g3
S'Linkin Park'
p1364
sg5
I1
sg6
S'https://open.spotify.com/track/3K4HG9evC7dg3N0R9cYqk4'
p1365
sg8
S'One Step Closer'
p1366
ssS'584dXuCRxf0IUXRDnn1Q8u'
p1367
(dp1368
g3
S'Janice Vidal'
p1369
sg5
I29
sg6
S'https://open.spotify.com/track/584dXuCRxf0IUXRDnn1Q8u'
p1370
sg8
S'\xe9\xa9\x97\xe5\x82\xb7'
p1371
ssS'0oZT2aKB40fzyHzqcXE3H3'
p1372
(dp1373
g3
S'BIGBANG'
p1374
sg5
I6
sg6
S'https://open.spotify.com/track/0oZT2aKB40fzyHzqcXE3H3'
p1375
sg8
S"Let's not fall in love - KR ver."
p1376
ssS'7nb08JYf3x84KDvrjZc0Rm'
p1377
(dp1378
g3
S'Jason Chan'
p1379
sg5
I15
sg6
S'https://open.spotify.com/track/7nb08JYf3x84KDvrjZc0Rm'
p1380
sg8
S'\xe9\x9c\xb8\xe6\xb0\xa3\xe6\x83\x85\xe6\xad\x8c'
p1381
ssS'0o7glLPfZgns8ZF14Wlpf7'
p1382
(dp1383
g3
S'Kelly Clarkson'
p1384
sg5
I1
sg6
S'https://open.spotify.com/track/0o7glLPfZgns8ZF14Wlpf7'
p1385
sg8
S'Love So Soft'
p1386
ssS'2jYmK1cb3Uya6FFsocdpzO'
p1387
(dp1388
g3
S'Sabrina Carpenter'
p1389
sg5
I10
sg6
S'https://open.spotify.com/track/2jYmK1cb3Uya6FFsocdpzO'
p1390
sg8
S'Why'
p1391
ssS'2jyjhRf6DVbMPU5zxagN2h'
p1392
(dp1393
g3
S'Passenger'
p1394
sg5
I42
sg6
S'https://open.spotify.com/track/2jyjhRf6DVbMPU5zxagN2h'
p1395
sg8
S'Let Her Go'
p1396
ssS'3qmvK8QARSPkFTuKeIXSbs'
p1397
(dp1398
g3
S'Linkin Park'
p1399
sg5
I1
sg6
S'https://open.spotify.com/track/3qmvK8QARSPkFTuKeIXSbs'
p1400
sg8
S'Bleed It Out'
p1401
ssS'7y6c07pgjZvtHI9kuMVqk1'
p1402
(dp1403
g3
S'Drake'
p1404
sg5
I2
sg6
S'https://open.spotify.com/track/7y6c07pgjZvtHI9kuMVqk1'
p1405
sg8
S'Get It Together'
p1406
ssS'0REIm8x6V87NjNrbsWnqde'
p1407
(dp1408
g3
S'Joey Yung'
p1409
sg5
I20
sg6
S'https://open.spotify.com/track/0REIm8x6V87NjNrbsWnqde'
p1410
sg8
S'\xe6\x96\xb0\xe8\xb2\xb4'
p1411
ssS'4xlrALxuaCf9yZBHJeTSG6'
p1412
(dp1413
g3
S'Jonas Blue'
p1414
sg5
I9
sg6
S'https://open.spotify.com/track/4xlrALxuaCf9yZBHJeTSG6'
p1415
sg8
S'Mama'
p1416
ssS'0FVPOqIivjXR49CyJZAw7g'
p1417
(dp1418
g3
S'BIGBANG'
p1419
sg5
I7
sg6
S'https://open.spotify.com/track/0FVPOqIivjXR49CyJZAw7g'
p1420
sg8
S'IF YOU - KR ver.'
p1421
ssS'7LyCtbxher5m97MImn5M3l'
p1422
(dp1423
g3
S'Jay Chou'
p1424
sg5
I42
sg6
S'https://open.spotify.com/track/7LyCtbxher5m97MImn5M3l'
p1425
sg8
S'\xe4\xb8\x8d\xe8\xa9\xb2'
p1426
ssS'79cuOz3SPQTuFrp8WgftAu'
p1427
(dp1428
g3
S'Shawn Mendes'
p1429
sg5
I25
sg6
S'https://open.spotify.com/track/79cuOz3SPQTuFrp8WgftAu'
p1430
sg8
S"There's Nothing Holdin' Me Back"
p1431
ssS'4c2W3VKsOFoIg2SFaO6DY5'
p1432
(dp1433
g3
S'Rita Ora'
p1434
sg5
I20
sg6
S'https://open.spotify.com/track/4c2W3VKsOFoIg2SFaO6DY5'
p1435
sg8
S'Your Song'
p1436
ssS'0Eum5dQqpUDgwJiUucG3QU'
p1437
(dp1438
g3
S'Joey Yung'
p1439
sg5
I15
sg6
S'https://open.spotify.com/track/0Eum5dQqpUDgwJiUucG3QU'
p1440
sg8
S'\xe5\xbf\x83\xe6\xb7\xa1'
p1441
ssS'71hE3vCJBlhoQdnrJerwXk'
p1442
(dp1443
g3
S'JW'
p1444
sg5
I1
sg6
S'https://open.spotify.com/track/71hE3vCJBlhoQdnrJerwXk'
p1445
sg8
S'\xe5\xa6\x92\xe5\xbf\x8c\xe5\xbf\x83'
p1446
ssS'51PYzHOuwTngW2whaPoYFW'
p1447
(dp1448
g3
S'Rainie Yang'
p1449
sg5
I2
sg6
S'https://open.spotify.com/track/51PYzHOuwTngW2whaPoYFW'
p1450
sg8
S'\xe5\xb9\xb4\xe8\xbc\xaa\xe8\xaa\xaa'
p1451
ssS'3UjJP4ludb74a29P5EHEIo'
p1452
(dp1453
g3
S'Sabrina Carpenter'
p1454
sg5
I9
sg6
S'https://open.spotify.com/track/3UjJP4ludb74a29P5EHEIo'
p1455
sg8
S'Thumbs'
p1456
ssS'1HYzRuWjmS9LXCkdVHi25K'
p1457
(dp1458
g3
S'Chanyeol'
p1459
sg5
I34
sg6
S'https://open.spotify.com/track/1HYzRuWjmS9LXCkdVHi25K'
p1460
sg8
S'Stay With Me'
p1461
ssS'3eR23VReFzcdmS7TYCrhCe'
p1462
(dp1463
g3
S'Kygo'
p1464
sg5
I33
sg6
S'https://open.spotify.com/track/3eR23VReFzcdmS7TYCrhCe'
p1465
sg8
S"It Ain't Me (with Selena Gomez)"
p1466
ssS'4zhEPI2JFMEzuqqCHKQzR2'
p1467
(dp1468
g3
S'Gin Lee'
p1469
sg5
I18
sg6
S'https://open.spotify.com/track/4zhEPI2JFMEzuqqCHKQzR2'
p1470
sg8
S'\xe7\xa9\xba\xe5\xa7\x90'
p1471
ssS'2eAZfqOm4EnOF9VvN50Tyc'
p1472
(dp1473
g3
S'Lil Uzi Vert'
p1474
sg5
I4
sg6
S'https://open.spotify.com/track/2eAZfqOm4EnOF9VvN50Tyc'
p1475
sg8
S'The Way Life Goes'
p1476
ssS'44trZ7w2tZhI56keenaT42'
p1477
(dp1478
g3
S'G-DRAGON'
p1479
sg5
I2
sg6
S'https://open.spotify.com/track/44trZ7w2tZhI56keenaT42'
p1480
sg8
S'BULLSHIT - KR Ver.'
p1481
ssS'6jA8HL9i4QGzsj6fjoxp8Y'
p1482
(dp1483
g3
S'Martin Garrix'
p1484
sg5
I20
sg6
S'https://open.spotify.com/track/6jA8HL9i4QGzsj6fjoxp8Y'
p1485
sg8
S'There for You'
p1486
ssS'6iu311jZAJFLPgoIWgrA72'
p1487
(dp1488
g3
S'BIGBANG'
p1489
sg5
I21
sg6
S'https://open.spotify.com/track/6iu311jZAJFLPgoIWgrA72'
p1490
sg8
S'BANG BANG BANG - KR ver.'
p1491
ssS'5LXj9Ch3O9ATm1NoHT8GXn'
p1492
(dp1493
g3
S'Coldplay'
p1494
sg5
I2
sg6
S'https://open.spotify.com/track/5LXj9Ch3O9ATm1NoHT8GXn'
p1495
sg8
S'Hypnotised'
p1496
ssS'1MFOf3d5v8EAUSfkTi11ve'
p1497
(dp1498
g3
S'Pakho Chau'
p1499
sg5
I2
sg6
S'https://open.spotify.com/track/1MFOf3d5v8EAUSfkTi11ve'
p1500
sg8
S'\xe5\xa4\xa9\xe7\xb6\xb2 - \xe5\x8a\x87\xe9\x9b\x86 \xe2\x80\x9c\xe4\xbd\xbf\xe5\xbe\x92\xe8\xa1\x8c\xe8\x80\x852\xe2\x80\x9d \xe4\xb8\xbb\xe9\xa1\x8c\xe6\x9b\xb2'
p1501
ssS'5bZtRlMBU76vHuDOb1GM5u'
p1502
(dp1503
g3
S'Jonas Blue'
p1504
sg5
I1
sg6
S'https://open.spotify.com/track/5bZtRlMBU76vHuDOb1GM5u'
p1505
sg8
S'Perfect Strangers'
p1506
ssS'1KT0xdIjm7t053xByACrrg'
p1507
(dp1508
g3
S'Ariana Grande'
p1509
sg5
I19
sg6
S'https://open.spotify.com/track/1KT0xdIjm7t053xByACrrg'
p1510
sg8
S'\xe7\xbe\x8e\xe5\xa5\xb3\xe3\x81\xa8\xe9\x87\x8e\xe7\x8d\xa3'
p1511
ssS'3hfN1wQSiLPa6b1RX5Kfbj'
p1512
(dp1513
g3
S'BLACKPINK'
p1514
sg5
I13
sg6
S'https://open.spotify.com/track/3hfN1wQSiLPa6b1RX5Kfbj'
p1515
sg8
S'WHISTLE'
p1516
ssS'1ivCIgrYZyE0BvItL4Z8lk'
p1517
(dp1518
g3
S'Jay Chou'
p1519
sg5
I42
sg6
S'https://open.spotify.com/track/1ivCIgrYZyE0BvItL4Z8lk'
p1520
sg8
S'\xe5\x91\x8a\xe7\x99\xbd\xe6\xb0\xa3\xe7\x90\x83'
p1521
ssS'7i2DJ88J7jQ8K7zqFX2fW8'
p1522
(dp1523
g3
S'Halsey'
p1524
sg5
I11
sg6
S'https://open.spotify.com/track/7i2DJ88J7jQ8K7zqFX2fW8'
p1525
sg8
S'Now Or Never'
p1526
ssS'0JiVRyTJcJnmlwCZ854K4p'
p1527
(dp1528
g3
S'Alan Walker'
p1529
sg5
I41
sg6
S'https://open.spotify.com/track/0JiVRyTJcJnmlwCZ854K4p'
p1530
sg8
S'Alone'
p1531
ssS'5EzitieoPnjyKHAq0gfRMa'
p1532
(dp1533
g3
S'EXO'
p1534
sg5
I4
sg6
S'https://open.spotify.com/track/5EzitieoPnjyKHAq0gfRMa'
p1535
sg8
S'Ko Ko Bop'
p1536
ssS'2tdq0CeAGSfhI2l4Gwkvgx'
p1537
(dp1538
g3
S'BTS'
p1539
sg5
I4
sg6
S'https://open.spotify.com/track/2tdq0CeAGSfhI2l4Gwkvgx'
p1540
sg8
S'Best Of Me'
p1541
ssS'6GeD5g9vZTz25Egf8kxoIY'
p1542
(dp1543
g3
S'The Chainsmokers'
p1544
sg5
I1
sg6
S'https://open.spotify.com/track/6GeD5g9vZTz25Egf8kxoIY'
p1545
sg8
S'Last Day Alive'
p1546
ssS'2lDWYLNnfYyXngjz4plpy2'
p1547
(dp1548
g3
S'Emma Stone'
p1549
sg5
I7
sg6
S'https://open.spotify.com/track/2lDWYLNnfYyXngjz4plpy2'
p1550
sg8
S'Audition (The Fools Who Dream) - From La La Land Soundtrack'
p1551
ssS'2mfUa8bLs2s5N4VaqJZ4lZ'
p1552
(dp1553
g3
S'Hailee Steinfeld'
p1554
sg5
I24
sg6
S'https://open.spotify.com/track/2mfUa8bLs2s5N4VaqJZ4lZ'
p1555
sg8
S'Most Girls'
p1556
ssS'4aWmUDTfIPGksMNLV2rQP2'
p1557
(dp1558
g3
S'Luis Fonsi'
p1559
sg5
I37
sg6
S'https://open.spotify.com/track/4aWmUDTfIPGksMNLV2rQP2'
p1560
sg8
S'Despacito (Featuring Daddy Yankee)'
p1561
ssS'35QZaWQRkmnAVqBF1TLCxQ'
p1562
(dp1563
g3
S'Ed Sheeran'
p1564
sg5
I4
sg6
S'https://open.spotify.com/track/35QZaWQRkmnAVqBF1TLCxQ'
p1565
sg8
S'Nancy Mulligan'
p1566
ssS'60APt5N2NRaKWf5xzJdzyC'
p1567
(dp1568
g3
S'Calvin Harris'
p1569
sg5
I6
sg6
S'https://open.spotify.com/track/60APt5N2NRaKWf5xzJdzyC'
p1570
sg8
S'Heatstroke'
p1571
ssS'3HMesevL5DK01uEpHrn9IO'
p1572
(dp1573
g3
S'Kayee Tam'
p1574
sg5
I13
sg6
S'https://open.spotify.com/track/3HMesevL5DK01uEpHrn9IO'
p1575
sg8
S'\xe9\x99\xaa\xe8\x91\x97\xe4\xbd\xa0\xe8\xb5\xb0 - \xe5\x8a\x87\xe9\x9b\x86 \xe4\xb8\x8d\xe6\x87\x82\xe6\x92\x92\xe5\xac\x8c\xe7\x9a\x84\xe5\xa5\xb3\xe4\xba\xba \xe6\x8f\x92\xe6\x9b\xb2'
p1576
ssS'25C5CowdsfXld2jJanbiex'
p1577
(dp1578
g3
S'Demi Lovato'
p1579
sg5
I11
sg6
S'https://open.spotify.com/track/25C5CowdsfXld2jJanbiex'
p1580
sg8
S'Sorry Not Sorry'
p1581
ssS'6IcrwGdIvRsrImOnoYfG9Z'
p1582
(dp1583
g3
S'Wiz Khalifa'
p1584
sg5
I42
sg6
S'https://open.spotify.com/track/6IcrwGdIvRsrImOnoYfG9Z'
p1585
sg8
S'See You Again (feat. Charlie Puth) - From Furious 7'
p1586
ssS'2Z8WuEywRWYTKe1NybPQEW'
p1587
(dp1588
g3
S'Twenty One Pilots'
p1589
sg5
I1
sg6
S'https://open.spotify.com/track/2Z8WuEywRWYTKe1NybPQEW'
p1590
sg8
S'Ride'
p1591
ssS'4F58voptx3uo1bNiJ6i1P9'
p1592
(dp1593
g3
S'Charmaine Fong'
p1594
sg5
I42
sg6
S'https://open.spotify.com/track/4F58voptx3uo1bNiJ6i1P9'
p1595
sg8
S'\xe5\x88\x86\xe6\x89\x8b\xe7\xb8\xbd\xe7\xb4\x84\xe5\x9c\xa8\xe9\x9b\xa8\xe5\xa4\xa9'
p1596
ssS'2QWP8NYYplOqEFBYGCcq0S'
p1597
(dp1598
g3
S'The Script'
p1599
sg5
I1
sg6
S'https://open.spotify.com/track/2QWP8NYYplOqEFBYGCcq0S'
p1600
sg8
S'Rain'
p1601
ssS'5D8Nin6waWHFxi4gyP5nda'
p1602
(dp1603
g3
S'AGA'
p1604
sg5
I4
sg6
S'https://open.spotify.com/track/5D8Nin6waWHFxi4gyP5nda'
p1605
sg8
S'Superman'
p1606
ssS'6JV2JOEocMgcZxYSZelKcc'
p1607
(dp1608
g3
S'Justin Timberlake'
p1609
sg5
I23
sg6
S'https://open.spotify.com/track/6JV2JOEocMgcZxYSZelKcc'
p1610
sg8
S"CAN'T STOP THE FEELING! (Original Song from DreamWorks Animation's TROLLS)"
p1611
ssS'05KOgYg8PGeJyyWBPi5ja8'
p1612
(dp1613
g3
S'Drake'
p1614
sg5
I2
sg6
S'https://open.spotify.com/track/05KOgYg8PGeJyyWBPi5ja8'
p1615
sg8
S'Free Smoke'
p1616
ssS'3xsOfWps2uhcjn7gznHks4'
p1617
(dp1618
g3
S'HANA'
p1619
sg5
I11
sg6
S'https://open.spotify.com/track/3xsOfWps2uhcjn7gznHks4'
p1620
sg8
S'\xe6\x89\x8b\xe4\xb8\xad\xe6\xb2\x99 - \xe5\x8a\x87\xe9\x9b\x86 \xe4\xb8\x8d\xe6\x87\x82\xe6\x92\x92\xe5\xac\x8c\xe7\x9a\x84\xe5\xa5\xb3\xe4\xba\xba \xe7\x89\x87\xe5\xb0\xbe\xe6\x9b\xb2'
p1621
ssS'7aV2mflaASUmGhCErm7kBO'
p1622
(dp1623
g3
S'Nevada'
p1624
sg5
I4
sg6
S'https://open.spotify.com/track/7aV2mflaASUmGhCErm7kBO'
p1625
sg8
S'The Mack'
p1626
ssS'6cwSbxCqAwBNbCqaLMZgbT'
p1627
(dp1628
g3
S'BIGBANG'
p1629
sg5
I8
sg6
S'https://open.spotify.com/track/6cwSbxCqAwBNbCqaLMZgbT'
p1630
sg8
S'LOSER - KR ver.'
p1631
ssS'7I2sj52bMH3jOqQtn2Rg3R'
p1632
(dp1633
g3
S'Pakho Chau'
p1634
sg5
I27
sg6
S'https://open.spotify.com/track/7I2sj52bMH3jOqQtn2Rg3R'
p1635
sg8
S'\xe8\xbf\x91\xe5\x9c\xa8\xe5\x8d\x83\xe9\x87\x8c (feat. \xe8\xa1\x9b\xe8\x98\xad)'
p1636
ssS'3rOSwuTsUlJp0Pu0MkN8r8'
p1637
(dp1638
g3
S'Future'
p1639
sg5
I21
sg6
S'https://open.spotify.com/track/3rOSwuTsUlJp0Pu0MkN8r8'
p1640
sg8
S'Mask Off'
p1641
ssS'3ryjLm3oupIjJFGc39naNi'
p1642
(dp1643
g3
S'BTS'
p1644
sg5
I4
sg6
S'https://open.spotify.com/track/3ryjLm3oupIjJFGc39naNi'
p1645
sg8
S'dimple'
p1646
ssS'1V5XyYcErP0mWVU3vwSOaf'
p1647
(dp1648
g3
S'Pakho Chau'
p1649
sg5
I16
sg6
S'https://open.spotify.com/track/1V5XyYcErP0mWVU3vwSOaf'
p1650
sg8
S'\xe6\x9c\x89\xe7\x94\x9f\xe4\xb8\x80\xe5\xa4\xa9'
p1651
ssS'1qOLh0tI7trd1zdDKxYZTe'
p1652
(dp1653
g3
S'Hailee Steinfeld'
p1654
sg5
I35
sg6
S'https://open.spotify.com/track/1qOLh0tI7trd1zdDKxYZTe'
p1655
sg8
S'Starving'
p1656
ssS'0cqRj7pUJDkTCEsJkx8snD'
p1657
(dp1658
g3
S'Taylor Swift'
p1659
sg5
I4
sg6
S'https://open.spotify.com/track/0cqRj7pUJDkTCEsJkx8snD'
p1660
sg8
S'Shake It Off'
p1661
ssS'3HVr6jTVwBHBa2flM0eURR'
p1662
(dp1663
g3
S'Macklemore'
p1664
sg5
I9
sg6
S'https://open.spotify.com/track/3HVr6jTVwBHBa2flM0eURR'
p1665
sg8
S'Glorious (feat. Skylar Grey)'
p1666
ssS'7inXu0Eaeg02VsM8kHNvzM'
p1667
(dp1668
g3
S'Frank Sinatra'
p1669
sg5
I1
sg6
S'https://open.spotify.com/track/7inXu0Eaeg02VsM8kHNvzM'
p1670
sg8
S'Let It Snow! Let It Snow! Let It Snow!'
p1671
ssS'11EDhDAVDtGPoSar6ootYA'
p1672
(dp1673
g3
S'Halsey'
p1674
sg5
I1
sg6
S'https://open.spotify.com/track/11EDhDAVDtGPoSar6ootYA'
p1675
sg8
S'Strangers'
p1676
ssS'2pYSB4jUkWDmoZqfJUKV0g'
p1677
(dp1678
g3
S'Miriam Yeung'
p1679
sg5
I29
sg6
S'https://open.spotify.com/track/2pYSB4jUkWDmoZqfJUKV0g'
p1680
sg8
S'\xe9\x87\x8e\xe5\xad\xa9\xe5\xad\x90'
p1681
ssS'6520aj0B4FSKGVuKNsOCOi'
p1682
(dp1683
g3
S'Katy Perry'
p1684
sg5
I15
sg6
S'https://open.spotify.com/track/6520aj0B4FSKGVuKNsOCOi'
p1685
sg8
S'Chained To The Rhythm'
p1686
ssS'4q8PHoRsPUB52LFylX8Ulz'
p1687
(dp1688
g3
S'Axwell /\\ Ingrosso'
p1689
sg5
I2
sg6
S'https://open.spotify.com/track/4q8PHoRsPUB52LFylX8Ulz'
p1690
sg8
S'More Than You Know'
p1691
ssS'3VSFri2BxieCG7RtuxFMXr'
p1692
(dp1693
g3
S'ToNick'
p1694
sg5
I30
sg6
S'https://open.spotify.com/track/3VSFri2BxieCG7RtuxFMXr'
p1695
sg8
S'\xe9\x95\xb7\xe7\x9b\xb8\xe5\xbb\x9d\xe5\xae\x88'
p1696
ssS'6EpRaXYhGOB3fj4V2uDkMJ'
p1697
(dp1698
g3
S'Liam Payne'
p1699
sg5
I21
sg6
S'https://open.spotify.com/track/6EpRaXYhGOB3fj4V2uDkMJ'
p1700
sg8
S'Strip That Down'
p1701
ssS'1wjzFQodRWrPcQ0AnYnvQ9'
p1702
(dp1703
g3
S'Lauv'
p1704
sg5
I19
sg6
S'https://open.spotify.com/track/1wjzFQodRWrPcQ0AnYnvQ9'
p1705
sg8
S'I Like Me Better'
p1706
ssS'3vAncbML0jhNrp63DKhsCo'
p1707
(dp1708
g3
S'HEIZE'
p1709
sg5
I4
sg6
S'https://open.spotify.com/track/3vAncbML0jhNrp63DKhsCo'
p1710
sg8
S'Round and round (feat. Han Suji)'
p1711
ssS'6pwvH9LfroBLqd3dez9vBz'
p1712
(dp1713
g3
S'Coldplay'
p1714
sg5
I2
sg6
S'https://open.spotify.com/track/6pwvH9LfroBLqd3dez9vBz'
p1715
sg8
S'A L I E N S'
p1716
ssS'6Upu6yjkdi0DVI8E3IBZEU'
p1717
(dp1718
g3
S'SEVENTEEN'
p1719
sg5
I4
sg6
S'https://open.spotify.com/track/6Upu6yjkdi0DVI8E3IBZEU'
p1720
sg8
S"Don't Wanna Cry"
p1721
ssS'5mnevkfhOWDzuvIIfRqv1c'
p1722
(dp1723
g3
S'WINNER'
p1724
sg5
I1
sg6
S'https://open.spotify.com/track/5mnevkfhOWDzuvIIfRqv1c'
p1725
sg8
S'FOOL'
p1726
ssS'3HwyNPs2e1iaD9slrimZ2Q'
p1727
(dp1728
g3
S'Mayday'
p1729
sg5
I4
sg6
S'https://open.spotify.com/track/3HwyNPs2e1iaD9slrimZ2Q'
p1730
sg8
S'\xe6\xb4\xbe\xe5\xb0\x8d\xe5\x8b\x95\xe7\x89\xa9'
p1731
ssS'18Ey2CGtr5TkKbblJIwVMa'
p1732
(dp1733
g3
S'BIGBANG'
p1734
sg5
I1
sg6
S'https://open.spotify.com/track/18Ey2CGtr5TkKbblJIwVMa'
p1735
sg8
S'Blue'
p1736
ssS'3GPI7hYiqD6enLRobhkBm8'
p1737
(dp1738
g3
S'ItaloBrothers'
p1739
sg5
I3
sg6
S'https://open.spotify.com/track/3GPI7hYiqD6enLRobhkBm8'
p1740
sg8
S'Summer Air'
p1741
ssS'2XMTqoHHSH0lvuXrvIEdco'
p1742
(dp1743
g3
S'FRENSHIP'
p1744
sg5
I5
sg6
S'https://open.spotify.com/track/2XMTqoHHSH0lvuXrvIEdco'
p1745
sg8
S'Capsize'
p1746
ssS'5MFzQMkrl1FOOng9tq6R9r'
p1747
(dp1748
g3
S'Maroon 5'
p1749
sg5
I28
sg6
S'https://open.spotify.com/track/5MFzQMkrl1FOOng9tq6R9r'
p1750
sg8
S"Don't Wanna Know"
p1751
ssS'5Z3GHaZ6ec9bsiI5BenrbY'
p1752
(dp1753
g3
S'Khalid'
p1754
sg5
I15
sg6
S'https://open.spotify.com/track/5Z3GHaZ6ec9bsiI5BenrbY'
p1755
sg8
S'Young Dumb & Broke'
p1756
ssS'1FM5wVAFGwG5q4dnd5fDIt'
p1757
(dp1758
g3
S'HANA'
p1759
sg5
I3
sg6
S'https://open.spotify.com/track/1FM5wVAFGwG5q4dnd5fDIt'
p1760
sg8
S'\xe5\xbf\x98\xe8\xa8\x98\xe6\x88\x91\xe8\x87\xaa\xe5\xb7\xb1 - \xe5\x8a\x87\xe9\x9b\x86 \xe2\x80\x9c\xe4\xbd\xbf\xe5\xbe\x92\xe8\xa1\x8c\xe8\x80\x852\xe2\x80\x9d \xe7\x89\x87\xe5\xb0\xbe\xe6\x9b\xb2'
p1761
ssS'3FDrI0FLKzrYQiWxPhqV2W'
p1762
(dp1763
g3
S'Calvin Harris'
p1764
sg5
I4
sg6
S'https://open.spotify.com/track/3FDrI0FLKzrYQiWxPhqV2W'
p1765
sg8
S'Rollin'
p1766
ssS'2fzOOTi4YDXENpUCr1fiaW'
p1767
(dp1768
g3
S'Janice Vidal'
p1769
sg5
I1
sg6
S'https://open.spotify.com/track/2fzOOTi4YDXENpUCr1fiaW'
p1770
sg8
S'\xe5\xa4\xa7\xe5\x93\xa5'
p1771
ssS'0B7wvvmu9EISAwZnOpjhNI'
p1772
(dp1773
g3
S'Bruno Mars'
p1774
sg5
I1
sg6
S'https://open.spotify.com/track/0B7wvvmu9EISAwZnOpjhNI'
p1775
sg8
S'When I Was Your Man'
p1776
ssS'3SfbB0Y3saMIQnNctxMVhj'
p1777
(dp1778
g3
S'SOYOU'
p1779
sg5
I10
sg6
S'https://open.spotify.com/track/3SfbB0Y3saMIQnNctxMVhj'
p1780
sg8
S'I Miss You'
p1781
ssS'1CmzpXH78pZl7n3rEjJXUo'
p1782
(dp1783
g3
S'G-DRAGON'
p1784
sg5
I1
sg6
S'https://open.spotify.com/track/1CmzpXH78pZl7n3rEjJXUo'
p1785
sg8
S'SUPER STAR'
p1786
ssS'1WP1r7fuvRqZRnUaTi2I1Q'
p1787
(dp1788
g3
S'Shawn Mendes'
p1789
sg5
I2
sg6
S'https://open.spotify.com/track/1WP1r7fuvRqZRnUaTi2I1Q'
p1790
sg8
S'Stitches'
p1791
ssS'3PJd67f7tKhRdqQHtV3rVe'
p1792
(dp1793
g3
S'Supper Moment'
p1794
sg5
I1
sg6
S'https://open.spotify.com/track/3PJd67f7tKhRdqQHtV3rVe'
p1795
sg8
S'\xe5\xb0\x8f\xe4\xbc\x99\xe5\xad\x90'
p1796
ssS'32OlwWuMpZ6b0aN2RZOeMS'
p1797
(dp1798
g3
S'Mark Ronson'
p1799
sg5
I2
sg6
S'https://open.spotify.com/track/32OlwWuMpZ6b0aN2RZOeMS'
p1800
sg8
S'Uptown Funk'
p1801
ssS'1jYiIOC5d6soxkJP81fxq2'
p1802
(dp1803
g3
S'DJ Khaled'
p1804
sg5
I1
sg6
S'https://open.spotify.com/track/1jYiIOC5d6soxkJP81fxq2'
p1805
sg8
S"I'm the One"
p1806
ssS'58SUsgamkW6vFFq0YNKGrf'
p1807
(dp1808
g3
S'Alfred Hui'
p1809
sg5
I2
sg6
S'https://open.spotify.com/track/58SUsgamkW6vFFq0YNKGrf'
p1810
sg8
S'\xe9\x9d\xa2\xe5\x85\xb7'
p1811
ssS'1mA0biZmn1OBev01XBfcQz'
p1812
(dp1813
g3
S'GOT7'
p1814
sg5
I1
sg6
S'https://open.spotify.com/track/1mA0biZmn1OBev01XBfcQz'
p1815
sg8
S'Never Ever'
p1816
ssS'47R2oj0WVDuNv4M3x3WHI6'
p1817
(dp1818
g3
S'Miriam Yeung'
p1819
sg5
I3
sg6
S'https://open.spotify.com/track/47R2oj0WVDuNv4M3x3WHI6'
p1820
sg8
S'\xe5\x8f\xaf\xe6\x83\x9c\xe6\x88\x91\xe6\x98\xaf\xe6\xb0\xb4\xe7\x93\xb6\xe5\xba\xa7'
p1821
ssS'1ipE3bBLWeLkIvxWUaxpSu'
p1822
(dp1823
g3
S'P!nk'
p1824
sg5
I1
sg6
S'https://open.spotify.com/track/1ipE3bBLWeLkIvxWUaxpSu'
p1825
sg8
S'Beautiful Trauma'
p1826
ssS'7zgqtptZvhf8GEmdsM2vp2'
p1827
(dp1828
g3
S'Taylor Swift'
p1829
sg5
I1
sg6
S'https://open.spotify.com/track/7zgqtptZvhf8GEmdsM2vp2'
p1830
sg8
S'...Ready For It?'
p1831
ssS'3b5Li4QKDVBx1x7fQuu54a'
p1832
(dp1833
g3
S'Alan Walker'
p1834
sg5
I21
sg6
S'https://open.spotify.com/track/3b5Li4QKDVBx1x7fQuu54a'
p1835
sg8
S'Tired'
p1836
ssS'3S0OXQeoh0w6AY8WQVckRW'
p1837
(dp1838
g3
S'Jason Mraz'
p1839
sg5
I1
sg6
S'https://open.spotify.com/track/3S0OXQeoh0w6AY8WQVckRW'
p1840
sg8
S"I'm Yours"
p1841
ssS'3VC1IEz9M1txlMSx3h3tPM'
p1842
(dp1843
g3
S'KARD'
p1844
sg5
I2
sg6
S'https://open.spotify.com/track/3VC1IEz9M1txlMSx3h3tPM'
p1845
sg8
S'Hola Hola'
p1846
ssS'6cPyTS0Kk2sc4xQwC93kOg'
p1847
(dp1848
g3
S'The Chainsmokers'
p1849
sg5
I8
sg6
S'https://open.spotify.com/track/6cPyTS0Kk2sc4xQwC93kOg'
p1850
sg8
S'Break Up Every Night'
p1851
ssS'5edBgVtRD0fvWk140Sl21T'
p1852
(dp1853
g3
S'OneRepublic'
p1854
sg5
I22
sg6
S'https://open.spotify.com/track/5edBgVtRD0fvWk140Sl21T'
p1855
sg8
S'Counting Stars'
p1856
ssS'7Jo5oEViT27zCkdRI5hEuG'
p1857
(dp1858
g3
S'Sam Kim'
p1859
sg5
I7
sg6
S'https://open.spotify.com/track/7Jo5oEViT27zCkdRI5hEuG'
p1860
sg8
S'Who are you'
p1861
ssS'4gDyoe1FImDlXVt58ssnMf'
p1862
(dp1863
g3
S'Coldplay'
p1864
sg5
I2
sg6
S'https://open.spotify.com/track/4gDyoe1FImDlXVt58ssnMf'
p1865
sg8
S'All I Can Think About Is You'
p1866
ssS'31MkGwj0SWgZaTvEt5Hgxv'
p1867
(dp1868
g3
S'P!nk'
p1869
sg5
I9
sg6
S'https://open.spotify.com/track/31MkGwj0SWgZaTvEt5Hgxv'
p1870
sg8
S'What About Us'
p1871
ssS'0Ye5Yf1jxFArVcNwkXwUjQ'
p1872
(dp1873
g3
S'Kay Tse'
p1874
sg5
I42
sg6
S'https://open.spotify.com/track/0Ye5Yf1jxFArVcNwkXwUjQ'
p1875
sg8
S'\xe5\x9b\x8d\xe5\xb8\x96\xe8\xa1\x97'
p1876
ssS'60a0Rd6pjrkxjPbaKzXjfq'
p1877
(dp1878
g3
S'Linkin Park'
p1879
sg5
I3
sg6
S'https://open.spotify.com/track/60a0Rd6pjrkxjPbaKzXjfq'
p1880
sg8
S'In The End'
p1881
ssS'3pC1ILr9KzmQLMe8Kn5QBG'
p1882
(dp1883
g3
S'DJ Khaled'
p1884
sg5
I1
sg6
S'https://open.spotify.com/track/3pC1ILr9KzmQLMe8Kn5QBG'
p1885
sg8
S'To the Max'
p1886
ssS'0zCfmceT1YvtZXGbR6Roht'
p1887
(dp1888
g3
S'La La Land Cast'
p1889
sg5
I15
sg6
S'https://open.spotify.com/track/0zCfmceT1YvtZXGbR6Roht'
p1890
sg8
S'Another Day Of Sun - From La La Land Soundtrack'
p1891
ssS'3VRk65lHSwqd90TAkQqhvB'
p1892
(dp1893
g3
S'Katy Perry'
p1894
sg5
I2
sg6
S'https://open.spotify.com/track/3VRk65lHSwqd90TAkQqhvB'
p1895
sg8
S'Swish Swish'
p1896
ssS'5eqK0tbzUPo2SoeZsov04s'
p1897
(dp1898
g3
S'21 Savage'
p1899
sg5
I8
sg6
S'https://open.spotify.com/track/5eqK0tbzUPo2SoeZsov04s'
p1900
sg8
S'Bank Account'
p1901
ssS'2G1kCLtTmaRPnTukpriHO8'
p1902
(dp1903
g3
S'Mayday'
p1904
sg5
I2
sg6
S'https://open.spotify.com/track/2G1kCLtTmaRPnTukpriHO8'
p1905
sg8
S'\xe5\xa5\xbd\xe5\xa5\xbd (\xe6\x83\xb3\xe6\x8a\x8a\xe4\xbd\xa0\xe5\xaf\xab\xe6\x88\x90\xe4\xb8\x80\xe9\xa6\x96\xe6\xad\x8c)'
p1906
ssS'3kxfsdsCpFgN412fpnW85Y'
p1907
(dp1908
g3
S'Childish Gambino'
p1909
sg5
I13
sg6
S'https://open.spotify.com/track/3kxfsdsCpFgN412fpnW85Y'
p1910
sg8
S'Redbone'
p1911
ssS'1OAh8uOEOvTDqkKFsKksCi'
p1912
(dp1913
g3
S'DJ Khaled'
p1914
sg5
I17
sg6
S'https://open.spotify.com/track/1OAh8uOEOvTDqkKFsKksCi'
p1915
sg8
S'Wild Thoughts'
p1916
ssS'1KeZgPUr54C8iz3FjqzVoz'
p1917
(dp1918
g3
S'The Chainsmokers'
p1919
sg5
I5
sg6
S'https://open.spotify.com/track/1KeZgPUr54C8iz3FjqzVoz'
p1920
sg8
S'Young'
p1921
ssS'4sPmO7WMQUAf45kwMOtONw'
p1922
(dp1923
g3
S'Adele'
p1924
sg5
I16
sg6
S'https://open.spotify.com/track/4sPmO7WMQUAf45kwMOtONw'
p1925
sg8
S'Hello'
p1926
ssS'3agtg0x11wPvLIWkYR39nZ'
p1927
(dp1928
g3
S'Linkin Park'
p1929
sg5
I1
sg6
S'https://open.spotify.com/track/3agtg0x11wPvLIWkYR39nZ'
p1930
sg8
S'Somewhere I Belong'
p1931
ssS'6BaCraQ9xeLYg4Sb9TBT2X'
p1932
(dp1933
g3
S'Calvin Harris'
p1934
sg5
I1
sg6
S'https://open.spotify.com/track/6BaCraQ9xeLYg4Sb9TBT2X'
p1935
sg8
S'Feels'
p1936
ssS'4UD5xrQI4nKftCje1y5Te9'
p1937
(dp1938
g3
S'Eason Chan'
p1939
sg5
I12
sg6
S'https://open.spotify.com/track/4UD5xrQI4nKftCje1y5Te9'
p1940
sg8
S'\xe6\x98\x8e\xe5\xb9\xb4\xe4\xbb\x8a\xe6\x97\xa5'
p1941
ssS'6875MeXyCW0wLyT72Eetmo'
p1942
(dp1943
g3
S'Hailee Steinfeld'
p1944
sg5
I7
sg6
S'https://open.spotify.com/track/6875MeXyCW0wLyT72Eetmo'
p1945
sg8
S'Starving'
p1946
ssS'3P3UA61WRQqwCXaoFOTENd'
p1947
(dp1948
g3
S'IU'
p1949
sg5
I1
sg6
S'https://open.spotify.com/track/3P3UA61WRQqwCXaoFOTENd'
p1950
sg8
S'Through the Night'
p1951
ssS'76m2rLNMajD5U9pu3zuR2j'
p1952
(dp1953
g3
S'Pakho Chau'
p1954
sg5
I1
sg6
S'https://open.spotify.com/track/76m2rLNMajD5U9pu3zuR2j'
p1955
sg8
S'Touchscreen'
p1956
ssS'0sXJUHfwsocaJaLM5osoWX'
p1957
(dp1958
g3
S'Emma Thompson'
p1959
sg5
I1
sg6
S'https://open.spotify.com/track/0sXJUHfwsocaJaLM5osoWX'
p1960
sg8
S'Beauty and the Beast'
p1961
ssS'3T7dNA7O8c3Axj5WyDNcH3'
p1962
(dp1963
g3
S'Brenda Lee'
p1964
sg5
I1
sg6
S'https://open.spotify.com/track/3T7dNA7O8c3Axj5WyDNcH3'
p1965
sg8
S"Rockin' Around The Christmas Tree - Single Version"
p1966
ssS'5q5gzmbBS5yQzos2BvVr1t'
p1967
(dp1968
g3
S'M\xc3\x98'
p1969
sg5
I11
sg6
S'https://open.spotify.com/track/5q5gzmbBS5yQzos2BvVr1t'
p1970
sg8
S'Nights With You'
p1971
ssS'4KJx4IOvCU2isprmXio9Xk'
p1972
(dp1973
g3
S'Jay Chou'
p1974
sg5
I1
sg6
S'https://open.spotify.com/track/4KJx4IOvCU2isprmXio9Xk'
p1975
sg8
S'\xe5\xbd\xa9\xe8\x99\xb9'
p1976
ssS'7FEifm7JywaFtCU77lLOsO'
p1977
(dp1978
g3
S'Yue Chun Giu'
p1979
sg5
I3
sg6
S'https://open.spotify.com/track/7FEifm7JywaFtCU77lLOsO'
p1980
sg8
S'\xe5\x8b\x95\xe5\x9c\xb0\xe9\xa9\x9a\xe5\xa4\xa9\xe6\x84\x9b\xe6\x88\x80\xe9\x81\x8e'
p1981
ssS'3UoE9yooLyk1fwVfNoLlgf'
p1982
(dp1983
g3
S'JW'
p1984
sg5
I18
sg6
S'https://open.spotify.com/track/3UoE9yooLyk1fwVfNoLlgf'
p1985
sg8
S'\xe7\x94\xb7\xe4\xba\xba\xe4\xbf\xa1\xe4\xbb\x80\xe9\xba\xbc'
p1986
ssS'1zAFaIAd1kek5IEi5AwPvL'
p1987
(dp1988
g3
S'Ronald Cheng'
p1989
sg5
I42
sg6
S'https://open.spotify.com/track/1zAFaIAd1kek5IEi5AwPvL'
p1990
sg8
S'\xe7\x84\xa1\xe8\xb3\xb4'
p1991
ssS'6mORGLOz79w6VsCRLWYYuK'
p1992
(dp1993
g3
S'Lord Huron'
p1994
sg5
I8
sg6
S'https://open.spotify.com/track/6mORGLOz79w6VsCRLWYYuK'
p1995
sg8
S'The Night We Met'
p1996
ssS'5aAx2yezTd8zXrkmtKl66Z'
p1997
(dp1998
g3
S'The Weeknd'
p1999
sg5
I42
sg6
S'https://open.spotify.com/track/5aAx2yezTd8zXrkmtKl66Z'
p2000
sg8
S'Starboy'
p2001
ssS'2BrzlUj1u1CtvaJDGIKpsP'
p2002
(dp2003
g3
S'Noah Cyrus'
p2004
sg5
I11
sg6
S'https://open.spotify.com/track/2BrzlUj1u1CtvaJDGIKpsP'
p2005
sg8
S'Make Me (Cry)'
p2006
ssS'1SJtlNRJDeYHioymcvsqev'
p2007
(dp2008
g3
S'Camila Cabello'
p2009
sg5
I18
sg6
S'https://open.spotify.com/track/1SJtlNRJDeYHioymcvsqev'
p2010
sg8
S'Crying in the Club'
p2011
ssS'0Wv5wuenRLI3BcwgT3HPIP'
p2012
(dp2013
g3
S'DJ Snake'
p2014
sg5
I3
sg6
S'https://open.spotify.com/track/0Wv5wuenRLI3BcwgT3HPIP'
p2015
sg8
S'A Different Way (with Lauv)'
p2016
ssS'04DwTuZ2VBdJCCC5TROn7L'
p2017
(dp2018
g3
S'Martin Garrix'
p2019
sg5
I30
sg6
S'https://open.spotify.com/track/04DwTuZ2VBdJCCC5TROn7L'
p2020
sg8
S'In the Name of Love'
p2021
ssS'53YZi9zgTnF0Py0K6ejyWz'
p2022
(dp2023
g3
S'EXO'
p2024
sg5
I1
sg6
S'https://open.spotify.com/track/53YZi9zgTnF0Py0K6ejyWz'
p2025
sg8
S'Power'
p2026
ssS'4kWCVTFPcBcYsstobVB0Ob'
p2027
(dp2028
g3
S'Pakho Chau'
p2029
sg5
I13
sg6
S'https://open.spotify.com/track/4kWCVTFPcBcYsstobVB0Ob'
p2030
sg8
S'\xe7\xb5\x82\xe6\x96\xbc\xe6\x88\x91\xe5\x80\x91 (One Step Closer) (feat. \xe5\xb2\x91\xe5\xaf\xa7\xe5\x85\x92)'
p2031
ssS'1S4ykPzZZL6Yr8XdrCWAND'
p2032
(dp2033
g3
S'Yue Chun Giu'
p2034
sg5
I24
sg6
S'https://open.spotify.com/track/1S4ykPzZZL6Yr8XdrCWAND'
p2035
sg8
S'\xe7\x95\xb6\xe6\x88\x91\xe6\x83\xb3\xe8\xb5\xb7\xe4\xbd\xa0 (feat. \xe5\xbc\xb5\xe5\xbf\x97\xe6\x98\x8e)'
p2036
ssS'5j4PzJMBgdNrXYkWxx4HfC'
p2037
(dp2038
g3
S'Supper Moment'
p2039
sg5
I9
sg6
S'https://open.spotify.com/track/5j4PzJMBgdNrXYkWxx4HfC'
p2040
sg8
S'\xe8\xaa\xaa\xe5\x86\x8d\xe8\xa6\x8b\xe4\xba\x86\xe5\x90\xa7'
p2041
ssS'512LVhDEq4u1J9aZpo4d4C'
p2042
(dp2043
g3
S'Endy Chow'
p2044
sg5
I2
sg6
S'https://open.spotify.com/track/512LVhDEq4u1J9aZpo4d4C'
p2045
sg8
S'\xe6\x84\x9b\xe6\xaf\x94\xe6\xad\xbb\xe6\x9b\xb4\xe5\x86\xb7'
p2046
ssS'6VRghJeP6I0w1KxkdWFfIh'
p2047
(dp2048
g3
S'Imagine Dragons'
p2049
sg5
I3
sg6
S'https://open.spotify.com/track/6VRghJeP6I0w1KxkdWFfIh'
p2050
sg8
S'Believer'
p2051
ssS'7bJwvubZZaoGE1AGEfu8Fi'
p2052
(dp2053
g3
S'Ariana Grande'
p2054
sg5
I8
sg6
S'https://open.spotify.com/track/7bJwvubZZaoGE1AGEfu8Fi'
p2055
sg8
S'One Last Time'
p2056
ssS'6SznMYPQJHzr3IwsAHLId2'
p2057
(dp2058
g3
S'Ed Sheeran'
p2059
sg5
I3
sg6
S'https://open.spotify.com/track/6SznMYPQJHzr3IwsAHLId2'
p2060
sg8
S'Bibia Be Ye Ye'
p2061
ssS'6LunoYd3xpZ19sICOXS8Xd'
p2062
(dp2063
g3
S'Joker Xue'
p2064
sg5
I42
sg6
S'https://open.spotify.com/track/6LunoYd3xpZ19sICOXS8Xd'
p2065
sg8
S'\xe6\xbc\x94\xe5\x93\xa1'
p2066
ssS'0NiXXAI876aGImAd6rTj8w'
p2067
(dp2068
g3
S'Jonas Blue'
p2069
sg5
I14
sg6
S'https://open.spotify.com/track/0NiXXAI876aGImAd6rTj8w'
p2070
sg8
S'Mama'
p2071
ssS'0mBKv9DkYfQHjdMcw2jdyI'
p2072
(dp2073
g3
S'Bruno Mars'
p2074
sg5
I1
sg6
S'https://open.spotify.com/track/0mBKv9DkYfQHjdMcw2jdyI'
p2075
sg8
S'Chunky'
p2076
ssS'3yLCqLsWv1IMUu2T7yirT3'
p2077
(dp2078
g3
S'Hubert Wu'
p2079
sg5
I2
sg6
S'https://open.spotify.com/track/3yLCqLsWv1IMUu2T7yirT3'
p2080
sg8
S'\xe6\x9c\x8b\xe5\x8f\x8b\xe8\xba\xab\xe4\xbb\xbd'
p2081
ssS'1n4jwRVXdkK2U34nBDUKKT'
p2082
(dp2083
g3
S'Kendrick Lamar'
p2084
sg5
I1
sg6
S'https://open.spotify.com/track/1n4jwRVXdkK2U34nBDUKKT'
p2085
sg8
S'BLOOD.'
p2086
ssS'72jCZdH0Lhg93z6Z4hBjgj'
p2087
(dp2088
g3
S'Taylor Swift'
p2089
sg5
I1
sg6
S'https://open.spotify.com/track/72jCZdH0Lhg93z6Z4hBjgj'
p2090
sg8
S'I Knew You Were Trouble.'
p2091
ssS'7oVEtyuv9NBmnytsCIsY5I'
p2092
(dp2093
g3
S'Linkin Park'
p2094
sg5
I1
sg6
S'https://open.spotify.com/track/7oVEtyuv9NBmnytsCIsY5I'
p2095
sg8
S'BURN IT DOWN'
p2096
ssS'1sYSP7gKa5kdKIfhANfori'
p2097
(dp2098
g3
S'MAX'
p2099
sg5
I12
sg6
S'https://open.spotify.com/track/1sYSP7gKa5kdKIfhANfori'
p2100
sg8
S'Lights Down Low'
p2101
ssS'5Ohxk2dO5COHF1krpoPigN'
p2102
(dp2103
g3
S'Harry Styles'
p2104
sg5
I19
sg6
S'https://open.spotify.com/track/5Ohxk2dO5COHF1krpoPigN'
p2105
sg8
S'Sign of the Times'
p2106
ssS'1ccNLIJMQxsTleaULYWwZD'
p2107
(dp2108
g3
S'Eason Chan'
p2109
sg5
I16
sg6
S'https://open.spotify.com/track/1ccNLIJMQxsTleaULYWwZD'
p2110
sg8
S'\xe7\x84\xa1\xe6\xa2\x9d\xe4\xbb\xb6'
p2111
ssS'3R560HW2KjY1ljtXwzg19y'
p2112
(dp2113
g3
S'Janice Vidal'
p2114
sg5
I20
sg6
S'https://open.spotify.com/track/3R560HW2KjY1ljtXwzg19y'
p2115
sg8
S'\xe5\xa4\xa9\xe6\x95\xb5'
p2116
ssS'2gZz0IObxj6NLBN3xUd75t'
p2117
(dp2118
g3
S'Joey Yung'
p2119
sg5
I2
sg6
S'https://open.spotify.com/track/2gZz0IObxj6NLBN3xUd75t'
p2120
sg8
S'\xe5\xa4\xa9\xe4\xb9\x8b\xe9\xa9\x95\xe5\xa5\xb3'
p2121
ssS'7FCfMXYTIiQ9b4hDYs4Iol'
p2122
(dp2123
g3
S'Dua Lipa'
p2124
sg5
I9
sg6
S'https://open.spotify.com/track/7FCfMXYTIiQ9b4hDYs4Iol'
p2125
sg8
S'Be The One'
p2126
ssS'4mxWSdf71VFO52qFeY0fZt'
p2127
(dp2128
g3
S'Maroon 5'
p2129
sg5
I6
sg6
S'https://open.spotify.com/track/4mxWSdf71VFO52qFeY0fZt'
p2130
sg8
S'What Lovers Do (feat. SZA)'
p2131
ssS'1ADjWm8QNhgNV8yCNNgQ1T'
p2132
(dp2133
g3
S'Ariana Grande'
p2134
sg5
I1
sg6
S'https://open.spotify.com/track/1ADjWm8QNhgNV8yCNNgQ1T'
p2135
sg8
S'Santa Tell Me'
p2136
ssS'2ppkGKabWsSgNV4fvOldQb'
p2137
(dp2138
g3
S'Adam Mitchell'
p2139
sg5
I1
sg6
S'https://open.spotify.com/track/2ppkGKabWsSgNV4fvOldQb'
p2140
sg8
S'Days In The Sun'
p2141
ssS'4Hf7WnR761jpxPr5D46Bcd'
p2142
(dp2143
g3
S'Shawn Mendes'
p2144
sg5
I42
sg6
S'https://open.spotify.com/track/4Hf7WnR761jpxPr5D46Bcd'
p2145
sg8
S'Treat You Better'
p2146
ssS'5cAjZbI6cblUBpjrLYrAZm'
p2147
(dp2148
g3
S'Gin Lee'
p2149
sg5
I6
sg6
S'https://open.spotify.com/track/5cAjZbI6cblUBpjrLYrAZm'
p2150
sg8
S'\xe5\x92\x8c\xe6\xaf\x8f\xe5\xa4\xa9\xe8\xac\x9b\xe5\x86\x8d\xe8\xa6\x8b'
p2151
ssS'3x4cfYsYLrrTwS9JZAzUdC'
p2152
(dp2153
g3
S'Vincent Wong'
p2154
sg5
I17
sg6
S'https://open.spotify.com/track/3x4cfYsYLrrTwS9JZAzUdC'
p2155
sg8
S'\xe9\x99\xaa\xe8\x91\x97\xe4\xbd\xa0\xe8\xb5\xb0 (\xe5\x90\x88\xe5\x94\xb1\xe7\x89\x88)'
p2156
ssS'0dXNQ8dckG4eYfEtq9zcva'
p2157
(dp2158
g3
S'The Vamps'
p2159
sg5
I1
sg6
S'https://open.spotify.com/track/0dXNQ8dckG4eYfEtq9zcva'
p2160
sg8
S'All Night'
p2161
ssS'7qPzWJGFP6KO6JgDqKdjDK'
p2162
(dp2163
g3
S'BIGBANG'
p2164
sg5
I1
sg6
S'https://open.spotify.com/track/7qPzWJGFP6KO6JgDqKdjDK'
p2165
sg8
S'BAE BAE - KR ver.'
p2166
ssS'5ubfQzhabDSLYyohz2ozaN'
p2167
(dp2168
g3
S'Red Velvet'
p2169
sg5
I2
sg6
S'https://open.spotify.com/track/5ubfQzhabDSLYyohz2ozaN'
p2170
sg8
S'Rookie'
p2171
ssS'3cthRwQ2X0SNTaauD7tjn5'
p2172
(dp2173
g3
S'Eason Chan'
p2174
sg5
I1
sg6
S'https://open.spotify.com/track/3cthRwQ2X0SNTaauD7tjn5'
p2175
sg8
S'\xe5\xaf\x8c\xe5\xa3\xab\xe5\xb1\xb1\xe4\xb8\x8b'
p2176
ssS'6vSforRhuzsA0D0SO9fG1S'
p2177
(dp2178
g3
S'Charlie Puth'
p2179
sg5
I42
sg6
S'https://open.spotify.com/track/6vSforRhuzsA0D0SO9fG1S'
p2180
sg8
S'One Call Away'
p2181
ssS'65MOTX6uSFAnqXl7dlAuId'
p2182
(dp2183
g3
S'Demi Lovato'
p2184
sg5
I1
sg6
S'https://open.spotify.com/track/65MOTX6uSFAnqXl7dlAuId'
p2185
sg8
S'Tell Me You Love Me'
p2186
ssS'1EaKU4dMbesXXd3BrLCtYG'
p2187
(dp2188
g3
S'Kendrick Lamar'
p2189
sg5
I3
sg6
S'https://open.spotify.com/track/1EaKU4dMbesXXd3BrLCtYG'
p2190
sg8
S'ELEMENT.'
p2191
ssS'5RRjo7lgYYJYaNstEAAthv'
p2192
(dp2193
g3
S'Ronghao Li'
p2194
sg5
I1
sg6
S'https://open.spotify.com/track/5RRjo7lgYYJYaNstEAAthv'
p2195
sg8
S'\xe5\xb0\xb1\xe9\x80\x99\xe6\xa8\xa3'
p2196
ssS'7xHWNBFm6ObGEQPaUxHuKO'
p2197
(dp2198
g3
S'Sia'
p2199
sg5
I4
sg6
S'https://open.spotify.com/track/7xHWNBFm6ObGEQPaUxHuKO'
p2200
sg8
S'The Greatest'
p2201
ssS'2fXH2iei02pBaSIdn5X4zJ'
p2202
(dp2203
g3
S'Ryan Gosling'
p2204
sg5
I8
sg6
S'https://open.spotify.com/track/2fXH2iei02pBaSIdn5X4zJ'
p2205
sg8
S'A Lovely Night - From La La Land Soundtrack'
p2206
ssS'5knuzwU65gJK7IF5yJsuaW'
p2207
(dp2208
g3
S'Clean Bandit'
p2209
sg5
I42
sg6
S'https://open.spotify.com/track/5knuzwU65gJK7IF5yJsuaW'
p2210
sg8
S'Rockabye (feat. Sean Paul & Anne-Marie)'
p2211
ssS'7aF09WaavZAmAWuUeYxlYD'
p2212
(dp2213
g3
S'OneRepublic'
p2214
sg5
I13
sg6
S'https://open.spotify.com/track/7aF09WaavZAmAWuUeYxlYD'
p2215
sg8
S'Rich Love (with Seeb)'
p2216
ssS'67QGnT1Vdfuuy4HkLTUVjj'
p2217
(dp2218
g3
S'TAEYEON'
p2219
sg5
I2
sg6
S'https://open.spotify.com/track/67QGnT1Vdfuuy4HkLTUVjj'
p2220
sg8
S'11:11'
p2221
ssS'14WWzenpaEgQZlqPq2nk4v'
p2222
(dp2223
g3
S'Rihanna'
p2224
sg5
I1
sg6
S'https://open.spotify.com/track/14WWzenpaEgQZlqPq2nk4v'
p2225
sg8
S'Work'
p2226
ssS'7JgrXsz6iboJVRliq5KWyA'
p2227
(dp2228
g3
S'\xe8\x94\xa1\xe4\xb8\x80\xe5\x82\x91'
p2229
sg5
I4
sg6
S'https://open.spotify.com/track/7JgrXsz6iboJVRliq5KWyA'
p2230
sg8
S'\xe7\x94\xb7\xe8\x97\x8d'
p2231
ssS'6b8Be6ljOzmkOmFslEb23P'
p2232
(dp2233
g3
S'Bruno Mars'
p2234
sg5
I42
sg6
S'https://open.spotify.com/track/6b8Be6ljOzmkOmFslEb23P'
p2235
sg8
S'24K Magic'
p2236
ssS'6KmWiz0zpYSPA56Poz0Cjb'
p2237
(dp2238
g3
S'WINNER'
p2239
sg5
I2
sg6
S'https://open.spotify.com/track/6KmWiz0zpYSPA56Poz0Cjb'
p2240
sg8
S'LOVE ME LOVE ME'
p2241
ssS'0bYg9bo50gSsH3LtXe2SQn'
p2242
(dp2243
g3
S'Mariah Carey'
p2244
sg5
I1
sg6
S'https://open.spotify.com/track/0bYg9bo50gSsH3LtXe2SQn'
p2245
sg8
S'All I Want for Christmas Is You'
p2246
ssS'6uJwPeBGb3swi85TSr9iIz'
p2247
(dp2248
g3
S'Coldplay'
p2249
sg5
I2
sg6
S'https://open.spotify.com/track/6uJwPeBGb3swi85TSr9iIz'
p2250
sg8
S'Miracles (Someone Special)'
p2251
ssS'4so0Wek9Ig1p6CRCHuINwW'
p2252
(dp2253
g3
S'Bing Crosby'
p2254
sg5
I1
sg6
S'https://open.spotify.com/track/4so0Wek9Ig1p6CRCHuINwW'
p2255
sg8
S'White Christmas'
p2256
ssS'07MNtfddtgCo6VrUm3O9dw'
p2257
(dp2258
g3
S'Eason Chan'
p2259
sg5
I11
sg6
S'https://open.spotify.com/track/07MNtfddtgCo6VrUm3O9dw'
p2260
sg8
S'\xe8\xae\x93\xe6\x88\x91\xe7\x95\x99\xe5\x9c\xa8\xe4\xbd\xa0\xe8\xba\xab\xe9\x82\x8a'
p2261
ssS'4FPrAERfkPKOBKrRoyuxLu'
p2262
(dp2263
g3
S'Michael Bubl\xc3\xa9'
p2264
sg5
I1
sg6
S'https://open.spotify.com/track/4FPrAERfkPKOBKrRoyuxLu'
p2265
sg8
S'Cold December Night'
p2266
ssS'4JY5s40ymnG18f6wxQtzPw'
p2267
(dp2268
g3
S'Jay Chou'
p2269
sg5
I1
sg6
S'https://open.spotify.com/track/4JY5s40ymnG18f6wxQtzPw'
p2270
sg8
S'\xe7\x8f\x8a\xe7\x91\x9a\xe6\xb5\xb7'
p2271
ssS'6rRtiujgKHYesXiAEVLjMm'
p2272
(dp2273
g3
S'G-DRAGON'
p2274
sg5
I1
sg6
S'https://open.spotify.com/track/6rRtiujgKHYesXiAEVLjMm'
p2275
sg8
S'OUTRO. \xec\x8b\xa0\xea\xb3\xa1(\xe7\xa5\x9e\xe6\x9b\xb2) (Divina Commedia)'
p2276
ssS'2YMyVYNLmFDD0KGtNkkgFa'
p2277
(dp2278
g3
S'DNCE'
p2279
sg5
I2
sg6
S'https://open.spotify.com/track/2YMyVYNLmFDD0KGtNkkgFa'
p2280
sg8
S'Kissing Strangers'
p2281
ssS'3MFtpUYTRdYCVTaEjOYLlC'
p2282
(dp2283
g3
S'Dear Jane'
p2284
sg5
I9
sg6
S'https://open.spotify.com/track/3MFtpUYTRdYCVTaEjOYLlC'
p2285
sg8
S'\xe7\xb5\x82\xe9\xbb\x9e\xe7\x9a\x84\xe6\x93\x81\xe6\x8a\xb1'
p2286
ssS'6HZILIRieu8S0iqY8kIKhj'
p2287
(dp2288
g3
S'Kendrick Lamar'
p2289
sg5
I13
sg6
S'https://open.spotify.com/track/6HZILIRieu8S0iqY8kIKhj'
p2290
sg8
S'DNA.'
p2291
ssS'5MvxeZPiiLAuB5gI8k3ynk'
p2292
(dp2293
g3
S'IU'
p2294
sg5
I1
sg6
S'https://open.spotify.com/track/5MvxeZPiiLAuB5gI8k3ynk'
p2295
sg8
S"Can't Love You Anymore (With OHHYUK)"
p2296
ssS'4gqMQftUs22F8pOGVn5Acr'
p2297
(dp2298
g3
S'Shawn Hook'
p2299
sg5
I14
sg6
S'https://open.spotify.com/track/4gqMQftUs22F8pOGVn5Acr'
p2300
sg8
S'Reminding Me'
p2301
ssS'51BeD63tJvcigYkbVjIecl'
p2302
(dp2303
g3
S'Jade Liu'
p2304
sg5
I1
sg6
S'https://open.spotify.com/track/51BeD63tJvcigYkbVjIecl'
p2305
sg8
S'\xe7\xa6\xae\xe7\x89\xa9'
p2306
ssS'0gKNqldG2cL6UZGCre4rAj'
p2307
(dp2308
g3
S'Phil Lam'
p2309
sg5
I38
sg6
S'https://open.spotify.com/track/0gKNqldG2cL6UZGCre4rAj'
p2310
sg8
S'\xe9\x9b\xa3\xe5\xbe\x97\xe4\xb8\x80\xe9\x81\x87'
p2311
ssS'46PadaCSDaywhLtTLgltbc'
p2312
(dp2313
g3
S'Kwan Gor'
p2314
sg5
I41
sg6
S'https://open.spotify.com/track/46PadaCSDaywhLtTLgltbc'
p2315
sg8
S'\xe5\x8e\x9f\xe4\xbe\x86\xe5\xa5\xb9\xe4\xb8\x8d\xe5\xa4\xa0\xe6\x84\x9b\xe6\x88\x91'
p2316
ssS'3B54sVLJ402zGa6Xm4YGNe'
p2317
(dp2318
g3
S'French Montana'
p2319
sg5
I14
sg6
S'https://open.spotify.com/track/3B54sVLJ402zGa6Xm4YGNe'
p2320
sg8
S'Unforgettable'
p2321
ssS'32DGGj6KlNuBr6WaqRxpxi'
p2322
(dp2323
g3
S'Charlie Puth'
p2324
sg5
I1
sg6
S'https://open.spotify.com/track/32DGGj6KlNuBr6WaqRxpxi'
p2325
sg8
S'How Long'
p2326
ssS'0ug5NqcwcFR2xrfTkc7k8e'
p2327
(dp2328
g3
S'Taylor Swift'
p2329
sg5
I2
sg6
S'https://open.spotify.com/track/0ug5NqcwcFR2xrfTkc7k8e'
p2330
sg8
S'Style'
p2331
ssS'22BH6K8RlpwNzIINvWS4Jj'
p2332
(dp2333
g3
S'Bebe Rexha'
p2334
sg5
I1
sg6
S'https://open.spotify.com/track/22BH6K8RlpwNzIINvWS4Jj'
p2335
sg8
S'(Not) The One'
p2336
ssS'6gpcs5eMhJwax4mIfKDYQk'
p2337
(dp2338
g3
S'Calvin Harris'
p2339
sg5
I4
sg6
S'https://open.spotify.com/track/6gpcs5eMhJwax4mIfKDYQk'
p2340
sg8
S'Slide'
p2341
ssS'7BqBn9nzAq8spo5e7cZ0dJ'
p2342
(dp2343
g3
S'Bruno Mars'
p2344
sg5
I1
sg6
S'https://open.spotify.com/track/7BqBn9nzAq8spo5e7cZ0dJ'
p2345
sg8
S'Just the Way You Are'
p2346
ssS'0YVsrgp4OOUhFuYMAVQazV'
p2347
(dp2348
g3
S'BIGBANG'
p2349
sg5
I27
sg6
S'https://open.spotify.com/track/0YVsrgp4OOUhFuYMAVQazV'
p2350
sg8
S'FXXK IT'
p2351
ssS'4Rt9k4SE8dbfKzngxKJPq9'
p2352
(dp2353
g3
S'Jay Chou'
p2354
sg5
I1
sg6
S'https://open.spotify.com/track/4Rt9k4SE8dbfKzngxKJPq9'
p2355
sg8
S'\xe6\x93\xb1\xe6\xb7\xba'
p2356
ssS'5rQPgfJMJ7yhsEr0HwTA77'
p2357
(dp2358
g3
S'Jay Chou'
p2359
sg5
I2
sg6
S'https://open.spotify.com/track/5rQPgfJMJ7yhsEr0HwTA77'
p2360
sg8
S'\xe4\xb8\x80\xe9\xbb\x9e\xe9\xbb\x9e'
p2361
ssS'54j9T3fIZACdpQD62DXlY7'
p2362
(dp2363
g3
S'Dear John'
p2364
sg5
I1
sg6
S'https://open.spotify.com/track/54j9T3fIZACdpQD62DXlY7'
p2365
sg8
S'Lovesick'
p2366
ssS'4qqArAiTPueDxIp7cf87h7'
p2367
(dp2368
g3
S'M\xc3\x98'
p2369
sg5
I3
sg6
S'https://open.spotify.com/track/4qqArAiTPueDxIp7cf87h7'
p2370
sg8
S'Final Song'
p2371
ssS'5hslUAKq9I9CG2bAulFkHN'
p2372
(dp2373
g3
S'Andy Williams'
p2374
sg5
I1
sg6
S'https://open.spotify.com/track/5hslUAKq9I9CG2bAulFkHN'
p2375
sg8
S"It's the Most Wonderful Time of the Year"
p2376
ssS'06FmV54Khr2uKbMr4IfJ7I'
p2377
(dp2378
g3
S'Eason Chan'
p2379
sg5
I1
sg6
S'https://open.spotify.com/track/06FmV54Khr2uKbMr4IfJ7I'
p2380
sg8
S'\xe8\xaa\xb0\xe4\xbe\x86\xe5\x89\xaa\xe6\x9c\x88\xe5\x85\x89'
p2381
ssS'2nLtzopw4rPReszdYBJU6h'
p2382
(dp2383
g3
S'Linkin Park'
p2384
sg5
I3
sg6
S'https://open.spotify.com/track/2nLtzopw4rPReszdYBJU6h'
p2385
sg8
S'Numb'
p2386
ssS'3a1lNhkSLSkpJE4MSHpDu9'
p2387
(dp2388
g3
S'Post Malone'
p2389
sg5
I34
sg6
S'https://open.spotify.com/track/3a1lNhkSLSkpJE4MSHpDu9'
p2390
sg8
S'Congratulations'
p2391
ssS'1m5lRS5uyDSjAo8XNq5y19'
p2392
(dp2393
g3
S'Kwan Gor'
p2394
sg5
I7
sg6
S'https://open.spotify.com/track/1m5lRS5uyDSjAo8XNq5y19'
p2395
sg8
S'\xe9\x99\xbd\xe5\x85\x89\xe9\xbb\x9e\xe7\x9a\x84\xe6\xad\x8c'
p2396
ssS'79NlESqzFSW0hdBWgls4FX'
p2397
(dp2398
g3
S'Kesha'
p2399
sg5
I5
sg6
S'https://open.spotify.com/track/79NlESqzFSW0hdBWgls4FX'
p2400
sg8
S'Praying'
p2401
ssS'0ofbQMrRDsUaVKq2mGLEAb'
p2402
(dp2403
g3
S'Camila Cabello'
p2404
sg5
I10
sg6
S'https://open.spotify.com/track/0ofbQMrRDsUaVKq2mGLEAb'
p2405
sg8
S'Havana'
p2406
ssS'1nm0u1FGtfTGexRsGjEysk'
p2407
(dp2408
g3
S'AGA'
p2409
sg5
I13
sg6
S'https://open.spotify.com/track/1nm0u1FGtfTGexRsGjEysk'
p2410
sg8
S'\xe5\xad\xa4\xe9\x9b\x9b'
p2411
ssS'5HmeFa7zVftWT7VP2OXuzP'
p2412
(dp2413
g3
S'Eman Lam'
p2414
sg5
I1
sg6
S'https://open.spotify.com/track/5HmeFa7zVftWT7VP2OXuzP'
p2415
sg8
S'\xe9\x8a\x80\xe9\xab\xae\xe7\x99\xbd'
p2416
ssS'62TFu6x6PuNwfyDBizADOq'
p2417
(dp2418
g3
S'Kayee Tam'
p2419
sg5
I1
sg6
S'https://open.spotify.com/track/62TFu6x6PuNwfyDBizADOq'
p2420
sg8
S'\xe5\x8d\xb0\xe8\xa8\x98 - \xe8\xad\x9a\xe5\x98\x89\xe5\x84\x80'
p2421
ssS'6bLopGnirdrilrpdVB6Um1'
p2422
(dp2423
g3
S'Sia'
p2424
sg5
I2
sg6
S'https://open.spotify.com/track/6bLopGnirdrilrpdVB6Um1'
p2425
sg8
S'The Greatest'
p2426
ssS'6eUncuJutsFi9BGO1JaBHh'
p2427
(dp2428
g3
S'Jason Derulo'
p2429
sg5
I6
sg6
S'https://open.spotify.com/track/6eUncuJutsFi9BGO1JaBHh'
p2430
sg8
S"If I'm Lucky"
p2431
ssS'7iDa6hUg2VgEL1o1HjmfBn'
p2432
(dp2433
g3
S'Bebe Rexha'
p2434
sg5
I4
sg6
S'https://open.spotify.com/track/7iDa6hUg2VgEL1o1HjmfBn'
p2435
sg8
S'Meant to Be (feat. Florida Georgia Line)'
p2436
ssS'1vvNmPOiUuyCbgWmtc6yfm'
p2437
(dp2438
g3
S'Calvin Harris'
p2439
sg5
I9
sg6
S'https://open.spotify.com/track/1vvNmPOiUuyCbgWmtc6yfm'
p2440
sg8
S'My Way'
p2441
ssS'3DXncPQOG4VBw3QHh3S817'
p2442
(dp2443
g3
S'DJ Khaled'
p2444
sg5
I20
sg6
S'https://open.spotify.com/track/3DXncPQOG4VBw3QHh3S817'
p2445
sg8
S"I'm the One"
p2446
ssS'53lFtfrl5Of2Hkr5eiNscQ'
p2447
(dp2448
g3
S'Terence Siufay'
p2449
sg5
I42
sg6
S'https://open.spotify.com/track/53lFtfrl5Of2Hkr5eiNscQ'
p2450
sg8
S'\xe6\x99\x82\xe5\x85\x89\xe6\xa9\x9f'
p2451
ssS'1gapVB9DEFDlhLyqKnADBz'
p2452
(dp2453
g3
S'Eason Chan'
p2454
sg5
I1
sg6
S'https://open.spotify.com/track/1gapVB9DEFDlhLyqKnADBz'
p2455
sg8
S'\xe6\x94\xbe'
p2456
ssS'1Sl3njkhhz8nrSPZroDQ82'
p2457
(dp2458
g3
S'Dimitri Vegas & Like Mike'
p2459
sg5
I11
sg6
S'https://open.spotify.com/track/1Sl3njkhhz8nrSPZroDQ82'
p2460
sg8
S'Complicated (feat. Kiiara)'
p2461
ssS'5r3EMFkXgJ4YKEptvLp9Fc'
p2462
(dp2463
g3
S'Deep Ng'
p2464
sg5
I4
sg6
S'https://open.spotify.com/track/5r3EMFkXgJ4YKEptvLp9Fc'
p2465
sg8
S'\xe8\xbc\x83\xe6\x97\xa9\xe5\x89\x8d\xe9\x8c\x84\xe5\xbd\xb1'
p2466
ssS'57BrRMwf9LrcmuOsyGilwr'
p2467
(dp2468
g3
S'Linkin Park'
p2469
sg5
I1
sg6
S'https://open.spotify.com/track/57BrRMwf9LrcmuOsyGilwr'
p2470
sg8
S'Crawling'
p2471
ssS'027DJzimsjm1M1hflEWLnv'
p2472
(dp2473
g3
S'Juno Mak'
p2474
sg5
I42
sg6
S'https://open.spotify.com/track/027DJzimsjm1M1hflEWLnv'
p2475
sg8
S'\xe8\x80\xbf\xe8\x80\xbf\xe6\x96\xbc\xe6\x87\xb7'
p2476
ssS'7iJAuD6AfOvOaFvgFr4Yr1'
p2477
(dp2478
g3
S'Shiga Lin'
p2479
sg5
I1
sg6
S'https://open.spotify.com/track/7iJAuD6AfOvOaFvgFr4Yr1'
p2480
sg8
S'\xe4\xb8\x8d\xe7\x94\x98\xe7\xa4\xba\xe5\xbc\xb1 (feat. \xe5\x81\xb4\xe7\x94\xb0)'
p2481
ssS'0afhq8XCExXpqazXczTSve'
p2482
(dp2483
g3
S'Ed Sheeran'
p2484
sg5
I32
sg6
S'https://open.spotify.com/track/0afhq8XCExXpqazXczTSve'
p2485
sg8
S'Galway Girl'
p2486
ssS'2ZE3DJuizYTad2S4CvRRhK'
p2487
(dp2488
g3
S'Lauv'
p2489
sg5
I1
sg6
S'https://open.spotify.com/track/2ZE3DJuizYTad2S4CvRRhK'
p2490
sg8
S'Easy Love'
p2491
ssS'6wCdaGGHgkdLqzyNMLey27'
p2492
(dp2493
g3
S'Charlene Choi'
p2494
sg5
I24
sg6
S'https://open.spotify.com/track/6wCdaGGHgkdLqzyNMLey27'
p2495
sg8
S'\xe8\xab\x8b\xe4\xbd\xa0\xe6\x84\x9b\xe6\x88\x91 - \xe9\x9b\xbb\xe5\xbd\xb1 : \xe5\x8e\x9f\xe8\xab\x92\xe4\xbb\x9677\xe6\xac\xa1 \xe4\xb8\xbb\xe9\xa1\x8c\xe6\x9b\xb2'
p2496
ssS'1NDxZ7cFAo481dtYWdrUnR'
p2497
(dp2498
g3
S'Maggie Lindemann'
p2499
sg5
I28
sg6
S'https://open.spotify.com/track/1NDxZ7cFAo481dtYWdrUnR'
p2500
sg8
S'Pretty Girl - Cheat Codes X CADE Remix'
p2501
ssS'08WPvDEsHvTFuB9w8tC2OS'
p2502
(dp2503
g3
S'Sage The Gemini'
p2504
sg5
I1
sg6
S'https://open.spotify.com/track/08WPvDEsHvTFuB9w8tC2OS'
p2505
sg8
S'Now and Later'
p2506
ssS'2aFiaMXmWsM3Vj72F9ksBl'
p2507
(dp2508
g3
S'DNCE'
p2509
sg5
I5
sg6
S'https://open.spotify.com/track/2aFiaMXmWsM3Vj72F9ksBl'
p2510
sg8
S'Cake By The Ocean'
p2511
ssS'2b8t4v5VrZPHnVmQGTL6O1'
p2512
(dp2513
g3
S'Terence Siufay'
p2514
sg5
I1
sg6
S'https://open.spotify.com/track/2b8t4v5VrZPHnVmQGTL6O1'
p2515
sg8
S'\xe5\xaf\xb5\xe7\x89\xa9'
p2516
ssS'152lZdxL1OR0ZMW6KquMif'
p2517
(dp2518
g3
S'Khalid'
p2519
sg5
I24
sg6
S'https://open.spotify.com/track/152lZdxL1OR0ZMW6KquMif'
p2520
sg8
S'Location'
p2521
ssS'4TZy1wLyHec06pwgFYDh1a'
p2522
(dp2523
g3
S'Shawn Mendes'
p2524
sg5
I12
sg6
S'https://open.spotify.com/track/4TZy1wLyHec06pwgFYDh1a'
p2525
sg8
S'Mercy'
p2526
ssS'2kvjuJdmaUAzCTi0MbyW7t'
p2527
(dp2528
g3
S'\xe9\x99\xb3\xe4\xbb\xa5\xe6\xa1\x90'
p2529
sg5
I29
sg6
S'https://open.spotify.com/track/2kvjuJdmaUAzCTi0MbyW7t'
p2530
sg8
S'\xe5\xb0\x8f\xe5\xb9\xb8\xe8\xbf\x90'
p2531
ssS'5qtSNy9cdlzMqQQyaOzH6U'
p2532
(dp2533
g3
S'BIGBANG'
p2534
sg5
I8
sg6
S'https://open.spotify.com/track/5qtSNy9cdlzMqQQyaOzH6U'
p2535
sg8
S'GIRLFRIEND'
p2536
ssS'3RXkboS74UYzN14xTqzPyY'
p2537
(dp2538
g3
g232
sg5
I1
sg6
S'https://open.spotify.com/track/3RXkboS74UYzN14xTqzPyY'
p2539
sg8
g232
ssS'20H2Hd5AkUcRjB4yL3UQtJ'
p2540
(dp2541
g3
S'Fifth Harmony'
p2542
sg5
I3
sg6
S'https://open.spotify.com/track/20H2Hd5AkUcRjB4yL3UQtJ'
p2543
sg8
S'Down'
p2544
ssS'1UwERmn5UogyCz6qo21BmA'
p2545
(dp2546
g3
S"Girls' Generation"
p2547
sg5
I2
sg6
S'https://open.spotify.com/track/1UwERmn5UogyCz6qo21BmA'
p2548
sg8
S'All Night'
p2549
ssS'7iDxZ5Cd0Yg08d4fI5WVtG'
p2550
(dp2551
g3
S'Calvin Harris'
p2552
sg5
I1
sg6
S'https://open.spotify.com/track/7iDxZ5Cd0Yg08d4fI5WVtG'
p2553
sg8
S'Skrt On Me'
p2554
ssS'1FUViuNSldssMIawrOXF2i'
p2555
(dp2556
g3
S'Bebe Rexha'
p2557
sg5
I16
sg6
S'https://open.spotify.com/track/1FUViuNSldssMIawrOXF2i'
p2558
sg8
S'I Got You'
p2559
ssS'0WJVy5IYA9AeAI1htZDq0C'
p2560
(dp2561
g3
S'Wanna One'
p2562
sg5
I2
sg6
S'https://open.spotify.com/track/0WJVy5IYA9AeAI1htZDq0C'
p2563
sg8
S'Burn It Up'
p2564
ssS'4HN2lu14JqrBVT1OYinP8f'
p2565
(dp2566
g3
S'Roy Kim'
p2567
sg5
I1
sg6
S'https://open.spotify.com/track/4HN2lu14JqrBVT1OYinP8f'
p2568
sg8
S'HEAVEN'
p2569
ssS'6OuV4vfyb8v3vGGGksqyKf'
p2570
(dp2571
g3
S'AJR'
p2572
sg5
I1
sg6
S'https://open.spotify.com/track/6OuV4vfyb8v3vGGGksqyKf'
p2573
sg8
S'Weak'
p2574
ssS'3kwqNLXvsjSrIXbVsRBj8q'
p2575
(dp2576
g3
S'Jay Chou'
p2577
sg5
I1
sg6
S'https://open.spotify.com/track/3kwqNLXvsjSrIXbVsRBj8q'
p2578
sg8
S'\xe4\xb8\x83\xe9\x87\x8c\xe9\xa6\x99'
p2579
ssS'3urogUGoBidulMDDoucJBB'
p2580
(dp2581
g3
S'Joker Xue'
p2582
sg5
I1
sg6
S'https://open.spotify.com/track/3urogUGoBidulMDDoucJBB'
p2583
sg8
S'\xe5\x89\x9b\xe5\x89\x9b\xe5\xa5\xbd'
p2584
ssS'542Xd5qDeLBvgXZXhfW7LE'
p2585
(dp2586
g3
S'Vice'
p2587
sg5
I1
sg6
S'https://open.spotify.com/track/542Xd5qDeLBvgXZXhfW7LE'
p2588
sg8
S'Obsession (feat. Jon Bellion)'
p2589
ssS'4Q4jmPHwu0wrJvqrld0FQ6'
p2590
(dp2591
g3
S'Zara Larsson'
p2592
sg5
I10
sg6
S'https://open.spotify.com/track/4Q4jmPHwu0wrJvqrld0FQ6'
p2593
sg8
S'I Would Like'
p2594
ssS'0dUUxhABWijxjtKFGYMmAO'
p2595
(dp2596
g3
S'Shiga Lin'
p2597
sg5
I7
sg6
S'https://open.spotify.com/track/0dUUxhABWijxjtKFGYMmAO'
p2598
sg8
S'\xe8\x88\x8a\xe8\xa1\x97\xe8\xa7\x92'
p2599
ssS'6KjbNLbRjuoa8rEq5yNA6H'
p2600
(dp2601
g3
S'The Chainsmokers'
p2602
sg5
I2
sg6
S'https://open.spotify.com/track/6KjbNLbRjuoa8rEq5yNA6H'
p2603
sg8
S'Honest'
p2604
ssS'7yyRTcZmCiyzzJlNzGC9Ol'
p2605
(dp2606
g3
S'DRAM'
p2607
sg5
I2
sg6
S'https://open.spotify.com/track/7yyRTcZmCiyzzJlNzGC9Ol'
p2608
sg8
S'Broccoli (feat. Lil Yachty)'
p2609
ssS'4WjH9Bzt3kx7z8kl0awxh4'
p2610
(dp2611
g3
S'Major Lazer'
p2612
sg5
I5
sg6
S'https://open.spotify.com/track/4WjH9Bzt3kx7z8kl0awxh4'
p2613
sg8
S'Lean On (feat. M\xc3\x98 & DJ Snake)'
p2614
ssS'0euGAAHr3mQyhVKgq0mM5d'
p2615
(dp2616
g3
S'Pakho Chau'
p2617
sg5
I42
sg6
S'https://open.spotify.com/track/0euGAAHr3mQyhVKgq0mM5d'
p2618
sg8
S'\xe7\x99\xbe\xe5\xb9\xb4\xe4\xb8\x8d\xe5\x90\x88'
p2619
ssS'2Fjz5ZC5BvFdCqcnTZ3ilH'
p2620
(dp2621
g3
S'Alan Walker'
p2622
sg5
I18
sg6
S'https://open.spotify.com/track/2Fjz5ZC5BvFdCqcnTZ3ilH'
p2623
sg8
S'Sing Me to Sleep'
p2624
ssS'5tz69p7tJuGPeMGwNTxYuV'
p2625
(dp2626
g3
S'Logic'
p2627
sg5
I23
sg6
S'https://open.spotify.com/track/5tz69p7tJuGPeMGwNTxYuV'
p2628
sg8
S'1-800-273-8255'
p2629
ssS'2771LMNxwf62FTAdpJMQfM'
p2630
(dp2631
g3
S'Cardi B'
p2632
sg5
I8
sg6
S'https://open.spotify.com/track/2771LMNxwf62FTAdpJMQfM'
p2633
sg8
S'Bodak Yellow'
p2634
ssS'1cG0umU5TKStygKsPFZ9pY'
p2635
(dp2636
g3
S'Robin Schulz'
p2637
sg5
I12
sg6
S'https://open.spotify.com/track/1cG0umU5TKStygKsPFZ9pY'
p2638
sg8
S'Shed a Light'
p2639
ssS'6PCUP3dWmTjcTtXY02oFdT'
p2640
(dp2641
g3
S'Ed Sheeran'
p2642
sg5
I39
sg6
S'https://open.spotify.com/track/6PCUP3dWmTjcTtXY02oFdT'
p2643
sg8
S'Castle on the Hill'
p2644
ssS'5BP29JomsR6Ovsw3VHUxwp'
p2645
(dp2646
g3
S'Janice Vidal'
p2647
sg5
I5
sg6
S'https://open.spotify.com/track/5BP29JomsR6Ovsw3VHUxwp'
p2648
sg8
S'\xe5\xb7\xae\xe5\x8d\x8a\xe6\xad\xa5'
p2649
ssS'6cMpMygFRbnQsI1m5oq8dp'
p2650
(dp2651
g3
S'BIGBANG'
p2652
sg5
I1
sg6
S'https://open.spotify.com/track/6cMpMygFRbnQsI1m5oq8dp'
p2653
sg8
S'SOBER - KR ver.'
p2654
ssS'51PIvodunv6NmX5250zxAh'
p2655
(dp2656
g3
S'Lady Gaga'
p2657
sg5
I23
sg6
S'https://open.spotify.com/track/51PIvodunv6NmX5250zxAh'
p2658
sg8
S'The Cure'
p2659
ssS'5pvVAwQbuFoR7LkcicrKnk'
p2660
(dp2661
g3
S'Vice'
p2662
sg5
I8
sg6
S'https://open.spotify.com/track/5pvVAwQbuFoR7LkcicrKnk'
p2663
sg8
S'Obsession (feat. Jon Bellion)'
p2664
ssS'104buTcnP2AsxqB7U1FIZ4'
p2665
(dp2666
g3
S'Linkin Park'
p2667
sg5
I9
sg6
S'https://open.spotify.com/track/104buTcnP2AsxqB7U1FIZ4'
p2668
sg8
S'Heavy (feat. Kiiara)'
p2669
ssS'43jBqV3j3Xi1g6wO0bhIMd'
p2670
(dp2671
g3
S'Sage The Gemini'
p2672
sg5
I9
sg6
S'https://open.spotify.com/track/43jBqV3j3Xi1g6wO0bhIMd'
p2673
sg8
S'Now and Later'
p2674
ssS'650OeHTLxZAQmb4aEbGmaA'
p2675
(dp2676
g3
S'Linkin Park'
p2677
sg5
I2
sg6
S'https://open.spotify.com/track/650OeHTLxZAQmb4aEbGmaA'
p2678
sg8
S'Good Goodbye (feat. Pusha T and Stormzy)'
p2679
ssS'1PSBzsahR2AKwLJgx8ehBj'
p2680
(dp2681
g3
S'Machine Gun Kelly'
p2682
sg5
I24
sg6
S'https://open.spotify.com/track/1PSBzsahR2AKwLJgx8ehBj'
p2683
sg8
S'Bad Things (with Camila Cabello)'
p2684
ssS'53mrVsi49rLHIaKBiSvElG'
p2685
(dp2686
g3
S'blackbear'
p2687
sg5
I8
sg6
S'https://open.spotify.com/track/53mrVsi49rLHIaKBiSvElG'
p2688
sg8
S'do re mi (feat. Gucci Mane)'
p2689
ssS'0D8ZpOXVjapLXrjz5VfZSD'
p2690
(dp2691
g3
S'Sam Smith'
p2692
sg5
I1
sg6
S'https://open.spotify.com/track/0D8ZpOXVjapLXrjz5VfZSD'
p2693
sg8
S'Pray'
p2694
ssS'190kU2WKyIzx9XaBjfWRPk'
p2695
(dp2696
g3
S'JJ Lin'
p2697
sg5
I27
sg6
S'https://open.spotify.com/track/190kU2WKyIzx9XaBjfWRPk'
p2698
sg8
S'\xe4\xbf\xae\xe7\x85\x89\xe6\x84\x9b\xe6\x83\x85'
p2699
ssS'3SGWp9fJCzgK0WcpcKSQdy'
p2700
(dp2701
g3
S'Stanaj'
p2702
sg5
I10
sg6
S'https://open.spotify.com/track/3SGWp9fJCzgK0WcpcKSQdy'
p2703
sg8
S'Romantic - NOTD Remix'
p2704
ssS'7rPLZ8Krm6CZIbraFUlnWZ'
p2705
(dp2706
g3
S'Adele'
p2707
sg5
I1
sg6
S'https://open.spotify.com/track/7rPLZ8Krm6CZIbraFUlnWZ'
p2708
sg8
S'Make You Feel My Love'
p2709
ssS'1Vej0qeQ3ioKwpI6FUbRv1'
p2710
(dp2711
g3
S'Linkin Park'
p2712
sg5
I1
sg6
S'https://open.spotify.com/track/1Vej0qeQ3ioKwpI6FUbRv1'
p2713
sg8
S'Papercut'
p2714
ssS'5uMkdWf1H6JEcpcdnPOSZM'
p2715
(dp2716
g3
S'Charmaine Fong'
p2717
sg5
I41
sg6
S'https://open.spotify.com/track/5uMkdWf1H6JEcpcdnPOSZM'
p2718
sg8
S'\xe4\xbd\xa0\xe6\x98\xaf\xe4\xbd\xa0\xe6\x9c\xac\xe8\xba\xab\xe7\x9a\x84\xe5\x82\xb3\xe5\xa5\x87'
p2719
ssS'3gfmFoJgmn9LiIj5mV8oSS'
p2720
(dp2721
g3
S'R3HAB'
p2722
sg5
I4
sg6
S'https://open.spotify.com/track/3gfmFoJgmn9LiIj5mV8oSS'
p2723
sg8
S"I Just Can't"
p2724
ssS'3ebXMykcMXOcLeJ9xZ17XH'
p2725
(dp2726
g3
S'Martin Garrix'
p2727
sg5
I37
sg6
S'https://open.spotify.com/track/3ebXMykcMXOcLeJ9xZ17XH'
p2728
sg8
S'Scared to Be Lonely'
p2729
ssS'6fujklziTHa8uoM5OQSfIo'
p2730
(dp2731
g3
S'Rae Sremmurd'
p2732
sg5
I9
sg6
S'https://open.spotify.com/track/6fujklziTHa8uoM5OQSfIo'
p2733
sg8
S'Black Beatles'
p2734
ssS'19WjVVgXjdKXfLXoaDPwTM'
p2735
(dp2736
g3
S'Taylor Swift'
p2737
sg5
I5
sg6
S'https://open.spotify.com/track/19WjVVgXjdKXfLXoaDPwTM'
p2738
sg8
S'...Ready For It?'
p2739
ssS'6UjfByV1lDLW0SOVQA4NAi'
p2740
(dp2741
g3
S'Drake'
p2742
sg5
I1
sg6
S'https://open.spotify.com/track/6UjfByV1lDLW0SOVQA4NAi'
p2743
sg8
S'Gyalchester'
p2744
ssS'4lTZXnLKcAPU3h5NW17SYL'
p2745
(dp2746
g3
S'Eason Chan'
p2747
sg5
I1
sg6
S'https://open.spotify.com/track/4lTZXnLKcAPU3h5NW17SYL'
p2748
sg8
S'\xe6\x8a\xab\xe9\xa2\xa8'
p2749
ssS'3PEgB3fkiojxms35ntsTgs'
p2750
(dp2751
g3
S'Axwell /\\ Ingrosso'
p2752
sg5
I8
sg6
S'https://open.spotify.com/track/3PEgB3fkiojxms35ntsTgs'
p2753
sg8
S'More Than You Know'
p2754
ssS'6WoQzK5Exbfcmow1AoNRkl'
p2755
(dp2756
g3
S'JJ Lin'
p2757
sg5
I42
sg6
S'https://open.spotify.com/track/6WoQzK5Exbfcmow1AoNRkl'
p2758
sg8
S'\xe5\x8f\xaf\xe6\x83\x9c\xe6\xb2\x92\xe5\xa6\x82\xe6\x9e\x9c'
p2759
ssS'7F9vK8hNFMml4GtHsaXui6'
p2760
(dp2761
g3
S'Louis Tomlinson'
p2762
sg5
I12
sg6
S'https://open.spotify.com/track/7F9vK8hNFMml4GtHsaXui6'
p2763
sg8
S'Back to You (feat. Bebe Rexha & Digital Farm Animals)'
p2764
ssS'6CfrYuD3YRDYdYvH9jNtXY'
p2765
(dp2766
g3
S'Drake'
p2767
sg5
I1
sg6
S'https://open.spotify.com/track/6CfrYuD3YRDYdYvH9jNtXY'
p2768
sg8
S'No Long Talk'
p2769
ssS'2UYG331lOP6amEWplE7eno'
p2770
(dp2771
g3
S'EXO'
p2772
sg5
I1
sg6
S'https://open.spotify.com/track/2UYG331lOP6amEWplE7eno'
p2773
sg8
S'Ko Ko Bop - Chinese Version'
p2774
ssS'3CoGevydk4kvJ37rZ9HpCS'
p2775
(dp2776
g3
S'Shiga Lin'
p2777
sg5
I24
sg6
S'https://open.spotify.com/track/3CoGevydk4kvJ37rZ9HpCS'
p2778
sg8
S'\xe4\xb8\x8d\xe6\x84\x8f\xe5\xa4\x96\xe7\x9a\x84\xe6\x84\x8f\xe5\xa4\x96'
p2779
ssS'36ZXwLNujzc7WuRB0SfQ7l'
p2780
(dp2781
g3
S'Justin Hurwitz'
p2782
sg5
I5
sg6
S'https://open.spotify.com/track/36ZXwLNujzc7WuRB0SfQ7l'
p2783
sg8
S'Summer Montage / Madeline - From La La Land Soundtrack'
p2784
ssS'5OepnJhqZoyJN8qWo2LZzy'
p2785
(dp2786
g3
S'BLACKPINK'
p2787
sg5
I5
sg6
S'https://open.spotify.com/track/5OepnJhqZoyJN8qWo2LZzy'
p2788
sg8
S'PLAYING WITH FIRE - KR Ver.'
p2789
ssS'7oLXIyY1ZUexU0zcr39Xj0'
p2790
(dp2791
g3
S'SISTAR'
p2792
sg5
I4
sg6
S'https://open.spotify.com/track/7oLXIyY1ZUexU0zcr39Xj0'
p2793
sg8
S'LONELY'
p2794
ssS'75ZEiExjqAGBFmjlFPZPLY'
p2795
(dp2796
g3
S'Phil Lam'
p2797
sg5
I27
sg6
S'https://open.spotify.com/track/75ZEiExjqAGBFmjlFPZPLY'
p2798
sg8
S'\xe9\xab\x98\xe5\xb1\xb1\xe4\xbd\x8e\xe8\xb0\xb7'
p2799
ssS'0B8B8cVRFIG1yznoQe7c9s'
p2800
(dp2801
g3
S'The Chainsmokers'
p2802
sg5
I9
sg6
S'https://open.spotify.com/track/0B8B8cVRFIG1yznoQe7c9s'
p2803
sg8
S'Setting Fires'
p2804
ssS'1mDGDb2fUmUMdqV3tb8VKQ'
p2805
(dp2806
g3
S'Halsey'
p2807
sg5
I1
sg6
S'https://open.spotify.com/track/1mDGDb2fUmUMdqV3tb8VKQ'
p2808
sg8
S'Now Or Never'
p2809
ssS'3njZlgsB9MI6DVTg8wDPsg'
p2810
(dp2811
g3
S'The Script'
p2812
sg5
I1
sg6
S'https://open.spotify.com/track/3njZlgsB9MI6DVTg8wDPsg'
p2813
sg8
S'Rock the World'
p2814
ssS'4oFQGQd8YBpoF9C33jYS55'
p2815
(dp2816
g3
S'Yanki Din'
p2817
sg5
I10
sg6
S'https://open.spotify.com/track/4oFQGQd8YBpoF9C33jYS55'
p2818
sg8
S'\xe6\x92\xab\xe5\xbf\x83\xe8\x87\xaa\xe5\x95\x8f'
p2819
ssS'7qs2GAglLWfxEfmO8u2u0A'
p2820
(dp2821
g3
S'Loote'
p2822
sg5
I5
sg6
S'https://open.spotify.com/track/7qs2GAglLWfxEfmO8u2u0A'
p2823
sg8
S'High Without Your Love'
p2824
ssS'42NpUvd0I2kdIuMXX4nobE'
p2825
(dp2826
g3
S'Nick Jonas'
p2827
sg5
I1
sg6
S'https://open.spotify.com/track/42NpUvd0I2kdIuMXX4nobE'
p2828
sg8
S'Remember I Told You'
p2829
ssS'6OZh916QF8XNunWaP97WEZ'
p2830
(dp2831
g3
S'Jonas Blue'
p2832
sg5
I1
sg6
S'https://open.spotify.com/track/6OZh916QF8XNunWaP97WEZ'
p2833
sg8
S'Fast Car'
p2834
ssS'2rizacJSyD9S1IQUxUxnsK'
p2835
(dp2836
g3
S'The Chainsmokers'
p2837
sg5
I29
sg6
S'https://open.spotify.com/track/2rizacJSyD9S1IQUxUxnsK'
p2838
sg8
S'All We Know'
p2839
ssS'0tgVpDi06FyKpA1z0VMD4v'
p2840
(dp2841
g3
S'Ed Sheeran'
p2842
sg5
I32
sg6
S'https://open.spotify.com/track/0tgVpDi06FyKpA1z0VMD4v'
p2843
sg8
S'Perfect'
p2844
ssS'4zWz6OmFpyXIgQCxAS5yQb'
p2845
(dp2846
g3
S'Jay Chou'
p2847
sg5
I3
sg6
S'https://open.spotify.com/track/4zWz6OmFpyXIgQCxAS5yQb'
p2848
sg8
S'\xe6\x84\x9b\xe6\x83\x85\xe5\xbb\xa2\xe6\x9f\xb4'
p2849
ssS'6cAKeFFYW2aClZSUyvqAEW'
p2850
(dp2851
g3
S'Isaiah'
p2852
sg5
I29
sg6
S'https://open.spotify.com/track/6cAKeFFYW2aClZSUyvqAEW'
p2853
sg8
S"It's Gotta Be You"
p2854
ssS'26hcyzSE154xMZCbFdtInA'
p2855
(dp2856
g3
S'KREAM'
p2857
sg5
I7
sg6
S'https://open.spotify.com/track/26hcyzSE154xMZCbFdtInA'
p2858
sg8
S'Taped Up Heart (feat. Clara Mae)'
p2859
ssS'7Lgpic8BsBJR4jFrr9abbz'
p2860
(dp2861
g3
S'Robin Schulz'
p2862
sg5
I1
sg6
S'https://open.spotify.com/track/7Lgpic8BsBJR4jFrr9abbz'
p2863
sg8
S"I Believe I'm Fine"
p2864
ssS'34i4yxPrHWquuR4kjiivFO'
p2865
(dp2866
g3
S'V\xc3\x89RIT\xc3\x89'
p2867
sg5
I6
sg6
S'https://open.spotify.com/track/34i4yxPrHWquuR4kjiivFO'
p2868
sg8
S'Somebody Else'
p2869
ssS'2wDjpPW3HZdA9quPPmZAMu'
p2870
(dp2871
g3
S'Cashmere Cat'
p2872
sg5
I6
sg6
S'https://open.spotify.com/track/2wDjpPW3HZdA9quPPmZAMu'
p2873
sg8
S'Trust Nobody (feat. Selena Gomez & Tory Lanez)'
p2874
ssS'4oR1PEGsAhLCQSFPd1fQ6X'
p2875
(dp2876
g3
S'JW'
p2877
sg5
I42
sg6
S'https://open.spotify.com/track/4oR1PEGsAhLCQSFPd1fQ6X'
p2878
sg8
S'\xe7\x9f\x9b\xe7\x9b\xbe\xe4\xb8\x80\xe7\x94\x9f'
p2879
ssS'5RVsofiRRT48I9YAsexK8e'
p2880
(dp2881
g3
S'Eason Chan'
p2882
sg5
I13
sg6
S'https://open.spotify.com/track/5RVsofiRRT48I9YAsexK8e'
p2883
sg8
S'\xe6\xb7\x98\xe6\xb1\xb0(\xe5\x9c\x8b)'
p2884
ssS'72Q0FQQo32KJloivv5xge2'
p2885
(dp2886
g3
S'DJ Khaled'
p2887
sg5
I3
sg6
S'https://open.spotify.com/track/72Q0FQQo32KJloivv5xge2'
p2888
sg8
S"I'm the One"
p2889
ssS'25pWemriUQVrZ3yIiS2IBf'
p2890
(dp2891
g3
S'Eason Chan'
p2892
sg5
I5
sg6
S'https://open.spotify.com/track/25pWemriUQVrZ3yIiS2IBf'
p2893
sg8
S'\xe5\x8d\x81\xe5\xb9\xb4'
p2894
ssS'0hNduWmlWmEmuwEFcYvRu1'
p2895
(dp2896
g3
S'Petit Biscuit'
p2897
sg5
I17
sg6
S'https://open.spotify.com/track/0hNduWmlWmEmuwEFcYvRu1'
p2898
sg8
S'Sunset Lover'
p2899
ssS'1x5sYLZiu9r5E43kMlt9f8'
p2900
(dp2901
g3
S'Clean Bandit'
p2902
sg5
I30
sg6
S'https://open.spotify.com/track/1x5sYLZiu9r5E43kMlt9f8'
p2903
sg8
S'Symphony (feat. Zara Larsson)'
p2904
ssS'0wwfaAYsKsIkrudfueZoB3'
p2905
(dp2906
g3
S'G-DRAGON'
p2907
sg5
I1
sg6
S'https://open.spotify.com/track/0wwfaAYsKsIkrudfueZoB3'
p2908
sg8
S'INTRO. \xea\xb6\x8c\xec\xa7\x80\xec\x9a\xa9 (Middle Fingers-Up)'
p2909
ssS'21NmnwPP8SHKyVtjvubGSs'
p2910
(dp2911
g3
S'Eric Chou'
p2912
sg5
I16
sg6
S'https://open.spotify.com/track/21NmnwPP8SHKyVtjvubGSs'
p2913
sg8
S'\xe6\xb0\xb8\xe4\xb8\x8d\xe5\xa4\xb1\xe8\x81\xaf\xe7\x9a\x84\xe6\x84\x9b [\xe5\x8e\x9f\xe5\x89\xb5\xe6\xa6\x82\xe5\xbf\xb5\xe7\x89\x88]'
p2914
ssS'2rb5MvYT7ZIxbKW5hfcHx8'
p2915
(dp2916
g3
S'J Balvin'
p2917
sg5
I14
sg6
S'https://open.spotify.com/track/2rb5MvYT7ZIxbKW5hfcHx8'
p2918
sg8
S'Mi Gente'
p2919
ssS'7iz4bsfPOrK9wzhXkgUfya'
p2920
(dp2921
g3
S'Katy Perry'
p2922
sg5
I1
sg6
S'https://open.spotify.com/track/7iz4bsfPOrK9wzhXkgUfya'
p2923
sg8
S'Witness'
p2924
ssS'5SE57ljOIUJ1ybL9U6CuBH'
p2925
(dp2926
g3
S'BTS'
p2927
sg5
I4
sg6
S'https://open.spotify.com/track/5SE57ljOIUJ1ybL9U6CuBH'
p2928
sg8
S'DNA'
p2929
ssS'2CIsdDThHEfXvKcHkDr6hZ'
p2930
(dp2931
g3
S'Alfred Hui'
p2932
sg5
I4
sg6
S'https://open.spotify.com/track/2CIsdDThHEfXvKcHkDr6hZ'
p2933
sg8
S'\xe7\x97\x9b\xe9\x86\x92'
p2934
ssS'0Id7swY6cWbvYLtVVF0wvq'
p2935
(dp2936
g3
S'Dave Wong'
p2937
sg5
I1
sg6
S'https://open.spotify.com/track/0Id7swY6cWbvYLtVVF0wvq'
p2938
sg8
S'\xe4\xb8\x80\xe5\xa0\xb4\xe9\x81\x8a\xe6\x88\xb2\xe4\xb8\x80\xe5\xa0\xb4\xe5\xa4\xa2'
p2939
ssS'3bVbQvGVIe4n24AzyXovXh'
p2940
(dp2941
g3
g232
sg5
I1
sg6
S'https://open.spotify.com/track/3bVbQvGVIe4n24AzyXovXh'
p2942
sg8
g232
ssS'6SwRhMLwNqEi6alNPVG00n'
p2943
(dp2944
g3
S'Kendrick Lamar'
p2945
sg5
I4
sg6
S'https://open.spotify.com/track/6SwRhMLwNqEi6alNPVG00n'
p2946
sg8
S'LOYALTY. FEAT. RIHANNA.'
p2947
ssS'4vBoopG4WzohMju1GUmwoi'
p2948
(dp2949
g3
S'LaLa Hsu'
p2950
sg5
I17
sg6
S'https://open.spotify.com/track/4vBoopG4WzohMju1GUmwoi'
p2951
sg8
S'\xe5\xa4\xb1\xe8\x90\xbd\xe6\xb2\x99\xe6\xb4\xb2'
p2952
ssS'2HzfRSfCogBSsgW2CckVA2'
p2953
(dp2954
g3
S'Luke Christopher'
p2955
sg5
I1
sg6
S'https://open.spotify.com/track/2HzfRSfCogBSsgW2CckVA2'
p2956
sg8
S'Lot to Learn'
p2957
ssS'0tKcYR2II1VCQWT79i5NrW'
p2958
(dp2959
g3
S'Imagine Dragons'
p2960
sg5
I21
sg6
S'https://open.spotify.com/track/0tKcYR2II1VCQWT79i5NrW'
p2961
sg8
S'Thunder'
p2962
ssS'6DNtNfH8hXkqOX1sjqmI7p'
p2963
(dp2964
g3
S'Major Lazer'
p2965
sg5
I36
sg6
S'https://open.spotify.com/track/6DNtNfH8hXkqOX1sjqmI7p'
p2966
sg8
S'Cold Water (feat. Justin Bieber & M\xc3\x98)'
p2967
ssS'5NNlUMcOEOdoOIwwaWXv0k'
p2968
(dp2969
g3
S'Maroon 5'
p2970
sg5
I18
sg6
S'https://open.spotify.com/track/5NNlUMcOEOdoOIwwaWXv0k'
p2971
sg8
S'Cold'
p2972
ssS'5bcTCxgc7xVfSaMV3RuVke'
p2973
(dp2974
g3
S'Calvin Harris'
p2975
sg5
I16
sg6
S'https://open.spotify.com/track/5bcTCxgc7xVfSaMV3RuVke'
p2976
sg8
S'Feels'
p2977
ssS'5XQMr19TL7Mfksq9zihbOu'
p2978
(dp2979
g3
S'Chris Brown'
p2980
sg5
I7
sg6
S'https://open.spotify.com/track/5XQMr19TL7Mfksq9zihbOu'
p2981
sg8
S'Questions'
p2982
ssS'1sXUWdKx03aP9Gmzft58rt'
p2983
(dp2984
g3
S'Julia Michaels'
p2985
sg5
I27
sg6
S'https://open.spotify.com/track/1sXUWdKx03aP9Gmzft58rt'
p2986
sg8
S'Issues'
p2987
ssS'7zTx8ePYAmPFQuxP3xlXZn'
p2988
(dp2989
g3
S'San Holo'
p2990
sg5
I9
sg6
S'https://open.spotify.com/track/7zTx8ePYAmPFQuxP3xlXZn'
p2991
sg8
S'Light'
p2992
ssS'0QsvXIfqM0zZoerQfsI9lm'
p2993
(dp2994
g3
S'The Chainsmokers'
p2995
sg5
I42
sg6
S'https://open.spotify.com/track/0QsvXIfqM0zZoerQfsI9lm'
p2996
sg8
S"Don't Let Me Down"
p2997
ssS'4L7Y2OAPiY2I2GndZjAs5K'
p2998
(dp2999
g3
S'Lana Del Rey'
p3000
sg5
I1
sg6
S'https://open.spotify.com/track/4L7Y2OAPiY2I2GndZjAs5K'
p3001
sg8
S'Lust For Life (with The Weeknd)'
p3002
ssS'14oOKFGuXu8DqvOe1W8vao'
p3003
(dp3004
g3
S'Katy Perry'
p3005
sg5
I1
sg6
S'https://open.spotify.com/track/14oOKFGuXu8DqvOe1W8vao'
p3006
sg8
S'Bon App\xc3\xa9tit'
p3007
ssS'72j15oMVDLusdKJQf8BIRO'
p3008
(dp3009
g3
S'Feanna Wong'
p3010
sg5
I8
sg6
S'https://open.spotify.com/track/72j15oMVDLusdKJQf8BIRO'
p3011
sg8
S'\xe5\xa6\x82\xe6\x9e\x9c\xe9\x9d\x92\xe6\x98\xa5\xe4\xb8\x8d\xe6\x9c\x83\xe6\x9c\x89\xe7\x9b\xa1\xe9\xa0\xad'
p3012
ssS'4BHSjbYylfOH5WAGusDyni'
p3013
(dp3014
g3
S'Kendrick Lamar'
p3015
sg5
I1
sg6
S'https://open.spotify.com/track/4BHSjbYylfOH5WAGusDyni'
p3016
sg8
S'YAH.'
p3017
ssS'5EXpL9orGpIsscSyBgPdSx'
p3018
(dp3019
g3
S'Yoga Lin'
p3020
sg5
I1
sg6
S'https://open.spotify.com/track/5EXpL9orGpIsscSyBgPdSx'
p3021
sg8
S'Fairy tale'
p3022
ssS'2NGGtgT8EzAMbS4zXgLnYJ'
p3023
(dp3024
g3
S'Pakho Chau'
p3025
sg5
I3
sg6
S'https://open.spotify.com/track/2NGGtgT8EzAMbS4zXgLnYJ'
p3026
sg8
S'\xe6\x88\x91\xe7\x9a\x84\xe5\xae\xa3\xe8\xa8\x80'
p3027
ssS'1louJpMmzEicAn7lzDalPW'
p3028
(dp3029
g3
S'Cheat Codes'
p3030
sg5
I28
sg6
S'https://open.spotify.com/track/1louJpMmzEicAn7lzDalPW'
p3031
sg8
S'No Promises (feat. Demi Lovato)'
p3032
ssS'6TIU9Ehmi6dMzZK73Ym4yj'
p3033
(dp3034
g3
S'Ed Sheeran'
p3035
sg5
I4
sg6
S'https://open.spotify.com/track/6TIU9Ehmi6dMzZK73Ym4yj'
p3036
sg8
S'Save Myself'
p3037
ssS'2pJZ1v8HezrAoZ0Fhzby92'
p3038
(dp3039
g3
S'Ed Sheeran'
p3040
sg5
I11
sg6
S'https://open.spotify.com/track/2pJZ1v8HezrAoZ0Fhzby92'
p3041
sg8
S'What Do I Know?'
p3042
ssS'0KKkJNfGyhkQ5aFogxQAPU'
p3043
(dp3044
g3
S'Bruno Mars'
p3045
sg5
I42
sg6
S'https://open.spotify.com/track/0KKkJNfGyhkQ5aFogxQAPU'
p3046
sg8
S"That's What I Like"
p3047
ssS'494OU6M7NOf4ICYb4zWCf5'
p3048
(dp3049
g3
S'Maroon 5'
p3050
sg5
I42
sg6
S'https://open.spotify.com/track/494OU6M7NOf4ICYb4zWCf5'
p3051
sg8
S'Sugar'
p3052
ssS'0gbBzIqrECJOEPvQJIBFs5'
p3053
(dp3054
g3
S'Lorde'
p3055
sg5
I11
sg6
S'https://open.spotify.com/track/0gbBzIqrECJOEPvQJIBFs5'
p3056
sg8
S'Green Light'
p3057
ssS'2mNbgyi0gori4b1rFSPgIb'
p3058
(dp3059
g3
S'Lorde'
p3060
sg5
I1
sg6
S'https://open.spotify.com/track/2mNbgyi0gori4b1rFSPgIb'
p3061
sg8
S'Sober'
p3062
ssS'0fioLzGM8ngbD1w6fMmm45'
p3063
(dp3064
g3
S'Sam Smith'
p3065
sg5
I2
sg6
S'https://open.spotify.com/track/0fioLzGM8ngbD1w6fMmm45'
p3066
sg8
S"I'm Not The Only One"
p3067
ssS'2habSXqcJGExM6JJyskY7O'
p3068
(dp3069
g3
S'Miley Cyrus'
p3070
sg5
I10
sg6
S'https://open.spotify.com/track/2habSXqcJGExM6JJyskY7O'
p3071
sg8
S'Malibu'
p3072
ssS'5Ua3GXyHwiSfpNTMjq6m2z'
p3073
(dp3074
g3
S'Little Mix'
p3075
sg5
I23
sg6
S'https://open.spotify.com/track/5Ua3GXyHwiSfpNTMjq6m2z'
p3076
sg8
S'Touch'
p3077
ssS'6i0V12jOa3mr6uu4WYhUBr'
p3078
(dp3079
g3
S'Twenty One Pilots'
p3080
sg5
I13
sg6
S'https://open.spotify.com/track/6i0V12jOa3mr6uu4WYhUBr'
p3081
sg8
S'Heathens'
p3082
ssS'40UroIGvsMPLPBYwH8rMNA'
p3083
(dp3084
g3
S'Vice'
p3085
sg5
I7
sg6
S'https://open.spotify.com/track/40UroIGvsMPLPBYwH8rMNA'
p3086
sg8
S'Steady 1234 (feat. Jasmine Thompson & Skizzy Mars)'
p3087
ssS'5nA67Y0XX9JipZwYxX7Gl7'
p3088
(dp3089
g3
S'Niall Horan'
p3090
sg5
I1
sg6
S'https://open.spotify.com/track/5nA67Y0XX9JipZwYxX7Gl7'
p3091
sg8
S'This Town'
p3092
ssS'02q0ZnV2L4XByzEvWZJqBC'
p3093
(dp3094
g3
S'BTS'
p3095
sg5
I22
sg6
S'https://open.spotify.com/track/02q0ZnV2L4XByzEvWZJqBC'
p3096
sg8
S'Spring Day'
p3097
ssS'5153LWKMJiMNIRCChGN4Ja'
p3098
(dp3099
g3
S'Mike Perry'
p3100
sg5
I1
sg6
S'https://open.spotify.com/track/5153LWKMJiMNIRCChGN4Ja'
p3101
sg8
S'Hands'
p3102
ssS'3fVnlF4pGqWI9flVENcT28'
p3103
(dp3104
g3
S'Taylor Swift'
p3105
sg5
I1
sg6
S'https://open.spotify.com/track/3fVnlF4pGqWI9flVENcT28'
p3106
sg8
S'Wildest Dreams'
p3107
ssS'3mTmGzRwgPPqLSi7Smvkxt'
p3108
(dp3109
g3
S'Mayday'
p3110
sg5
I41
sg6
S'https://open.spotify.com/track/3mTmGzRwgPPqLSi7Smvkxt'
p3111
sg8
S'\xe7\xaa\x81\xe7\x84\xb6\xe5\xa5\xbd\xe6\x83\xb3\xe4\xbd\xa0'
p3112
ssS'1R17cgUv6HeQFa78dzqb7s'
p3113
(dp3114
g3
S'Justin Hurwitz'
p3115
sg5
I8
sg6
S'https://open.spotify.com/track/1R17cgUv6HeQFa78dzqb7s'
p3116
sg8
S'Mia & Sebastian\xe2\x80\x99s Theme - From La La Land Soundtrack'
p3117
ssS'6fxVffaTuwjgEk5h9QyRjy'
p3118
(dp3119
g3
S'Ed Sheeran'
p3120
sg5
I42
sg6
S'https://open.spotify.com/track/6fxVffaTuwjgEk5h9QyRjy'
p3121
sg8
S'Photograph'
p3122
ssS'2kVHAQKVtczchKctctzbtK'
p3123
(dp3124
g3
S'Katy Perry'
p3125
sg5
I9
sg6
S'https://open.spotify.com/track/2kVHAQKVtczchKctctzbtK'
p3126
sg8
S'Swish Swish'
p3127
ssS'4h4qZgzHongzXzxyhCPKtt'
p3128
(dp3129
g3
S'Justin Hurwitz'
p3130
sg5
I5
sg6
S'https://open.spotify.com/track/4h4qZgzHongzXzxyhCPKtt'
p3131
sg8
S'City Of Stars (Humming) - From La La Land Soundtrack'
p3132
ssS'7xE4vKvjqUTtHyJ9zi0k1q'
p3133
(dp3134
g3
S'Emma Stone'
p3135
sg5
I11
sg6
S'https://open.spotify.com/track/7xE4vKvjqUTtHyJ9zi0k1q'
p3136
sg8
S'Someone In The Crowd - From La La Land Soundtrack'
p3137
ssS'6nxQdXa1uAL0rY72wPZu89'
p3138
(dp3139
g3
S'John Legend'
p3140
sg5
I9
sg6
S'https://open.spotify.com/track/6nxQdXa1uAL0rY72wPZu89'
p3141
sg8
S'Love Me Now'
p3142
ssS'6kex4EBAj0WHXDKZMEJaaF'
p3143
(dp3144
g3
S'Jason Derulo'
p3145
sg5
I29
sg6
S'https://open.spotify.com/track/6kex4EBAj0WHXDKZMEJaaF'
p3146
sg8
S'Swalla (feat. Nicki Minaj & Ty Dolla $ign)'
p3147
ssS'54h8xHewdRPnYzmbEHBhOO'
p3148
(dp3149
g3
S'Imagine Dragons'
p3150
sg5
I1
sg6
S'https://open.spotify.com/track/54h8xHewdRPnYzmbEHBhOO'
p3151
sg8
S'I\xe2\x80\x99ll Make It Up To You'
p3152
ssS'3sJHkcxojoJD2Ytbo1yLLF'
p3153
(dp3154
g3
S'Moon Taxi'
p3155
sg5
I9
sg6
S'https://open.spotify.com/track/3sJHkcxojoJD2Ytbo1yLLF'
p3156
sg8
S'Two High'
p3157
ssS'6OocN63GLU7NF0wHdewhID'
p3158
(dp3159
g3
S'Linkin Park'
p3160
sg5
I1
sg6
S'https://open.spotify.com/track/6OocN63GLU7NF0wHdewhID'
p3161
sg8
S'Invisible'
p3162
ssS'1Slwb6dOYkBlWal1PGtnNg'
p3163
(dp3164
g3
S'Ed Sheeran'
p3165
sg5
I42
sg6
S'https://open.spotify.com/track/1Slwb6dOYkBlWal1PGtnNg'
p3166
sg8
S'Thinking Out Loud'
p3167
ssS'2BK63OEKQwR0gKx7BgVXcI'
p3168
(dp3169
g3
S'Dear Jane'
p3170
sg5
I4
sg6
S'https://open.spotify.com/track/2BK63OEKQwR0gKx7BgVXcI'
p3171
sg8
S'\xe4\xb9\x9f\xe8\xa8\xb1\xe6\x88\x91\xe4\xb8\x8d\xe6\x9c\x83\xe6\xb4\xbb\xe5\xa4\x9a\xe4\xb8\x80\xe6\xad\xb2'
p3172
ssS'18zIfBQi4akd3aiTMlvYEY'
p3173
(dp3174
g3
S'C AllStar'
p3175
sg5
I27
sg6
S'https://open.spotify.com/track/18zIfBQi4akd3aiTMlvYEY'
p3176
sg8
S'\xe5\xa4\xa9\xe6\xa2\xaf'
p3177
ssS'1H2qNVjNn13tlpKv6MtiYn'
p3178
(dp3179
g3
S'WINNER'
p3180
sg5
I3
sg6
S'https://open.spotify.com/track/1H2qNVjNn13tlpKv6MtiYn'
p3181
sg8
S'REALLY REALLY'
p3182
ssS'4ZJPwET9Jrgpkqi4Vo3Yg8'
p3183
(dp3184
g3
S'Bebe Rexha'
p3185
sg5
I7
sg6
S'https://open.spotify.com/track/4ZJPwET9Jrgpkqi4Vo3Yg8'
p3186
sg8
S'Bad Bitch (feat. Ty Dolla $ign)'
p3187
ssS'6wtxefzd0CiFzdAkKJmx6j'
p3188
(dp3189
g3
S'JC'
p3190
sg5
I2
sg6
S'https://open.spotify.com/track/6wtxefzd0CiFzdAkKJmx6j'
p3191
sg8
S'\xe7\x8f\xbe\xe4\xbb\xbb\xe6\x9c\x8b\xe5\x8f\x8b'
p3192
ssS'7KXjTSCq5nL1LoYtL7XAwS'
p3193
(dp3194
g3
S'Kendrick Lamar'
p3195
sg5
I28
sg6
S'https://open.spotify.com/track/7KXjTSCq5nL1LoYtL7XAwS'
p3196
sg8
S'HUMBLE.'
p3197
ssS'2Ae5awwKvQpTBKQHr1TYCg'
p3198
(dp3199
g3
S'Nause'
p3200
sg5
I3
sg6
S'https://open.spotify.com/track/2Ae5awwKvQpTBKQHr1TYCg'
p3201
sg8
S'Dynamite (feat. Pretty Sister)'
p3202
ssS'3rQjCycDV0Ibadg6A1Nq45'
p3203
(dp3204
g3
S'TWICE'
p3205
sg5
I12
sg6
S'https://open.spotify.com/track/3rQjCycDV0Ibadg6A1Nq45'
p3206
sg8
S'KNOCK KNOCK'
p3207
ssS'1cPfKp9ThNZ1fez9itmUMN'
p3208
(dp3209
g3
S'Emma Watson'
p3210
sg5
I3
sg6
S'https://open.spotify.com/track/1cPfKp9ThNZ1fez9itmUMN'
p3211
sg8
S'Belle'
p3212
ssS'1wDfQ3eLZb51M8jCkNwbyx'
p3213
(dp3214
g3
S'Daya'
p3215
sg5
I1
sg6
S'https://open.spotify.com/track/1wDfQ3eLZb51M8jCkNwbyx'
p3216
sg8
S'Words'
p3217
ssS'6Na5uKk5SsqZimk0hAWo8y'
p3218
(dp3219
g3
S'Drake'
p3220
sg5
I2
sg6
S'https://open.spotify.com/track/6Na5uKk5SsqZimk0hAWo8y'
p3221
sg8
S'Signs'
p3222
ssS'74ODGXs4byLTRdnKGM4s6E'
p3223
(dp3224
g3
S'LANY'
p3225
sg5
I14
sg6
S'https://open.spotify.com/track/74ODGXs4byLTRdnKGM4s6E'
p3226
sg8
S'Super Far'
p3227
ssS'0n2bvWvMwr0gbjcuTm92eW'
p3228
(dp3229
g3
S'Lana Del Rey'
p3230
sg5
I2
sg6
S'https://open.spotify.com/track/0n2bvWvMwr0gbjcuTm92eW'
p3231
sg8
S'Love'
p3232
ssS'0kX7KpJb6SWcCx55wVX7gg'
p3233
(dp3234
g3
S'AGA'
p3235
sg5
I1
sg6
S'https://open.spotify.com/track/0kX7KpJb6SWcCx55wVX7gg'
p3236
sg8
S'\xe5\x90\x83\xe5\xae\x9a\xe6\x88\x91'
p3237
ssS'4LSkEJ5P5MV0y3PZqw7guJ'
p3238
(dp3239
g3
S'Cheat Codes'
p3240
sg5
I2
sg6
S'https://open.spotify.com/track/4LSkEJ5P5MV0y3PZqw7guJ'
p3241
sg8
S'Sober'
p3242
ssS'3AsAuGTaDQzavZZThyYlop'
p3243
(dp3244
g3
S'NEIKED'
p3245
sg5
I4
sg6
S'https://open.spotify.com/track/3AsAuGTaDQzavZZThyYlop'
p3246
sg8
S'Sexual'
p3247
ssS'3Lfiu5sZ4M4B6JaKMBc0FU'
p3248
(dp3249
g3
S'Ed Sheeran'
p3250
sg5
I4
sg6
S'https://open.spotify.com/track/3Lfiu5sZ4M4B6JaKMBc0FU'
p3251
sg8
S'Barcelona'
p3252
ssS'4kfm1uI9QGaoN9qm6CkAMn'
p3253
(dp3254
g3
S'Linkin Park'
p3255
sg5
I1
sg6
S'https://open.spotify.com/track/4kfm1uI9QGaoN9qm6CkAMn'
p3256
sg8
S"What I've Done"
p3257
ssS'69bp2EbF7Q2rqc5N3ylezZ'
p3258
(dp3259
g3
S'Justin Bieber'
p3260
sg5
I23
sg6
S'https://open.spotify.com/track/69bp2EbF7Q2rqc5N3ylezZ'
p3261
sg8
S'Sorry'
p3262
ssS'1MlFD4KiaEoT1TnRzAsXGU'
p3263
(dp3264
g3
S'Denise Ho'
p3265
sg5
I41
sg6
S'https://open.spotify.com/track/1MlFD4KiaEoT1TnRzAsXGU'
p3266
sg8
S'\xe6\x9c\xa8\xe7\xb4\x8b'
p3267
ssS'5QqyRUZeBE04yJxsD1OC0I'
p3268
(dp3269
g3
S'Lana Del Rey'
p3270
sg5
I1
sg6
S'https://open.spotify.com/track/5QqyRUZeBE04yJxsD1OC0I'
p3271
sg8
S'Summer Bummer (feat. A$AP Rocky & Playboi Carti)'
p3272
ssS'04CttTezSnv71USiiG9mIo'
p3273
(dp3274
g3
S'Hearts & Colors'
p3275
sg5
I10
sg6
S'https://open.spotify.com/track/04CttTezSnv71USiiG9mIo'
p3276
sg8
S'Lighthouse - Andrelli Remix'
p3277
ssS'4iLqG9SeJSnt0cSPICSjxv'
p3278
(dp3279
g3
S'Charlie Puth'
p3280
sg5
I25
sg6
S'https://open.spotify.com/track/4iLqG9SeJSnt0cSPICSjxv'
p3281
sg8
S'Attention'
p3282
ssS'11G6oP44rmzIPtK70vWCuk'
p3283
(dp3284
g3
S'AGA'
p3285
sg5
I19
sg6
S'https://open.spotify.com/track/11G6oP44rmzIPtK70vWCuk'
p3286
sg8
S'3AM'
p3287
ssS'6RUKPb4LETWmmr3iAEQktW'
p3288
(dp3289
g3
S'The Chainsmokers'
p3290
sg5
I34
sg6
S'https://open.spotify.com/track/6RUKPb4LETWmmr3iAEQktW'
p3291
sg8
S'Something Just Like This'
p3292
ssS'5ANbXf5qR48a4jfFnSq80w'
p3293
(dp3294
g3
S'BLACKPINK'
p3295
sg5
I27
sg6
S'https://open.spotify.com/track/5ANbXf5qR48a4jfFnSq80w'
p3296
sg8
S'PLAYING WITH FIRE'
p3297
ssS'6tlhigGqyuLvSSCC9XjQD4'
p3298
(dp3299
g3
S"sp'ACE"
p3300
sg5
I1
sg6
S'https://open.spotify.com/track/6tlhigGqyuLvSSCC9XjQD4'
p3301
sg8
S'\xe7\x84\xa1\xe6\xb3\x95\xe4\xb8\x80\xe5\x90\xbb'
p3302
ssS'0VhgEqMTNZwYL1ARDLLNCX'
p3303
(dp3304
g3
S'James Arthur'
p3305
sg5
I14
sg6
S'https://open.spotify.com/track/0VhgEqMTNZwYL1ARDLLNCX'
p3306
sg8
S'Can I Be Him'
p3307
ssS'2CPqh63wRVscbceKcPxwvv'
p3308
(dp3309
g3
S'Mike Perry'
p3310
sg5
I13
sg6
S'https://open.spotify.com/track/2CPqh63wRVscbceKcPxwvv'
p3311
sg8
S'The Ocean'
p3312
ssS'5PYPCxyWltRIyPkhSsnWIk'
p3313
(dp3314
g3
S'Justin Hurwitz'
p3315
sg5
I6
sg6
S'https://open.spotify.com/track/5PYPCxyWltRIyPkhSsnWIk'
p3316
sg8
S'Engagement Party - From La La Land Soundtrack'
p3317
ssS'3VTNVsTTu05dmTsVFrmGpK'
p3318
(dp3319
g3
S'The Pogues'
p3320
sg5
I1
sg6
S'https://open.spotify.com/track/3VTNVsTTu05dmTsVFrmGpK'
p3321
sg8
S'Fairytale of New York (feat. Kirsty MacColl)'
p3322
ssS'7oPrKydZ1xLIFXzjHLUGE5'
p3323
(dp3324
g3
S'Leo Ku'
p3325
sg5
I36
sg6
S'https://open.spotify.com/track/7oPrKydZ1xLIFXzjHLUGE5'
p3326
sg8
S'\xe5\xbf\x85\xe6\xae\xba\xe6\x8a\x80 - Live'
p3327
ssS'4vv1KjUzPwrtDbozizSfQc'
p3328
(dp3329
g3
S'DJ Khaled'
p3330
sg5
I1
sg6
S'https://open.spotify.com/track/4vv1KjUzPwrtDbozizSfQc'
p3331
sg8
S"Don't Quit"
p3332
ssS'1xznGGDReH1oQq0xzbwXa3'
p3333
(dp3334
g3
S'Drake'
p3335
sg5
I10
sg6
S'https://open.spotify.com/track/1xznGGDReH1oQq0xzbwXa3'
p3336
sg8
S'One Dance'
p3337
ssS'5GXAXm5YOmYT0kL5jHvYBt'
p3338
(dp3339
g3
S'The Weeknd'
p3340
sg5
I30
sg6
S'https://open.spotify.com/track/5GXAXm5YOmYT0kL5jHvYBt'
p3341
sg8
S'I Feel It Coming'
p3342
ssS'1EiEkNCO1maB0Rl3XQ5f6A'
p3343
(dp3344
g3
S'AGA'
p3345
sg5
I42
sg6
S'https://open.spotify.com/track/1EiEkNCO1maB0Rl3XQ5f6A'
p3346
sg8
S'\xe7\x8d\xa8\xe4\xb8\x80\xe7\x84\xa1\xe4\xba\x8c'
p3347
ssS'6IZvVAP7VPPnsGX6bvgkqg'
p3348
(dp3349
g3
S'Kendrick Lamar'
p3350
sg5
I1
sg6
S'https://open.spotify.com/track/6IZvVAP7VPPnsGX6bvgkqg'
p3351
sg8
S'PRIDE.'
p3352
ssS'0lMbuWUpfTWhEmOKxppEau'
p3353
(dp3354
g3
S'Calvin Harris'
p3355
sg5
I10
sg6
S'https://open.spotify.com/track/0lMbuWUpfTWhEmOKxppEau'
p3356
sg8
S'Rollin'
p3357
ssS'508hbpTQ7wclT2JDpKBUSV'
p3358
(dp3359
g3
S'Lorde'
p3360
sg5
I1
sg6
S'https://open.spotify.com/track/508hbpTQ7wclT2JDpKBUSV'
p3361
sg8
S'Perfect Places'
p3362
ssS'7dhr1r6OWHxrpvrdHxfe1n'
p3363
(dp3364
g3
S'BIGBANG'
p3365
sg5
I16
sg6
S'https://open.spotify.com/track/7dhr1r6OWHxrpvrdHxfe1n'
p3366
sg8
S'LAST DANCE'
p3367
ssS'0ZiRSqlSsDlY0UyDYU9CTE'
p3368
(dp3369
g3
S'Thomas Rhett'
p3370
sg5
I2
sg6
S'https://open.spotify.com/track/0ZiRSqlSsDlY0UyDYU9CTE'
p3371
sg8
S'Unforgettable'
p3372
ssS'3l8yQMdniG6Os8gUBNXV57'
p3373
(dp3374
g3
S'BTS'
p3375
sg5
I2
sg6
S'https://open.spotify.com/track/3l8yQMdniG6Os8gUBNXV57'
p3376
sg8
S'Outro: Her'
p3377
ssS'0vBUsN3rew8OjgowVwykOn'
p3378
(dp3379
g3
S'TAEYANG'
p3380
sg5
I1
sg6
S'https://open.spotify.com/track/0vBUsN3rew8OjgowVwykOn'
p3381
sg8
S'WAKE ME UP'
p3382
ssS'51ChrwmUPDJvedPQnIU8Ls'
p3383
(dp3384
g3
S'Ed Sheeran'
p3385
sg5
I20
sg6
S'https://open.spotify.com/track/51ChrwmUPDJvedPQnIU8Ls'
p3386
sg8
S'Dive'
p3387
ssS'62E0LkaqA8aDs1J4oVJfdm'
p3388
(dp3389
g3
S'Phil Lam'
p3390
sg5
I7
sg6
S'https://open.spotify.com/track/62E0LkaqA8aDs1J4oVJfdm'
p3391
sg8
S'\xe6\x9c\x89\xe4\xba\xba\xe5\x85\xb1\xe9\xb3\xb4'
p3392
ssS'4B1rpPmQXwj78wk6aIGwwU'
p3393
(dp3394
g3
S'Harry Styles'
p3395
sg5
I1
sg6
S'https://open.spotify.com/track/4B1rpPmQXwj78wk6aIGwwU'
p3396
sg8
S'Two Ghosts'
p3397
ssS'2R7858bg0GHuBBxjTyOL7N'
p3398
(dp3399
g3
S'George Michael'
p3400
sg5
I1
sg6
S'https://open.spotify.com/track/2R7858bg0GHuBBxjTyOL7N'
p3401
sg8
S'Careless Whisper'
p3402
ssS'1yzVZH6U4TxBOBSCtp8IY7'
p3403
(dp3404
g3
S'Hins Cheung'
p3405
sg5
I26
sg6
S'https://open.spotify.com/track/1yzVZH6U4TxBOBSCtp8IY7'
p3406
sg8
S'\xe4\xb8\x8b\xe6\xac\xa1\xe6\x84\x9b\xe4\xbd\xa0'
p3407
ssS'1CUVN2kn7mW5FjkqXTR2W1'
p3408
(dp3409
g3
S'Jonas Blue'
p3410
sg5
I14
sg6
S'https://open.spotify.com/track/1CUVN2kn7mW5FjkqXTR2W1'
p3411
sg8
S'Perfect Strangers'
p3412
ssS'0SGkqnVQo9KPytSri1H6cF'
p3413
(dp3414
g3
S'Big Sean'
p3415
sg5
I9
sg6
S'https://open.spotify.com/track/0SGkqnVQo9KPytSri1H6cF'
p3416
sg8
S'Bounce Back'
p3417
ssS'27SdWb2rFzO6GWiYDBTD9j'
p3418
(dp3419
g3
S'Sia'
p3420
sg5
I24
sg6
S'https://open.spotify.com/track/27SdWb2rFzO6GWiYDBTD9j'
p3421
sg8
S'Cheap Thrills'
p3422
ssS'3vgNmjuRDnGLxUFGCLkwpm'
p3423
(dp3424
g3
S'David Guetta'
p3425
sg5
I1
sg6
S'https://open.spotify.com/track/3vgNmjuRDnGLxUFGCLkwpm'
p3426
sg8
S'Light My Body Up (feat. Nicki Minaj & Lil Wayne)'
p3427
ssS'5xhJmd0I15jFcEdqxfCzKk'
p3428
(dp3429
g3
S'The Chainsmokers'
p3430
sg5
I2
sg6
S'https://open.spotify.com/track/5xhJmd0I15jFcEdqxfCzKk'
p3431
sg8
S"It Won't Kill Ya"
p3432
ssS'5dQJKDx0x73seZbwSORa1T'
p3433
(dp3434
g3
S'The Vamps'
p3435
sg5
I1
sg6
S'https://open.spotify.com/track/5dQJKDx0x73seZbwSORa1T'
p3436
sg8
S'Middle Of The Night'
p3437
ssS'6PJ8FF6UR8FZXfEvpHkIVN'
p3438
(dp3439
g3
S'Ed Sheeran'
p3440
sg5
I9
sg6
S'https://open.spotify.com/track/6PJ8FF6UR8FZXfEvpHkIVN'
p3441
sg8
S'How Would You Feel (Paean)'
p3442
ssS'5uCax9HTNlzGybIStD3vDh'
p3443
(dp3444
g3
S'James Arthur'
p3445
sg5
I42
sg6
S'https://open.spotify.com/track/5uCax9HTNlzGybIStD3vDh'
p3446
sg8
S"Say You Won't Let Go"
p3447
ssS'7qiZfU4dY1lWllzX7mPBI3'
p3448
(dp3449
g3
S'Ed Sheeran'
p3450
sg5
I40
sg6
S'https://open.spotify.com/track/7qiZfU4dY1lWllzX7mPBI3'
p3451
sg8
S'Shape of You'
p3452
ssS'6LOCAhFzZiavHcLJucLuDy'
p3453
(dp3454
g3
S'DJ Khaled'
p3455
sg5
I1
sg6
S'https://open.spotify.com/track/6LOCAhFzZiavHcLJucLuDy'
p3456
sg8
S"Don't Quit"
p3457
ssS'5oUwzIhN4eQEHnNVZySzmM'
p3458
(dp3459
g3
S'Mr.'
p3460
sg5
I2
sg6
S'https://open.spotify.com/track/5oUwzIhN4eQEHnNVZySzmM'
p3461
sg8
S'\xe6\xa3\xae\xe6\x9e\x97'
p3462
ssS'6CUBgX8bXC5YQCkdgRHqyg'
p3463
(dp3464
g3
S'blackbear'
p3465
sg5
I2
sg6
S'https://open.spotify.com/track/6CUBgX8bXC5YQCkdgRHqyg'
p3466
sg8
S'do re mi'
p3467
ssS'0wfbD5rAksdXUzRvMfM3x5'
p3468
(dp3469
g3
S'The Chainsmokers'
p3470
sg5
I16
sg6
S'https://open.spotify.com/track/0wfbD5rAksdXUzRvMfM3x5'
p3471
sg8
S'The One'
p3472
ssS'0q75NwOoFiARAVp4EXU4Bs'
p3473
(dp3474
g3
S'SZA'
p3475
sg5
I9
sg6
S'https://open.spotify.com/track/0q75NwOoFiARAVp4EXU4Bs'
p3476
sg8
S'Love Galore'
p3477
ssS'2zWghblDkZSrhBqY2SMWYc'
p3478
(dp3479
g3
S'JUDE'
p3480
sg5
I1
sg6
S'https://open.spotify.com/track/2zWghblDkZSrhBqY2SMWYc'
p3481
sg8
S'\xe4\xba\xba\xe9\x96\x93\xe5\xa4\xb1\xe6\xa0\xbc'
p3482
ssS'2EEeOnHehOozLq4aS0n6SL'
p3483
(dp3484
g3
S'KYLE'
p3485
sg5
I17
sg6
S'https://open.spotify.com/track/2EEeOnHehOozLq4aS0n6SL'
p3486
sg8
S'iSpy (feat. Lil Yachty)'
p3487
ssS'2fQrGHiQOvpL9UgPvtYy6G'
p3488
(dp3489
g3
S'21 Savage'
p3490
sg5
I3
sg6
S'https://open.spotify.com/track/2fQrGHiQOvpL9UgPvtYy6G'
p3491
sg8
S'Bank Account'
p3492
ssS'1yFiaFeSLpw4nDYTeErRZ6'
p3493
(dp3494
g3
S'Linkin Park'
p3495
sg5
I1
sg6
S'https://open.spotify.com/track/1yFiaFeSLpw4nDYTeErRZ6'
p3496
sg8
S'Leave Out All The Rest'
p3497
ssS'1eId3TVzGrwv73YAWAVQMX'
p3498
(dp3499
g3
S'Jason Chan'
p3500
sg5
I42
sg6
S'https://open.spotify.com/track/1eId3TVzGrwv73YAWAVQMX'
p3501
sg8
S'\xe4\xbd\xa0\xe7\x9e\x9e\xe6\x88\x91\xe7\x9e\x9e'
p3502
ssS'5075foWfaIxJZr3hGMopXO'
p3503
(dp3504
g3
S'Kris Wu'
p3505
sg5
I1
sg6
S'https://open.spotify.com/track/5075foWfaIxJZr3hGMopXO'
p3506
sg8
S'Deserve (feat. Travis Scott)'
p3507
ssS'5VoWWfPKokTUBfPXC8SZIm'
p3508
(dp3509
g3
S'Kayee Tam'
p3510
sg5
I4
sg6
S'https://open.spotify.com/track/5VoWWfPKokTUBfPXC8SZIm'
p3511
sg8
S'\xe6\x9c\x80\xe5\xbe\x8c\xe4\xb9\x9f\xe5\x88\x86\xe9\x96\x8b'
p3512
ssS'3UfLOf8Al79ahPJVwa9Psg'
p3513
(dp3514
g3
S'Eason Chan'
p3515
sg5
I1
sg6
S'https://open.spotify.com/track/3UfLOf8Al79ahPJVwa9Psg'
p3516
sg8
S'Lonely Christmas'
p3517
ssS'1F2HXIJrE2Xn81OzT2zZvW'
p3518
(dp3519
g3
S'French Montana'
p3520
sg5
I10
sg6
S'https://open.spotify.com/track/1F2HXIJrE2Xn81OzT2zZvW'
p3521
sg8
S'Unforgettable'
p3522
ssS'6QgjcU0zLnzq5OrUoSZ3OK'
p3523
(dp3524
g3
S'Portugal. The Man'
p3525
sg5
I12
sg6
S'https://open.spotify.com/track/6QgjcU0zLnzq5OrUoSZ3OK'
p3526
sg8
S'Feel It Still'
p3527
ssS'7jltqRIyxLXBDNZ1QlmnBp'
p3528
(dp3529
g3
S'Ryan Gosling'
p3530
sg5
I7
sg6
S'https://open.spotify.com/track/7jltqRIyxLXBDNZ1QlmnBp'
p3531
sg8
S'City Of Stars - From La La Land Soundtrack/Pier'
p3532
ssS'78rIJddV4X0HkNAInEcYde'
p3533
(dp3534
g3
S'Starley'
p3535
sg5
I30
sg6
S'https://open.spotify.com/track/78rIJddV4X0HkNAInEcYde'
p3536
sg8
S'Call On Me - Ryan Riback Extended Remix'
p3537
ssS'0L7loeTIg6akW84aEQZpCT'
p3538
(dp3539
g3
S'Major Lazer'
p3540
sg5
I1
sg6
S'https://open.spotify.com/track/0L7loeTIg6akW84aEQZpCT'
p3541
sg8
S'Light It Up (feat. Nyla & Fuse ODG) - Remix'
p3542
ssS'4Q5yMlwAfAoitqg4r9oZHN'
p3543
(dp3544
g3
S'Cashmere Cat'
p3545
sg5
I9
sg6
S'https://open.spotify.com/track/4Q5yMlwAfAoitqg4r9oZHN'
p3546
sg8
S'Quit (feat. Ariana Grande)'
p3547
ssS'2MZ5nFuCRenqGpeRifye6s'
p3548
(dp3549
g3
S'Phil Lam'
p3550
sg5
I12
sg6
S'https://open.spotify.com/track/2MZ5nFuCRenqGpeRifye6s'
p3551
sg8
S'\xe4\xb8\x80\xe9\x9b\x99\xe6\x89\x8b'
p3552
ssS'1Bqxj0aH5KewYHKUg1IdrF'
p3553
(dp3554
g3
S'G-Eazy'
p3555
sg5
I10
sg6
S'https://open.spotify.com/track/1Bqxj0aH5KewYHKUg1IdrF'
p3556
sg8
S'Some Kind Of Drug'
p3557
ssS'5vzk7zBw0rMlecTfcJooo1'
p3558
(dp3559
g3
S'Juno Mak'
p3560
sg5
I15
sg6
S'https://open.spotify.com/track/5vzk7zBw0rMlecTfcJooo1'
p3561
sg8
S'\xe5\xbf\xb5\xe5\xbf\xb5\xe4\xb8\x8d\xe5\xbf\x98'
p3562
ssS'0inShB8upTbOMvba7Uj1II'
p3563
(dp3564
g3
S'Alfred Hui'
p3565
sg5
I1
sg6
S'https://open.spotify.com/track/0inShB8upTbOMvba7Uj1II'
p3566
sg8
S'\xe8\x97\x8d\xe8\xa1\x80\xe4\xba\xba'
p3567
ssS'167NczpNbRF7oWakJaY3Hh'
p3568
(dp3569
g3
S'Niall Horan'
p3570
sg5
I23
sg6
S'https://open.spotify.com/track/167NczpNbRF7oWakJaY3Hh'
p3571
sg8
S'Slow Hands'
p3572
ssS'7DQXiMeLqiQsy1uqHSk0xc'
p3573
(dp3574
g3
S'Shawn Hook'
p3575
sg5
I3
sg6
S'https://open.spotify.com/track/7DQXiMeLqiQsy1uqHSk0xc'
p3576
sg8
S'Reminding Me'
p3577
ssS'0or0gNaKAXYYCsOrpvRzAu'
p3578
(dp3579
g3
S'Lorde'
p3580
sg5
I4
sg6
S'https://open.spotify.com/track/0or0gNaKAXYYCsOrpvRzAu'
p3581
sg8
S'Liability'
p3582
ssS'5SMA5wIOtbuLgK4O7Jk0T2'
p3583
(dp3584
g3
S'Gin Lee'
p3585
sg5
I1
sg6
S'https://open.spotify.com/track/5SMA5wIOtbuLgK4O7Jk0T2'
p3586
sg8
S'\xe9\x9a\xa8\xe9\xa2\xa8\xe8\x80\x8c\xe4\xbe\x86 \xe9\x9a\xa8\xe9\xa2\xa8\xe8\x80\x8c\xe5\x8e\xbb'
p3587
ssS'2SYa5Lx1uoCvyDIW4oee9b'
p3588
(dp3589
g3
S'BTS'
p3590
sg5
I4
sg6
S'https://open.spotify.com/track/2SYa5Lx1uoCvyDIW4oee9b'
p3591
sg8
S'MIC Drop'
p3592
ssS'1xwnvVY9gHdo69PuGQkG1U'
p3593
(dp3594
g3
S'GFriend'
p3595
sg5
I3
sg6
S'https://open.spotify.com/track/1xwnvVY9gHdo69PuGQkG1U'
p3596
sg8
S'LOVE WHISPER'
p3597
ssS'7AQim7LbvFVZJE3O8TYgf2'
p3598
(dp3599
g3
S'XXXTENTACION'
p3600
sg5
I2
sg6
S'https://open.spotify.com/track/7AQim7LbvFVZJE3O8TYgf2'
p3601
sg8
S'Fuck Love (feat. Trippie Redd)'
p3602
ssS'7wiESxCGoUkRdgZF2JOLZu'
p3603
(dp3604
g3
S'Phil Spector'
p3605
sg5
I1
sg6
S'https://open.spotify.com/track/7wiESxCGoUkRdgZF2JOLZu'
p3606
sg8
S'Sleigh Ride'
p3607
ssS'7yHEDfrJNd0zWOfXwydNH0'
p3608
(dp3609
g3
S'Ariana Grande'
p3610
sg5
I7
sg6
S'https://open.spotify.com/track/7yHEDfrJNd0zWOfXwydNH0'
p3611
sg8
S'Into You'
p3612
ssS'1lntL1cI2UIWlxjL5QiN8g'
p3613
(dp3614
g3
S'Lauv'
p3615
sg5
I18
sg6
S'https://open.spotify.com/track/1lntL1cI2UIWlxjL5QiN8g'
p3616
sg8
S'The Other'
p3617
ssS'4FOydQ5IdqmdeBgG9vFbPg'
p3618
(dp3619
g3
S'Jay Chou'
p3620
sg5
I5
sg6
S'https://open.spotify.com/track/4FOydQ5IdqmdeBgG9vFbPg'
p3621
sg8
S'\xe5\xae\x89\xe9\x9d\x9c'
p3622
ssS'7vs3JM90lKhp11av83WA5j'
p3623
(dp3624
g3
S'Jay Chou'
p3625
sg5
I3
sg6
S'https://open.spotify.com/track/7vs3JM90lKhp11av83WA5j'
p3626
sg8
S'\xe7\xae\x97\xe4\xbb\x80\xe9\xba\xbc\xe7\x94\xb7\xe4\xba\xba'
p3627
ssS'0LtVx5vsq9nfpGsWgjUin6'
p3628
(dp3629
g3
S'Ryan Gosling'
p3630
sg5
I16
sg6
S'https://open.spotify.com/track/0LtVx5vsq9nfpGsWgjUin6'
p3631
sg8
S'City Of Stars - From La La Land Soundtrack'
p3632
ssS'1839RWzPRZCVgvamu4sHSN'
p3633
(dp3634
g3
S'Cash Cash'
p3635
sg5
I10
sg6
S'https://open.spotify.com/track/1839RWzPRZCVgvamu4sHSN'
p3636
sg8
S'All My Love (feat. Conor Maynard)'
p3637
ssS'2raLh7W9GwFgJNeKoSPEJN'
p3638
(dp3639
g3
S'JW'
p3640
sg5
I10
sg6
S'https://open.spotify.com/track/2raLh7W9GwFgJNeKoSPEJN'
p3641
sg8
S'\xe5\x8e\x9f\xe4\xbe\x86\xe5\x8f\xaa\xe5\x9b\xa0\xe6\xb7\xb1\xe6\x84\x9b\xe8\x91\x97'
p3642
ssS'15dnkAHcHC0vrIUlbiPiqU'
p3643
(dp3644
g3
S'Imagine Dragons'
p3645
sg5
I1
sg6
S'https://open.spotify.com/track/15dnkAHcHC0vrIUlbiPiqU'
p3646
sg8
S'I Don\xe2\x80\x99t Know Why'
p3647
ssS'5Db9VIdDsN5yu3Eu7CT0i4'
p3648
(dp3649
g3
S'Sam Smith'
p3650
sg5
I3
sg6
S'https://open.spotify.com/track/5Db9VIdDsN5yu3Eu7CT0i4'
p3651
sg8
S'Stay With Me'
p3652
ssS'4uoumbAMEMaKdtiv763jKz'
p3653
(dp3654
g3
S'Zara Larsson'
p3655
sg5
I9
sg6
S'https://open.spotify.com/track/4uoumbAMEMaKdtiv763jKz'
p3656
sg8
S'TG4M'
p3657
ssS'3zoYkqS4y2BsGVShPL2nTE'
p3658
(dp3659
g3
S'CNCO'
p3660
sg5
I7
sg6
S'https://open.spotify.com/track/3zoYkqS4y2BsGVShPL2nTE'
p3661
sg8
S'Reggaet\xc3\xb3n Lento (Remix) [CNCO & Little Mix]'
p3662
ssS'1yNyoWWWikbLhwIGWjZuDW'
p3663
(dp3664
g3
S'The Vamps'
p3665
sg5
I27
sg6
S'https://open.spotify.com/track/1yNyoWWWikbLhwIGWjZuDW'
p3666
sg8
S'All Night'
p3667
ssS'26AuyrZGzWWiYZPSd3XBIg'
p3668
(dp3669
g3
S'The Chainsmokers'
p3670
sg5
I3
sg6
S'https://open.spotify.com/track/26AuyrZGzWWiYZPSd3XBIg'
p3671
sg8
S'Bloodstream'
p3672
ssS'6W2tmkeuHKaedHhdTPnyVs'
p3673
(dp3674
g3
S'Jay Chou'
p3675
sg5
I42
sg6
S'https://open.spotify.com/track/6W2tmkeuHKaedHhdTPnyVs'
p3676
sg8
S'\xe8\xaa\xaa\xe5\xa5\xbd\xe7\x9a\x84\xe5\xb9\xb8\xe7\xa6\x8f\xe5\x91\xa2'
p3677
ssS'4vb4mFvYsr2h6enhjJsq9Y'
p3678
(dp3679
g3
S'Adele'
p3680
sg5
I18
sg6
S'https://open.spotify.com/track/4vb4mFvYsr2h6enhjJsq9Y'
p3681
sg8
S'Water Under the Bridge'
p3682
ssS'17Fd6Yb7mSbinKG8LoWfFl'
p3683
(dp3684
g3
S'Mike Posner'
p3685
sg5
I24
sg6
S'https://open.spotify.com/track/17Fd6Yb7mSbinKG8LoWfFl'
p3686
sg8
S'I Took A Pill In Ibiza - Seeb Remix'
p3687
ssS'2mEvsc8k8iwR099b49PccJ'
p3688
(dp3689
g3
S'Justin Hurwitz'
p3690
sg5
I5
sg6
S'https://open.spotify.com/track/2mEvsc8k8iwR099b49PccJ'
p3691
sg8
S'The End - From La La Land Soundtrack'
p3692
ssS'4tCtwWceOPWzenK2HAIJSb'
p3693
(dp3694
g3
S'Fifth Harmony'
p3695
sg5
I25
sg6
S'https://open.spotify.com/track/4tCtwWceOPWzenK2HAIJSb'
p3696
sg8
S'Work from Home'
p3697
ssS'0VqSdtXseb9khdZrnYVyM1'
p3698
(dp3699
g3
S'JJ Lin'
p3700
sg5
I42
sg6
S'https://open.spotify.com/track/0VqSdtXseb9khdZrnYVyM1'
p3701
sg8
S'\xe4\xb8\x8d\xe7\x82\xba\xe8\xaa\xb0\xe8\x80\x8c\xe4\xbd\x9c\xe7\x9a\x84\xe6\xad\x8c'
p3702
ssS'5nq1uTNIR1cBR72T87viS0'
p3703
(dp3704
g3
S'BTS'
p3705
sg5
I4
sg6
S'https://open.spotify.com/track/5nq1uTNIR1cBR72T87viS0'
p3706
sg8
S'Go Go'
p3707
ssS'7mldq42yDuxiUNn08nvzHO'
p3708
(dp3709
g3
S'Sam Hunt'
p3710
sg5
I22
sg6
S'https://open.spotify.com/track/7mldq42yDuxiUNn08nvzHO'
p3711
sg8
S'Body Like A Back Road'
p3712
ssS'3hB5DgAiMAQ4DzYbsMq1IT'
p3713
(dp3714
g3
S'Justin Bieber'
p3715
sg5
I42
sg6
S'https://open.spotify.com/track/3hB5DgAiMAQ4DzYbsMq1IT'
p3716
sg8
S'Love Yourself'
p3717
ssS'32OWobmyAz8J2qA8iWekyS'
p3718
(dp3719
g3
S'Justin Bieber'
p3720
sg5
I1
sg6
S'https://open.spotify.com/track/32OWobmyAz8J2qA8iWekyS'
p3721
sg8
S'Mistletoe'
p3722
ssS'6XOYVSmNDjKUNMXooU4s4z'
p3723
(dp3724
g3
S'OneRepublic'
p3725
sg5
I12
sg6
S'https://open.spotify.com/track/6XOYVSmNDjKUNMXooU4s4z'
p3726
sg8
S'No Vacancy'
p3727
ssS'2x1d6tYlsTn9fydVzxXLY9'
p3728
(dp3729
g3
S'Apink'
p3730
sg5
I1
sg6
S'https://open.spotify.com/track/2x1d6tYlsTn9fydVzxXLY9'
p3731
sg8
S'FIVE'
p3732
ssS'4pw59ml6lY3WnP90tfyDGP'
p3733
(dp3734
g3
S'Dear Jane'
p3735
sg5
I42
sg6
S'https://open.spotify.com/track/4pw59ml6lY3WnP90tfyDGP'
p3736
sg8
S'\xe7\xb6\x93\xe9\x81\x8e\xe4\xb8\x80\xe4\xba\x9b\xe7\xa7\x8b\xe8\x88\x87\xe5\x86\xac'
p3737
ssS'0Q6iyPxVFKypsvcqHt6x0u'
p3738
(dp3739
g3
S'Phil Lam'
p3740
sg5
I15
sg6
S'https://open.spotify.com/track/0Q6iyPxVFKypsvcqHt6x0u'
p3741
sg8
S'\xe5\xae\x89\xe5\xbe\x92\xe7\x94\x9f\xe7\x9a\x84\xe9\x8c\xaf'
p3742
ssS'67f09zM6QBNsHrwdpbQMVq'
p3743
(dp3744
g3
S'Kelvin Kwan'
p3745
sg5
I23
sg6
S'https://open.spotify.com/track/67f09zM6QBNsHrwdpbQMVq'
p3746
sg8
S'\xe6\xad\xbb\xe4\xba\xa1\xe4\xb9\x8b\xe5\x90\xbb'
p3747
ssS'6PGoSes0D9eUDeeAafB2As'
p3748
(dp3749
g3
S'Kendrick Lamar'
p3750
sg5
I5
sg6
S'https://open.spotify.com/track/6PGoSes0D9eUDeeAafB2As'
p3751
sg8
S'LOVE. FEAT. ZACARI.'
p3752
ssS'0nJx06quWzRoqStpsyv4fe'
p3753
(dp3754
g3
S'Pakho Chau'
p3755
sg5
I42
sg6
S'https://open.spotify.com/track/0nJx06quWzRoqStpsyv4fe'
p3756
sg8
S'\xe5\x82\xb3\xe8\x81\x9e'
p3757
ss.