(dp0
S'0mel2N9Ws9r4yLQn5QE21Y'
p1
(dp2
S'artistName'
p3
S'Sam Smith'
p4
sS'weeksOnChart'
p5
I5
sS'track_href'
p6
S'https://open.spotify.com/track/0mel2N9Ws9r4yLQn5QE21Y'
p7
sS'songName'
p8
S'Too Good At Goodbyes'
p9
ssS'3sJHkcxojoJD2Ytbo1yLLF'
p10
(dp11
g3
S'Moon Taxi'
p12
sg5
I12
sg6
S'https://open.spotify.com/track/3sJHkcxojoJD2Ytbo1yLLF'
p13
sg8
S'Two High'
p14
ssS'1Q1Lz8shbr2AXR8zKReTqd'
p15
(dp16
g3
S'Hearts & Colors'
p17
sg5
I22
sg6
S'https://open.spotify.com/track/1Q1Lz8shbr2AXR8zKReTqd'
p18
sg8
S'For The Love'
p19
ssS'0jdny0dhgjUwoIp5GkqEaA'
p20
(dp21
g3
S'Kesha'
p22
sg5
I6
sg6
S'https://open.spotify.com/track/0jdny0dhgjUwoIp5GkqEaA'
p23
sg8
S'Praying'
p24
ssS'60a0Rd6pjrkxjPbaKzXjfq'
p25
(dp26
g3
S'Linkin Park'
p27
sg5
I2
sg6
S'https://open.spotify.com/track/60a0Rd6pjrkxjPbaKzXjfq'
p28
sg8
S'In The End'
p29
ssS'6mzTuMlbCgEtoCitsszlqP'
p30
(dp31
g3
S'Avicii'
p32
sg5
I1
sg6
S'https://open.spotify.com/track/6mzTuMlbCgEtoCitsszlqP'
p33
sg8
S'What Would I Change It To (feat. AlunaGeorge)'
p34
ssS'0prNGof3XqfTvNDxHonvdK'
p35
(dp36
g3
S'Alessia Cara'
p37
sg5
I16
sg6
S'https://open.spotify.com/track/0prNGof3XqfTvNDxHonvdK'
p38
sg8
S'Scars To Your Beautiful'
p39
ssS'6xH0uUKbHZsMefcoUPTuV8'
p40
(dp41
g3
S'Astrid S'
p42
sg5
I10
sg6
S'https://open.spotify.com/track/6xH0uUKbHZsMefcoUPTuV8'
p43
sg8
S'Breathe'
p44
ssS'6HUnnBwYZqcED1eQztxMBN'
p45
(dp46
g3
S'Martin Jensen'
p47
sg5
I42
sg6
S'https://open.spotify.com/track/6HUnnBwYZqcED1eQztxMBN'
p48
sg8
S'Solo Dance'
p49
ssS'3D6haiNOJsKvF57Mlp5inS'
p50
(dp51
g3
S'Skinny Days'
p52
sg5
I14
sg6
S'https://open.spotify.com/track/3D6haiNOJsKvF57Mlp5inS'
p53
sg8
S'The One That Got Away'
p54
ssS'5H7CwzYZ60e7w69tX4ivQN'
p55
(dp56
g3
S'Ed Sheeran'
p57
sg5
I1
sg6
S'https://open.spotify.com/track/5H7CwzYZ60e7w69tX4ivQN'
p58
sg8
S'Shape of You - Galantis Remix'
p59
ssS'0F1Rc18rZcJOALxIIQPTYd'
p60
(dp61
g3
S'Maty Noyes'
p62
sg5
I2
sg6
S'https://open.spotify.com/track/0F1Rc18rZcJOALxIIQPTYd'
p63
sg8
S'in my miNd'
p64
ssS'3QWjljChcOMkRDYSzF33Qr'
p65
(dp66
g3
S'Kiiara'
p67
sg5
I5
sg6
S'https://open.spotify.com/track/3QWjljChcOMkRDYSzF33Qr'
p68
sg8
S'Whippin (feat. Felix Snow)'
p69
ssS'0lLdorYw7lVrJydTINhWdI'
p70
(dp71
g3
S'Michael Bubl\xc3\xa9'
p72
sg5
I1
sg6
S'https://open.spotify.com/track/0lLdorYw7lVrJydTINhWdI'
p73
sg8
S"It's Beginning To Look A Lot Like Christmas"
p74
ssS'1OAh8uOEOvTDqkKFsKksCi'
p75
(dp76
g3
S'DJ Khaled'
p77
sg5
I17
sg6
S'https://open.spotify.com/track/1OAh8uOEOvTDqkKFsKksCi'
p78
sg8
S'Wild Thoughts'
p79
ssS'2aksifNn5ph8igDOkPBA02'
p80
(dp81
g3
S'Rihanna'
p82
sg5
I7
sg6
S'https://open.spotify.com/track/2aksifNn5ph8igDOkPBA02'
p83
sg8
S'Love On The Brain'
p84
ssS'6ZbiaHwI9x7CIxYGOEmXxd'
p85
(dp86
g3
S'Tungevaag & Raaban'
p87
sg5
I12
sg6
S'https://open.spotify.com/track/6ZbiaHwI9x7CIxYGOEmXxd'
p88
sg8
S'Beast'
p89
ssS'4b4KcovePX8Ke2cLIQTLM0'
p90
(dp91
g3
S'The Vamps'
p92
sg5
I7
sg6
S'https://open.spotify.com/track/4b4KcovePX8Ke2cLIQTLM0'
p93
sg8
S'All Night'
p94
ssS'7wGoVu4Dady5GV0Sv4UIsx'
p95
(dp96
g3
S'Post Malone'
p97
sg5
I1
sg6
S'https://open.spotify.com/track/7wGoVu4Dady5GV0Sv4UIsx'
p98
sg8
S'rockstar'
p99
ssS'0V9cosR5jWa4fr2koARmhD'
p100
(dp101
g3
S'ItaloBrothers'
p102
sg5
I5
sg6
S'https://open.spotify.com/track/0V9cosR5jWa4fr2koARmhD'
p103
sg8
S'Summer Air'
p104
ssS'7KcGEssn7BnJdTgildK5y0'
p105
(dp106
g3
S'Nicki Minaj'
p107
sg5
I2
sg6
S'https://open.spotify.com/track/7KcGEssn7BnJdTgildK5y0'
p108
sg8
S'No Frauds'
p109
ssS'1CnPYaKxTVb4LWOtiGOm0m'
p110
(dp111
g3
S'Jon Bellion'
p112
sg5
I22
sg6
S'https://open.spotify.com/track/1CnPYaKxTVb4LWOtiGOm0m'
p113
sg8
S'All Time Low'
p114
ssS'5Ber68jZ7ytegr2UISEdb7'
p115
(dp116
g3
S'Michael Bubl\xc3\xa9'
p117
sg5
I1
sg6
S'https://open.spotify.com/track/5Ber68jZ7ytegr2UISEdb7'
p118
sg8
S'Santa Claus Is Coming To Town'
p119
ssS'4ioNqWWd8Ivz4bLfrn3bBN'
p120
(dp121
g3
S'Craig David'
p122
sg5
I1
sg6
S'https://open.spotify.com/track/4ioNqWWd8Ivz4bLfrn3bBN'
p123
sg8
S'Heartline'
p124
ssS'6Pw3Gvw4wNMZfTYZa6IQal'
p125
(dp126
g3
S'Bebe Rexha'
p127
sg5
I1
sg6
S'https://open.spotify.com/track/6Pw3Gvw4wNMZfTYZa6IQal'
p128
sg8
S'The Way I Are (Dance With Somebody) [feat. Lil Wayne]'
p129
ssS'2zfNVeKcfg6dQVXbPM7NNF'
p130
(dp131
g3
S'Rotlaus'
p132
sg5
I1
sg6
S'https://open.spotify.com/track/2zfNVeKcfg6dQVXbPM7NNF'
p133
sg8
S'Ei runde til'
p134
ssS'4CBM38zmBBV7ytoRU1TuOc'
p135
(dp136
g3
S'R\xc3\xb6yksopp'
p137
sg5
I1
sg6
S'https://open.spotify.com/track/4CBM38zmBBV7ytoRU1TuOc'
p138
sg8
S'Never Ever - Edit'
p139
ssS'2FRnf9qhLbvw8fu4IBXx78'
p140
(dp141
g3
S'Wham!'
p142
sg5
I1
sg6
S'https://open.spotify.com/track/2FRnf9qhLbvw8fu4IBXx78'
p143
sg8
S'Last Christmas'
p144
ssS'0HkwDCJIbWijtfKg63gQBJ'
p145
(dp146
g3
S'M\xc3\xb6we'
p147
sg5
I13
sg6
S'https://open.spotify.com/track/0HkwDCJIbWijtfKg63gQBJ'
p148
sg8
S'Skyline'
p149
ssS'7tr2za8SQg2CI8EDgrdtNl'
p150
(dp151
g3
S'Calvin Harris'
p152
sg5
I23
sg6
S'https://open.spotify.com/track/7tr2za8SQg2CI8EDgrdtNl'
p153
sg8
S'Slide'
p154
ssS'0Ie5uiv54KgCr7P4sYDTHl'
p155
(dp156
g3
S'Idina Menzel'
p157
sg5
I1
sg6
S'https://open.spotify.com/track/0Ie5uiv54KgCr7P4sYDTHl'
p158
sg8
S"Baby It's Cold Outside (duet with Michael Bubl\xc3\xa9)"
p159
ssS'4d7GbB5RQckWmvgj9Q1fQa'
p160
(dp161
g3
S'Galantis'
p162
sg5
I1
sg6
S'https://open.spotify.com/track/4d7GbB5RQckWmvgj9Q1fQa'
p163
sg8
S'Girls On Boys'
p164
ssS'28k5bDeysU73IRdyDXbses'
p165
(dp166
g3
S'Katastrofe'
p167
sg5
I19
sg6
S'https://open.spotify.com/track/28k5bDeysU73IRdyDXbses'
p168
sg8
S'Sangen Du Hater'
p169
ssS'4A95W8Z7DGEFvD2j7pmtUB'
p170
(dp171
g3
S'U2'
p172
sg5
I4
sg6
S'https://open.spotify.com/track/4A95W8Z7DGEFvD2j7pmtUB'
p173
sg8
S'You\xe2\x80\x99re The Best Thing About Me - U2 Vs. Kygo'
p174
ssS'4TZy1wLyHec06pwgFYDh1a'
p175
(dp176
g3
S'Shawn Mendes'
p177
sg5
I20
sg6
S'https://open.spotify.com/track/4TZy1wLyHec06pwgFYDh1a'
p178
sg8
S'Mercy'
p179
ssS'06FCvd7rrRcF3DdvWH5Isp'
p180
(dp181
g3
S'Kendrick Lamar'
p182
sg5
I2
sg6
S'https://open.spotify.com/track/06FCvd7rrRcF3DdvWH5Isp'
p183
sg8
S'LUST.'
p184
ssS'4pLwZjInHj3SimIyN9SnOz'
p185
(dp186
g3
S'Ariana Grande'
p187
sg5
I18
sg6
S'https://open.spotify.com/track/4pLwZjInHj3SimIyN9SnOz'
p188
sg8
S'Side To Side'
p189
ssS'6L778PA16SuyYvFhqnMndY'
p190
(dp191
g3
S'The Weeknd'
p192
sg5
I13
sg6
S'https://open.spotify.com/track/6L778PA16SuyYvFhqnMndY'
p193
sg8
S'Starboy - Kygo Remix'
p194
ssS'3E2Zh20GDCR9B1EYjfXWyv'
p195
(dp196
g3
S'AJR'
p197
sg5
I38
sg6
S'https://open.spotify.com/track/3E2Zh20GDCR9B1EYjfXWyv'
p198
sg8
S'Weak'
p199
ssS'2Gl0FzuLxflY6nPifJp5Dr'
p200
(dp201
g3
S'Kygo'
p202
sg5
I24
sg6
S'https://open.spotify.com/track/2Gl0FzuLxflY6nPifJp5Dr'
p203
sg8
S'First Time'
p204
ssS'0xl1w2q4VLojeXp4JfazPL'
p205
(dp206
g3
S'Drake'
p207
sg5
I1
sg6
S'https://open.spotify.com/track/0xl1w2q4VLojeXp4JfazPL'
p208
sg8
S'Sacrifices'
p209
ssS'4iTLNdQ7pBG0iCediXhaUF'
p210
(dp211
g3
S'Karpe Diem'
p212
sg5
I1
sg6
S'https://open.spotify.com/track/4iTLNdQ7pBG0iCediXhaUF'
p213
sg8
S'Toyota\xc2\xb4n til Magdi'
p214
ssS'5YCqzqb6yN6TsMOHb4FSVw'
p215
(dp216
g3
S'Kristian Kostov'
p217
sg5
I2
sg6
S'https://open.spotify.com/track/5YCqzqb6yN6TsMOHb4FSVw'
p218
sg8
S'Beautiful Mess'
p219
ssS'4BHzQ9C00ceJxfG16AlNWb'
p220
(dp221
g3
S'Adele'
p222
sg5
I11
sg6
S'https://open.spotify.com/track/4BHzQ9C00ceJxfG16AlNWb'
p223
sg8
S'Send My Love (To Your New Lover)'
p224
ssS'4Km5HrUvYTaSUfiSGPJeQR'
p225
(dp226
g3
S'Migos'
p227
sg5
I21
sg6
S'https://open.spotify.com/track/4Km5HrUvYTaSUfiSGPJeQR'
p228
sg8
S'Bad and Boujee (feat. Lil Uzi Vert)'
p229
ssS'50PWlIBU7PlGGwzgN8TiFJ'
p230
(dp231
g3
S'Lady Gaga'
p232
sg5
I11
sg6
S'https://open.spotify.com/track/50PWlIBU7PlGGwzgN8TiFJ'
p233
sg8
S'Million Reasons'
p234
ssS'2RttW7RAu5nOAfq6YFvApB'
p235
(dp236
g3
S'Ed Sheeran'
p237
sg5
I32
sg6
S'https://open.spotify.com/track/2RttW7RAu5nOAfq6YFvApB'
p238
sg8
S'Happier'
p239
ssS'6Bw5hKNyFd3O1D6ofOdHtO'
p240
(dp241
g3
S'Oslo Gospel Choir'
p242
sg5
I1
sg6
S'https://open.spotify.com/track/6Bw5hKNyFd3O1D6ofOdHtO'
p243
sg8
S'Nordnorsk julesalme'
p244
ssS'3EmmCZoqpWOTY1g2GBwJoR'
p245
(dp246
g3
S'Steve Aoki'
p247
sg5
I17
sg6
S'https://open.spotify.com/track/3EmmCZoqpWOTY1g2GBwJoR'
p248
sg8
S'Just Hold On'
p249
ssS'2Ce5IyMlVRVvN997ZJjJJA'
p250
(dp251
g3
S'Future'
p252
sg5
I13
sg6
S'https://open.spotify.com/track/2Ce5IyMlVRVvN997ZJjJJA'
p253
sg8
S'Selfish'
p254
ssS'3RRkd1ShkedrtLq8F5XqbT'
p255
(dp256
g3
S'Kurt Nilsen'
p257
sg5
I1
sg6
S'https://open.spotify.com/track/3RRkd1ShkedrtLq8F5XqbT'
p258
sg8
S'Auld Lang Syne'
p259
ssS'5HzbxweVAtisCrpoOF11qt'
p260
(dp261
g3
S'Digital Farm Animals'
p262
sg5
I10
sg6
S'https://open.spotify.com/track/5HzbxweVAtisCrpoOF11qt'
p263
sg8
S'Millionaire - Alan Walker Remix'
p264
ssS'2jfCy43LsFbCQoB6HyetlY'
p265
(dp266
g3
S'SJUR'
p267
sg5
I23
sg6
S'https://open.spotify.com/track/2jfCy43LsFbCQoB6HyetlY'
p268
sg8
S'Let Me Love You'
p269
ssS'5Nsnr6aTiNzECvns3OFcFx'
p270
(dp271
g3
S'Kurt Nilsen'
p272
sg5
I1
sg6
S'https://open.spotify.com/track/5Nsnr6aTiNzECvns3OFcFx'
p273
sg8
S'Gje Meg Handa Di Venn - feat. Helene B\xc3\xb8ksle'
p274
ssS'6mE9ohdlJcFCpBZgMLG7i1'
p275
(dp276
g3
S'Linda Vidala'
p277
sg5
I16
sg6
S'https://open.spotify.com/track/6mE9ohdlJcFCpBZgMLG7i1'
p278
sg8
S'B\xc3\xa6ngshot'
p279
ssS'0gbBzIqrECJOEPvQJIBFs5'
p280
(dp281
g3
S'Lorde'
p282
sg5
I8
sg6
S'https://open.spotify.com/track/0gbBzIqrECJOEPvQJIBFs5'
p283
sg8
S'Green Light'
p284
ssS'4vv1KjUzPwrtDbozizSfQc'
p285
(dp286
g3
S'DJ Khaled'
p287
sg5
I3
sg6
S'https://open.spotify.com/track/4vv1KjUzPwrtDbozizSfQc'
p288
sg8
S"Don't Quit"
p289
ssS'4bU7syO13ky3ZGJRSXg64S'
p290
(dp291
g3
S'Niklas'
p292
sg5
I4
sg6
S'https://open.spotify.com/track/4bU7syO13ky3ZGJRSXg64S'
p293
sg8
S'Follow Me'
p294
ssS'5kRPPEWFJIMox5qIkQkiz5'
p295
(dp296
g3
S'Harry Styles'
p297
sg5
I4
sg6
S'https://open.spotify.com/track/5kRPPEWFJIMox5qIkQkiz5'
p298
sg8
S'Sweet Creature'
p299
ssS'4TZ1xAwR0kJNN20H6GW82h'
p300
(dp301
g3
S'Lukas Graham'
p302
sg5
I1
sg6
S'https://open.spotify.com/track/4TZ1xAwR0kJNN20H6GW82h'
p303
sg8
S'Off to See the World'
p304
ssS'4iYRa2btalAzPZoSYfROqF'
p305
(dp306
g3
S'Kendrick Lamar'
p307
sg5
I2
sg6
S'https://open.spotify.com/track/4iYRa2btalAzPZoSYfROqF'
p308
sg8
S'XXX. FEAT. U2.'
p309
ssS'4xlrALxuaCf9yZBHJeTSG6'
p310
(dp311
g3
S'Jonas Blue'
p312
sg5
I9
sg6
S'https://open.spotify.com/track/4xlrALxuaCf9yZBHJeTSG6'
p313
sg8
S'Mama'
p314
ssS'6Nle9hKrkL1wQpwNfEkxjh'
p315
(dp316
g3
S'Frank Ocean'
p317
sg5
I2
sg6
S'https://open.spotify.com/track/6Nle9hKrkL1wQpwNfEkxjh'
p318
sg8
S'Chanel'
p319
ssS'00vk0sEfb6mr2ehwSw0Uhn'
p320
(dp321
g3
S'Imany'
p322
sg5
I12
sg6
S'https://open.spotify.com/track/00vk0sEfb6mr2ehwSw0Uhn'
p323
sg8
S"Don't Be So Shy - Filatov & Karas Remix"
p324
ssS'1MhqCtzqsUWpBk8sm4bofA'
p325
(dp326
g3
S'Chad Cooper'
p327
sg5
I1
sg6
S'https://open.spotify.com/track/1MhqCtzqsUWpBk8sm4bofA'
p328
sg8
S'Happy Song'
p329
ssS'33BWiM6OaybYEtYklVeC6T'
p330
(dp331
g3
S'Amanda Delara'
p332
sg5
I23
sg6
S'https://open.spotify.com/track/33BWiM6OaybYEtYklVeC6T'
p333
sg8
S'Gunerius - Remix'
p334
ssS'000xQL6tZNLJzIrtIgxqSl'
p335
(dp336
g3
S'ZAYN'
p337
sg5
I7
sg6
S'https://open.spotify.com/track/000xQL6tZNLJzIrtIgxqSl'
p338
sg8
S'Still Got Time'
p339
ssS'4KnUpP0jPsFN8iFSzx01Lt'
p340
(dp341
g3
S'Isac Elliot'
p342
sg5
I1
sg6
S'https://open.spotify.com/track/4KnUpP0jPsFN8iFSzx01Lt'
p343
sg8
S'AYO'
p344
ssS'1D3ODoXHBLpdxolZRHWV1j'
p345
(dp346
g3
S'Jonas Blue'
p347
sg5
I7
sg6
S'https://open.spotify.com/track/1D3ODoXHBLpdxolZRHWV1j'
p348
sg8
S'By Your Side'
p349
ssS'1CKd1PnqfYx0H12V9MSaIY'
p350
(dp351
g3
S'Zedd'
p352
sg5
I2
sg6
S'https://open.spotify.com/track/1CKd1PnqfYx0H12V9MSaIY'
p353
sg8
S'Get Low (with Liam Payne)'
p354
ssS'5c4tB0saSkNHX5CyDosuF7'
p355
(dp356
g3
S'Burak Yeter'
p357
sg5
I2
sg6
S'https://open.spotify.com/track/5c4tB0saSkNHX5CyDosuF7'
p358
sg8
S'Tuesday'
p359
ssS'0KKkJNfGyhkQ5aFogxQAPU'
p360
(dp361
g3
S'Bruno Mars'
p362
sg5
I27
sg6
S'https://open.spotify.com/track/0KKkJNfGyhkQ5aFogxQAPU'
p363
sg8
S"That's What I Like"
p364
ssS'5Z01UMMf7V1o0MzF86s6WJ'
p365
(dp366
g3
S'Eminem'
p367
sg5
I18
sg6
S'https://open.spotify.com/track/5Z01UMMf7V1o0MzF86s6WJ'
p368
sg8
S'Lose Yourself - Soundtrack Version'
p369
ssS'7vAXN57IQ0sj049wZGIboE'
p370
(dp371
g3
S'Imagine Dragons'
p372
sg5
I1
sg6
S'https://open.spotify.com/track/7vAXN57IQ0sj049wZGIboE'
p373
sg8
S'Rise Up'
p374
ssS'5CtI0qwDJkDQGwXD1H1cLb'
p375
(dp376
g3
S'Luis Fonsi'
p377
sg5
I26
sg6
S'https://open.spotify.com/track/5CtI0qwDJkDQGwXD1H1cLb'
p378
sg8
S'Despacito - Remix'
p379
ssS'7m9OqQk4RVRkw9JJdeAw96'
p380
(dp381
g3
S'XXXTENTACION'
p382
sg5
I7
sg6
S'https://open.spotify.com/track/7m9OqQk4RVRkw9JJdeAw96'
p383
sg8
S'Jocelyn Flores'
p384
ssS'5o4yGlG0PfeVUa6ClIyOxq'
p385
(dp386
g3
S'Charli XCX'
p387
sg5
I2
sg6
S'https://open.spotify.com/track/5o4yGlG0PfeVUa6ClIyOxq'
p388
sg8
S'Boys'
p389
ssS'3bqGjTDofWdOMwmo0nhfwS'
p390
(dp391
g3
S'Astrid S'
p392
sg5
I3
sg6
S'https://open.spotify.com/track/3bqGjTDofWdOMwmo0nhfwS'
p393
sg8
S'Bloodstream'
p394
ssS'4aSfgWmRa9KsISD4Jmx7QB'
p395
(dp396
g3
S'Kygo'
p397
sg5
I3
sg6
S'https://open.spotify.com/track/4aSfgWmRa9KsISD4Jmx7QB'
p398
sg8
S'This Town'
p399
ssS'0NyOeqzqjVM9j7IuWp2oJ6'
p400
(dp401
g3
S'Gryffin'
p402
sg5
I8
sg6
S'https://open.spotify.com/track/0NyOeqzqjVM9j7IuWp2oJ6'
p403
sg8
S'Feel Good (feat. Daya)'
p404
ssS'0Nhu3zSYbEz32IYiobV75e'
p405
(dp406
g3
S'Halsey'
p407
sg5
I10
sg6
S'https://open.spotify.com/track/0Nhu3zSYbEz32IYiobV75e'
p408
sg8
S'Now Or Never'
p409
ssS'3zJw3rugfpVrmBeDDnUYzy'
p410
(dp411
g3
S'John Lennon'
p412
sg5
I1
sg6
S'https://open.spotify.com/track/3zJw3rugfpVrmBeDDnUYzy'
p413
sg8
S'Happy Xmas (War Is Over) - 2010 Digital Remaster'
p414
ssS'2MHCiOohBZEQuLgDTPvSzF'
p415
(dp416
g3
S'Galantis'
p417
sg5
I9
sg6
S'https://open.spotify.com/track/2MHCiOohBZEQuLgDTPvSzF'
p418
sg8
S'Love On Me'
p419
ssS'1Eck97uRMlprKOOJN9oO1E'
p420
(dp421
g3
S'G-Eazy'
p422
sg5
I26
sg6
S'https://open.spotify.com/track/1Eck97uRMlprKOOJN9oO1E'
p423
sg8
S'Good Life (with G-Eazy & Kehlani)'
p424
ssS'1fDgGBflgF3UqrwgadqphF'
p425
(dp426
g3
S'Moberg'
p427
sg5
I2
sg6
S'https://open.spotify.com/track/1fDgGBflgF3UqrwgadqphF'
p428
sg8
S'Evig ung'
p429
ssS'5WEqjIUHkwZ5h3DSE7F9bM'
p430
(dp431
g3
S'Avicii'
p432
sg5
I5
sg6
S'https://open.spotify.com/track/5WEqjIUHkwZ5h3DSE7F9bM'
p433
sg8
S'Friend Of Mine (feat. Vargas & Lagola)'
p434
ssS'5humEOJehpAwMJEJmb0JJ2'
p435
(dp436
g3
S'Nat King Cole'
p437
sg5
I1
sg6
S'https://open.spotify.com/track/5humEOJehpAwMJEJmb0JJ2'
p438
sg8
S'The Christmas Song (Merry Christmas To You)'
p439
ssS'2dfqS3MRtbLZSZA1IL8xY5'
p440
(dp441
g3
S'Drake'
p442
sg5
I1
sg6
S'https://open.spotify.com/track/2dfqS3MRtbLZSZA1IL8xY5'
p443
sg8
S'Skepta Interlude'
p444
ssS'1sCxVKWImDZSZKvG0U9B23'
p445
(dp446
g3
S'Selena Gomez'
p447
sg5
I12
sg6
S'https://open.spotify.com/track/1sCxVKWImDZSZKvG0U9B23'
p448
sg8
S'Bad Liar'
p449
ssS'7yytg1qtrJ4vNh2knSa0Un'
p450
(dp451
g3
S'Vilde og Anna'
p452
sg5
I2
sg6
S'https://open.spotify.com/track/7yytg1qtrJ4vNh2knSa0Un'
p453
sg8
S'Vestlandet'
p454
ssS'4xyNG8vZR3g8FnphVkbjRo'
p455
(dp456
g3
S'Lana Del Rey'
p457
sg5
I1
sg6
S'https://open.spotify.com/track/4xyNG8vZR3g8FnphVkbjRo'
p458
sg8
S'Love'
p459
ssS'2nUJvBO87SkxCViQsLc9Zr'
p460
(dp461
g3
S'Big Shaq'
p462
sg5
I3
sg6
S'https://open.spotify.com/track/2nUJvBO87SkxCViQsLc9Zr'
p463
sg8
S"Man's Not Hot"
p464
ssS'2uSLx5uwRIhiA3sJJraNqX'
p465
(dp466
g3
S'Maroon 5'
p467
sg5
I1
sg6
S'https://open.spotify.com/track/2uSLx5uwRIhiA3sJJraNqX'
p468
sg8
S'Help Me Out (with Julia Michaels)'
p469
ssS'4Y8s3kA6vx4y51T79sNVOs'
p470
(dp471
g3
S'Marcus & Martinus'
p472
sg5
I12
sg6
S'https://open.spotify.com/track/4Y8s3kA6vx4y51T79sNVOs'
p473
sg8
S'Girls'
p474
ssS'0ADG9OgdVTL7fgREP75BrZ'
p475
(dp476
g3
S'Zara Larsson'
p477
sg5
I8
sg6
S'https://open.spotify.com/track/0ADG9OgdVTL7fgREP75BrZ'
p478
sg8
S"Ain't My Fault"
p479
ssS'2SK04gQYClGFLqNGklgJpN'
p480
(dp481
g3
S'Ed Sheeran'
p482
sg5
I1
sg6
S'https://open.spotify.com/track/2SK04gQYClGFLqNGklgJpN'
p483
sg8
S'Castle on the Hill - Seeb Remix'
p484
ssS'4VPXFi4vFTtS9wHe6oMQaT'
p485
(dp486
g3
S'Zara Larsson'
p487
sg5
I13
sg6
S'https://open.spotify.com/track/4VPXFi4vFTtS9wHe6oMQaT'
p488
sg8
S"I Can't Fall in Love Without You"
p489
ssS'3oIhthYPSKwAwJLA8JClkV'
p490
(dp491
g3
S'Astrid S'
p492
sg5
I1
sg6
S'https://open.spotify.com/track/3oIhthYPSKwAwJLA8JClkV'
p493
sg8
S'Such A Boy'
p494
ssS'5jxgVEqUcgqEiEIkVKe5N9'
p495
(dp496
g3
S'Marcus & Martinus'
p497
sg5
I1
sg6
S'https://open.spotify.com/track/5jxgVEqUcgqEiEIkVKe5N9'
p498
sg8
S'Bae - KVR Remix'
p499
ssS'4hiUYb2nb6NlfTP9CD38Pe'
p500
(dp501
g3
S'Ti\xc3\xabsto'
p502
sg5
I17
sg6
S'https://open.spotify.com/track/4hiUYb2nb6NlfTP9CD38Pe'
p503
sg8
S'On My Way'
p504
ssS'3TRFq09DUgYj1mug6RRqJW'
p505
(dp506
g3
S'Luke Christopher'
p507
sg5
I7
sg6
S'https://open.spotify.com/track/3TRFq09DUgYj1mug6RRqJW'
p508
sg8
S'Lot to Learn'
p509
ssS'6s2wpWPFPAgKg2LXxi1Oee'
p510
(dp511
g3
S'Bruce Springsteen'
p512
sg5
I1
sg6
S'https://open.spotify.com/track/6s2wpWPFPAgKg2LXxi1Oee'
p513
sg8
S"Santa Claus Is Comin' to Town - Single Version"
p514
ssS'6O6M7pJLABmfBRoGZMu76Y'
p515
(dp516
g3
S'The Chainsmokers'
p517
sg5
I1
sg6
S'https://open.spotify.com/track/6O6M7pJLABmfBRoGZMu76Y'
p518
sg8
S'Roses'
p519
ssS'3u7AIoAXRXe1UWgqsoYz26'
p520
(dp521
g3
S'Lila'
p522
sg5
I13
sg6
S'https://open.spotify.com/track/3u7AIoAXRXe1UWgqsoYz26'
p523
sg8
S"Don't Let Go"
p524
ssS'1rIKgCH4H52lrvDcz50hS8'
p525
(dp526
g3
S'Zara Larsson'
p527
sg5
I3
sg6
S'https://open.spotify.com/track/1rIKgCH4H52lrvDcz50hS8'
p528
sg8
S'Lush Life'
p529
ssS'2q83iIfEGIk8kyrdT4uYOG'
p530
(dp531
g3
S'Marcus & Martinus'
p532
sg5
I36
sg6
S'https://open.spotify.com/track/2q83iIfEGIk8kyrdT4uYOG'
p533
sg8
S'Elektrisk'
p534
ssS'76gUmNLXGQVOsGhfcshkFP'
p535
(dp536
g3
S'Drake'
p537
sg5
I2
sg6
S'https://open.spotify.com/track/76gUmNLXGQVOsGhfcshkFP'
p538
sg8
S'Madiba Riddim'
p539
ssS'3gx9RexbdPxRjWNbEyNFwW'
p540
(dp541
g3
S'Adrees'
p542
sg5
I1
sg6
S'https://open.spotify.com/track/3gx9RexbdPxRjWNbEyNFwW'
p543
sg8
S'River'
p544
ssS'5rnFOEEIBIWZ6dhHrY6zHh'
p545
(dp546
g3
S'ILoveMakonnen'
p547
sg5
I1
sg6
S'https://open.spotify.com/track/5rnFOEEIBIWZ6dhHrY6zHh'
p548
sg8
S'Love (feat. Rae Sremmurd)'
p549
ssS'7vGuf3Y35N4wmASOKLUVVU'
p550
(dp551
g3
S'Marshmello'
p552
sg5
I9
sg6
S'https://open.spotify.com/track/7vGuf3Y35N4wmASOKLUVVU'
p553
sg8
S'Silence'
p554
ssS'3KZ0AsCkUgYDagOtAljFn5'
p555
(dp556
g3
S'Stavangerkameratene'
p557
sg5
I31
sg6
S'https://open.spotify.com/track/3KZ0AsCkUgYDagOtAljFn5'
p558
sg8
S'Bare s\xc3\xa5 du vett det'
p559
ssS'3EfugazgSddQvzZpkof5I4'
p560
(dp561
g3
S'Anne-Marie'
p562
sg5
I8
sg6
S'https://open.spotify.com/track/3EfugazgSddQvzZpkof5I4'
p563
sg8
S'Ciao Adios'
p564
ssS'0xPaZrF25ltzvz1a2Pm5DQ'
p565
(dp566
g3
S'Michael Bubl\xc3\xa9'
p567
sg5
I1
sg6
S'https://open.spotify.com/track/0xPaZrF25ltzvz1a2Pm5DQ'
p568
sg8
S'All I Want For Christmas Is You'
p569
ssS'7iDxZ5Cd0Yg08d4fI5WVtG'
p570
(dp571
g3
S'Calvin Harris'
p572
sg5
I1
sg6
S'https://open.spotify.com/track/7iDxZ5Cd0Yg08d4fI5WVtG'
p573
sg8
S'Skrt On Me'
p574
ssS'1SBztbosS9FdbOKLxXt2hd'
p575
(dp576
g3
S'Staysman & Lazz'
p577
sg5
I2
sg6
S'https://open.spotify.com/track/1SBztbosS9FdbOKLxXt2hd'
p578
sg8
S'KJ\xc3\x98RR'
p579
ssS'7129iqBafaphfc3WPCGC0L'
p580
(dp581
g3
S'Lukas Graham'
p582
sg5
I15
sg6
S'https://open.spotify.com/track/7129iqBafaphfc3WPCGC0L'
p583
sg8
S'7 Years'
p584
ssS'0L9lXMXddmoBbBUeF7A9An'
p585
(dp586
g3
S'Gavin James'
p587
sg5
I22
sg6
S'https://open.spotify.com/track/0L9lXMXddmoBbBUeF7A9An'
p588
sg8
S'Nervous (The Ooh Song) - Mark McCabe Remix'
p589
ssS'3194BbVjWNBWgXVl2OU6TL'
p590
(dp591
g3
S'TIX'
p592
sg5
I5
sg6
S'https://open.spotify.com/track/3194BbVjWNBWgXVl2OU6TL'
p593
sg8
S'Skaperen 2017'
p594
ssS'57p8CBvPOxrvyCbn6ttl5r'
p595
(dp596
g3
S'Skrillex'
p597
sg5
I11
sg6
S'https://open.spotify.com/track/57p8CBvPOxrvyCbn6ttl5r'
p598
sg8
S'Would You Ever'
p599
ssS'0CcQNd8CINkwQfe1RDtGV6'
p600
(dp601
g3
S'Imagine Dragons'
p602
sg5
I33
sg6
S'https://open.spotify.com/track/0CcQNd8CINkwQfe1RDtGV6'
p603
sg8
S'Believer'
p604
ssS'7oolFzHipTMg2nL7shhdz2'
p605
(dp606
g3
S'Ed Sheeran'
p607
sg5
I4
sg6
S'https://open.spotify.com/track/7oolFzHipTMg2nL7shhdz2'
p608
sg8
S'Eraser'
p609
ssS'1kvhp7R0MUJRjRZIf5YipQ'
p610
(dp611
g3
S'Olav Haust'
p612
sg5
I4
sg6
S'https://open.spotify.com/track/1kvhp7R0MUJRjRZIf5YipQ'
p613
sg8
S'Hakkebakkeskogen 2017'
p614
ssS'3H6v3mwhvH92lRQfETaGTQ'
p615
(dp616
g3
S'Hkeem'
p617
sg5
I9
sg6
S'https://open.spotify.com/track/3H6v3mwhvH92lRQfETaGTQ'
p618
sg8
S'Urettferdig'
p619
ssS'6D2Ultxjz1oZBfodJzgNhJ'
p620
(dp621
g3
S'LOKE'
p622
sg5
I15
sg6
S'https://open.spotify.com/track/6D2Ultxjz1oZBfodJzgNhJ'
p623
sg8
S'Loving You Girl'
p624
ssS'3B7udSGy2PfgoCniMSb523'
p625
(dp626
g3
S'Ed Sheeran'
p627
sg5
I11
sg6
S'https://open.spotify.com/track/3B7udSGy2PfgoCniMSb523'
p628
sg8
S'I See Fire'
p629
ssS'7nZmah2llfvLDiUjm0kiyz'
p630
(dp631
g3
S'Justin Bieber'
p632
sg5
I8
sg6
S'https://open.spotify.com/track/7nZmah2llfvLDiUjm0kiyz'
p633
sg8
S'Friends (with BloodPop\xc2\xae)'
p634
ssS'3NdDpSvN911VPGivFlV5d0'
p635
(dp636
g3
S'ZAYN'
p637
sg5
I42
sg6
S'https://open.spotify.com/track/3NdDpSvN911VPGivFlV5d0'
p638
sg8
S'I Don\xe2\x80\x99t Wanna Live Forever (Fifty Shades Darker) - From Fifty Shades Darker (Original Motion Picture Soundtrack)'
p639
ssS'0cbQXCWA8A17cZ9gm158Pz'
p640
(dp641
g3
S'Rhys'
p642
sg5
I34
sg6
S'https://open.spotify.com/track/0cbQXCWA8A17cZ9gm158Pz'
p643
sg8
S'Last Dance'
p644
ssS'37F0uwRSrdzkBiuj0D5UHI'
p645
(dp646
g3
S'The Weeknd'
p647
sg5
I2
sg6
S'https://open.spotify.com/track/37F0uwRSrdzkBiuj0D5UHI'
p648
sg8
S'Reminder'
p649
ssS'2swnHKlhDyi54C6lWQEpjo'
p650
(dp651
g3
S'Cezinando'
p652
sg5
I1
sg6
S'https://open.spotify.com/track/2swnHKlhDyi54C6lWQEpjo'
p653
sg8
S'Heia meg'
p654
ssS'0Gm6yW9dqvWhBO8DQDiLHs'
p655
(dp656
g3
S'Julia Michaels'
p657
sg5
I1
sg6
S'https://open.spotify.com/track/0Gm6yW9dqvWhBO8DQDiLHs'
p658
sg8
S'Worst In Me'
p659
ssS'6wV12xIUb8oFY7lBy4KuQe'
p660
(dp661
g3
S'Aaron Carter'
p662
sg5
I8
sg6
S'https://open.spotify.com/track/6wV12xIUb8oFY7lBy4KuQe'
p663
sg8
S'Sooner Or Later'
p664
ssS'1UZOjK1BwmwWU14Erba9CZ'
p665
(dp666
g3
S'Miley Cyrus'
p667
sg5
I2
sg6
S'https://open.spotify.com/track/1UZOjK1BwmwWU14Erba9CZ'
p668
sg8
S'Malibu'
p669
ssS'2eMwDehkIC1j68U6FA3Eiq'
p670
(dp671
g3
S'Lil Uzi Vert'
p672
sg5
I21
sg6
S'https://open.spotify.com/track/2eMwDehkIC1j68U6FA3Eiq'
p673
sg8
S'XO TOUR Llif3'
p674
ssS'2KklXplRtxMsBYo474Es0w'
p675
(dp676
g3
S'Ofenbach'
p677
sg5
I16
sg6
S'https://open.spotify.com/track/2KklXplRtxMsBYo474Es0w'
p678
sg8
S'Be Mine'
p679
ssS'7Hz6LLOVxrojLPIHJJ1S0E'
p680
(dp681
g3
S'Sam Smith'
p682
sg5
I1
sg6
S'https://open.spotify.com/track/7Hz6LLOVxrojLPIHJJ1S0E'
p683
sg8
S'Have Yourself A Merry Little Christmas'
p684
ssS'3CRDbSIZ4r5MsZ0YwxuEkn'
p685
(dp686
g3
S'Twenty One Pilots'
p687
sg5
I12
sg6
S'https://open.spotify.com/track/3CRDbSIZ4r5MsZ0YwxuEkn'
p688
sg8
S'Stressed Out'
p689
ssS'7wPa4hnWV7xMqjEMSOz0ey'
p690
(dp691
g3
S'Vidar Villa'
p692
sg5
I16
sg6
S'https://open.spotify.com/track/7wPa4hnWV7xMqjEMSOz0ey'
p693
sg8
S'Herregud'
p694
ssS'6mICuAdrwEjh6Y6lroV2Kg'
p695
(dp696
g3
S'Shakira'
p697
sg5
I15
sg6
S'https://open.spotify.com/track/6mICuAdrwEjh6Y6lroV2Kg'
p698
sg8
S'Chantaje'
p699
ssS'1KTu92zFjElqc3h20XCwE3'
p700
(dp701
g3
S'Frank Pierce'
p702
sg5
I15
sg6
S'https://open.spotify.com/track/1KTu92zFjElqc3h20XCwE3'
p703
sg8
S'Vibe'
p704
ssS'3gWu8y0TKCIdy2mpTqVnTl'
p705
(dp706
g3
S'NF'
p707
sg5
I1
sg6
S'https://open.spotify.com/track/3gWu8y0TKCIdy2mpTqVnTl'
p708
sg8
S'Let You Down'
p709
ssS'32DGGj6KlNuBr6WaqRxpxi'
p710
(dp711
g3
S'Charlie Puth'
p712
sg5
I1
sg6
S'https://open.spotify.com/track/32DGGj6KlNuBr6WaqRxpxi'
p713
sg8
S'How Long'
p714
ssS'4dEQpYuRJDEwnYTwkiCUeo'
p715
(dp716
g3
S'Serlina'
p717
sg5
I11
sg6
S'https://open.spotify.com/track/4dEQpYuRJDEwnYTwkiCUeo'
p718
sg8
S'Puste under vann'
p719
ssS'4I39irD0xSyfRA099AsWow'
p720
(dp721
g3
S'Demi Lovato'
p722
sg5
I1
sg6
S'https://open.spotify.com/track/4I39irD0xSyfRA099AsWow'
p723
sg8
S"You Don't Do It For Me Anymore"
p724
ssS'7gHs73wELdeycvS48JfIos'
p725
(dp726
g3
S'Alan Walker'
p727
sg5
I42
sg6
S'https://open.spotify.com/track/7gHs73wELdeycvS48JfIos'
p728
sg8
S'Faded'
p729
ssS'6LUOMjoORvAkdhBYvESO46'
p730
(dp731
g3
S'Sia'
p732
sg5
I39
sg6
S'https://open.spotify.com/track/6LUOMjoORvAkdhBYvESO46'
p733
sg8
S'Move Your Body - Alan Walker Remix'
p734
ssS'7r2VakkFKiTVc4OLAhYwRw'
p735
(dp736
g3
S'Gabrielle'
p737
sg5
I4
sg6
S'https://open.spotify.com/track/7r2VakkFKiTVc4OLAhYwRw'
p738
sg8
S'Vekk meg opp'
p739
ssS'2yPgwtJ9j7WP29q9dcYOmR'
p740
(dp741
g3
S'Penthox'
p742
sg5
I16
sg6
S'https://open.spotify.com/track/2yPgwtJ9j7WP29q9dcYOmR'
p743
sg8
S'Cigarette (feat. Madcon & Julimar Santos)'
p744
ssS'00lNx0OcTJrS3MKHcB80HY'
p745
(dp746
g3
S'Jax Jones'
p747
sg5
I34
sg6
S'https://open.spotify.com/track/00lNx0OcTJrS3MKHcB80HY'
p748
sg8
S"You Don't Know Me - Radio Edit"
p749
ssS'6a9Yc4mnNameCjDEdfpXSv'
p750
(dp751
g3
S'Marcus & Martinus'
p752
sg5
I8
sg6
S'https://open.spotify.com/track/6a9Yc4mnNameCjDEdfpXSv'
p753
sg8
S'Dance With You'
p754
ssS'2s76aKBWKShlwPC4xTtEEE'
p755
(dp756
g3
S'State of Sound'
p757
sg5
I4
sg6
S'https://open.spotify.com/track/2s76aKBWKShlwPC4xTtEEE'
p758
sg8
S'Wake Up Where You Are'
p759
ssS'4595XTloH92D5UwDIH6ZlE'
p760
(dp761
g3
S'Kamelen'
p762
sg5
I4
sg6
S'https://open.spotify.com/track/4595XTloH92D5UwDIH6ZlE'
p763
sg8
S'Beng Beng Beng'
p764
ssS'0MPznfQfw2r2XWJlhPoyWN'
p765
(dp766
g3
S'Stavangerkameratene'
p767
sg5
I1
sg6
S'https://open.spotify.com/track/0MPznfQfw2r2XWJlhPoyWN'
p768
sg8
S'Bare s\xc3\xa5 du vett det'
p769
ssS'6t2ubAB4iSYOuIpRAOGd4t'
p770
(dp771
g3
S'Flo Rida'
p772
sg5
I21
sg6
S'https://open.spotify.com/track/6t2ubAB4iSYOuIpRAOGd4t'
p773
sg8
S'Cake'
p774
ssS'4nDfc6F2uVcc6wdG7kBzWO'
p775
(dp776
g3
S'Nick Jonas'
p777
sg5
I5
sg6
S'https://open.spotify.com/track/4nDfc6F2uVcc6wdG7kBzWO'
p778
sg8
S'Bom Bidi Bom - From Fifty Shades Darker (Original Motion Picture Soundtrack)'
p779
ssS'0mME3VakAVTxFSlDQe5kiY'
p780
(dp781
g3
S'TIX'
p782
sg5
I5
sg6
S'https://open.spotify.com/track/0mME3VakAVTxFSlDQe5kiY'
p783
sg8
S'Tyven 2017'
p784
ssS'0fg8CqpjdojMyXLNzM2PaJ'
p785
(dp786
g3
S'Major Lazer'
p787
sg5
I14
sg6
S'https://open.spotify.com/track/0fg8CqpjdojMyXLNzM2PaJ'
p788
sg8
S'Run Up (feat. PARTYNEXTDOOR & Nicki Minaj)'
p789
ssS'7FNyRafAkUgto3txPZhiO6'
p790
(dp791
g3
S'Cezinando'
p792
sg5
I28
sg6
S'https://open.spotify.com/track/7FNyRafAkUgto3txPZhiO6'
p793
sg8
S'H\xc3\xa5per du har plass'
p794
ssS'6uFsE1JgZ20EXyU0JQZbUR'
p795
(dp796
g3
S'Taylor Swift'
p797
sg5
I7
sg6
S'https://open.spotify.com/track/6uFsE1JgZ20EXyU0JQZbUR'
p798
sg8
S'Look What You Made Me Do'
p799
ssS'4xBjsLUSjcx2h7PcRikpQp'
p800
(dp801
g3
S'Camila Cabello'
p802
sg5
I1
sg6
S'https://open.spotify.com/track/4xBjsLUSjcx2h7PcRikpQp'
p803
sg8
S'OMG'
p804
ssS'378iszndTZAR4dH8kwsLC6'
p805
(dp806
g3
S'Sia'
p807
sg5
I1
sg6
S'https://open.spotify.com/track/378iszndTZAR4dH8kwsLC6'
p808
sg8
S'Cheap Thrills'
p809
ssS'7GX5flRQZVHRAGd6B4TmDO'
p810
(dp811
g3
S'Lil Uzi Vert'
p812
sg5
I7
sg6
S'https://open.spotify.com/track/7GX5flRQZVHRAGd6B4TmDO'
p813
sg8
S'XO TOUR Llif3'
p814
ssS'2NF8A7C6tICScdRaZ0BrEe'
p815
(dp816
g3
S'Ofenbach'
p817
sg5
I1
sg6
S'https://open.spotify.com/track/2NF8A7C6tICScdRaZ0BrEe'
p818
sg8
S'Katchi (Ofenbach vs. Nick Waterhouse)'
p819
ssS'4F7A0DXBrmUAkp32uenhZt'
p820
(dp821
g3
S'The Weeknd'
p822
sg5
I10
sg6
S'https://open.spotify.com/track/4F7A0DXBrmUAkp32uenhZt'
p823
sg8
S'Party Monster'
p824
ssS'2Xv0Y4zLC4m2dAQr2EMFOx'
p825
(dp826
g3
S'TIX'
p827
sg5
I10
sg6
S'https://open.spotify.com/track/2Xv0Y4zLC4m2dAQr2EMFOx'
p828
sg8
S'Hakkebakkeskogen 2017'
p829
ssS'0CokSRCu5hZgPxcZBaEzVE'
p830
(dp831
g3
S'Macklemore'
p832
sg5
I3
sg6
S'https://open.spotify.com/track/0CokSRCu5hZgPxcZBaEzVE'
p833
sg8
S'Glorious (feat. Skylar Grey)'
p834
ssS'0Ws8D3EWUDgY962Xftb0h5'
p835
(dp836
g3
S'Calvin Harris'
p837
sg5
I1
sg6
S'https://open.spotify.com/track/0Ws8D3EWUDgY962Xftb0h5'
p838
sg8
S'Cash Out'
p839
ssS'61iyAeMVUNu7vIVqedsBFB'
p840
(dp841
g3
S'Ella Eyre'
p842
sg5
I6
sg6
S'https://open.spotify.com/track/61iyAeMVUNu7vIVqedsBFB'
p843
sg8
S"We Don't Have To Take Our Clothes Off"
p844
ssS'3aHVNRjGZWX7InYJDqTBs1'
p845
(dp846
g3
S'Chris Haugan'
p847
sg5
I5
sg6
S'https://open.spotify.com/track/3aHVNRjGZWX7InYJDqTBs1'
p848
sg8
S'Bussen 2017'
p849
ssS'75ZvA4QfFiZvzhj2xkaWAh'
p850
(dp851
g3
S'Post Malone'
p852
sg5
I2
sg6
S'https://open.spotify.com/track/75ZvA4QfFiZvzhj2xkaWAh'
p853
sg8
S'I Fall Apart'
p854
ssS'7BKLCZ1jbUBVqRi2FVlTVw'
p855
(dp856
g3
S'The Chainsmokers'
p857
sg5
I33
sg6
S'https://open.spotify.com/track/7BKLCZ1jbUBVqRi2FVlTVw'
p858
sg8
S'Closer'
p859
ssS'4BM4ml3TgBFALLaCaJtVhi'
p860
(dp861
g3
S'Klingande'
p862
sg5
I5
sg6
S'https://open.spotify.com/track/4BM4ml3TgBFALLaCaJtVhi'
p863
sg8
S'Pumped Up'
p864
ssS'7hDc8b7IXETo14hHIHdnhd'
p865
(dp866
g3
S'Drake'
p867
sg5
I21
sg6
S'https://open.spotify.com/track/7hDc8b7IXETo14hHIHdnhd'
p868
sg8
S'Passionfruit'
p869
ssS'6grsbjkrl7DN6waueAmNbm'
p870
(dp871
g3
S'James TW'
p872
sg5
I1
sg6
S'https://open.spotify.com/track/6grsbjkrl7DN6waueAmNbm'
p873
sg8
S'Ex'
p874
ssS'00RTuCqRSWa8hAhirgg8Lp'
p875
(dp876
g3
S'TIX'
p877
sg5
I11
sg6
S'https://open.spotify.com/track/00RTuCqRSWa8hAhirgg8Lp'
p878
sg8
S'Skammekroken 2017'
p879
ssS'3RiPr603aXAoi4GHyXx0uy'
p880
(dp881
g3
S'Coldplay'
p882
sg5
I5
sg6
S'https://open.spotify.com/track/3RiPr603aXAoi4GHyXx0uy'
p883
sg8
S'Hymn For The Weekend'
p884
ssS'3vcHPShfJAFP3TtAAsTHsV'
p885
(dp886
g3
S'Sunstroke Project'
p887
sg5
I5
sg6
S'https://open.spotify.com/track/3vcHPShfJAFP3TtAAsTHsV'
p888
sg8
S'Hey Mamma - Radio Edit'
p889
ssS'0tICYNayWWhH9GPeFrfjfD'
p890
(dp891
g3
S'Kungs'
p892
sg5
I6
sg6
S'https://open.spotify.com/track/0tICYNayWWhH9GPeFrfjfD'
p893
sg8
S"This Girl (Kungs Vs. Cookin' On 3 Burners) - Kungs Vs. Cookin' On 3 Burners"
p894
ssS'3Lfiu5sZ4M4B6JaKMBc0FU'
p895
(dp896
g3
S'Ed Sheeran'
p897
sg5
I5
sg6
S'https://open.spotify.com/track/3Lfiu5sZ4M4B6JaKMBc0FU'
p898
sg8
S'Barcelona'
p899
ssS'2LTlO3NuNVN70lp2ZbVswF'
p900
(dp901
g3
S'Kendrick Lamar'
p902
sg5
I2
sg6
S'https://open.spotify.com/track/2LTlO3NuNVN70lp2ZbVswF'
p903
sg8
S'FEEL.'
p904
ssS'4P6tyL5Uom1pIcFtTwO898'
p905
(dp906
g3
S'Matoma'
p907
sg5
I26
sg6
S'https://open.spotify.com/track/4P6tyL5Uom1pIcFtTwO898'
p908
sg8
S'Girl At Coachella (with Matoma & MAGIC! feat. DRAM)'
p909
ssS'6Quljc8cZdeAmFQmpvfLJn'
p910
(dp911
g3
S'Astrid S'
p912
sg5
I17
sg6
S'https://open.spotify.com/track/6Quljc8cZdeAmFQmpvfLJn'
p913
sg8
S'Vi er perfekt men verden er ikke det'
p914
ssS'0XLOf9LhyazPX9Ld8jPiUq'
p915
(dp916
g3
S'Selena Gomez'
p917
sg5
I12
sg6
S'https://open.spotify.com/track/0XLOf9LhyazPX9Ld8jPiUq'
p918
sg8
S'Fetish (feat. Gucci Mane)'
p919
ssS'05Z7jet4VDNVgNQWcYHnrk'
p920
(dp921
g3
S'Chris Brown'
p922
sg5
I1
sg6
S'https://open.spotify.com/track/05Z7jet4VDNVgNQWcYHnrk'
p923
sg8
S'Party'
p924
ssS'1lItf5ZXJc1by9SbPeljFd'
p925
(dp926
g3
S'Zay Hilfigerrr'
p927
sg5
I5
sg6
S'https://open.spotify.com/track/1lItf5ZXJc1by9SbPeljFd'
p928
sg8
S'Juju On That Beat (TZ Anthem)'
p929
ssS'1yxgsra98r3qAtxqiGZPiX'
p930
(dp931
g3
S'Travis Scott'
p932
sg5
I14
sg6
S'https://open.spotify.com/track/1yxgsra98r3qAtxqiGZPiX'
p933
sg8
S'Butterfly Effect'
p934
ssS'2CvOqDpQIMw69cCzWqr5yr'
p935
(dp936
g3
S'Beyonc\xc3\xa9'
p937
sg5
I1
sg6
S'https://open.spotify.com/track/2CvOqDpQIMw69cCzWqr5yr'
p938
sg8
S'Halo'
p939
ssS'0Clb9aiXWa0dvVff5aN4VN'
p940
(dp941
g3
S'Astrid S'
p942
sg5
I7
sg6
S'https://open.spotify.com/track/0Clb9aiXWa0dvVff5aN4VN'
p943
sg8
S'Think Before I Talk'
p944
ssS'3A7qX2QjDlPnazUsRk5y0M'
p945
(dp946
g3
S'David Guetta'
p947
sg5
I17
sg6
S'https://open.spotify.com/track/3A7qX2QjDlPnazUsRk5y0M'
p948
sg8
S'2U (feat. Justin Bieber)'
p949
ssS'0OwX5aROoW1Iip8FV51Efg'
p950
(dp951
g3
S'Anne-Marie'
p952
sg5
I6
sg6
S'https://open.spotify.com/track/0OwX5aROoW1Iip8FV51Efg'
p953
sg8
S'Alarm'
p954
ssS'6A8dnC0xkiuWN4BshmTB2I'
p955
(dp956
g3
S'A R I Z O N A'
p957
sg5
I20
sg6
S'https://open.spotify.com/track/6A8dnC0xkiuWN4BshmTB2I'
p958
sg8
S'Oceans Away'
p959
ssS'2OALaHcDdKkjYEpAr0Qzab'
p960
(dp961
g3
S'Avicii'
p962
sg5
I9
sg6
S'https://open.spotify.com/track/2OALaHcDdKkjYEpAr0Qzab'
p963
sg8
S'Lonely Together (feat. Rita Ora)'
p964
ssS'56lBX2WHqfGuoeZxZvUnVj'
p965
(dp966
g3
S'Imagine Dragons'
p967
sg5
I3
sg6
S'https://open.spotify.com/track/56lBX2WHqfGuoeZxZvUnVj'
p968
sg8
S'Thunder'
p969
ssS'0XfOi87h82i09rQjWYG0Bm'
p970
(dp971
g3
S'Jax Jones'
p972
sg5
I10
sg6
S'https://open.spotify.com/track/0XfOi87h82i09rQjWYG0Bm'
p973
sg8
S'Instruction (feat. Demi Lovato & Stefflon Don)'
p974
ssS'2BrzlUj1u1CtvaJDGIKpsP'
p975
(dp976
g3
S'Noah Cyrus'
p977
sg5
I21
sg6
S'https://open.spotify.com/track/2BrzlUj1u1CtvaJDGIKpsP'
p978
sg8
S'Make Me (Cry)'
p979
ssS'4IWAyPf1KMq7JCyGeCjTeH'
p980
(dp981
g3
S'Imagine Dragons'
p982
sg5
I8
sg6
S'https://open.spotify.com/track/4IWAyPf1KMq7JCyGeCjTeH'
p983
sg8
S'Whatever It Takes'
p984
ssS'3t0J8vI9StQD8KIBkT2Cp5'
p985
(dp986
g3
S'Alan Walker'
p987
sg5
I8
sg6
S'https://open.spotify.com/track/3t0J8vI9StQD8KIBkT2Cp5'
p988
sg8
S'Tired - Kygo Remix'
p989
ssS'4BdIxxdtdpxaPk3vXYL47G'
p990
(dp991
g3
S'Alex Ross'
p992
sg5
I1
sg6
S'https://open.spotify.com/track/4BdIxxdtdpxaPk3vXYL47G'
p993
sg8
S'Dreams'
p994
ssS'7nsHQpH5av8kIlhDAc4gmS'
p995
(dp996
g3
S'Marvin Gaye'
p997
sg5
I1
sg6
S'https://open.spotify.com/track/7nsHQpH5av8kIlhDAc4gmS'
p998
sg8
S'I Want To Come Home For Christmas'
p999
ssS'1rp1lRbL41qnlw354j8iTp'
p1000
(dp1001
g3
S'James TW'
p1002
sg5
I1
sg6
S'https://open.spotify.com/track/1rp1lRbL41qnlw354j8iTp'
p1003
sg8
S'Please Keep Loving Me'
p1004
ssS'0ZExP2I5Ej92PsnG4G1jVG'
p1005
(dp1006
g3
S'Julia Michaels'
p1007
sg5
I1
sg6
S'https://open.spotify.com/track/0ZExP2I5Ej92PsnG4G1jVG'
p1008
sg8
S'Uh Huh'
p1009
ssS'6XAGQBdN6pdjGrhTGryIUE'
p1010
(dp1011
g3
S'Joakim Lundell'
p1012
sg5
I1
sg6
S'https://open.spotify.com/track/6XAGQBdN6pdjGrhTGryIUE'
p1013
sg8
S'My Addiction'
p1014
ssS'0e2WTl90DATKYgsjNN0K6R'
p1015
(dp1016
g3
S'Marcus & Martinus'
p1017
sg5
I7
sg6
S'https://open.spotify.com/track/0e2WTl90DATKYgsjNN0K6R'
p1018
sg8
S'First Kiss'
p1019
ssS'2S2od3hT7ceytw7d1pTRuE'
p1020
(dp1021
g3
S'Noah Cyrus'
p1022
sg5
I1
sg6
S'https://open.spotify.com/track/2S2od3hT7ceytw7d1pTRuE'
p1023
sg8
S'Again'
p1024
ssS'5paNYIC0vrVj1EWGVzfJzb'
p1025
(dp1026
g3
S'Freddy Kalas'
p1027
sg5
I42
sg6
S'https://open.spotify.com/track/5paNYIC0vrVj1EWGVzfJzb'
p1028
sg8
S'Jovial'
p1029
ssS'1MOywyyROQsbpOKn0eSrAG'
p1030
(dp1031
g3
S'Lars Vaular'
p1032
sg5
I1
sg6
S'https://open.spotify.com/track/1MOywyyROQsbpOKn0eSrAG'
p1033
sg8
S'Boys'
p1034
ssS'0WCEaydwN65cvwaW8aqptF'
p1035
(dp1036
g3
S'Olivia Holt'
p1037
sg5
I19
sg6
S'https://open.spotify.com/track/0WCEaydwN65cvwaW8aqptF'
p1038
sg8
S'History'
p1039
ssS'2b7KYRhGuKXotzg9lFBxvS'
p1040
(dp1041
g3
S'TRXD'
p1042
sg5
I1
sg6
S'https://open.spotify.com/track/2b7KYRhGuKXotzg9lFBxvS'
p1043
sg8
S'Crazy'
p1044
ssS'6jmngk8Fwup05JZ6kgXEGX'
p1045
(dp1046
g3
S'Imagine Dragons'
p1047
sg5
I4
sg6
S'https://open.spotify.com/track/6jmngk8Fwup05JZ6kgXEGX'
p1048
sg8
S'Walking The Wire'
p1049
ssS'5knZBJiKXYS7eKj7YrtAV7'
p1050
(dp1051
g3
S'Kongsted'
p1052
sg5
I1
sg6
S'https://open.spotify.com/track/5knZBJiKXYS7eKj7YrtAV7'
p1053
sg8
S'Say My Name'
p1054
ssS'7zTdVYKhvsJ0whBTX2FI7u'
p1055
(dp1056
g3
S'Aksel & Hef'
p1057
sg5
I5
sg6
S'https://open.spotify.com/track/7zTdVYKhvsJ0whBTX2FI7u'
p1058
sg8
S'Skjulested'
p1059
ssS'5G8C27zpJ2EuWjtpG2R3Mq'
p1060
(dp1061
g3
S'Huemist'
p1062
sg5
I1
sg6
S'https://open.spotify.com/track/5G8C27zpJ2EuWjtpG2R3Mq'
p1063
sg8
S'Linje 1 (feat. Pelihagen)'
p1064
ssS'2bjwRfXMk4uRgOD9IBYl9h'
p1065
(dp1066
g3
S'Drake'
p1067
sg5
I7
sg6
S'https://open.spotify.com/track/2bjwRfXMk4uRgOD9IBYl9h'
p1068
sg8
S'Portland'
p1069
ssS'0FuTx2s3YH1ppmtiM6l0zI'
p1070
(dp1071
g3
S'JP Cooper'
p1072
sg5
I25
sg6
S'https://open.spotify.com/track/0FuTx2s3YH1ppmtiM6l0zI'
p1073
sg8
S'September Song'
p1074
ssS'0Zbbxnx4SGGHoIow4PpISP'
p1075
(dp1076
g3
S'Kygo'
p1077
sg5
I3
sg6
S'https://open.spotify.com/track/0Zbbxnx4SGGHoIow4PpISP'
p1078
sg8
S'Stargazing'
p1079
ssS'1OmcAT5Y8eg5bUPv9qJT4R'
p1080
(dp1081
g3
S'Post Malone'
p1082
sg5
I3
sg6
S'https://open.spotify.com/track/1OmcAT5Y8eg5bUPv9qJT4R'
p1083
sg8
S'rockstar'
p1084
ssS'5GFDrUTLGJix84sNhjCG0g'
p1085
(dp1086
g3
S'Amin\xc3\xa9'
p1087
sg5
I3
sg6
S'https://open.spotify.com/track/5GFDrUTLGJix84sNhjCG0g'
p1088
sg8
S'Caroline'
p1089
ssS'1HTtUBEY3tuw2btgwwI2Ja'
p1090
(dp1091
g3
S'Gucci Mane'
p1092
sg5
I7
sg6
S'https://open.spotify.com/track/1HTtUBEY3tuw2btgwwI2Ja'
p1093
sg8
S'I Get The Bag (feat. Migos)'
p1094
ssS'0azC730Exh71aQlOt9Zj3y'
p1095
(dp1096
g3
S'Calvin Harris'
p1097
sg5
I6
sg6
S'https://open.spotify.com/track/0azC730Exh71aQlOt9Zj3y'
p1098
sg8
S'This Is What You Came For'
p1099
ssS'7JvVIWYJDHazewmGeMgevw'
p1100
(dp1101
g3
S'Cezinando'
p1102
sg5
I1
sg6
S'https://open.spotify.com/track/7JvVIWYJDHazewmGeMgevw'
p1103
sg8
S'Uansett'
p1104
ssS'57Y51hxqMn2j3dosW75R6n'
p1105
(dp1106
g3
S'Robin Bengtsson'
p1107
sg5
I1
sg6
S'https://open.spotify.com/track/57Y51hxqMn2j3dosW75R6n'
p1108
sg8
S'I Can\xc2\xb4t Go On'
p1109
ssS'2jyjhRf6DVbMPU5zxagN2h'
p1110
(dp1111
g3
S'Passenger'
p1112
sg5
I16
sg6
S'https://open.spotify.com/track/2jyjhRf6DVbMPU5zxagN2h'
p1113
sg8
S'Let Her Go'
p1114
ssS'7i2DJ88J7jQ8K7zqFX2fW8'
p1115
(dp1116
g3
S'Halsey'
p1117
sg5
I3
sg6
S'https://open.spotify.com/track/7i2DJ88J7jQ8K7zqFX2fW8'
p1118
sg8
S'Now Or Never'
p1119
ssS'1uDeJLpOsZksn4dJlNDc9M'
p1120
(dp1121
g3
S'Maria Celin Strisland'
p1122
sg5
I1
sg6
S'https://open.spotify.com/track/1uDeJLpOsZksn4dJlNDc9M'
p1123
sg8
S"Runnin' (Lose It All)"
p1124
ssS'0mLMcDauVlfq1xUQZnYaQg'
p1125
(dp1126
g3
S'Marcus & Martinus'
p1127
sg5
I1
sg6
S'https://open.spotify.com/track/0mLMcDauVlfq1xUQZnYaQg'
p1128
sg8
S'Together'
p1129
ssS'4mq14Qa6OehdiyZFtHcdCH'
p1130
(dp1131
g3
S'Lana Del Rey'
p1132
sg5
I1
sg6
S'https://open.spotify.com/track/4mq14Qa6OehdiyZFtHcdCH'
p1133
sg8
S'13 Beaches'
p1134
ssS'19RXnP5bUogTLrUnTuufTQ'
p1135
(dp1136
g3
S'Chris Holsten'
p1137
sg5
I19
sg6
S'https://open.spotify.com/track/19RXnP5bUogTLrUnTuufTQ'
p1138
sg8
S'MEXICO'
p1139
ssS'68EMU2RD1ECNeOeJ5qAXCV'
p1140
(dp1141
g3
S'Charlie Puth'
p1142
sg5
I13
sg6
S'https://open.spotify.com/track/68EMU2RD1ECNeOeJ5qAXCV'
p1143
sg8
S"We Don't Talk Anymore (feat. Selena Gomez)"
p1144
ssS'1gaK2od5J8GX6KecOaWm4d'
p1145
(dp1146
g3
S'Kungs'
p1147
sg5
I1
sg6
S'https://open.spotify.com/track/1gaK2od5J8GX6KecOaWm4d'
p1148
sg8
S'More Mess'
p1149
ssS'6VYZKcvgGtFECb1INNSYCU'
p1150
(dp1151
g3
S'Swedum'
p1152
sg5
I2
sg6
S'https://open.spotify.com/track/6VYZKcvgGtFECb1INNSYCU'
p1153
sg8
S'Summer State of Mind'
p1154
ssS'3b5Li4QKDVBx1x7fQuu54a'
p1155
(dp1156
g3
S'Alan Walker'
p1157
sg5
I21
sg6
S'https://open.spotify.com/track/3b5Li4QKDVBx1x7fQuu54a'
p1158
sg8
S'Tired'
p1159
ssS'3E0fq2gqsNbQo5paAuEcmc'
p1160
(dp1161
g3
S'Maria Mena'
p1162
sg5
I2
sg6
S'https://open.spotify.com/track/3E0fq2gqsNbQo5paAuEcmc'
p1163
sg8
S'Home for Christmas'
p1164
ssS'54DfWSu3aH8Z8nyckQdGNq'
p1165
(dp1166
g3
S'Karpe Diem'
p1167
sg5
I31
sg6
S'https://open.spotify.com/track/54DfWSu3aH8Z8nyckQdGNq'
p1168
sg8
S'Lett \xc3\xa5 v\xc3\xa6re rebell i kjellerleiligheten din'
p1169
ssS'5XiZK7m9PLppgIzJBpw2x5'
p1170
(dp1171
g3
S'Martin Jensen'
p1172
sg5
I4
sg6
S'https://open.spotify.com/track/5XiZK7m9PLppgIzJBpw2x5'
p1173
sg8
S'Wait'
p1174
ssS'04CPpi0k997rSbdlzcxdM8'
p1175
(dp1176
g3
S'Madcon'
p1177
sg5
I8
sg6
S'https://open.spotify.com/track/04CPpi0k997rSbdlzcxdM8'
p1178
sg8
S'Got A Little Drunk'
p1179
ssS'1cImYkHOQMFE7AZC9aOk4y'
p1180
(dp1181
g3
S'Bobby Helms'
p1182
sg5
I1
sg6
S'https://open.spotify.com/track/1cImYkHOQMFE7AZC9aOk4y'
p1183
sg8
S'Jingle Bell Rock'
p1184
ssS'51w95jAPQDOWN3M7xopWWh'
p1185
(dp1186
g3
S'Logan Paul'
p1187
sg5
I2
sg6
S'https://open.spotify.com/track/51w95jAPQDOWN3M7xopWWh'
p1188
sg8
S"Help Me Help You (feat. Why Don't We)"
p1189
ssS'4VuS959DSpr82t3qBqCrWG'
p1190
(dp1191
g3
S'Ed Sheeran'
p1192
sg5
I7
sg6
S'https://open.spotify.com/track/4VuS959DSpr82t3qBqCrWG'
p1193
sg8
S'Supermarket Flowers'
p1194
ssS'7bJwvubZZaoGE1AGEfu8Fi'
p1195
(dp1196
g3
S'Ariana Grande'
p1197
sg5
I1
sg6
S'https://open.spotify.com/track/7bJwvubZZaoGE1AGEfu8Fi'
p1198
sg8
S'One Last Time'
p1199
ssS'2DGa7iaidT5s0qnINlwMjJ'
p1200
(dp1201
g3
S'Alan Walker'
p1202
sg5
I4
sg6
S'https://open.spotify.com/track/2DGa7iaidT5s0qnINlwMjJ'
p1203
sg8
S'The Spectre'
p1204
ssS'0Zx8khUcEfCFK2AEoIhC92'
p1205
(dp1206
g3
S'Snakehips'
p1207
sg5
I24
sg6
S'https://open.spotify.com/track/0Zx8khUcEfCFK2AEoIhC92'
p1208
sg8
S"Don't Leave"
p1209
ssS'34kSAsvs36tXZ8DaiBphUG'
p1210
(dp1211
g3
S'Carly Rae Jepsen'
p1212
sg5
I1
sg6
S'https://open.spotify.com/track/34kSAsvs36tXZ8DaiBphUG'
p1213
sg8
S'Last Christmas'
p1214
ssS'1crSsvtU9wZB15dIQXV2QH'
p1215
(dp1216
g3
S'John Mayer'
p1217
sg5
I1
sg6
S'https://open.spotify.com/track/1crSsvtU9wZB15dIQXV2QH'
p1218
sg8
S'Moving On and Getting Over'
p1219
ssS'0oiCeOPwm4zhwfyIpAE37y'
p1220
(dp1221
g3
S'John Mayer'
p1222
sg5
I1
sg6
S'https://open.spotify.com/track/0oiCeOPwm4zhwfyIpAE37y'
p1223
sg8
S'Love on the Weekend'
p1224
ssS'57apmXhSxkAlUoq2pZNaSN'
p1225
(dp1226
g3
S'Sultan + Shepard '
p1227
sg5
I1
sg6
S'https://open.spotify.com/track/57apmXhSxkAlUoq2pZNaSN'
p1228
sg8
S'Almost Home'
p1229
ssS'7wWQWsiNji1Vpk6co4eXK8'
p1230
(dp1231
g3
S'Morgan Sulele'
p1232
sg5
I3
sg6
S'https://open.spotify.com/track/7wWQWsiNji1Vpk6co4eXK8'
p1233
sg8
S'Barn for alltid'
p1234
ssS'0gb1J5UrTpzaU1s3nupgCd'
p1235
(dp1236
g3
S'Galantis'
p1237
sg5
I5
sg6
S'https://open.spotify.com/track/0gb1J5UrTpzaU1s3nupgCd'
p1238
sg8
S'No Money'
p1239
ssS'4OE7BCHElUtM2ATRF7u1PS'
p1240
(dp1241
g3
S'Staysman & Lazz'
p1242
sg5
I7
sg6
S'https://open.spotify.com/track/4OE7BCHElUtM2ATRF7u1PS'
p1243
sg8
S'T\xc3\xa5rnet til Carlsen'
p1244
ssS'1uM0JXUr1QxoPEueeQnfKv'
p1245
(dp1246
g3
S'Chris Holsten'
p1247
sg5
I6
sg6
S'https://open.spotify.com/track/1uM0JXUr1QxoPEueeQnfKv'
p1248
sg8
S'Here We Go Again'
p1249
ssS'61WbtB6ujkpNAsAf5LjF4b'
p1250
(dp1251
g3
S'Katy Perry'
p1252
sg5
I6
sg6
S'https://open.spotify.com/track/61WbtB6ujkpNAsAf5LjF4b'
p1253
sg8
S'Bon app\xc3\xa9tit'
p1254
ssS'2of2DM5LqTh7ohmmVXUKsH'
p1255
(dp1256
g3
S'Matoma'
p1257
sg5
I12
sg6
S'https://open.spotify.com/track/2of2DM5LqTh7ohmmVXUKsH'
p1258
sg8
S"Heart Won't Forget"
p1259
ssS'0YHUITU3w6ws1v8ehT264g'
p1260
(dp1261
g3
S'Little Mix'
p1262
sg5
I11
sg6
S'https://open.spotify.com/track/0YHUITU3w6ws1v8ehT264g'
p1263
sg8
S'Shout Out to My Ex'
p1264
ssS'5yuShbu70mtHXY0yLzCQLQ'
p1265
(dp1266
g3
S'Post Malone'
p1267
sg5
I20
sg6
S'https://open.spotify.com/track/5yuShbu70mtHXY0yLzCQLQ'
p1268
sg8
S'Go Flex'
p1269
ssS'3WrG9BpOPQWUus3FjA1Tny'
p1270
(dp1271
g3
S"Destiny's Child"
p1272
sg5
I1
sg6
S'https://open.spotify.com/track/3WrG9BpOPQWUus3FjA1Tny'
p1273
sg8
S'8 Days of Christmas - Live'
p1274
ssS'3bVbQvGVIe4n24AzyXovXh'
p1275
(dp1276
g3
S''
p1277
sg5
I1
sg6
S'https://open.spotify.com/track/3bVbQvGVIe4n24AzyXovXh'
p1278
sg8
g1277
ssS'066JQ4SAbj2CHQ1gKU6pJv'
p1279
(dp1280
g3
S'Cezinando'
p1281
sg5
I1
sg6
S'https://open.spotify.com/track/066JQ4SAbj2CHQ1gKU6pJv'
p1282
sg8
S'Er dette alt (feat. Chirag)'
p1283
ssS'7aF09WaavZAmAWuUeYxlYD'
p1284
(dp1285
g3
S'OneRepublic'
p1286
sg5
I13
sg6
S'https://open.spotify.com/track/7aF09WaavZAmAWuUeYxlYD'
p1287
sg8
S'Rich Love (with Seeb)'
p1288
ssS'2XlHu0HcujBCkWMdIAvrqt'
p1289
(dp1290
g3
S'Drake'
p1291
sg5
I4
sg6
S'https://open.spotify.com/track/2XlHu0HcujBCkWMdIAvrqt'
p1292
sg8
S'Blem'
p1293
ssS'71vrTNf44grYSzXY1r3TK7'
p1294
(dp1295
g3
S'Highasakite'
p1296
sg5
I5
sg6
S'https://open.spotify.com/track/71vrTNf44grYSzXY1r3TK7'
p1297
sg8
S'5 Million Miles'
p1298
ssS'525ptV96GV3dlGUOzoFAkV'
p1299
(dp1300
g3
S'Ylva'
p1301
sg5
I1
sg6
S'https://open.spotify.com/track/525ptV96GV3dlGUOzoFAkV'
p1302
sg8
S'Urettferdig'
p1303
ssS'5f5r2N4Lp9WoULWPH9zp2W'
p1304
(dp1305
g3
S'Drake'
p1306
sg5
I1
sg6
S'https://open.spotify.com/track/5f5r2N4Lp9WoULWPH9zp2W'
p1307
sg8
S"Can't Have Everything"
p1308
ssS'2QWP8NYYplOqEFBYGCcq0S'
p1309
(dp1310
g3
S'The Script'
p1311
sg5
I1
sg6
S'https://open.spotify.com/track/2QWP8NYYplOqEFBYGCcq0S'
p1312
sg8
S'Rain'
p1313
ssS'1KVQsZPeztZ7GnpVfqAnFX'
p1314
(dp1315
g3
S'Rytmeklubben'
p1316
sg5
I1
sg6
S'https://open.spotify.com/track/1KVQsZPeztZ7GnpVfqAnFX'
p1317
sg8
S'Like That'
p1318
ssS'0WFyQgDzbQCfJuxcHW4Zrt'
p1319
(dp1320
g3
S'Kurt Nilsen'
p1321
sg5
I2
sg6
S'https://open.spotify.com/track/0WFyQgDzbQCfJuxcHW4Zrt'
p1322
sg8
S'Himmel P\xc3\xa5 Jord'
p1323
ssS'5GerJwon1HTwRdTPHJ1RY6'
p1324
(dp1325
g3
S'Stargate'
p1326
sg5
I1
sg6
S'https://open.spotify.com/track/5GerJwon1HTwRdTPHJ1RY6'
p1327
sg8
S'Waterfall - Seeb Remix'
p1328
ssS'2an4Ix89mAOW4BoCBS5KeK'
p1329
(dp1330
g3
S'Julie Bergan'
p1331
sg5
I10
sg6
S'https://open.spotify.com/track/2an4Ix89mAOW4BoCBS5KeK'
p1332
sg8
S'If You Love Me (feat. Tunji Ige)'
p1333
ssS'6I2YxUXKKMKaTy83Lm8peq'
p1334
(dp1335
g3
S'BEK & Wallin'
p1336
sg5
I16
sg6
S'https://open.spotify.com/track/6I2YxUXKKMKaTy83Lm8peq'
p1337
sg8
S'Fakkboi (Mytikas 2017)'
p1338
ssS'5hYTyyh2odQKphUbMqc5gN'
p1339
(dp1340
g3
S'Alessia Cara'
p1341
sg5
I41
sg6
S'https://open.spotify.com/track/5hYTyyh2odQKphUbMqc5gN'
p1342
sg8
S"How Far I'll Go - From Moana"
p1343
ssS'1sBhJGPUKrdRycgKxve70v'
p1344
(dp1345
g3
S'Felix Jaehn'
p1346
sg5
I13
sg6
S'https://open.spotify.com/track/1sBhJGPUKrdRycgKxve70v'
p1347
sg8
S'Hot2Touch'
p1348
ssS'72jbDTw1piOOj770jWNeaG'
p1349
(dp1350
g3
S'The Chainsmokers'
p1351
sg5
I31
sg6
S'https://open.spotify.com/track/72jbDTw1piOOj770jWNeaG'
p1352
sg8
S'Paris'
p1353
ssS'65ES1qwOB577ZnTkizMXJJ'
p1354
(dp1355
g3
S'Skrillex'
p1356
sg5
I1
sg6
S'https://open.spotify.com/track/65ES1qwOB577ZnTkizMXJJ'
p1357
sg8
S'HUMBLE. - SKRILLEX REMIX'
p1358
ssS'3shQZfB7n4AnF6wEv1t4Kw'
p1359
(dp1360
g3
S'Julie Bergan'
p1361
sg5
I1
sg6
S'https://open.spotify.com/track/3shQZfB7n4AnF6wEv1t4Kw'
p1362
sg8
S'Blackout - acoustic'
p1363
ssS'4FSQWxUTwzihjpghT0WQMj'
p1364
(dp1365
g3
S'D\xc3\xa5rlig Vane'
p1366
sg5
I31
sg6
S'https://open.spotify.com/track/4FSQWxUTwzihjpghT0WQMj'
p1367
sg8
S'Gikk I Bakken'
p1368
ssS'2SdWK7UqcyjOmzPKxTJ0gA'
p1369
(dp1370
g3
S'Broiler'
p1371
sg5
I20
sg6
S'https://open.spotify.com/track/2SdWK7UqcyjOmzPKxTJ0gA'
p1372
sg8
S'Amazing'
p1373
ssS'6FemVsNUb2lzWsDRm14FUJ'
p1374
(dp1375
g3
S'The Script'
p1376
sg5
I2
sg6
S'https://open.spotify.com/track/6FemVsNUb2lzWsDRm14FUJ'
p1377
sg8
S'Rain'
p1378
ssS'07hRgRIohqJPDXeO4bmtH5'
p1379
(dp1380
g3
S'Nils Bech'
p1381
sg5
I1
sg6
S'https://open.spotify.com/track/07hRgRIohqJPDXeO4bmtH5'
p1382
sg8
S'O Helga Natt'
p1383
ssS'2vzBZ87UkwvkIycWEWFrYp'
p1384
(dp1385
g3
S'Tungevaag & Raaban'
p1386
sg5
I26
sg6
S'https://open.spotify.com/track/2vzBZ87UkwvkIycWEWFrYp'
p1387
sg8
S'Wake Up Alone'
p1388
ssS'28irpKCCK9nn9DZSik2zEx'
p1389
(dp1390
g3
S'Drake'
p1391
sg5
I1
sg6
S'https://open.spotify.com/track/28irpKCCK9nn9DZSik2zEx'
p1392
sg8
S'Glow'
p1393
ssS'26u5QR7Nfn7mfeLhBmEDbL'
p1394
(dp1395
g3
S'Turab'
p1396
sg5
I1
sg6
S'https://open.spotify.com/track/26u5QR7Nfn7mfeLhBmEDbL'
p1397
sg8
S'Ride Home'
p1398
ssS'6YnzBV7YkaXZNCK3tlnCfg'
p1399
(dp1400
g3
S'Boney M.'
p1401
sg5
I1
sg6
S'https://open.spotify.com/track/6YnzBV7YkaXZNCK3tlnCfg'
p1402
sg8
S"Mary's Boy Child / Oh My Lord"
p1403
ssS'1akKe1QnDbPxsAwKm4T5RX'
p1404
(dp1405
g3
S'Corinne Bailey Rae'
p1406
sg5
I2
sg6
S'https://open.spotify.com/track/1akKe1QnDbPxsAwKm4T5RX'
p1407
sg8
S'The Scientist - From Fifty Shades Darker (Original Motion Picture Soundtrack)'
p1408
ssS'2KvHC9z14GSl4YpkNMX384'
p1409
(dp1410
g3
S'Drake'
p1411
sg5
I1
sg6
S'https://open.spotify.com/track/2KvHC9z14GSl4YpkNMX384'
p1412
sg8
S'Do Not Disturb'
p1413
ssS'1mkSFUQ7Brt48E6j5qvPhp'
p1414
(dp1415
g3
S'Broiler'
p1416
sg5
I1
sg6
S'https://open.spotify.com/track/1mkSFUQ7Brt48E6j5qvPhp'
p1417
sg8
S'Undercover'
p1418
ssS'2gbCG4Rt9984UZ7Tc0dIFd'
p1419
(dp1420
g3
S'Michael Bubl\xc3\xa9'
p1421
sg5
I1
sg6
S'https://open.spotify.com/track/2gbCG4Rt9984UZ7Tc0dIFd'
p1422
sg8
S'White Christmas (Duet With Shania Twain)'
p1423
ssS'2yURN841vRZe1EGBvhRCC9'
p1424
(dp1425
g3
S'CLMD'
p1426
sg5
I1
sg6
S'https://open.spotify.com/track/2yURN841vRZe1EGBvhRCC9'
p1427
sg8
S'Never Wanna Lose You - feat. Justine Skye & Jesper Jenset'
p1428
ssS'4oWmroatZtMmlgc3havMrv'
p1429
(dp1430
g3
S'Sam Smith'
p1431
sg5
I1
sg6
S'https://open.spotify.com/track/4oWmroatZtMmlgc3havMrv'
p1432
sg8
S"Writing's On The Wall"
p1433
ssS'59fQzvSv0wPQorW2Bh0pns'
p1434
(dp1435
g3
S'Volbeat'
p1436
sg5
I12
sg6
S'https://open.spotify.com/track/59fQzvSv0wPQorW2Bh0pns'
p1437
sg8
S'For Evigt'
p1438
ssS'0dA2Mk56wEzDgegdC6R17g'
p1439
(dp1440
g3
S'Zedd'
p1441
sg5
I32
sg6
S'https://open.spotify.com/track/0dA2Mk56wEzDgegdC6R17g'
p1442
sg8
S'Stay (with Alessia Cara)'
p1443
ssS'26AuyrZGzWWiYZPSd3XBIg'
p1444
(dp1445
g3
S'The Chainsmokers'
p1446
sg5
I1
sg6
S'https://open.spotify.com/track/26AuyrZGzWWiYZPSd3XBIg'
p1447
sg8
S'Bloodstream'
p1448
ssS'3kGfazcbVvVkuZunzlLgTD'
p1449
(dp1450
g3
S'Sigala'
p1451
sg5
I13
sg6
S'https://open.spotify.com/track/3kGfazcbVvVkuZunzlLgTD'
p1452
sg8
S'Came Here for Love'
p1453
ssS'2kLf4myxQME1Nd0voeKZri'
p1454
(dp1455
g3
S'Mike Perry'
p1456
sg5
I6
sg6
S'https://open.spotify.com/track/2kLf4myxQME1Nd0voeKZri'
p1457
sg8
S'Stay Young'
p1458
ssS'7gZQfdEQpmwAoPHSbEHzms'
p1459
(dp1460
g3
S'Matoma'
p1461
sg5
I36
sg6
S'https://open.spotify.com/track/7gZQfdEQpmwAoPHSbEHzms'
p1462
sg8
S'False Alarm'
p1463
ssS'3Ytr1SUCUi6J3L9dRFx5iH'
p1464
(dp1465
g3
S'Major Lazer'
p1466
sg5
I18
sg6
S'https://open.spotify.com/track/3Ytr1SUCUi6J3L9dRFx5iH'
p1467
sg8
S'Know No Better (feat. Quavo)'
p1468
ssS'4EmZuiUFFNDm2QkyRcbbNc'
p1469
(dp1470
g3
S'Kristian Kristensen'
p1471
sg5
I1
sg6
S'https://open.spotify.com/track/4EmZuiUFFNDm2QkyRcbbNc'
p1472
sg8
S'Alltid elske d\xc3\xa6'
p1473
ssS'09NperpaQcPrGQyheqzo4z'
p1474
(dp1475
g3
S'Marcus & Martinus'
p1476
sg5
I1
sg6
S'https://open.spotify.com/track/09NperpaQcPrGQyheqzo4z'
p1477
sg8
S'Alt jeg \xc3\xb8nsker meg'
p1478
ssS'6OkRO8YKgH8Daw2MFHTuFX'
p1479
(dp1480
g3
S'Sonny Alven'
p1481
sg5
I1
sg6
S'https://open.spotify.com/track/6OkRO8YKgH8Daw2MFHTuFX'
p1482
sg8
S'Wasted Youth'
p1483
ssS'0auOyjD9Ht7Pcsf529NqQV'
p1484
(dp1485
g3
S'Lars Vaular'
p1486
sg5
I1
sg6
S'https://open.spotify.com/track/0auOyjD9Ht7Pcsf529NqQV'
p1487
sg8
S'Panorama'
p1488
ssS'0f0ZZmJr7UFq8D2OkTpDx0'
p1489
(dp1490
g3
S'SAARA'
p1491
sg5
I1
sg6
S'https://open.spotify.com/track/0f0ZZmJr7UFq8D2OkTpDx0'
p1492
sg8
S'Superpowers'
p1493
ssS'13HVjjWUZFaWilh2QUJKsP'
p1494
(dp1495
g3
S'James Bay'
p1496
sg5
I27
sg6
S'https://open.spotify.com/track/13HVjjWUZFaWilh2QUJKsP'
p1497
sg8
S'Let It Go'
p1498
ssS'0y9uTzK9cNKSAEHnpeRG8C'
p1499
(dp1500
g3
S'Kendrick Lamar'
p1501
sg5
I1
sg6
S'https://open.spotify.com/track/0y9uTzK9cNKSAEHnpeRG8C'
p1502
sg8
S'DUCKWORTH.'
p1503
ssS'3eFJqPe8VUYrABbFjSauuj'
p1504
(dp1505
g3
g1277
sg5
I1
sg6
S'https://open.spotify.com/track/3eFJqPe8VUYrABbFjSauuj'
p1506
sg8
g1277
ssS'26K4tbF6waeJzo11e3JDo8'
p1507
(dp1508
g3
S'Ty Dolla $ign'
p1509
sg5
I1
sg6
S'https://open.spotify.com/track/26K4tbF6waeJzo11e3JDo8'
p1510
sg8
S'So Am I (feat. Damian Marley & Skrillex)'
p1511
ssS'159R90AHIadTA89s5RpX54'
p1512
(dp1513
g3
S'Highasakite'
p1514
sg5
I7
sg6
S'https://open.spotify.com/track/159R90AHIadTA89s5RpX54'
p1515
sg8
S'Samurai Swords - Acoustic Version'
p1516
ssS'6D0b04NJIKfEMg040WioJQ'
p1517
(dp1518
g3
S'Julia Michaels'
p1519
sg5
I2
sg6
S'https://open.spotify.com/track/6D0b04NJIKfEMg040WioJQ'
p1520
sg8
S'Issues'
p1521
ssS'7fwXWKdDNI5IutOMc5OKYw'
p1522
(dp1523
g3
S'J Balvin'
p1524
sg5
I2
sg6
S'https://open.spotify.com/track/7fwXWKdDNI5IutOMc5OKYw'
p1525
sg8
S'Mi Gente (feat. Beyonc\xc3\xa9)'
p1526
ssS'2ZblF7TnUfCVRPWWgBeEhe'
p1527
(dp1528
g3
S'Nico Santos'
p1529
sg5
I8
sg6
S'https://open.spotify.com/track/2ZblF7TnUfCVRPWWgBeEhe'
p1530
sg8
S'Goodbye To Love'
p1531
ssS'3njZlgsB9MI6DVTg8wDPsg'
p1532
(dp1533
g3
S'The Script'
p1534
sg5
I1
sg6
S'https://open.spotify.com/track/3njZlgsB9MI6DVTg8wDPsg'
p1535
sg8
S'Rock the World'
p1536
ssS'47aJVF5CjAcgCbJc62P1Fw'
p1537
(dp1538
g3
S'Astrid S'
p1539
sg5
I1
sg6
S'https://open.spotify.com/track/47aJVF5CjAcgCbJc62P1Fw'
p1540
sg8
S'Mexico - Acoustic / Bonus Track'
p1541
ssS'2dfHh7ECGxfNqZTQno09Vk'
p1542
(dp1543
g3
S'Ed Sheeran'
p1544
sg5
I4
sg6
S'https://open.spotify.com/track/2dfHh7ECGxfNqZTQno09Vk'
p1545
sg8
S"Hearts Don't Break Around Here"
p1546
ssS'4MLgQl6BGMEmnlrT1k7CVM'
p1547
(dp1548
g3
S'Stavangerkameratene'
p1549
sg5
I1
sg6
S'https://open.spotify.com/track/4MLgQl6BGMEmnlrT1k7CVM'
p1550
sg8
S'Forelska meg i deg igjen'
p1551
ssS'3XaADTPx4bTF5UT5mcgfsV'
p1552
(dp1553
g3
S'Unge Ferrari'
p1554
sg5
I14
sg6
S'https://open.spotify.com/track/3XaADTPx4bTF5UT5mcgfsV'
p1555
sg8
S'Ashanti'
p1556
ssS'3Y1HetTNRjOOSMJpL5BE8A'
p1557
(dp1558
g3
S'Karpe Diem'
p1559
sg5
I1
sg6
S'https://open.spotify.com/track/3Y1HetTNRjOOSMJpL5BE8A'
p1560
sg8
S'Attitudeproblem'
p1561
ssS'5xWD77r36qCkQykXcQEQgU'
p1562
(dp1563
g3
S'Marte Bratberg'
p1564
sg5
I1
sg6
S'https://open.spotify.com/track/5xWD77r36qCkQykXcQEQgU'
p1565
sg8
S'Hooke litt - NRJ edit'
p1566
ssS'5Bl7og89ykBVqVID3rLh54'
p1567
(dp1568
g3
S'Amanda Delara'
p1569
sg5
I4
sg6
S'https://open.spotify.com/track/5Bl7og89ykBVqVID3rLh54'
p1570
sg8
S'New Generation'
p1571
ssS'0EcdIrOeVwpTPTbMNaA3Vz'
p1572
(dp1573
g3
S'Cezinando'
p1574
sg5
I1
sg6
S'https://open.spotify.com/track/0EcdIrOeVwpTPTbMNaA3Vz'
p1575
sg8
S'Botanisk Hage'
p1576
ssS'05pTVLcNPvMGoFZgLXIf6v'
p1577
(dp1578
g3
S'Sophie Elise'
p1579
sg5
I6
sg6
S'https://open.spotify.com/track/05pTVLcNPvMGoFZgLXIf6v'
p1580
sg8
S'All Your Friends'
p1581
ssS'3Q3myFA7q4Op95DOpHplaY'
p1582
(dp1583
g3
S'blackbear'
p1584
sg5
I6
sg6
S'https://open.spotify.com/track/3Q3myFA7q4Op95DOpHplaY'
p1585
sg8
S'do re mi'
p1586
ssS'5tz69p7tJuGPeMGwNTxYuV'
p1587
(dp1588
g3
S'Logic'
p1589
sg5
I23
sg6
S'https://open.spotify.com/track/5tz69p7tJuGPeMGwNTxYuV'
p1590
sg8
S'1-800-273-8255'
p1591
ssS'5fc6rQgAKiLutfUYWQ6QnJ'
p1592
(dp1593
g3
S'Sia'
p1594
sg5
I13
sg6
S'https://open.spotify.com/track/5fc6rQgAKiLutfUYWQ6QnJ'
p1595
sg8
S'Helium - From Fifty Shades Darker (Original Motion Picture Soundtrack)'
p1596
ssS'4WdCxlUyj3TCTBaJx5s9tF'
p1597
(dp1598
g3
S'Sigrid'
p1599
sg5
I35
sg6
S'https://open.spotify.com/track/4WdCxlUyj3TCTBaJx5s9tF'
p1600
sg8
S"Don't Kill My Vibe"
p1601
ssS'3drd2h5pJmPTlGh41EEg0M'
p1602
(dp1603
g3
S'Kurt Nilsen'
p1604
sg5
I3
sg6
S'https://open.spotify.com/track/3drd2h5pJmPTlGh41EEg0M'
p1605
sg8
S'Amazing'
p1606
ssS'343YBumqHu19cGoGARUTsd'
p1607
(dp1608
g3
S'Drake'
p1609
sg5
I17
sg6
S'https://open.spotify.com/track/343YBumqHu19cGoGARUTsd'
p1610
sg8
S'Fake Love'
p1611
ssS'5HDPtsnyb3maFmPL8LLUTG'
p1612
(dp1613
g3
S'Ed Sheeran'
p1614
sg5
I7
sg6
S'https://open.spotify.com/track/5HDPtsnyb3maFmPL8LLUTG'
p1615
sg8
S'New Man'
p1616
ssS'7AEV4oGvHPn1DtAE7pLCXR'
p1617
(dp1618
g3
S'Blonde'
p1619
sg5
I9
sg6
S'https://open.spotify.com/track/7AEV4oGvHPn1DtAE7pLCXR'
p1620
sg8
S'Just For One Night (feat. Astrid S)'
p1621
ssS'2fGxYYMQbVqgIdaqfz2OwA'
p1622
(dp1623
g3
S'Miley Cyrus'
p1624
sg5
I1
sg6
S'https://open.spotify.com/track/2fGxYYMQbVqgIdaqfz2OwA'
p1625
sg8
S'Younger Now'
p1626
ssS'3nodtPfXcok53E8Uze8gvD'
p1627
(dp1628
g3
S'Snakehips'
p1629
sg5
I1
sg6
S'https://open.spotify.com/track/3nodtPfXcok53E8Uze8gvD'
p1630
sg8
S'Either Way'
p1631
ssS'514a6jNU8B1KS7QV387ZUU'
p1632
(dp1633
g3
S'Kurt Nilsen'
p1634
sg5
I1
sg6
S'https://open.spotify.com/track/514a6jNU8B1KS7QV387ZUU'
p1635
sg8
S'N\xc3\xa5 Tennes Tusen Julelys'
p1636
ssS'6WbADFqMvR8N5u0BvtsWQE'
p1637
(dp1638
g3
S'Avicii'
p1639
sg5
I9
sg6
S'https://open.spotify.com/track/6WbADFqMvR8N5u0BvtsWQE'
p1640
sg8
S'Without You (feat. Sandro Cavazza)'
p1641
ssS'5Un9OFyfZz6XAtuHJ7iE0A'
p1642
(dp1643
g3
S'JCY'
p1644
sg5
I25
sg6
S'https://open.spotify.com/track/5Un9OFyfZz6XAtuHJ7iE0A'
p1645
sg8
S'Wasting Your Time (feat. Alida)'
p1646
ssS'5uDASfU19gDxSjW8cnCaBp'
p1647
(dp1648
g3
S'Rob $tone'
p1649
sg5
I3
sg6
S'https://open.spotify.com/track/5uDASfU19gDxSjW8cnCaBp'
p1650
sg8
S'Chill Bill'
p1651
ssS'4pdPtRcBmOSQDlJ3Fk945m'
p1652
(dp1653
g3
S'DJ Snake'
p1654
sg5
I28
sg6
S'https://open.spotify.com/track/4pdPtRcBmOSQDlJ3Fk945m'
p1655
sg8
S'Let Me Love You'
p1656
ssS'1I8tHoNBFTuoJAlh4hfVVE'
p1657
(dp1658
g3
S'Kygo'
p1659
sg5
I7
sg6
S'https://open.spotify.com/track/1I8tHoNBFTuoJAlh4hfVVE'
p1660
sg8
S'Firestone'
p1661
ssS'5EnYT6F7wEcdege6mDHEfO'
p1662
(dp1663
g3
S'Drake'
p1664
sg5
I8
sg6
S'https://open.spotify.com/track/5EnYT6F7wEcdege6mDHEfO'
p1665
sg8
S'Signs'
p1666
ssS'1uoL9GX45dTnmrWQ7Ii1Ft'
p1667
(dp1668
g3
S'Halsey'
p1669
sg5
I4
sg6
S'https://open.spotify.com/track/1uoL9GX45dTnmrWQ7Ii1Ft'
p1670
sg8
S'Not Afraid Anymore'
p1671
ssS'0eekaX32hUmJgcinPCL1iZ'
p1672
(dp1673
g3
S'Freddy Kalas'
p1674
sg5
I4
sg6
S'https://open.spotify.com/track/0eekaX32hUmJgcinPCL1iZ'
p1675
sg8
S'Hey Ho'
p1676
ssS'1OAiWI2oPmglaOiv9fdioU'
p1677
(dp1678
g3
S'Coldplay'
p1679
sg5
I17
sg6
S'https://open.spotify.com/track/1OAiWI2oPmglaOiv9fdioU'
p1680
sg8
S'Hymn For The Weekend - Seeb Remix'
p1681
ssS'6Ll3qUTssdGWMxbwhMud2N'
p1682
(dp1683
g3
S'Nick Jonas'
p1684
sg5
I1
sg6
S'https://open.spotify.com/track/6Ll3qUTssdGWMxbwhMud2N'
p1685
sg8
S'Find You'
p1686
ssS'5XOuCULoFqbByxEERraICQ'
p1687
(dp1688
g3
S'Sandra Lyng'
p1689
sg5
I8
sg6
S'https://open.spotify.com/track/5XOuCULoFqbByxEERraICQ'
p1690
sg8
S'Bungalow'
p1691
ssS'7LEydI5NfjY6mZfKwYIptZ'
p1692
(dp1693
g3
S'Fifth Harmony'
p1694
sg5
I7
sg6
S'https://open.spotify.com/track/7LEydI5NfjY6mZfKwYIptZ'
p1695
sg8
S'Down'
p1696
ssS'7y9iMe8SOB6z3NoHE2OfXl'
p1697
(dp1698
g3
S'Halsey'
p1699
sg5
I1
sg6
S'https://open.spotify.com/track/7y9iMe8SOB6z3NoHE2OfXl'
p1700
sg8
S'Bad At Love'
p1701
ssS'4Ux0Y0eQYv4HJPvuxioosx'
p1702
(dp1703
g3
S'R3HAB'
p1704
sg5
I1
sg6
S'https://open.spotify.com/track/4Ux0Y0eQYv4HJPvuxioosx'
p1705
sg8
S"I Just Can't"
p1706
ssS'2a1o6ZejUi8U3wzzOtCOYw'
p1707
(dp1708
g3
S'Don Omar'
p1709
sg5
I1
sg6
S'https://open.spotify.com/track/2a1o6ZejUi8U3wzzOtCOYw'
p1710
sg8
S'Danza Kuduro'
p1711
ssS'2jYmK1cb3Uya6FFsocdpzO'
p1712
(dp1713
g3
S'Sabrina Carpenter'
p1714
sg5
I5
sg6
S'https://open.spotify.com/track/2jYmK1cb3Uya6FFsocdpzO'
p1715
sg8
S'Why'
p1716
ssS'5OOkp4U9P9oL23maHFHL1h'
p1717
(dp1718
g3
S'Desiigner'
p1719
sg5
I17
sg6
S'https://open.spotify.com/track/5OOkp4U9P9oL23maHFHL1h'
p1720
sg8
S'Panda'
p1721
ssS'5xey3cl8y5fWst3EKgPFk8'
p1722
(dp1723
g3
S'KREAM'
p1724
sg5
I2
sg6
S'https://open.spotify.com/track/5xey3cl8y5fWst3EKgPFk8'
p1725
sg8
S'Drowning'
p1726
ssS'7y6c07pgjZvtHI9kuMVqk1'
p1727
(dp1728
g3
S'Drake'
p1729
sg5
I2
sg6
S'https://open.spotify.com/track/7y6c07pgjZvtHI9kuMVqk1'
p1730
sg8
S'Get It Together'
p1731
ssS'5nUjgFwreuQOnMRzA1lHk7'
p1732
(dp1733
g3
S'Seeb'
p1734
sg5
I17
sg6
S'https://open.spotify.com/track/5nUjgFwreuQOnMRzA1lHk7'
p1735
sg8
S'Boys In The Street'
p1736
ssS'3FNY26zMg3Zfe5Cbyu45uu'
p1737
(dp1738
g3
S'Grace VanderWaal'
p1739
sg5
I2
sg6
S'https://open.spotify.com/track/3FNY26zMg3Zfe5Cbyu45uu'
p1740
sg8
S'Moonlight'
p1741
ssS'2i3WO0WkrlnrA1I4GdUmxh'
p1742
(dp1743
g3
S'Robin Schulz'
p1744
sg5
I2
sg6
S'https://open.spotify.com/track/2i3WO0WkrlnrA1I4GdUmxh'
p1745
sg8
S"I Believe I'm Fine"
p1746
ssS'79cuOz3SPQTuFrp8WgftAu'
p1747
(dp1748
g3
S'Shawn Mendes'
p1749
sg5
I25
sg6
S'https://open.spotify.com/track/79cuOz3SPQTuFrp8WgftAu'
p1750
sg8
S"There's Nothing Holdin' Me Back"
p1751
ssS'4c2W3VKsOFoIg2SFaO6DY5'
p1752
(dp1753
g3
S'Rita Ora'
p1754
sg5
I20
sg6
S'https://open.spotify.com/track/4c2W3VKsOFoIg2SFaO6DY5'
p1755
sg8
S'Your Song'
p1756
ssS'0lmdsH1MIoLsMymnNpd6HU'
p1757
(dp1758
g3
S'Dante Klein'
p1759
sg5
I6
sg6
S'https://open.spotify.com/track/0lmdsH1MIoLsMymnNpd6HU'
p1760
sg8
S'Let Me Hold You (Turn Me On)'
p1761
ssS'4ARPvK8DHLwt4oX65ZAFMw'
p1762
(dp1763
g3
S'XXXTENTACION'
p1764
sg5
I7
sg6
S'https://open.spotify.com/track/4ARPvK8DHLwt4oX65ZAFMw'
p1765
sg8
S'Look At Me!'
p1766
ssS'3NQDZSM47zCMao3GFkcqaV'
p1767
(dp1768
g3
S'Hellbillies'
p1769
sg5
I14
sg6
S'https://open.spotify.com/track/3NQDZSM47zCMao3GFkcqaV'
p1770
sg8
S'Den Finast Eg Veit'
p1771
ssS'0nk2SL00q1jH8yNCmrIv0O'
p1772
(dp1773
g3
S'Cir.Cuz'
p1774
sg5
I8
sg6
S'https://open.spotify.com/track/0nk2SL00q1jH8yNCmrIv0O'
p1775
sg8
S'Din idiot'
p1776
ssS'6ZX2qXkhaueabbzp6vfabS'
p1777
(dp1778
g3
S'ALMA'
p1779
sg5
I2
sg6
S'https://open.spotify.com/track/6ZX2qXkhaueabbzp6vfabS'
p1780
sg8
S'Phases'
p1781
ssS'73x2VswdLAuD9D2Qc8n5ta'
p1782
(dp1783
g3
S'Susanne Sundf\xc3\xb8r'
p1784
sg5
I1
sg6
S'https://open.spotify.com/track/73x2VswdLAuD9D2Qc8n5ta'
p1785
sg8
S'Mantra'
p1786
ssS'3UjJP4ludb74a29P5EHEIo'
p1787
(dp1788
g3
S'Sabrina Carpenter'
p1789
sg5
I25
sg6
S'https://open.spotify.com/track/3UjJP4ludb74a29P5EHEIo'
p1790
sg8
S'Thumbs'
p1791
ssS'2xI4CmkT6Bl4s5b4qggcgU'
p1792
(dp1793
g3
S'Isaiah'
p1794
sg5
I1
sg6
S'https://open.spotify.com/track/2xI4CmkT6Bl4s5b4qggcgU'
p1795
sg8
S"Don't Come Easy"
p1796
ssS'4izg6Hydc6XGErWW6nbdsV'
p1797
(dp1798
g3
S'Imagine Dragons'
p1799
sg5
I3
sg6
S'https://open.spotify.com/track/4izg6Hydc6XGErWW6nbdsV'
p1800
sg8
S'Whatever It Takes'
p1801
ssS'3uktkQvDHJvtS6gFNIjSvJ'
p1802
(dp1803
g3
S'Elly Ekko'
p1804
sg5
I1
sg6
S'https://open.spotify.com/track/3uktkQvDHJvtS6gFNIjSvJ'
p1805
sg8
S'Sayonara'
p1806
ssS'3eR23VReFzcdmS7TYCrhCe'
p1807
(dp1808
g3
S'Kygo'
p1809
sg5
I34
sg6
S'https://open.spotify.com/track/3eR23VReFzcdmS7TYCrhCe'
p1810
sg8
S"It Ain't Me (with Selena Gomez)"
p1811
ssS'6a9vKVMFfNBi741DVSit3H'
p1812
(dp1813
g3
S'Felix Jaehn'
p1814
sg5
I10
sg6
S'https://open.spotify.com/track/6a9vKVMFfNBi741DVSit3H'
p1815
sg8
S'Feel Good'
p1816
ssS'2eAZfqOm4EnOF9VvN50Tyc'
p1817
(dp1818
g3
S'Lil Uzi Vert'
p1819
sg5
I3
sg6
S'https://open.spotify.com/track/2eAZfqOm4EnOF9VvN50Tyc'
p1820
sg8
S'The Way Life Goes'
p1821
ssS'4VuMhVz96BEzMcpkHIMOqg'
p1822
(dp1823
g3
S'Ylva'
p1824
sg5
I1
sg6
S'https://open.spotify.com/track/4VuMhVz96BEzMcpkHIMOqg'
p1825
sg8
S"This Ain't Love"
p1826
ssS'0zMzyHAeMvwq5CRstru1Fp'
p1827
(dp1828
g3
S'Ruth B.'
p1829
sg5
I1
sg6
S'https://open.spotify.com/track/0zMzyHAeMvwq5CRstru1Fp'
p1830
sg8
S'Lost Boy'
p1831
ssS'58S816i4qj4FXPyZideqSo'
p1832
(dp1833
g3
S'ZadeKing'
p1834
sg5
I1
sg6
S'https://open.spotify.com/track/58S816i4qj4FXPyZideqSo'
p1835
sg8
S'Hun gj\xc3\xb8r meg vill (Remix)'
p1836
ssS'2ODKShrWcNSyoqqCWHzuzR'
p1837
(dp1838
g3
S'Galantis'
p1839
sg5
I2
sg6
S'https://open.spotify.com/track/2ODKShrWcNSyoqqCWHzuzR'
p1840
sg8
S'Girls On Boys'
p1841
ssS'1FrGraOrJtVmK7aXA6lbej'
p1842
(dp1843
g3
S'Kamferdrops'
p1844
sg5
I4
sg6
S'https://open.spotify.com/track/1FrGraOrJtVmK7aXA6lbej'
p1845
sg8
S'Tusen Bitar'
p1846
ssS'5LXj9Ch3O9ATm1NoHT8GXn'
p1847
(dp1848
g3
S'Coldplay'
p1849
sg5
I1
sg6
S'https://open.spotify.com/track/5LXj9Ch3O9ATm1NoHT8GXn'
p1850
sg8
S'Hypnotised'
p1851
ssS'2nYwV62UABTH0NanrwVIdQ'
p1852
(dp1853
g3
S'Rae Sremmurd'
p1854
sg5
I1
sg6
S'https://open.spotify.com/track/2nYwV62UABTH0NanrwVIdQ'
p1855
sg8
S'Perplexing Pegasus'
p1856
ssS'5bZtRlMBU76vHuDOb1GM5u'
p1857
(dp1858
g3
S'Jonas Blue'
p1859
sg5
I1
sg6
S'https://open.spotify.com/track/5bZtRlMBU76vHuDOb1GM5u'
p1860
sg8
S'Perfect Strangers'
p1861
ssS'7r1nX1d3jHRUtVGaPfVsbr'
p1862
(dp1863
g3
S'Benjamin Beats'
p1864
sg5
I1
sg6
S'https://open.spotify.com/track/7r1nX1d3jHRUtVGaPfVsbr'
p1865
sg8
S'Jeg og (feat. Lex Press)'
p1866
ssS'6TIU9Ehmi6dMzZK73Ym4yj'
p1867
(dp1868
g3
S'Ed Sheeran'
p1869
sg5
I4
sg6
S'https://open.spotify.com/track/6TIU9Ehmi6dMzZK73Ym4yj'
p1870
sg8
S'Save Myself'
p1871
ssS'0JiVRyTJcJnmlwCZ854K4p'
p1872
(dp1873
g3
S'Alan Walker'
p1874
sg5
I42
sg6
S'https://open.spotify.com/track/0JiVRyTJcJnmlwCZ854K4p'
p1875
sg8
S'Alone'
p1876
ssS'18ZK9RiSZdZVTkzVFw0yin'
p1877
(dp1878
g3
S'Sara Farell'
p1879
sg5
I1
sg6
S'https://open.spotify.com/track/18ZK9RiSZdZVTkzVFw0yin'
p1880
sg8
S'It Aint me - Acoustic'
p1881
ssS'7jHzO2EPJzt1JgHQ80aRu0'
p1882
(dp1883
g3
S'Astrid S'
p1884
sg5
I14
sg6
S'https://open.spotify.com/track/7jHzO2EPJzt1JgHQ80aRu0'
p1885
sg8
S'Such A Boy'
p1886
ssS'7FrbLPpqdAPWz1mb74TiWg'
p1887
(dp1888
g3
S'Karpe Diem'
p1889
sg5
I1
sg6
S'https://open.spotify.com/track/7FrbLPpqdAPWz1mb74TiWg'
p1890
sg8
S'Her'
p1891
ssS'0USbIV58J2KfFez7r3mqxS'
p1892
(dp1893
g3
S'CASPR'
p1894
sg5
I1
sg6
S'https://open.spotify.com/track/0USbIV58J2KfFez7r3mqxS'
p1895
sg8
S'Bring Me Home'
p1896
ssS'2mfUa8bLs2s5N4VaqJZ4lZ'
p1897
(dp1898
g3
S'Hailee Steinfeld'
p1899
sg5
I23
sg6
S'https://open.spotify.com/track/2mfUa8bLs2s5N4VaqJZ4lZ'
p1900
sg8
S'Most Girls'
p1901
ssS'3HtQE58Fru1nYw5ulAJECs'
p1902
(dp1903
g3
S'Dunisco'
p1904
sg5
I1
sg6
S'https://open.spotify.com/track/3HtQE58Fru1nYw5ulAJECs'
p1905
sg8
S'Easy Love'
p1906
ssS'7floNISpH8VF4z4459Qo18'
p1907
(dp1908
g3
S'XXXTENTACION'
p1909
sg5
I2
sg6
S'https://open.spotify.com/track/7floNISpH8VF4z4459Qo18'
p1910
sg8
S'Look At Me!'
p1911
ssS'4aWmUDTfIPGksMNLV2rQP2'
p1912
(dp1913
g3
S'Luis Fonsi'
p1914
sg5
I38
sg6
S'https://open.spotify.com/track/4aWmUDTfIPGksMNLV2rQP2'
p1915
sg8
S'Despacito (Featuring Daddy Yankee)'
p1916
ssS'58zsLZPvfflaiIbNWoA22O'
p1917
(dp1918
g3
S"Rag'n'Bone Man"
p1919
sg5
I25
sg6
S'https://open.spotify.com/track/58zsLZPvfflaiIbNWoA22O'
p1920
sg8
S'Human'
p1921
ssS'5dKyZWlgjWw1oJgLa4GCZD'
p1922
(dp1923
g3
S'Tove Lo'
p1924
sg5
I4
sg6
S'https://open.spotify.com/track/5dKyZWlgjWw1oJgLa4GCZD'
p1925
sg8
S'Cool Girl'
p1926
ssS'60APt5N2NRaKWf5xzJdzyC'
p1927
(dp1928
g3
S'Calvin Harris'
p1929
sg5
I3
sg6
S'https://open.spotify.com/track/60APt5N2NRaKWf5xzJdzyC'
p1930
sg8
S'Heatstroke'
p1931
ssS'3PEgB3fkiojxms35ntsTgs'
p1932
(dp1933
g3
S'Axwell /\\ Ingrosso'
p1934
sg5
I11
sg6
S'https://open.spotify.com/track/3PEgB3fkiojxms35ntsTgs'
p1935
sg8
S'More Than You Know'
p1936
ssS'25C5CowdsfXld2jJanbiex'
p1937
(dp1938
g3
S'Demi Lovato'
p1939
sg5
I11
sg6
S'https://open.spotify.com/track/25C5CowdsfXld2jJanbiex'
p1940
sg8
S'Sorry Not Sorry'
p1941
ssS'6IcrwGdIvRsrImOnoYfG9Z'
p1942
(dp1943
g3
S'Wiz Khalifa'
p1944
sg5
I10
sg6
S'https://open.spotify.com/track/6IcrwGdIvRsrImOnoYfG9Z'
p1945
sg8
S'See You Again (feat. Charlie Puth) - From Furious 7'
p1946
ssS'594Id4J7VH4nVIfI1FwhP9'
p1947
(dp1948
g3
S'TIX'
p1949
sg5
I27
sg6
S'https://open.spotify.com/track/594Id4J7VH4nVIfI1FwhP9'
p1950
sg8
S'Versace 2017'
p1951
ssS'0VokwYpSt9gAX1GFxMbqxH'
p1952
(dp1953
g3
S'Maybon'
p1954
sg5
I1
sg6
S'https://open.spotify.com/track/0VokwYpSt9gAX1GFxMbqxH'
p1955
sg8
S'Majesty'
p1956
ssS'3Ton4GvRAl6Kp6LctQGND5'
p1957
(dp1958
g3
S'Sonny Alven'
p1959
sg5
I4
sg6
S'https://open.spotify.com/track/3Ton4GvRAl6Kp6LctQGND5'
p1960
sg8
S'Your Touch'
p1961
ssS'2Z8WuEywRWYTKe1NybPQEW'
p1962
(dp1963
g3
S'Twenty One Pilots'
p1964
sg5
I4
sg6
S'https://open.spotify.com/track/2Z8WuEywRWYTKe1NybPQEW'
p1965
sg8
S'Ride'
p1966
ssS'2dY1QsrYUeWDtSCvXlx0WW'
p1967
(dp1968
g3
S'Junge Junge'
p1969
sg5
I9
sg6
S'https://open.spotify.com/track/2dY1QsrYUeWDtSCvXlx0WW'
p1970
sg8
S"I Don't Love You (I'm Just Lonely)"
p1971
ssS'52okn5MNA47tk87PeZJLEL'
p1972
(dp1973
g3
S'NF'
p1974
sg5
I1
sg6
S'https://open.spotify.com/track/52okn5MNA47tk87PeZJLEL'
p1975
sg8
S'Let You Down'
p1976
ssS'0zCU35nRISaqZqlUXNEL5Z'
p1977
(dp1978
g3
S'Kurt Nilsen'
p1979
sg5
I1
sg6
S'https://open.spotify.com/track/0zCU35nRISaqZqlUXNEL5Z'
p1980
sg8
S'Stjernesludd'
p1981
ssS'5JLo5WELPiUJq8LeSrBuzf'
p1982
(dp1983
g3
S'Madden'
p1984
sg5
I22
sg6
S'https://open.spotify.com/track/5JLo5WELPiUJq8LeSrBuzf'
p1985
sg8
S'Echo'
p1986
ssS'5SleX0NFeODNY7Xenal3gr'
p1987
(dp1988
g3
S'Zara Larsson'
p1989
sg5
I14
sg6
S'https://open.spotify.com/track/5SleX0NFeODNY7Xenal3gr'
p1990
sg8
S'Only You'
p1991
ssS'6JV2JOEocMgcZxYSZelKcc'
p1992
(dp1993
g3
S'Justin Timberlake'
p1994
sg5
I35
sg6
S'https://open.spotify.com/track/6JV2JOEocMgcZxYSZelKcc'
p1995
sg8
S"CAN'T STOP THE FEELING! (Original Song from DreamWorks Animation's TROLLS)"
p1996
ssS'05KOgYg8PGeJyyWBPi5ja8'
p1997
(dp1998
g3
S'Drake'
p1999
sg5
I2
sg6
S'https://open.spotify.com/track/05KOgYg8PGeJyyWBPi5ja8'
p2000
sg8
S'Free Smoke'
p2001
ssS'6De0lHrwBfPfrhorm9q1Xl'
p2002
(dp2003
g3
S'Danny Ocean'
p2004
sg5
I3
sg6
S'https://open.spotify.com/track/6De0lHrwBfPfrhorm9q1Xl'
p2005
sg8
S'Me Reh\xc3\xbaso'
p2006
ssS'3qy7P1Vr6eGIwHP9DCUHwK'
p2007
(dp2008
g3
S'Kamferdrops'
p2009
sg5
I19
sg6
S'https://open.spotify.com/track/3qy7P1Vr6eGIwHP9DCUHwK'
p2010
sg8
S'Jag trodde \xc3\xa4nglarna fanns'
p2011
ssS'7ynCQo1KpBOyTdTdAnjSLZ'
p2012
(dp2013
g3
S'Sia'
p2014
sg5
I1
sg6
S'https://open.spotify.com/track/7ynCQo1KpBOyTdTdAnjSLZ'
p2015
sg8
S'Move Your Body - Single Mix'
p2016
ssS'3zTT7bMB5IYmJv2T8nvLwd'
p2017
(dp2018
g3
S'Gabrielle'
p2019
sg5
I1
sg6
S'https://open.spotify.com/track/3zTT7bMB5IYmJv2T8nvLwd'
p2020
sg8
S'Du g\xc3\xa5r fri'
p2021
ssS'7aV2mflaASUmGhCErm7kBO'
p2022
(dp2023
g3
S'Nevada'
p2024
sg5
I6
sg6
S'https://open.spotify.com/track/7aV2mflaASUmGhCErm7kBO'
p2025
sg8
S'The Mack'
p2026
ssS'32ivc6NEOfMgzKhM7L74ZK'
p2027
(dp2028
g3
S'Astrid S'
p2029
sg5
I4
sg6
S'https://open.spotify.com/track/32ivc6NEOfMgzKhM7L74ZK'
p2030
sg8
S"Party's Over"
p2031
ssS'6a1hzBiTkgqTsDA0Xgfh9z'
p2032
(dp2033
g3
S'The Jackson 5'
p2034
sg5
I1
sg6
S'https://open.spotify.com/track/6a1hzBiTkgqTsDA0Xgfh9z'
p2035
sg8
S'Santa Claus Is Coming To Town'
p2036
ssS'2p4p9YGwmJIdf5IA9sSWhm'
p2037
(dp2038
g3
S'mansionz'
p2039
sg5
I11
sg6
S'https://open.spotify.com/track/2p4p9YGwmJIdf5IA9sSWhm'
p2040
sg8
S'STFU'
p2041
ssS'6Xg0F1n9om5DsIVRzt60Ir'
p2042
(dp2043
g3
S'dePresno'
p2044
sg5
I1
sg6
S'https://open.spotify.com/track/6Xg0F1n9om5DsIVRzt60Ir'
p2045
sg8
S'Mr. Big'
p2046
ssS'4MV8yeKSsls4xev14yDXL6'
p2047
(dp2048
g3
S'TRXD'
p2049
sg5
I17
sg6
S'https://open.spotify.com/track/4MV8yeKSsls4xev14yDXL6'
p2050
sg8
S'Our City'
p2051
ssS'3rOSwuTsUlJp0Pu0MkN8r8'
p2052
(dp2053
g3
S'Future'
p2054
sg5
I33
sg6
S'https://open.spotify.com/track/3rOSwuTsUlJp0Pu0MkN8r8'
p2055
sg8
S'Mask Off'
p2056
ssS'1qOLh0tI7trd1zdDKxYZTe'
p2057
(dp2058
g3
S'Hailee Steinfeld'
p2059
sg5
I27
sg6
S'https://open.spotify.com/track/1qOLh0tI7trd1zdDKxYZTe'
p2060
sg8
S'Starving'
p2061
ssS'0cqRj7pUJDkTCEsJkx8snD'
p2062
(dp2063
g3
S'Taylor Swift'
p2064
sg5
I1
sg6
S'https://open.spotify.com/track/0cqRj7pUJDkTCEsJkx8snD'
p2065
sg8
S'Shake It Off'
p2066
ssS'4CnoD3XxuCJC7z0JE3SVWm'
p2067
(dp2068
g3
S'The Main Level'
p2069
sg5
I15
sg6
S'https://open.spotify.com/track/4CnoD3XxuCJC7z0JE3SVWm'
p2070
sg8
S'Bombadilla'
p2071
ssS'3HVr6jTVwBHBa2flM0eURR'
p2072
(dp2073
g3
S'Macklemore'
p2074
sg5
I14
sg6
S'https://open.spotify.com/track/3HVr6jTVwBHBa2flM0eURR'
p2075
sg8
S'Glorious (feat. Skylar Grey)'
p2076
ssS'7inXu0Eaeg02VsM8kHNvzM'
p2077
(dp2078
g3
S'Frank Sinatra'
p2079
sg5
I1
sg6
S'https://open.spotify.com/track/7inXu0Eaeg02VsM8kHNvzM'
p2080
sg8
S'Let It Snow! Let It Snow! Let It Snow!'
p2081
ssS'7taXf5odg9xCAZERYfyOkS'
p2082
(dp2083
g3
S'Jos\xc3\xa9 Feliciano'
p2084
sg5
I1
sg6
S'https://open.spotify.com/track/7taXf5odg9xCAZERYfyOkS'
p2085
sg8
S'Feliz Navidad'
p2086
ssS'1cG0umU5TKStygKsPFZ9pY'
p2087
(dp2088
g3
S'Robin Schulz'
p2089
sg5
I16
sg6
S'https://open.spotify.com/track/1cG0umU5TKStygKsPFZ9pY'
p2090
sg8
S'Shed a Light'
p2091
ssS'7xHWNBFm6ObGEQPaUxHuKO'
p2092
(dp2093
g3
S'Sia'
p2094
sg5
I17
sg6
S'https://open.spotify.com/track/7xHWNBFm6ObGEQPaUxHuKO'
p2095
sg8
S'The Greatest'
p2096
ssS'3caMfJGFp53NAH2TuigdNj'
p2097
(dp2098
g3
S'Galantis'
p2099
sg5
I19
sg6
S'https://open.spotify.com/track/3caMfJGFp53NAH2TuigdNj'
p2100
sg8
S'Hunter'
p2101
ssS'14g3wKlrCb4GeZuYxHrQb3'
p2102
(dp2103
g3
S'Alberto Ciccarini'
p2104
sg5
I6
sg6
S'https://open.spotify.com/track/14g3wKlrCb4GeZuYxHrQb3'
p2105
sg8
S'Look4You'
p2106
ssS'6EpRaXYhGOB3fj4V2uDkMJ'
p2107
(dp2108
g3
S'Liam Payne'
p2109
sg5
I21
sg6
S'https://open.spotify.com/track/6EpRaXYhGOB3fj4V2uDkMJ'
p2110
sg8
S'Strip That Down'
p2111
ssS'0BiGd2FNDQ0eh79ZHfp6tS'
p2112
(dp2113
g3
S'Martin Jensen'
p2114
sg5
I35
sg6
S'https://open.spotify.com/track/0BiGd2FNDQ0eh79ZHfp6tS'
p2115
sg8
S'All I Wanna Do'
p2116
ssS'3Db8OhBMmNPLv2rHYoP7Wf'
p2117
(dp2118
g3
S'John Gibbons'
p2119
sg5
I5
sg6
S'https://open.spotify.com/track/3Db8OhBMmNPLv2rHYoP7Wf'
p2120
sg8
S'P.Y.T. (Pretty Young Thing)'
p2121
ssS'6RqfD0pbD769SEd3NVBZlo'
p2122
(dp2123
g3
S'TIX'
p2124
sg5
I3
sg6
S'https://open.spotify.com/track/6RqfD0pbD769SEd3NVBZlo'
p2125
sg8
S'Sjeiken 2015'
p2126
ssS'1wjzFQodRWrPcQ0AnYnvQ9'
p2127
(dp2128
g3
S'Lauv'
p2129
sg5
I19
sg6
S'https://open.spotify.com/track/1wjzFQodRWrPcQ0AnYnvQ9'
p2130
sg8
S'I Like Me Better'
p2131
ssS'7lx4PtPvS63cuNuLvCBxD5'
p2132
(dp2133
g3
S'VAX'
p2134
sg5
I5
sg6
S'https://open.spotify.com/track/7lx4PtPvS63cuNuLvCBxD5'
p2135
sg8
S'Fireproof'
p2136
ssS'2Cth0v1xri32oZ799rL3rl'
p2137
(dp2138
g3
S'Tyga'
p2139
sg5
I1
sg6
S'https://open.spotify.com/track/2Cth0v1xri32oZ799rL3rl'
p2140
sg8
S'Feel Me'
p2141
ssS'1F9ATzR6eLrTXHxjTVKF6K'
p2142
(dp2143
g3
S'OneRepublic'
p2144
sg5
I6
sg6
S'https://open.spotify.com/track/1F9ATzR6eLrTXHxjTVKF6K'
p2145
sg8
S'Kids - Seeb Remix'
p2146
ssS'7iDa6hUg2VgEL1o1HjmfBn'
p2147
(dp2148
g3
S'Bebe Rexha'
p2149
sg5
I3
sg6
S'https://open.spotify.com/track/7iDa6hUg2VgEL1o1HjmfBn'
p2150
sg8
S'Meant to Be (feat. Florida Georgia Line)'
p2151
ssS'7abpmGpF7PGep2rDU68GBR'
p2152
(dp2153
g3
S'Burak Yeter'
p2154
sg5
I33
sg6
S'https://open.spotify.com/track/7abpmGpF7PGep2rDU68GBR'
p2155
sg8
S'Tuesday'
p2156
ssS'2uFaJJtFpPDc5Pa95XzTvg'
p2157
(dp2158
g3
S'Dean Martin'
p2159
sg5
I1
sg6
S'https://open.spotify.com/track/2uFaJJtFpPDc5Pa95XzTvg'
p2160
sg8
S'Let It Snow! Let It Snow! Let It Snow!'
p2161
ssS'7KfHsbYasBvqMX739rB1lg'
p2162
(dp2163
g3
S'Gabrielle'
p2164
sg5
I1
sg6
S'https://open.spotify.com/track/7KfHsbYasBvqMX739rB1lg'
p2165
sg8
S'September'
p2166
ssS'3GVkPk8mqxz0itaAriG1L7'
p2167
(dp2168
g3
S'XXXTENTACION'
p2169
sg5
I7
sg6
S'https://open.spotify.com/track/3GVkPk8mqxz0itaAriG1L7'
p2170
sg8
S'Everybody Dies In Their Nightmares'
p2171
ssS'1fL8oWucAeV9TzlipPxpJT'
p2172
(dp2173
g3
S'Unge Ferrari'
p2174
sg5
I6
sg6
S'https://open.spotify.com/track/1fL8oWucAeV9TzlipPxpJT'
p2175
sg8
S'Hologram'
p2176
ssS'3GPI7hYiqD6enLRobhkBm8'
p2177
(dp2178
g3
S'ItaloBrothers'
p2179
sg5
I30
sg6
S'https://open.spotify.com/track/3GPI7hYiqD6enLRobhkBm8'
p2180
sg8
S'Summer Air'
p2181
ssS'2ifg75WFpqvJouvoVaD354'
p2182
(dp2183
g3
S'Kurt Nilsen'
p2184
sg5
I1
sg6
S'https://open.spotify.com/track/2ifg75WFpqvJouvoVaD354'
p2185
sg8
S'When You Wish Upon A Star'
p2186
ssS'2XMTqoHHSH0lvuXrvIEdco'
p2187
(dp2188
g3
S'FRENSHIP'
p2189
sg5
I12
sg6
S'https://open.spotify.com/track/2XMTqoHHSH0lvuXrvIEdco'
p2190
sg8
S'Capsize'
p2191
ssS'5MFzQMkrl1FOOng9tq6R9r'
p2192
(dp2193
g3
S'Maroon 5'
p2194
sg5
I12
sg6
S'https://open.spotify.com/track/5MFzQMkrl1FOOng9tq6R9r'
p2195
sg8
S"Don't Wanna Know"
p2196
ssS'60krsAHBHlf1eMEdZpaybn'
p2197
(dp2198
g3
S'Eva Weel Skram'
p2199
sg5
I2
sg6
S'https://open.spotify.com/track/60krsAHBHlf1eMEdZpaybn'
p2200
sg8
S'Selmas sang (fra Sn\xc3\xb8fall)'
p2201
ssS'1Rl40PsX4mh9xVOeGHq86B'
p2202
(dp2203
g3
S'Whethan'
p2204
sg5
I10
sg6
S'https://open.spotify.com/track/1Rl40PsX4mh9xVOeGHq86B'
p2205
sg8
S'Savage (feat. Flux Pavilion & MAX)'
p2206
ssS'3FDrI0FLKzrYQiWxPhqV2W'
p2207
(dp2208
g3
S'Calvin Harris'
p2209
sg5
I4
sg6
S'https://open.spotify.com/track/3FDrI0FLKzrYQiWxPhqV2W'
p2210
sg8
S'Rollin'
p2211
ssS'1FgmP7AOTcn7MGYmImj0kn'
p2212
(dp2213
g3
S'Macklemore'
p2214
sg5
I1
sg6
S'https://open.spotify.com/track/1FgmP7AOTcn7MGYmImj0kn'
p2215
sg8
S"Ain't Gonna Die Tonight (feat. Eric Nally)"
p2216
ssS'6n3HGiq4v35D6eFOSwqYuo'
p2217
(dp2218
g3
S'Drake'
p2219
sg5
I2
sg6
S'https://open.spotify.com/track/6n3HGiq4v35D6eFOSwqYuo'
p2220
sg8
S'Teenage Fever'
p2221
ssS'0eCkBrobTQFiBVqa1p92KA'
p2222
(dp2223
g3
S'JP Cooper'
p2224
sg5
I3
sg6
S'https://open.spotify.com/track/0eCkBrobTQFiBVqa1p92KA'
p2225
sg8
S'Birthday'
p2226
ssS'3wi58tiEEDGjHy28Olf4sx'
p2227
(dp2228
g3
S'Tone Damli'
p2229
sg5
I2
sg6
S'https://open.spotify.com/track/3wi58tiEEDGjHy28Olf4sx'
p2230
sg8
S'Pinnacle'
p2231
ssS'6eT7xZZlB2mwyzJ2sUKG6w'
p2232
(dp2233
g3
S'Post Malone'
p2234
sg5
I12
sg6
S'https://open.spotify.com/track/6eT7xZZlB2mwyzJ2sUKG6w'
p2235
sg8
S'White Iverson'
p2236
ssS'1tp1xMJ1uaOktksskS0Fzs'
p2237
(dp2238
g3
S'Gucci Mane'
p2239
sg5
I1
sg6
S'https://open.spotify.com/track/1tp1xMJ1uaOktksskS0Fzs'
p2240
sg8
S'Curve (feat. The Weeknd)'
p2241
ssS'6Nm0PIjQHqW8OxQlNB2ze9'
p2242
(dp2243
g3
S'Sondr'
p2244
sg5
I1
sg6
S'https://open.spotify.com/track/6Nm0PIjQHqW8OxQlNB2ze9'
p2245
sg8
S'Live Love Learn'
p2246
ssS'7HEPo8lNJfdiO4ERs0hVWD'
p2247
(dp2248
g3
S'Sigrid'
p2249
sg5
I2
sg6
S'https://open.spotify.com/track/7HEPo8lNJfdiO4ERs0hVWD'
p2250
sg8
S'Dynamite - Acoustic'
p2251
ssS'1almCHdsfikRPfVB9VrEdT'
p2252
(dp2253
g3
S'Alex & Sierra'
p2254
sg5
I10
sg6
S'https://open.spotify.com/track/1almCHdsfikRPfVB9VrEdT'
p2255
sg8
S'Little Do You Know'
p2256
ssS'1jYiIOC5d6soxkJP81fxq2'
p2257
(dp2258
g3
S'DJ Khaled'
p2259
sg5
I1
sg6
S'https://open.spotify.com/track/1jYiIOC5d6soxkJP81fxq2'
p2260
sg8
S"I'm the One"
p2261
ssS'16TyOqPM9in3xs6uknTAvH'
p2262
(dp2263
g3
S'Kaveh'
p2264
sg5
I1
sg6
S'https://open.spotify.com/track/16TyOqPM9in3xs6uknTAvH'
p2265
sg8
S'Muhammad Ali'
p2266
ssS'0IqKeD8ZSP72KbGYyzEcAs'
p2267
(dp2268
g3
S'Hozier'
p2269
sg5
I8
sg6
S'https://open.spotify.com/track/0IqKeD8ZSP72KbGYyzEcAs'
p2270
sg8
S'Take Me To Church'
p2271
ssS'5QqyRUZeBE04yJxsD1OC0I'
p2272
(dp2273
g3
S'Lana Del Rey'
p2274
sg5
I1
sg6
S'https://open.spotify.com/track/5QqyRUZeBE04yJxsD1OC0I'
p2275
sg8
S'Summer Bummer (feat. A$AP Rocky & Playboi Carti)'
p2276
ssS'2jTujnt0y344ai1rNOywgr'
p2277
(dp2278
g3
S'Drake'
p2279
sg5
I2
sg6
S'https://open.spotify.com/track/2jTujnt0y344ai1rNOywgr'
p2280
sg8
S'KMT'
p2281
ssS'5ssii6iDDZXsixgD9wgm8n'
p2282
(dp2283
g3
S'Isac Elliot'
p2284
sg5
I1
sg6
S'https://open.spotify.com/track/5ssii6iDDZXsixgD9wgm8n'
p2285
sg8
S'SHE'
p2286
ssS'0h4FK0CnlZ3oJnZ6quEk1P'
p2287
(dp2288
g3
S'Seeb'
p2289
sg5
I29
sg6
S'https://open.spotify.com/track/0h4FK0CnlZ3oJnZ6quEk1P'
p2290
sg8
S'What Do You Love'
p2291
ssS'3MzDvWYbRMAgkOFu5DhNvh'
p2292
(dp2293
g3
S'James Blunt'
p2294
sg5
I1
sg6
S'https://open.spotify.com/track/3MzDvWYbRMAgkOFu5DhNvh'
p2295
sg8
S'Love Me Better'
p2296
ssS'1ipE3bBLWeLkIvxWUaxpSu'
p2297
(dp2298
g3
S'P!nk'
p2299
sg5
I1
sg6
S'https://open.spotify.com/track/1ipE3bBLWeLkIvxWUaxpSu'
p2300
sg8
S'Beautiful Trauma'
p2301
ssS'6gBFPUFcJLzWGx4lenP6h2'
p2302
(dp2303
g3
S'Travis Scott'
p2304
sg5
I4
sg6
S'https://open.spotify.com/track/6gBFPUFcJLzWGx4lenP6h2'
p2305
sg8
S'goosebumps'
p2306
ssS'6q7AOq1J7lGXogZVnh2FfK'
p2307
(dp2308
g3
S'Karpe Diem'
p2309
sg5
I32
sg6
S'https://open.spotify.com/track/6q7AOq1J7lGXogZVnh2FfK'
p2310
sg8
S'Gunerius'
p2311
ssS'3uB6rxXYjmMEhOVJT763S6'
p2312
(dp2313
g3
S'Matoma'
p2314
sg5
I6
sg6
S'https://open.spotify.com/track/3uB6rxXYjmMEhOVJT763S6'
p2315
sg8
S'Staying Up'
p2316
ssS'6DB2KOEwHnjkgEnBt5SdeJ'
p2317
(dp2318
g3
S'Future'
p2319
sg5
I2
sg6
S'https://open.spotify.com/track/6DB2KOEwHnjkgEnBt5SdeJ'
p2320
sg8
S'Mask Off - Remix'
p2321
ssS'5oAgI7Pzg6vxuKrfapg3Pi'
p2322
(dp2323
g3
S'Martin Garrix'
p2324
sg5
I1
sg6
S'https://open.spotify.com/track/5oAgI7Pzg6vxuKrfapg3Pi'
p2325
sg8
S'Pizza'
p2326
ssS'1lbgPy6qUbszFfZwQVec97'
p2327
(dp2328
g3
S'Nico & Vinz'
p2329
sg5
I6
sg6
S'https://open.spotify.com/track/1lbgPy6qUbszFfZwQVec97'
p2330
sg8
S'Intrigued'
p2331
ssS'5ndfVSDyPq90jaIUhNPeby'
p2332
(dp2333
g3
S'Katy Perry'
p2334
sg5
I2
sg6
S'https://open.spotify.com/track/5ndfVSDyPq90jaIUhNPeby'
p2335
sg8
S'Chained To The Rhythm'
p2336
ssS'7ubpPu8yvvICYv9pykcp7O'
p2337
(dp2338
g3
S'Sandra Lyng'
p2339
sg5
I2
sg6
S'https://open.spotify.com/track/7ubpPu8yvvICYv9pykcp7O'
p2340
sg8
S'Ta me dit'
p2341
ssS'7AQim7LbvFVZJE3O8TYgf2'
p2342
(dp2343
g3
S'XXXTENTACION'
p2344
sg5
I7
sg6
S'https://open.spotify.com/track/7AQim7LbvFVZJE3O8TYgf2'
p2345
sg8
S'Fuck Love (feat. Trippie Redd)'
p2346
ssS'3rvEwBi1mFFHqCnkrGmnWp'
p2347
(dp2348
g3
S'Robin Schulz'
p2349
sg5
I1
sg6
S'https://open.spotify.com/track/3rvEwBi1mFFHqCnkrGmnWp'
p2350
sg8
S'Unforgettable'
p2351
ssS'3PoTeDoKsZykCETeDKqUjh'
p2352
(dp2353
g3
S'Rotlaus'
p2354
sg5
I4
sg6
S'https://open.spotify.com/track/3PoTeDoKsZykCETeDKqUjh'
p2355
sg8
S'Syng mej en song'
p2356
ssS'6iPFiRtrhLDVQOa8Oh8Hlb'
p2357
(dp2358
g3
S'Solguden & Mannen'
p2359
sg5
I12
sg6
S'https://open.spotify.com/track/6iPFiRtrhLDVQOa8Oh8Hlb'
p2360
sg8
S'Forbes 2017'
p2361
ssS'6cPyTS0Kk2sc4xQwC93kOg'
p2362
(dp2363
g3
S'The Chainsmokers'
p2364
sg5
I3
sg6
S'https://open.spotify.com/track/6cPyTS0Kk2sc4xQwC93kOg'
p2365
sg8
S'Break Up Every Night'
p2366
ssS'51sUVYhoGXUVnYmxlsdN2c'
p2367
(dp2368
g3
S'Erik Og Kriss'
p2369
sg5
I1
sg6
S'https://open.spotify.com/track/51sUVYhoGXUVnYmxlsdN2c'
p2370
sg8
S'Leker deilig'
p2371
ssS'6eUncuJutsFi9BGO1JaBHh'
p2372
(dp2373
g3
S'Jason Derulo'
p2374
sg5
I6
sg6
S'https://open.spotify.com/track/6eUncuJutsFi9BGO1JaBHh'
p2375
sg8
S"If I'm Lucky"
p2376
ssS'3DiSg52IvK0nmFwsMKL7bB'
p2377
(dp2378
g3
S'Sara Farell'
p2379
sg5
I5
sg6
S'https://open.spotify.com/track/3DiSg52IvK0nmFwsMKL7bB'
p2380
sg8
S"I Don't Wanna Live Forever (Fifty Shades Darker) - Acoustic"
p2381
ssS'4gDyoe1FImDlXVt58ssnMf'
p2382
(dp2383
g3
S'Coldplay'
p2384
sg5
I1
sg6
S'https://open.spotify.com/track/4gDyoe1FImDlXVt58ssnMf'
p2385
sg8
S'All I Can Think About Is You'
p2386
ssS'31MkGwj0SWgZaTvEt5Hgxv'
p2387
(dp2388
g3
S'P!nk'
p2389
sg5
I9
sg6
S'https://open.spotify.com/track/31MkGwj0SWgZaTvEt5Hgxv'
p2390
sg8
S'What About Us'
p2391
ssS'0PDUDa38GO8lMxLCRc4lL1'
p2392
(dp2393
g3
S'ZAYN'
p2394
sg5
I3
sg6
S'https://open.spotify.com/track/0PDUDa38GO8lMxLCRc4lL1'
p2395
sg8
S'PILLOWTALK'
p2396
ssS'3EzkeGcQEpvYFz1pEIOo3G'
p2397
(dp2398
g3
S'Robin og Bugge'
p2399
sg5
I1
sg6
S'https://open.spotify.com/track/3EzkeGcQEpvYFz1pEIOo3G'
p2400
sg8
S'Stormvind'
p2401
ssS'60lwJa695S26FsYbhCVFVa'
p2402
(dp2403
g3
S'Astrid S'
p2404
sg5
I39
sg6
S'https://open.spotify.com/track/60lwJa695S26FsYbhCVFVa'
p2405
sg8
S'Hurts So Good'
p2406
ssS'3pC1ILr9KzmQLMe8Kn5QBG'
p2407
(dp2408
g3
S'DJ Khaled'
p2409
sg5
I1
sg6
S'https://open.spotify.com/track/3pC1ILr9KzmQLMe8Kn5QBG'
p2410
sg8
S'To the Max'
p2411
ssS'6LOCAhFzZiavHcLJucLuDy'
p2412
(dp2413
g3
S'DJ Khaled'
p2414
sg5
I1
sg6
S'https://open.spotify.com/track/6LOCAhFzZiavHcLJucLuDy'
p2415
sg8
S"Don't Quit"
p2416
ssS'7Mq3vRtwjRdDTxpQXrS8k6'
p2417
(dp2418
g3
S'Ti\xc3\xabsto'
p2419
sg5
I5
sg6
S'https://open.spotify.com/track/7Mq3vRtwjRdDTxpQXrS8k6'
p2420
sg8
S'BOOM'
p2421
ssS'35QZaWQRkmnAVqBF1TLCxQ'
p2422
(dp2423
g3
S'Ed Sheeran'
p2424
sg5
I5
sg6
S'https://open.spotify.com/track/35QZaWQRkmnAVqBF1TLCxQ'
p2425
sg8
S'Nancy Mulligan'
p2426
ssS'7zgqtptZvhf8GEmdsM2vp2'
p2427
(dp2428
g3
S'Taylor Swift'
p2429
sg5
I1
sg6
S'https://open.spotify.com/track/7zgqtptZvhf8GEmdsM2vp2'
p2430
sg8
S'...Ready For It?'
p2431
ssS'7o9vEeQTc1UEnizHDvkluA'
p2432
(dp2433
g3
S'Kurt Nilsen'
p2434
sg5
I1
sg6
S'https://open.spotify.com/track/7o9vEeQTc1UEnizHDvkluA'
p2435
sg8
S'Winter Wonderland'
p2436
ssS'3VRk65lHSwqd90TAkQqhvB'
p2437
(dp2438
g3
S'Katy Perry'
p2439
sg5
I2
sg6
S'https://open.spotify.com/track/3VRk65lHSwqd90TAkQqhvB'
p2440
sg8
S'Swish Swish'
p2441
ssS'5eqK0tbzUPo2SoeZsov04s'
p2442
(dp2443
g3
S'21 Savage'
p2444
sg5
I8
sg6
S'https://open.spotify.com/track/5eqK0tbzUPo2SoeZsov04s'
p2445
sg8
S'Bank Account'
p2446
ssS'1a5Yu5L18qNxVhXx38njON'
p2447
(dp2448
g3
S'Alok'
p2449
sg5
I34
sg6
S'https://open.spotify.com/track/1a5Yu5L18qNxVhXx38njON'
p2450
sg8
S'Hear Me Now'
p2451
ssS'7hrjgvlXwv7MTrMzmeQPn4'
p2452
(dp2453
g3
S'Skei & PT'
p2454
sg5
I7
sg6
S'https://open.spotify.com/track/7hrjgvlXwv7MTrMzmeQPn4'
p2455
sg8
S'M\xc3\xa5ll\xc3\xb8s'
p2456
ssS'3kxfsdsCpFgN412fpnW85Y'
p2457
(dp2458
g3
S'Childish Gambino'
p2459
sg5
I23
sg6
S'https://open.spotify.com/track/3kxfsdsCpFgN412fpnW85Y'
p2460
sg8
S'Redbone'
p2461
ssS'4q8PHoRsPUB52LFylX8Ulz'
p2462
(dp2463
g3
S'Axwell /\\ Ingrosso'
p2464
sg5
I9
sg6
S'https://open.spotify.com/track/4q8PHoRsPUB52LFylX8Ulz'
p2465
sg8
S'More Than You Know'
p2466
ssS'3qyeNnFY67zX6VmmIbzPsL'
p2467
(dp2468
g3
S'Mike Perry'
p2469
sg5
I19
sg6
S'https://open.spotify.com/track/3qyeNnFY67zX6VmmIbzPsL'
p2470
sg8
S'Body to Body'
p2471
ssS'0RqfiDB3g0C1XPRO872ygU'
p2472
(dp2473
g3
S'Benjamin Beats'
p2474
sg5
I17
sg6
S'https://open.spotify.com/track/0RqfiDB3g0C1XPRO872ygU'
p2475
sg8
S'Dill Dall (feat. Lothepus & Pilgaard)'
p2476
ssS'4sPmO7WMQUAf45kwMOtONw'
p2477
(dp2478
g3
S'Adele'
p2479
sg5
I19
sg6
S'https://open.spotify.com/track/4sPmO7WMQUAf45kwMOtONw'
p2480
sg8
S'Hello'
p2481
ssS'3FZEv9JddkjHNFiMVxJYpS'
p2482
(dp2483
g3
S'Kygo'
p2484
sg5
I2
sg6
S'https://open.spotify.com/track/3FZEv9JddkjHNFiMVxJYpS'
p2485
sg8
S'Carry Me'
p2486
ssS'7cN3fDOvBnZMUlWmJvAEE3'
p2487
(dp2488
g3
S'Kurt Nilsen'
p2489
sg5
I1
sg6
S'https://open.spotify.com/track/7cN3fDOvBnZMUlWmJvAEE3'
p2490
sg8
S'Have Yourself A Merry Little Christmas'
p2491
ssS'6iAvbGaAuLdperGD7VmLHt'
p2492
(dp2493
g3
S'Cezinando'
p2494
sg5
I1
sg6
S'https://open.spotify.com/track/6iAvbGaAuLdperGD7VmLHt'
p2495
sg8
S'H\xc3\xa5per du har plass'
p2496
ssS'5p3NP9mQblDsVJLdfNZJ3I'
p2497
(dp2498
g3
S'Kendrick Lamar'
p2499
sg5
I1
sg6
S'https://open.spotify.com/track/5p3NP9mQblDsVJLdfNZJ3I'
p2500
sg8
S'GOD.'
p2501
ssS'6BaCraQ9xeLYg4Sb9TBT2X'
p2502
(dp2503
g3
S'Calvin Harris'
p2504
sg5
I1
sg6
S'https://open.spotify.com/track/6BaCraQ9xeLYg4Sb9TBT2X'
p2505
sg8
S'Feels'
p2506
ssS'6PyxrogMU9imKqVtKx6840'
p2507
(dp2508
g3
S'Kygo'
p2509
sg5
I12
sg6
S'https://open.spotify.com/track/6PyxrogMU9imKqVtKx6840'
p2510
sg8
S'Fragile'
p2511
ssS'561jH07mF1jHuk7KlaeF0s'
p2512
(dp2513
g3
S'Eminem'
p2514
sg5
I1
sg6
S'https://open.spotify.com/track/561jH07mF1jHuk7KlaeF0s'
p2515
sg8
S'Mockingbird'
p2516
ssS'4vGVOcH8F0O0TkTgewUfUO'
p2517
(dp2518
g3
S'Plumbo'
p2519
sg5
I20
sg6
S'https://open.spotify.com/track/4vGVOcH8F0O0TkTgewUfUO'
p2520
sg8
S'Bade naken'
p2521
ssS'3T8j0WDSw7G98rNLAe2M2X'
p2522
(dp2523
g3
S'Madden'
p2524
sg5
I1
sg6
S'https://open.spotify.com/track/3T8j0WDSw7G98rNLAe2M2X'
p2525
sg8
S'Golden Light (feat. 6AM)'
p2526
ssS'4nu7zO7SBSGWTsGXFnPNVh'
p2527
(dp2528
g3
S'ARY'
p2529
sg5
I1
sg6
S'https://open.spotify.com/track/4nu7zO7SBSGWTsGXFnPNVh'
p2530
sg8
S'Childhood Dreams'
p2531
ssS'2ekn2ttSfGqwhhate0LSR0'
p2532
(dp2533
g3
S'Dua Lipa'
p2534
sg5
I13
sg6
S'https://open.spotify.com/track/2ekn2ttSfGqwhhate0LSR0'
p2535
sg8
S'New Rules'
p2536
ssS'3OoZagIW3YK8vjt0ws6NOI'
p2537
(dp2538
g3
S'DJ Khaled'
p2539
sg5
I1
sg6
S'https://open.spotify.com/track/3OoZagIW3YK8vjt0ws6NOI'
p2540
sg8
S'Shining'
p2541
ssS'41ZZVPycoG1LY9od5BK0vl'
p2542
(dp2543
g3
S'Brandon Beal'
p2544
sg5
I2
sg6
S'https://open.spotify.com/track/41ZZVPycoG1LY9od5BK0vl'
p2545
sg8
S'Paradise (with Olivia Holt)'
p2546
ssS'3T7dNA7O8c3Axj5WyDNcH3'
p2547
(dp2548
g3
S'Brenda Lee'
p2549
sg5
I1
sg6
S'https://open.spotify.com/track/3T7dNA7O8c3Axj5WyDNcH3'
p2550
sg8
S"Rockin' Around The Christmas Tree - Single Version"
p2551
ssS'5q5gzmbBS5yQzos2BvVr1t'
p2552
(dp2553
g3
S'M\xc3\x98'
p2554
sg5
I14
sg6
S'https://open.spotify.com/track/5q5gzmbBS5yQzos2BvVr1t'
p2555
sg8
S'Nights With You'
p2556
ssS'3DXncPQOG4VBw3QHh3S817'
p2557
(dp2558
g3
S'DJ Khaled'
p2559
sg5
I20
sg6
S'https://open.spotify.com/track/3DXncPQOG4VBw3QHh3S817'
p2560
sg8
S"I'm the One"
p2561
ssS'6tt3Na8Vjw1H2fCUcUivi5'
p2562
(dp2563
g3
S'Staysman & Lazz'
p2564
sg5
I24
sg6
S'https://open.spotify.com/track/6tt3Na8Vjw1H2fCUcUivi5'
p2565
sg8
S'En Siste Gang'
p2566
ssS'37DtDueviGdJouOMY2YFz0'
p2567
(dp2568
g3
S'Hanne Krogh'
p2569
sg5
I1
sg6
S'https://open.spotify.com/track/37DtDueviGdJouOMY2YFz0'
p2570
sg8
S'Sonjas Sang Til Julestjernen'
p2571
ssS'6tinFGP1QJuRbyeCekZcLZ'
p2572
(dp2573
g3
S'Afrojack'
p2574
sg5
I1
sg6
S'https://open.spotify.com/track/6tinFGP1QJuRbyeCekZcLZ'
p2575
sg8
S'Another Life'
p2576
ssS'0Z9HQ8YvHqdeOjTwsR3cS7'
p2577
(dp2578
g3
S'Moon Taxi'
p2579
sg5
I7
sg6
S'https://open.spotify.com/track/0Z9HQ8YvHqdeOjTwsR3cS7'
p2580
sg8
S'Two High'
p2581
ssS'6mORGLOz79w6VsCRLWYYuK'
p2582
(dp2583
g3
S'Lord Huron'
p2584
sg5
I26
sg6
S'https://open.spotify.com/track/6mORGLOz79w6VsCRLWYYuK'
p2585
sg8
S'The Night We Met'
p2586
ssS'5aAx2yezTd8zXrkmtKl66Z'
p2587
(dp2588
g3
S'The Weeknd'
p2589
sg5
I42
sg6
S'https://open.spotify.com/track/5aAx2yezTd8zXrkmtKl66Z'
p2590
sg8
S'Starboy'
p2591
ssS'7tMhLP7gTnPlZJfTOM5s40'
p2592
(dp2593
g3
S'Tone Damli'
p2594
sg5
I1
sg6
S'https://open.spotify.com/track/7tMhLP7gTnPlZJfTOM5s40'
p2595
sg8
S'Di f\xc3\xb8rste jul'
p2596
ssS'1SJtlNRJDeYHioymcvsqev'
p2597
(dp2598
g3
S'Camila Cabello'
p2599
sg5
I20
sg6
S'https://open.spotify.com/track/1SJtlNRJDeYHioymcvsqev'
p2600
sg8
S'Crying in the Club'
p2601
ssS'0Wv5wuenRLI3BcwgT3HPIP'
p2602
(dp2603
g3
S'DJ Snake'
p2604
sg5
I3
sg6
S'https://open.spotify.com/track/0Wv5wuenRLI3BcwgT3HPIP'
p2605
sg8
S'A Different Way (with Lauv)'
p2606
ssS'04DwTuZ2VBdJCCC5TROn7L'
p2607
(dp2608
g3
S'Martin Garrix'
p2609
sg5
I16
sg6
S'https://open.spotify.com/track/04DwTuZ2VBdJCCC5TROn7L'
p2610
sg8
S'In the Name of Love'
p2611
ssS'4fzyvSu73BhGvi96p2zwjL'
p2612
(dp2613
g3
S'Coldplay'
p2614
sg5
I1
sg6
S'https://open.spotify.com/track/4fzyvSu73BhGvi96p2zwjL'
p2615
sg8
S'Christmas Lights'
p2616
ssS'69buuWKab2w87A71hn8NBz'
p2617
(dp2618
g3
S'Lady Antebellum'
p2619
sg5
I1
sg6
S'https://open.spotify.com/track/69buuWKab2w87A71hn8NBz'
p2620
sg8
S"I'll Be Home For Christmas"
p2621
ssS'4JAyIDXOqNM6qHuZML01uX'
p2622
(dp2623
g3
g1277
sg5
I1
sg6
S'https://open.spotify.com/track/4JAyIDXOqNM6qHuZML01uX'
p2624
sg8
g1277
ssS'6VRghJeP6I0w1KxkdWFfIh'
p2625
(dp2626
g3
S'Imagine Dragons'
p2627
sg5
I3
sg6
S'https://open.spotify.com/track/6VRghJeP6I0w1KxkdWFfIh'
p2628
sg8
S'Believer'
p2629
ssS'1B0DvDgNgvmccdfdEK4wB5'
p2630
(dp2631
g3
S'Pitbull'
p2632
sg5
I1
sg6
S'https://open.spotify.com/track/1B0DvDgNgvmccdfdEK4wB5'
p2633
sg8
S'Options'
p2634
ssS'56fCI6qlI3HOE2rjp9SKAm'
p2635
(dp2636
g3
S'Marcus & Martinus'
p2637
sg5
I13
sg6
S'https://open.spotify.com/track/56fCI6qlI3HOE2rjp9SKAm'
p2638
sg8
S'Like It Like It'
p2639
ssS'6SznMYPQJHzr3IwsAHLId2'
p2640
(dp2641
g3
S'Ed Sheeran'
p2642
sg5
I3
sg6
S'https://open.spotify.com/track/6SznMYPQJHzr3IwsAHLId2'
p2643
sg8
S'Bibia Be Ye Ye'
p2644
ssS'1Hqi9O9kEijiPVMruzI9VE'
p2645
(dp2646
g3
S'Future Duper'
p2647
sg5
I1
sg6
S'https://open.spotify.com/track/1Hqi9O9kEijiPVMruzI9VE'
p2648
sg8
S'Feels So Good (feat. Hanne Mj\xc3\xb8en)'
p2649
ssS'7IvsuFIqe5vB6W9GrswYtj'
p2650
(dp2651
g3
S'Freddy Kalas'
p2652
sg5
I4
sg6
S'https://open.spotify.com/track/7IvsuFIqe5vB6W9GrswYtj'
p2653
sg8
S'Sunshine Hits My Face'
p2654
ssS'2Za1AlJNvksouPPWbXpR2X'
p2655
(dp2656
g3
S'Macklemore'
p2657
sg5
I3
sg6
S'https://open.spotify.com/track/2Za1AlJNvksouPPWbXpR2X'
p2658
sg8
S'Good Old Days (feat. Kesha)'
p2659
ssS'46NBoIAHrmR7qcUGCIFEjR'
p2660
(dp2661
g3
S'David Guetta'
p2662
sg5
I4
sg6
S'https://open.spotify.com/track/46NBoIAHrmR7qcUGCIFEjR'
p2663
sg8
S"This One's For You (feat. Zara Larsson) - Official Song UEFA EURO 2016"
p2664
ssS'1DPxxGgNOy8uoknZb7NGoV'
p2665
(dp2666
g3
S'Anderson'
p2667
sg5
I1
sg6
S'https://open.spotify.com/track/1DPxxGgNOy8uoknZb7NGoV'
p2668
sg8
S'Forever Young'
p2669
ssS'0iKZOzJldfcGOIU9pvRhOh'
p2670
(dp2671
g3
S'Karpe Diem'
p2672
sg5
I1
sg6
S'https://open.spotify.com/track/0iKZOzJldfcGOIU9pvRhOh'
p2673
sg8
S'Hus/hotell/slott brenner'
p2674
ssS'0NiXXAI876aGImAd6rTj8w'
p2675
(dp2676
g3
S'Jonas Blue'
p2677
sg5
I14
sg6
S'https://open.spotify.com/track/0NiXXAI876aGImAd6rTj8w'
p2678
sg8
S'Mama'
p2679
ssS'3TeBDiwz0qrBJAFATBcmTx'
p2680
(dp2681
g3
S'Charli XCX'
p2682
sg5
I1
sg6
S'https://open.spotify.com/track/3TeBDiwz0qrBJAFATBcmTx'
p2683
sg8
S'After The Afterparty (feat. Lil Yachty) - Alan Walker Remix'
p2684
ssS'7lrRxkU6yU5giKiWNpbD3T'
p2685
(dp2686
g3
S'Philip Emilio'
p2687
sg5
I1
sg6
S'https://open.spotify.com/track/7lrRxkU6yU5giKiWNpbD3T'
p2688
sg8
S'Uforglemmelig'
p2689
ssS'1MksGqIztTT6M9R1ErKVs8'
p2690
(dp2691
g3
S'Big Sean'
p2692
sg5
I1
sg6
S'https://open.spotify.com/track/1MksGqIztTT6M9R1ErKVs8'
p2693
sg8
S'No Favors'
p2694
ssS'0yfVyirkA5l3m7n66yuWJW'
p2695
(dp2696
g3
S'Travelle'
p2697
sg5
I9
sg6
S'https://open.spotify.com/track/0yfVyirkA5l3m7n66yuWJW'
p2698
sg8
S'Wasted On You'
p2699
ssS'5fX2oPyLCe5mBKqGDbOWqC'
p2700
(dp2701
g3
S'James TW'
p2702
sg5
I38
sg6
S'https://open.spotify.com/track/5fX2oPyLCe5mBKqGDbOWqC'
p2703
sg8
S'When You Love Someone'
p2704
ssS'5Oh3cW5gnEEKPsHb1WrVWm'
p2705
(dp2706
g3
S'DJ Katch'
p2707
sg5
I23
sg6
S'https://open.spotify.com/track/5Oh3cW5gnEEKPsHb1WrVWm'
p2708
sg8
S'Lights Out (Too Drunk) [feat. Hayley]'
p2709
ssS'79e8hwTrPAvAwYc3JFeK6a'
p2710
(dp2711
g3
S'Pojkarna'
p2712
sg5
I8
sg6
S'https://open.spotify.com/track/79e8hwTrPAvAwYc3JFeK6a'
p2713
sg8
S'Raggarock (Pojkarna Som Busar)'
p2714
ssS'1n4jwRVXdkK2U34nBDUKKT'
p2715
(dp2716
g3
S'Kendrick Lamar'
p2717
sg5
I1
sg6
S'https://open.spotify.com/track/1n4jwRVXdkK2U34nBDUKKT'
p2718
sg8
S'BLOOD.'
p2719
ssS'5LYQSNHZxEA880URXFHg6h'
p2720
(dp2721
g3
S'Lana Del Rey'
p2722
sg5
I3
sg6
S'https://open.spotify.com/track/5LYQSNHZxEA880URXFHg6h'
p2723
sg8
S'Lust for Life (with The Weeknd)'
p2724
ssS'4CxBmlWegEeKwYUaFvLzel'
p2725
(dp2726
g3
S'LOKE'
p2727
sg5
I28
sg6
S'https://open.spotify.com/track/4CxBmlWegEeKwYUaFvLzel'
p2728
sg8
S'Kj\xc3\xa6rlighet er mer enn forelskelse'
p2729
ssS'65ACnVMmePTp8Xdk11jP2y'
p2730
(dp2731
g3
S'Zara Larsson'
p2732
sg5
I1
sg6
S'https://open.spotify.com/track/65ACnVMmePTp8Xdk11jP2y'
p2733
sg8
S"Don't Let Me Be Yours"
p2734
ssS'2B2h0JOv0X2lH2CvtciZI6'
p2735
(dp2736
g3
S'Sam Feldt'
p2737
sg5
I5
sg6
S'https://open.spotify.com/track/2B2h0JOv0X2lH2CvtciZI6'
p2738
sg8
S'Fade Away'
p2739
ssS'5Ohxk2dO5COHF1krpoPigN'
p2740
(dp2741
g3
S'Harry Styles'
p2742
sg5
I27
sg6
S'https://open.spotify.com/track/5Ohxk2dO5COHF1krpoPigN'
p2743
sg8
S'Sign of the Times'
p2744
ssS'7fWPyZ8F2n6tr1C4M28Ose'
p2745
(dp2746
g3
S'Morgan Sulele'
p2747
sg5
I18
sg6
S'https://open.spotify.com/track/7fWPyZ8F2n6tr1C4M28Ose'
p2748
sg8
S'Datt ned fra himmelen'
p2749
ssS'5V8UTldYviFao5f63f3GhE'
p2750
(dp2751
g3
S'Elly Ekko'
p2752
sg5
I9
sg6
S'https://open.spotify.com/track/5V8UTldYviFao5f63f3GhE'
p2753
sg8
S'Ikke si det til pappa'
p2754
ssS'6O85MfGECKBqAK2MgSbCaj'
p2755
(dp2756
g3
S'Martin Solveig'
p2757
sg5
I15
sg6
S'https://open.spotify.com/track/6O85MfGECKBqAK2MgSbCaj'
p2758
sg8
S'Places'
p2759
ssS'7Kq16WtEJzdRSNQgdXsn7Y'
p2760
(dp2761
g3
S'Mura Masa'
p2762
sg5
I5
sg6
S'https://open.spotify.com/track/7Kq16WtEJzdRSNQgdXsn7Y'
p2763
sg8
S'Love$ick (feat. A$AP Rocky)'
p2764
ssS'4mxWSdf71VFO52qFeY0fZt'
p2765
(dp2766
g3
S'Maroon 5'
p2767
sg5
I6
sg6
S'https://open.spotify.com/track/4mxWSdf71VFO52qFeY0fZt'
p2768
sg8
S'What Lovers Do (feat. SZA)'
p2769
ssS'1ADjWm8QNhgNV8yCNNgQ1T'
p2770
(dp2771
g3
S'Ariana Grande'
p2772
sg5
I1
sg6
S'https://open.spotify.com/track/1ADjWm8QNhgNV8yCNNgQ1T'
p2773
sg8
S'Santa Tell Me'
p2774
ssS'0ms9nBi0LSjXX3HwvMb2LW'
p2775
(dp2776
g3
S'Katastrofe'
p2777
sg5
I2
sg6
S'https://open.spotify.com/track/0ms9nBi0LSjXX3HwvMb2LW'
p2778
sg8
S'Olav Thon'
p2779
ssS'4Hf7WnR761jpxPr5D46Bcd'
p2780
(dp2781
g3
S'Shawn Mendes'
p2782
sg5
I31
sg6
S'https://open.spotify.com/track/4Hf7WnR761jpxPr5D46Bcd'
p2783
sg8
S'Treat You Better'
p2784
ssS'4BATUkk8UMuiMb6lr5CH5G'
p2785
(dp2786
g3
S'NEIKED'
p2787
sg5
I1
sg6
S'https://open.spotify.com/track/4BATUkk8UMuiMb6lr5CH5G'
p2788
sg8
S'Call Me'
p2789
ssS'4fhVodXZARPX0oTuQh8V9l'
p2790
(dp2791
g3
S'Astrid S'
p2792
sg5
I16
sg6
S'https://open.spotify.com/track/4fhVodXZARPX0oTuQh8V9l'
p2793
sg8
S'Breathe'
p2794
ssS'6CDaYzCjahDKqFAIslpveh'
p2795
(dp2796
g3
S'Life of Dillon'
p2797
sg5
I1
sg6
S'https://open.spotify.com/track/6CDaYzCjahDKqFAIslpveh'
p2798
sg8
S'Sex for Breakfast'
p2799
ssS'4QmVwOTAzBcK6NvRzohOnS'
p2800
(dp2801
g3
S'Jesper Jenset'
p2802
sg5
I1
sg6
S'https://open.spotify.com/track/4QmVwOTAzBcK6NvRzohOnS'
p2803
sg8
S'Painkiller'
p2804
ssS'0dXNQ8dckG4eYfEtq9zcva'
p2805
(dp2806
g3
S'The Vamps'
p2807
sg5
I1
sg6
S'https://open.spotify.com/track/0dXNQ8dckG4eYfEtq9zcva'
p2808
sg8
S'All Night'
p2809
ssS'0Q7bEX4GqwrPxNr4nwKFz0'
p2810
(dp2811
g3
S'Gabrielle'
p2812
sg5
I1
sg6
S'https://open.spotify.com/track/0Q7bEX4GqwrPxNr4nwKFz0'
p2813
sg8
S'Nye Joggesko'
p2814
ssS'1aJ1xeEQ1ivKGnTeuYolJk'
p2815
(dp2816
g3
S'Hook N Sling'
p2817
sg5
I4
sg6
S'https://open.spotify.com/track/1aJ1xeEQ1ivKGnTeuYolJk'
p2818
sg8
S"If You're Hearing This"
p2819
ssS'6ydk9O04ah7Fwny7rCwCUg'
p2820
(dp2821
g3
S'Ulrikke'
p2822
sg5
I1
sg6
S'https://open.spotify.com/track/6ydk9O04ah7Fwny7rCwCUg'
p2823
sg8
S'Places'
p2824
ssS'3dWOuReL6DhczDfhsYXxat'
p2825
(dp2826
g3
S'Sigrid'
p2827
sg5
I20
sg6
S'https://open.spotify.com/track/3dWOuReL6DhczDfhsYXxat'
p2828
sg8
S'Plot Twist'
p2829
ssS'6uan0oAtkx2cqw61eaD6HP'
p2830
(dp2831
g3
S'Den Unge Fleksnes'
p2832
sg5
I1
sg6
S'https://open.spotify.com/track/6uan0oAtkx2cqw61eaD6HP'
p2833
sg8
S'Under m\xc3\xa5nen'
p2834
ssS'4wCC5W40SM7ioNCt1wttvU'
p2835
(dp2836
g3
S'Cezinando'
p2837
sg5
I1
sg6
S'https://open.spotify.com/track/4wCC5W40SM7ioNCt1wttvU'
p2838
sg8
S'Stillhet som skriker til meg'
p2839
ssS'3Cc3ssgsvdSaEbFT6KHBAv'
p2840
(dp2841
g3
S'HEDEGAARD'
p2842
sg5
I8
sg6
S'https://open.spotify.com/track/3Cc3ssgsvdSaEbFT6KHBAv'
p2843
sg8
S'That\xc2\xb4s Me'
p2844
ssS'1EaKU4dMbesXXd3BrLCtYG'
p2845
(dp2846
g3
S'Kendrick Lamar'
p2847
sg5
I4
sg6
S'https://open.spotify.com/track/1EaKU4dMbesXXd3BrLCtYG'
p2848
sg8
S'ELEMENT.'
p2849
ssS'3u9t0sQj0AKssgzqPz1MfU'
p2850
(dp2851
g3
S'Blonde'
p2852
sg5
I1
sg6
S'https://open.spotify.com/track/3u9t0sQj0AKssgzqPz1MfU'
p2853
sg8
S'Just For One Night'
p2854
ssS'5by59kktPwHcZG8JNwKqkS'
p2855
(dp2856
g3
S'Sandra Lyng'
p2857
sg5
I1
sg6
S'https://open.spotify.com/track/5by59kktPwHcZG8JNwKqkS'
p2858
sg8
S'Bungalow'
p2859
ssS'5knuzwU65gJK7IF5yJsuaW'
p2860
(dp2861
g3
S'Clean Bandit'
p2862
sg5
I42
sg6
S'https://open.spotify.com/track/5knuzwU65gJK7IF5yJsuaW'
p2863
sg8
S'Rockabye (feat. Sean Paul & Anne-Marie)'
p2864
ssS'6qR5LhQ3vWE3qYhbaTWrUS'
p2865
(dp2866
g3
S'Tunge Ferrari'
p2867
sg5
I8
sg6
S'https://open.spotify.com/track/6qR5LhQ3vWE3qYhbaTWrUS'
p2868
sg8
S'Hakkebakkeskogen 2017 Guttasnekk'
p2869
ssS'5GyK0VoeWtQvT1Yesd0mVh'
p2870
(dp2871
g3
S'Morgan Sulele'
p2872
sg5
I1
sg6
S'https://open.spotify.com/track/5GyK0VoeWtQvT1Yesd0mVh'
p2873
sg8
S'Under treet'
p2874
ssS'2UwbhMie1EAYuTZ0QXeMwl'
p2875
(dp2876
g3
S'XXXTENTACION'
p2877
sg5
I1
sg6
S'https://open.spotify.com/track/2UwbhMie1EAYuTZ0QXeMwl'
p2878
sg8
S'Save Me'
p2879
ssS'0SDJmLCAWqHTo9bfKRAiRw'
p2880
(dp2881
g3
S'G-Eazy'
p2882
sg5
I1
sg6
S'https://open.spotify.com/track/0SDJmLCAWqHTo9bfKRAiRw'
p2883
sg8
S'Just Friends'
p2884
ssS'6eDJvxlRDYiCYoURDXjtLw'
p2885
(dp2886
g3
S'Jay Sean'
p2887
sg5
I1
sg6
S'https://open.spotify.com/track/6eDJvxlRDYiCYoURDXjtLw'
p2888
sg8
S'Do You Love Me'
p2889
ssS'36YCdzT57us0LhDmCYtrNE'
p2890
(dp2891
g3
S'The Weeknd'
p2892
sg5
I1
sg6
S'https://open.spotify.com/track/36YCdzT57us0LhDmCYtrNE'
p2893
sg8
S'Rockin\xe2\x80\x99'
p2894
ssS'6b8Be6ljOzmkOmFslEb23P'
p2895
(dp2896
g3
S'Bruno Mars'
p2897
sg5
I21
sg6
S'https://open.spotify.com/track/6b8Be6ljOzmkOmFslEb23P'
p2898
sg8
S'24K Magic'
p2899
ssS'3UzZHtA8n2yaHNKDktP0lG'
p2900
(dp2901
g3
S'Susanne Sundf\xc3\xb8r'
p2902
sg5
I1
sg6
S'https://open.spotify.com/track/3UzZHtA8n2yaHNKDktP0lG'
p2903
sg8
S'Undercover'
p2904
ssS'0bYg9bo50gSsH3LtXe2SQn'
p2905
(dp2906
g3
S'Mariah Carey'
p2907
sg5
I2
sg6
S'https://open.spotify.com/track/0bYg9bo50gSsH3LtXe2SQn'
p2908
sg8
S'All I Want for Christmas Is You'
p2909
ssS'6uJwPeBGb3swi85TSr9iIz'
p2910
(dp2911
g3
S'Coldplay'
p2912
sg5
I2
sg6
S'https://open.spotify.com/track/6uJwPeBGb3swi85TSr9iIz'
p2913
sg8
S'Miracles (Someone Special)'
p2914
ssS'4DfxFGwreu9BquiLRClwh8'
p2915
(dp2916
g3
S'John De Sohn'
p2917
sg5
I2
sg6
S'https://open.spotify.com/track/4DfxFGwreu9BquiLRClwh8'
p2918
sg8
S'Hum With Me'
p2919
ssS'04czWbqg96KSO8Szz8d0zp'
p2920
(dp2921
g3
S'Jesper Jenset'
p2922
sg5
I6
sg6
S'https://open.spotify.com/track/04czWbqg96KSO8Szz8d0zp'
p2923
sg8
S'Lies'
p2924
ssS'4so0Wek9Ig1p6CRCHuINwW'
p2925
(dp2926
g3
S'Bing Crosby'
p2927
sg5
I1
sg6
S'https://open.spotify.com/track/4so0Wek9Ig1p6CRCHuINwW'
p2928
sg8
S'White Christmas'
p2929
ssS'5BBuxR2NpZROueVtsUc3kd'
p2930
(dp2931
g3
S'Ingebj\xc3\xb8rg Bratland'
p2932
sg5
I1
sg6
S'https://open.spotify.com/track/5BBuxR2NpZROueVtsUc3kd'
p2933
sg8
S'Vintersong'
p2934
ssS'2TLPe7X53bmxWcBB1sYvKX'
p2935
(dp2936
g3
S'Jonas Benyoub'
p2937
sg5
I2
sg6
S'https://open.spotify.com/track/2TLPe7X53bmxWcBB1sYvKX'
p2938
sg8
S'Youm Wara Youm'
p2939
ssS'4FPrAERfkPKOBKrRoyuxLu'
p2940
(dp2941
g3
S'Michael Bubl\xc3\xa9'
p2942
sg5
I1
sg6
S'https://open.spotify.com/track/4FPrAERfkPKOBKrRoyuxLu'
p2943
sg8
S'Cold December Night'
p2944
ssS'23luOrEVHMfoX0AhfbQuS6'
p2945
(dp2946
g3
S'Kendrick Lamar'
p2947
sg5
I1
sg6
S'https://open.spotify.com/track/23luOrEVHMfoX0AhfbQuS6'
p2948
sg8
S'FEAR.'
p2949
ssS'458ESscRcqCVX1xbllEmPn'
p2950
(dp2951
g3
S'NEIKED'
p2952
sg5
I1
sg6
S'https://open.spotify.com/track/458ESscRcqCVX1xbllEmPn'
p2953
sg8
S'Call Me'
p2954
ssS'5DA77EqppDmCTWGovd4oTP'
p2955
(dp2956
g3
S'Cheat Codes'
p2957
sg5
I18
sg6
S'https://open.spotify.com/track/5DA77EqppDmCTWGovd4oTP'
p2958
sg8
S'Sex'
p2959
ssS'1oa2KQncbIY0ESKeRdF7xQ'
p2960
(dp2961
g3
S'Philip Emilio'
p2962
sg5
I1
sg6
S'https://open.spotify.com/track/1oa2KQncbIY0ESKeRdF7xQ'
p2963
sg8
S'VIII'
p2964
ssS'4h90qkbnW1Qq6pBhoPvwko'
p2965
(dp2966
g3
S'The Weeknd'
p2967
sg5
I8
sg6
S'https://open.spotify.com/track/4h90qkbnW1Qq6pBhoPvwko'
p2968
sg8
S'Sidewalks'
p2969
ssS'2UUJAjlQvxa9kzYRYSKtyV'
p2970
(dp2971
g3
S'Morgan Sulele'
p2972
sg5
I37
sg6
S'https://open.spotify.com/track/2UUJAjlQvxa9kzYRYSKtyV'
p2973
sg8
S'H\xc3\xb8yt over Oslo'
p2974
ssS'5WEFnS38UuTJzEPsGiYGMS'
p2975
(dp2976
g3
S'Kurt Nilsen'
p2977
sg5
I1
sg6
S'https://open.spotify.com/track/5WEFnS38UuTJzEPsGiYGMS'
p2978
sg8
S'White Christmas'
p2979
ssS'7F9vK8hNFMml4GtHsaXui6'
p2980
(dp2981
g3
S'Louis Tomlinson'
p2982
sg5
I12
sg6
S'https://open.spotify.com/track/7F9vK8hNFMml4GtHsaXui6'
p2983
sg8
S'Back to You (feat. Bebe Rexha & Digital Farm Animals)'
p2984
ssS'11Fo4dAH31K7UZHGqCkCmE'
p2985
(dp2986
g3
S'Axwell /\\ Ingrosso'
p2987
sg5
I17
sg6
S'https://open.spotify.com/track/11Fo4dAH31K7UZHGqCkCmE'
p2988
sg8
S'I Love You'
p2989
ssS'01U6WT6MCIejFGFOTXd8fb'
p2990
(dp2991
g3
S'Karpe Diem'
p2992
sg5
I1
sg6
S'https://open.spotify.com/track/01U6WT6MCIejFGFOTXd8fb'
p2993
sg8
S'Den islamske elefanten'
p2994
ssS'4QfqyabOT0F2QMbkD1ay91'
p2995
(dp2996
g3
S'Zak Abel'
p2997
sg5
I2
sg6
S'https://open.spotify.com/track/4QfqyabOT0F2QMbkD1ay91'
p2998
sg8
S'All I Ever Do (Is Say Goodbye)'
p2999
ssS'6SUocL0caib4mLHe8ZrZzi'
p3000
(dp3001
g3
S'Rudimental'
p3002
sg5
I1
sg6
S'https://open.spotify.com/track/6SUocL0caib4mLHe8ZrZzi'
p3003
sg8
S'Sun Comes Up'
p3004
ssS'59GOf2vvt1WFPzsvQDhVUw'
p3005
(dp3006
g3
S'eMMa'
p3007
sg5
I2
sg6
S'https://open.spotify.com/track/59GOf2vvt1WFPzsvQDhVUw'
p3008
sg8
S'Engler i sne'
p3009
ssS'085P5EeN5klqproZcyNuVr'
p3010
(dp3011
g3
S'Temmpo'
p3012
sg5
I1
sg6
S'https://open.spotify.com/track/085P5EeN5klqproZcyNuVr'
p3013
sg8
S'Nobody'
p3014
ssS'0B48113ZG9UfkWWt7qD9xX'
p3015
(dp3016
g3
S'Miley Cyrus'
p3017
sg5
I4
sg6
S'https://open.spotify.com/track/0B48113ZG9UfkWWt7qD9xX'
p3018
sg8
S'Younger Now'
p3019
ssS'2EEeOnHehOozLq4aS0n6SL'
p3020
(dp3021
g3
S'KYLE'
p3022
sg5
I19
sg6
S'https://open.spotify.com/track/2EEeOnHehOozLq4aS0n6SL'
p3023
sg8
S'iSpy (feat. Lil Yachty)'
p3024
ssS'3d9JucRI60arArgQXqtfjJ'
p3025
(dp3026
g3
S'Alesso'
p3027
sg5
I4
sg6
S'https://open.spotify.com/track/3d9JucRI60arArgQXqtfjJ'
p3028
sg8
S'Falling'
p3029
ssS'4q1WaJZoHTtojqDHX8QvaC'
p3030
(dp3031
g3
S'VAX'
p3032
sg5
I5
sg6
S'https://open.spotify.com/track/4q1WaJZoHTtojqDHX8QvaC'
p3033
sg8
S'Fireproof'
p3034
ssS'2H3wWrnO758y0fPH7Ilerg'
p3035
(dp3036
g3
S'XXXTENTACION'
p3037
sg5
I2
sg6
S'https://open.spotify.com/track/2H3wWrnO758y0fPH7Ilerg'
p3038
sg8
S'Depression & Obsession'
p3039
ssS'7F1LWA9sIlTorHUo4amGqk'
p3040
(dp3041
g3
S'The Weeknd'
p3042
sg5
I3
sg6
S'https://open.spotify.com/track/7F1LWA9sIlTorHUo4amGqk'
p3043
sg8
S'Reminder - Remix'
p3044
ssS'5FMWyzzewKV4w39GHGwu5A'
p3045
(dp3046
g3
S'Per Asplin'
p3047
sg5
I1
sg6
S'https://open.spotify.com/track/5FMWyzzewKV4w39GHGwu5A'
p3048
sg8
S'Hei Ha Na Er Det Jul Igjen'
p3049
ssS'5bcTCxgc7xVfSaMV3RuVke'
p3050
(dp3051
g3
S'Calvin Harris'
p3052
sg5
I16
sg6
S'https://open.spotify.com/track/5bcTCxgc7xVfSaMV3RuVke'
p3053
sg8
S'Feels'
p3054
ssS'0QsvXIfqM0zZoerQfsI9lm'
p3055
(dp3056
g3
S'The Chainsmokers'
p3057
sg5
I29
sg6
S'https://open.spotify.com/track/0QsvXIfqM0zZoerQfsI9lm'
p3058
sg8
S"Don't Let Me Down"
p3059
ssS'3gx9sGz4yWczhfvt8i0MCK'
p3060
(dp3061
g3
S'Broiler'
p3062
sg5
I11
sg6
S'https://open.spotify.com/track/3gx9sGz4yWczhfvt8i0MCK'
p3063
sg8
S'Undercover'
p3064
ssS'0zZ2YoqtzhDn6GYlUd4WPI'
p3065
(dp3066
g3
S'Aksel & Hef'
p3067
sg5
I11
sg6
S'https://open.spotify.com/track/0zZ2YoqtzhDn6GYlUd4WPI'
p3068
sg8
S'Copacabana'
p3069
ssS'4qqArAiTPueDxIp7cf87h7'
p3070
(dp3071
g3
S'M\xc3\x98'
p3072
sg5
I11
sg6
S'https://open.spotify.com/track/4qqArAiTPueDxIp7cf87h7'
p3073
sg8
S'Final Song'
p3074
ssS'5hslUAKq9I9CG2bAulFkHN'
p3075
(dp3076
g3
S'Andy Williams'
p3077
sg5
I1
sg6
S'https://open.spotify.com/track/5hslUAKq9I9CG2bAulFkHN'
p3078
sg8
S"It's the Most Wonderful Time of the Year"
p3079
ssS'4R2u9nFjSycaZsEYAe5Kc0'
p3080
(dp3081
g3
S'Charli XCX'
p3082
sg5
I1
sg6
S'https://open.spotify.com/track/4R2u9nFjSycaZsEYAe5Kc0'
p3083
sg8
S'3AM (Pull Up) (feat. M\xc3\x98)'
p3084
ssS'3a1lNhkSLSkpJE4MSHpDu9'
p3085
(dp3086
g3
S'Post Malone'
p3087
sg5
I35
sg6
S'https://open.spotify.com/track/3a1lNhkSLSkpJE4MSHpDu9'
p3088
sg8
S'Congratulations'
p3089
ssS'6Isdbs680ZCudiMwBPFHP8'
p3090
(dp3091
g3
S'Cezinando'
p3092
sg5
I1
sg6
S'https://open.spotify.com/track/6Isdbs680ZCudiMwBPFHP8'
p3093
sg8
S'Selv du'
p3094
ssS'0dyiHoYbYjYaOEXLpmzQZG'
p3095
(dp3096
g3
S'Lorde'
p3097
sg5
I1
sg6
S'https://open.spotify.com/track/0dyiHoYbYjYaOEXLpmzQZG'
p3098
sg8
S'Supercut'
p3099
ssS'6foxplXS0YEq8cO374Lty4'
p3100
(dp3101
g3
S'Lil Pump'
p3102
sg5
I3
sg6
S'https://open.spotify.com/track/6foxplXS0YEq8cO374Lty4'
p3103
sg8
S'Gucci Gang'
p3104
ssS'6yr8GiTHWvFfi4o6Q5ebdT'
p3105
(dp3106
g3
S'Eminem'
p3107
sg5
I11
sg6
S'https://open.spotify.com/track/6yr8GiTHWvFfi4o6Q5ebdT'
p3108
sg8
S"'Till I Collapse"
p3109
ssS'75UgVqUgjKxLv8csZUw9vJ'
p3110
(dp3111
g3
S'Highasakite'
p3112
sg5
I3
sg6
S'https://open.spotify.com/track/75UgVqUgjKxLv8csZUw9vJ'
p3113
sg8
S'Golden Ticket'
p3114
ssS'45xnCasoCrNoJym3tBbF9S'
p3115
(dp3116
g3
S'Postgirobygget'
p3117
sg5
I1
sg6
S'https://open.spotify.com/track/45xnCasoCrNoJym3tBbF9S'
p3118
sg8
S'Idyll'
p3119
ssS'2fkeWbM6iqTw7oGHTYm2lw'
p3120
(dp3121
g3
S'Drake'
p3122
sg5
I2
sg6
S'https://open.spotify.com/track/2fkeWbM6iqTw7oGHTYm2lw'
p3123
sg8
S'4422'
p3124
ssS'0ofbQMrRDsUaVKq2mGLEAb'
p3125
(dp3126
g3
S'Camila Cabello'
p3127
sg5
I10
sg6
S'https://open.spotify.com/track/0ofbQMrRDsUaVKq2mGLEAb'
p3128
sg8
S'Havana'
p3129
ssS'0jefzmTNGgqmxVgMbNWdOa'
p3130
(dp3131
g3
S'Freddy Kalas'
p3132
sg5
I27
sg6
S'https://open.spotify.com/track/0jefzmTNGgqmxVgMbNWdOa'
p3133
sg8
S'Pinne for landet'
p3134
ssS'5hvc7d8kSekWr0q437jnfA'
p3135
(dp3136
g3
S'Susanne Sundf\xc3\xb8r'
p3137
sg5
I1
sg6
S'https://open.spotify.com/track/5hvc7d8kSekWr0q437jnfA'
p3138
sg8
S'Good Luck Bad Luck'
p3139
ssS'0IAWEOyXiltxOj5b5OPYDK'
p3140
(dp3141
g3
S'Erik Og Kriss'
p3142
sg5
I7
sg6
S'https://open.spotify.com/track/0IAWEOyXiltxOj5b5OPYDK'
p3143
sg8
S'Det er alle de sm\xc3\xa5 tingene som gj\xc3\xb8r livet stort'
p3144
ssS'6bLopGnirdrilrpdVB6Um1'
p3145
(dp3146
g3
S'Sia'
p3147
sg5
I4
sg6
S'https://open.spotify.com/track/6bLopGnirdrilrpdVB6Um1'
p3148
sg8
S'The Greatest'
p3149
ssS'1vvNmPOiUuyCbgWmtc6yfm'
p3150
(dp3151
g3
S'Calvin Harris'
p3152
sg5
I9
sg6
S'https://open.spotify.com/track/1vvNmPOiUuyCbgWmtc6yfm'
p3153
sg8
S'My Way'
p3154
ssS'7DQXiMeLqiQsy1uqHSk0xc'
p3155
(dp3156
g3
S'Shawn Hook'
p3157
sg5
I1
sg6
S'https://open.spotify.com/track/7DQXiMeLqiQsy1uqHSk0xc'
p3158
sg8
S'Reminding Me'
p3159
ssS'3V9DfRoS7JfSkuTyNEsCxQ'
p3160
(dp3161
g3
S'Martin Jensen'
p3162
sg5
I4
sg6
S'https://open.spotify.com/track/3V9DfRoS7JfSkuTyNEsCxQ'
p3163
sg8
S'Wait'
p3164
ssS'4WrS6vezaPwOafKJmHqMEU'
p3165
(dp3166
g3
S'Jax Jones'
p3167
sg5
I1
sg6
S'https://open.spotify.com/track/4WrS6vezaPwOafKJmHqMEU'
p3168
sg8
S"You Don't Know Me - Radio Edit"
p3169
ssS'4S7IW3QMRTfoPsuW0bsMyl'
p3170
(dp3171
g3
S'Ina Wroldsen'
p3172
sg5
I8
sg6
S'https://open.spotify.com/track/4S7IW3QMRTfoPsuW0bsMyl'
p3173
sg8
S'Lay It On Me'
p3174
ssS'1Sl3njkhhz8nrSPZroDQ82'
p3175
(dp3176
g3
S'Dimitri Vegas & Like Mike'
p3177
sg5
I11
sg6
S'https://open.spotify.com/track/1Sl3njkhhz8nrSPZroDQ82'
p3178
sg8
S'Complicated (feat. Kiiara)'
p3179
ssS'5Orlnis8mwywCBgZG7VTjV'
p3180
(dp3181
g3
S'Hardwell'
p3182
sg5
I1
sg6
S'https://open.spotify.com/track/5Orlnis8mwywCBgZG7VTjV'
p3183
sg8
S'Creatures Of The Night'
p3184
ssS'0TzWLXV3gnCqTSzOYrLs8h'
p3185
(dp3186
g3
S'Bearson'
p3187
sg5
I2
sg6
S'https://open.spotify.com/track/0TzWLXV3gnCqTSzOYrLs8h'
p3188
sg8
S'One Step At A Time'
p3189
ssS'1AJQ97yAt6xfeF7nQaE1t8'
p3190
(dp3191
g3
S'Imagine Dragons'
p3192
sg5
I1
sg6
S'https://open.spotify.com/track/1AJQ97yAt6xfeF7nQaE1t8'
p3193
sg8
S'Walking The Wire'
p3194
ssS'2ZE3DJuizYTad2S4CvRRhK'
p3195
(dp3196
g3
S'Lauv'
p3197
sg5
I1
sg6
S'https://open.spotify.com/track/2ZE3DJuizYTad2S4CvRRhK'
p3198
sg8
S'Easy Love'
p3199
ssS'0vbGtjxIN6Baztc9geaAEG'
p3200
(dp3201
g3
S'Icona Pop'
p3202
sg5
I3
sg6
S'https://open.spotify.com/track/0vbGtjxIN6Baztc9geaAEG'
p3203
sg8
S'GIRLS GIRLS'
p3204
ssS'2rb5MvYT7ZIxbKW5hfcHx8'
p3205
(dp3206
g3
S'J Balvin'
p3207
sg5
I14
sg6
S'https://open.spotify.com/track/2rb5MvYT7ZIxbKW5hfcHx8'
p3208
sg8
S'Mi Gente'
p3209
ssS'1NDxZ7cFAo481dtYWdrUnR'
p3210
(dp3211
g3
S'Maggie Lindemann'
p3212
sg5
I27
sg6
S'https://open.spotify.com/track/1NDxZ7cFAo481dtYWdrUnR'
p3213
sg8
S'Pretty Girl - Cheat Codes X CADE Remix'
p3214
ssS'2aFiaMXmWsM3Vj72F9ksBl'
p3215
(dp3216
g3
S'DNCE'
p3217
sg5
I1
sg6
S'https://open.spotify.com/track/2aFiaMXmWsM3Vj72F9ksBl'
p3218
sg8
S'Cake By The Ocean'
p3219
ssS'152lZdxL1OR0ZMW6KquMif'
p3220
(dp3221
g3
S'Khalid'
p3222
sg5
I28
sg6
S'https://open.spotify.com/track/152lZdxL1OR0ZMW6KquMif'
p3223
sg8
S'Location'
p3224
ssS'4XuK9jJP3mpYBq5qf68vfF'
p3225
(dp3226
g3
S'Julie Bergan'
p3227
sg5
I34
sg6
S'https://open.spotify.com/track/4XuK9jJP3mpYBq5qf68vfF'
p3228
sg8
S'Arigato'
p3229
ssS'7B7OdAjUTyMAmnaUmuneVW'
p3230
(dp3231
g3
S'Freddy Kalas'
p3232
sg5
I34
sg6
S'https://open.spotify.com/track/7B7OdAjUTyMAmnaUmuneVW'
p3233
sg8
S'Feel Da Rush'
p3234
ssS'164C9bSF4ryqWXI4XgxTE0'
p3235
(dp3236
g3
S'Davai'
p3237
sg5
I7
sg6
S'https://open.spotify.com/track/164C9bSF4ryqWXI4XgxTE0'
p3238
sg8
S'Replay'
p3239
ssS'6EcTjceNc3WhEqrWzXIFwA'
p3240
(dp3241
g3
S'Hkeem'
p3242
sg5
I28
sg6
S'https://open.spotify.com/track/6EcTjceNc3WhEqrWzXIFwA'
p3243
sg8
S'Fy faen'
p3244
ssS'4QdovcM8j50QPlyR7tH4xe'
p3245
(dp3246
g3
S'Marc E. Bassy'
p3247
sg5
I4
sg6
S'https://open.spotify.com/track/4QdovcM8j50QPlyR7tH4xe'
p3248
sg8
S'You & Me'
p3249
ssS'3RXkboS74UYzN14xTqzPyY'
p3250
(dp3251
g3
g1277
sg5
I1
sg6
S'https://open.spotify.com/track/3RXkboS74UYzN14xTqzPyY'
p3252
sg8
g1277
ssS'4Q3N4Ct4zCuIHuZ65E3BD4'
p3253
(dp3254
g3
S'Kodak Black'
p3255
sg5
I2
sg6
S'https://open.spotify.com/track/4Q3N4Ct4zCuIHuZ65E3BD4'
p3256
sg8
S'Tunnel Vision'
p3257
ssS'6s5smacBOoWoI08Vi6EX5T'
p3258
(dp3259
g3
S'Seeb'
p3260
sg5
I2
sg6
S'https://open.spotify.com/track/6s5smacBOoWoI08Vi6EX5T'
p3261
sg8
S'Breathe'
p3262
ssS'5TvE3pk05pyFIGdSY9j4DJ'
p3263
(dp3264
g3
S'A Great Big World'
p3265
sg5
I1
sg6
S'https://open.spotify.com/track/5TvE3pk05pyFIGdSY9j4DJ'
p3266
sg8
S'Say Something'
p3267
ssS'0oxC48oJtC8cd9VngkGwFF'
p3268
(dp3269
g3
S'Arif'
p3270
sg5
I1
sg6
S'https://open.spotify.com/track/0oxC48oJtC8cd9VngkGwFF'
p3271
sg8
S'BBB'
p3272
ssS'7LgatCb8lCxHqaUOeyg2UV'
p3273
(dp3274
g3
S'JCY'
p3275
sg5
I7
sg6
S'https://open.spotify.com/track/7LgatCb8lCxHqaUOeyg2UV'
p3276
sg8
S'Thong Song (feat. Sisqo)'
p3277
ssS'1FUViuNSldssMIawrOXF2i'
p3278
(dp3279
g3
S'Bebe Rexha'
p3280
sg5
I16
sg6
S'https://open.spotify.com/track/1FUViuNSldssMIawrOXF2i'
p3281
sg8
S'I Got You'
p3282
ssS'2DQHzXM5eKjunrgtcnsefC'
p3283
(dp3284
g3
S'Julie Bergan'
p3285
sg5
I11
sg6
S'https://open.spotify.com/track/2DQHzXM5eKjunrgtcnsefC'
p3286
sg8
S'Blackout'
p3287
ssS'1TEm7XXHZGrev6ZM9NxRId'
p3288
(dp3289
g3
S'Donkeyboy'
p3290
sg5
I4
sg6
S'https://open.spotify.com/track/1TEm7XXHZGrev6ZM9NxRId'
p3291
sg8
S'Kaleidoscope'
p3292
ssS'4kAo2BE0CZNkBxQViWWV2x'
p3293
(dp3294
g3
S'Arif'
p3295
sg5
I20
sg6
S'https://open.spotify.com/track/4kAo2BE0CZNkBxQViWWV2x'
p3296
sg8
S'Alene'
p3297
ssS'0htoN1Awu7SQy0bDVpWMfH'
p3298
(dp3299
g3
S'Katastrofe'
p3300
sg5
I29
sg6
S'https://open.spotify.com/track/0htoN1Awu7SQy0bDVpWMfH'
p3301
sg8
S'Om Alt G\xc3\xa5r Til Helvete'
p3302
ssS'7HGHhLbAklVxGkYdwyeVML'
p3303
(dp3304
g3
S'Vigiland'
p3305
sg5
I24
sg6
S'https://open.spotify.com/track/7HGHhLbAklVxGkYdwyeVML'
p3306
sg8
S'Friday Night'
p3307
ssS'3cNjgVBKTJ1SvKhunrCdVy'
p3308
(dp3309
g3
S'Joel Adams'
p3310
sg5
I16
sg6
S'https://open.spotify.com/track/3cNjgVBKTJ1SvKhunrCdVy'
p3311
sg8
S"Please Don't Go"
p3312
ssS'6OuV4vfyb8v3vGGGksqyKf'
p3313
(dp3314
g3
S'AJR'
p3315
sg5
I2
sg6
S'https://open.spotify.com/track/6OuV4vfyb8v3vGGGksqyKf'
p3316
sg8
S'Weak'
p3317
ssS'542Xd5qDeLBvgXZXhfW7LE'
p3318
(dp3319
g3
S'Vice'
p3320
sg5
I3
sg6
S'https://open.spotify.com/track/542Xd5qDeLBvgXZXhfW7LE'
p3321
sg8
S'Obsession (feat. Jon Bellion)'
p3322
ssS'4Q4jmPHwu0wrJvqrld0FQ6'
p3323
(dp3324
g3
S'Zara Larsson'
p3325
sg5
I16
sg6
S'https://open.spotify.com/track/4Q4jmPHwu0wrJvqrld0FQ6'
p3326
sg8
S'I Would Like'
p3327
ssS'5xpScO7frkFncHij08H2C8'
p3328
(dp3329
g3
S'Tungevaag & Raaban'
p3330
sg5
I13
sg6
S'https://open.spotify.com/track/5xpScO7frkFncHij08H2C8'
p3331
sg8
S'Cold Blood'
p3332
ssS'7yyRTcZmCiyzzJlNzGC9Ol'
p3333
(dp3334
g3
S'DRAM'
p3335
sg5
I3
sg6
S'https://open.spotify.com/track/7yyRTcZmCiyzzJlNzGC9Ol'
p3336
sg8
S'Broccoli (feat. Lil Yachty)'
p3337
ssS'6HViP4DVYa8gQtxLndmhwu'
p3338
(dp3339
g3
S'M\xc3\xb8me'
p3340
sg5
I3
sg6
S'https://open.spotify.com/track/6HViP4DVYa8gQtxLndmhwu'
p3341
sg8
S'Aloha'
p3342
ssS'3zHq9ouUJQFQRf3cm1rRLu'
p3343
(dp3344
g3
S'Ellie Goulding'
p3345
sg5
I1
sg6
S'https://open.spotify.com/track/3zHq9ouUJQFQRf3cm1rRLu'
p3346
sg8
S'Love Me Like You Do - From Fifty Shades Of Grey'
p3347
ssS'6Btgsd6Sqp5ARtdtbq5A50'
p3348
(dp3349
g3
S'Mugisho'
p3350
sg5
I4
sg6
S'https://open.spotify.com/track/6Btgsd6Sqp5ARtdtbq5A50'
p3351
sg8
S'Play With You'
p3352
ssS'2Fjz5ZC5BvFdCqcnTZ3ilH'
p3353
(dp3354
g3
S'Alan Walker'
p3355
sg5
I39
sg6
S'https://open.spotify.com/track/2Fjz5ZC5BvFdCqcnTZ3ilH'
p3356
sg8
S'Sing Me to Sleep'
p3357
ssS'4CRk8QpQ2KNS7N5S2xjEjQ'
p3358
(dp3359
g3
S'Tinie Tempah'
p3360
sg5
I1
sg6
S'https://open.spotify.com/track/4CRk8QpQ2KNS7N5S2xjEjQ'
p3361
sg8
S'Text From Your Ex (feat. Tinashe)'
p3362
ssS'4ricyQVd20UQde1jpXCSuJ'
p3363
(dp3364
g3
S'Tony Bennett'
p3365
sg5
I1
sg6
S'https://open.spotify.com/track/4ricyQVd20UQde1jpXCSuJ'
p3366
sg8
S'Winter Wonderland'
p3367
ssS'2771LMNxwf62FTAdpJMQfM'
p3368
(dp3369
g3
S'Cardi B'
p3370
sg5
I8
sg6
S'https://open.spotify.com/track/2771LMNxwf62FTAdpJMQfM'
p3371
sg8
S'Bodak Yellow'
p3372
ssS'3RgPhJXEYevqvKGzL3REyU'
p3373
(dp3374
g3
S'Cezinando'
p3375
sg5
I1
sg6
S'https://open.spotify.com/track/3RgPhJXEYevqvKGzL3REyU'
p3376
sg8
S'Vi er perfekt men verden er ikke det'
p3377
ssS'6PCUP3dWmTjcTtXY02oFdT'
p3378
(dp3379
g3
S'Ed Sheeran'
p3380
sg5
I40
sg6
S'https://open.spotify.com/track/6PCUP3dWmTjcTtXY02oFdT'
p3381
sg8
S'Castle on the Hill'
p3382
ssS'51PIvodunv6NmX5250zxAh'
p3383
(dp3384
g3
S'Lady Gaga'
p3385
sg5
I8
sg6
S'https://open.spotify.com/track/51PIvodunv6NmX5250zxAh'
p3386
sg8
S'The Cure'
p3387
ssS'5pvVAwQbuFoR7LkcicrKnk'
p3388
(dp3389
g3
S'Vice'
p3390
sg5
I11
sg6
S'https://open.spotify.com/track/5pvVAwQbuFoR7LkcicrKnk'
p3391
sg8
S'Obsession (feat. Jon Bellion)'
p3392
ssS'0mpGqqBUldbPqKfJ0nrdzj'
p3393
(dp3394
g3
S'Susanne Sundf\xc3\xb8r'
p3395
sg5
I1
sg6
S'https://open.spotify.com/track/0mpGqqBUldbPqKfJ0nrdzj'
p3396
sg8
S'The Sound Of War'
p3397
ssS'5ev0Z2lFzmhjlQCWpRAWiG'
p3398
(dp3399
g3
S'Sigala'
p3400
sg5
I10
sg6
S'https://open.spotify.com/track/5ev0Z2lFzmhjlQCWpRAWiG'
p3401
sg8
S'Only One - Radio Edit'
p3402
ssS'104buTcnP2AsxqB7U1FIZ4'
p3403
(dp3404
g3
S'Linkin Park'
p3405
sg5
I6
sg6
S'https://open.spotify.com/track/104buTcnP2AsxqB7U1FIZ4'
p3406
sg8
S'Heavy (feat. Kiiara)'
p3407
ssS'3hRZsdTF5uyGA2uhNqEuhm'
p3408
(dp3409
g3
S'Niall Horan'
p3410
sg5
I4
sg6
S'https://open.spotify.com/track/3hRZsdTF5uyGA2uhNqEuhm'
p3411
sg8
S'Too Much To Ask'
p3412
ssS'2kM6eh8JBEzYRbrYZ90Jlq'
p3413
(dp3414
g3
S'Karpe Diem'
p3415
sg5
I36
sg6
S'https://open.spotify.com/track/2kM6eh8JBEzYRbrYZ90Jlq'
p3416
sg8
S'Sulten 2 (Live p\xc3\xa5 NRK P3)'
p3417
ssS'0N48TkVa2cFUDhebZJ75zc'
p3418
(dp3419
g3
S'Broiler'
p3420
sg5
I1
sg6
S'https://open.spotify.com/track/0N48TkVa2cFUDhebZJ75zc'
p3421
sg8
S'Money'
p3422
ssS'43jBqV3j3Xi1g6wO0bhIMd'
p3423
(dp3424
g3
S'Sage The Gemini'
p3425
sg5
I22
sg6
S'https://open.spotify.com/track/43jBqV3j3Xi1g6wO0bhIMd'
p3426
sg8
S'Now and Later'
p3427
ssS'650OeHTLxZAQmb4aEbGmaA'
p3428
(dp3429
g3
S'Linkin Park'
p3430
sg5
I1
sg6
S'https://open.spotify.com/track/650OeHTLxZAQmb4aEbGmaA'
p3431
sg8
S'Good Goodbye (feat. Pusha T and Stormzy)'
p3432
ssS'1PSBzsahR2AKwLJgx8ehBj'
p3433
(dp3434
g3
S'Machine Gun Kelly'
p3435
sg5
I12
sg6
S'https://open.spotify.com/track/1PSBzsahR2AKwLJgx8ehBj'
p3436
sg8
S'Bad Things (with Camila Cabello)'
p3437
ssS'63GEsxJXNDtbwNQiqZQQvh'
p3438
(dp3439
g3
S'Sonny Alven'
p3440
sg5
I1
sg6
S'https://open.spotify.com/track/63GEsxJXNDtbwNQiqZQQvh'
p3441
sg8
S'Awake'
p3442
ssS'6HZILIRieu8S0iqY8kIKhj'
p3443
(dp3444
g3
S'Kendrick Lamar'
p3445
sg5
I16
sg6
S'https://open.spotify.com/track/6HZILIRieu8S0iqY8kIKhj'
p3446
sg8
S'DNA.'
p3447
ssS'7KOlJ92bu51cltsD9KU5I7'
p3448
(dp3449
g3
S'Migos'
p3450
sg5
I3
sg6
S'https://open.spotify.com/track/7KOlJ92bu51cltsD9KU5I7'
p3451
sg8
S'T-Shirt'
p3452
ssS'0D8ZpOXVjapLXrjz5VfZSD'
p3453
(dp3454
g3
S'Sam Smith'
p3455
sg5
I1
sg6
S'https://open.spotify.com/track/0D8ZpOXVjapLXrjz5VfZSD'
p3456
sg8
S'Pray'
p3457
ssS'1My0Hfu5dTCbYisBk9ZRGr'
p3458
(dp3459
g3
S'Galantis'
p3460
sg5
I4
sg6
S'https://open.spotify.com/track/1My0Hfu5dTCbYisBk9ZRGr'
p3461
sg8
S'Hunter'
p3462
ssS'0cO5UHZoHwucbEV1MJVPC9'
p3463
(dp3464
g3
S'Louam'
p3465
sg5
I1
sg6
S'https://open.spotify.com/track/0cO5UHZoHwucbEV1MJVPC9'
p3466
sg8
S'BabyBaby (Zimpzon Remix)'
p3467
ssS'3m660poUr1chesgkkjQM7P'
p3468
(dp3469
g3
S'Demi Lovato'
p3470
sg5
I2
sg6
S'https://open.spotify.com/track/3m660poUr1chesgkkjQM7P'
p3471
sg8
S'Sorry Not Sorry'
p3472
ssS'3SGWp9fJCzgK0WcpcKSQdy'
p3473
(dp3474
g3
S'Stanaj'
p3475
sg5
I12
sg6
S'https://open.spotify.com/track/3SGWp9fJCzgK0WcpcKSQdy'
p3476
sg8
S'Romantic - NOTD Remix'
p3477
ssS'1a13lJDJfoIwl1sfjVWy4j'
p3478
(dp3479
g3
S'Rotlaus'
p3480
sg5
I21
sg6
S'https://open.spotify.com/track/1a13lJDJfoIwl1sfjVWy4j'
p3481
sg8
S'Rundt neste sving'
p3482
ssS'2Vhd5uZB4brKHmM0MNxkZo'
p3483
(dp3484
g3
S'Kygo'
p3485
sg5
I14
sg6
S'https://open.spotify.com/track/2Vhd5uZB4brKHmM0MNxkZo'
p3486
sg8
S'Raging'
p3487
ssS'43ZyHQITOjhciSUUNPVRHc'
p3488
(dp3489
g3
S'Lil Pump'
p3490
sg5
I1
sg6
S'https://open.spotify.com/track/43ZyHQITOjhciSUUNPVRHc'
p3491
sg8
S'Gucci Gang'
p3492
ssS'4pHCnQX9EOCmtT3zXYuiDa'
p3493
(dp3494
g3
S'TIX'
p3495
sg5
I3
sg6
S'https://open.spotify.com/track/4pHCnQX9EOCmtT3zXYuiDa'
p3496
sg8
S'Geriljaen 2017'
p3497
ssS'3gfmFoJgmn9LiIj5mV8oSS'
p3498
(dp3499
g3
S'R3HAB'
p3500
sg5
I1
sg6
S'https://open.spotify.com/track/3gfmFoJgmn9LiIj5mV8oSS'
p3501
sg8
S"I Just Can't"
p3502
ssS'3ebXMykcMXOcLeJ9xZ17XH'
p3503
(dp3504
g3
S'Martin Garrix'
p3505
sg5
I37
sg6
S'https://open.spotify.com/track/3ebXMykcMXOcLeJ9xZ17XH'
p3506
sg8
S'Scared to Be Lonely'
p3507
ssS'6fujklziTHa8uoM5OQSfIo'
p3508
(dp3509
g3
S'Rae Sremmurd'
p3510
sg5
I15
sg6
S'https://open.spotify.com/track/6fujklziTHa8uoM5OQSfIo'
p3511
sg8
S'Black Beatles'
p3512
ssS'19WjVVgXjdKXfLXoaDPwTM'
p3513
(dp3514
g3
S'Taylor Swift'
p3515
sg5
I5
sg6
S'https://open.spotify.com/track/19WjVVgXjdKXfLXoaDPwTM'
p3516
sg8
S'...Ready For It?'
p3517
ssS'6UjfByV1lDLW0SOVQA4NAi'
p3518
(dp3519
g3
S'Drake'
p3520
sg5
I3
sg6
S'https://open.spotify.com/track/6UjfByV1lDLW0SOVQA4NAi'
p3521
sg8
S'Gyalchester'
p3522
ssS'0Gw9fznCDbfSxQIKgIa4Ta'
p3523
(dp3524
g3
S'Susanne Sundf\xc3\xb8r'
p3525
sg5
I4
sg6
S'https://open.spotify.com/track/0Gw9fznCDbfSxQIKgIa4Ta'
p3526
sg8
S'Reincarnation'
p3527
ssS'4gqMQftUs22F8pOGVn5Acr'
p3528
(dp3529
g3
S'Shawn Hook'
p3530
sg5
I9
sg6
S'https://open.spotify.com/track/4gqMQftUs22F8pOGVn5Acr'
p3531
sg8
S'Reminding Me'
p3532
ssS'6r2BFEIErNwG0owW4rOQB8'
p3533
(dp3534
g3
S'Coldplay'
p3535
sg5
I1
sg6
S'https://open.spotify.com/track/6r2BFEIErNwG0owW4rOQB8'
p3536
sg8
S'Everglow - Single Version'
p3537
ssS'3f8TbkkP0VIdOKvLTMMTvU'
p3538
(dp3539
g3
S'Kygo'
p3540
sg5
I16
sg6
S'https://open.spotify.com/track/3f8TbkkP0VIdOKvLTMMTvU'
p3541
sg8
S'Cruise - From Fifty Shades Darker (Original Motion Picture Soundtrack)'
p3542
ssS'6CfrYuD3YRDYdYvH9jNtXY'
p3543
(dp3544
g3
S'Drake'
p3545
sg5
I2
sg6
S'https://open.spotify.com/track/6CfrYuD3YRDYdYvH9jNtXY'
p3546
sg8
S'No Long Talk'
p3547
ssS'1XRTXNP8eLpWXfso8Q4dC5'
p3548
(dp3549
g3
S'Mike Perry'
p3550
sg5
I32
sg6
S'https://open.spotify.com/track/1XRTXNP8eLpWXfso8Q4dC5'
p3551
sg8
S'Talk About It'
p3552
ssS'4U48wx97cJT3qeJ1uPyAdU'
p3553
(dp3554
g3
S'Daniel Kvammen'
p3555
sg5
I1
sg6
S'https://open.spotify.com/track/4U48wx97cJT3qeJ1uPyAdU'
p3556
sg8
S'Me dansar ikkje for moro skyld'
p3557
ssS'2Xqd0wUttjueBfdcltADOv'
p3558
(dp3559
g3
S'G-Eazy'
p3560
sg5
I1
sg6
S'https://open.spotify.com/track/2Xqd0wUttjueBfdcltADOv'
p3561
sg8
S'No Limit'
p3562
ssS'7xHc6zQoFarMwNEQo43eGH'
p3563
(dp3564
g3
S'Cezinando'
p3565
sg5
I1
sg6
S'https://open.spotify.com/track/7xHc6zQoFarMwNEQo43eGH'
p3566
sg8
S'Jeg bare synes du skulle ha h\xc3\xb8rt p\xc3\xa5 meg (feat. Unge Ferrari)'
p3567
ssS'2yIOpmsGWSztcJCKSEqLal'
p3568
(dp3569
g3
S'Freddy Kalas'
p3570
sg5
I13
sg6
S'https://open.spotify.com/track/2yIOpmsGWSztcJCKSEqLal'
p3571
sg8
S'Vibber'
p3572
ssS'3bWAqKDWg6u1davspr5IkS'
p3573
(dp3574
g3
S'Robin Schulz'
p3575
sg5
I21
sg6
S'https://open.spotify.com/track/3bWAqKDWg6u1davspr5IkS'
p3576
sg8
S'OK'
p3577
ssS'0UeYCHOETPfai02uskjJ3x'
p3578
(dp3579
g3
S'Bag Raiders'
p3580
sg5
I7
sg6
S'https://open.spotify.com/track/0UeYCHOETPfai02uskjJ3x'
p3581
sg8
S'Shooting Stars'
p3582
ssS'6AAw43DJbIysnD0DwVurGd'
p3583
(dp3584
g3
S'SNBRN'
p3585
sg5
I2
sg6
S'https://open.spotify.com/track/6AAw43DJbIysnD0DwVurGd'
p3586
sg8
S'Gangsta Walk'
p3587
ssS'4XDOmQvj2lPwDL3JsKQVR1'
p3588
(dp3589
g3
S'Kurt Nilsen'
p3590
sg5
I1
sg6
S'https://open.spotify.com/track/4XDOmQvj2lPwDL3JsKQVR1'
p3591
sg8
S'Walking In The Air'
p3592
ssS'02WacdrRpm4zlP8H7X6bnQ'
p3593
(dp3594
g3
S'Calum Scott'
p3595
sg5
I32
sg6
S'https://open.spotify.com/track/02WacdrRpm4zlP8H7X6bnQ'
p3596
sg8
S'Dancing On My Own'
p3597
ssS'1mDGDb2fUmUMdqV3tb8VKQ'
p3598
(dp3599
g3
S'Halsey'
p3600
sg5
I1
sg6
S'https://open.spotify.com/track/1mDGDb2fUmUMdqV3tb8VKQ'
p3601
sg8
S'Now Or Never'
p3602
ssS'3qaYuV5XZAwiOvGE91HhwS'
p3603
(dp3604
g3
S'Mike Perry'
p3605
sg5
I34
sg6
S'https://open.spotify.com/track/3qaYuV5XZAwiOvGE91HhwS'
p3606
sg8
S'Inside the Lines'
p3607
ssS'1eeMYjuph7DQ1WOkMH7YA3'
p3608
(dp3609
g3
S'Lost Frequencies'
p3610
sg5
I1
sg6
S'https://open.spotify.com/track/1eeMYjuph7DQ1WOkMH7YA3'
p3611
sg8
S'Here with You'
p3612
ssS'0mYH2p6u1gyi3k40xEOvUT'
p3613
(dp3614
g3
S'Vidar Villa'
p3615
sg5
I36
sg6
S'https://open.spotify.com/track/0mYH2p6u1gyi3k40xEOvUT'
p3616
sg8
S'One Night Stand'
p3617
ssS'6DNtNfH8hXkqOX1sjqmI7p'
p3618
(dp3619
g3
S'Major Lazer'
p3620
sg5
I20
sg6
S'https://open.spotify.com/track/6DNtNfH8hXkqOX1sjqmI7p'
p3621
sg8
S'Cold Water (feat. Justin Bieber & M\xc3\x98)'
p3622
ssS'42NpUvd0I2kdIuMXX4nobE'
p3623
(dp3624
g3
S'Nick Jonas'
p3625
sg5
I1
sg6
S'https://open.spotify.com/track/42NpUvd0I2kdIuMXX4nobE'
p3626
sg8
S'Remember I Told You'
p3627
ssS'0K7Dd9DP6fvOl0mrlX0aUa'
p3628
(dp3629
g3
S'Galantis'
p3630
sg5
I4
sg6
S'https://open.spotify.com/track/0K7Dd9DP6fvOl0mrlX0aUa'
p3631
sg8
S'Rich Boy'
p3632
ssS'6OZh916QF8XNunWaP97WEZ'
p3633
(dp3634
g3
S'Jonas Blue'
p3635
sg5
I9
sg6
S'https://open.spotify.com/track/6OZh916QF8XNunWaP97WEZ'
p3636
sg8
S'Fast Car'
p3637
ssS'2rizacJSyD9S1IQUxUxnsK'
p3638
(dp3639
g3
S'The Chainsmokers'
p3640
sg5
I11
sg6
S'https://open.spotify.com/track/2rizacJSyD9S1IQUxUxnsK'
p3641
sg8
S'All We Know'
p3642
ssS'2yZax79pOrYuyIFVW2cZY2'
p3643
(dp3644
g3
S'XXXTENTACION'
p3645
sg5
I2
sg6
S'https://open.spotify.com/track/2yZax79pOrYuyIFVW2cZY2'
p3646
sg8
S'Carry On'
p3647
ssS'6RsWqX8zABZLhZydXxEFOm'
p3648
(dp3649
g3
S'The Weeknd'
p3650
sg5
I1
sg6
S'https://open.spotify.com/track/6RsWqX8zABZLhZydXxEFOm'
p3651
sg8
S"Can't Feel My Face"
p3652
ssS'79NlESqzFSW0hdBWgls4FX'
p3653
(dp3654
g3
S'Kesha'
p3655
sg5
I5
sg6
S'https://open.spotify.com/track/79NlESqzFSW0hdBWgls4FX'
p3656
sg8
S'Praying'
p3657
ssS'0tgVpDi06FyKpA1z0VMD4v'
p3658
(dp3659
g3
S'Ed Sheeran'
p3660
sg5
I32
sg6
S'https://open.spotify.com/track/0tgVpDi06FyKpA1z0VMD4v'
p3661
sg8
S'Perfect'
p3662
ssS'0sZfuG1rArPovx9CdZ40vZ'
p3663
(dp3664
g3
S'Tove Styrke'
p3665
sg5
I1
sg6
S'https://open.spotify.com/track/0sZfuG1rArPovx9CdZ40vZ'
p3666
sg8
S'Mistakes'
p3667
ssS'3IbcZ1k9A4hNYTek5W8orw'
p3668
(dp3669
g3
S'Sissel'
p3670
sg5
I1
sg6
S'https://open.spotify.com/track/3IbcZ1k9A4hNYTek5W8orw'
p3671
sg8
S'Jul i svingen'
p3672
ssS'45OfR7ugJMgbFDuNOVpIq3'
p3673
(dp3674
g3
S'Matoma'
p3675
sg5
I20
sg6
S'https://open.spotify.com/track/45OfR7ugJMgbFDuNOVpIq3'
p3676
sg8
S'Party On The West Coast (feat. Snoop Dogg)'
p3677
ssS'5pq8Lj5OODR0N6pHCifMy8'
p3678
(dp3679
g3
S'Elle King'
p3680
sg5
I1
sg6
S'https://open.spotify.com/track/5pq8Lj5OODR0N6pHCifMy8'
p3681
sg8
S'Wild Love'
p3682
ssS'6cAKeFFYW2aClZSUyvqAEW'
p3683
(dp3684
g3
S'Isaiah'
p3685
sg5
I17
sg6
S'https://open.spotify.com/track/6cAKeFFYW2aClZSUyvqAEW'
p3686
sg8
S"It's Gotta Be You"
p3687
ssS'26hcyzSE154xMZCbFdtInA'
p3688
(dp3689
g3
S'KREAM'
p3690
sg5
I9
sg6
S'https://open.spotify.com/track/26hcyzSE154xMZCbFdtInA'
p3691
sg8
S'Taped Up Heart (feat. Clara Mae)'
p3692
ssS'1KqvRRQd3lfM0pAlkGPrgD'
p3693
(dp3694
g3
S'Ed Sheeran'
p3695
sg5
I1
sg6
S'https://open.spotify.com/track/1KqvRRQd3lfM0pAlkGPrgD'
p3696
sg8
S'Shape of You (Major Lazer Remix) [feat. Nyla & Kranium]'
p3697
ssS'7Lgpic8BsBJR4jFrr9abbz'
p3698
(dp3699
g3
S'Robin Schulz'
p3700
sg5
I3
sg6
S'https://open.spotify.com/track/7Lgpic8BsBJR4jFrr9abbz'
p3701
sg8
S"I Believe I'm Fine"
p3702
ssS'6saD45BCYBA9QKyiuldIGC'
p3703
(dp3704
g3
S'TRXD'
p3705
sg5
I1
sg6
S'https://open.spotify.com/track/6saD45BCYBA9QKyiuldIGC'
p3706
sg8
S'Venn (feat. Ram\xc3\xb3n)'
p3707
ssS'1XvUlzzylsfqfaEqa7r7Az'
p3708
(dp3709
g3
S'August Dahl'
p3710
sg5
I1
sg6
S'https://open.spotify.com/track/1XvUlzzylsfqfaEqa7r7Az'
p3711
sg8
S"Writing's On The Wall"
p3712
ssS'1839RWzPRZCVgvamu4sHSN'
p3713
(dp3714
g3
S'Cash Cash'
p3715
sg5
I10
sg6
S'https://open.spotify.com/track/1839RWzPRZCVgvamu4sHSN'
p3716
sg8
S'All My Love (feat. Conor Maynard)'
p3717
ssS'5XQMr19TL7Mfksq9zihbOu'
p3718
(dp3719
g3
S'Chris Brown'
p3720
sg5
I8
sg6
S'https://open.spotify.com/track/5XQMr19TL7Mfksq9zihbOu'
p3721
sg8
S'Questions'
p3722
ssS'2wDjpPW3HZdA9quPPmZAMu'
p3723
(dp3724
g3
S'Cashmere Cat'
p3725
sg5
I7
sg6
S'https://open.spotify.com/track/2wDjpPW3HZdA9quPPmZAMu'
p3726
sg8
S'Trust Nobody (feat. Selena Gomez & Tory Lanez)'
p3727
ssS'1EFYrZW5ySsEDmPjDrc5a3'
p3728
(dp3729
g3
S'Karpe Diem'
p3730
sg5
I26
sg6
S'https://open.spotify.com/track/1EFYrZW5ySsEDmPjDrc5a3'
p3731
sg8
S'Spis din syvende sans'
p3732
ssS'6cHYdlHO65h3Dtt2pPKmBF'
p3733
(dp3734
g3
S'Armin van Buuren'
p3735
sg5
I1
sg6
S'https://open.spotify.com/track/6cHYdlHO65h3Dtt2pPKmBF'
p3736
sg8
S'Sunny Days'
p3737
ssS'1hvpDAxZPKjKztOc72sv06'
p3738
(dp3739
g3
S'Band Aid'
p3740
sg5
I1
sg6
S'https://open.spotify.com/track/1hvpDAxZPKjKztOc72sv06'
p3741
sg8
S"Do They Know It's Christmas? - 1984 Version"
p3742
ssS'72Q0FQQo32KJloivv5xge2'
p3743
(dp3744
g3
S'DJ Khaled'
p3745
sg5
I3
sg6
S'https://open.spotify.com/track/72Q0FQQo32KJloivv5xge2'
p3746
sg8
S"I'm the One"
p3747
ssS'0hNduWmlWmEmuwEFcYvRu1'
p3748
(dp3749
g3
S'Petit Biscuit'
p3750
sg5
I34
sg6
S'https://open.spotify.com/track/0hNduWmlWmEmuwEFcYvRu1'
p3751
sg8
S'Sunset Lover'
p3752
ssS'5YhmqI7XxMTqagUIsCTO95'
p3753
(dp3754
g3
S'Oslo Gospel Choir'
p3755
sg5
I1
sg6
S'https://open.spotify.com/track/5YhmqI7XxMTqagUIsCTO95'
p3756
sg8
S'En Stjerne Skinner I Natt'
p3757
ssS'04HzRAn3BJaIvmhpvc1GVT'
p3758
(dp3759
g3
S'Emilie Nicolas'
p3760
sg5
I7
sg6
S'https://open.spotify.com/track/04HzRAn3BJaIvmhpvc1GVT'
p3761
sg8
S'Sky'
p3762
ssS'1x5sYLZiu9r5E43kMlt9f8'
p3763
(dp3764
g3
S'Clean Bandit'
p3765
sg5
I30
sg6
S'https://open.spotify.com/track/1x5sYLZiu9r5E43kMlt9f8'
p3766
sg8
S'Symphony (feat. Zara Larsson)'
p3767
ssS'1mm5UjkZn1ftI6jHKZaixM'
p3768
(dp3769
g3
S'Cezinando'
p3770
sg5
I1
sg6
S'https://open.spotify.com/track/1mm5UjkZn1ftI6jHKZaixM'
p3771
sg8
S'Tommelen p\xc3\xa5 vekta'
p3772
ssS'3B54sVLJ402zGa6Xm4YGNe'
p3773
(dp3774
g3
S'French Montana'
p3775
sg5
I14
sg6
S'https://open.spotify.com/track/3B54sVLJ402zGa6Xm4YGNe'
p3776
sg8
S'Unforgettable'
p3777
ssS'6IeK3Ap5m3HabwJxgI6eSE'
p3778
(dp3779
g3
S'Perry Como'
p3780
sg5
I1
sg6
S'https://open.spotify.com/track/6IeK3Ap5m3HabwJxgI6eSE'
p3781
sg8
S"It's Beginning to Look a Lot Like Christmas"
p3782
ssS'2X8GwyuNBiOJKLCLNaefOT'
p3783
(dp3784
g3
S'Anne-Marie'
p3785
sg5
I1
sg6
S'https://open.spotify.com/track/2X8GwyuNBiOJKLCLNaefOT'
p3786
sg8
S'Heavy'
p3787
ssS'5SE57ljOIUJ1ybL9U6CuBH'
p3788
(dp3789
g3
S'BTS'
p3790
sg5
I1
sg6
S'https://open.spotify.com/track/5SE57ljOIUJ1ybL9U6CuBH'
p3791
sg8
S'DNA'
p3792
ssS'6fTsxhIosAU6zXTAhSaemI'
p3793
(dp3794
g3
S'ALMA'
p3795
sg5
I1
sg6
S'https://open.spotify.com/track/6fTsxhIosAU6zXTAhSaemI'
p3796
sg8
S'Chasing Highs'
p3797
ssS'6520aj0B4FSKGVuKNsOCOi'
p3798
(dp3799
g3
S'Katy Perry'
p3800
sg5
I26
sg6
S'https://open.spotify.com/track/6520aj0B4FSKGVuKNsOCOi'
p3801
sg8
S'Chained To The Rhythm'
p3802
ssS'7oArXBmMlLCtZdUkXWQZGs'
p3803
(dp3804
g3
S'Zara Larsson'
p3805
sg5
I1
sg6
S'https://open.spotify.com/track/7oArXBmMlLCtZdUkXWQZGs'
p3806
sg8
S'One Mississippi'
p3807
ssS'6SwRhMLwNqEi6alNPVG00n'
p3808
(dp3809
g3
S'Kendrick Lamar'
p3810
sg5
I6
sg6
S'https://open.spotify.com/track/6SwRhMLwNqEi6alNPVG00n'
p3811
sg8
S'LOYALTY. FEAT. RIHANNA.'
p3812
ssS'2sNIzKpt0QLQuxyUUCapWs'
p3813
(dp3814
g3
S'Sofia Carson'
p3815
sg5
I7
sg6
S'https://open.spotify.com/track/2sNIzKpt0QLQuxyUUCapWs'
p3816
sg8
S'Back to Beautiful'
p3817
ssS'2HzfRSfCogBSsgW2CckVA2'
p3818
(dp3819
g3
S'Luke Christopher'
p3820
sg5
I1
sg6
S'https://open.spotify.com/track/2HzfRSfCogBSsgW2CckVA2'
p3821
sg8
S'Lot to Learn'
p3822
ssS'0IYbYGGVKQGlcaIu9Bs1Iz'
p3823
(dp3824
g3
S'Noah Cyrus'
p3825
sg5
I1
sg6
S'https://open.spotify.com/track/0IYbYGGVKQGlcaIu9Bs1Iz'
p3826
sg8
S"I'm Stuck"
p3827
ssS'33z5crv3IO5U2BOi8xod92'
p3828
(dp3829
g3
S'Wiz Khalifa'
p3830
sg5
I1
sg6
S'https://open.spotify.com/track/33z5crv3IO5U2BOi8xod92'
p3831
sg8
S'Something New (feat. Ty Dolla $ign)'
p3832
ssS'0tKcYR2II1VCQWT79i5NrW'
p3833
(dp3834
g3
S'Imagine Dragons'
p3835
sg5
I21
sg6
S'https://open.spotify.com/track/0tKcYR2II1VCQWT79i5NrW'
p3836
sg8
S'Thunder'
p3837
ssS'6x6cpNDnIpqtaNcXIcGkUs'
p3838
(dp3839
g3
S'Miley Cyrus'
p3840
sg5
I1
sg6
S'https://open.spotify.com/track/6x6cpNDnIpqtaNcXIcGkUs'
p3841
sg8
S'Bad Mood'
p3842
ssS'6gpcs5eMhJwax4mIfKDYQk'
p3843
(dp3844
g3
S'Calvin Harris'
p3845
sg5
I4
sg6
S'https://open.spotify.com/track/6gpcs5eMhJwax4mIfKDYQk'
p3846
sg8
S'Slide'
p3847
ssS'5SayaGvDWXOnFjPKWml9P9'
p3848
(dp3849
g3
S"Travellin' Strawberries"
p3850
sg5
I1
sg6
S'https://open.spotify.com/track/5SayaGvDWXOnFjPKWml9P9'
p3851
sg8
S'The St\xc3\xb8vel Dance'
p3852
ssS'6yf3MxEOScNBTYCHOAIiNQ'
p3853
(dp3854
g3
S'Jax Jones'
p3855
sg5
I1
sg6
S'https://open.spotify.com/track/6yf3MxEOScNBTYCHOAIiNQ'
p3856
sg8
S'Instruction (feat. Demi Lovato & Stefflon Don)'
p3857
ssS'5NNlUMcOEOdoOIwwaWXv0k'
p3858
(dp3859
g3
S'Maroon 5'
p3860
sg5
I15
sg6
S'https://open.spotify.com/track/5NNlUMcOEOdoOIwwaWXv0k'
p3861
sg8
S'Cold'
p3862
ssS'5R4HqXCZ6uTjxxnGdLt2S6'
p3863
(dp3864
g3
S'Noah Cyrus'
p3865
sg5
I5
sg6
S'https://open.spotify.com/track/5R4HqXCZ6uTjxxnGdLt2S6'
p3866
sg8
S'Stay Together'
p3867
ssS'78mNkiUBAwHqjT0QOeEqqg'
p3868
(dp3869
g3
S'A R I Z O N A'
p3870
sg5
I2
sg6
S'https://open.spotify.com/track/78mNkiUBAwHqjT0QOeEqqg'
p3871
sg8
S'Oceans Away - Sam Feldt Remix'
p3872
ssS'7J2EJ4QMpGUbB2H3SYYYtU'
p3873
(dp3874
g3
S'Madden'
p3875
sg5
I7
sg6
S'https://open.spotify.com/track/7J2EJ4QMpGUbB2H3SYYYtU'
p3876
sg8
S'Alive'
p3877
ssS'1sXUWdKx03aP9Gmzft58rt'
p3878
(dp3879
g3
S'Julia Michaels'
p3880
sg5
I28
sg6
S'https://open.spotify.com/track/1sXUWdKx03aP9Gmzft58rt'
p3881
sg8
S'Issues'
p3882
ssS'3QiAAp20rPC3dcAtKtMaqQ'
p3883
(dp3884
g3
S'Elvis Presley'
p3885
sg5
I1
sg6
S'https://open.spotify.com/track/3QiAAp20rPC3dcAtKtMaqQ'
p3886
sg8
S'Blue Christmas'
p3887
ssS'7IWkJwX9C0J7tHurTD7ViL'
p3888
(dp3889
g3
S'Adele'
p3890
sg5
I42
sg6
S'https://open.spotify.com/track/7IWkJwX9C0J7tHurTD7ViL'
p3891
sg8
S'When We Were Young'
p3892
ssS'1zayuwd1YLZsYDArkruHdL'
p3893
(dp3894
g3
S'Kendrick Lamar'
p3895
sg5
I2
sg6
S'https://open.spotify.com/track/1zayuwd1YLZsYDArkruHdL'
p3896
sg8
S'The Heart Part 4'
p3897
ssS'14oOKFGuXu8DqvOe1W8vao'
p3898
(dp3899
g3
S'Katy Perry'
p3900
sg5
I2
sg6
S'https://open.spotify.com/track/14oOKFGuXu8DqvOe1W8vao'
p3901
sg8
S'Bon App\xc3\xa9tit'
p3902
ssS'2gZy1KFFKUgw3IbRNhZEz3'
p3903
(dp3904
g3
S'Flo Rida'
p3905
sg5
I2
sg6
S'https://open.spotify.com/track/2gZy1KFFKUgw3IbRNhZEz3'
p3906
sg8
S'Game Time (feat. Sage The Gemini)'
p3907
ssS'4BHSjbYylfOH5WAGusDyni'
p3908
(dp3909
g3
S'Kendrick Lamar'
p3910
sg5
I2
sg6
S'https://open.spotify.com/track/4BHSjbYylfOH5WAGusDyni'
p3911
sg8
S'YAH.'
p3912
ssS'2tFgv3sLFNc088KLtjxzVa'
p3913
(dp3914
g3
S'Gabrielle'
p3915
sg5
I7
sg6
S'https://open.spotify.com/track/2tFgv3sLFNc088KLtjxzVa'
p3916
sg8
S'5 fine fr\xc3\xb8kner'
p3917
ssS'1louJpMmzEicAn7lzDalPW'
p3918
(dp3919
g3
S'Cheat Codes'
p3920
sg5
I27
sg6
S'https://open.spotify.com/track/1louJpMmzEicAn7lzDalPW'
p3921
sg8
S'No Promises (feat. Demi Lovato)'
p3922
ssS'2ISl1zekPsc26sUQpVt8UB'
p3923
(dp3924
g3
S"Shakin' Stevens"
p3925
sg5
I1
sg6
S'https://open.spotify.com/track/2ISl1zekPsc26sUQpVt8UB'
p3926
sg8
S'Merry Christmas Everyone - Remastered'
p3927
ssS'5masKPHeAOVNgxdLebIcK7'
p3928
(dp3929
g3
S'Kygo'
p3930
sg5
I21
sg6
S'https://open.spotify.com/track/5masKPHeAOVNgxdLebIcK7'
p3931
sg8
S'Stole the Show'
p3932
ssS'6y2Kaz9QI01XBKJ8mTb7Pf'
p3933
(dp3934
g3
S"Rag'n'Bone Man"
p3935
sg5
I37
sg6
S'https://open.spotify.com/track/6y2Kaz9QI01XBKJ8mTb7Pf'
p3936
sg8
S'Skin'
p3937
ssS'6I6NX6tjGsxFAsIfGzY9lJ'
p3938
(dp3939
g3
S'J. Cole'
p3940
sg5
I6
sg6
S'https://open.spotify.com/track/6I6NX6tjGsxFAsIfGzY9lJ'
p3941
sg8
S'Deja Vu'
p3942
ssS'1Slwb6dOYkBlWal1PGtnNg'
p3943
(dp3944
g3
S'Ed Sheeran'
p3945
sg5
I28
sg6
S'https://open.spotify.com/track/1Slwb6dOYkBlWal1PGtnNg'
p3946
sg8
S'Thinking Out Loud'
p3947
ssS'31odF1W48AxUG6nPEHQXyg'
p3948
(dp3949
g3
S'Alan Walker'
p3950
sg5
I1
sg6
S'https://open.spotify.com/track/31odF1W48AxUG6nPEHQXyg'
p3951
sg8
S'Ignite - Instrumental'
p3952
ssS'3kXqUXnukwkpsxhW8emNC0'
p3953
(dp3954
g3
S'Blanche'
p3955
sg5
I1
sg6
S'https://open.spotify.com/track/3kXqUXnukwkpsxhW8emNC0'
p3956
sg8
S'City Lights'
p3957
ssS'3zoYkqS4y2BsGVShPL2nTE'
p3958
(dp3959
g3
S'CNCO'
p3960
sg5
I8
sg6
S'https://open.spotify.com/track/3zoYkqS4y2BsGVShPL2nTE'
p3961
sg8
S'Reggaet\xc3\xb3n Lento (Remix) [CNCO & Little Mix]'
p3962
ssS'3G6wVOYojfulavohh1fBuN'
p3963
(dp3964
g3
S'Una Sand'
p3965
sg5
I1
sg6
S'https://open.spotify.com/track/3G6wVOYojfulavohh1fBuN'
p3966
sg8
S'Wanderlust'
p3967
ssS'00pW24Ogrp16sOxTokbJz4'
p3968
(dp3969
g3
S'ItaloBrothers'
p3970
sg5
I1
sg6
S'https://open.spotify.com/track/00pW24Ogrp16sOxTokbJz4'
p3971
sg8
S'Sorry'
p3972
ssS'7BuxJfiBYHykRHbMVkq51D'
p3973
(dp3974
g3
S'Atle'
p3975
sg5
I1
sg6
S'https://open.spotify.com/track/7BuxJfiBYHykRHbMVkq51D'
p3976
sg8
S'Usynlig'
p3977
ssS'5Gp0t7jUdlbSfkLCgcedfs'
p3978
(dp3979
g3
S'INDIIA'
p3980
sg5
I4
sg6
S'https://open.spotify.com/track/5Gp0t7jUdlbSfkLCgcedfs'
p3981
sg8
S'Out of Love'
p3982
ssS'2habSXqcJGExM6JJyskY7O'
p3983
(dp3984
g3
S'Miley Cyrus'
p3985
sg5
I20
sg6
S'https://open.spotify.com/track/2habSXqcJGExM6JJyskY7O'
p3986
sg8
S'Malibu'
p3987
ssS'5Ua3GXyHwiSfpNTMjq6m2z'
p3988
(dp3989
g3
S'Little Mix'
p3990
sg5
I9
sg6
S'https://open.spotify.com/track/5Ua3GXyHwiSfpNTMjq6m2z'
p3991
sg8
S'Touch'
p3992
ssS'6i0V12jOa3mr6uu4WYhUBr'
p3993
(dp3994
g3
S'Twenty One Pilots'
p3995
sg5
I17
sg6
S'https://open.spotify.com/track/6i0V12jOa3mr6uu4WYhUBr'
p3996
sg8
S'Heathens'
p3997
ssS'6ueDio9QAylSqLf1IF5zU6'
p3998
(dp3999
g3
S'Madcon'
p4000
sg5
I2
sg6
S'https://open.spotify.com/track/6ueDio9QAylSqLf1IF5zU6'
p4001
sg8
S'Got A Little Drunk'
p4002
ssS'6zQMbR8e1AQyRDmKUBxoz5'
p4003
(dp4004
g3
S'Marcus & Martinus'
p4005
sg5
I2
sg6
S'https://open.spotify.com/track/6zQMbR8e1AQyRDmKUBxoz5'
p4006
sg8
S'Make You Believe In Love'
p4007
ssS'08D6jODE13Mq4MuPvlusJO'
p4008
(dp4009
g3
S'Mugisho'
p4010
sg5
I1
sg6
S'https://open.spotify.com/track/08D6jODE13Mq4MuPvlusJO'
p4011
sg8
S'I Would Never'
p4012
ssS'5lOJK1YNHSRMsy7LX6lkg3'
p4013
(dp4014
g3
S'Clairmont'
p4015
sg5
I7
sg6
S'https://open.spotify.com/track/5lOJK1YNHSRMsy7LX6lkg3'
p4016
sg8
S'Can`t Help Myself (feat. Mugisho and Julie Bergan)'
p4017
ssS'40UroIGvsMPLPBYwH8rMNA'
p4018
(dp4019
g3
S'Vice'
p4020
sg5
I15
sg6
S'https://open.spotify.com/track/40UroIGvsMPLPBYwH8rMNA'
p4021
sg8
S'Steady 1234 (feat. Jasmine Thompson & Skizzy Mars)'
p4022
ssS'5nA67Y0XX9JipZwYxX7Gl7'
p4023
(dp4024
g3
S'Niall Horan'
p4025
sg5
I14
sg6
S'https://open.spotify.com/track/5nA67Y0XX9JipZwYxX7Gl7'
p4026
sg8
S'This Town'
p4027
ssS'5c0aiERRxHjbvu5tQ9jwAE'
p4028
(dp4029
g3
S'Dagny'
p4030
sg5
I17
sg6
S'https://open.spotify.com/track/5c0aiERRxHjbvu5tQ9jwAE'
p4031
sg8
S'Wearing Nothing'
p4032
ssS'5153LWKMJiMNIRCChGN4Ja'
p4033
(dp4034
g3
S'Mike Perry'
p4035
sg5
I1
sg6
S'https://open.spotify.com/track/5153LWKMJiMNIRCChGN4Ja'
p4036
sg8
S'Hands'
p4037
ssS'1ECMXfrX8vrN1nkPECrdFR'
p4038
(dp4039
g3
S'Piateed'
p4040
sg5
I5
sg6
S'https://open.spotify.com/track/1ECMXfrX8vrN1nkPECrdFR'
p4041
sg8
S'Verdil\xc3\xb8s'
p4042
ssS'2pJZ1v8HezrAoZ0Fhzby92'
p4043
(dp4044
g3
S'Ed Sheeran'
p4045
sg5
I8
sg6
S'https://open.spotify.com/track/2pJZ1v8HezrAoZ0Fhzby92'
p4046
sg8
S'What Do I Know?'
p4047
ssS'34d5DHEt5lyQr32be5X7cV'
p4048
(dp4049
g3
S'Ina Wroldsen'
p4050
sg5
I1
sg6
S'https://open.spotify.com/track/34d5DHEt5lyQr32be5X7cV'
p4051
sg8
S"Mary's Story"
p4052
ssS'7pJ4iEOOwUEzO3m9Hh3Ojr'
p4053
(dp4054
g3
S'Jasmine Thompson'
p4055
sg5
I1
sg6
S'https://open.spotify.com/track/7pJ4iEOOwUEzO3m9Hh3Ojr'
p4056
sg8
S'Old Friends - Jonas Blue Remix'
p4057
ssS'2nLtzopw4rPReszdYBJU6h'
p4058
(dp4059
g3
S'Linkin Park'
p4060
sg5
I1
sg6
S'https://open.spotify.com/track/2nLtzopw4rPReszdYBJU6h'
p4061
sg8
S'Numb'
p4062
ssS'6fxVffaTuwjgEk5h9QyRjy'
p4063
(dp4064
g3
S'Ed Sheeran'
p4065
sg5
I29
sg6
S'https://open.spotify.com/track/6fxVffaTuwjgEk5h9QyRjy'
p4066
sg8
S'Photograph'
p4067
ssS'2kVHAQKVtczchKctctzbtK'
p4068
(dp4069
g3
S'Katy Perry'
p4070
sg5
I10
sg6
S'https://open.spotify.com/track/2kVHAQKVtczchKctctzbtK'
p4071
sg8
S'Swish Swish'
p4072
ssS'2KKXOhM6ZvffZIUJaI8UXB'
p4073
(dp4074
g3
S'Kurt Nilsen'
p4075
sg5
I1
sg6
S'https://open.spotify.com/track/2KKXOhM6ZvffZIUJaI8UXB'
p4076
sg8
S'Christmas Song'
p4077
ssS'3SAnARTfPnAP01H0SUJ5E0'
p4078
(dp4079
g3
S'SJUR'
p4080
sg5
I8
sg6
S'https://open.spotify.com/track/3SAnARTfPnAP01H0SUJ5E0'
p4081
sg8
S'What Do I Do'
p4082
ssS'1VdZ0vKfR5jneCmWIUAMxK'
p4083
(dp4084
g3
S'Ed Sheeran'
p4085
sg5
I2
sg6
S'https://open.spotify.com/track/1VdZ0vKfR5jneCmWIUAMxK'
p4086
sg8
S'The A Team'
p4087
ssS'1wur1SW656paPv7EyTqWu4'
p4088
(dp4089
g3
S'C\xc3\xa9line Dion'
p4090
sg5
I1
sg6
S'https://open.spotify.com/track/1wur1SW656paPv7EyTqWu4'
p4091
sg8
S'Happy Xmas (War Is Over)'
p4092
ssS'13e6f8t7RKXuxZ0JdaaJRG'
p4093
(dp4094
g3
S'Drake'
p4095
sg5
I1
sg6
S'https://open.spotify.com/track/13e6f8t7RKXuxZ0JdaaJRG'
p4096
sg8
S'Jorja Interlude'
p4097
ssS'6nxQdXa1uAL0rY72wPZu89'
p4098
(dp4099
g3
S'John Legend'
p4100
sg5
I9
sg6
S'https://open.spotify.com/track/6nxQdXa1uAL0rY72wPZu89'
p4101
sg8
S'Love Me Now'
p4102
ssS'4L7Y2OAPiY2I2GndZjAs5K'
p4103
(dp4104
g3
S'Lana Del Rey'
p4105
sg5
I1
sg6
S'https://open.spotify.com/track/4L7Y2OAPiY2I2GndZjAs5K'
p4106
sg8
S'Lust For Life (with The Weeknd)'
p4107
ssS'6kex4EBAj0WHXDKZMEJaaF'
p4108
(dp4109
g3
S'Jason Derulo'
p4110
sg5
I33
sg6
S'https://open.spotify.com/track/6kex4EBAj0WHXDKZMEJaaF'
p4111
sg8
S'Swalla (feat. Nicki Minaj & Ty Dolla $ign)'
p4112
ssS'2SBr3MK1sdMs8IxdRcN6qz'
p4113
(dp4114
g3
S'Kylie Minogue'
p4115
sg5
I1
sg6
S'https://open.spotify.com/track/2SBr3MK1sdMs8IxdRcN6qz'
p4116
sg8
S'Santa Baby'
p4117
ssS'3Wq7udUU3iRFcPTCw51ZfS'
p4118
(dp4119
g3
S'TIX'
p4120
sg5
I8
sg6
S'https://open.spotify.com/track/3Wq7udUU3iRFcPTCw51ZfS'
p4121
sg8
S'Baymax 2017'
p4122
ssS'10JBIfvldDR2TnT5sphGc2'
p4123
(dp4124
g3
S'Train'
p4125
sg5
I1
sg6
S'https://open.spotify.com/track/10JBIfvldDR2TnT5sphGc2'
p4126
sg8
S'Shake up Christmas'
p4127
ssS'54h8xHewdRPnYzmbEHBhOO'
p4128
(dp4129
g3
S'Imagine Dragons'
p4130
sg5
I1
sg6
S'https://open.spotify.com/track/54h8xHewdRPnYzmbEHBhOO'
p4131
sg8
S'I\xe2\x80\x99ll Make It Up To You'
p4132
ssS'3Xtm3bkEwlrZidgBqTYtjq'
p4133
(dp4134
g3
S'LVNDSCAPE'
p4135
sg5
I9
sg6
S'https://open.spotify.com/track/3Xtm3bkEwlrZidgBqTYtjq'
p4136
sg8
S'Walk Away'
p4137
ssS'4L2K7JKseFCBoHMZEAszW0'
p4138
(dp4139
g3
S'Labrinth'
p4140
sg5
I11
sg6
S'https://open.spotify.com/track/4L2K7JKseFCBoHMZEAszW0'
p4141
sg8
S'Jealous'
p4142
ssS'1gbuH3d1hJpFAwf36eCCIE'
p4143
(dp4144
g3
S'Nause'
p4145
sg5
I1
sg6
S'https://open.spotify.com/track/1gbuH3d1hJpFAwf36eCCIE'
p4146
sg8
S'Summer Hangover'
p4147
ssS'54LGxQGf5LPXNGjtzDZ5IE'
p4148
(dp4149
g3
S'Zara Larsson'
p4150
sg5
I10
sg6
S'https://open.spotify.com/track/54LGxQGf5LPXNGjtzDZ5IE'
p4151
sg8
S'So Good'
p4152
ssS'08WPvDEsHvTFuB9w8tC2OS'
p4153
(dp4154
g3
S'Sage The Gemini'
p4155
sg5
I1
sg6
S'https://open.spotify.com/track/08WPvDEsHvTFuB9w8tC2OS'
p4156
sg8
S'Now and Later'
p4157
ssS'4ZJPwET9Jrgpkqi4Vo3Yg8'
p4158
(dp4159
g3
S'Bebe Rexha'
p4160
sg5
I8
sg6
S'https://open.spotify.com/track/4ZJPwET9Jrgpkqi4Vo3Yg8'
p4161
sg8
S'Bad Bitch (feat. Ty Dolla $ign)'
p4162
ssS'5wIeuNURiubue1VTcglU57'
p4163
(dp4164
g3
S'Kesha'
p4165
sg5
I1
sg6
S'https://open.spotify.com/track/5wIeuNURiubue1VTcglU57'
p4166
sg8
S'Woman'
p4167
ssS'3OkFyfE2CGRfc4MqwAKdgi'
p4168
(dp4169
g3
S'Sia'
p4170
sg5
I1
sg6
S'https://open.spotify.com/track/3OkFyfE2CGRfc4MqwAKdgi'
p4171
sg8
S"Rainbow (From The Original Motion Picture Soundtrack 'My Little Pony: The Movie')"
p4172
ssS'0Fv5N0cHBsl4bzCbollCAS'
p4173
(dp4174
g3
S'Big Sean'
p4175
sg5
I1
sg6
S'https://open.spotify.com/track/0Fv5N0cHBsl4bzCbollCAS'
p4176
sg8
S'Moves'
p4177
ssS'7KXjTSCq5nL1LoYtL7XAwS'
p4178
(dp4179
g3
S'Kendrick Lamar'
p4180
sg5
I28
sg6
S'https://open.spotify.com/track/7KXjTSCq5nL1LoYtL7XAwS'
p4181
sg8
S'HUMBLE.'
p4182
ssS'6tjituizSxwSmBB5vtgHZE'
p4183
(dp4184
g3
S'Michael Bubl\xc3\xa9'
p4185
sg5
I1
sg6
S'https://open.spotify.com/track/6tjituizSxwSmBB5vtgHZE'
p4186
sg8
S'Holly Jolly Christmas'
p4187
ssS'2Ae5awwKvQpTBKQHr1TYCg'
p4188
(dp4189
g3
S'Nause'
p4190
sg5
I10
sg6
S'https://open.spotify.com/track/2Ae5awwKvQpTBKQHr1TYCg'
p4191
sg8
S'Dynamite (feat. Pretty Sister)'
p4192
ssS'43hDboyy6vJ6z2Jx5sHnCF'
p4193
(dp4194
g3
S'Cashmere Cat'
p4195
sg5
I2
sg6
S'https://open.spotify.com/track/43hDboyy6vJ6z2Jx5sHnCF'
p4196
sg8
S'Love Incredible (feat. Camila Cabello)'
p4197
ssS'3s2FxrA4ZXbTR6SlH6LXh9'
p4198
(dp4199
g3
S'Matoma'
p4200
sg5
I7
sg6
S'https://open.spotify.com/track/3s2FxrA4ZXbTR6SlH6LXh9'
p4201
sg8
S'Wonderful Life (Mi Oh My) - from The Angry Birds Movie (Original Motion Picture Soundtrack)'
p4202
ssS'0pxVWo0sFtffiizPFEQabe'
p4203
(dp4204
g3
S'Cezinando'
p4205
sg5
I1
sg6
S'https://open.spotify.com/track/0pxVWo0sFtffiizPFEQabe'
p4206
sg8
S'Ingenting blir det samme men samme for meg'
p4207
ssS'6Na5uKk5SsqZimk0hAWo8y'
p4208
(dp4209
g3
S'Drake'
p4210
sg5
I2
sg6
S'https://open.spotify.com/track/6Na5uKk5SsqZimk0hAWo8y'
p4211
sg8
S'Signs'
p4212
ssS'12ip0ceCeszDTDFxDY1AXJ'
p4213
(dp4214
g3
S'Avicii'
p4215
sg5
I2
sg6
S'https://open.spotify.com/track/12ip0ceCeszDTDFxDY1AXJ'
p4216
sg8
S'You Be Love (feat. Billy Raffoul)'
p4217
ssS'5wTM2Bm8phDwHAuOsfBwhU'
p4218
(dp4219
g3
S'Pretenders'
p4220
sg5
I1
sg6
S'https://open.spotify.com/track/5wTM2Bm8phDwHAuOsfBwhU'
p4221
sg8
S'2000 Miles - 2007 Remastered Version'
p4222
ssS'0n2bvWvMwr0gbjcuTm92eW'
p4223
(dp4224
g3
S'Lana Del Rey'
p4225
sg5
I4
sg6
S'https://open.spotify.com/track/0n2bvWvMwr0gbjcuTm92eW'
p4226
sg8
S'Love'
p4227
ssS'19TSNGmvdTtlxYn4YqYUMf'
p4228
(dp4229
g3
S'Alan Walker'
p4230
sg5
I9
sg6
S'https://open.spotify.com/track/19TSNGmvdTtlxYn4YqYUMf'
p4231
sg8
S'Routine'
p4232
ssS'4LSkEJ5P5MV0y3PZqw7guJ'
p4233
(dp4234
g3
S'Cheat Codes'
p4235
sg5
I1
sg6
S'https://open.spotify.com/track/4LSkEJ5P5MV0y3PZqw7guJ'
p4236
sg8
S'Sober'
p4237
ssS'3AsAuGTaDQzavZZThyYlop'
p4238
(dp4239
g3
S'NEIKED'
p4240
sg5
I20
sg6
S'https://open.spotify.com/track/3AsAuGTaDQzavZZThyYlop'
p4241
sg8
S'Sexual'
p4242
ssS'0eZBeB2xFIS65jQHerispi'
p4243
(dp4244
g3
S'Disturbed'
p4245
sg5
I42
sg6
S'https://open.spotify.com/track/0eZBeB2xFIS65jQHerispi'
p4246
sg8
S'The Sound Of Silence'
p4247
ssS'77lGafvlU68CeHgB2pkHC9'
p4248
(dp4249
g3
S'Machine Gun Kelly'
p4250
sg5
I5
sg6
S'https://open.spotify.com/track/77lGafvlU68CeHgB2pkHC9'
p4251
sg8
S'At My Best (feat. Hailee Steinfeld)'
p4252
ssS'2nuveZFpiOildSCxXuL44C'
p4253
(dp4254
g3
S'JP Cooper'
p4255
sg5
I2
sg6
S'https://open.spotify.com/track/2nuveZFpiOildSCxXuL44C'
p4256
sg8
S"She's On My Mind"
p4257
ssS'1j4kHkkpqZRBwE0A4CN4Yv'
p4258
(dp4259
g3
S'ZAYN'
p4260
sg5
I5
sg6
S'https://open.spotify.com/track/1j4kHkkpqZRBwE0A4CN4Yv'
p4261
sg8
S'Dusk Till Dawn - Radio Edit'
p4262
ssS'69bp2EbF7Q2rqc5N3ylezZ'
p4263
(dp4264
g3
S'Justin Bieber'
p4265
sg5
I9
sg6
S'https://open.spotify.com/track/69bp2EbF7Q2rqc5N3ylezZ'
p4266
sg8
S'Sorry'
p4267
ssS'1UrZ8OL178dHvGbeR641M7'
p4268
(dp4269
g3
S'JP Cooper'
p4270
sg5
I2
sg6
S'https://open.spotify.com/track/1UrZ8OL178dHvGbeR641M7'
p4271
sg8
S'Passport Home - Deepend Remix'
p4272
ssS'08QmhAybC6VHeG8gah84qA'
p4273
(dp4274
g3
S'NEIKED'
p4275
sg5
I9
sg6
S'https://open.spotify.com/track/08QmhAybC6VHeG8gah84qA'
p4276
sg8
S'Call Me'
p4277
ssS'04CttTezSnv71USiiG9mIo'
p4278
(dp4279
g3
S'Hearts & Colors'
p4280
sg5
I33
sg6
S'https://open.spotify.com/track/04CttTezSnv71USiiG9mIo'
p4281
sg8
S'Lighthouse - Andrelli Remix'
p4282
ssS'7fJv128BqCw23AmENDqJuj'
p4283
(dp4284
g3
S'Astrid S'
p4285
sg5
I5
sg6
S'https://open.spotify.com/track/7fJv128BqCw23AmENDqJuj'
p4286
sg8
S'Breathe'
p4287
ssS'4iLqG9SeJSnt0cSPICSjxv'
p4288
(dp4289
g3
S'Charlie Puth'
p4290
sg5
I25
sg6
S'https://open.spotify.com/track/4iLqG9SeJSnt0cSPICSjxv'
p4291
sg8
S'Attention'
p4292
ssS'15dnkAHcHC0vrIUlbiPiqU'
p4293
(dp4294
g3
S'Imagine Dragons'
p4295
sg5
I2
sg6
S'https://open.spotify.com/track/15dnkAHcHC0vrIUlbiPiqU'
p4296
sg8
S'I Don\xe2\x80\x99t Know Why'
p4297
ssS'6RUKPb4LETWmmr3iAEQktW'
p4298
(dp4299
g3
S'The Chainsmokers'
p4300
sg5
I34
sg6
S'https://open.spotify.com/track/6RUKPb4LETWmmr3iAEQktW'
p4301
sg8
S'Something Just Like This'
p4302
ssS'7M16mAuWuFA5rC9HvkXaGx'
p4303
(dp4304
g3
S'Jax Jones'
p4305
sg5
I5
sg6
S'https://open.spotify.com/track/7M16mAuWuFA5rC9HvkXaGx'
p4306
sg8
S"You Don't Know Me - Radio Edit"
p4307
ssS'3mRcWCyteY2133a7xVMrYw'
p4308
(dp4309
g3
S'Future'
p4310
sg5
I1
sg6
S'https://open.spotify.com/track/3mRcWCyteY2133a7xVMrYw'
p4311
sg8
S'Comin Out Strong'
p4312
ssS'1vVNlXi8gf8tZ7OhnEs4VE'
p4313
(dp4314
g3
S'French Montana'
p4315
sg5
I1
sg6
S'https://open.spotify.com/track/1vVNlXi8gf8tZ7OhnEs4VE'
p4316
sg8
S'A Lie'
p4317
ssS'74BGCq2L25uHnxC7Zwgp8q'
p4318
(dp4319
g3
S'Seeb'
p4320
sg5
I23
sg6
S'https://open.spotify.com/track/74BGCq2L25uHnxC7Zwgp8q'
p4321
sg8
S'Under Your Skin'
p4322
ssS'2CPqh63wRVscbceKcPxwvv'
p4323
(dp4324
g3
S'Mike Perry'
p4325
sg5
I39
sg6
S'https://open.spotify.com/track/2CPqh63wRVscbceKcPxwvv'
p4326
sg8
S'The Ocean'
p4327
ssS'65MOTX6uSFAnqXl7dlAuId'
p4328
(dp4329
g3
S'Demi Lovato'
p4330
sg5
I2
sg6
S'https://open.spotify.com/track/65MOTX6uSFAnqXl7dlAuId'
p4331
sg8
S'Tell Me You Love Me'
p4332
ssS'3a10xGRyDSEWm3smh1VZzV'
p4333
(dp4334
g3
S'KVR'
p4335
sg5
I2
sg6
S'https://open.spotify.com/track/3a10xGRyDSEWm3smh1VZzV'
p4336
sg8
S'Never Gonna Be'
p4337
ssS'7CiatbFJpSnXnbCiVaGlm0'
p4338
(dp4339
g3
S'JOWST'
p4340
sg5
I31
sg6
S'https://open.spotify.com/track/7CiatbFJpSnXnbCiVaGlm0'
p4341
sg8
S'Grab The Moment'
p4342
ssS'3VTNVsTTu05dmTsVFrmGpK'
p4343
(dp4344
g3
S'The Pogues'
p4345
sg5
I1
sg6
S'https://open.spotify.com/track/3VTNVsTTu05dmTsVFrmGpK'
p4346
sg8
S'Fairytale of New York (feat. Kirsty MacColl)'
p4347
ssS'2AgjNWgC5m7LzwnbQA3qXG'
p4348
(dp4349
g3
S'Future Duper'
p4350
sg5
I14
sg6
S'https://open.spotify.com/track/2AgjNWgC5m7LzwnbQA3qXG'
p4351
sg8
S'Fever'
p4352
ssS'7BSMSvK0WxrDeI98bswYa8'
p4353
(dp4354
g3
S'RY X'
p4355
sg5
I7
sg6
S'https://open.spotify.com/track/7BSMSvK0WxrDeI98bswYa8'
p4356
sg8
S'Berlin'
p4357
ssS'1xznGGDReH1oQq0xzbwXa3'
p4358
(dp4359
g3
S'Drake'
p4360
sg5
I31
sg6
S'https://open.spotify.com/track/1xznGGDReH1oQq0xzbwXa3'
p4361
sg8
S'One Dance'
p4362
ssS'5GXAXm5YOmYT0kL5jHvYBt'
p4363
(dp4364
g3
S'The Weeknd'
p4365
sg5
I42
sg6
S'https://open.spotify.com/track/5GXAXm5YOmYT0kL5jHvYBt'
p4366
sg8
S'I Feel It Coming'
p4367
ssS'5Wz7lWQGr7AC1LWutvzINn'
p4368
(dp4369
g3
S'Bernhoft'
p4370
sg5
I1
sg6
S'https://open.spotify.com/track/5Wz7lWQGr7AC1LWutvzINn'
p4371
sg8
S'Visceral'
p4372
ssS'6IZvVAP7VPPnsGX6bvgkqg'
p4373
(dp4374
g3
S'Kendrick Lamar'
p4375
sg5
I2
sg6
S'https://open.spotify.com/track/6IZvVAP7VPPnsGX6bvgkqg'
p4376
sg8
S'PRIDE.'
p4377
ssS'0lMbuWUpfTWhEmOKxppEau'
p4378
(dp4379
g3
S'Calvin Harris'
p4380
sg5
I9
sg6
S'https://open.spotify.com/track/0lMbuWUpfTWhEmOKxppEau'
p4381
sg8
S'Rollin'
p4382
ssS'508hbpTQ7wclT2JDpKBUSV'
p4383
(dp4384
g3
S'Lorde'
p4385
sg5
I1
sg6
S'https://open.spotify.com/track/508hbpTQ7wclT2JDpKBUSV'
p4386
sg8
S'Perfect Places'
p4387
ssS'16BKmvaONRjMRm4tm6rR4g'
p4388
(dp4389
g3
S'DJ Anton'
p4390
sg5
I4
sg6
S'https://open.spotify.com/track/16BKmvaONRjMRm4tm6rR4g'
p4391
sg8
S'Muggene Er Megasv\xc3\xa6re (Elsker \xc3\x98l)'
p4392
ssS'41kE0bBBpwPUZEZKxSIROh'
p4393
(dp4394
g3
S'Urban Cone'
p4395
sg5
I5
sg6
S'https://open.spotify.com/track/41kE0bBBpwPUZEZKxSIROh'
p4396
sg8
S'Old School'
p4397
ssS'62vpWI1CHwFy7tMIcSStl8'
p4398
(dp4399
g3
S'J. Cole'
p4400
sg5
I1
sg6
S'https://open.spotify.com/track/62vpWI1CHwFy7tMIcSStl8'
p4401
sg8
S'No Role Modelz'
p4402
ssS'3cFsmM51N5zMAuu1nNY4Tw'
p4403
(dp4404
g3
S'Sean Paul'
p4405
sg5
I5
sg6
S'https://open.spotify.com/track/3cFsmM51N5zMAuu1nNY4Tw'
p4406
sg8
S'No Lie'
p4407
ssS'51ChrwmUPDJvedPQnIU8Ls'
p4408
(dp4409
g3
S'Ed Sheeran'
p4410
sg5
I11
sg6
S'https://open.spotify.com/track/51ChrwmUPDJvedPQnIU8Ls'
p4411
sg8
S'Dive'
p4412
ssS'6jA8HL9i4QGzsj6fjoxp8Y'
p4413
(dp4414
g3
S'Martin Garrix'
p4415
sg5
I20
sg6
S'https://open.spotify.com/track/6jA8HL9i4QGzsj6fjoxp8Y'
p4416
sg8
S'There for You'
p4417
ssS'7kOgMK63girYyYwLCo5aiW'
p4418
(dp4419
g3
S'Sultan + Shepard '
p4420
sg5
I1
sg6
S'https://open.spotify.com/track/7kOgMK63girYyYwLCo5aiW'
p4421
sg8
S'Almost Home'
p4422
ssS'68OPjIlmc4fb55tDBnTfCU'
p4423
(dp4424
g3
S'Sondre Justad'
p4425
sg5
I3
sg6
S'https://open.spotify.com/track/68OPjIlmc4fb55tDBnTfCU'
p4426
sg8
S'Riv i hjertet'
p4427
ssS'1CUVN2kn7mW5FjkqXTR2W1'
p4428
(dp4429
g3
S'Jonas Blue'
p4430
sg5
I11
sg6
S'https://open.spotify.com/track/1CUVN2kn7mW5FjkqXTR2W1'
p4431
sg8
S'Perfect Strangers'
p4432
ssS'7mkm8ry8rZEzJ9C5wQZZrY'
p4433
(dp4434
g3
S'Basic Tape'
p4435
sg5
I1
sg6
S'https://open.spotify.com/track/7mkm8ry8rZEzJ9C5wQZZrY'
p4436
sg8
S'No Matter (Basic Tape vs. Frances)'
p4437
ssS'0SGkqnVQo9KPytSri1H6cF'
p4438
(dp4439
g3
S'Big Sean'
p4440
sg5
I13
sg6
S'https://open.spotify.com/track/0SGkqnVQo9KPytSri1H6cF'
p4441
sg8
S'Bounce Back'
p4442
ssS'6BzqDyJk0UmUfhBW7Npszk'
p4443
(dp4444
g3
S'Cezinando'
p4445
sg5
I18
sg6
S'https://open.spotify.com/track/6BzqDyJk0UmUfhBW7Npszk'
p4446
sg8
S'Vi er perfekt men verden er ikke det'
p4447
ssS'3UjSOJ00E1eLMcayBm827Q'
p4448
(dp4449
g3
S'Salvador Sobral'
p4450
sg5
I1
sg6
S'https://open.spotify.com/track/3UjSOJ00E1eLMcayBm827Q'
p4451
sg8
S'Amar pelos Dois'
p4452
ssS'7nKBxz47S9SD79N086fuhn'
p4453
(dp4454
g3
S'Enrique Iglesias'
p4455
sg5
I30
sg6
S'https://open.spotify.com/track/7nKBxz47S9SD79N086fuhn'
p4456
sg8
S'SUBEME LA RADIO'
p4457
ssS'27SdWb2rFzO6GWiYDBTD9j'
p4458
(dp4459
g3
S'Sia'
p4460
sg5
I27
sg6
S'https://open.spotify.com/track/27SdWb2rFzO6GWiYDBTD9j'
p4461
sg8
S'Cheap Thrills'
p4462
ssS'3vgNmjuRDnGLxUFGCLkwpm'
p4463
(dp4464
g3
S'David Guetta'
p4465
sg5
I3
sg6
S'https://open.spotify.com/track/3vgNmjuRDnGLxUFGCLkwpm'
p4466
sg8
S'Light My Body Up (feat. Nicki Minaj & Lil Wayne)'
p4467
ssS'5dQJKDx0x73seZbwSORa1T'
p4468
(dp4469
g3
S'The Vamps'
p4470
sg5
I1
sg6
S'https://open.spotify.com/track/5dQJKDx0x73seZbwSORa1T'
p4471
sg8
S'Middle Of The Night'
p4472
ssS'3w1gc4uWMspH4v6c98INoT'
p4473
(dp4474
g3
S'Vidar Villa'
p4475
sg5
I3
sg6
S'https://open.spotify.com/track/3w1gc4uWMspH4v6c98INoT'
p4476
sg8
S'Et Par Rolige Shots Med Gutta'
p4477
ssS'6PJ8FF6UR8FZXfEvpHkIVN'
p4478
(dp4479
g3
S'Ed Sheeran'
p4480
sg5
I10
sg6
S'https://open.spotify.com/track/6PJ8FF6UR8FZXfEvpHkIVN'
p4481
sg8
S'How Would You Feel (Paean)'
p4482
ssS'2jhKxqWIkHiBfjAQcAMERw'
p4483
(dp4484
g3
S'Vigiland'
p4485
sg5
I1
sg6
S'https://open.spotify.com/track/2jhKxqWIkHiBfjAQcAMERw'
p4486
sg8
S'Another Shot'
p4487
ssS'2XByuxaiNItlTFEaGDRqcs'
p4488
(dp4489
g3
S'Adel\xc3\xa9n'
p4490
sg5
I1
sg6
S'https://open.spotify.com/track/2XByuxaiNItlTFEaGDRqcs'
p4491
sg8
S'Go Home'
p4492
ssS'3kdMzXOcrDIdSWLdONHNK5'
p4493
(dp4494
g3
S'Foo Fighters'
p4495
sg5
I1
sg6
S'https://open.spotify.com/track/3kdMzXOcrDIdSWLdONHNK5'
p4496
sg8
S'The Sky Is A Neighborhood'
p4497
ssS'4F2C1ny4u7zXrIUnmopCyI'
p4498
(dp4499
g3
S'TIX'
p4500
sg5
I9
sg6
S'https://open.spotify.com/track/4F2C1ny4u7zXrIUnmopCyI'
p4501
sg8
S'Dory 2017'
p4502
ssS'5uCax9HTNlzGybIStD3vDh'
p4503
(dp4504
g3
S'James Arthur'
p4505
sg5
I42
sg6
S'https://open.spotify.com/track/5uCax9HTNlzGybIStD3vDh'
p4506
sg8
S"Say You Won't Let Go"
p4507
ssS'7qiZfU4dY1lWllzX7mPBI3'
p4508
(dp4509
g3
S'Ed Sheeran'
p4510
sg5
I40
sg6
S'https://open.spotify.com/track/7qiZfU4dY1lWllzX7mPBI3'
p4511
sg8
S'Shape of You'
p4512
ssS'3deiogWYGccIrRoG9Lv10Y'
p4513
(dp4514
g3
S'Skei & PT'
p4515
sg5
I8
sg6
S'https://open.spotify.com/track/3deiogWYGccIrRoG9Lv10Y'
p4516
sg8
S'Sol og Sommer'
p4517
ssS'2EqisQvhVdxgKPCWQtGeum'
p4518
(dp4519
g3
S'TIX'
p4520
sg5
I4
sg6
S'https://open.spotify.com/track/2EqisQvhVdxgKPCWQtGeum'
p4521
sg8
S'Gullalderen 2017'
p4522
ssS'0wfbD5rAksdXUzRvMfM3x5'
p4523
(dp4524
g3
S'The Chainsmokers'
p4525
sg5
I8
sg6
S'https://open.spotify.com/track/0wfbD5rAksdXUzRvMfM3x5'
p4526
sg8
S'The One'
p4527
ssS'1TOiDnIY8HgPyDLSR08QXq'
p4528
(dp4529
g3
S'Zara Larsson'
p4530
sg5
I1
sg6
S'https://open.spotify.com/track/1TOiDnIY8HgPyDLSR08QXq'
p4531
sg8
S'What They Say'
p4532
ssS'2fQrGHiQOvpL9UgPvtYy6G'
p4533
(dp4534
g3
S'21 Savage'
p4535
sg5
I3
sg6
S'https://open.spotify.com/track/2fQrGHiQOvpL9UgPvtYy6G'
p4536
sg8
S'Bank Account'
p4537
ssS'6XOYVSmNDjKUNMXooU4s4z'
p4538
(dp4539
g3
S'OneRepublic'
p4540
sg5
I17
sg6
S'https://open.spotify.com/track/6XOYVSmNDjKUNMXooU4s4z'
p4541
sg8
S'No Vacancy'
p4542
ssS'2FiSTH0GYpIioUgjfzMIja'
p4543
(dp4544
g3
S'Kygo'
p4545
sg5
I11
sg6
S'https://open.spotify.com/track/2FiSTH0GYpIioUgjfzMIja'
p4546
sg8
S'Stay'
p4547
ssS'1F2HXIJrE2Xn81OzT2zZvW'
p4548
(dp4549
g3
S'French Montana'
p4550
sg5
I13
sg6
S'https://open.spotify.com/track/1F2HXIJrE2Xn81OzT2zZvW'
p4551
sg8
S'Unforgettable'
p4552
ssS'6QgjcU0zLnzq5OrUoSZ3OK'
p4553
(dp4554
g3
S'Portugal. The Man'
p4555
sg5
I11
sg6
S'https://open.spotify.com/track/6QgjcU0zLnzq5OrUoSZ3OK'
p4556
sg8
S'Feel It Still'
p4557
ssS'21Fe0jlYdepB4j0mH1q7cu'
p4558
(dp4559
g3
S'Freddy Kalas'
p4560
sg5
I25
sg6
S'https://open.spotify.com/track/21Fe0jlYdepB4j0mH1q7cu'
p4561
sg8
S'Gj\xc3\xb8re Ingenting'
p4562
ssS'0lvEHeYsJbxcKKQzg9V5Zz'
p4563
(dp4564
g3
S'Kamelen'
p4565
sg5
I1
sg6
S'https://open.spotify.com/track/0lvEHeYsJbxcKKQzg9V5Zz'
p4566
sg8
S'Klubbkamel'
p4567
ssS'7pstxLUhvsJC3M4TxHe2aI'
p4568
(dp4569
g3
S'Ti\xc3\xabsto'
p4570
sg5
I2
sg6
S'https://open.spotify.com/track/7pstxLUhvsJC3M4TxHe2aI'
p4571
sg8
S'Carry You Home'
p4572
ssS'78rIJddV4X0HkNAInEcYde'
p4573
(dp4574
g3
S'Starley'
p4575
sg5
I40
sg6
S'https://open.spotify.com/track/78rIJddV4X0HkNAInEcYde'
p4576
sg8
S'Call On Me - Ryan Riback Extended Remix'
p4577
ssS'0L7loeTIg6akW84aEQZpCT'
p4578
(dp4579
g3
S'Major Lazer'
p4580
sg5
I7
sg6
S'https://open.spotify.com/track/0L7loeTIg6akW84aEQZpCT'
p4581
sg8
S'Light It Up (feat. Nyla & Fuse ODG) - Remix'
p4582
ssS'2hPLfPxvRUfXKNGD3VcJnT'
p4583
(dp4584
g3
S'Avicii'
p4585
sg5
I1
sg6
S'https://open.spotify.com/track/2hPLfPxvRUfXKNGD3VcJnT'
p4586
sg8
S'So Much Better - Avicii Remix'
p4587
ssS'4Q5yMlwAfAoitqg4r9oZHN'
p4588
(dp4589
g3
S'Cashmere Cat'
p4590
sg5
I8
sg6
S'https://open.spotify.com/track/4Q5yMlwAfAoitqg4r9oZHN'
p4591
sg8
S'Quit (feat. Ariana Grande)'
p4592
ssS'1Bqxj0aH5KewYHKUg1IdrF'
p4593
(dp4594
g3
S'G-Eazy'
p4595
sg5
I9
sg6
S'https://open.spotify.com/track/1Bqxj0aH5KewYHKUg1IdrF'
p4596
sg8
S'Some Kind Of Drug'
p4597
ssS'22BH6K8RlpwNzIINvWS4Jj'
p4598
(dp4599
g3
S'Bebe Rexha'
p4600
sg5
I2
sg6
S'https://open.spotify.com/track/22BH6K8RlpwNzIINvWS4Jj'
p4601
sg8
S'(Not) The One'
p4602
ssS'4axw5RUC7KQQIojLrUf3wS'
p4603
(dp4604
g3
S'Tomine Harket'
p4605
sg5
I25
sg6
S'https://open.spotify.com/track/4axw5RUC7KQQIojLrUf3wS'
p4606
sg8
S'Nostalgi 3Millioner'
p4607
ssS'5TXDeTFVRVY7Cvt0Dw4vWW'
p4608
(dp4609
g3
S'XXXTENTACION'
p4610
sg5
I6
sg6
S'https://open.spotify.com/track/5TXDeTFVRVY7Cvt0Dw4vWW'
p4611
sg8
S'Revenge'
p4612
ssS'167NczpNbRF7oWakJaY3Hh'
p4613
(dp4614
g3
S'Niall Horan'
p4615
sg5
I23
sg6
S'https://open.spotify.com/track/167NczpNbRF7oWakJaY3Hh'
p4616
sg8
S'Slow Hands'
p4617
ssS'0fH86zQcE2CmATQju6WpXv'
p4618
(dp4619
g3
S'Kris Kross Amsterdam'
p4620
sg5
I2
sg6
S'https://open.spotify.com/track/0fH86zQcE2CmATQju6WpXv'
p4621
sg8
S'Are You Sure? (feat. Ty Dolla $ign)'
p4622
ssS'5GxTUkzTyPEoAAPA5M4Jyx'
p4623
(dp4624
g3
S'Susanne Sundf\xc3\xb8r'
p4625
sg5
I1
sg6
S'https://open.spotify.com/track/5GxTUkzTyPEoAAPA5M4Jyx'
p4626
sg8
S'Undercover (Edit)'
p4627
ssS'0or0gNaKAXYYCsOrpvRzAu'
p4628
(dp4629
g3
S'Lorde'
p4630
sg5
I1
sg6
S'https://open.spotify.com/track/0or0gNaKAXYYCsOrpvRzAu'
p4631
sg8
S'Liability'
p4632
ssS'19a3JfW8BQwqHWUMbcqSx8'
p4633
(dp4634
g3
S'Kanye West'
p4635
sg5
I4
sg6
S'https://open.spotify.com/track/19a3JfW8BQwqHWUMbcqSx8'
p4636
sg8
S'Famous'
p4637
ssS'5JumjbpoKigvotk9JFyf3O'
p4638
(dp4639
g3
S'Tove Lo'
p4640
sg5
I3
sg6
S'https://open.spotify.com/track/5JumjbpoKigvotk9JFyf3O'
p4641
sg8
S'Lies In The Dark - From Fifty Shades Darker (Original Motion Picture Soundtrack)'
p4642
ssS'7dzV2cPLsWQ8BvXho1Pzn6'
p4643
(dp4644
g3
S'JOWST'
p4645
sg5
I2
sg6
S'https://open.spotify.com/track/7dzV2cPLsWQ8BvXho1Pzn6'
p4646
sg8
S'ThatFeeling (feat. Aleksander Walmann)'
p4647
ssS'6cREm4bV7V79Yxdilx9HDo'
p4648
(dp4649
g3
S'Timeflies'
p4650
sg5
I1
sg6
S'https://open.spotify.com/track/6cREm4bV7V79Yxdilx9HDo'
p4651
sg8
S'Once In a While'
p4652
ssS'7tmtOEDxPN7CWaQWBsG1DY'
p4653
(dp4654
g3
S'James Bay'
p4655
sg5
I6
sg6
S'https://open.spotify.com/track/7tmtOEDxPN7CWaQWBsG1DY'
p4656
sg8
S'Hold Back The River'
p4657
ssS'1DGYmHLYkwyCmvDEL3ctti'
p4658
(dp4659
g3
S'Dido'
p4660
sg5
I1
sg6
S'https://open.spotify.com/track/1DGYmHLYkwyCmvDEL3ctti'
p4661
sg8
S'Christmas Day'
p4662
ssS'1TmPL2GQH7yKJUxXp9Ckme'
p4663
(dp4664
g3
S'Unge Ferrari'
p4665
sg5
I1
sg6
S'https://open.spotify.com/track/1TmPL2GQH7yKJUxXp9Ckme'
p4666
sg8
S'D&G (Med Cherrie)'
p4667
ssS'6vBgJ1SLmpB4VMcEVy1ovL'
p4668
(dp4669
g3
S'Joakim Lundell'
p4670
sg5
I21
sg6
S'https://open.spotify.com/track/6vBgJ1SLmpB4VMcEVy1ovL'
p4671
sg8
S'All I Need'
p4672
ssS'0fmFX2bQOdqJ1hVlSxRl2F'
p4673
(dp4674
g3
S'Ella Eyre'
p4675
sg5
I1
sg6
S'https://open.spotify.com/track/0fmFX2bQOdqJ1hVlSxRl2F'
p4676
sg8
S'Ego (feat. Ty Dolla $ign)'
p4677
ssS'0xG0SHshCStMEyNbNC5d4k'
p4678
(dp4679
g3
S'Julia Michaels'
p4680
sg5
I9
sg6
S'https://open.spotify.com/track/0xG0SHshCStMEyNbNC5d4k'
p4681
sg8
S'Issues'
p4682
ssS'7yHEDfrJNd0zWOfXwydNH0'
p4683
(dp4684
g3
S'Ariana Grande'
p4685
sg5
I3
sg6
S'https://open.spotify.com/track/7yHEDfrJNd0zWOfXwydNH0'
p4686
sg8
S'Into You'
p4687
ssS'1lntL1cI2UIWlxjL5QiN8g'
p4688
(dp4689
g3
S'Lauv'
p4690
sg5
I6
sg6
S'https://open.spotify.com/track/1lntL1cI2UIWlxjL5QiN8g'
p4691
sg8
S'The Other'
p4692
ssS'4UTA3zDiQJDgraWZlLBgpH'
p4693
(dp4694
g3
S'Alexandra Joner'
p4695
sg5
I16
sg6
S'https://open.spotify.com/track/4UTA3zDiQJDgraWZlLBgpH'
p4696
sg8
S'Kilimanjaro'
p4697
ssS'6nlXWOyoCPLXXWaklOyQcb'
p4698
(dp4699
g3
S'Julia Michaels'
p4700
sg5
I4
sg6
S'https://open.spotify.com/track/6nlXWOyoCPLXXWaklOyQcb'
p4701
sg8
S'Issues - Alan Walker Remix'
p4702
ssS'1EBkbkjFr32YRhWKJJkydf'
p4703
(dp4704
g3
S'BEK & Wallin'
p4705
sg5
I6
sg6
S'https://open.spotify.com/track/1EBkbkjFr32YRhWKJJkydf'
p4706
sg8
S'Mad Mickey 2017'
p4707
ssS'2h9L3U6h3jnfOpIAj8E86H'
p4708
(dp4709
g3
S'Tove Lo'
p4710
sg5
I1
sg6
S'https://open.spotify.com/track/2h9L3U6h3jnfOpIAj8E86H'
p4711
sg8
S'Disco Tits'
p4712
ssS'5wpxDeRAgF5VyELTSuTeWv'
p4713
(dp4714
g3
S'Marcus & Martinus'
p4715
sg5
I1
sg6
S'https://open.spotify.com/track/5wpxDeRAgF5VyELTSuTeWv'
p4716
sg8
S'Bae'
p4717
ssS'5Db9VIdDsN5yu3Eu7CT0i4'
p4718
(dp4719
g3
S'Sam Smith'
p4720
sg5
I8
sg6
S'https://open.spotify.com/track/5Db9VIdDsN5yu3Eu7CT0i4'
p4721
sg8
S'Stay With Me'
p4722
ssS'4vSsc77iC2AVGhnc8b2YgJ'
p4723
(dp4724
g3
S'Gabrielle'
p4725
sg5
I1
sg6
S'https://open.spotify.com/track/4vSsc77iC2AVGhnc8b2YgJ'
p4726
sg8
S'Venter'
p4727
ssS'7nY0TjOsD1BZehkZgLiOxO'
p4728
(dp4729
g3
S'Katy Perry'
p4730
sg5
I1
sg6
S'https://open.spotify.com/track/7nY0TjOsD1BZehkZgLiOxO'
p4731
sg8
S'Hey Hey Hey'
p4732
ssS'4uoumbAMEMaKdtiv763jKz'
p4733
(dp4734
g3
S'Zara Larsson'
p4735
sg5
I22
sg6
S'https://open.spotify.com/track/4uoumbAMEMaKdtiv763jKz'
p4736
sg8
S'TG4M'
p4737
ssS'7pYFPMeK0TnaTGdS6qOtEr'
p4738
(dp4739
g3
S'Stargate'
p4740
sg5
I6
sg6
S'https://open.spotify.com/track/7pYFPMeK0TnaTGdS6qOtEr'
p4741
sg8
S'Waterfall'
p4742
ssS'1yNyoWWWikbLhwIGWjZuDW'
p4743
(dp4744
g3
S'The Vamps'
p4745
sg5
I27
sg6
S'https://open.spotify.com/track/1yNyoWWWikbLhwIGWjZuDW'
p4746
sg8
S'All Night'
p4747
ssS'7nwGvxqSrgAuty1tlPGCFz'
p4748
(dp4749
g3
S'Cash Cash'
p4750
sg5
I2
sg6
S'https://open.spotify.com/track/7nwGvxqSrgAuty1tlPGCFz'
p4751
sg8
S'Matches'
p4752
ssS'7gQZeVEbi97sJjd4K6yLB6'
p4753
(dp4754
g3
S'Kamelen'
p4755
sg5
I1
sg6
S'https://open.spotify.com/track/7gQZeVEbi97sJjd4K6yLB6'
p4756
sg8
S'D E Digg (Feat/ Jonas V)'
p4757
ssS'3Dwq1oiOFys6Sxr5SslmXw'
p4758
(dp4759
g3
S'Harry Styles'
p4760
sg5
I1
sg6
S'https://open.spotify.com/track/3Dwq1oiOFys6Sxr5SslmXw'
p4761
sg8
S'Carolina'
p4762
ssS'4vb4mFvYsr2h6enhjJsq9Y'
p4763
(dp4764
g3
S'Adele'
p4765
sg5
I7
sg6
S'https://open.spotify.com/track/4vb4mFvYsr2h6enhjJsq9Y'
p4766
sg8
S'Water Under the Bridge'
p4767
ssS'3AejLp63AF23vf4hiRzhEP'
p4768
(dp4769
g3
S'Philip Emilio'
p4770
sg5
I1
sg6
S'https://open.spotify.com/track/3AejLp63AF23vf4hiRzhEP'
p4771
sg8
S'VIII'
p4772
ssS'17Fd6Yb7mSbinKG8LoWfFl'
p4773
(dp4774
g3
S'Mike Posner'
p4775
sg5
I22
sg6
S'https://open.spotify.com/track/17Fd6Yb7mSbinKG8LoWfFl'
p4776
sg8
S'I Took A Pill In Ibiza - Seeb Remix'
p4777
ssS'4tCtwWceOPWzenK2HAIJSb'
p4778
(dp4779
g3
S'Fifth Harmony'
p4780
sg5
I4
sg6
S'https://open.spotify.com/track/4tCtwWceOPWzenK2HAIJSb'
p4781
sg8
S'Work from Home'
p4782
ssS'274J6TLWSLcHL2qIGS2vkW'
p4783
(dp4784
g3
S'ARY'
p4785
sg5
I1
sg6
S'https://open.spotify.com/track/274J6TLWSLcHL2qIGS2vkW'
p4786
sg8
S'Already There'
p4787
ssS'5Z3GHaZ6ec9bsiI5BenrbY'
p4788
(dp4789
g3
S'Khalid'
p4790
sg5
I9
sg6
S'https://open.spotify.com/track/5Z3GHaZ6ec9bsiI5BenrbY'
p4791
sg8
S'Young Dumb & Broke'
p4792
ssS'50Gdx5uDP2BkxAuC57FyHt'
p4793
(dp4794
g3
S'Cezinando'
p4795
sg5
I1
sg6
S'https://open.spotify.com/track/50Gdx5uDP2BkxAuC57FyHt'
p4796
sg8
S'Bilder p\xc3\xa5 veggen jeg aldri ser p\xc3\xa5'
p4797
ssS'0FZHpDOVQ8N1HJLahZsTT1'
p4798
(dp4799
g3
S'Ingebj\xc3\xb8rg Bratland'
p4800
sg5
I1
sg6
S'https://open.spotify.com/track/0FZHpDOVQ8N1HJLahZsTT1'
p4801
sg8
S'Jul i svingen'
p4802
ssS'2cciWXEjZ4ot8GtE7E2gV0'
p4803
(dp4804
g3
S'Karpe Diem'
p4805
sg5
I6
sg6
S'https://open.spotify.com/track/2cciWXEjZ4ot8GtE7E2gV0'
p4806
sg8
S'Hvite menn som pusher 50'
p4807
ssS'3hB5DgAiMAQ4DzYbsMq1IT'
p4808
(dp4809
g3
S'Justin Bieber'
p4810
sg5
I18
sg6
S'https://open.spotify.com/track/3hB5DgAiMAQ4DzYbsMq1IT'
p4811
sg8
S'Love Yourself'
p4812
ssS'1foCxQtxBweJtZmdxhEHVO'
p4813
(dp4814
g3
S'Eartha Kitt'
p4815
sg5
I1
sg6
S'https://open.spotify.com/track/1foCxQtxBweJtZmdxhEHVO'
p4816
sg8
S'Santa Baby'
p4817
ssS'1dGbLmHZpzcDVN9Jzgx5ih'
p4818
(dp4819
g3
S'Ezzari'
p4820
sg5
I1
sg6
S'https://open.spotify.com/track/1dGbLmHZpzcDVN9Jzgx5ih'
p4821
sg8
S'Null'
p4822
ssS'32OWobmyAz8J2qA8iWekyS'
p4823
(dp4824
g3
S'Justin Bieber'
p4825
sg5
I1
sg6
S'https://open.spotify.com/track/32OWobmyAz8J2qA8iWekyS'
p4826
sg8
S'Mistletoe'
p4827
ssS'0afhq8XCExXpqazXczTSve'
p4828
(dp4829
g3
S'Ed Sheeran'
p4830
sg5
I32
sg6
S'https://open.spotify.com/track/0afhq8XCExXpqazXczTSve'
p4831
sg8
S'Galway Girl'
p4832
ssS'5C8Mfq4ZeeHKntSmMo0vdG'
p4833
(dp4834
g3
S'Amanda Delara'
p4835
sg5
I4
sg6
S'https://open.spotify.com/track/5C8Mfq4ZeeHKntSmMo0vdG'
p4836
sg8
S'Dirhamz'
p4837
ssS'1w2bm47wh7WoXk728TRSPU'
p4838
(dp4839
g3
S'Sonny Alven'
p4840
sg5
I2
sg6
S'https://open.spotify.com/track/1w2bm47wh7WoXk728TRSPU'
p4841
sg8
S'Too Late To Love Me'
p4842
ssS'6PGoSes0D9eUDeeAafB2As'
p4843
(dp4844
g3
S'Kendrick Lamar'
p4845
sg5
I5
sg6
S'https://open.spotify.com/track/6PGoSes0D9eUDeeAafB2As'
p4846
sg8
S'LOVE. FEAT. ZACARI.'
p4847
ssS'4oUfwAQJZGPufJHHzUNByB'
p4848
(dp4849
g3
S'ABBA'
p4850
sg5
I1
sg6
S'https://open.spotify.com/track/4oUfwAQJZGPufJHHzUNByB'
p4851
sg8
S'Happy New Year'
p4852
ssS'2GdIKPluDT6hT3xBxxKiUK'
p4853
(dp4854
g3
S'Ilinca'
p4855
sg5
I1
sg6
S'https://open.spotify.com/track/2GdIKPluDT6hT3xBxxKiUK'
p4856
sg8
S'Yodel it!'
p4857
ss.