(dp0
S'0mel2N9Ws9r4yLQn5QE21Y'
p1
(dp2
S'artistName'
p3
S'Sam Smith'
p4
sS'weeksOnChart'
p5
I5
sS'track_href'
p6
S'https://open.spotify.com/track/0mel2N9Ws9r4yLQn5QE21Y'
p7
sS'songName'
p8
S'Too Good At Goodbyes'
p9
ssS'728zbo72kOoYdGR3AhNsyF'
p10
(dp11
g3
S'The xx'
p12
sg5
I3
sg6
S'https://open.spotify.com/track/728zbo72kOoYdGR3AhNsyF'
p13
sg8
S'Say Something Loving'
p14
ssS'3sJHkcxojoJD2Ytbo1yLLF'
p15
(dp16
g3
S'Moon Taxi'
p17
sg5
I7
sg6
S'https://open.spotify.com/track/3sJHkcxojoJD2Ytbo1yLLF'
p18
sg8
S'Two High'
p19
ssS'0jdny0dhgjUwoIp5GkqEaA'
p20
(dp21
g3
S'Kesha'
p22
sg5
I9
sg6
S'https://open.spotify.com/track/0jdny0dhgjUwoIp5GkqEaA'
p23
sg8
S'Praying'
p24
ssS'60a0Rd6pjrkxjPbaKzXjfq'
p25
(dp26
g3
S'Linkin Park'
p27
sg5
I3
sg6
S'https://open.spotify.com/track/60a0Rd6pjrkxjPbaKzXjfq'
p28
sg8
S'In The End'
p29
ssS'0prNGof3XqfTvNDxHonvdK'
p30
(dp31
g3
S'Alessia Cara'
p32
sg5
I40
sg6
S'https://open.spotify.com/track/0prNGof3XqfTvNDxHonvdK'
p33
sg8
S'Scars To Your Beautiful'
p34
ssS'6HUnnBwYZqcED1eQztxMBN'
p35
(dp36
g3
S'Martin Jensen'
p37
sg5
I41
sg6
S'https://open.spotify.com/track/6HUnnBwYZqcED1eQztxMBN'
p38
sg8
S'Solo Dance'
p39
ssS'0RYXEibxMami3QuT8kn4Iz'
p40
(dp41
g3
S'Macklemore'
p42
sg5
I5
sg6
S'https://open.spotify.com/track/0RYXEibxMami3QuT8kn4Iz'
p43
sg8
S'Marmalade (feat. Lil Yachty)'
p44
ssS'3QWjljChcOMkRDYSzF33Qr'
p45
(dp46
g3
S'Kiiara'
p47
sg5
I7
sg6
S'https://open.spotify.com/track/3QWjljChcOMkRDYSzF33Qr'
p48
sg8
S'Whippin (feat. Felix Snow)'
p49
ssS'0lLdorYw7lVrJydTINhWdI'
p50
(dp51
g3
S'Michael Bubl\xc3\xa9'
p52
sg5
I1
sg6
S'https://open.spotify.com/track/0lLdorYw7lVrJydTINhWdI'
p53
sg8
S"It's Beginning To Look A Lot Like Christmas"
p54
ssS'1OAh8uOEOvTDqkKFsKksCi'
p55
(dp56
g3
S'DJ Khaled'
p57
sg5
I17
sg6
S'https://open.spotify.com/track/1OAh8uOEOvTDqkKFsKksCi'
p58
sg8
S'Wild Thoughts'
p59
ssS'2aksifNn5ph8igDOkPBA02'
p60
(dp61
g3
S'Rihanna'
p62
sg5
I5
sg6
S'https://open.spotify.com/track/2aksifNn5ph8igDOkPBA02'
p63
sg8
S'Love On The Brain'
p64
ssS'5o4yGlG0PfeVUa6ClIyOxq'
p65
(dp66
g3
S'Charli XCX'
p67
sg5
I8
sg6
S'https://open.spotify.com/track/5o4yGlG0PfeVUa6ClIyOxq'
p68
sg8
S'Boys'
p69
ssS'4b4KcovePX8Ke2cLIQTLM0'
p70
(dp71
g3
S'The Vamps'
p72
sg5
I11
sg6
S'https://open.spotify.com/track/4b4KcovePX8Ke2cLIQTLM0'
p73
sg8
S'All Night'
p74
ssS'7wGoVu4Dady5GV0Sv4UIsx'
p75
(dp76
g3
S'Post Malone'
p77
sg5
I1
sg6
S'https://open.spotify.com/track/7wGoVu4Dady5GV0Sv4UIsx'
p78
sg8
S'rockstar'
p79
ssS'7LJjWqhqK594nN7qJzLVXE'
p80
(dp81
g3
S'BLACKPINK'
p82
sg5
I1
sg6
S'https://open.spotify.com/track/7LJjWqhqK594nN7qJzLVXE'
p83
sg8
S"As If It's Your Last"
p84
ssS'7exsEou9EAHxizbsLzyZ8W'
p85
(dp86
g3
S'Sticky Fingers'
p87
sg5
I1
sg6
S'https://open.spotify.com/track/7exsEou9EAHxizbsLzyZ8W'
p88
sg8
S'Our Town'
p89
ssS'1CnPYaKxTVb4LWOtiGOm0m'
p90
(dp91
g3
S'Jon Bellion'
p92
sg5
I36
sg6
S'https://open.spotify.com/track/1CnPYaKxTVb4LWOtiGOm0m'
p93
sg8
S'All Time Low'
p94
ssS'4OZEu0Vwq0RB2LAq14v99n'
p95
(dp96
g3
S'DJ Snake'
p97
sg5
I5
sg6
S'https://open.spotify.com/track/4OZEu0Vwq0RB2LAq14v99n'
p98
sg8
S'Middle'
p99
ssS'5Ber68jZ7ytegr2UISEdb7'
p100
(dp101
g3
S'Michael Bubl\xc3\xa9'
p102
sg5
I1
sg6
S'https://open.spotify.com/track/5Ber68jZ7ytegr2UISEdb7'
p103
sg8
S'Santa Claus Is Coming To Town'
p104
ssS'2NjgNtG2oTS3RJsrWxlgnG'
p105
(dp106
g3
S'Illy'
p107
sg5
I4
sg6
S'https://open.spotify.com/track/2NjgNtG2oTS3RJsrWxlgnG'
p108
sg8
S'You Say When (feat. Marko Penn)'
p109
ssS'6Pw3Gvw4wNMZfTYZa6IQal'
p110
(dp111
g3
S'Bebe Rexha'
p112
sg5
I5
sg6
S'https://open.spotify.com/track/6Pw3Gvw4wNMZfTYZa6IQal'
p113
sg8
S'The Way I Are (Dance With Somebody) [feat. Lil Wayne]'
p114
ssS'6vQcJA5threi10HjQuT6JM'
p115
(dp116
g3
S'Meg Mac'
p117
sg5
I1
sg6
S'https://open.spotify.com/track/6vQcJA5threi10HjQuT6JM'
p118
sg8
S'Low Blows'
p119
ssS'2FRnf9qhLbvw8fu4IBXx78'
p120
(dp121
g3
S'Wham!'
p122
sg5
I1
sg6
S'https://open.spotify.com/track/2FRnf9qhLbvw8fu4IBXx78'
p123
sg8
S'Last Christmas'
p124
ssS'2bJvI42r8EF3wxjOuDav4r'
p125
(dp126
g3
S'Pitbull'
p127
sg5
I1
sg6
S'https://open.spotify.com/track/2bJvI42r8EF3wxjOuDav4r'
p128
sg8
S'Time of Our Lives'
p129
ssS'7tr2za8SQg2CI8EDgrdtNl'
p130
(dp131
g3
S'Calvin Harris'
p132
sg5
I29
sg6
S'https://open.spotify.com/track/7tr2za8SQg2CI8EDgrdtNl'
p133
sg8
S'Slide'
p134
ssS'4rex1k9pBVFaIVKBBssZzi'
p135
(dp136
g3
S'Pnau'
p137
sg5
I42
sg6
S'https://open.spotify.com/track/4rex1k9pBVFaIVKBBssZzi'
p138
sg8
S'Chameleon'
p139
ssS'1vxw6aYJls2oq3gW0DujAo'
p140
(dp141
g3
S'Gnarls Barkley'
p142
sg5
I40
sg6
S'https://open.spotify.com/track/1vxw6aYJls2oq3gW0DujAo'
p143
sg8
S'Crazy'
p144
ssS'06FCvd7rrRcF3DdvWH5Isp'
p145
(dp146
g3
S'Kendrick Lamar'
p147
sg5
I5
sg6
S'https://open.spotify.com/track/06FCvd7rrRcF3DdvWH5Isp'
p148
sg8
S'LUST.'
p149
ssS'4pLwZjInHj3SimIyN9SnOz'
p150
(dp151
g3
S'Ariana Grande'
p152
sg5
I41
sg6
S'https://open.spotify.com/track/4pLwZjInHj3SimIyN9SnOz'
p153
sg8
S'Side To Side'
p154
ssS'6C7RJEIUDqKkJRZVWdkfkH'
p155
(dp156
g3
S'Kanye West'
p157
sg5
I42
sg6
S'https://open.spotify.com/track/6C7RJEIUDqKkJRZVWdkfkH'
p158
sg8
S'Stronger'
p159
ssS'3E2Zh20GDCR9B1EYjfXWyv'
p160
(dp161
g3
S'AJR'
p162
sg5
I19
sg6
S'https://open.spotify.com/track/3E2Zh20GDCR9B1EYjfXWyv'
p163
sg8
S'Weak'
p164
ssS'2Gl0FzuLxflY6nPifJp5Dr'
p165
(dp166
g3
S'Kygo'
p167
sg5
I24
sg6
S'https://open.spotify.com/track/2Gl0FzuLxflY6nPifJp5Dr'
p168
sg8
S'First Time'
p169
ssS'0xl1w2q4VLojeXp4JfazPL'
p170
(dp171
g3
S'Drake'
p172
sg5
I3
sg6
S'https://open.spotify.com/track/0xl1w2q4VLojeXp4JfazPL'
p173
sg8
S'Sacrifices'
p174
ssS'4BHzQ9C00ceJxfG16AlNWb'
p175
(dp176
g3
S'Adele'
p177
sg5
I17
sg6
S'https://open.spotify.com/track/4BHzQ9C00ceJxfG16AlNWb'
p178
sg8
S'Send My Love (To Your New Lover)'
p179
ssS'4Km5HrUvYTaSUfiSGPJeQR'
p180
(dp181
g3
S'Migos'
p182
sg5
I40
sg6
S'https://open.spotify.com/track/4Km5HrUvYTaSUfiSGPJeQR'
p183
sg8
S'Bad and Boujee (feat. Lil Uzi Vert)'
p184
ssS'3WrG9BpOPQWUus3FjA1Tny'
p185
(dp186
g3
S"Destiny's Child"
p187
sg5
I1
sg6
S'https://open.spotify.com/track/3WrG9BpOPQWUus3FjA1Tny'
p188
sg8
S'8 Days of Christmas - Live'
p189
ssS'2RttW7RAu5nOAfq6YFvApB'
p190
(dp191
g3
S'Ed Sheeran'
p192
sg5
I32
sg6
S'https://open.spotify.com/track/2RttW7RAu5nOAfq6YFvApB'
p193
sg8
S'Happier'
p194
ssS'5LYQSNHZxEA880URXFHg6h'
p195
(dp196
g3
S'Lana Del Rey'
p197
sg5
I2
sg6
S'https://open.spotify.com/track/5LYQSNHZxEA880URXFHg6h'
p198
sg8
S'Lust for Life (with The Weeknd)'
p199
ssS'3EmmCZoqpWOTY1g2GBwJoR'
p200
(dp201
g3
S'Steve Aoki'
p202
sg5
I17
sg6
S'https://open.spotify.com/track/3EmmCZoqpWOTY1g2GBwJoR'
p203
sg8
S'Just Hold On'
p204
ssS'3YQUpKTmtgPJf8u6ooi9KA'
p205
(dp206
g3
S'Elton John'
p207
sg5
I1
sg6
S'https://open.spotify.com/track/3YQUpKTmtgPJf8u6ooi9KA'
p208
sg8
S'Step Into Christmas'
p209
ssS'2jfCy43LsFbCQoB6HyetlY'
p210
(dp211
g3
S'SJUR'
p212
sg5
I2
sg6
S'https://open.spotify.com/track/2jfCy43LsFbCQoB6HyetlY'
p213
sg8
S'Let Me Love You'
p214
ssS'62oCnK99vT8HOgwPsvXuiM'
p215
(dp216
g3
S'Angus & Julia Stone'
p217
sg5
I4
sg6
S'https://open.spotify.com/track/62oCnK99vT8HOgwPsvXuiM'
p218
sg8
S'Chateau'
p219
ssS'0gbBzIqrECJOEPvQJIBFs5'
p220
(dp221
g3
S'Lorde'
p222
sg5
I30
sg6
S'https://open.spotify.com/track/0gbBzIqrECJOEPvQJIBFs5'
p223
sg8
S'Green Light'
p224
ssS'20dP2DaMHIAmwWAbp7peSr'
p225
(dp226
g3
S'Young Thug'
p227
sg5
I3
sg6
S'https://open.spotify.com/track/20dP2DaMHIAmwWAbp7peSr'
p228
sg8
S'pick up the phone'
p229
ssS'5kRPPEWFJIMox5qIkQkiz5'
p230
(dp231
g3
S'Harry Styles'
p232
sg5
I9
sg6
S'https://open.spotify.com/track/5kRPPEWFJIMox5qIkQkiz5'
p233
sg8
S'Sweet Creature'
p234
ssS'5tz69p7tJuGPeMGwNTxYuV'
p235
(dp236
g3
S'Logic'
p237
sg5
I23
sg6
S'https://open.spotify.com/track/5tz69p7tJuGPeMGwNTxYuV'
p238
sg8
S'1-800-273-8255'
p239
ssS'5dNfHmqgr128gMY2tc5CeJ'
p240
(dp241
g3
S'R. Kelly'
p242
sg5
I42
sg6
S'https://open.spotify.com/track/5dNfHmqgr128gMY2tc5CeJ'
p243
sg8
S'Ignition - Remix'
p244
ssS'4xlrALxuaCf9yZBHJeTSG6'
p245
(dp246
g3
S'Jonas Blue'
p247
sg5
I9
sg6
S'https://open.spotify.com/track/4xlrALxuaCf9yZBHJeTSG6'
p248
sg8
S'Mama'
p249
ssS'6Nle9hKrkL1wQpwNfEkxjh'
p250
(dp251
g3
S'Frank Ocean'
p252
sg5
I5
sg6
S'https://open.spotify.com/track/6Nle9hKrkL1wQpwNfEkxjh'
p253
sg8
S'Chanel'
p254
ssS'4izg6Hydc6XGErWW6nbdsV'
p255
(dp256
g3
S'Imagine Dragons'
p257
sg5
I3
sg6
S'https://open.spotify.com/track/4izg6Hydc6XGErWW6nbdsV'
p258
sg8
S'Whatever It Takes'
p259
ssS'3REzEumDuXBpQH45WEHAr6'
p260
(dp261
g3
S'Sofi Tukker'
p262
sg5
I13
sg6
S'https://open.spotify.com/track/3REzEumDuXBpQH45WEHAr6'
p263
sg8
S'Drinkee'
p264
ssS'2oUuLLKS8WbF7ELJcwbqms'
p265
(dp266
g3
S'XXXTENTACION'
p267
sg5
I1
sg6
S'https://open.spotify.com/track/2oUuLLKS8WbF7ELJcwbqms'
p268
sg8
S'Look at Me!'
p269
ssS'3pzjHKrQSvXGHQ98dx18HI'
p270
(dp271
g3
S'Justin Bieber'
p272
sg5
I17
sg6
S'https://open.spotify.com/track/3pzjHKrQSvXGHQ98dx18HI'
p273
sg8
S'What Do You Mean?'
p274
ssS'000xQL6tZNLJzIrtIgxqSl'
p275
(dp276
g3
S'ZAYN'
p277
sg5
I29
sg6
S'https://open.spotify.com/track/000xQL6tZNLJzIrtIgxqSl'
p278
sg8
S'Still Got Time'
p279
ssS'6Lh85Pe18pqvNdDoWgTVUC'
p280
(dp281
g3
S'Michael Bubl\xc3\xa9'
p282
sg5
I1
sg6
S'https://open.spotify.com/track/6Lh85Pe18pqvNdDoWgTVUC'
p283
sg8
S'Blue Christmas'
p284
ssS'1D3ODoXHBLpdxolZRHWV1j'
p285
(dp286
g3
S'Jonas Blue'
p287
sg5
I24
sg6
S'https://open.spotify.com/track/1D3ODoXHBLpdxolZRHWV1j'
p288
sg8
S'By Your Side'
p289
ssS'1CKd1PnqfYx0H12V9MSaIY'
p290
(dp291
g3
S'Zedd'
p292
sg5
I14
sg6
S'https://open.spotify.com/track/1CKd1PnqfYx0H12V9MSaIY'
p293
sg8
S'Get Low (with Liam Payne)'
p294
ssS'0VJYhKhrHgJ7fgjGaC2k07'
p295
(dp296
g3
S'XXXTENTACION'
p297
sg5
I1
sg6
S'https://open.spotify.com/track/0VJYhKhrHgJ7fgjGaC2k07'
p298
sg8
S'The Explanation'
p299
ssS'042x9bsUBWW2fJgJ6fUh61'
p300
(dp301
g3
S'DVBBS'
p302
sg5
I8
sg6
S'https://open.spotify.com/track/042x9bsUBWW2fJgJ6fUh61'
p303
sg8
S'Not Going Home'
p304
ssS'5Z01UMMf7V1o0MzF86s6WJ'
p305
(dp306
g3
S'Eminem'
p307
sg5
I42
sg6
S'https://open.spotify.com/track/5Z01UMMf7V1o0MzF86s6WJ'
p308
sg8
S'Lose Yourself - Soundtrack Version'
p309
ssS'5CtI0qwDJkDQGwXD1H1cLb'
p310
(dp311
g3
S'Luis Fonsi'
p312
sg5
I26
sg6
S'https://open.spotify.com/track/5CtI0qwDJkDQGwXD1H1cLb'
p313
sg8
S'Despacito - Remix'
p314
ssS'7m9OqQk4RVRkw9JJdeAw96'
p315
(dp316
g3
S'XXXTENTACION'
p317
sg5
I7
sg6
S'https://open.spotify.com/track/7m9OqQk4RVRkw9JJdeAw96'
p318
sg8
S'Jocelyn Flores'
p319
ssS'7bsnTsbiwOymZWjPF9v6Di'
p320
(dp321
g3
S'Macklemore'
p322
sg5
I1
sg6
S'https://open.spotify.com/track/7bsnTsbiwOymZWjPF9v6Di'
p323
sg8
S'Marmalade (feat. Lil Yachty)'
p324
ssS'1N90cV79gbBgO0bOs74Y0t'
p325
(dp326
g3
S'Calvin Harris'
p327
sg5
I4
sg6
S'https://open.spotify.com/track/1N90cV79gbBgO0bOs74Y0t'
p328
sg8
S'Heatstroke'
p329
ssS'0NyOeqzqjVM9j7IuWp2oJ6'
p330
(dp331
g3
S'Gryffin'
p332
sg5
I4
sg6
S'https://open.spotify.com/track/0NyOeqzqjVM9j7IuWp2oJ6'
p333
sg8
S'Feel Good (feat. Daya)'
p334
ssS'0Nhu3zSYbEz32IYiobV75e'
p335
(dp336
g3
S'Halsey'
p337
sg5
I10
sg6
S'https://open.spotify.com/track/0Nhu3zSYbEz32IYiobV75e'
p338
sg8
S'Now Or Never'
p339
ssS'3zJw3rugfpVrmBeDDnUYzy'
p340
(dp341
g3
S'John Lennon'
p342
sg5
I1
sg6
S'https://open.spotify.com/track/3zJw3rugfpVrmBeDDnUYzy'
p343
sg8
S'Happy Xmas (War Is Over) - 2010 Digital Remaster'
p344
ssS'1a5Yu5L18qNxVhXx38njON'
p345
(dp346
g3
S'Alok'
p347
sg5
I8
sg6
S'https://open.spotify.com/track/1a5Yu5L18qNxVhXx38njON'
p348
sg8
S'Hear Me Now'
p349
ssS'1Eck97uRMlprKOOJN9oO1E'
p350
(dp351
g3
S'G-Eazy'
p352
sg5
I16
sg6
S'https://open.spotify.com/track/1Eck97uRMlprKOOJN9oO1E'
p353
sg8
S'Good Life (with G-Eazy & Kehlani)'
p354
ssS'7ARveOiD31w2Nq0n5FsSf8'
p355
(dp356
g3
S'Lorde'
p357
sg5
I1
sg6
S'https://open.spotify.com/track/7ARveOiD31w2Nq0n5FsSf8'
p358
sg8
S'Perfect Places'
p359
ssS'2ekn2ttSfGqwhhate0LSR0'
p360
(dp361
g3
S'Dua Lipa'
p362
sg5
I13
sg6
S'https://open.spotify.com/track/2ekn2ttSfGqwhhate0LSR0'
p363
sg8
S'New Rules'
p364
ssS'0y1QJc3SJVPKJ1OvFmFqe6'
p365
(dp366
g3
S'Kaleo'
p367
sg5
I19
sg6
S'https://open.spotify.com/track/0y1QJc3SJVPKJ1OvFmFqe6'
p368
sg8
S'Way Down We Go'
p369
ssS'5humEOJehpAwMJEJmb0JJ2'
p370
(dp371
g3
S'Nat King Cole'
p372
sg5
I1
sg6
S'https://open.spotify.com/track/5humEOJehpAwMJEJmb0JJ2'
p373
sg8
S'The Christmas Song (Merry Christmas To You)'
p374
ssS'2dfqS3MRtbLZSZA1IL8xY5'
p375
(dp376
g3
S'Drake'
p377
sg5
I3
sg6
S'https://open.spotify.com/track/2dfqS3MRtbLZSZA1IL8xY5'
p378
sg8
S'Skepta Interlude'
p379
ssS'1sCxVKWImDZSZKvG0U9B23'
p380
(dp381
g3
S'Selena Gomez'
p382
sg5
I20
sg6
S'https://open.spotify.com/track/1sCxVKWImDZSZKvG0U9B23'
p383
sg8
S'Bad Liar'
p384
ssS'6jmngk8Fwup05JZ6kgXEGX'
p385
(dp386
g3
S'Imagine Dragons'
p387
sg5
I1
sg6
S'https://open.spotify.com/track/6jmngk8Fwup05JZ6kgXEGX'
p388
sg8
S'Walking The Wire'
p389
ssS'4rQM5oK7ljhu1DtoysUofD'
p390
(dp391
g3
S'Touch Sensitive'
p392
sg5
I2
sg6
S'https://open.spotify.com/track/4rQM5oK7ljhu1DtoysUofD'
p393
sg8
S'Lay Down'
p394
ssS'2nUJvBO87SkxCViQsLc9Zr'
p395
(dp396
g3
S'Big Shaq'
p397
sg5
I1
sg6
S'https://open.spotify.com/track/2nUJvBO87SkxCViQsLc9Zr'
p398
sg8
S"Man's Not Hot"
p399
ssS'2uSLx5uwRIhiA3sJJraNqX'
p400
(dp401
g3
S'Maroon 5'
p402
sg5
I1
sg6
S'https://open.spotify.com/track/2uSLx5uwRIhiA3sJJraNqX'
p403
sg8
S'Help Me Out (with Julia Michaels)'
p404
ssS'0ADG9OgdVTL7fgREP75BrZ'
p405
(dp406
g3
S'Zara Larsson'
p407
sg5
I5
sg6
S'https://open.spotify.com/track/0ADG9OgdVTL7fgREP75BrZ'
p408
sg8
S"Ain't My Fault"
p409
ssS'6PGoSes0D9eUDeeAafB2As'
p410
(dp411
g3
S'Kendrick Lamar'
p412
sg5
I26
sg6
S'https://open.spotify.com/track/6PGoSes0D9eUDeeAafB2As'
p413
sg8
S'LOVE. FEAT. ZACARI.'
p414
ssS'7KcGEssn7BnJdTgildK5y0'
p415
(dp416
g3
S'Nicki Minaj'
p417
sg5
I2
sg6
S'https://open.spotify.com/track/7KcGEssn7BnJdTgildK5y0'
p418
sg8
S'No Frauds'
p419
ssS'3TRFq09DUgYj1mug6RRqJW'
p420
(dp421
g3
S'Luke Christopher'
p422
sg5
I7
sg6
S'https://open.spotify.com/track/3TRFq09DUgYj1mug6RRqJW'
p423
sg8
S'Lot to Learn'
p424
ssS'6s2wpWPFPAgKg2LXxi1Oee'
p425
(dp426
g3
S'Bruce Springsteen'
p427
sg5
I1
sg6
S'https://open.spotify.com/track/6s2wpWPFPAgKg2LXxi1Oee'
p428
sg8
S"Santa Claus Is Comin' to Town - Single Version"
p429
ssS'6O6M7pJLABmfBRoGZMu76Y'
p430
(dp431
g3
S'The Chainsmokers'
p432
sg5
I8
sg6
S'https://open.spotify.com/track/6O6M7pJLABmfBRoGZMu76Y'
p433
sg8
S'Roses'
p434
ssS'1rIKgCH4H52lrvDcz50hS8'
p435
(dp436
g3
S'Zara Larsson'
p437
sg5
I40
sg6
S'https://open.spotify.com/track/1rIKgCH4H52lrvDcz50hS8'
p438
sg8
S'Lush Life'
p439
ssS'76gUmNLXGQVOsGhfcshkFP'
p440
(dp441
g3
S'Drake'
p442
sg5
I4
sg6
S'https://open.spotify.com/track/76gUmNLXGQVOsGhfcshkFP'
p443
sg8
S'Madiba Riddim'
p444
ssS'7vGuf3Y35N4wmASOKLUVVU'
p445
(dp446
g3
S'Marshmello'
p447
sg5
I9
sg6
S'https://open.spotify.com/track/7vGuf3Y35N4wmASOKLUVVU'
p448
sg8
S'Silence'
p449
ssS'3EfugazgSddQvzZpkof5I4'
p450
(dp451
g3
S'Anne-Marie'
p452
sg5
I15
sg6
S'https://open.spotify.com/track/3EfugazgSddQvzZpkof5I4'
p453
sg8
S'Ciao Adios'
p454
ssS'0xPaZrF25ltzvz1a2Pm5DQ'
p455
(dp456
g3
S'Michael Bubl\xc3\xa9'
p457
sg5
I1
sg6
S'https://open.spotify.com/track/0xPaZrF25ltzvz1a2Pm5DQ'
p458
sg8
S'All I Want For Christmas Is You'
p459
ssS'2jyjhRf6DVbMPU5zxagN2h'
p460
(dp461
g3
S'Passenger'
p462
sg5
I31
sg6
S'https://open.spotify.com/track/2jyjhRf6DVbMPU5zxagN2h'
p463
sg8
S'Let Her Go'
p464
ssS'7iDxZ5Cd0Yg08d4fI5WVtG'
p465
(dp466
g3
S'Calvin Harris'
p467
sg5
I1
sg6
S'https://open.spotify.com/track/7iDxZ5Cd0Yg08d4fI5WVtG'
p468
sg8
S'Skrt On Me'
p469
ssS'7129iqBafaphfc3WPCGC0L'
p470
(dp471
g3
S'Lukas Graham'
p472
sg5
I31
sg6
S'https://open.spotify.com/track/7129iqBafaphfc3WPCGC0L'
p473
sg8
S'7 Years'
p474
ssS'4WjH9Bzt3kx7z8kl0awxh4'
p475
(dp476
g3
S'Major Lazer'
p477
sg5
I35
sg6
S'https://open.spotify.com/track/4WjH9Bzt3kx7z8kl0awxh4'
p478
sg8
S'Lean On (feat. M\xc3\x98 & DJ Snake)'
p479
ssS'1vvNmPOiUuyCbgWmtc6yfm'
p480
(dp481
g3
S'Calvin Harris'
p482
sg5
I31
sg6
S'https://open.spotify.com/track/1vvNmPOiUuyCbgWmtc6yfm'
p483
sg8
S'My Way'
p484
ssS'57p8CBvPOxrvyCbn6ttl5r'
p485
(dp486
g3
S'Skrillex'
p487
sg5
I11
sg6
S'https://open.spotify.com/track/57p8CBvPOxrvyCbn6ttl5r'
p488
sg8
S'Would You Ever'
p489
ssS'7tj9bP2fBemdiRo77wCzPw'
p490
(dp491
g3
S'Vera Blue'
p492
sg5
I6
sg6
S'https://open.spotify.com/track/7tj9bP2fBemdiRo77wCzPw'
p493
sg8
S'Mended'
p494
ssS'43jBqV3j3Xi1g6wO0bhIMd'
p495
(dp496
g3
S'Sage The Gemini'
p497
sg5
I20
sg6
S'https://open.spotify.com/track/43jBqV3j3Xi1g6wO0bhIMd'
p498
sg8
S'Now and Later'
p499
ssS'7oolFzHipTMg2nL7shhdz2'
p500
(dp501
g3
S'Ed Sheeran'
p502
sg5
I12
sg6
S'https://open.spotify.com/track/7oolFzHipTMg2nL7shhdz2'
p503
sg8
S'Eraser'
p504
ssS'4Yf5bqU3NK4kNOypcrLYwU'
p505
(dp506
g3
S'Linkin Park'
p507
sg5
I1
sg6
S'https://open.spotify.com/track/4Yf5bqU3NK4kNOypcrLYwU'
p508
sg8
S'Faint'
p509
ssS'7fURZRPkB2S70sYR1naKTK'
p510
(dp511
g3
S'Soundgarden'
p512
sg5
I1
sg6
S'https://open.spotify.com/track/7fURZRPkB2S70sYR1naKTK'
p513
sg8
S'Black Hole Sun'
p514
ssS'3B7udSGy2PfgoCniMSb523'
p515
(dp516
g3
S'Ed Sheeran'
p517
sg5
I9
sg6
S'https://open.spotify.com/track/3B7udSGy2PfgoCniMSb523'
p518
sg8
S'I See Fire'
p519
ssS'4kflIGfjdZJW4ot2ioixTB'
p520
(dp521
g3
S'Adele'
p522
sg5
I5
sg6
S'https://open.spotify.com/track/4kflIGfjdZJW4ot2ioixTB'
p523
sg8
S'Someone Like You'
p524
ssS'3NdDpSvN911VPGivFlV5d0'
p525
(dp526
g3
S'ZAYN'
p527
sg5
I42
sg6
S'https://open.spotify.com/track/3NdDpSvN911VPGivFlV5d0'
p528
sg8
S'I Don\xe2\x80\x99t Wanna Live Forever (Fifty Shades Darker) - From Fifty Shades Darker (Original Motion Picture Soundtrack)'
p529
ssS'37F0uwRSrdzkBiuj0D5UHI'
p530
(dp531
g3
S'The Weeknd'
p532
sg5
I2
sg6
S'https://open.spotify.com/track/37F0uwRSrdzkBiuj0D5UHI'
p533
sg8
S'Reminder'
p534
ssS'1wC93sZRGcTgKLN2UWRSwW'
p535
(dp536
g3
S'Lorde'
p537
sg5
I8
sg6
S'https://open.spotify.com/track/1wC93sZRGcTgKLN2UWRSwW'
p538
sg8
S'Perfect Places'
p539
ssS'7wwifjNAb172PtDpKK3CoR'
p540
(dp541
g3
S'Childish Gambino'
p542
sg5
I12
sg6
S'https://open.spotify.com/track/7wwifjNAb172PtDpKK3CoR'
p543
sg8
S'V. 3005'
p544
ssS'0gb1J5UrTpzaU1s3nupgCd'
p545
(dp546
g3
S'Galantis'
p547
sg5
I1
sg6
S'https://open.spotify.com/track/0gb1J5UrTpzaU1s3nupgCd'
p548
sg8
S'No Money'
p549
ssS'1UZOjK1BwmwWU14Erba9CZ'
p550
(dp551
g3
S'Miley Cyrus'
p552
sg5
I2
sg6
S'https://open.spotify.com/track/1UZOjK1BwmwWU14Erba9CZ'
p553
sg8
S'Malibu'
p554
ssS'2eMwDehkIC1j68U6FA3Eiq'
p555
(dp556
g3
S'Lil Uzi Vert'
p557
sg5
I21
sg6
S'https://open.spotify.com/track/2eMwDehkIC1j68U6FA3Eiq'
p558
sg8
S'XO TOUR Llif3'
p559
ssS'5v9N8Rx3QsFvr50cxyQcA3'
p560
(dp561
g3
S'Mura Masa'
p562
sg5
I24
sg6
S'https://open.spotify.com/track/5v9N8Rx3QsFvr50cxyQcA3'
p563
sg8
S'Love$ick'
p564
ssS'6yf3MxEOScNBTYCHOAIiNQ'
p565
(dp566
g3
S'Jax Jones'
p567
sg5
I1
sg6
S'https://open.spotify.com/track/6yf3MxEOScNBTYCHOAIiNQ'
p568
sg8
S'Instruction (feat. Demi Lovato & Stefflon Don)'
p569
ssS'3CRDbSIZ4r5MsZ0YwxuEkn'
p570
(dp571
g3
S'Twenty One Pilots'
p572
sg5
I16
sg6
S'https://open.spotify.com/track/3CRDbSIZ4r5MsZ0YwxuEkn'
p573
sg8
S'Stressed Out'
p574
ssS'2TdJsyNijI5jUvMnsjQcb3'
p575
(dp576
g3
S'PON CHO'
p577
sg5
I14
sg6
S'https://open.spotify.com/track/2TdJsyNijI5jUvMnsjQcb3'
p578
sg8
S'Frozen'
p579
ssS'4dVpf9jZjcORqGTLUaeYj9'
p580
(dp581
g3
S'A$AP Ferg'
p582
sg5
I2
sg6
S'https://open.spotify.com/track/4dVpf9jZjcORqGTLUaeYj9'
p583
sg8
S'Plain Jane'
p584
ssS'6mICuAdrwEjh6Y6lroV2Kg'
p585
(dp586
g3
S'Shakira'
p587
sg5
I6
sg6
S'https://open.spotify.com/track/6mICuAdrwEjh6Y6lroV2Kg'
p588
sg8
S'Chantaje'
p589
ssS'6F609ICg9Spjrw1epsAnpa'
p590
(dp591
g3
S'Drake'
p592
sg5
I11
sg6
S'https://open.spotify.com/track/6F609ICg9Spjrw1epsAnpa'
p593
sg8
S'Controlla'
p594
ssS'2pnPe4pJtq7689i5ydzvJJ'
p595
(dp596
g3
S'Chuck Berry'
p597
sg5
I1
sg6
S'https://open.spotify.com/track/2pnPe4pJtq7689i5ydzvJJ'
p598
sg8
S'Run Rudolph Run - Single Version'
p599
ssS'1WC5UN1U79gJlxGLYDGIO7'
p600
(dp601
g3
S'Lorde'
p602
sg5
I2
sg6
S'https://open.spotify.com/track/1WC5UN1U79gJlxGLYDGIO7'
p603
sg8
S'Green Light'
p604
ssS'0Jiw6lq0TldEPKYyFElUDd'
p605
(dp606
g3
S'Dune Rats'
p607
sg5
I1
sg6
S'https://open.spotify.com/track/0Jiw6lq0TldEPKYyFElUDd'
p608
sg8
S'Scott Green'
p609
ssS'7gHs73wELdeycvS48JfIos'
p610
(dp611
g3
S'Alan Walker'
p612
sg5
I13
sg6
S'https://open.spotify.com/track/7gHs73wELdeycvS48JfIos'
p613
sg8
S'Faded'
p614
ssS'3uMB82o0qa7erhiZBW9KQC'
p615
(dp616
g3
S'Stormzy'
p617
sg5
I2
sg6
S'https://open.spotify.com/track/3uMB82o0qa7erhiZBW9KQC'
p618
sg8
S'Big For Your Boots'
p619
ssS'3OoZagIW3YK8vjt0ws6NOI'
p620
(dp621
g3
S'DJ Khaled'
p622
sg5
I1
sg6
S'https://open.spotify.com/track/3OoZagIW3YK8vjt0ws6NOI'
p623
sg8
S'Shining'
p624
ssS'52okn5MNA47tk87PeZJLEL'
p625
(dp626
g3
S'NF'
p627
sg5
I1
sg6
S'https://open.spotify.com/track/52okn5MNA47tk87PeZJLEL'
p628
sg8
S'Let You Down'
p629
ssS'00lNx0OcTJrS3MKHcB80HY'
p630
(dp631
g3
S'Jax Jones'
p632
sg5
I30
sg6
S'https://open.spotify.com/track/00lNx0OcTJrS3MKHcB80HY'
p633
sg8
S"You Don't Know Me - Radio Edit"
p634
ssS'6t2ubAB4iSYOuIpRAOGd4t'
p635
(dp636
g3
S'Flo Rida'
p637
sg5
I8
sg6
S'https://open.spotify.com/track/6t2ubAB4iSYOuIpRAOGd4t'
p638
sg8
S'Cake'
p639
ssS'0tICYNayWWhH9GPeFrfjfD'
p640
(dp641
g3
S'Kungs'
p642
sg5
I10
sg6
S'https://open.spotify.com/track/0tICYNayWWhH9GPeFrfjfD'
p643
sg8
S"This Girl (Kungs Vs. Cookin' On 3 Burners) - Kungs Vs. Cookin' On 3 Burners"
p644
ssS'2bWrml86uwGVvznX8KKtwx'
p645
(dp646
g3
S'Illy'
p647
sg5
I18
sg6
S'https://open.spotify.com/track/2bWrml86uwGVvznX8KKtwx'
p648
sg8
S'Catch 22 (feat. Anne-Marie)'
p649
ssS'0fg8CqpjdojMyXLNzM2PaJ'
p650
(dp651
g3
S'Major Lazer'
p652
sg5
I20
sg6
S'https://open.spotify.com/track/0fg8CqpjdojMyXLNzM2PaJ'
p653
sg8
S'Run Up (feat. PARTYNEXTDOOR & Nicki Minaj)'
p654
ssS'6uFsE1JgZ20EXyU0JQZbUR'
p655
(dp656
g3
S'Taylor Swift'
p657
sg5
I7
sg6
S'https://open.spotify.com/track/6uFsE1JgZ20EXyU0JQZbUR'
p658
sg8
S'Look What You Made Me Do'
p659
ssS'5NQBZ9RAdV5Q6N7ORTI3RX'
p660
(dp661
g3
S'Motez'
p662
sg5
I9
sg6
S'https://open.spotify.com/track/5NQBZ9RAdV5Q6N7ORTI3RX'
p663
sg8
S'The Future (feat. Antony & Cleopatra)'
p664
ssS'5CPqOpKSk0QcJ3dGdaWcRB'
p665
(dp666
g3
S'The xx'
p667
sg5
I10
sg6
S'https://open.spotify.com/track/5CPqOpKSk0QcJ3dGdaWcRB'
p668
sg8
S'On Hold'
p669
ssS'0L87MffumRNWrY2SNUFcvs'
p670
(dp671
g3
S'Milky Chance'
p672
sg5
I42
sg6
S'https://open.spotify.com/track/0L87MffumRNWrY2SNUFcvs'
p673
sg8
S'Cocoon'
p674
ssS'4xBjsLUSjcx2h7PcRikpQp'
p675
(dp676
g3
S'Camila Cabello'
p677
sg5
I10
sg6
S'https://open.spotify.com/track/4xBjsLUSjcx2h7PcRikpQp'
p678
sg8
S'OMG'
p679
ssS'7GX5flRQZVHRAGd6B4TmDO'
p680
(dp681
g3
S'Lil Uzi Vert'
p682
sg5
I7
sg6
S'https://open.spotify.com/track/7GX5flRQZVHRAGd6B4TmDO'
p683
sg8
S'XO TOUR Llif3'
p684
ssS'4F7A0DXBrmUAkp32uenhZt'
p685
(dp686
g3
S'The Weeknd'
p687
sg5
I12
sg6
S'https://open.spotify.com/track/4F7A0DXBrmUAkp32uenhZt'
p688
sg8
S'Party Monster'
p689
ssS'0Ie5uiv54KgCr7P4sYDTHl'
p690
(dp691
g3
S'Idina Menzel'
p692
sg5
I1
sg6
S'https://open.spotify.com/track/0Ie5uiv54KgCr7P4sYDTHl'
p693
sg8
S"Baby It's Cold Outside (duet with Michael Bubl\xc3\xa9)"
p694
ssS'0CokSRCu5hZgPxcZBaEzVE'
p695
(dp696
g3
S'Macklemore'
p697
sg5
I3
sg6
S'https://open.spotify.com/track/0CokSRCu5hZgPxcZBaEzVE'
p698
sg8
S'Glorious (feat. Skylar Grey)'
p699
ssS'4nMlau89VAjmV7agkl7OY3'
p700
(dp701
g3
S'Andy Grammer'
p702
sg5
I42
sg6
S'https://open.spotify.com/track/4nMlau89VAjmV7agkl7OY3'
p703
sg8
S'Fresh Eyes'
p704
ssS'4qBejt9FeqLI9blHI1Nq1x'
p705
(dp706
g3
S'Michael Bubl\xc3\xa9'
p707
sg5
I1
sg6
S'https://open.spotify.com/track/4qBejt9FeqLI9blHI1Nq1x'
p708
sg8
S'Jingle Bells (feat. The Puppini Sisters)'
p709
ssS'0T3vq52coKx0csg7VO1HOC'
p710
(dp711
g3
S'Violent Soho'
p712
sg5
I1
sg6
S'https://open.spotify.com/track/0T3vq52coKx0csg7VO1HOC'
p713
sg8
S'Viceroy'
p714
ssS'75ZvA4QfFiZvzhj2xkaWAh'
p715
(dp716
g3
S'Post Malone'
p717
sg5
I3
sg6
S'https://open.spotify.com/track/75ZvA4QfFiZvzhj2xkaWAh'
p718
sg8
S'I Fall Apart'
p719
ssS'1sTUEdVO85YU8Ymk2jeAls'
p720
(dp721
g3
S'MiC LOWRY'
p722
sg5
I9
sg6
S'https://open.spotify.com/track/1sTUEdVO85YU8Ymk2jeAls'
p723
sg8
S'Oh Lord'
p724
ssS'7BKLCZ1jbUBVqRi2FVlTVw'
p725
(dp726
g3
S'The Chainsmokers'
p727
sg5
I42
sg6
S'https://open.spotify.com/track/7BKLCZ1jbUBVqRi2FVlTVw'
p728
sg8
S'Closer'
p729
ssS'7hDc8b7IXETo14hHIHdnhd'
p730
(dp731
g3
S'Drake'
p732
sg5
I30
sg6
S'https://open.spotify.com/track/7hDc8b7IXETo14hHIHdnhd'
p733
sg8
S'Passionfruit'
p734
ssS'7iL6o9tox1zgHpKUfh9vuC'
p735
(dp736
g3
S'50 Cent'
p737
sg5
I1
sg6
S'https://open.spotify.com/track/7iL6o9tox1zgHpKUfh9vuC'
p738
sg8
S'In Da Club'
p739
ssS'0Z9HQ8YvHqdeOjTwsR3cS7'
p740
(dp741
g3
S'Moon Taxi'
p742
sg5
I1
sg6
S'https://open.spotify.com/track/0Z9HQ8YvHqdeOjTwsR3cS7'
p743
sg8
S'Two High'
p744
ssS'2LTlO3NuNVN70lp2ZbVswF'
p745
(dp746
g3
S'Kendrick Lamar'
p747
sg5
I4
sg6
S'https://open.spotify.com/track/2LTlO3NuNVN70lp2ZbVswF'
p748
sg8
S'FEEL.'
p749
ssS'3jLJRMmwwAJCgx4XoIH4LN'
p750
(dp751
g3
S'Bliss n Eso'
p752
sg5
I1
sg6
S'https://open.spotify.com/track/3jLJRMmwwAJCgx4XoIH4LN'
p753
sg8
S'Friend Like You (feat. Lee Fields)'
p754
ssS'1lzr43nnXAijIGYnCT8M8H'
p755
(dp756
g3
S'Shaggy'
p757
sg5
I1
sg6
S'https://open.spotify.com/track/1lzr43nnXAijIGYnCT8M8H'
p758
sg8
S"It Wasn't Me"
p759
ssS'1eVRnmGhDPATPxz6kqWuCP'
p760
(dp761
g3
S'Julia Michaels'
p762
sg5
I1
sg6
S'https://open.spotify.com/track/1eVRnmGhDPATPxz6kqWuCP'
p763
sg8
S'Uh Huh'
p764
ssS'65Q2mv3UlVi9eO70OpsmSe'
p765
(dp766
g3
S'Burl Ives'
p767
sg5
I1
sg6
S'https://open.spotify.com/track/65Q2mv3UlVi9eO70OpsmSe'
p768
sg8
S'A Holly Jolly Christmas - Single Version'
p769
ssS'0XLOf9LhyazPX9Ld8jPiUq'
p770
(dp771
g3
S'Selena Gomez'
p772
sg5
I12
sg6
S'https://open.spotify.com/track/0XLOf9LhyazPX9Ld8jPiUq'
p773
sg8
S'Fetish (feat. Gucci Mane)'
p774
ssS'05Z7jet4VDNVgNQWcYHnrk'
p775
(dp776
g3
S'Chris Brown'
p777
sg5
I10
sg6
S'https://open.spotify.com/track/05Z7jet4VDNVgNQWcYHnrk'
p778
sg8
S'Party'
p779
ssS'2eAAEa8pxKF7My0EO4rFgR'
p780
(dp781
g3
S'Dua Lipa'
p782
sg5
I3
sg6
S'https://open.spotify.com/track/2eAAEa8pxKF7My0EO4rFgR'
p783
sg8
S'Blow Your Mind (Mwah)'
p784
ssS'1yxgsra98r3qAtxqiGZPiX'
p785
(dp786
g3
S'Travis Scott'
p787
sg5
I20
sg6
S'https://open.spotify.com/track/1yxgsra98r3qAtxqiGZPiX'
p788
sg8
S'Butterfly Effect'
p789
ssS'3xXBsjrbG1xQIm1xv1cKOt'
p790
(dp791
g3
S'Linkin Park'
p792
sg5
I1
sg6
S'https://open.spotify.com/track/3xXBsjrbG1xQIm1xv1cKOt'
p793
sg8
S'One More Light'
p794
ssS'3A7qX2QjDlPnazUsRk5y0M'
p795
(dp796
g3
S'David Guetta'
p797
sg5
I17
sg6
S'https://open.spotify.com/track/3A7qX2QjDlPnazUsRk5y0M'
p798
sg8
S'2U (feat. Justin Bieber)'
p799
ssS'0OwX5aROoW1Iip8FV51Efg'
p800
(dp801
g3
S'Anne-Marie'
p802
sg5
I8
sg6
S'https://open.spotify.com/track/0OwX5aROoW1Iip8FV51Efg'
p803
sg8
S'Alarm'
p804
ssS'6A8dnC0xkiuWN4BshmTB2I'
p805
(dp806
g3
S'A R I Z O N A'
p807
sg5
I7
sg6
S'https://open.spotify.com/track/6A8dnC0xkiuWN4BshmTB2I'
p808
sg8
S'Oceans Away'
p809
ssS'62Rr9VBVpvrrbkNQLsPzb8'
p810
(dp811
g3
S'Angus & Julia Stone'
p812
sg5
I8
sg6
S'https://open.spotify.com/track/62Rr9VBVpvrrbkNQLsPzb8'
p813
sg8
S'Snow'
p814
ssS'4kfm1uI9QGaoN9qm6CkAMn'
p815
(dp816
g3
S'Linkin Park'
p817
sg5
I1
sg6
S'https://open.spotify.com/track/4kfm1uI9QGaoN9qm6CkAMn'
p818
sg8
S"What I've Done"
p819
ssS'56lBX2WHqfGuoeZxZvUnVj'
p820
(dp821
g3
S'Imagine Dragons'
p822
sg5
I3
sg6
S'https://open.spotify.com/track/56lBX2WHqfGuoeZxZvUnVj'
p823
sg8
S'Thunder'
p824
ssS'0XfOi87h82i09rQjWYG0Bm'
p825
(dp826
g3
S'Jax Jones'
p827
sg5
I14
sg6
S'https://open.spotify.com/track/0XfOi87h82i09rQjWYG0Bm'
p828
sg8
S'Instruction (feat. Demi Lovato & Stefflon Don)'
p829
ssS'5qqabIl2vWzo9ApSC317sa'
p830
(dp831
g3
S'Oasis'
p832
sg5
I30
sg6
S'https://open.spotify.com/track/5qqabIl2vWzo9ApSC317sa'
p833
sg8
S'Wonderwall - Remastered'
p834
ssS'28irpKCCK9nn9DZSik2zEx'
p835
(dp836
g3
S'Drake'
p837
sg5
I2
sg6
S'https://open.spotify.com/track/28irpKCCK9nn9DZSik2zEx'
p838
sg8
S'Glow'
p839
ssS'5JUu0unA8VwhTZ9LkMWUVI'
p840
(dp841
g3
S'Drake'
p842
sg5
I2
sg6
S'https://open.spotify.com/track/5JUu0unA8VwhTZ9LkMWUVI'
p843
sg8
S'Since Way Back'
p844
ssS'4IWAyPf1KMq7JCyGeCjTeH'
p845
(dp846
g3
S'Imagine Dragons'
p847
sg5
I6
sg6
S'https://open.spotify.com/track/4IWAyPf1KMq7JCyGeCjTeH'
p848
sg8
S'Whatever It Takes'
p849
ssS'6dVZCbi9CYtD9LjAHXRjIG'
p850
(dp851
g3
S'Future'
p852
sg5
I2
sg6
S'https://open.spotify.com/track/6dVZCbi9CYtD9LjAHXRjIG'
p853
sg8
S'Mask Off - Remix'
p854
ssS'0ZExP2I5Ej92PsnG4G1jVG'
p855
(dp856
g3
S'Julia Michaels'
p857
sg5
I4
sg6
S'https://open.spotify.com/track/0ZExP2I5Ej92PsnG4G1jVG'
p858
sg8
S'Uh Huh'
p859
ssS'7MUNNBJKYo3cdokp06wEOB'
p860
(dp861
g3
S'Vance Joy'
p862
sg5
I13
sg6
S'https://open.spotify.com/track/7MUNNBJKYo3cdokp06wEOB'
p863
sg8
S'Lay It On Me'
p864
ssS'3Q3myFA7q4Op95DOpHplaY'
p865
(dp866
g3
S'blackbear'
p867
sg5
I13
sg6
S'https://open.spotify.com/track/3Q3myFA7q4Op95DOpHplaY'
p868
sg8
S'do re mi'
p869
ssS'2jYmK1cb3Uya6FFsocdpzO'
p870
(dp871
g3
S'Sabrina Carpenter'
p872
sg5
I11
sg6
S'https://open.spotify.com/track/2jYmK1cb3Uya6FFsocdpzO'
p873
sg8
S'Why'
p874
ssS'50PWlIBU7PlGGwzgN8TiFJ'
p875
(dp876
g3
S'Lady Gaga'
p877
sg5
I1
sg6
S'https://open.spotify.com/track/50PWlIBU7PlGGwzgN8TiFJ'
p878
sg8
S'Million Reasons'
p879
ssS'0WCEaydwN65cvwaW8aqptF'
p880
(dp881
g3
S'Olivia Holt'
p882
sg5
I16
sg6
S'https://open.spotify.com/track/0WCEaydwN65cvwaW8aqptF'
p883
sg8
S'History'
p884
ssS'3FiE2d325mIOc4YjkSLVJR'
p885
(dp886
g3
S'Ariana Grande'
p887
sg5
I10
sg6
S'https://open.spotify.com/track/3FiE2d325mIOc4YjkSLVJR'
p888
sg8
S'Everyday'
p889
ssS'4STCTQ1h0VuWfvDyhGOxkv'
p890
(dp891
g3
S'Otis Redding'
p892
sg5
I1
sg6
S'https://open.spotify.com/track/4STCTQ1h0VuWfvDyhGOxkv'
p893
sg8
S'Merry Christmas Baby'
p894
ssS'3cfOd4CMv2snFaKAnMdnvK'
p895
(dp896
g3
S'Smash Mouth'
p897
sg5
I4
sg6
S'https://open.spotify.com/track/3cfOd4CMv2snFaKAnMdnvK'
p898
sg8
S'All Star'
p899
ssS'2bjwRfXMk4uRgOD9IBYl9h'
p900
(dp901
g3
S'Drake'
p902
sg5
I29
sg6
S'https://open.spotify.com/track/2bjwRfXMk4uRgOD9IBYl9h'
p903
sg8
S'Portland'
p904
ssS'0FuTx2s3YH1ppmtiM6l0zI'
p905
(dp906
g3
S'JP Cooper'
p907
sg5
I36
sg6
S'https://open.spotify.com/track/0FuTx2s3YH1ppmtiM6l0zI'
p908
sg8
S'September Song'
p909
ssS'0Zbbxnx4SGGHoIow4PpISP'
p910
(dp911
g3
S'Kygo'
p912
sg5
I3
sg6
S'https://open.spotify.com/track/0Zbbxnx4SGGHoIow4PpISP'
p913
sg8
S'Stargazing'
p914
ssS'1OmcAT5Y8eg5bUPv9qJT4R'
p915
(dp916
g3
S'Post Malone'
p917
sg5
I3
sg6
S'https://open.spotify.com/track/1OmcAT5Y8eg5bUPv9qJT4R'
p918
sg8
S'rockstar'
p919
ssS'66WPXyhXqMlkM1kZhyEXWK'
p920
(dp921
g3
S'Michael Bubl\xc3\xa9'
p922
sg5
I1
sg6
S'https://open.spotify.com/track/66WPXyhXqMlkM1kZhyEXWK'
p923
sg8
S'Christmas (Baby Please Come Home)'
p924
ssS'5GFDrUTLGJix84sNhjCG0g'
p925
(dp926
g3
S'Amin\xc3\xa9'
p927
sg5
I30
sg6
S'https://open.spotify.com/track/5GFDrUTLGJix84sNhjCG0g'
p928
sg8
S'Caroline'
p929
ssS'33B2QbtAj8mbDpwvGTOnBt'
p930
(dp931
g3
S'The xx'
p932
sg5
I1
sg6
S'https://open.spotify.com/track/33B2QbtAj8mbDpwvGTOnBt'
p933
sg8
S'Dangerous'
p934
ssS'0kN8xEmgMW9mh7UmDYHlJP'
p935
(dp936
g3
S'Bruno Mars'
p937
sg5
I12
sg6
S'https://open.spotify.com/track/0kN8xEmgMW9mh7UmDYHlJP'
p938
sg8
S'Versace On The Floor'
p939
ssS'2HJQcyUpmUuvzS5vBAICIc'
p940
(dp941
g3
S'ZHU'
p942
sg5
I3
sg6
S'https://open.spotify.com/track/2HJQcyUpmUuvzS5vBAICIc'
p943
sg8
S'Working For It - Bonus Track'
p944
ssS'5OOkp4U9P9oL23maHFHL1h'
p945
(dp946
g3
S'Desiigner'
p947
sg5
I25
sg6
S'https://open.spotify.com/track/5OOkp4U9P9oL23maHFHL1h'
p948
sg8
S'Panda'
p949
ssS'7i2DJ88J7jQ8K7zqFX2fW8'
p950
(dp951
g3
S'Halsey'
p952
sg5
I16
sg6
S'https://open.spotify.com/track/7i2DJ88J7jQ8K7zqFX2fW8'
p953
sg8
S'Now Or Never'
p954
ssS'43ZyHQITOjhciSUUNPVRHc'
p955
(dp956
g3
S'Lil Pump'
p957
sg5
I1
sg6
S'https://open.spotify.com/track/43ZyHQITOjhciSUUNPVRHc'
p958
sg8
S'Gucci Gang'
p959
ssS'3y9cCbnBn0zjkJa2YkOj70'
p960
(dp961
g3
S'Nicki Minaj'
p962
sg5
I1
sg6
S'https://open.spotify.com/track/3y9cCbnBn0zjkJa2YkOj70'
p963
sg8
S'Black Barbies'
p964
ssS'5sNESr6pQfIhL3krM8CtZn'
p965
(dp966
g3
S'JAY Z'
p967
sg5
I2
sg6
S'https://open.spotify.com/track/5sNESr6pQfIhL3krM8CtZn'
p968
sg8
S'Numb / Encore'
p969
ssS'01uqI4H13Gsd8Lyl1EYd8H'
p970
(dp971
g3
S'Macklemore & Ryan Lewis'
p972
sg5
I2
sg6
S'https://open.spotify.com/track/01uqI4H13Gsd8Lyl1EYd8H'
p973
sg8
S'Same Love - feat. Mary Lambert'
p974
ssS'68EMU2RD1ECNeOeJ5qAXCV'
p975
(dp976
g3
S'Charlie Puth'
p977
sg5
I32
sg6
S'https://open.spotify.com/track/68EMU2RD1ECNeOeJ5qAXCV'
p978
sg8
S"We Don't Talk Anymore (feat. Selena Gomez)"
p979
ssS'35tWhD29yvWwB0IDRr6zsL'
p980
(dp981
g3
S'Vince Staples'
p982
sg5
I1
sg6
S'https://open.spotify.com/track/35tWhD29yvWwB0IDRr6zsL'
p983
sg8
S'Yeah Right'
p984
ssS'04CttTezSnv71USiiG9mIo'
p985
(dp986
g3
S'Hearts & Colors'
p987
sg5
I5
sg6
S'https://open.spotify.com/track/04CttTezSnv71USiiG9mIo'
p988
sg8
S'Lighthouse - Andrelli Remix'
p989
ssS'6vSwxzO2Qf4BinHSXRwZJe'
p990
(dp991
g3
S'Ed Sheeran'
p992
sg5
I5
sg6
S'https://open.spotify.com/track/6vSwxzO2Qf4BinHSXRwZJe'
p993
sg8
S'Tenerife Sea'
p994
ssS'6R6ihJhRbgu7JxJKIbW57w'
p995
(dp996
g3
S'Frank Ocean'
p997
sg5
I1
sg6
S'https://open.spotify.com/track/6R6ihJhRbgu7JxJKIbW57w'
p998
sg8
S'Provider'
p999
ssS'1cImYkHOQMFE7AZC9aOk4y'
p1000
(dp1001
g3
S'Bobby Helms'
p1002
sg5
I1
sg6
S'https://open.spotify.com/track/1cImYkHOQMFE7AZC9aOk4y'
p1003
sg8
S'Jingle Bell Rock'
p1004
ssS'6MbH1QiphMCPTqVEVC7UYi'
p1005
(dp1006
g3
S'Drake'
p1007
sg5
I2
sg6
S'https://open.spotify.com/track/6MbH1QiphMCPTqVEVC7UYi'
p1008
sg8
S'Nothings Into Somethings'
p1009
ssS'1jNOi6m3Hn8nLEeHCp5Msr'
p1010
(dp1011
g3
S'The White Stripes'
p1012
sg5
I23
sg6
S'https://open.spotify.com/track/1jNOi6m3Hn8nLEeHCp5Msr'
p1013
sg8
S'Seven Nation Army'
p1014
ssS'4VuS959DSpr82t3qBqCrWG'
p1015
(dp1016
g3
S'Ed Sheeran'
p1017
sg5
I25
sg6
S'https://open.spotify.com/track/4VuS959DSpr82t3qBqCrWG'
p1018
sg8
S'Supermarket Flowers'
p1019
ssS'7bJwvubZZaoGE1AGEfu8Fi'
p1020
(dp1021
g3
S'Ariana Grande'
p1022
sg5
I8
sg6
S'https://open.spotify.com/track/7bJwvubZZaoGE1AGEfu8Fi'
p1023
sg8
S'One Last Time'
p1024
ssS'2Za1AlJNvksouPPWbXpR2X'
p1025
(dp1026
g3
S'Macklemore'
p1027
sg5
I3
sg6
S'https://open.spotify.com/track/2Za1AlJNvksouPPWbXpR2X'
p1028
sg8
S'Good Old Days (feat. Kesha)'
p1029
ssS'0Zx8khUcEfCFK2AEoIhC92'
p1030
(dp1031
g3
S'Snakehips'
p1032
sg5
I38
sg6
S'https://open.spotify.com/track/0Zx8khUcEfCFK2AEoIhC92'
p1033
sg8
S"Don't Leave"
p1034
ssS'3sBfXJVKKUWyKqEUsrYiNO'
p1035
(dp1036
g3
S'Flume'
p1037
sg5
I2
sg6
S'https://open.spotify.com/track/3sBfXJVKKUWyKqEUsrYiNO'
p1038
sg8
S'Say It - Illenium Remix'
p1039
ssS'2BTw5ZxeBygVJpdMK1Ur3c'
p1040
(dp1041
g3
S'Kita Alexander'
p1042
sg5
I18
sg6
S'https://open.spotify.com/track/2BTw5ZxeBygVJpdMK1Ur3c'
p1043
sg8
S'Hotel'
p1044
ssS'33SNO8AaciGbNaQFkxvPrW'
p1045
(dp1046
g3
S'Harry Styles'
p1047
sg5
I3
sg6
S'https://open.spotify.com/track/33SNO8AaciGbNaQFkxvPrW'
p1048
sg8
S'Kiwi'
p1049
ssS'6n3HGiq4v35D6eFOSwqYuo'
p1050
(dp1051
g3
S'Drake'
p1052
sg5
I7
sg6
S'https://open.spotify.com/track/6n3HGiq4v35D6eFOSwqYuo'
p1053
sg8
S'Teenage Fever'
p1054
ssS'2KpCpk6HjXXLb7nnXoXA5O'
p1055
(dp1056
g3
S'JAY Z'
p1057
sg5
I15
sg6
S'https://open.spotify.com/track/2KpCpk6HjXXLb7nnXoXA5O'
p1058
sg8
S'Ni**as In Paris'
p1059
ssS'0YHUITU3w6ws1v8ehT264g'
p1060
(dp1061
g3
S'Little Mix'
p1062
sg5
I16
sg6
S'https://open.spotify.com/track/0YHUITU3w6ws1v8ehT264g'
p1063
sg8
S'Shout Out to My Ex'
p1064
ssS'5yuShbu70mtHXY0yLzCQLQ'
p1065
(dp1066
g3
S'Post Malone'
p1067
sg5
I11
sg6
S'https://open.spotify.com/track/5yuShbu70mtHXY0yLzCQLQ'
p1068
sg8
S'Go Flex'
p1069
ssS'1kusepF3AacIEtUTYrw4GV'
p1070
(dp1071
g3
S'M.I.A.'
p1072
sg5
I1
sg6
S'https://open.spotify.com/track/1kusepF3AacIEtUTYrw4GV'
p1073
sg8
S'Paper Planes'
p1074
ssS'6MDijuuArPJv1vbp7K1x3f'
p1075
(dp1076
g3
S'Miike Snow'
p1077
sg5
I2
sg6
S'https://open.spotify.com/track/6MDijuuArPJv1vbp7K1x3f'
p1078
sg8
S'Genghis Khan'
p1079
ssS'77HDsrdaHJBj2D1d8GDbC2'
p1080
(dp1081
g3
S'Sheppard'
p1082
sg5
I9
sg6
S'https://open.spotify.com/track/77HDsrdaHJBj2D1d8GDbC2'
p1083
sg8
S'Keep Me Crazy'
p1084
ssS'193Dm5SqYy3hTSbuzxbwKc'
p1085
(dp1086
g3
S'Lorde'
p1087
sg5
I2
sg6
S'https://open.spotify.com/track/193Dm5SqYy3hTSbuzxbwKc'
p1088
sg8
S'Writer In The Dark'
p1089
ssS'32DGGj6KlNuBr6WaqRxpxi'
p1090
(dp1091
g3
S'Charlie Puth'
p1092
sg5
I1
sg6
S'https://open.spotify.com/track/32DGGj6KlNuBr6WaqRxpxi'
p1093
sg8
S'How Long'
p1094
ssS'2XlHu0HcujBCkWMdIAvrqt'
p1095
(dp1096
g3
S'Drake'
p1097
sg5
I7
sg6
S'https://open.spotify.com/track/2XlHu0HcujBCkWMdIAvrqt'
p1098
sg8
S'Blem'
p1099
ssS'3Jrs7cC2OJNlNSy9VnDOMZ'
p1100
(dp1101
g3
S'Bryson Tiller'
p1102
sg5
I1
sg6
S'https://open.spotify.com/track/3Jrs7cC2OJNlNSy9VnDOMZ'
p1103
sg8
S'Somethin Tells Me'
p1104
ssS'5f5r2N4Lp9WoULWPH9zp2W'
p1105
(dp1106
g3
S'Drake'
p1107
sg5
I2
sg6
S'https://open.spotify.com/track/5f5r2N4Lp9WoULWPH9zp2W'
p1108
sg8
S"Can't Have Everything"
p1109
ssS'6M0IsaUX4GNyto4niSegfI'
p1110
(dp1111
g3
S'Post Malone'
p1112
sg5
I1
sg6
S'https://open.spotify.com/track/6M0IsaUX4GNyto4niSegfI'
p1113
sg8
S'No Option'
p1114
ssS'2OALaHcDdKkjYEpAr0Qzab'
p1115
(dp1116
g3
S'Avicii'
p1117
sg5
I9
sg6
S'https://open.spotify.com/track/2OALaHcDdKkjYEpAr0Qzab'
p1118
sg8
S'Lonely Together (feat. Rita Ora)'
p1119
ssS'5wYLW17fs9JOolzR2W3AmM'
p1120
(dp1121
g3
S'alt-J'
p1122
sg5
I1
sg6
S'https://open.spotify.com/track/5wYLW17fs9JOolzR2W3AmM'
p1123
sg8
S'3WW'
p1124
ssS'6DwnAl6l63e83dDgIzY8P4'
p1125
(dp1126
g3
S'Michael Bubl\xc3\xa9'
p1127
sg5
I1
sg6
S'https://open.spotify.com/track/6DwnAl6l63e83dDgIzY8P4'
p1128
sg8
S'Santa Baby'
p1129
ssS'5hYTyyh2odQKphUbMqc5gN'
p1130
(dp1131
g3
S'Alessia Cara'
p1132
sg5
I38
sg6
S'https://open.spotify.com/track/5hYTyyh2odQKphUbMqc5gN'
p1133
sg8
S"How Far I'll Go - From Moana"
p1134
ssS'1u8c2t2Cy7UBoG4ArRcF5g'
p1135
(dp1136
g3
S'Taylor Swift'
p1137
sg5
I7
sg6
S'https://open.spotify.com/track/1u8c2t2Cy7UBoG4ArRcF5g'
p1138
sg8
S'Blank Space'
p1139
ssS'72jbDTw1piOOj770jWNeaG'
p1140
(dp1141
g3
S'The Chainsmokers'
p1142
sg5
I39
sg6
S'https://open.spotify.com/track/72jbDTw1piOOj770jWNeaG'
p1143
sg8
S'Paris'
p1144
ssS'12REd1n8PeiHHWOh066tpr'
p1145
(dp1146
g3
S'Flume'
p1147
sg5
I42
sg6
S'https://open.spotify.com/track/12REd1n8PeiHHWOh066tpr'
p1148
sg8
S'Never Be Like You'
p1149
ssS'11EDhDAVDtGPoSar6ootYA'
p1150
(dp1151
g3
S'Halsey'
p1152
sg5
I1
sg6
S'https://open.spotify.com/track/11EDhDAVDtGPoSar6ootYA'
p1153
sg8
S'Strangers'
p1154
ssS'7FIcV2kEiO2mvvMbxU5Jkn'
p1155
(dp1156
g3
S'Johnny Cash'
p1157
sg5
I1
sg6
S'https://open.spotify.com/track/7FIcV2kEiO2mvvMbxU5Jkn'
p1158
sg8
S'The Little Drummer Boy - Mono Version'
p1159
ssS'12o6dxWGk29uIAP3OWY0pM'
p1160
(dp1161
g3
S'Lorde'
p1162
sg5
I7
sg6
S'https://open.spotify.com/track/12o6dxWGk29uIAP3OWY0pM'
p1163
sg8
S'Homemade Dynamite'
p1164
ssS'6YnzBV7YkaXZNCK3tlnCfg'
p1165
(dp1166
g3
S'Boney M.'
p1167
sg5
I1
sg6
S'https://open.spotify.com/track/6YnzBV7YkaXZNCK3tlnCfg'
p1168
sg8
S"Mary's Boy Child / Oh My Lord"
p1169
ssS'6p8NuHm8uCGnn2Dtbtf7zE'
p1170
(dp1171
g3
S'Migos'
p1172
sg5
I15
sg6
S'https://open.spotify.com/track/6p8NuHm8uCGnn2Dtbtf7zE'
p1173
sg8
S'Slippery (feat. Gucci Mane)'
p1174
ssS'2KvHC9z14GSl4YpkNMX384'
p1175
(dp1176
g3
S'Drake'
p1177
sg5
I3
sg6
S'https://open.spotify.com/track/2KvHC9z14GSl4YpkNMX384'
p1178
sg8
S'Do Not Disturb'
p1179
ssS'2gbCG4Rt9984UZ7Tc0dIFd'
p1180
(dp1181
g3
S'Michael Bubl\xc3\xa9'
p1182
sg5
I1
sg6
S'https://open.spotify.com/track/2gbCG4Rt9984UZ7Tc0dIFd'
p1183
sg8
S'White Christmas (Duet With Shania Twain)'
p1184
ssS'248OFOZef6ShXv6DGgbnxU'
p1185
(dp1186
g3
S'Khalid'
p1187
sg5
I19
sg6
S'https://open.spotify.com/track/248OFOZef6ShXv6DGgbnxU'
p1188
sg8
S'Saved'
p1189
ssS'64xJ1MMFxxK6osZxJH857T'
p1190
(dp1191
g3
S'Dean Lewis'
p1192
sg5
I27
sg6
S'https://open.spotify.com/track/64xJ1MMFxxK6osZxJH857T'
p1193
sg8
S'Waves'
p1194
ssS'77lGafvlU68CeHgB2pkHC9'
p1195
(dp1196
g3
S'Machine Gun Kelly'
p1197
sg5
I9
sg6
S'https://open.spotify.com/track/77lGafvlU68CeHgB2pkHC9'
p1198
sg8
S'At My Best (feat. Hailee Steinfeld)'
p1199
ssS'0dA2Mk56wEzDgegdC6R17g'
p1200
(dp1201
g3
S'Zedd'
p1202
sg5
I33
sg6
S'https://open.spotify.com/track/0dA2Mk56wEzDgegdC6R17g'
p1203
sg8
S'Stay (with Alessia Cara)'
p1204
ssS'3kGfazcbVvVkuZunzlLgTD'
p1205
(dp1206
g3
S'Sigala'
p1207
sg5
I15
sg6
S'https://open.spotify.com/track/3kGfazcbVvVkuZunzlLgTD'
p1208
sg8
S'Came Here for Love'
p1209
ssS'7gZQfdEQpmwAoPHSbEHzms'
p1210
(dp1211
g3
S'Matoma'
p1212
sg5
I2
sg6
S'https://open.spotify.com/track/7gZQfdEQpmwAoPHSbEHzms'
p1213
sg8
S'False Alarm'
p1214
ssS'2Vf2Pflg5rTWSvSCK4qq4A'
p1215
(dp1216
g3
S'Chris Brown'
p1217
sg5
I28
sg6
S'https://open.spotify.com/track/2Vf2Pflg5rTWSvSCK4qq4A'
p1218
sg8
S'Privacy'
p1219
ssS'1sl5tSzfK1JrcQIcA8rYDy'
p1220
(dp1221
g3
S'Grey'
p1222
sg5
I3
sg6
S'https://open.spotify.com/track/1sl5tSzfK1JrcQIcA8rYDy'
p1223
sg8
S'I Miss You'
p1224
ssS'4ZfpHQ2mkA4HYZtVWBfOCK'
p1225
(dp1226
g3
S'Guy Sebastian'
p1227
sg5
I2
sg6
S'https://open.spotify.com/track/4ZfpHQ2mkA4HYZtVWBfOCK'
p1228
sg8
S'Set In Stone'
p1229
ssS'7nZmah2llfvLDiUjm0kiyz'
p1230
(dp1231
g3
S'Justin Bieber'
p1232
sg5
I8
sg6
S'https://open.spotify.com/track/7nZmah2llfvLDiUjm0kiyz'
p1233
sg8
S'Friends (with BloodPop\xc2\xae)'
p1234
ssS'1KGi9sZVMeszgZOWivFpxs'
p1235
(dp1236
g3
S'TLC'
p1237
sg5
I15
sg6
S'https://open.spotify.com/track/1KGi9sZVMeszgZOWivFpxs'
p1238
sg8
S'No Scrubs'
p1239
ssS'13HVjjWUZFaWilh2QUJKsP'
p1240
(dp1241
g3
S'James Bay'
p1242
sg5
I35
sg6
S'https://open.spotify.com/track/13HVjjWUZFaWilh2QUJKsP'
p1243
sg8
S'Let It Go'
p1244
ssS'7BVwi9cIzSc6tpyxsp47vJ'
p1245
(dp1246
g3
S'Vance Joy'
p1247
sg5
I8
sg6
S'https://open.spotify.com/track/7BVwi9cIzSc6tpyxsp47vJ'
p1248
sg8
S'Mess Is Mine'
p1249
ssS'2vQwlW8H1jFveGNXwZfJCV'
p1250
(dp1251
g3
S'XXXTENTACION'
p1252
sg5
I1
sg6
S'https://open.spotify.com/track/2vQwlW8H1jFveGNXwZfJCV'
p1253
sg8
S'Dead Inside (Interlude)'
p1254
ssS'3eFJqPe8VUYrABbFjSauuj'
p1255
(dp1256
g3
S''
p1257
sg5
I1
sg6
S'https://open.spotify.com/track/3eFJqPe8VUYrABbFjSauuj'
p1258
sg8
g1257
ssS'5XJJdNPkwmbUwE79gv0NxK'
p1259
(dp1260
g3
S'Kanye West'
p1261
sg5
I42
sg6
S'https://open.spotify.com/track/5XJJdNPkwmbUwE79gv0NxK'
p1262
sg8
S'Gold Digger'
p1263
ssS'53mrVsi49rLHIaKBiSvElG'
p1264
(dp1265
g3
S'blackbear'
p1266
sg5
I10
sg6
S'https://open.spotify.com/track/53mrVsi49rLHIaKBiSvElG'
p1267
sg8
S'do re mi (feat. Gucci Mane)'
p1268
ssS'6D0b04NJIKfEMg040WioJQ'
p1269
(dp1270
g3
S'Julia Michaels'
p1271
sg5
I2
sg6
S'https://open.spotify.com/track/6D0b04NJIKfEMg040WioJQ'
p1272
sg8
S'Issues'
p1273
ssS'4sOT0ksc174RY6GJUu8Wjy'
p1274
(dp1275
g3
S'Jessica Mauboy'
p1276
sg5
I1
sg6
S'https://open.spotify.com/track/4sOT0ksc174RY6GJUu8Wjy'
p1277
sg8
S"Fallin' - Original Song from the TV Series The Secret Daughter"
p1278
ssS'7fwXWKdDNI5IutOMc5OKYw'
p1279
(dp1280
g3
S'J Balvin'
p1281
sg5
I2
sg6
S'https://open.spotify.com/track/7fwXWKdDNI5IutOMc5OKYw'
p1282
sg8
S'Mi Gente (feat. Beyonc\xc3\xa9)'
p1283
ssS'60xaS8mYBKUW4VQQ666N0T'
p1284
(dp1285
g3
S'Chance The Rapper'
p1286
sg5
I37
sg6
S'https://open.spotify.com/track/60xaS8mYBKUW4VQQ666N0T'
p1287
sg8
S'All Night (feat. Knox Fortune)'
p1288
ssS'6CUBgX8bXC5YQCkdgRHqyg'
p1289
(dp1290
g3
S'blackbear'
p1291
sg5
I4
sg6
S'https://open.spotify.com/track/6CUBgX8bXC5YQCkdgRHqyg'
p1292
sg8
S'do re mi'
p1293
ssS'2dfHh7ECGxfNqZTQno09Vk'
p1294
(dp1295
g3
S'Ed Sheeran'
p1296
sg5
I12
sg6
S'https://open.spotify.com/track/2dfHh7ECGxfNqZTQno09Vk'
p1297
sg8
S"Hearts Don't Break Around Here"
p1298
ssS'3HBvs6g8WgT8KT1gZzGSX1'
p1299
(dp1300
g3
S'U2'
p1301
sg5
I1
sg6
S'https://open.spotify.com/track/3HBvs6g8WgT8KT1gZzGSX1'
p1302
sg8
S'Christmas (Baby Please Come Home)'
p1303
ssS'0N3W5peJUQtI4eyR6GJT5O'
p1304
(dp1305
g3
S'Kendrick Lamar'
p1306
sg5
I15
sg6
S'https://open.spotify.com/track/0N3W5peJUQtI4eyR6GJT5O'
p1307
sg8
S'King Kunta'
p1308
ssS'0WqIKmW4BTrj3eJFmnCKMv'
p1309
(dp1310
g3
S'Beyonc\xc3\xa9'
p1311
sg5
I1
sg6
S'https://open.spotify.com/track/0WqIKmW4BTrj3eJFmnCKMv'
p1312
sg8
S'Crazy In Love'
p1313
ssS'7l9CE3wmEGOUYw1j4ETjnL'
p1314
(dp1315
g3
S'Gorillaz'
p1316
sg5
I2
sg6
S'https://open.spotify.com/track/7l9CE3wmEGOUYw1j4ETjnL'
p1317
sg8
S'Saturnz Barz (feat. Popcaan)'
p1318
ssS'4WdCxlUyj3TCTBaJx5s9tF'
p1319
(dp1320
g3
S'Sigrid'
p1321
sg5
I3
sg6
S'https://open.spotify.com/track/4WdCxlUyj3TCTBaJx5s9tF'
p1322
sg8
S"Don't Kill My Vibe"
p1323
ssS'7ol59kVwq3DQyyjKZ2DRzy'
p1324
(dp1325
g3
S'Tash Sultana'
p1326
sg5
I31
sg6
S'https://open.spotify.com/track/7ol59kVwq3DQyyjKZ2DRzy'
p1327
sg8
S'Jungle'
p1328
ssS'343YBumqHu19cGoGARUTsd'
p1329
(dp1330
g3
S'Drake'
p1331
sg5
I42
sg6
S'https://open.spotify.com/track/343YBumqHu19cGoGARUTsd'
p1332
sg8
S'Fake Love'
p1333
ssS'5HDPtsnyb3maFmPL8LLUTG'
p1334
(dp1335
g3
S'Ed Sheeran'
p1336
sg5
I17
sg6
S'https://open.spotify.com/track/5HDPtsnyb3maFmPL8LLUTG'
p1337
sg8
S'New Man'
p1338
ssS'7vEeYo34dX7geZhQVotCJi'
p1339
(dp1340
g3
S'Amy Shark'
p1341
sg5
I11
sg6
S'https://open.spotify.com/track/7vEeYo34dX7geZhQVotCJi'
p1342
sg8
S'Weekends'
p1343
ssS'4xyNG8vZR3g8FnphVkbjRo'
p1344
(dp1345
g3
S'Lana Del Rey'
p1346
sg5
I1
sg6
S'https://open.spotify.com/track/4xyNG8vZR3g8FnphVkbjRo'
p1347
sg8
S'Love'
p1348
ssS'3nodtPfXcok53E8Uze8gvD'
p1349
(dp1350
g3
S'Snakehips'
p1351
sg5
I9
sg6
S'https://open.spotify.com/track/3nodtPfXcok53E8Uze8gvD'
p1352
sg8
S'Either Way'
p1353
ssS'6WbADFqMvR8N5u0BvtsWQE'
p1354
(dp1355
g3
S'Avicii'
p1356
sg5
I9
sg6
S'https://open.spotify.com/track/6WbADFqMvR8N5u0BvtsWQE'
p1357
sg8
S'Without You (feat. Sandro Cavazza)'
p1358
ssS'1DnSNqCQM3LUxqFuXt184Q'
p1359
(dp1360
g3
S'Michael Bubl\xc3\xa9'
p1361
sg5
I1
sg6
S'https://open.spotify.com/track/1DnSNqCQM3LUxqFuXt184Q'
p1362
sg8
S'Have Yourself A Merry Little Christmas'
p1363
ssS'5uDASfU19gDxSjW8cnCaBp'
p1364
(dp1365
g3
S'Rob $tone'
p1366
sg5
I8
sg6
S'https://open.spotify.com/track/5uDASfU19gDxSjW8cnCaBp'
p1367
sg8
S'Chill Bill'
p1368
ssS'4pdPtRcBmOSQDlJ3Fk945m'
p1369
(dp1370
g3
S'DJ Snake'
p1371
sg5
I41
sg6
S'https://open.spotify.com/track/4pdPtRcBmOSQDlJ3Fk945m'
p1372
sg8
S'Let Me Love You'
p1373
ssS'5EnYT6F7wEcdege6mDHEfO'
p1374
(dp1375
g3
S'Drake'
p1376
sg5
I14
sg6
S'https://open.spotify.com/track/5EnYT6F7wEcdege6mDHEfO'
p1377
sg8
S'Signs'
p1378
ssS'6H0AwSQ20mo62jGlPGB8S6'
p1379
(dp1380
g3
S'2 Chainz'
p1381
sg5
I14
sg6
S'https://open.spotify.com/track/6H0AwSQ20mo62jGlPGB8S6'
p1382
sg8
S"It's A Vibe"
p1383
ssS'1OAiWI2oPmglaOiv9fdioU'
p1384
(dp1385
g3
S'Coldplay'
p1386
sg5
I10
sg6
S'https://open.spotify.com/track/1OAiWI2oPmglaOiv9fdioU'
p1387
sg8
S'Hymn For The Weekend - Seeb Remix'
p1388
ssS'3jHCXrZNz8fQEEf4BpWCAj'
p1389
(dp1390
g3
S'Justin Bieber'
p1391
sg5
I1
sg6
S'https://open.spotify.com/track/3jHCXrZNz8fQEEf4BpWCAj'
p1392
sg8
S'Purpose'
p1393
ssS'7LEydI5NfjY6mZfKwYIptZ'
p1394
(dp1395
g3
S'Fifth Harmony'
p1396
sg5
I12
sg6
S'https://open.spotify.com/track/7LEydI5NfjY6mZfKwYIptZ'
p1397
sg8
S'Down'
p1398
ssS'7y9iMe8SOB6z3NoHE2OfXl'
p1399
(dp1400
g3
S'Halsey'
p1401
sg5
I8
sg6
S'https://open.spotify.com/track/7y9iMe8SOB6z3NoHE2OfXl'
p1402
sg8
S'Bad At Love'
p1403
ssS'2Na0z2gfN67Rzf0vp74Wi3'
p1404
(dp1405
g3
S'Drake'
p1406
sg5
I2
sg6
S'https://open.spotify.com/track/2Na0z2gfN67Rzf0vp74Wi3'
p1407
sg8
S'Lose You'
p1408
ssS'23e6ly5nFanMQOk4cAwJj2'
p1409
(dp1410
g3
S'Mura Masa'
p1411
sg5
I2
sg6
S'https://open.spotify.com/track/23e6ly5nFanMQOk4cAwJj2'
p1412
sg8
S'Love$ick'
p1413
ssS'3K4HG9evC7dg3N0R9cYqk4'
p1414
(dp1415
g3
S'Linkin Park'
p1416
sg5
I1
sg6
S'https://open.spotify.com/track/3K4HG9evC7dg3N0R9cYqk4'
p1417
sg8
S'One Step Closer'
p1418
ssS'7oK9VyNzrYvRFo7nQEYkWN'
p1419
(dp1420
g3
S'The Killers'
p1421
sg5
I42
sg6
S'https://open.spotify.com/track/7oK9VyNzrYvRFo7nQEYkWN'
p1422
sg8
S'Mr. Brightside'
p1423
ssS'4yUZPM6OfAY1KJik9rsveW'
p1424
(dp1425
g3
S'The Rubens'
p1426
sg5
I3
sg6
S'https://open.spotify.com/track/4yUZPM6OfAY1KJik9rsveW'
p1427
sg8
S'Hoops'
p1428
ssS'1rPCgtaIF0CyKRgAwhtpbF'
p1429
(dp1430
g3
S'Amy Shark'
p1431
sg5
I42
sg6
S'https://open.spotify.com/track/1rPCgtaIF0CyKRgAwhtpbF'
p1432
sg8
S'Adore'
p1433
ssS'6kL5KS38LCR96cNfbfsb6u'
p1434
(dp1435
g3
S'NERVO'
p1436
sg5
I6
sg6
S'https://open.spotify.com/track/6kL5KS38LCR96cNfbfsb6u'
p1437
sg8
S'In Your Arms'
p1438
ssS'5xV0Czdqefft6sPDqjmFBu'
p1439
(dp1440
g3
S'Mario'
p1441
sg5
I1
sg6
S'https://open.spotify.com/track/5xV0Czdqefft6sPDqjmFBu'
p1442
sg8
S'Let Me Love You'
p1443
ssS'3qmvK8QARSPkFTuKeIXSbs'
p1444
(dp1445
g3
S'Linkin Park'
p1446
sg5
I1
sg6
S'https://open.spotify.com/track/3qmvK8QARSPkFTuKeIXSbs'
p1447
sg8
S'Bleed It Out'
p1448
ssS'7y6c07pgjZvtHI9kuMVqk1'
p1449
(dp1450
g3
S'Drake'
p1451
sg5
I6
sg6
S'https://open.spotify.com/track/7y6c07pgjZvtHI9kuMVqk1'
p1452
sg8
S'Get It Together'
p1453
ssS'79cuOz3SPQTuFrp8WgftAu'
p1454
(dp1455
g3
S'Shawn Mendes'
p1456
sg5
I25
sg6
S'https://open.spotify.com/track/79cuOz3SPQTuFrp8WgftAu'
p1457
sg8
S"There's Nothing Holdin' Me Back"
p1458
ssS'4c2W3VKsOFoIg2SFaO6DY5'
p1459
(dp1460
g3
S'Rita Ora'
p1461
sg5
I20
sg6
S'https://open.spotify.com/track/4c2W3VKsOFoIg2SFaO6DY5'
p1462
sg8
S'Your Song'
p1463
ssS'0lmdsH1MIoLsMymnNpd6HU'
p1464
(dp1465
g3
S'Dante Klein'
p1466
sg5
I9
sg6
S'https://open.spotify.com/track/0lmdsH1MIoLsMymnNpd6HU'
p1467
sg8
S'Let Me Hold You (Turn Me On)'
p1468
ssS'4ARPvK8DHLwt4oX65ZAFMw'
p1469
(dp1470
g3
S'XXXTENTACION'
p1471
sg5
I30
sg6
S'https://open.spotify.com/track/4ARPvK8DHLwt4oX65ZAFMw'
p1472
sg8
S'Look At Me!'
p1473
ssS'4lxy9f7o28AEttUFHXwe9P'
p1474
(dp1475
g3
S'Flume'
p1476
sg5
I1
sg6
S'https://open.spotify.com/track/4lxy9f7o28AEttUFHXwe9P'
p1477
sg8
S'Smoke & Retribution (feat. Vince Staples & Ku\xc4\x8dka)'
p1478
ssS'7KT7VGnPU5QVXN3q1BOeqb'
p1479
(dp1480
g3
S'ODESZA'
p1481
sg5
I2
sg6
S'https://open.spotify.com/track/7KT7VGnPU5QVXN3q1BOeqb'
p1482
sg8
S'Higher Ground (feat. Naomi Wild)'
p1483
ssS'4SO6Wonm24FAHzttG1lIeJ'
p1484
(dp1485
g3
S'HAIM'
p1486
sg5
I1
sg6
S'https://open.spotify.com/track/4SO6Wonm24FAHzttG1lIeJ'
p1487
sg8
S'Want You Back'
p1488
ssS'3UjJP4ludb74a29P5EHEIo'
p1489
(dp1490
g3
S'Sabrina Carpenter'
p1491
sg5
I4
sg6
S'https://open.spotify.com/track/3UjJP4ludb74a29P5EHEIo'
p1492
sg8
S'Thumbs'
p1493
ssS'3eR23VReFzcdmS7TYCrhCe'
p1494
(dp1495
g3
S'Kygo'
p1496
sg5
I33
sg6
S'https://open.spotify.com/track/3eR23VReFzcdmS7TYCrhCe'
p1497
sg8
S"It Ain't Me (with Selena Gomez)"
p1498
ssS'2eAZfqOm4EnOF9VvN50Tyc'
p1499
(dp1500
g3
S'Lil Uzi Vert'
p1501
sg5
I4
sg6
S'https://open.spotify.com/track/2eAZfqOm4EnOF9VvN50Tyc'
p1502
sg8
S'The Way Life Goes'
p1503
ssS'6jA8HL9i4QGzsj6fjoxp8Y'
p1504
(dp1505
g3
S'Martin Garrix'
p1506
sg5
I20
sg6
S'https://open.spotify.com/track/6jA8HL9i4QGzsj6fjoxp8Y'
p1507
sg8
S'There for You'
p1508
ssS'66hayvUbTotekKU3H4ta1f'
p1509
(dp1510
g3
S'Skrillex'
p1511
sg5
I2
sg6
S'https://open.spotify.com/track/66hayvUbTotekKU3H4ta1f'
p1512
sg8
S'Where Are \xc3\x9c Now (with Justin Bieber)'
p1513
ssS'5RoIXwyTCdyUjpMMkk4uPd'
p1514
(dp1515
g3
S'The Temper Trap'
p1516
sg5
I8
sg6
S'https://open.spotify.com/track/5RoIXwyTCdyUjpMMkk4uPd'
p1517
sg8
S'Sweet Disposition'
p1518
ssS'5bZtRlMBU76vHuDOb1GM5u'
p1519
(dp1520
g3
S'Jonas Blue'
p1521
sg5
I1
sg6
S'https://open.spotify.com/track/5bZtRlMBU76vHuDOb1GM5u'
p1522
sg8
S'Perfect Strangers'
p1523
ssS'1KT0xdIjm7t053xByACrrg'
p1524
(dp1525
g3
S'Ariana Grande'
p1526
sg5
I1
sg6
S'https://open.spotify.com/track/1KT0xdIjm7t053xByACrrg'
p1527
sg8
S'\xe7\xbe\x8e\xe5\xa5\xb3\xe3\x81\xa8\xe9\x87\x8e\xe7\x8d\xa3'
p1528
ssS'6TIU9Ehmi6dMzZK73Ym4yj'
p1529
(dp1530
g3
S'Ed Sheeran'
p1531
sg5
I10
sg6
S'https://open.spotify.com/track/6TIU9Ehmi6dMzZK73Ym4yj'
p1532
sg8
S'Save Myself'
p1533
ssS'7taXf5odg9xCAZERYfyOkS'
p1534
(dp1535
g3
S'Jos\xc3\xa9 Feliciano'
p1536
sg5
I1
sg6
S'https://open.spotify.com/track/7taXf5odg9xCAZERYfyOkS'
p1537
sg8
S'Feliz Navidad'
p1538
ssS'3hRZsdTF5uyGA2uhNqEuhm'
p1539
(dp1540
g3
S'Niall Horan'
p1541
sg5
I4
sg6
S'https://open.spotify.com/track/3hRZsdTF5uyGA2uhNqEuhm'
p1542
sg8
S'Too Much To Ask'
p1543
ssS'2mfUa8bLs2s5N4VaqJZ4lZ'
p1544
(dp1545
g3
S'Hailee Steinfeld'
p1546
sg5
I24
sg6
S'https://open.spotify.com/track/2mfUa8bLs2s5N4VaqJZ4lZ'
p1547
sg8
S'Most Girls'
p1548
ssS'77lqbary6vt1DSc1MBN6sx'
p1549
(dp1550
g3
S'R\xc3\x9cF\xc3\x9cS'
p1551
sg5
I10
sg6
S'https://open.spotify.com/track/77lqbary6vt1DSc1MBN6sx'
p1552
sg8
S'You Were Right'
p1553
ssS'4aWmUDTfIPGksMNLV2rQP2'
p1554
(dp1555
g3
S'Luis Fonsi'
p1556
sg5
I31
sg6
S'https://open.spotify.com/track/4aWmUDTfIPGksMNLV2rQP2'
p1557
sg8
S'Despacito (Featuring Daddy Yankee)'
p1558
ssS'58zsLZPvfflaiIbNWoA22O'
p1559
(dp1560
g3
S"Rag'n'Bone Man"
p1561
sg5
I15
sg6
S'https://open.spotify.com/track/58zsLZPvfflaiIbNWoA22O'
p1562
sg8
S'Human'
p1563
ssS'5dKyZWlgjWw1oJgLa4GCZD'
p1564
(dp1565
g3
S'Tove Lo'
p1566
sg5
I4
sg6
S'https://open.spotify.com/track/5dKyZWlgjWw1oJgLa4GCZD'
p1567
sg8
S'Cool Girl'
p1568
ssS'60APt5N2NRaKWf5xzJdzyC'
p1569
(dp1570
g3
S'Calvin Harris'
p1571
sg5
I12
sg6
S'https://open.spotify.com/track/60APt5N2NRaKWf5xzJdzyC'
p1572
sg8
S'Heatstroke'
p1573
ssS'3PEgB3fkiojxms35ntsTgs'
p1574
(dp1575
g3
S'Axwell /\\ Ingrosso'
p1576
sg5
I11
sg6
S'https://open.spotify.com/track/3PEgB3fkiojxms35ntsTgs'
p1577
sg8
S'More Than You Know'
p1578
ssS'25C5CowdsfXld2jJanbiex'
p1579
(dp1580
g3
S'Demi Lovato'
p1581
sg5
I11
sg6
S'https://open.spotify.com/track/25C5CowdsfXld2jJanbiex'
p1582
sg8
S'Sorry Not Sorry'
p1583
ssS'47X9nPgLBHEGts5tFwpF6S'
p1584
(dp1585
g3
S'Ella Fitzgerald'
p1586
sg5
I1
sg6
S'https://open.spotify.com/track/47X9nPgLBHEGts5tFwpF6S'
p1587
sg8
S'Have Yourself A Merry Little Christmas'
p1588
ssS'0azC730Exh71aQlOt9Zj3y'
p1589
(dp1590
g3
S'Calvin Harris'
p1591
sg5
I34
sg6
S'https://open.spotify.com/track/0azC730Exh71aQlOt9Zj3y'
p1592
sg8
S'This Is What You Came For'
p1593
ssS'2Z8WuEywRWYTKe1NybPQEW'
p1594
(dp1595
g3
S'Twenty One Pilots'
p1596
sg5
I9
sg6
S'https://open.spotify.com/track/2Z8WuEywRWYTKe1NybPQEW'
p1597
sg8
S'Ride'
p1598
ssS'2FBUoWkIuQXwayw2RNo5l6'
p1599
(dp1600
g3
S'Drake'
p1601
sg5
I10
sg6
S'https://open.spotify.com/track/2FBUoWkIuQXwayw2RNo5l6'
p1602
sg8
S'Hotline Bling'
p1603
ssS'3d9DChrdc6BOeFsbrZ3Is0'
p1604
(dp1605
g3
S'Red Hot Chili Peppers'
p1606
sg5
I1
sg6
S'https://open.spotify.com/track/3d9DChrdc6BOeFsbrZ3Is0'
p1607
sg8
S'Under The Bridge'
p1608
ssS'6JV2JOEocMgcZxYSZelKcc'
p1609
(dp1610
g3
S'Justin Timberlake'
p1611
sg5
I42
sg6
S'https://open.spotify.com/track/6JV2JOEocMgcZxYSZelKcc'
p1612
sg8
S"CAN'T STOP THE FEELING! (Original Song from DreamWorks Animation's TROLLS)"
p1613
ssS'05KOgYg8PGeJyyWBPi5ja8'
p1614
(dp1615
g3
S'Drake'
p1616
sg5
I5
sg6
S'https://open.spotify.com/track/05KOgYg8PGeJyyWBPi5ja8'
p1617
sg8
S'Free Smoke'
p1618
ssS'6De0lHrwBfPfrhorm9q1Xl'
p1619
(dp1620
g3
S'Danny Ocean'
p1621
sg5
I2
sg6
S'https://open.spotify.com/track/6De0lHrwBfPfrhorm9q1Xl'
p1622
sg8
S'Me Reh\xc3\xbaso'
p1623
ssS'3GVkPk8mqxz0itaAriG1L7'
p1624
(dp1625
g3
S'XXXTENTACION'
p1626
sg5
I7
sg6
S'https://open.spotify.com/track/3GVkPk8mqxz0itaAriG1L7'
p1627
sg8
S'Everybody Dies In Their Nightmares'
p1628
ssS'7aV2mflaASUmGhCErm7kBO'
p1629
(dp1630
g3
S'Nevada'
p1631
sg5
I20
sg6
S'https://open.spotify.com/track/7aV2mflaASUmGhCErm7kBO'
p1632
sg8
S'The Mack'
p1633
ssS'6a1hzBiTkgqTsDA0Xgfh9z'
p1634
(dp1635
g3
S'The Jackson 5'
p1636
sg5
I1
sg6
S'https://open.spotify.com/track/6a1hzBiTkgqTsDA0Xgfh9z'
p1637
sg8
S'Santa Claus Is Coming To Town'
p1638
ssS'41onDks2UPbyjer5fMeUWf'
p1639
(dp1640
g3
S'Run\xe2\x80\x93D.M.C.'
p1641
sg5
I1
sg6
S'https://open.spotify.com/track/41onDks2UPbyjer5fMeUWf'
p1642
sg8
S'Christmas in Hollis'
p1643
ssS'2nYwV62UABTH0NanrwVIdQ'
p1644
(dp1645
g3
S'Rae Sremmurd'
p1646
sg5
I1
sg6
S'https://open.spotify.com/track/2nYwV62UABTH0NanrwVIdQ'
p1647
sg8
S'Perplexing Pegasus'
p1648
ssS'48ByhmhBjgyWIRzdHDuQMD'
p1649
(dp1650
g3
S'Peking Duk'
p1651
sg5
I1
sg6
S'https://open.spotify.com/track/48ByhmhBjgyWIRzdHDuQMD'
p1652
sg8
S'High - Original Mix'
p1653
ssS'3rOSwuTsUlJp0Pu0MkN8r8'
p1654
(dp1655
g3
S'Future'
p1656
sg5
I32
sg6
S'https://open.spotify.com/track/3rOSwuTsUlJp0Pu0MkN8r8'
p1657
sg8
S'Mask Off'
p1658
ssS'1qOLh0tI7trd1zdDKxYZTe'
p1659
(dp1660
g3
S'Hailee Steinfeld'
p1661
sg5
I35
sg6
S'https://open.spotify.com/track/1qOLh0tI7trd1zdDKxYZTe'
p1662
sg8
S'Starving'
p1663
ssS'0cqRj7pUJDkTCEsJkx8snD'
p1664
(dp1665
g3
S'Taylor Swift'
p1666
sg5
I3
sg6
S'https://open.spotify.com/track/0cqRj7pUJDkTCEsJkx8snD'
p1667
sg8
S'Shake It Off'
p1668
ssS'3HVr6jTVwBHBa2flM0eURR'
p1669
(dp1670
g3
S'Macklemore'
p1671
sg5
I14
sg6
S'https://open.spotify.com/track/3HVr6jTVwBHBa2flM0eURR'
p1672
sg8
S'Glorious (feat. Skylar Grey)'
p1673
ssS'7inXu0Eaeg02VsM8kHNvzM'
p1674
(dp1675
g3
S'Frank Sinatra'
p1676
sg5
I1
sg6
S'https://open.spotify.com/track/7inXu0Eaeg02VsM8kHNvzM'
p1677
sg8
S'Let It Snow! Let It Snow! Let It Snow!'
p1678
ssS'0JiVRyTJcJnmlwCZ854K4p'
p1679
(dp1680
g3
S'Alan Walker'
p1681
sg5
I6
sg6
S'https://open.spotify.com/track/0JiVRyTJcJnmlwCZ854K4p'
p1682
sg8
S'Alone'
p1683
ssS'1cG0umU5TKStygKsPFZ9pY'
p1684
(dp1685
g3
S'Robin Schulz'
p1686
sg5
I33
sg6
S'https://open.spotify.com/track/1cG0umU5TKStygKsPFZ9pY'
p1687
sg8
S'Shed a Light'
p1688
ssS'6520aj0B4FSKGVuKNsOCOi'
p1689
(dp1690
g3
S'Katy Perry'
p1691
sg5
I18
sg6
S'https://open.spotify.com/track/6520aj0B4FSKGVuKNsOCOi'
p1692
sg8
S'Chained To The Rhythm'
p1693
ssS'4q8PHoRsPUB52LFylX8Ulz'
p1694
(dp1695
g3
S'Axwell /\\ Ingrosso'
p1696
sg5
I7
sg6
S'https://open.spotify.com/track/4q8PHoRsPUB52LFylX8Ulz'
p1697
sg8
S'More Than You Know'
p1698
ssS'6EpRaXYhGOB3fj4V2uDkMJ'
p1699
(dp1700
g3
S'Liam Payne'
p1701
sg5
I21
sg6
S'https://open.spotify.com/track/6EpRaXYhGOB3fj4V2uDkMJ'
p1702
sg8
S'Strip That Down'
p1703
ssS'2MX30RliaxJDgmQ3C3rrJX'
p1704
(dp1705
g3
S'blackbear'
p1706
sg5
I1
sg6
S'https://open.spotify.com/track/2MX30RliaxJDgmQ3C3rrJX'
p1707
sg8
S'do re mi'
p1708
ssS'05X6aMCQR09E6smUmw9qms'
p1709
(dp1710
g3
S'Queen'
p1711
sg5
I1
sg6
S'https://open.spotify.com/track/05X6aMCQR09E6smUmw9qms'
p1712
sg8
S"Thank God It's Christmas - Non-Album Single"
p1713
ssS'3Db8OhBMmNPLv2rHYoP7Wf'
p1714
(dp1715
g3
S'John Gibbons'
p1716
sg5
I8
sg6
S'https://open.spotify.com/track/3Db8OhBMmNPLv2rHYoP7Wf'
p1717
sg8
S'P.Y.T. (Pretty Young Thing)'
p1718
ssS'6NosuXu0gXczpqyYiYzfFd'
p1719
(dp1720
g3
S'Tash Sultana'
p1721
sg5
I16
sg6
S'https://open.spotify.com/track/6NosuXu0gXczpqyYiYzfFd'
p1722
sg8
S'Notion'
p1723
ssS'1wjzFQodRWrPcQ0AnYnvQ9'
p1724
(dp1725
g3
S'Lauv'
p1726
sg5
I19
sg6
S'https://open.spotify.com/track/1wjzFQodRWrPcQ0AnYnvQ9'
p1727
sg8
S'I Like Me Better'
p1728
ssS'51PIvodunv6NmX5250zxAh'
p1729
(dp1730
g3
S'Lady Gaga'
p1731
sg5
I23
sg6
S'https://open.spotify.com/track/51PIvodunv6NmX5250zxAh'
p1732
sg8
S'The Cure'
p1733
ssS'0utlOiJy2weVl9WTkcEWHy'
p1734
(dp1735
g3
S'J. Cole'
p1736
sg5
I1
sg6
S'https://open.spotify.com/track/0utlOiJy2weVl9WTkcEWHy'
p1737
sg8
S'Neighbors'
p1738
ssS'3FEBsU1XGqjwkDfMn8utnw'
p1739
(dp1740
g3
S'Methyl Ethel'
p1741
sg5
I1
sg6
S'https://open.spotify.com/track/3FEBsU1XGqjwkDfMn8utnw'
p1742
sg8
S'Ubu'
p1743
ssS'5r011NB07RHjABbuVGVIbd'
p1744
(dp1745
g3
S'Lorde'
p1746
sg5
I9
sg6
S'https://open.spotify.com/track/5r011NB07RHjABbuVGVIbd'
p1747
sg8
S'The Louvre'
p1748
ssS'6TaqooOXAEcijL6G1AWS2K'
p1749
(dp1750
g3
S'Snakehips'
p1751
sg5
I24
sg6
S'https://open.spotify.com/track/6TaqooOXAEcijL6G1AWS2K'
p1752
sg8
S'All My Friends'
p1753
ssS'5MFzQMkrl1FOOng9tq6R9r'
p1754
(dp1755
g3
S'Maroon 5'
p1756
sg5
I23
sg6
S'https://open.spotify.com/track/5MFzQMkrl1FOOng9tq6R9r'
p1757
sg8
S"Don't Wanna Know"
p1758
ssS'5Z3GHaZ6ec9bsiI5BenrbY'
p1759
(dp1760
g3
S'Khalid'
p1761
sg5
I16
sg6
S'https://open.spotify.com/track/5Z3GHaZ6ec9bsiI5BenrbY'
p1762
sg8
S'Young Dumb & Broke'
p1763
ssS'3FDrI0FLKzrYQiWxPhqV2W'
p1764
(dp1765
g3
S'Calvin Harris'
p1766
sg5
I4
sg6
S'https://open.spotify.com/track/3FDrI0FLKzrYQiWxPhqV2W'
p1767
sg8
S'Rollin'
p1768
ssS'2fGxYYMQbVqgIdaqfz2OwA'
p1769
(dp1770
g3
S'Miley Cyrus'
p1771
sg5
I1
sg6
S'https://open.spotify.com/track/2fGxYYMQbVqgIdaqfz2OwA'
p1772
sg8
S'Younger Now'
p1773
ssS'7FCfMXYTIiQ9b4hDYs4Iol'
p1774
(dp1775
g3
S'Dua Lipa'
p1776
sg5
I10
sg6
S'https://open.spotify.com/track/7FCfMXYTIiQ9b4hDYs4Iol'
p1777
sg8
S'Be The One'
p1778
ssS'6eT7xZZlB2mwyzJ2sUKG6w'
p1779
(dp1780
g3
S'Post Malone'
p1781
sg5
I23
sg6
S'https://open.spotify.com/track/6eT7xZZlB2mwyzJ2sUKG6w'
p1782
sg8
S'White Iverson'
p1783
ssS'1WP1r7fuvRqZRnUaTi2I1Q'
p1784
(dp1785
g3
S'Shawn Mendes'
p1786
sg5
I5
sg6
S'https://open.spotify.com/track/1WP1r7fuvRqZRnUaTi2I1Q'
p1787
sg8
S'Stitches'
p1788
ssS'32OlwWuMpZ6b0aN2RZOeMS'
p1789
(dp1790
g3
S'Mark Ronson'
p1791
sg5
I22
sg6
S'https://open.spotify.com/track/32OlwWuMpZ6b0aN2RZOeMS'
p1792
sg8
S'Uptown Funk'
p1793
ssS'0v9Wz8o0BT8DU38R4ddjeH'
p1794
(dp1795
g3
S'Chance The Rapper'
p1796
sg5
I7
sg6
S'https://open.spotify.com/track/0v9Wz8o0BT8DU38R4ddjeH'
p1797
sg8
S'No Problem (feat. Lil Wayne & 2 Chainz)'
p1798
ssS'4DzNCVgqxBebOO9Lx0HEaU'
p1799
(dp1800
g3
S'Meg Mac'
p1801
sg5
I1
sg6
S'https://open.spotify.com/track/4DzNCVgqxBebOO9Lx0HEaU'
p1802
sg8
S"Maybe It's My First Time"
p1803
ssS'0IqKeD8ZSP72KbGYyzEcAs'
p1804
(dp1805
g3
S'Hozier'
p1806
sg5
I3
sg6
S'https://open.spotify.com/track/0IqKeD8ZSP72KbGYyzEcAs'
p1807
sg8
S'Take Me To Church'
p1808
ssS'6SlJooJullmwjBsrnRNROA'
p1809
(dp1810
g3
S'Bliss n Eso'
p1811
sg5
I28
sg6
S'https://open.spotify.com/track/6SlJooJullmwjBsrnRNROA'
p1812
sg8
S'Moments (feat. Gavin James)'
p1813
ssS'5QqyRUZeBE04yJxsD1OC0I'
p1814
(dp1815
g3
S'Lana Del Rey'
p1816
sg5
I1
sg6
S'https://open.spotify.com/track/5QqyRUZeBE04yJxsD1OC0I'
p1817
sg8
S'Summer Bummer (feat. A$AP Rocky & Playboi Carti)'
p1818
ssS'2jTujnt0y344ai1rNOywgr'
p1819
(dp1820
g3
S'Drake'
p1821
sg5
I3
sg6
S'https://open.spotify.com/track/2jTujnt0y344ai1rNOywgr'
p1822
sg8
S'KMT'
p1823
ssS'6pVW5LRWgeLaHudxauOTJU'
p1824
(dp1825
g3
S'Daryl Hall & John Oates'
p1826
sg5
I1
sg6
S'https://open.spotify.com/track/6pVW5LRWgeLaHudxauOTJU'
p1827
sg8
S'Jingle Bell Rock from Daryl'
p1828
ssS'1ipE3bBLWeLkIvxWUaxpSu'
p1829
(dp1830
g3
S'P!nk'
p1831
sg5
I2
sg6
S'https://open.spotify.com/track/1ipE3bBLWeLkIvxWUaxpSu'
p1832
sg8
S'Beautiful Trauma'
p1833
ssS'6gBFPUFcJLzWGx4lenP6h2'
p1834
(dp1835
g3
S'Travis Scott'
p1836
sg5
I38
sg6
S'https://open.spotify.com/track/6gBFPUFcJLzWGx4lenP6h2'
p1837
sg8
S'goosebumps'
p1838
ssS'7zgqtptZvhf8GEmdsM2vp2'
p1839
(dp1840
g3
S'Taylor Swift'
p1841
sg5
I1
sg6
S'https://open.spotify.com/track/7zgqtptZvhf8GEmdsM2vp2'
p1842
sg8
S'...Ready For It?'
p1843
ssS'3UDXkdQquqCEAJdNAsA1wO'
p1844
(dp1845
g3
S'Cash Cash'
p1846
sg5
I4
sg6
S'https://open.spotify.com/track/3UDXkdQquqCEAJdNAsA1wO'
p1847
sg8
S'Millionaire (feat. Nelly)'
p1848
ssS'7AQim7LbvFVZJE3O8TYgf2'
p1849
(dp1850
g3
S'XXXTENTACION'
p1851
sg5
I7
sg6
S'https://open.spotify.com/track/7AQim7LbvFVZJE3O8TYgf2'
p1852
sg8
S'Fuck Love (feat. Trippie Redd)'
p1853
ssS'7vFoFDWqTX0mHzLfrF1Cfy'
p1854
(dp1855
g3
S'OMI'
p1856
sg5
I1
sg6
S'https://open.spotify.com/track/7vFoFDWqTX0mHzLfrF1Cfy'
p1857
sg8
S'Cheerleader - Felix Jaehn Remix Radio Edit'
p1858
ssS'7bliRZuMFa2JmUzzNd62kk'
p1859
(dp1860
g3
S'Chet Faker'
p1861
sg5
I6
sg6
S'https://open.spotify.com/track/7bliRZuMFa2JmUzzNd62kk'
p1862
sg8
S'Talk Is Cheap'
p1863
ssS'7ewsxWh5S6DIY2ySAeuZXS'
p1864
(dp1865
g3
S'Tash Sultana'
p1866
sg5
I2
sg6
S'https://open.spotify.com/track/7ewsxWh5S6DIY2ySAeuZXS'
p1867
sg8
S'Notion (Radio Edit)'
p1868
ssS'1ywMOfO0f9atfKRVtA9TiE'
p1869
(dp1870
g3
S'Meg Mac'
p1871
sg5
I7
sg6
S'https://open.spotify.com/track/1ywMOfO0f9atfKRVtA9TiE'
p1872
sg8
S"Maybe It's My First Time"
p1873
ssS'0PDUDa38GO8lMxLCRc4lL1'
p1874
(dp1875
g3
S'ZAYN'
p1876
sg5
I13
sg6
S'https://open.spotify.com/track/0PDUDa38GO8lMxLCRc4lL1'
p1877
sg8
S'PILLOWTALK'
p1878
ssS'3pC1ILr9KzmQLMe8Kn5QBG'
p1879
(dp1880
g3
S'DJ Khaled'
p1881
sg5
I1
sg6
S'https://open.spotify.com/track/3pC1ILr9KzmQLMe8Kn5QBG'
p1882
sg8
S'To the Max'
p1883
ssS'6LOCAhFzZiavHcLJucLuDy'
p1884
(dp1885
g3
S'DJ Khaled'
p1886
sg5
I1
sg6
S'https://open.spotify.com/track/6LOCAhFzZiavHcLJucLuDy'
p1887
sg8
S"Don't Quit"
p1888
ssS'35QZaWQRkmnAVqBF1TLCxQ'
p1889
(dp1890
g3
S'Ed Sheeran'
p1891
sg5
I15
sg6
S'https://open.spotify.com/track/35QZaWQRkmnAVqBF1TLCxQ'
p1892
sg8
S'Nancy Mulligan'
p1893
ssS'1e1JKLEDKP7hEQzJfNAgPl'
p1894
(dp1895
g3
S'Playboi Carti'
p1896
sg5
I18
sg6
S'https://open.spotify.com/track/1e1JKLEDKP7hEQzJfNAgPl'
p1897
sg8
S'Magnolia'
p1898
ssS'5q4BpnMrYEFzLO0dYODj6J'
p1899
(dp1900
g3
S'Lorde'
p1901
sg5
I1
sg6
S'https://open.spotify.com/track/5q4BpnMrYEFzLO0dYODj6J'
p1902
sg8
S'The Louvre'
p1903
ssS'3VRk65lHSwqd90TAkQqhvB'
p1904
(dp1905
g3
S'Katy Perry'
p1906
sg5
I2
sg6
S'https://open.spotify.com/track/3VRk65lHSwqd90TAkQqhvB'
p1907
sg8
S'Swish Swish'
p1908
ssS'5eqK0tbzUPo2SoeZsov04s'
p1909
(dp1910
g3
S'21 Savage'
p1911
sg5
I9
sg6
S'https://open.spotify.com/track/5eqK0tbzUPo2SoeZsov04s'
p1912
sg8
S'Bank Account'
p1913
ssS'2MHCiOohBZEQuLgDTPvSzF'
p1914
(dp1915
g3
S'Galantis'
p1916
sg5
I12
sg6
S'https://open.spotify.com/track/2MHCiOohBZEQuLgDTPvSzF'
p1917
sg8
S'Love On Me'
p1918
ssS'0rlFL6bxIWcCn9gk9GExFA'
p1919
(dp1920
g3
S'Ty Dolla $ign'
p1921
sg5
I1
sg6
S'https://open.spotify.com/track/0rlFL6bxIWcCn9gk9GExFA'
p1922
sg8
S'Love U Better (feat. Lil Wayne & The-Dream)'
p1923
ssS'3kxfsdsCpFgN412fpnW85Y'
p1924
(dp1925
g3
S'Childish Gambino'
p1926
sg5
I42
sg6
S'https://open.spotify.com/track/3kxfsdsCpFgN412fpnW85Y'
p1927
sg8
S'Redbone'
p1928
ssS'5hTpBe8h35rJ67eAWHQsJx'
p1929
(dp1930
g3
S'Amin\xc3\xa9'
p1931
sg5
I8
sg6
S'https://open.spotify.com/track/5hTpBe8h35rJ67eAWHQsJx'
p1932
sg8
S'Caroline'
p1933
ssS'0vbbhcA6okLzvsy6WSTlLg'
p1934
(dp1935
g3
S'Rudimental'
p1936
sg5
I2
sg6
S'https://open.spotify.com/track/0vbbhcA6okLzvsy6WSTlLg'
p1937
sg8
S'Lay It All On Me (feat. Ed Sheeran)'
p1938
ssS'4sPmO7WMQUAf45kwMOtONw'
p1939
(dp1940
g3
S'Adele'
p1941
sg5
I21
sg6
S'https://open.spotify.com/track/4sPmO7WMQUAf45kwMOtONw'
p1942
sg8
S'Hello'
p1943
ssS'1j4kHkkpqZRBwE0A4CN4Yv'
p1944
(dp1945
g3
S'ZAYN'
p1946
sg5
I5
sg6
S'https://open.spotify.com/track/1j4kHkkpqZRBwE0A4CN4Yv'
p1947
sg8
S'Dusk Till Dawn - Radio Edit'
p1948
ssS'3agtg0x11wPvLIWkYR39nZ'
p1949
(dp1950
g3
S'Linkin Park'
p1951
sg5
I1
sg6
S'https://open.spotify.com/track/3agtg0x11wPvLIWkYR39nZ'
p1952
sg8
S'Somewhere I Belong'
p1953
ssS'5p3NP9mQblDsVJLdfNZJ3I'
p1954
(dp1955
g3
S'Kendrick Lamar'
p1956
sg5
I3
sg6
S'https://open.spotify.com/track/5p3NP9mQblDsVJLdfNZJ3I'
p1957
sg8
S'GOD.'
p1958
ssS'6BaCraQ9xeLYg4Sb9TBT2X'
p1959
(dp1960
g3
S'Calvin Harris'
p1961
sg5
I1
sg6
S'https://open.spotify.com/track/6BaCraQ9xeLYg4Sb9TBT2X'
p1962
sg8
S'Feels'
p1963
ssS'3E1qdST8ADUCxOrodCeOWF'
p1964
(dp1965
g3
S'Allday'
p1966
sg5
I3
sg6
S'https://open.spotify.com/track/3E1qdST8ADUCxOrodCeOWF'
p1967
sg8
S'In Motion (feat. Japanese Wallpaper)'
p1968
ssS'6875MeXyCW0wLyT72Eetmo'
p1969
(dp1970
g3
S'Hailee Steinfeld'
p1971
sg5
I7
sg6
S'https://open.spotify.com/track/6875MeXyCW0wLyT72Eetmo'
p1972
sg8
S'Starving'
p1973
ssS'6Knv6wdA0luoMUuuoYi2i1'
p1974
(dp1975
g3
S'Flo Rida'
p1976
sg5
I3
sg6
S'https://open.spotify.com/track/6Knv6wdA0luoMUuuoYi2i1'
p1977
sg8
S'My House'
p1978
ssS'6gTJaPuj8DT8RjuDJyBgzP'
p1979
(dp1980
g3
S'Ed Sheeran'
p1981
sg5
I3
sg6
S'https://open.spotify.com/track/6gTJaPuj8DT8RjuDJyBgzP'
p1982
sg8
S"Don't"
p1983
ssS'3T7dNA7O8c3Axj5WyDNcH3'
p1984
(dp1985
g3
S'Brenda Lee'
p1986
sg5
I1
sg6
S'https://open.spotify.com/track/3T7dNA7O8c3Axj5WyDNcH3'
p1987
sg8
S"Rockin' Around The Christmas Tree - Single Version"
p1988
ssS'5q5gzmbBS5yQzos2BvVr1t'
p1989
(dp1990
g3
S'M\xc3\x98'
p1991
sg5
I23
sg6
S'https://open.spotify.com/track/5q5gzmbBS5yQzos2BvVr1t'
p1992
sg8
S'Nights With You'
p1993
ssS'3DXncPQOG4VBw3QHh3S817'
p1994
(dp1995
g3
S'DJ Khaled'
p1996
sg5
I20
sg6
S'https://open.spotify.com/track/3DXncPQOG4VBw3QHh3S817'
p1997
sg8
S"I'm the One"
p1998
ssS'5Lbsc65org0b85kNsPkluY'
p1999
(dp2000
g3
S'Harry Styles'
p2001
sg5
I2
sg6
S'https://open.spotify.com/track/5Lbsc65org0b85kNsPkluY'
p2002
sg8
S'Only Angel'
p2003
ssS'6mapJIPnQ23RTAevUoE0DL'
p2004
(dp2005
g3
S'Rae Sremmurd'
p2006
sg5
I13
sg6
S'https://open.spotify.com/track/6mapJIPnQ23RTAevUoE0DL'
p2007
sg8
S'Swang'
p2008
ssS'51w95jAPQDOWN3M7xopWWh'
p2009
(dp2010
g3
S'Logan Paul'
p2011
sg5
I2
sg6
S'https://open.spotify.com/track/51w95jAPQDOWN3M7xopWWh'
p2012
sg8
S"Help Me Help You (feat. Why Don't We)"
p2013
ssS'6mORGLOz79w6VsCRLWYYuK'
p2014
(dp2015
g3
S'Lord Huron'
p2016
sg5
I21
sg6
S'https://open.spotify.com/track/6mORGLOz79w6VsCRLWYYuK'
p2017
sg8
S'The Night We Met'
p2018
ssS'7y9tY47ksjYD5jqffGahf7'
p2019
(dp2020
g3
S'Illy'
p2021
sg5
I1
sg6
S'https://open.spotify.com/track/7y9tY47ksjYD5jqffGahf7'
p2022
sg8
S'Oh My (feat. Jenna McDougall)'
p2023
ssS'5aAx2yezTd8zXrkmtKl66Z'
p2024
(dp2025
g3
S'The Weeknd'
p2026
sg5
I42
sg6
S'https://open.spotify.com/track/5aAx2yezTd8zXrkmtKl66Z'
p2027
sg8
S'Starboy'
p2028
ssS'2BrzlUj1u1CtvaJDGIKpsP'
p2029
(dp2030
g3
S'Noah Cyrus'
p2031
sg5
I12
sg6
S'https://open.spotify.com/track/2BrzlUj1u1CtvaJDGIKpsP'
p2032
sg8
S'Make Me (Cry)'
p2033
ssS'1SJtlNRJDeYHioymcvsqev'
p2034
(dp2035
g3
S'Camila Cabello'
p2036
sg5
I21
sg6
S'https://open.spotify.com/track/1SJtlNRJDeYHioymcvsqev'
p2037
sg8
S'Crying in the Club'
p2038
ssS'0Wv5wuenRLI3BcwgT3HPIP'
p2039
(dp2040
g3
S'DJ Snake'
p2041
sg5
I3
sg6
S'https://open.spotify.com/track/0Wv5wuenRLI3BcwgT3HPIP'
p2042
sg8
S'A Different Way (with Lauv)'
p2043
ssS'04DwTuZ2VBdJCCC5TROn7L'
p2044
(dp2045
g3
S'Martin Garrix'
p2046
sg5
I25
sg6
S'https://open.spotify.com/track/04DwTuZ2VBdJCCC5TROn7L'
p2047
sg8
S'In the Name of Love'
p2048
ssS'4fzyvSu73BhGvi96p2zwjL'
p2049
(dp2050
g3
S'Coldplay'
p2051
sg5
I1
sg6
S'https://open.spotify.com/track/4fzyvSu73BhGvi96p2zwjL'
p2052
sg8
S'Christmas Lights'
p2053
ssS'7bJ4mu7MHa3rHiNyKjOoSl'
p2054
(dp2055
g3
S'Drake'
p2056
sg5
I2
sg6
S'https://open.spotify.com/track/7bJ4mu7MHa3rHiNyKjOoSl'
p2057
sg8
S'Ice Melts'
p2058
ssS'77hjM9bMmgfTGJXv14UFmi'
p2059
(dp2060
g3
S'Train'
p2061
sg5
I18
sg6
S'https://open.spotify.com/track/77hjM9bMmgfTGJXv14UFmi'
p2062
sg8
S'Play That Song'
p2063
ssS'0pSBuHjILhNEo55xK1zrRt'
p2064
(dp2065
g3
S'Ayo & Teo'
p2066
sg5
I6
sg6
S'https://open.spotify.com/track/0pSBuHjILhNEo55xK1zrRt'
p2067
sg8
S'Rolex'
p2068
ssS'4JAyIDXOqNM6qHuZML01uX'
p2069
(dp2070
g3
g1257
sg5
I1
sg6
S'https://open.spotify.com/track/4JAyIDXOqNM6qHuZML01uX'
p2071
sg8
g1257
ssS'6VRghJeP6I0w1KxkdWFfIh'
p2072
(dp2073
g3
S'Imagine Dragons'
p2074
sg5
I3
sg6
S'https://open.spotify.com/track/6VRghJeP6I0w1KxkdWFfIh'
p2075
sg8
S'Believer'
p2076
ssS'6SznMYPQJHzr3IwsAHLId2'
p2077
(dp2078
g3
S'Ed Sheeran'
p2079
sg5
I8
sg6
S'https://open.spotify.com/track/6SznMYPQJHzr3IwsAHLId2'
p2080
sg8
S'Bibia Be Ye Ye'
p2081
ssS'5xbrhx2tMMcN68IT3cJbhS'
p2082
(dp2083
g3
S'XXXTENTACION'
p2084
sg5
I1
sg6
S'https://open.spotify.com/track/5xbrhx2tMMcN68IT3cJbhS'
p2085
sg8
S'Ayala (Outro)'
p2086
ssS'4wdZdkEugVVorAfzqRqC6N'
p2087
(dp2088
g3
S'Post Malone'
p2089
sg5
I1
sg6
S'https://open.spotify.com/track/4wdZdkEugVVorAfzqRqC6N'
p2090
sg8
S'Candy Paint'
p2091
ssS'5esMq677iP3YplQImDUYmG'
p2092
(dp2093
g3
S'L D R U'
p2094
sg5
I9
sg6
S'https://open.spotify.com/track/5esMq677iP3YplQImDUYmG'
p2095
sg8
S'To Be Free'
p2096
ssS'0NiXXAI876aGImAd6rTj8w'
p2097
(dp2098
g3
S'Jonas Blue'
p2099
sg5
I14
sg6
S'https://open.spotify.com/track/0NiXXAI876aGImAd6rTj8w'
p2100
sg8
S'Mama'
p2101
ssS'0y8Wf6ltWpGCpgqVa21QNX'
p2102
(dp2103
g3
S'Charli XCX'
p2104
sg5
I7
sg6
S'https://open.spotify.com/track/0y8Wf6ltWpGCpgqVa21QNX'
p2105
sg8
S'After The Afterparty (feat. Lil Yachty)'
p2106
ssS'0mBKv9DkYfQHjdMcw2jdyI'
p2107
(dp2108
g3
S'Bruno Mars'
p2109
sg5
I1
sg6
S'https://open.spotify.com/track/0mBKv9DkYfQHjdMcw2jdyI'
p2110
sg8
S'Chunky'
p2111
ssS'1n4jwRVXdkK2U34nBDUKKT'
p2112
(dp2113
g3
S'Kendrick Lamar'
p2114
sg5
I3
sg6
S'https://open.spotify.com/track/1n4jwRVXdkK2U34nBDUKKT'
p2115
sg8
S'BLOOD.'
p2116
ssS'7ynCQo1KpBOyTdTdAnjSLZ'
p2117
(dp2118
g3
S'Sia'
p2119
sg5
I18
sg6
S'https://open.spotify.com/track/7ynCQo1KpBOyTdTdAnjSLZ'
p2120
sg8
S'Move Your Body - Single Mix'
p2121
ssS'5Ohxk2dO5COHF1krpoPigN'
p2122
(dp2123
g3
S'Harry Styles'
p2124
sg5
I26
sg6
S'https://open.spotify.com/track/5Ohxk2dO5COHF1krpoPigN'
p2125
sg8
S'Sign of the Times'
p2126
ssS'6B14wYcEpWhyDvxWRb9Df8'
p2127
(dp2128
g3
S'Michael Bubl\xc3\xa9'
p2129
sg5
I1
sg6
S'https://open.spotify.com/track/6B14wYcEpWhyDvxWRb9Df8'
p2130
sg8
S'Silent Night'
p2131
ssS'6O85MfGECKBqAK2MgSbCaj'
p2132
(dp2133
g3
S'Martin Solveig'
p2134
sg5
I3
sg6
S'https://open.spotify.com/track/6O85MfGECKBqAK2MgSbCaj'
p2135
sg8
S'Places'
p2136
ssS'7Kq16WtEJzdRSNQgdXsn7Y'
p2137
(dp2138
g3
S'Mura Masa'
p2139
sg5
I14
sg6
S'https://open.spotify.com/track/7Kq16WtEJzdRSNQgdXsn7Y'
p2140
sg8
S'Love$ick (feat. A$AP Rocky)'
p2141
ssS'4mxWSdf71VFO52qFeY0fZt'
p2142
(dp2143
g3
S'Maroon 5'
p2144
sg5
I6
sg6
S'https://open.spotify.com/track/4mxWSdf71VFO52qFeY0fZt'
p2145
sg8
S'What Lovers Do (feat. SZA)'
p2146
ssS'1ADjWm8QNhgNV8yCNNgQ1T'
p2147
(dp2148
g3
S'Ariana Grande'
p2149
sg5
I1
sg6
S'https://open.spotify.com/track/1ADjWm8QNhgNV8yCNNgQ1T'
p2150
sg8
S'Santa Tell Me'
p2151
ssS'1eQBEelI2NCy7AUTerX0KS'
p2152
(dp2153
g3
S'Kanye West'
p2154
sg5
I1
sg6
S'https://open.spotify.com/track/1eQBEelI2NCy7AUTerX0KS'
p2155
sg8
S'Ultralight Beam'
p2156
ssS'4Hf7WnR761jpxPr5D46Bcd'
p2157
(dp2158
g3
S'Shawn Mendes'
p2159
sg5
I37
sg6
S'https://open.spotify.com/track/4Hf7WnR761jpxPr5D46Bcd'
p2160
sg8
S'Treat You Better'
p2161
ssS'4fhVodXZARPX0oTuQh8V9l'
p2162
(dp2163
g3
S'Astrid S'
p2164
sg5
I1
sg6
S'https://open.spotify.com/track/4fhVodXZARPX0oTuQh8V9l'
p2165
sg8
S'Breathe'
p2166
ssS'0dXNQ8dckG4eYfEtq9zcva'
p2167
(dp2168
g3
S'The Vamps'
p2169
sg5
I1
sg6
S'https://open.spotify.com/track/0dXNQ8dckG4eYfEtq9zcva'
p2170
sg8
S'All Night'
p2171
ssS'1Tt4sE4pXi57mTD1GCzsqm'
p2172
(dp2173
g3
S'Rihanna'
p2174
sg5
I11
sg6
S'https://open.spotify.com/track/1Tt4sE4pXi57mTD1GCzsqm'
p2175
sg8
S'Needed Me'
p2176
ssS'6Ius4TC0L3cN74HT7ENE6e'
p2177
(dp2178
g3
S'J. Cole'
p2179
sg5
I4
sg6
S'https://open.spotify.com/track/6Ius4TC0L3cN74HT7ENE6e'
p2180
sg8
S'Wet Dreamz'
p2181
ssS'1MksGqIztTT6M9R1ErKVs8'
p2182
(dp2183
g3
S'Big Sean'
p2184
sg5
I2
sg6
S'https://open.spotify.com/track/1MksGqIztTT6M9R1ErKVs8'
p2185
sg8
S'No Favors'
p2186
ssS'1EaKU4dMbesXXd3BrLCtYG'
p2187
(dp2188
g3
S'Kendrick Lamar'
p2189
sg5
I18
sg6
S'https://open.spotify.com/track/1EaKU4dMbesXXd3BrLCtYG'
p2190
sg8
S'ELEMENT.'
p2191
ssS'2Ce5IyMlVRVvN997ZJjJJA'
p2192
(dp2193
g3
S'Future'
p2194
sg5
I31
sg6
S'https://open.spotify.com/track/2Ce5IyMlVRVvN997ZJjJJA'
p2195
sg8
S'Selfish'
p2196
ssS'2qoZNAP3JLyIOtbsPtBjvV'
p2197
(dp2198
g3
S'Stevie Wonder'
p2199
sg5
I1
sg6
S'https://open.spotify.com/track/2qoZNAP3JLyIOtbsPtBjvV'
p2200
sg8
S'What Christmas Means To Me'
p2201
ssS'5knuzwU65gJK7IF5yJsuaW'
p2202
(dp2203
g3
S'Clean Bandit'
p2204
sg5
I42
sg6
S'https://open.spotify.com/track/5knuzwU65gJK7IF5yJsuaW'
p2205
sg8
S'Rockabye (feat. Sean Paul & Anne-Marie)'
p2206
ssS'7aF09WaavZAmAWuUeYxlYD'
p2207
(dp2208
g3
S'OneRepublic'
p2209
sg5
I12
sg6
S'https://open.spotify.com/track/7aF09WaavZAmAWuUeYxlYD'
p2210
sg8
S'Rich Love (with Seeb)'
p2211
ssS'2UwbhMie1EAYuTZ0QXeMwl'
p2212
(dp2213
g3
S'XXXTENTACION'
p2214
sg5
I3
sg6
S'https://open.spotify.com/track/2UwbhMie1EAYuTZ0QXeMwl'
p2215
sg8
S'Save Me'
p2216
ssS'14WWzenpaEgQZlqPq2nk4v'
p2217
(dp2218
g3
S'Rihanna'
p2219
sg5
I11
sg6
S'https://open.spotify.com/track/14WWzenpaEgQZlqPq2nk4v'
p2220
sg8
S'Work'
p2221
ssS'36YCdzT57us0LhDmCYtrNE'
p2222
(dp2223
g3
S'The Weeknd'
p2224
sg5
I5
sg6
S'https://open.spotify.com/track/36YCdzT57us0LhDmCYtrNE'
p2225
sg8
S'Rockin\xe2\x80\x99'
p2226
ssS'6b8Be6ljOzmkOmFslEb23P'
p2227
(dp2228
g3
S'Bruno Mars'
p2229
sg5
I34
sg6
S'https://open.spotify.com/track/6b8Be6ljOzmkOmFslEb23P'
p2230
sg8
S'24K Magic'
p2231
ssS'1IF5UcqRO42D12vYwceOY6'
p2232
(dp2233
g3
S'Harry Styles'
p2234
sg5
I2
sg6
S'https://open.spotify.com/track/1IF5UcqRO42D12vYwceOY6'
p2235
sg8
S'From the Dining Table'
p2236
ssS'0bYg9bo50gSsH3LtXe2SQn'
p2237
(dp2238
g3
S'Mariah Carey'
p2239
sg5
I1
sg6
S'https://open.spotify.com/track/0bYg9bo50gSsH3LtXe2SQn'
p2240
sg8
S'All I Want for Christmas Is You'
p2241
ssS'4so0Wek9Ig1p6CRCHuINwW'
p2242
(dp2243
g3
S'Bing Crosby'
p2244
sg5
I1
sg6
S'https://open.spotify.com/track/4so0Wek9Ig1p6CRCHuINwW'
p2245
sg8
S'White Christmas'
p2246
ssS'4FPrAERfkPKOBKrRoyuxLu'
p2247
(dp2248
g3
S'Michael Bubl\xc3\xa9'
p2249
sg5
I1
sg6
S'https://open.spotify.com/track/4FPrAERfkPKOBKrRoyuxLu'
p2250
sg8
S'Cold December Night'
p2251
ssS'4u9Y4Z9i9VaAbBK7rW1Rha'
p2252
(dp2253
g3
S'Harry Styles'
p2254
sg5
I2
sg6
S'https://open.spotify.com/track/4u9Y4Z9i9VaAbBK7rW1Rha'
p2255
sg8
S'Meet Me in the Hallway'
p2256
ssS'23luOrEVHMfoX0AhfbQuS6'
p2257
(dp2258
g3
S'Kendrick Lamar'
p2259
sg5
I3
sg6
S'https://open.spotify.com/track/23luOrEVHMfoX0AhfbQuS6'
p2260
sg8
S'FEAR.'
p2261
ssS'26H5lCAcFqSSZHGi5iFm71'
p2262
(dp2263
g3
S'Bob Dylan'
p2264
sg5
I1
sg6
S'https://open.spotify.com/track/26H5lCAcFqSSZHGi5iFm71'
p2265
sg8
S'Must Be Santa'
p2266
ssS'5DA77EqppDmCTWGovd4oTP'
p2267
(dp2268
g3
S'Cheat Codes'
p2269
sg5
I5
sg6
S'https://open.spotify.com/track/5DA77EqppDmCTWGovd4oTP'
p2270
sg8
S'Sex'
p2271
ssS'0NnVzBW6TJLaEzcyXjqRDH'
p2272
(dp2273
g3
S'Tash Sultana'
p2274
sg5
I1
sg6
S'https://open.spotify.com/track/0NnVzBW6TJLaEzcyXjqRDH'
p2275
sg8
S'Mystik'
p2276
ssS'4h90qkbnW1Qq6pBhoPvwko'
p2277
(dp2278
g3
S'The Weeknd'
p2279
sg5
I7
sg6
S'https://open.spotify.com/track/4h90qkbnW1Qq6pBhoPvwko'
p2280
sg8
S'Sidewalks'
p2281
ssS'6HZILIRieu8S0iqY8kIKhj'
p2282
(dp2283
g3
S'Kendrick Lamar'
p2284
sg5
I26
sg6
S'https://open.spotify.com/track/6HZILIRieu8S0iqY8kIKhj'
p2285
sg8
S'DNA.'
p2286
ssS'7F9vK8hNFMml4GtHsaXui6'
p2287
(dp2288
g3
S'Louis Tomlinson'
p2289
sg5
I12
sg6
S'https://open.spotify.com/track/7F9vK8hNFMml4GtHsaXui6'
p2290
sg8
S'Back to You (feat. Bebe Rexha & Digital Farm Animals)'
p2291
ssS'0ikz6tENMONtK6qGkOrU3c'
p2292
(dp2293
g3
S'Wham!'
p2294
sg5
I1
sg6
S'https://open.spotify.com/track/0ikz6tENMONtK6qGkOrU3c'
p2295
sg8
S'Wake Me up Before You Go-Go'
p2296
ssS'54ucfuN596MU25jQD3KjCL'
p2297
(dp2298
g3
S'Lorde'
p2299
sg5
I1
sg6
S'https://open.spotify.com/track/54ucfuN596MU25jQD3KjCL'
p2300
sg8
S'Sober II (Melodrama)'
p2301
ssS'0B48113ZG9UfkWWt7qD9xX'
p2302
(dp2303
g3
S'Miley Cyrus'
p2304
sg5
I5
sg6
S'https://open.spotify.com/track/0B48113ZG9UfkWWt7qD9xX'
p2305
sg8
S'Younger Now'
p2306
ssS'1Bqxj0aH5KewYHKUg1IdrF'
p2307
(dp2308
g3
S'G-Eazy'
p2309
sg5
I8
sg6
S'https://open.spotify.com/track/1Bqxj0aH5KewYHKUg1IdrF'
p2310
sg8
S'Some Kind Of Drug'
p2311
ssS'3B54sVLJ402zGa6Xm4YGNe'
p2312
(dp2313
g3
S'French Montana'
p2314
sg5
I14
sg6
S'https://open.spotify.com/track/3B54sVLJ402zGa6Xm4YGNe'
p2315
sg8
S'Unforgettable'
p2316
ssS'2H3wWrnO758y0fPH7Ilerg'
p2317
(dp2318
g3
S'XXXTENTACION'
p2319
sg5
I3
sg6
S'https://open.spotify.com/track/2H3wWrnO758y0fPH7Ilerg'
p2320
sg8
S'Depression & Obsession'
p2321
ssS'3sTN90bIP2cJ1783ctHykO'
p2322
(dp2323
g3
S'Mura Masa'
p2324
sg5
I1
sg6
S'https://open.spotify.com/track/3sTN90bIP2cJ1783ctHykO'
p2325
sg8
S'Love$ick (feat. A$AP Rocky)'
p2326
ssS'6gpcs5eMhJwax4mIfKDYQk'
p2327
(dp2328
g3
S'Calvin Harris'
p2329
sg5
I4
sg6
S'https://open.spotify.com/track/6gpcs5eMhJwax4mIfKDYQk'
p2330
sg8
S'Slide'
p2331
ssS'5bcTCxgc7xVfSaMV3RuVke'
p2332
(dp2333
g3
S'Calvin Harris'
p2334
sg5
I16
sg6
S'https://open.spotify.com/track/5bcTCxgc7xVfSaMV3RuVke'
p2335
sg8
S'Feels'
p2336
ssS'0QsvXIfqM0zZoerQfsI9lm'
p2337
(dp2338
g3
S'The Chainsmokers'
p2339
sg5
I41
sg6
S'https://open.spotify.com/track/0QsvXIfqM0zZoerQfsI9lm'
p2340
sg8
S"Don't Let Me Down"
p2341
ssS'7w87IxuO7BDcJ3YUqCyMTT'
p2342
(dp2343
g3
S'Foster The People'
p2344
sg5
I18
sg6
S'https://open.spotify.com/track/7w87IxuO7BDcJ3YUqCyMTT'
p2345
sg8
S'Pumped Up Kicks'
p2346
ssS'6o4BYWzrQvfaFmQhm8Zq2v'
p2347
(dp2348
g3
S'Clean Bandit'
p2349
sg5
I1
sg6
S'https://open.spotify.com/track/6o4BYWzrQvfaFmQhm8Zq2v'
p2350
sg8
S'Rather Be (feat. Jess Glynne)'
p2351
ssS'7cGFbx7MP0H23iHZTZpqMM'
p2352
(dp2353
g3
S'Logic'
p2354
sg5
I6
sg6
S'https://open.spotify.com/track/7cGFbx7MP0H23iHZTZpqMM'
p2355
sg8
S'Everybody'
p2356
ssS'0fioLzGM8ngbD1w6fMmm45'
p2357
(dp2358
g3
S'Sam Smith'
p2359
sg5
I2
sg6
S'https://open.spotify.com/track/0fioLzGM8ngbD1w6fMmm45'
p2360
sg8
S"I'm Not The Only One"
p2361
ssS'4qqArAiTPueDxIp7cf87h7'
p2362
(dp2363
g3
S'M\xc3\x98'
p2364
sg5
I31
sg6
S'https://open.spotify.com/track/4qqArAiTPueDxIp7cf87h7'
p2365
sg8
S'Final Song'
p2366
ssS'7avUYFehb1GscgCncPdBDK'
p2367
(dp2368
g3
S'ODESZA'
p2369
sg5
I3
sg6
S'https://open.spotify.com/track/7avUYFehb1GscgCncPdBDK'
p2370
sg8
S'Sun Models'
p2371
ssS'5hslUAKq9I9CG2bAulFkHN'
p2372
(dp2373
g3
S'Andy Williams'
p2374
sg5
I1
sg6
S'https://open.spotify.com/track/5hslUAKq9I9CG2bAulFkHN'
p2375
sg8
S"It's the Most Wonderful Time of the Year"
p2376
ssS'2nLtzopw4rPReszdYBJU6h'
p2377
(dp2378
g3
S'Linkin Park'
p2379
sg5
I3
sg6
S'https://open.spotify.com/track/2nLtzopw4rPReszdYBJU6h'
p2380
sg8
S'Numb'
p2381
ssS'2PpruBYCo4H7WOBJ7Q2EwM'
p2382
(dp2383
g3
S'OutKast'
p2384
sg5
I17
sg6
S'https://open.spotify.com/track/2PpruBYCo4H7WOBJ7Q2EwM'
p2385
sg8
S'Hey Ya! - Radio Mix / Club Mix'
p2386
ssS'3a1lNhkSLSkpJE4MSHpDu9'
p2387
(dp2388
g3
S'Post Malone'
p2389
sg5
I35
sg6
S'https://open.spotify.com/track/3a1lNhkSLSkpJE4MSHpDu9'
p2390
sg8
S'Congratulations'
p2391
ssS'61WbtB6ujkpNAsAf5LjF4b'
p2392
(dp2393
g3
S'Katy Perry'
p2394
sg5
I8
sg6
S'https://open.spotify.com/track/61WbtB6ujkpNAsAf5LjF4b'
p2395
sg8
S'Bon app\xc3\xa9tit'
p2396
ssS'0dyiHoYbYjYaOEXLpmzQZG'
p2397
(dp2398
g3
S'Lorde'
p2399
sg5
I4
sg6
S'https://open.spotify.com/track/0dyiHoYbYjYaOEXLpmzQZG'
p2400
sg8
S'Supercut'
p2401
ssS'6yr8GiTHWvFfi4o6Q5ebdT'
p2402
(dp2403
g3
S'Eminem'
p2404
sg5
I14
sg6
S'https://open.spotify.com/track/6yr8GiTHWvFfi4o6Q5ebdT'
p2405
sg8
S"'Till I Collapse"
p2406
ssS'6wV12xIUb8oFY7lBy4KuQe'
p2407
(dp2408
g3
S'Aaron Carter'
p2409
sg5
I5
sg6
S'https://open.spotify.com/track/6wV12xIUb8oFY7lBy4KuQe'
p2410
sg8
S'Sooner Or Later'
p2411
ssS'2fkeWbM6iqTw7oGHTYm2lw'
p2412
(dp2413
g3
S'Drake'
p2414
sg5
I4
sg6
S'https://open.spotify.com/track/2fkeWbM6iqTw7oGHTYm2lw'
p2415
sg8
S'4422'
p2416
ssS'0ofbQMrRDsUaVKq2mGLEAb'
p2417
(dp2418
g3
S'Camila Cabello'
p2419
sg5
I9
sg6
S'https://open.spotify.com/track/0ofbQMrRDsUaVKq2mGLEAb'
p2420
sg8
S'Havana'
p2421
ssS'6I6NX6tjGsxFAsIfGzY9lJ'
p2422
(dp2423
g3
S'J. Cole'
p2424
sg5
I18
sg6
S'https://open.spotify.com/track/6I6NX6tjGsxFAsIfGzY9lJ'
p2425
sg8
S'Deja Vu'
p2426
ssS'6bLopGnirdrilrpdVB6Um1'
p2427
(dp2428
g3
S'Sia'
p2429
sg5
I3
sg6
S'https://open.spotify.com/track/6bLopGnirdrilrpdVB6Um1'
p2430
sg8
S'The Greatest'
p2431
ssS'6rKmnzp0nUpHvjLK7FXSnP'
p2432
(dp2433
g3
S'Golden Features'
p2434
sg5
I10
sg6
S'https://open.spotify.com/track/6rKmnzp0nUpHvjLK7FXSnP'
p2435
sg8
S'Wolfie (feat. Julia Stone)'
p2436
ssS'7iDa6hUg2VgEL1o1HjmfBn'
p2437
(dp2438
g3
S'Bebe Rexha'
p2439
sg5
I4
sg6
S'https://open.spotify.com/track/7iDa6hUg2VgEL1o1HjmfBn'
p2440
sg8
S'Meant to Be (feat. Florida Georgia Line)'
p2441
ssS'0kmrXYtFI8cgxsShrJpThx'
p2442
(dp2443
g3
S'Michael Bubl\xc3\xa9'
p2444
sg5
I1
sg6
S'https://open.spotify.com/track/0kmrXYtFI8cgxsShrJpThx'
p2445
sg8
S'Mis Deseos/Feliz Navidad (Duet With Thalia)'
p2446
ssS'1Ba0ucfKPaRzS3AKvX3X3r'
p2447
(dp2448
g3
S"Cosmo's Midnight"
p2449
sg5
I6
sg6
S'https://open.spotify.com/track/1Ba0ucfKPaRzS3AKvX3X3r'
p2450
sg8
S'History'
p2451
ssS'4WrS6vezaPwOafKJmHqMEU'
p2452
(dp2453
g3
S'Jax Jones'
p2454
sg5
I1
sg6
S'https://open.spotify.com/track/4WrS6vezaPwOafKJmHqMEU'
p2455
sg8
S"You Don't Know Me - Radio Edit"
p2456
ssS'57BrRMwf9LrcmuOsyGilwr'
p2457
(dp2458
g3
S'Linkin Park'
p2459
sg5
I1
sg6
S'https://open.spotify.com/track/57BrRMwf9LrcmuOsyGilwr'
p2460
sg8
S'Crawling'
p2461
ssS'6c7D34787LOtPm8tzhsLgH'
p2462
(dp2463
g3
S'Yo Gotti'
p2464
sg5
I4
sg6
S'https://open.spotify.com/track/6c7D34787LOtPm8tzhsLgH'
p2465
sg8
S'Rake It Up'
p2466
ssS'0afhq8XCExXpqazXczTSve'
p2467
(dp2468
g3
S'Ed Sheeran'
p2469
sg5
I32
sg6
S'https://open.spotify.com/track/0afhq8XCExXpqazXczTSve'
p2470
sg8
S'Galway Girl'
p2471
ssS'2ZE3DJuizYTad2S4CvRRhK'
p2472
(dp2473
g3
S'Lauv'
p2474
sg5
I1
sg6
S'https://open.spotify.com/track/2ZE3DJuizYTad2S4CvRRhK'
p2475
sg8
S'Easy Love'
p2476
ssS'09OojFvtrM9YRzRjnXqJjA'
p2477
(dp2478
g3
S'Brenda Lee'
p2479
sg5
I1
sg6
S'https://open.spotify.com/track/09OojFvtrM9YRzRjnXqJjA'
p2480
sg8
S"Rockin' Around The Christmas Tree - Rerecorded Version"
p2481
ssS'1NDxZ7cFAo481dtYWdrUnR'
p2482
(dp2483
g3
S'Maggie Lindemann'
p2484
sg5
I27
sg6
S'https://open.spotify.com/track/1NDxZ7cFAo481dtYWdrUnR'
p2485
sg8
S'Pretty Girl - Cheat Codes X CADE Remix'
p2486
ssS'2aFiaMXmWsM3Vj72F9ksBl'
p2487
(dp2488
g3
S'DNCE'
p2489
sg5
I14
sg6
S'https://open.spotify.com/track/2aFiaMXmWsM3Vj72F9ksBl'
p2490
sg8
S'Cake By The Ocean'
p2491
ssS'152lZdxL1OR0ZMW6KquMif'
p2492
(dp2493
g3
S'Khalid'
p2494
sg5
I31
sg6
S'https://open.spotify.com/track/152lZdxL1OR0ZMW6KquMif'
p2495
sg8
S'Location'
p2496
ssS'2dOTkLZFbpNXrhc24CnTFd'
p2497
(dp2498
g3
S'David Guetta'
p2499
sg5
I12
sg6
S'https://open.spotify.com/track/2dOTkLZFbpNXrhc24CnTFd'
p2500
sg8
S'Titanium (feat. Sia) - feat. Sia'
p2501
ssS'2LY0DjFGGF0JQugFzWSGpi'
p2502
(dp2503
g3
S'Angus & Julia Stone'
p2504
sg5
I1
sg6
S'https://open.spotify.com/track/2LY0DjFGGF0JQugFzWSGpi'
p2505
sg8
S'Chateau'
p2506
ssS'4TZy1wLyHec06pwgFYDh1a'
p2507
(dp2508
g3
S'Shawn Mendes'
p2509
sg5
I39
sg6
S'https://open.spotify.com/track/4TZy1wLyHec06pwgFYDh1a'
p2510
sg8
S'Mercy'
p2511
ssS'7mTgsbq7n8jgnwLswpgugB'
p2512
(dp2513
g3
S'The Veronicas'
p2514
sg5
I6
sg6
S'https://open.spotify.com/track/7mTgsbq7n8jgnwLswpgugB'
p2515
sg8
S'On Your Side'
p2516
ssS'3RXkboS74UYzN14xTqzPyY'
p2517
(dp2518
g3
g1257
sg5
I1
sg6
S'https://open.spotify.com/track/3RXkboS74UYzN14xTqzPyY'
p2519
sg8
g1257
ssS'4Q3N4Ct4zCuIHuZ65E3BD4'
p2520
(dp2521
g3
S'Kodak Black'
p2522
sg5
I18
sg6
S'https://open.spotify.com/track/4Q3N4Ct4zCuIHuZ65E3BD4'
p2523
sg8
S'Tunnel Vision'
p2524
ssS'20H2Hd5AkUcRjB4yL3UQtJ'
p2525
(dp2526
g3
S'Fifth Harmony'
p2527
sg5
I3
sg6
S'https://open.spotify.com/track/20H2Hd5AkUcRjB4yL3UQtJ'
p2528
sg8
S'Down'
p2529
ssS'4ntsD33Pgsgk8rUyZLLiUV'
p2530
(dp2531
g3
S'Joey Bada$$'
p2532
sg5
I1
sg6
S'https://open.spotify.com/track/4ntsD33Pgsgk8rUyZLLiUV'
p2533
sg8
S'DEVASTATED'
p2534
ssS'2fKEunM0KZVpVLwlvmVlDZ'
p2535
(dp2536
g3
S'Vallis Alps'
p2537
sg5
I27
sg6
S'https://open.spotify.com/track/2fKEunM0KZVpVLwlvmVlDZ'
p2538
sg8
S'Fading'
p2539
ssS'0HEmnAUT8PHznIAAmVXqFJ'
p2540
(dp2541
g3
S'George Michael'
p2542
sg5
I1
sg6
S'https://open.spotify.com/track/0HEmnAUT8PHznIAAmVXqFJ'
p2543
sg8
S'Faith - Remastered'
p2544
ssS'1FUViuNSldssMIawrOXF2i'
p2545
(dp2546
g3
S'Bebe Rexha'
p2547
sg5
I22
sg6
S'https://open.spotify.com/track/1FUViuNSldssMIawrOXF2i'
p2548
sg8
S'I Got You'
p2549
ssS'3xKsf9qdS1CyvXSMEid6g8'
p2550
(dp2551
g3
S'Frank Ocean'
p2552
sg5
I1
sg6
S'https://open.spotify.com/track/3xKsf9qdS1CyvXSMEid6g8'
p2553
sg8
S'Pink + White'
p2554
ssS'3cNjgVBKTJ1SvKhunrCdVy'
p2555
(dp2556
g3
S'Joel Adams'
p2557
sg5
I5
sg6
S'https://open.spotify.com/track/3cNjgVBKTJ1SvKhunrCdVy'
p2558
sg8
S"Please Don't Go"
p2559
ssS'6iZTQ7OJ0B4Z4Lij5o7Ub0'
p2560
(dp2561
g3
S'Tove Styrke'
p2562
sg5
I1
sg6
S'https://open.spotify.com/track/6iZTQ7OJ0B4Z4Lij5o7Ub0'
p2563
sg8
S'Say My Name'
p2564
ssS'4Q4jmPHwu0wrJvqrld0FQ6'
p2565
(dp2566
g3
S'Zara Larsson'
p2567
sg5
I19
sg6
S'https://open.spotify.com/track/4Q4jmPHwu0wrJvqrld0FQ6'
p2568
sg8
S'I Would Like'
p2569
ssS'6KjbNLbRjuoa8rEq5yNA6H'
p2570
(dp2571
g3
S'The Chainsmokers'
p2572
sg5
I5
sg6
S'https://open.spotify.com/track/6KjbNLbRjuoa8rEq5yNA6H'
p2573
sg8
S'Honest'
p2574
ssS'5xlS0QkVrSH7ssEbBgBzbM'
p2575
(dp2576
g3
S'The Beach Boys'
p2577
sg5
I1
sg6
S'https://open.spotify.com/track/5xlS0QkVrSH7ssEbBgBzbM'
p2578
sg8
S'Little Saint Nick'
p2579
ssS'7yyRTcZmCiyzzJlNzGC9Ol'
p2580
(dp2581
g3
S'DRAM'
p2582
sg5
I25
sg6
S'https://open.spotify.com/track/7yyRTcZmCiyzzJlNzGC9Ol'
p2583
sg8
S'Broccoli (feat. Lil Yachty)'
p2584
ssS'2CvOqDpQIMw69cCzWqr5yr'
p2585
(dp2586
g3
S'Beyonc\xc3\xa9'
p2587
sg5
I1
sg6
S'https://open.spotify.com/track/2CvOqDpQIMw69cCzWqr5yr'
p2588
sg8
S'Halo'
p2589
ssS'4ricyQVd20UQde1jpXCSuJ'
p2590
(dp2591
g3
S'Tony Bennett'
p2592
sg5
I1
sg6
S'https://open.spotify.com/track/4ricyQVd20UQde1jpXCSuJ'
p2593
sg8
S'Winter Wonderland'
p2594
ssS'2771LMNxwf62FTAdpJMQfM'
p2595
(dp2596
g3
S'Cardi B'
p2597
sg5
I8
sg6
S'https://open.spotify.com/track/2771LMNxwf62FTAdpJMQfM'
p2598
sg8
S'Bodak Yellow'
p2599
ssS'498PZGXoeApGrJ32NmeGbG'
p2600
(dp2601
g3
S'Angus & Julia Stone'
p2602
sg5
I1
sg6
S'https://open.spotify.com/track/498PZGXoeApGrJ32NmeGbG'
p2603
sg8
S'Chateau'
p2604
ssS'6PCUP3dWmTjcTtXY02oFdT'
p2605
(dp2606
g3
S'Ed Sheeran'
p2607
sg5
I40
sg6
S'https://open.spotify.com/track/6PCUP3dWmTjcTtXY02oFdT'
p2608
sg8
S'Castle on the Hill'
p2609
ssS'31MkGwj0SWgZaTvEt5Hgxv'
p2610
(dp2611
g3
S'P!nk'
p2612
sg5
I9
sg6
S'https://open.spotify.com/track/31MkGwj0SWgZaTvEt5Hgxv'
p2613
sg8
S'What About Us'
p2614
ssS'5LABCxgmP7DATATIJXOh6n'
p2615
(dp2616
g3
S'Harry Styles'
p2617
sg5
I2
sg6
S'https://open.spotify.com/track/5LABCxgmP7DATATIJXOh6n'
p2618
sg8
S'Ever Since New York'
p2619
ssS'5pvVAwQbuFoR7LkcicrKnk'
p2620
(dp2621
g3
S'Vice'
p2622
sg5
I4
sg6
S'https://open.spotify.com/track/5pvVAwQbuFoR7LkcicrKnk'
p2623
sg8
S'Obsession (feat. Jon Bellion)'
p2624
ssS'104buTcnP2AsxqB7U1FIZ4'
p2625
(dp2626
g3
S'Linkin Park'
p2627
sg5
I5
sg6
S'https://open.spotify.com/track/104buTcnP2AsxqB7U1FIZ4'
p2628
sg8
S'Heavy (feat. Kiiara)'
p2629
ssS'1LPGwuFgIzbJoShfDdw7MY'
p2630
(dp2631
g3
S'Glass Animals'
p2632
sg5
I2
sg6
S'https://open.spotify.com/track/1LPGwuFgIzbJoShfDdw7MY'
p2633
sg8
S'Youth'
p2634
ssS'70mIuBKGTPrWMwWq9D4F56'
p2635
(dp2636
g3
S'Ty Dolla $ign'
p2637
sg5
I1
sg6
S'https://open.spotify.com/track/70mIuBKGTPrWMwWq9D4F56'
p2638
sg8
S'Wavy (feat. Joe Moses)'
p2639
ssS'0CcQNd8CINkwQfe1RDtGV6'
p2640
(dp2641
g3
S'Imagine Dragons'
p2642
sg5
I33
sg6
S'https://open.spotify.com/track/0CcQNd8CINkwQfe1RDtGV6'
p2643
sg8
S'Believer'
p2644
ssS'650OeHTLxZAQmb4aEbGmaA'
p2645
(dp2646
g3
S'Linkin Park'
p2647
sg5
I1
sg6
S'https://open.spotify.com/track/650OeHTLxZAQmb4aEbGmaA'
p2648
sg8
S'Good Goodbye (feat. Pusha T and Stormzy)'
p2649
ssS'1PSBzsahR2AKwLJgx8ehBj'
p2650
(dp2651
g3
S'Machine Gun Kelly'
p2652
sg5
I16
sg6
S'https://open.spotify.com/track/1PSBzsahR2AKwLJgx8ehBj'
p2653
sg8
S'Bad Things (with Camila Cabello)'
p2654
ssS'6lFDB0BFDRV58qaQDX85jV'
p2655
(dp2656
g3
S'Lorde'
p2657
sg5
I1
sg6
S'https://open.spotify.com/track/6lFDB0BFDRV58qaQDX85jV'
p2658
sg8
S'Liability (Reprise)'
p2659
ssS'7KOlJ92bu51cltsD9KU5I7'
p2660
(dp2661
g3
S'Migos'
p2662
sg5
I5
sg6
S'https://open.spotify.com/track/7KOlJ92bu51cltsD9KU5I7'
p2663
sg8
S'T-Shirt'
p2664
ssS'0D8ZpOXVjapLXrjz5VfZSD'
p2665
(dp2666
g3
S'Sam Smith'
p2667
sg5
I1
sg6
S'https://open.spotify.com/track/0D8ZpOXVjapLXrjz5VfZSD'
p2668
sg8
S'Pray'
p2669
ssS'5fo4LbJ8lOaB54wcM5wPMv'
p2670
(dp2671
g3
S'Terror Jr'
p2672
sg5
I2
sg6
S'https://open.spotify.com/track/5fo4LbJ8lOaB54wcM5wPMv'
p2673
sg8
S'Come First'
p2674
ssS'3m660poUr1chesgkkjQM7P'
p2675
(dp2676
g3
S'Demi Lovato'
p2677
sg5
I2
sg6
S'https://open.spotify.com/track/3m660poUr1chesgkkjQM7P'
p2678
sg8
S'Sorry Not Sorry'
p2679
ssS'3SGWp9fJCzgK0WcpcKSQdy'
p2680
(dp2681
g3
S'Stanaj'
p2682
sg5
I18
sg6
S'https://open.spotify.com/track/3SGWp9fJCzgK0WcpcKSQdy'
p2683
sg8
S'Romantic - NOTD Remix'
p2684
ssS'7rPLZ8Krm6CZIbraFUlnWZ'
p2685
(dp2686
g3
S'Adele'
p2687
sg5
I1
sg6
S'https://open.spotify.com/track/7rPLZ8Krm6CZIbraFUlnWZ'
p2688
sg8
S'Make You Feel My Love'
p2689
ssS'1Vej0qeQ3ioKwpI6FUbRv1'
p2690
(dp2691
g3
S'Linkin Park'
p2692
sg5
I1
sg6
S'https://open.spotify.com/track/1Vej0qeQ3ioKwpI6FUbRv1'
p2693
sg8
S'Papercut'
p2694
ssS'4C5ewaZ05vyXM23jFJdwd4'
p2695
(dp2696
g3
S'Halsey'
p2697
sg5
I1
sg6
S'https://open.spotify.com/track/4C5ewaZ05vyXM23jFJdwd4'
p2698
sg8
S'Strangers'
p2699
ssS'3gfmFoJgmn9LiIj5mV8oSS'
p2700
(dp2701
g3
S'R3HAB'
p2702
sg5
I4
sg6
S'https://open.spotify.com/track/3gfmFoJgmn9LiIj5mV8oSS'
p2703
sg8
S"I Just Can't"
p2704
ssS'3ebXMykcMXOcLeJ9xZ17XH'
p2705
(dp2706
g3
S'Martin Garrix'
p2707
sg5
I37
sg6
S'https://open.spotify.com/track/3ebXMykcMXOcLeJ9xZ17XH'
p2708
sg8
S'Scared to Be Lonely'
p2709
ssS'7KwZNVEaqikRSBSpyhXK2j'
p2710
(dp2711
g3
S'The Notorious B.I.G.'
p2712
sg5
I1
sg6
S'https://open.spotify.com/track/7KwZNVEaqikRSBSpyhXK2j'
p2713
sg8
S'Hypnotize - 2014 Remastered Version'
p2714
ssS'6fujklziTHa8uoM5OQSfIo'
p2715
(dp2716
g3
S'Rae Sremmurd'
p2717
sg5
I25
sg6
S'https://open.spotify.com/track/6fujklziTHa8uoM5OQSfIo'
p2718
sg8
S'Black Beatles'
p2719
ssS'19WjVVgXjdKXfLXoaDPwTM'
p2720
(dp2721
g3
S'Taylor Swift'
p2722
sg5
I5
sg6
S'https://open.spotify.com/track/19WjVVgXjdKXfLXoaDPwTM'
p2723
sg8
S'...Ready For It?'
p2724
ssS'6UjfByV1lDLW0SOVQA4NAi'
p2725
(dp2726
g3
S'Drake'
p2727
sg5
I14
sg6
S'https://open.spotify.com/track/6UjfByV1lDLW0SOVQA4NAi'
p2728
sg8
S'Gyalchester'
p2729
ssS'7floNISpH8VF4z4459Qo18'
p2730
(dp2731
g3
S'XXXTENTACION'
p2732
sg5
I2
sg6
S'https://open.spotify.com/track/7floNISpH8VF4z4459Qo18'
p2733
sg8
S'Look At Me!'
p2734
ssS'0XUfyU2QviPAs6bxSpXYG4'
p2735
(dp2736
g3
S'Usher'
p2737
sg5
I1
sg6
S'https://open.spotify.com/track/0XUfyU2QviPAs6bxSpXYG4'
p2738
sg8
S'Yeah!'
p2739
ssS'3cO4ZL8NcUU7i5o4k12tAS'
p2740
(dp2741
g3
S'Vera Blue'
p2742
sg5
I3
sg6
S'https://open.spotify.com/track/3cO4ZL8NcUU7i5o4k12tAS'
p2743
sg8
S'Mended'
p2744
ssS'6CfrYuD3YRDYdYvH9jNtXY'
p2745
(dp2746
g3
S'Drake'
p2747
sg5
I4
sg6
S'https://open.spotify.com/track/6CfrYuD3YRDYdYvH9jNtXY'
p2748
sg8
S'No Long Talk'
p2749
ssS'1Wuwsq0BK4Abd7gRitOhXl'
p2750
(dp2751
g3
S'Diplo'
p2752
sg5
I9
sg6
S'https://open.spotify.com/track/1Wuwsq0BK4Abd7gRitOhXl'
p2753
sg8
S'Be Right There'
p2754
ssS'6MdqqkQ8sSC0WB4i8PyRuQ'
p2755
(dp2756
g3
S'Blackstreet'
p2757
sg5
I1
sg6
S'https://open.spotify.com/track/6MdqqkQ8sSC0WB4i8PyRuQ'
p2758
sg8
S'No Diggity'
p2759
ssS'4aiLpwwZw5Ek9KkBMnt6Zu'
p2760
(dp2761
g3
S'Naughty Boy'
p2762
sg5
I18
sg6
S'https://open.spotify.com/track/4aiLpwwZw5Ek9KkBMnt6Zu'
p2763
sg8
S"Should've Been Me"
p2764
ssS'7aiVBCp1ibIWE5GeHkbtxr'
p2765
(dp2766
g3
S'Britney Spears'
p2767
sg5
I1
sg6
S'https://open.spotify.com/track/7aiVBCp1ibIWE5GeHkbtxr'
p2768
sg8
S'My Only Wish (This Year)'
p2769
ssS'0UeYCHOETPfai02uskjJ3x'
p2770
(dp2771
g3
S'Bag Raiders'
p2772
sg5
I16
sg6
S'https://open.spotify.com/track/0UeYCHOETPfai02uskjJ3x'
p2773
sg8
S'Shooting Stars'
p2774
ssS'0B8B8cVRFIG1yznoQe7c9s'
p2775
(dp2776
g3
S'The Chainsmokers'
p2777
sg5
I8
sg6
S'https://open.spotify.com/track/0B8B8cVRFIG1yznoQe7c9s'
p2778
sg8
S'Setting Fires'
p2779
ssS'02WacdrRpm4zlP8H7X6bnQ'
p2780
(dp2781
g3
S'Calum Scott'
p2782
sg5
I27
sg6
S'https://open.spotify.com/track/02WacdrRpm4zlP8H7X6bnQ'
p2783
sg8
S'Dancing On My Own'
p2784
ssS'1mDGDb2fUmUMdqV3tb8VKQ'
p2785
(dp2786
g3
S'Halsey'
p2787
sg5
I1
sg6
S'https://open.spotify.com/track/1mDGDb2fUmUMdqV3tb8VKQ'
p2788
sg8
S'Now Or Never'
p2789
ssS'0Ws8D3EWUDgY962Xftb0h5'
p2790
(dp2791
g3
S'Calvin Harris'
p2792
sg5
I1
sg6
S'https://open.spotify.com/track/0Ws8D3EWUDgY962Xftb0h5'
p2793
sg8
S'Cash Out'
p2794
ssS'2WQn7Yvs728KZmmY6tgWqH'
p2795
(dp2796
g3
S'Halsey'
p2797
sg5
I1
sg6
S'https://open.spotify.com/track/2WQn7Yvs728KZmmY6tgWqH'
p2798
sg8
S'Eyes Closed'
p2799
ssS'6DNtNfH8hXkqOX1sjqmI7p'
p2800
(dp2801
g3
S'Major Lazer'
p2802
sg5
I42
sg6
S'https://open.spotify.com/track/6DNtNfH8hXkqOX1sjqmI7p'
p2803
sg8
S'Cold Water (feat. Justin Bieber & M\xc3\x98)'
p2804
ssS'42NpUvd0I2kdIuMXX4nobE'
p2805
(dp2806
g3
S'Nick Jonas'
p2807
sg5
I1
sg6
S'https://open.spotify.com/track/42NpUvd0I2kdIuMXX4nobE'
p2808
sg8
S'Remember I Told You'
p2809
ssS'0K7Dd9DP6fvOl0mrlX0aUa'
p2810
(dp2811
g3
S'Galantis'
p2812
sg5
I3
sg6
S'https://open.spotify.com/track/0K7Dd9DP6fvOl0mrlX0aUa'
p2813
sg8
S'Rich Boy'
p2814
ssS'4iYRa2btalAzPZoSYfROqF'
p2815
(dp2816
g3
S'Kendrick Lamar'
p2817
sg5
I6
sg6
S'https://open.spotify.com/track/4iYRa2btalAzPZoSYfROqF'
p2818
sg8
S'XXX. FEAT. U2.'
p2819
ssS'6OZh916QF8XNunWaP97WEZ'
p2820
(dp2821
g3
S'Jonas Blue'
p2822
sg5
I31
sg6
S'https://open.spotify.com/track/6OZh916QF8XNunWaP97WEZ'
p2823
sg8
S'Fast Car'
p2824
ssS'2rizacJSyD9S1IQUxUxnsK'
p2825
(dp2826
g3
S'The Chainsmokers'
p2827
sg5
I17
sg6
S'https://open.spotify.com/track/2rizacJSyD9S1IQUxUxnsK'
p2828
sg8
S'All We Know'
p2829
ssS'2yZax79pOrYuyIFVW2cZY2'
p2830
(dp2831
g3
S'XXXTENTACION'
p2832
sg5
I4
sg6
S'https://open.spotify.com/track/2yZax79pOrYuyIFVW2cZY2'
p2833
sg8
S'Carry On'
p2834
ssS'6RsWqX8zABZLhZydXxEFOm'
p2835
(dp2836
g3
S'The Weeknd'
p2837
sg5
I5
sg6
S'https://open.spotify.com/track/6RsWqX8zABZLhZydXxEFOm'
p2838
sg8
S"Can't Feel My Face"
p2839
ssS'79NlESqzFSW0hdBWgls4FX'
p2840
(dp2841
g3
S'Kesha'
p2842
sg5
I5
sg6
S'https://open.spotify.com/track/79NlESqzFSW0hdBWgls4FX'
p2843
sg8
S'Praying'
p2844
ssS'0tgVpDi06FyKpA1z0VMD4v'
p2845
(dp2846
g3
S'Ed Sheeran'
p2847
sg5
I32
sg6
S'https://open.spotify.com/track/0tgVpDi06FyKpA1z0VMD4v'
p2848
sg8
S'Perfect'
p2849
ssS'6cAKeFFYW2aClZSUyvqAEW'
p2850
(dp2851
g3
S'Isaiah'
p2852
sg5
I40
sg6
S'https://open.spotify.com/track/6cAKeFFYW2aClZSUyvqAEW'
p2853
sg8
S"It's Gotta Be You"
p2854
ssS'26hcyzSE154xMZCbFdtInA'
p2855
(dp2856
g3
S'KREAM'
p2857
sg5
I1
sg6
S'https://open.spotify.com/track/26hcyzSE154xMZCbFdtInA'
p2858
sg8
S'Taped Up Heart (feat. Clara Mae)'
p2859
ssS'34i4yxPrHWquuR4kjiivFO'
p2860
(dp2861
g3
S'V\xc3\x89RIT\xc3\x89'
p2862
sg5
I6
sg6
S'https://open.spotify.com/track/34i4yxPrHWquuR4kjiivFO'
p2863
sg8
S'Somebody Else'
p2864
ssS'0t2myRMEMCi2SRyg5TEFLp'
p2865
(dp2866
g3
S'Mura Masa'
p2867
sg5
I1
sg6
S'https://open.spotify.com/track/0t2myRMEMCi2SRyg5TEFLp'
p2868
sg8
S'Love$ick'
p2869
ssS'2XMTqoHHSH0lvuXrvIEdco'
p2870
(dp2871
g3
S'FRENSHIP'
p2872
sg5
I42
sg6
S'https://open.spotify.com/track/2XMTqoHHSH0lvuXrvIEdco'
p2873
sg8
S'Capsize'
p2874
ssS'2wDjpPW3HZdA9quPPmZAMu'
p2875
(dp2876
g3
S'Cashmere Cat'
p2877
sg5
I10
sg6
S'https://open.spotify.com/track/2wDjpPW3HZdA9quPPmZAMu'
p2878
sg8
S'Trust Nobody (feat. Selena Gomez & Tory Lanez)'
p2879
ssS'6Fha6tXHkL3r9m9nNqQG8p'
p2880
(dp2881
g3
S'Vance Joy'
p2882
sg5
I38
sg6
S'https://open.spotify.com/track/6Fha6tXHkL3r9m9nNqQG8p'
p2883
sg8
S'Georgia'
p2884
ssS'1hvpDAxZPKjKztOc72sv06'
p2885
(dp2886
g3
S'Band Aid'
p2887
sg5
I1
sg6
S'https://open.spotify.com/track/1hvpDAxZPKjKztOc72sv06'
p2888
sg8
S"Do They Know It's Christmas? - 1984 Version"
p2889
ssS'72Q0FQQo32KJloivv5xge2'
p2890
(dp2891
g3
S'DJ Khaled'
p2892
sg5
I3
sg6
S'https://open.spotify.com/track/72Q0FQQo32KJloivv5xge2'
p2893
sg8
S"I'm the One"
p2894
ssS'0hNduWmlWmEmuwEFcYvRu1'
p2895
(dp2896
g3
S'Petit Biscuit'
p2897
sg5
I36
sg6
S'https://open.spotify.com/track/0hNduWmlWmEmuwEFcYvRu1'
p2898
sg8
S'Sunset Lover'
p2899
ssS'1x5sYLZiu9r5E43kMlt9f8'
p2900
(dp2901
g3
S'Clean Bandit'
p2902
sg5
I30
sg6
S'https://open.spotify.com/track/1x5sYLZiu9r5E43kMlt9f8'
p2903
sg8
S'Symphony (feat. Zara Larsson)'
p2904
ssS'2rb5MvYT7ZIxbKW5hfcHx8'
p2905
(dp2906
g3
S'J Balvin'
p2907
sg5
I14
sg6
S'https://open.spotify.com/track/2rb5MvYT7ZIxbKW5hfcHx8'
p2908
sg8
S'Mi Gente'
p2909
ssS'0lvXfUug5YmOHOyHgXufqF'
p2910
(dp2911
g3
S'Peking Duk'
p2912
sg5
I19
sg6
S'https://open.spotify.com/track/0lvXfUug5YmOHOyHgXufqF'
p2913
sg8
S'Fake Magic'
p2914
ssS'5SE57ljOIUJ1ybL9U6CuBH'
p2915
(dp2916
g3
S'BTS'
p2917
sg5
I4
sg6
S'https://open.spotify.com/track/5SE57ljOIUJ1ybL9U6CuBH'
p2918
sg8
S'DNA'
p2919
ssS'3bVbQvGVIe4n24AzyXovXh'
p2920
(dp2921
g3
g1257
sg5
I1
sg6
S'https://open.spotify.com/track/3bVbQvGVIe4n24AzyXovXh'
p2922
sg8
g1257
ssS'6SwRhMLwNqEi6alNPVG00n'
p2923
(dp2924
g3
S'Kendrick Lamar'
p2925
sg5
I26
sg6
S'https://open.spotify.com/track/6SwRhMLwNqEi6alNPVG00n'
p2926
sg8
S'LOYALTY. FEAT. RIHANNA.'
p2927
ssS'2HzfRSfCogBSsgW2CckVA2'
p2928
(dp2929
g3
S'Luke Christopher'
p2930
sg5
I1
sg6
S'https://open.spotify.com/track/2HzfRSfCogBSsgW2CckVA2'
p2931
sg8
S'Lot to Learn'
p2932
ssS'439TlnnznSiBbQbgXiBqAd'
p2933
(dp2934
g3
S'Kendrick Lamar'
p2935
sg5
I3
sg6
S'https://open.spotify.com/track/439TlnnznSiBbQbgXiBqAd'
p2936
sg8
S'm.A.A.d city'
p2937
ssS'6mb6lVLNrcUgLnEN8QnDJd'
p2938
(dp2939
g3
S"Auli'i Cravalho"
p2940
sg5
I7
sg6
S'https://open.spotify.com/track/6mb6lVLNrcUgLnEN8QnDJd'
p2941
sg8
S"How Far I'll Go"
p2942
ssS'7F1LWA9sIlTorHUo4amGqk'
p2943
(dp2944
g3
S'The Weeknd'
p2945
sg5
I1
sg6
S'https://open.spotify.com/track/7F1LWA9sIlTorHUo4amGqk'
p2946
sg8
S'Reminder - Remix'
p2947
ssS'0tKcYR2II1VCQWT79i5NrW'
p2948
(dp2949
g3
S'Imagine Dragons'
p2950
sg5
I21
sg6
S'https://open.spotify.com/track/0tKcYR2II1VCQWT79i5NrW'
p2951
sg8
S'Thunder'
p2952
ssS'7H6ev70Weq6DdpZyyTmUXk'
p2953
(dp2954
g3
S"Destiny's Child"
p2955
sg5
I2
sg6
S'https://open.spotify.com/track/7H6ev70Weq6DdpZyyTmUXk'
p2956
sg8
S'Say My Name'
p2957
ssS'5NNlUMcOEOdoOIwwaWXv0k'
p2958
(dp2959
g3
S'Maroon 5'
p2960
sg5
I19
sg6
S'https://open.spotify.com/track/5NNlUMcOEOdoOIwwaWXv0k'
p2961
sg8
S'Cold'
p2962
ssS'5XQMr19TL7Mfksq9zihbOu'
p2963
(dp2964
g3
S'Chris Brown'
p2965
sg5
I8
sg6
S'https://open.spotify.com/track/5XQMr19TL7Mfksq9zihbOu'
p2966
sg8
S'Questions'
p2967
ssS'1sXUWdKx03aP9Gmzft58rt'
p2968
(dp2969
g3
S'Julia Michaels'
p2970
sg5
I27
sg6
S'https://open.spotify.com/track/1sXUWdKx03aP9Gmzft58rt'
p2971
sg8
S'Issues'
p2972
ssS'1eq1wUnLVLg4pdEfx9kajC'
p2973
(dp2974
g3
S'Adele'
p2975
sg5
I3
sg6
S'https://open.spotify.com/track/1eq1wUnLVLg4pdEfx9kajC'
p2976
sg8
S'Rolling In The Deep'
p2977
ssS'3QiAAp20rPC3dcAtKtMaqQ'
p2978
(dp2979
g3
S'Elvis Presley'
p2980
sg5
I1
sg6
S'https://open.spotify.com/track/3QiAAp20rPC3dcAtKtMaqQ'
p2981
sg8
S'Blue Christmas'
p2982
ssS'7IWkJwX9C0J7tHurTD7ViL'
p2983
(dp2984
g3
S'Adele'
p2985
sg5
I4
sg6
S'https://open.spotify.com/track/7IWkJwX9C0J7tHurTD7ViL'
p2986
sg8
S'When We Were Young'
p2987
ssS'6vXHaWpqkbuvzIDvR3LnKd'
p2988
(dp2989
g3
S'Illy'
p2990
sg5
I25
sg6
S'https://open.spotify.com/track/6vXHaWpqkbuvzIDvR3LnKd'
p2991
sg8
S'Papercuts (feat. Vera Blue)'
p2992
ssS'1zayuwd1YLZsYDArkruHdL'
p2993
(dp2994
g3
S'Kendrick Lamar'
p2995
sg5
I4
sg6
S'https://open.spotify.com/track/1zayuwd1YLZsYDArkruHdL'
p2996
sg8
S'The Heart Part 4'
p2997
ssS'4L7Y2OAPiY2I2GndZjAs5K'
p2998
(dp2999
g3
S'Lana Del Rey'
p3000
sg5
I1
sg6
S'https://open.spotify.com/track/4L7Y2OAPiY2I2GndZjAs5K'
p3001
sg8
S'Lust For Life (with The Weeknd)'
p3002
ssS'14oOKFGuXu8DqvOe1W8vao'
p3003
(dp3004
g3
S'Katy Perry'
p3005
sg5
I2
sg6
S'https://open.spotify.com/track/14oOKFGuXu8DqvOe1W8vao'
p3006
sg8
S'Bon App\xc3\xa9tit'
p3007
ssS'4BHSjbYylfOH5WAGusDyni'
p3008
(dp3009
g3
S'Kendrick Lamar'
p3010
sg5
I5
sg6
S'https://open.spotify.com/track/4BHSjbYylfOH5WAGusDyni'
p3011
sg8
S'YAH.'
p3012
ssS'4uoumbAMEMaKdtiv763jKz'
p3013
(dp3014
g3
S'Zara Larsson'
p3015
sg5
I10
sg6
S'https://open.spotify.com/track/4uoumbAMEMaKdtiv763jKz'
p3016
sg8
S'TG4M'
p3017
ssS'7ygfhHBOf63eYK0WSEzOP9'
p3018
(dp3019
g3
S'Blackstreet'
p3020
sg5
I2
sg6
S'https://open.spotify.com/track/7ygfhHBOf63eYK0WSEzOP9'
p3021
sg8
S'No Diggity (feat. Dr. Dre)'
p3022
ssS'6WhzFzROw3aq3rPWjgYlxr'
p3023
(dp3024
g3
S'Kiiara'
p3025
sg5
I11
sg6
S'https://open.spotify.com/track/6WhzFzROw3aq3rPWjgYlxr'
p3026
sg8
S'Gold'
p3027
ssS'2ISl1zekPsc26sUQpVt8UB'
p3028
(dp3029
g3
S"Shakin' Stevens"
p3030
sg5
I1
sg6
S'https://open.spotify.com/track/2ISl1zekPsc26sUQpVt8UB'
p3031
sg8
S'Merry Christmas Everyone - Remastered'
p3032
ssS'2pJZ1v8HezrAoZ0Fhzby92'
p3033
(dp3034
g3
S'Ed Sheeran'
p3035
sg5
I20
sg6
S'https://open.spotify.com/track/2pJZ1v8HezrAoZ0Fhzby92'
p3036
sg8
S'What Do I Know?'
p3037
ssS'0KKkJNfGyhkQ5aFogxQAPU'
p3038
(dp3039
g3
S'Bruno Mars'
p3040
sg5
I40
sg6
S'https://open.spotify.com/track/0KKkJNfGyhkQ5aFogxQAPU'
p3041
sg8
S"That's What I Like"
p3042
ssS'7noz6lydFxH30fneHwKMvp'
p3043
(dp3044
g3
S'Billie Eilish'
p3045
sg5
I7
sg6
S'https://open.spotify.com/track/7noz6lydFxH30fneHwKMvp'
p3046
sg8
S'watch'
p3047
ssS'1Slwb6dOYkBlWal1PGtnNg'
p3048
(dp3049
g3
S'Ed Sheeran'
p3050
sg5
I42
sg6
S'https://open.spotify.com/track/1Slwb6dOYkBlWal1PGtnNg'
p3051
sg8
S'Thinking Out Loud'
p3052
ssS'2mNbgyi0gori4b1rFSPgIb'
p3053
(dp3054
g3
S'Lorde'
p3055
sg5
I5
sg6
S'https://open.spotify.com/track/2mNbgyi0gori4b1rFSPgIb'
p3056
sg8
S'Sober'
p3057
ssS'3zoYkqS4y2BsGVShPL2nTE'
p3058
(dp3059
g3
S'CNCO'
p3060
sg5
I7
sg6
S'https://open.spotify.com/track/3zoYkqS4y2BsGVShPL2nTE'
p3061
sg8
S'Reggaet\xc3\xb3n Lento (Remix) [CNCO & Little Mix]'
p3062
ssS'4r0GVpjSsKSR1biv4fOoa5'
p3063
(dp3064
g3
S'Childish Gambino'
p3065
sg5
I1
sg6
S'https://open.spotify.com/track/4r0GVpjSsKSR1biv4fOoa5'
p3066
sg8
S'Me and Your Mama'
p3067
ssS'2habSXqcJGExM6JJyskY7O'
p3068
(dp3069
g3
S'Miley Cyrus'
p3070
sg5
I20
sg6
S'https://open.spotify.com/track/2habSXqcJGExM6JJyskY7O'
p3071
sg8
S'Malibu'
p3072
ssS'5Ua3GXyHwiSfpNTMjq6m2z'
p3073
(dp3074
g3
S'Little Mix'
p3075
sg5
I30
sg6
S'https://open.spotify.com/track/5Ua3GXyHwiSfpNTMjq6m2z'
p3076
sg8
S'Touch'
p3077
ssS'6i0V12jOa3mr6uu4WYhUBr'
p3078
(dp3079
g3
S'Twenty One Pilots'
p3080
sg5
I18
sg6
S'https://open.spotify.com/track/6i0V12jOa3mr6uu4WYhUBr'
p3081
sg8
S'Heathens'
p3082
ssS'0d28khcov6AiegSCpG5TuT'
p3083
(dp3084
g3
S'Gorillaz'
p3085
sg5
I4
sg6
S'https://open.spotify.com/track/0d28khcov6AiegSCpG5TuT'
p3086
sg8
S'Feel Good Inc'
p3087
ssS'1HTtUBEY3tuw2btgwwI2Ja'
p3088
(dp3089
g3
S'Gucci Mane'
p3090
sg5
I3
sg6
S'https://open.spotify.com/track/1HTtUBEY3tuw2btgwwI2Ja'
p3091
sg8
S'I Get The Bag (feat. Migos)'
p3092
ssS'40UroIGvsMPLPBYwH8rMNA'
p3093
(dp3094
g3
S'Vice'
p3095
sg5
I4
sg6
S'https://open.spotify.com/track/40UroIGvsMPLPBYwH8rMNA'
p3096
sg8
S'Steady 1234 (feat. Jasmine Thompson & Skizzy Mars)'
p3097
ssS'5nA67Y0XX9JipZwYxX7Gl7'
p3098
(dp3099
g3
S'Niall Horan'
p3100
sg5
I10
sg6
S'https://open.spotify.com/track/5nA67Y0XX9JipZwYxX7Gl7'
p3101
sg8
S'This Town'
p3102
ssS'6oSmp7qnvAxUXeUKhl67a6'
p3103
(dp3104
g3
S'Hilltop Hoods'
p3105
sg5
I42
sg6
S'https://open.spotify.com/track/6oSmp7qnvAxUXeUKhl67a6'
p3106
sg8
S'1955'
p3107
ssS'0SuG9kyzGRpDqrCWtgD6Lq'
p3108
(dp3109
g3
S'Ed Sheeran'
p3110
sg5
I2
sg6
S'https://open.spotify.com/track/0SuG9kyzGRpDqrCWtgD6Lq'
p3111
sg8
S'Give Me Love'
p3112
ssS'4eQvrHRAG4WoGYFNe3pCLu'
p3113
(dp3114
g3
S'Darlene Love'
p3115
sg5
I1
sg6
S'https://open.spotify.com/track/4eQvrHRAG4WoGYFNe3pCLu'
p3116
sg8
S'All Alone on Christmas'
p3117
ssS'7wiESxCGoUkRdgZF2JOLZu'
p3118
(dp3119
g3
S'Phil Spector'
p3120
sg5
I1
sg6
S'https://open.spotify.com/track/7wiESxCGoUkRdgZF2JOLZu'
p3121
sg8
S'Sleigh Ride'
p3122
ssS'6fxVffaTuwjgEk5h9QyRjy'
p3123
(dp3124
g3
S'Ed Sheeran'
p3125
sg5
I41
sg6
S'https://open.spotify.com/track/6fxVffaTuwjgEk5h9QyRjy'
p3126
sg8
S'Photograph'
p3127
ssS'0w5Bdu51Ka25Pf3hojsKHh'
p3128
(dp3129
g3
S'Paramore'
p3130
sg5
I2
sg6
S'https://open.spotify.com/track/0w5Bdu51Ka25Pf3hojsKHh'
p3131
sg8
S'Hard Times'
p3132
ssS'1tp1xMJ1uaOktksskS0Fzs'
p3133
(dp3134
g3
S'Gucci Mane'
p3135
sg5
I1
sg6
S'https://open.spotify.com/track/1tp1xMJ1uaOktksskS0Fzs'
p3136
sg8
S'Curve (feat. The Weeknd)'
p3137
ssS'1VdZ0vKfR5jneCmWIUAMxK'
p3138
(dp3139
g3
S'Ed Sheeran'
p3140
sg5
I5
sg6
S'https://open.spotify.com/track/1VdZ0vKfR5jneCmWIUAMxK'
p3141
sg8
S'The A Team'
p3142
ssS'13e6f8t7RKXuxZ0JdaaJRG'
p3143
(dp3144
g3
S'Drake'
p3145
sg5
I3
sg6
S'https://open.spotify.com/track/13e6f8t7RKXuxZ0JdaaJRG'
p3146
sg8
S'Jorja Interlude'
p3147
ssS'6nxQdXa1uAL0rY72wPZu89'
p3148
(dp3149
g3
S'John Legend'
p3150
sg5
I11
sg6
S'https://open.spotify.com/track/6nxQdXa1uAL0rY72wPZu89'
p3151
sg8
S'Love Me Now'
p3152
ssS'6kex4EBAj0WHXDKZMEJaaF'
p3153
(dp3154
g3
S'Jason Derulo'
p3155
sg5
I33
sg6
S'https://open.spotify.com/track/6kex4EBAj0WHXDKZMEJaaF'
p3156
sg8
S'Swalla (feat. Nicki Minaj & Ty Dolla $ign)'
p3157
ssS'1lItf5ZXJc1by9SbPeljFd'
p3158
(dp3159
g3
S'Zay Hilfigerrr'
p3160
sg5
I5
sg6
S'https://open.spotify.com/track/1lItf5ZXJc1by9SbPeljFd'
p3161
sg8
S'Juju On That Beat (TZ Anthem)'
p3162
ssS'1zv2P1cwzIu997ujUYVxZA'
p3163
(dp3164
g3
S'The Killers'
p3165
sg5
I1
sg6
S'https://open.spotify.com/track/1zv2P1cwzIu997ujUYVxZA'
p3166
sg8
S'The Man'
p3167
ssS'7yq4Qj7cqayVTp3FF9CWbm'
p3168
(dp3169
g3
S'Vance Joy'
p3170
sg5
I42
sg6
S'https://open.spotify.com/track/7yq4Qj7cqayVTp3FF9CWbm'
p3171
sg8
S'Riptide'
p3172
ssS'54LGxQGf5LPXNGjtzDZ5IE'
p3173
(dp3174
g3
S'Zara Larsson'
p3175
sg5
I3
sg6
S'https://open.spotify.com/track/54LGxQGf5LPXNGjtzDZ5IE'
p3176
sg8
S'So Good'
p3177
ssS'08WPvDEsHvTFuB9w8tC2OS'
p3178
(dp3179
g3
S'Sage The Gemini'
p3180
sg5
I1
sg6
S'https://open.spotify.com/track/08WPvDEsHvTFuB9w8tC2OS'
p3181
sg8
S'Now and Later'
p3182
ssS'4ZJPwET9Jrgpkqi4Vo3Yg8'
p3183
(dp3184
g3
S'Bebe Rexha'
p3185
sg5
I6
sg6
S'https://open.spotify.com/track/4ZJPwET9Jrgpkqi4Vo3Yg8'
p3186
sg8
S'Bad Bitch (feat. Ty Dolla $ign)'
p3187
ssS'25avBnfLuGTtvibM18NX3Q'
p3188
(dp3189
g3
S'Angus & Julia Stone'
p3190
sg5
I2
sg6
S'https://open.spotify.com/track/25avBnfLuGTtvibM18NX3Q'
p3191
sg8
S'Snow'
p3192
ssS'1Dp7JGFNjvg8Nk0CtMCcnr'
p3193
(dp3194
g3
S'Lorde'
p3195
sg5
I2
sg6
S'https://open.spotify.com/track/1Dp7JGFNjvg8Nk0CtMCcnr'
p3196
sg8
S'Hard Feelings/Loveless'
p3197
ssS'0Fv5N0cHBsl4bzCbollCAS'
p3198
(dp3199
g3
S'Big Sean'
p3200
sg5
I4
sg6
S'https://open.spotify.com/track/0Fv5N0cHBsl4bzCbollCAS'
p3201
sg8
S'Moves'
p3202
ssS'7KXjTSCq5nL1LoYtL7XAwS'
p3203
(dp3204
g3
S'Kendrick Lamar'
p3205
sg5
I28
sg6
S'https://open.spotify.com/track/7KXjTSCq5nL1LoYtL7XAwS'
p3206
sg8
S'HUMBLE.'
p3207
ssS'6tjituizSxwSmBB5vtgHZE'
p3208
(dp3209
g3
S'Michael Bubl\xc3\xa9'
p3210
sg5
I1
sg6
S'https://open.spotify.com/track/6tjituizSxwSmBB5vtgHZE'
p3211
sg8
S'Holly Jolly Christmas'
p3212
ssS'2Ae5awwKvQpTBKQHr1TYCg'
p3213
(dp3214
g3
S'Nause'
p3215
sg5
I1
sg6
S'https://open.spotify.com/track/2Ae5awwKvQpTBKQHr1TYCg'
p3216
sg8
S'Dynamite (feat. Pretty Sister)'
p3217
ssS'1jYiIOC5d6soxkJP81fxq2'
p3218
(dp3219
g3
S'DJ Khaled'
p3220
sg5
I1
sg6
S'https://open.spotify.com/track/1jYiIOC5d6soxkJP81fxq2'
p3221
sg8
S"I'm the One"
p3222
ssS'6Na5uKk5SsqZimk0hAWo8y'
p3223
(dp3224
g3
S'Drake'
p3225
sg5
I2
sg6
S'https://open.spotify.com/track/6Na5uKk5SsqZimk0hAWo8y'
p3226
sg8
S'Signs'
p3227
ssS'2952fALz8E96WGTaVdsTsQ'
p3228
(dp3229
g3
S'Meg Mac'
p3230
sg5
I1
sg6
S'https://open.spotify.com/track/2952fALz8E96WGTaVdsTsQ'
p3231
sg8
S'Maybe It\xe2\x80\x99s My First Time'
p3232
ssS'74ODGXs4byLTRdnKGM4s6E'
p3233
(dp3234
g3
S'LANY'
p3235
sg5
I14
sg6
S'https://open.spotify.com/track/74ODGXs4byLTRdnKGM4s6E'
p3236
sg8
S'Super Far'
p3237
ssS'5wTM2Bm8phDwHAuOsfBwhU'
p3238
(dp3239
g3
S'Pretenders'
p3240
sg5
I1
sg6
S'https://open.spotify.com/track/5wTM2Bm8phDwHAuOsfBwhU'
p3241
sg8
S'2000 Miles - 2007 Remastered Version'
p3242
ssS'0n2bvWvMwr0gbjcuTm92eW'
p3243
(dp3244
g3
S'Lana Del Rey'
p3245
sg5
I4
sg6
S'https://open.spotify.com/track/0n2bvWvMwr0gbjcuTm92eW'
p3246
sg8
S'Love'
p3247
ssS'3AsAuGTaDQzavZZThyYlop'
p3248
(dp3249
g3
S'NEIKED'
p3250
sg5
I34
sg6
S'https://open.spotify.com/track/3AsAuGTaDQzavZZThyYlop'
p3251
sg8
S'Sexual'
p3252
ssS'3Lfiu5sZ4M4B6JaKMBc0FU'
p3253
(dp3254
g3
S'Ed Sheeran'
p3255
sg5
I20
sg6
S'https://open.spotify.com/track/3Lfiu5sZ4M4B6JaKMBc0FU'
p3256
sg8
S'Barcelona'
p3257
ssS'0xBsZrUrsZcCCrpxryZDHc'
p3258
(dp3259
g3
S'Lorde'
p3260
sg5
I2
sg6
S'https://open.spotify.com/track/0xBsZrUrsZcCCrpxryZDHc'
p3261
sg8
S'Liability'
p3262
ssS'33bURv895AN4FkBvgFo2dx'
p3263
(dp3264
g3
S'Harry Styles'
p3265
sg5
I2
sg6
S'https://open.spotify.com/track/33bURv895AN4FkBvgFo2dx'
p3266
sg8
S'Woman'
p3267
ssS'69bp2EbF7Q2rqc5N3ylezZ'
p3268
(dp3269
g3
S'Justin Bieber'
p3270
sg5
I39
sg6
S'https://open.spotify.com/track/69bp2EbF7Q2rqc5N3ylezZ'
p3271
sg8
S'Sorry'
p3272
ssS'6eL1ncVDtQHgSm3E288TS7'
p3273
(dp3274
g3
S'Vince Staples'
p3275
sg5
I4
sg6
S'https://open.spotify.com/track/6eL1ncVDtQHgSm3E288TS7'
p3276
sg8
S'Big Fish'
p3277
ssS'6eUncuJutsFi9BGO1JaBHh'
p3278
(dp3279
g3
S'Jason Derulo'
p3280
sg5
I6
sg6
S'https://open.spotify.com/track/6eUncuJutsFi9BGO1JaBHh'
p3281
sg8
S"If I'm Lucky"
p3282
ssS'0QFGt8iPvogACnuEH4Hmha'
p3283
(dp3284
g3
S'Client Liaison'
p3285
sg5
I1
sg6
S'https://open.spotify.com/track/0QFGt8iPvogACnuEH4Hmha'
p3286
sg8
S'World Of Our Love'
p3287
ssS'2dLLR6qlu5UJ5gk0dKz0h3'
p3288
(dp3289
g3
S'Lorde'
p3290
sg5
I1
sg6
S'https://open.spotify.com/track/2dLLR6qlu5UJ5gk0dKz0h3'
p3291
sg8
S'Royals'
p3292
ssS'2dqLk7ezV15LEJEwUmEbXB'
p3293
(dp3294
g3
S'Marian Hill'
p3295
sg5
I10
sg6
S'https://open.spotify.com/track/2dqLk7ezV15LEJEwUmEbXB'
p3296
sg8
S'Down'
p3297
ssS'7JzXmXuqPRJNClCdOAE1Ah'
p3298
(dp3299
g3
S'Nick Murphy'
p3300
sg5
I1
sg6
S'https://open.spotify.com/track/7JzXmXuqPRJNClCdOAE1Ah'
p3301
sg8
S'Your Time (feat. KAYTRANADA)'
p3302
ssS'4iLqG9SeJSnt0cSPICSjxv'
p3303
(dp3304
g3
S'Charlie Puth'
p3305
sg5
I25
sg6
S'https://open.spotify.com/track/4iLqG9SeJSnt0cSPICSjxv'
p3306
sg8
S'Attention'
p3307
ssS'2C0KFbb4v9CNWR5c9jWcKC'
p3308
(dp3309
g3
S'Gorillaz'
p3310
sg5
I1
sg6
S'https://open.spotify.com/track/2C0KFbb4v9CNWR5c9jWcKC'
p3311
sg8
S'Andromeda (feat. DRAM)'
p3312
ssS'6RUKPb4LETWmmr3iAEQktW'
p3313
(dp3314
g3
S'The Chainsmokers'
p3315
sg5
I34
sg6
S'https://open.spotify.com/track/6RUKPb4LETWmmr3iAEQktW'
p3316
sg8
S'Something Just Like This'
p3317
ssS'3FQCJI2t5LTbsRPfYVBSVB'
p3318
(dp3319
g3
S'Linkin Park'
p3320
sg5
I1
sg6
S'https://open.spotify.com/track/3FQCJI2t5LTbsRPfYVBSVB'
p3321
sg8
S'Battle Symphony'
p3322
ssS'7M16mAuWuFA5rC9HvkXaGx'
p3323
(dp3324
g3
S'Jax Jones'
p3325
sg5
I5
sg6
S'https://open.spotify.com/track/7M16mAuWuFA5rC9HvkXaGx'
p3326
sg8
S"You Don't Know Me - Radio Edit"
p3327
ssS'0VhgEqMTNZwYL1ARDLLNCX'
p3328
(dp3329
g3
S'James Arthur'
p3330
sg5
I5
sg6
S'https://open.spotify.com/track/0VhgEqMTNZwYL1ARDLLNCX'
p3331
sg8
S'Can I Be Him'
p3332
ssS'2CPqh63wRVscbceKcPxwvv'
p3333
(dp3334
g3
S'Mike Perry'
p3335
sg5
I34
sg6
S'https://open.spotify.com/track/2CPqh63wRVscbceKcPxwvv'
p3336
sg8
S'The Ocean'
p3337
ssS'5JpvSu9jWCsHiOFGSJJH2u'
p3338
(dp3339
g3
S'Flume'
p3340
sg5
I1
sg6
S'https://open.spotify.com/track/5JpvSu9jWCsHiOFGSJJH2u'
p3341
sg8
S'Hyperreal'
p3342
ssS'5abwHwUhywLGNli5NDcEN7'
p3343
(dp3344
g3
S'Thomas Gold'
p3345
sg5
I4
sg6
S'https://open.spotify.com/track/5abwHwUhywLGNli5NDcEN7'
p3346
sg8
S'Magic'
p3347
ssS'3VTNVsTTu05dmTsVFrmGpK'
p3348
(dp3349
g3
S'The Pogues'
p3350
sg5
I1
sg6
S'https://open.spotify.com/track/3VTNVsTTu05dmTsVFrmGpK'
p3351
sg8
S'Fairytale of New York (feat. Kirsty MacColl)'
p3352
ssS'4vv1KjUzPwrtDbozizSfQc'
p3353
(dp3354
g3
S'DJ Khaled'
p3355
sg5
I1
sg6
S'https://open.spotify.com/track/4vv1KjUzPwrtDbozizSfQc'
p3356
sg8
S"Don't Quit"
p3357
ssS'1xznGGDReH1oQq0xzbwXa3'
p3358
(dp3359
g3
S'Drake'
p3360
sg5
I42
sg6
S'https://open.spotify.com/track/1xznGGDReH1oQq0xzbwXa3'
p3361
sg8
S'One Dance'
p3362
ssS'5GXAXm5YOmYT0kL5jHvYBt'
p3363
(dp3364
g3
S'The Weeknd'
p3365
sg5
I42
sg6
S'https://open.spotify.com/track/5GXAXm5YOmYT0kL5jHvYBt'
p3366
sg8
S'I Feel It Coming'
p3367
ssS'1louJpMmzEicAn7lzDalPW'
p3368
(dp3369
g3
S'Cheat Codes'
p3370
sg5
I28
sg6
S'https://open.spotify.com/track/1louJpMmzEicAn7lzDalPW'
p3371
sg8
S'No Promises (feat. Demi Lovato)'
p3372
ssS'6IZvVAP7VPPnsGX6bvgkqg'
p3373
(dp3374
g3
S'Kendrick Lamar'
p3375
sg5
I5
sg6
S'https://open.spotify.com/track/6IZvVAP7VPPnsGX6bvgkqg'
p3376
sg8
S'PRIDE.'
p3377
ssS'0lMbuWUpfTWhEmOKxppEau'
p3378
(dp3379
g3
S'Calvin Harris'
p3380
sg5
I14
sg6
S'https://open.spotify.com/track/0lMbuWUpfTWhEmOKxppEau'
p3381
sg8
S'Rollin'
p3382
ssS'3Ytr1SUCUi6J3L9dRFx5iH'
p3383
(dp3384
g3
S'Major Lazer'
p3385
sg5
I19
sg6
S'https://open.spotify.com/track/3Ytr1SUCUi6J3L9dRFx5iH'
p3386
sg8
S'Know No Better (feat. Quavo)'
p3387
ssS'508hbpTQ7wclT2JDpKBUSV'
p3388
(dp3389
g3
S'Lorde'
p3390
sg5
I1
sg6
S'https://open.spotify.com/track/508hbpTQ7wclT2JDpKBUSV'
p3391
sg8
S'Perfect Places'
p3392
ssS'62vpWI1CHwFy7tMIcSStl8'
p3393
(dp3394
g3
S'J. Cole'
p3395
sg5
I40
sg6
S'https://open.spotify.com/track/62vpWI1CHwFy7tMIcSStl8'
p3396
sg8
S'No Role Modelz'
p3397
ssS'4sQMalN597HdggTu196aL0'
p3398
(dp3399
g3
S'Flume'
p3400
sg5
I29
sg6
S'https://open.spotify.com/track/4sQMalN597HdggTu196aL0'
p3401
sg8
S'Say It (feat. Tove Lo)'
p3402
ssS'51ChrwmUPDJvedPQnIU8Ls'
p3403
(dp3404
g3
S'Ed Sheeran'
p3405
sg5
I28
sg6
S'https://open.spotify.com/track/51ChrwmUPDJvedPQnIU8Ls'
p3406
sg8
S'Dive'
p3407
ssS'3CKCZ9pfwAfoMZlMncA1Nc'
p3408
(dp3409
g3
S'Adele'
p3410
sg5
I1
sg6
S'https://open.spotify.com/track/3CKCZ9pfwAfoMZlMncA1Nc'
p3411
sg8
S'Set Fire to the Rain'
p3412
ssS'4B1rpPmQXwj78wk6aIGwwU'
p3413
(dp3414
g3
S'Harry Styles'
p3415
sg5
I2
sg6
S'https://open.spotify.com/track/4B1rpPmQXwj78wk6aIGwwU'
p3416
sg8
S'Two Ghosts'
p3417
ssS'2R7858bg0GHuBBxjTyOL7N'
p3418
(dp3419
g3
S'George Michael'
p3420
sg5
I1
sg6
S'https://open.spotify.com/track/2R7858bg0GHuBBxjTyOL7N'
p3421
sg8
S'Careless Whisper'
p3422
ssS'1CUVN2kn7mW5FjkqXTR2W1'
p3423
(dp3424
g3
S'Jonas Blue'
p3425
sg5
I22
sg6
S'https://open.spotify.com/track/1CUVN2kn7mW5FjkqXTR2W1'
p3426
sg8
S'Perfect Strangers'
p3427
ssS'1vVNlXi8gf8tZ7OhnEs4VE'
p3428
(dp3429
g3
S'French Montana'
p3430
sg5
I1
sg6
S'https://open.spotify.com/track/1vVNlXi8gf8tZ7OhnEs4VE'
p3431
sg8
S'A Lie'
p3432
ssS'0SGkqnVQo9KPytSri1H6cF'
p3433
(dp3434
g3
S'Big Sean'
p3435
sg5
I42
sg6
S'https://open.spotify.com/track/0SGkqnVQo9KPytSri1H6cF'
p3436
sg8
S'Bounce Back'
p3437
ssS'6SUocL0caib4mLHe8ZrZzi'
p3438
(dp3439
g3
S'Rudimental'
p3440
sg5
I12
sg6
S'https://open.spotify.com/track/6SUocL0caib4mLHe8ZrZzi'
p3441
sg8
S'Sun Comes Up'
p3442
ssS'044qU7kwVZaDwzWnRsmVVL'
p3443
(dp3444
g3
S'The xx'
p3445
sg5
I1
sg6
S'https://open.spotify.com/track/044qU7kwVZaDwzWnRsmVVL'
p3446
sg8
S'I Dare You'
p3447
ssS'27SdWb2rFzO6GWiYDBTD9j'
p3448
(dp3449
g3
S'Sia'
p3450
sg5
I40
sg6
S'https://open.spotify.com/track/27SdWb2rFzO6GWiYDBTD9j'
p3451
sg8
S'Cheap Thrills'
p3452
ssS'3vgNmjuRDnGLxUFGCLkwpm'
p3453
(dp3454
g3
S'David Guetta'
p3455
sg5
I4
sg6
S'https://open.spotify.com/track/3vgNmjuRDnGLxUFGCLkwpm'
p3456
sg8
S'Light My Body Up (feat. Nicki Minaj & Lil Wayne)'
p3457
ssS'6PJ8FF6UR8FZXfEvpHkIVN'
p3458
(dp3459
g3
S'Ed Sheeran'
p3460
sg5
I18
sg6
S'https://open.spotify.com/track/6PJ8FF6UR8FZXfEvpHkIVN'
p3461
sg8
S'How Would You Feel (Paean)'
p3462
ssS'5ndfVSDyPq90jaIUhNPeby'
p3463
(dp3464
g3
S'Katy Perry'
p3465
sg5
I2
sg6
S'https://open.spotify.com/track/5ndfVSDyPq90jaIUhNPeby'
p3466
sg8
S'Chained To The Rhythm'
p3467
ssS'5uCax9HTNlzGybIStD3vDh'
p3468
(dp3469
g3
S'James Arthur'
p3470
sg5
I42
sg6
S'https://open.spotify.com/track/5uCax9HTNlzGybIStD3vDh'
p3471
sg8
S"Say You Won't Let Go"
p3472
ssS'7qiZfU4dY1lWllzX7mPBI3'
p3473
(dp3474
g3
S'Ed Sheeran'
p3475
sg5
I40
sg6
S'https://open.spotify.com/track/7qiZfU4dY1lWllzX7mPBI3'
p3476
sg8
S'Shape of You'
p3477
ssS'70f0ToGXTEtLKFSwHMbHoC'
p3478
(dp3479
g3
S'Eagles'
p3480
sg5
I1
sg6
S'https://open.spotify.com/track/70f0ToGXTEtLKFSwHMbHoC'
p3481
sg8
S'Please Come Home For Christmas - Bonus Track'
p3482
ssS'1NIvNSrB824aeBmCHjyFxR'
p3483
(dp3484
g3
S'Tash Sultana'
p3485
sg5
I6
sg6
S'https://open.spotify.com/track/1NIvNSrB824aeBmCHjyFxR'
p3486
sg8
S'Jungle (Radio Edit)'
p3487
ssS'7xHWNBFm6ObGEQPaUxHuKO'
p3488
(dp3489
g3
S'Sia'
p3490
sg5
I8
sg6
S'https://open.spotify.com/track/7xHWNBFm6ObGEQPaUxHuKO'
p3491
sg8
S'The Greatest'
p3492
ssS'0jVPEBd4wyHupkTHwzQRyc'
p3493
(dp3494
g3
S'Peking Duk'
p3495
sg5
I31
sg6
S'https://open.spotify.com/track/0jVPEBd4wyHupkTHwzQRyc'
p3496
sg8
S'Stranger'
p3497
ssS'0wfbD5rAksdXUzRvMfM3x5'
p3498
(dp3499
g3
S'The Chainsmokers'
p3500
sg5
I11
sg6
S'https://open.spotify.com/track/0wfbD5rAksdXUzRvMfM3x5'
p3501
sg8
S'The One'
p3502
ssS'3JhYmcV0MxCh6Jy3BpIhoq'
p3503
(dp3504
g3
S'Angus & Julia Stone'
p3505
sg5
I2
sg6
S'https://open.spotify.com/track/3JhYmcV0MxCh6Jy3BpIhoq'
p3506
sg8
S'Snow'
p3507
ssS'0q75NwOoFiARAVp4EXU4Bs'
p3508
(dp3509
g3
S'SZA'
p3510
sg5
I12
sg6
S'https://open.spotify.com/track/0q75NwOoFiARAVp4EXU4Bs'
p3511
sg8
S'Love Galore'
p3512
ssS'2fQrGHiQOvpL9UgPvtYy6G'
p3513
(dp3514
g3
S'21 Savage'
p3515
sg5
I3
sg6
S'https://open.spotify.com/track/2fQrGHiQOvpL9UgPvtYy6G'
p3516
sg8
S'Bank Account'
p3517
ssS'1yFiaFeSLpw4nDYTeErRZ6'
p3518
(dp3519
g3
S'Linkin Park'
p3520
sg5
I1
sg6
S'https://open.spotify.com/track/1yFiaFeSLpw4nDYTeErRZ6'
p3521
sg8
S'Leave Out All The Rest'
p3522
ssS'05bnEv2dpFzmGVLGdjD9UP'
p3523
(dp3524
g3
S'XXXTENTACION'
p3525
sg5
I2
sg6
S'https://open.spotify.com/track/05bnEv2dpFzmGVLGdjD9UP'
p3526
sg8
S'Orlando'
p3527
ssS'4XDpZleldkujOhnwNvgoMX'
p3528
(dp3529
g3
S'Dastic'
p3530
sg5
I11
sg6
S'https://open.spotify.com/track/4XDpZleldkujOhnwNvgoMX'
p3531
sg8
S'Let Me Love You'
p3532
ssS'2wXhdaTnmkkFSOidKfnOxA'
p3533
(dp3534
g3
S'HAIM'
p3535
sg5
I1
sg6
S'https://open.spotify.com/track/2wXhdaTnmkkFSOidKfnOxA'
p3536
sg8
S'Want You Back'
p3537
ssS'6DB2KOEwHnjkgEnBt5SdeJ'
p3538
(dp3539
g3
S'Future'
p3540
sg5
I4
sg6
S'https://open.spotify.com/track/6DB2KOEwHnjkgEnBt5SdeJ'
p3541
sg8
S'Mask Off - Remix'
p3542
ssS'1F2HXIJrE2Xn81OzT2zZvW'
p3543
(dp3544
g3
S'French Montana'
p3545
sg5
I11
sg6
S'https://open.spotify.com/track/1F2HXIJrE2Xn81OzT2zZvW'
p3546
sg8
S'Unforgettable'
p3547
ssS'6QgjcU0zLnzq5OrUoSZ3OK'
p3548
(dp3549
g3
S'Portugal. The Man'
p3550
sg5
I12
sg6
S'https://open.spotify.com/track/6QgjcU0zLnzq5OrUoSZ3OK'
p3551
sg8
S'Feel It Still'
p3552
ssS'7f5GxR7Mr2hqMBBOjSAN0l'
p3553
(dp3554
g3
S'Vera Blue'
p3555
sg5
I2
sg6
S'https://open.spotify.com/track/7f5GxR7Mr2hqMBBOjSAN0l'
p3556
sg8
S'Private'
p3557
ssS'7GQZ0EVbfUsKPfBIUmcRVF'
p3558
(dp3559
g3
S'Tash Sultana'
p3560
sg5
I1
sg6
S'https://open.spotify.com/track/7GQZ0EVbfUsKPfBIUmcRVF'
p3561
sg8
S'Murder to the Mind'
p3562
ssS'78rIJddV4X0HkNAInEcYde'
p3563
(dp3564
g3
S'Starley'
p3565
sg5
I42
sg6
S'https://open.spotify.com/track/78rIJddV4X0HkNAInEcYde'
p3566
sg8
S'Call On Me - Ryan Riback Extended Remix'
p3567
ssS'0L7loeTIg6akW84aEQZpCT'
p3568
(dp3569
g3
S'Major Lazer'
p3570
sg5
I8
sg6
S'https://open.spotify.com/track/0L7loeTIg6akW84aEQZpCT'
p3571
sg8
S'Light It Up (feat. Nyla & Fuse ODG) - Remix'
p3572
ssS'5GG3knKdxKWrNboRijxeKF'
p3573
(dp3574
g3
S'Bryson Tiller'
p3575
sg5
I5
sg6
S'https://open.spotify.com/track/5GG3knKdxKWrNboRijxeKF'
p3576
sg8
S'Run Me Dry'
p3577
ssS'4Q5yMlwAfAoitqg4r9oZHN'
p3578
(dp3579
g3
S'Cashmere Cat'
p3580
sg5
I9
sg6
S'https://open.spotify.com/track/4Q5yMlwAfAoitqg4r9oZHN'
p3581
sg8
S'Quit (feat. Ariana Grande)'
p3582
ssS'2EEeOnHehOozLq4aS0n6SL'
p3583
(dp3584
g3
S'KYLE'
p3585
sg5
I36
sg6
S'https://open.spotify.com/track/2EEeOnHehOozLq4aS0n6SL'
p3586
sg8
S'iSpy (feat. Lil Yachty)'
p3587
ssS'2GsteFRbq6UyW0WfUWgQtX'
p3588
(dp3589
g3
S'Jessica Mauboy'
p3590
sg5
I14
sg6
S'https://open.spotify.com/track/2GsteFRbq6UyW0WfUWgQtX'
p3591
sg8
S"Fallin' - Original Song from the TV Series The Secret Daughter"
p3592
ssS'5TXDeTFVRVY7Cvt0Dw4vWW'
p3593
(dp3594
g3
S'XXXTENTACION'
p3595
sg5
I7
sg6
S'https://open.spotify.com/track/5TXDeTFVRVY7Cvt0Dw4vWW'
p3596
sg8
S'Revenge'
p3597
ssS'167NczpNbRF7oWakJaY3Hh'
p3598
(dp3599
g3
S'Niall Horan'
p3600
sg5
I23
sg6
S'https://open.spotify.com/track/167NczpNbRF7oWakJaY3Hh'
p3601
sg8
S'Slow Hands'
p3602
ssS'0or0gNaKAXYYCsOrpvRzAu'
p3603
(dp3604
g3
S'Lorde'
p3605
sg5
I17
sg6
S'https://open.spotify.com/track/0or0gNaKAXYYCsOrpvRzAu'
p3606
sg8
S'Liability'
p3607
ssS'19a3JfW8BQwqHWUMbcqSx8'
p3608
(dp3609
g3
S'Kanye West'
p3610
sg5
I10
sg6
S'https://open.spotify.com/track/19a3JfW8BQwqHWUMbcqSx8'
p3611
sg8
S'Famous'
p3612
ssS'0y9uTzK9cNKSAEHnpeRG8C'
p3613
(dp3614
g3
S'Kendrick Lamar'
p3615
sg5
I3
sg6
S'https://open.spotify.com/track/0y9uTzK9cNKSAEHnpeRG8C'
p3616
sg8
S'DUCKWORTH.'
p3617
ssS'09mhA1SJjMHniZPF4Hcihn'
p3618
(dp3619
g3
S'Justin Bieber'
p3620
sg5
I1
sg6
S'https://open.spotify.com/track/09mhA1SJjMHniZPF4Hcihn'
p3621
sg8
S'Company'
p3622
ssS'0xG0SHshCStMEyNbNC5d4k'
p3623
(dp3624
g3
S'Julia Michaels'
p3625
sg5
I9
sg6
S'https://open.spotify.com/track/0xG0SHshCStMEyNbNC5d4k'
p3626
sg8
S'Issues'
p3627
ssS'7yHEDfrJNd0zWOfXwydNH0'
p3628
(dp3629
g3
S'Ariana Grande'
p3630
sg5
I14
sg6
S'https://open.spotify.com/track/7yHEDfrJNd0zWOfXwydNH0'
p3631
sg8
S'Into You'
p3632
ssS'1lntL1cI2UIWlxjL5QiN8g'
p3633
(dp3634
g3
S'Lauv'
p3635
sg5
I7
sg6
S'https://open.spotify.com/track/1lntL1cI2UIWlxjL5QiN8g'
p3636
sg8
S'The Other'
p3637
ssS'2nAAFnHiXRdWhsqoeqhhnr'
p3638
(dp3639
g3
S'London Grammar'
p3640
sg5
I1
sg6
S'https://open.spotify.com/track/2nAAFnHiXRdWhsqoeqhhnr'
p3641
sg8
S'Rooting For You'
p3642
ssS'5yRDS8rO2nWrNxcVcsCPl4'
p3643
(dp3644
g3
S'M-Phazes'
p3645
sg5
I5
sg6
S'https://open.spotify.com/track/5yRDS8rO2nWrNxcVcsCPl4'
p3646
sg8
S'Messiah'
p3647
ssS'1839RWzPRZCVgvamu4sHSN'
p3648
(dp3649
g3
S'Cash Cash'
p3650
sg5
I5
sg6
S'https://open.spotify.com/track/1839RWzPRZCVgvamu4sHSN'
p3651
sg8
S'All My Love (feat. Conor Maynard)'
p3652
ssS'5Db9VIdDsN5yu3Eu7CT0i4'
p3653
(dp3654
g3
S'Sam Smith'
p3655
sg5
I8
sg6
S'https://open.spotify.com/track/5Db9VIdDsN5yu3Eu7CT0i4'
p3656
sg8
S'Stay With Me'
p3657
ssS'11KJSRSgaDxqydKYiD2Jew'
p3658
(dp3659
g3
S'Drake'
p3660
sg5
I15
sg6
S'https://open.spotify.com/track/11KJSRSgaDxqydKYiD2Jew'
p3661
sg8
S'Too Good'
p3662
ssS'7pYFPMeK0TnaTGdS6qOtEr'
p3663
(dp3664
g3
S'Stargate'
p3665
sg5
I5
sg6
S'https://open.spotify.com/track/7pYFPMeK0TnaTGdS6qOtEr'
p3666
sg8
S'Waterfall'
p3667
ssS'1yNyoWWWikbLhwIGWjZuDW'
p3668
(dp3669
g3
S'The Vamps'
p3670
sg5
I27
sg6
S'https://open.spotify.com/track/1yNyoWWWikbLhwIGWjZuDW'
p3671
sg8
S'All Night'
p3672
ssS'26AuyrZGzWWiYZPSd3XBIg'
p3673
(dp3674
g3
S'The Chainsmokers'
p3675
sg5
I1
sg6
S'https://open.spotify.com/track/26AuyrZGzWWiYZPSd3XBIg'
p3676
sg8
S'Bloodstream'
p3677
ssS'3Dwq1oiOFys6Sxr5SslmXw'
p3678
(dp3679
g3
S'Harry Styles'
p3680
sg5
I2
sg6
S'https://open.spotify.com/track/3Dwq1oiOFys6Sxr5SslmXw'
p3681
sg8
S'Carolina'
p3682
ssS'4vb4mFvYsr2h6enhjJsq9Y'
p3683
(dp3684
g3
S'Adele'
p3685
sg5
I32
sg6
S'https://open.spotify.com/track/4vb4mFvYsr2h6enhjJsq9Y'
p3686
sg8
S'Water Under the Bridge'
p3687
ssS'6cPyTS0Kk2sc4xQwC93kOg'
p3688
(dp3689
g3
S'The Chainsmokers'
p3690
sg5
I4
sg6
S'https://open.spotify.com/track/6cPyTS0Kk2sc4xQwC93kOg'
p3691
sg8
S'Break Up Every Night'
p3692
ssS'2kVHAQKVtczchKctctzbtK'
p3693
(dp3694
g3
S'Katy Perry'
p3695
sg5
I17
sg6
S'https://open.spotify.com/track/2kVHAQKVtczchKctctzbtK'
p3696
sg8
S'Swish Swish'
p3697
ssS'17Fd6Yb7mSbinKG8LoWfFl'
p3698
(dp3699
g3
S'Mike Posner'
p3700
sg5
I29
sg6
S'https://open.spotify.com/track/17Fd6Yb7mSbinKG8LoWfFl'
p3701
sg8
S'I Took A Pill In Ibiza - Seeb Remix'
p3702
ssS'7zTx8ePYAmPFQuxP3xlXZn'
p3703
(dp3704
g3
S'San Holo'
p3705
sg5
I8
sg6
S'https://open.spotify.com/track/7zTx8ePYAmPFQuxP3xlXZn'
p3706
sg8
S'Light'
p3707
ssS'7k6Wf3BN6m2kCGIAfouMwP'
p3708
(dp3709
g3
S'AlunaGeorge'
p3710
sg5
I6
sg6
S'https://open.spotify.com/track/7k6Wf3BN6m2kCGIAfouMwP'
p3711
sg8
S'Not Above Love'
p3712
ssS'4tCtwWceOPWzenK2HAIJSb'
p3713
(dp3714
g3
S'Fifth Harmony'
p3715
sg5
I41
sg6
S'https://open.spotify.com/track/4tCtwWceOPWzenK2HAIJSb'
p3716
sg8
S'Work from Home'
p3717
ssS'0x4GHzCjY5MGQ960CHnVHz'
p3718
(dp3719
g3
S'The Veronicas'
p3720
sg5
I5
sg6
S'https://open.spotify.com/track/0x4GHzCjY5MGQ960CHnVHz'
p3721
sg8
S'In My Blood'
p3722
ssS'7mldq42yDuxiUNn08nvzHO'
p3723
(dp3724
g3
S'Sam Hunt'
p3725
sg5
I32
sg6
S'https://open.spotify.com/track/7mldq42yDuxiUNn08nvzHO'
p3726
sg8
S'Body Like A Back Road'
p3727
ssS'3hB5DgAiMAQ4DzYbsMq1IT'
p3728
(dp3729
g3
S'Justin Bieber'
p3730
sg5
I42
sg6
S'https://open.spotify.com/track/3hB5DgAiMAQ4DzYbsMq1IT'
p3731
sg8
S'Love Yourself'
p3732
ssS'1foCxQtxBweJtZmdxhEHVO'
p3733
(dp3734
g3
S'Eartha Kitt'
p3735
sg5
I1
sg6
S'https://open.spotify.com/track/1foCxQtxBweJtZmdxhEHVO'
p3736
sg8
S'Santa Baby'
p3737
ssS'32OWobmyAz8J2qA8iWekyS'
p3738
(dp3739
g3
S'Justin Bieber'
p3740
sg5
I1
sg6
S'https://open.spotify.com/track/32OWobmyAz8J2qA8iWekyS'
p3741
sg8
S'Mistletoe'
p3742
ssS'6XOYVSmNDjKUNMXooU4s4z'
p3743
(dp3744
g3
S'OneRepublic'
p3745
sg5
I10
sg6
S'https://open.spotify.com/track/6XOYVSmNDjKUNMXooU4s4z'
p3746
sg8
S'No Vacancy'
p3747
ssS'6mz1fBdKATx6qP4oP1I65G'
p3748
(dp3749
g3
S'Ginuwine'
p3750
sg5
I1
sg6
S'https://open.spotify.com/track/6mz1fBdKATx6qP4oP1I65G'
p3751
sg8
S'Pony'
p3752
ssS'3bidbhpOYeV4knp8AIu8Xn'
p3753
(dp3754
g3
S'Macklemore & Ryan Lewis'
p3755
sg5
I32
sg6
S'https://open.spotify.com/track/3bidbhpOYeV4knp8AIu8Xn'
p3756
sg8
S"Can't Hold Us - feat. Ray Dalton"
p3757
ssS'6AGON2BGdPmPMJGiiNuuwl'
p3758
(dp3759
g3
S'J. Cole'
p3760
sg5
I5
sg6
S'https://open.spotify.com/track/6AGON2BGdPmPMJGiiNuuwl'
p3761
sg8
S'Immortal'
p3762
ssS'2Y0W9OqExrVea1xEcCgYcS'
p3763
(dp3764
g3
S'SLUMBERJACK'
p3765
sg5
I2
sg6
S'https://open.spotify.com/track/2Y0W9OqExrVea1xEcCgYcS'
p3766
sg8
S'Fracture'
p3767
ssS'5XSwdC5vHtheRRrMmGoEVV'
p3768
(dp3769
g3
S'Paul Kelly'
p3770
sg5
I1
sg6
S'https://open.spotify.com/track/5XSwdC5vHtheRRrMmGoEVV'
p3771
sg8
S'How To Make Gravy'
p3772
ss.