(dp0
S'0mel2N9Ws9r4yLQn5QE21Y'
p1
(dp2
S'artistName'
p3
S'Sam Smith'
p4
sS'weeksOnChart'
p5
I5
sS'track_href'
p6
S'https://open.spotify.com/track/0mel2N9Ws9r4yLQn5QE21Y'
p7
sS'songName'
p8
S'Too Good At Goodbyes'
p9
ssS'0jdny0dhgjUwoIp5GkqEaA'
p10
(dp11
g3
S'Kesha'
p12
sg5
I1
sg6
S'https://open.spotify.com/track/0jdny0dhgjUwoIp5GkqEaA'
p13
sg8
S'Praying'
p14
ssS'1OT1aHyGLoOGxnSFYcuzEC'
p15
(dp16
g3
S'Groove Riders'
p17
sg5
I1
sg6
S'https://open.spotify.com/track/1OT1aHyGLoOGxnSFYcuzEC'
p18
sg8
S'\xe0\xb8\xab\xe0\xb8\xa2\xe0\xb8\xb8\xe0\xb8\x94'
p19
ssS'1qAPA8TooLVEqAZ58fhcrt'
p20
(dp21
g3
S'BLACKPINK'
p22
sg5
I7
sg6
S'https://open.spotify.com/track/1qAPA8TooLVEqAZ58fhcrt'
p23
sg8
S'BOOMBAYAH - KR Ver.'
p24
ssS'6ZDl7YLiNjey9VOdEM3pok'
p25
(dp26
g3
S'Lula'
p27
sg5
I7
sg6
S'https://open.spotify.com/track/6ZDl7YLiNjey9VOdEM3pok'
p28
sg8
S'\xe0\xb9\x80\xe0\xb8\xa3\xe0\xb8\xb7\xe0\xb9\x88\xe0\xb8\xad\xe0\xb8\x87\xe0\xb8\x97\xe0\xb8\xb5\xe0\xb9\x88\xe0\xb8\x82\xe0\xb8\xad'
p29
ssS'3Oy5fg7uR3bwSK5MA7PS5M'
p30
(dp31
g3
S'The Mousses'
p32
sg5
I4
sg6
S'https://open.spotify.com/track/3Oy5fg7uR3bwSK5MA7PS5M'
p33
sg8
S'\xe0\xb8\xab\xe0\xb8\xa5\xe0\xb8\xad\xe0\xb8\x81\xe0\xb9\x83\xe0\xb8\xab\xe0\xb9\x89\xe0\xb8\xa3\xe0\xb8\xb1\xe0\xb8\x81'
p34
ssS'3QdBjjzP3JuBnchPSPOMDC'
p35
(dp36
g3
S'\xe0\xb8\xa5\xe0\xb8\xb3\xe0\xb9\x84\xe0\xb8\xa2 \xe0\xb9\x84\xe0\xb8\xab\xe0\xb8\x97\xe0\xb8\xad\xe0\xb8\x87\xe0\xb8\x84\xe0\xb8\xb3'
p37
sg5
I1
sg6
S'https://open.spotify.com/track/3QdBjjzP3JuBnchPSPOMDC'
p38
sg8
S'\xe0\xb8\x9c\xe0\xb8\xb9\xe0\xb9\x89\xe0\xb8\xaa\xe0\xb8\xb2\xe0\xb8\xa7\xe0\xb8\x82\xe0\xb8\xb2\xe0\xb9\x80\xe0\xb8\xa5\xe0\xb8\xb2\xe0\xb8\xb0'
p39
ssS'7wGoVu4Dady5GV0Sv4UIsx'
p40
(dp41
g3
S'Post Malone'
p42
sg5
I1
sg6
S'https://open.spotify.com/track/7wGoVu4Dady5GV0Sv4UIsx'
p43
sg8
S'rockstar'
p44
ssS'7LJjWqhqK594nN7qJzLVXE'
p45
(dp46
g3
S'BLACKPINK'
p47
sg5
I1
sg6
S'https://open.spotify.com/track/7LJjWqhqK594nN7qJzLVXE'
p48
sg8
S"As If It's Your Last"
p49
ssS'4ioNqWWd8Ivz4bLfrn3bBN'
p50
(dp51
g3
S'Craig David'
p52
sg5
I4
sg6
S'https://open.spotify.com/track/4ioNqWWd8Ivz4bLfrn3bBN'
p53
sg8
S'Heartline'
p54
ssS'3AenWjAY3QOYyInNTBOuNX'
p55
(dp56
g3
S'Lipta'
p57
sg5
I6
sg6
S'https://open.spotify.com/track/3AenWjAY3QOYyInNTBOuNX'
p58
sg8
S"Let's Go"
p59
ssS'7tr2za8SQg2CI8EDgrdtNl'
p60
(dp61
g3
S'Calvin Harris'
p62
sg5
I6
sg6
S'https://open.spotify.com/track/7tr2za8SQg2CI8EDgrdtNl'
p63
sg8
S'Slide'
p64
ssS'4pLwZjInHj3SimIyN9SnOz'
p65
(dp66
g3
S'Ariana Grande'
p67
sg5
I7
sg6
S'https://open.spotify.com/track/4pLwZjInHj3SimIyN9SnOz'
p68
sg8
S'Side To Side'
p69
ssS'3llHPPHKJ9bBYh9pg9TBbf'
p70
(dp71
g3
S'Petit Biscuit'
p72
sg5
I1
sg6
S'https://open.spotify.com/track/3llHPPHKJ9bBYh9pg9TBbf'
p73
sg8
S'Waterfall'
p74
ssS'3BXeqTOcLorpYoTkH1JTvv'
p75
(dp76
g3
S'ETC.'
p77
sg5
I1
sg6
S'https://open.spotify.com/track/3BXeqTOcLorpYoTkH1JTvv'
p78
sg8
S'\xe0\xb9\x80\xe0\xb8\x88\xe0\xb9\x89\xe0\xb8\xb2\xe0\xb8\x8a\xe0\xb8\xb2\xe0\xb8\xa2\xe0\xb8\x99\xe0\xb8\xb4\xe0\xb8\x97\xe0\xb8\xa3\xe0\xb8\xb2'
p79
ssS'7iypwu1yQ4GftHl3nbUgK6'
p80
(dp81
g3
S'P!nk'
p82
sg5
I1
sg6
S'https://open.spotify.com/track/7iypwu1yQ4GftHl3nbUgK6'
p83
sg8
S'Whatever You Want'
p84
ssS'6IDsfMh7YJlE3R2mB1DYXH'
p85
(dp86
g3
S'Oat Pramote'
p87
sg5
I6
sg6
S'https://open.spotify.com/track/6IDsfMh7YJlE3R2mB1DYXH'
p88
sg8
S'\xe0\xb8\xa1\xe0\xb8\xb5\xe0\xb9\x81\xe0\xb8\x9f\xe0\xb8\x99\xe0\xb9\x81\xe0\xb8\xa5\xe0\xb9\x89\xe0\xb8\xa7 Feat. UrboyTJ'
p89
ssS'6ZKJbL6CkzpDDYeY2SPjeQ'
p90
(dp91
g3
S'Ton Thanasit'
p92
sg5
I5
sg6
S'https://open.spotify.com/track/6ZKJbL6CkzpDDYeY2SPjeQ'
p93
sg8
S'\xe0\xb8\xa3\xe0\xb8\xb9\xe0\xb9\x89\xe0\xb8\xa2\xe0\xb8\xb1\xe0\xb8\x87 (Acoustic Live Session)'
p94
ssS'6dnXdI7OhOJYvVjlT6pR03'
p95
(dp96
g3
S'Tattoo Colour'
p97
sg5
I7
sg6
S'https://open.spotify.com/track/6dnXdI7OhOJYvVjlT6pR03'
p98
sg8
S'\xe0\xb9\x80\xe0\xb8\x9c\xe0\xb8\x94\xe0\xb9\x87\xe0\xb8\x88\xe0\xb9\x80\xe0\xb8\x81\xe0\xb8\xb4\xe0\xb8\xa3\xe0\xb9\x8c\xe0\xb8\xa5'
p99
ssS'7KlTFTpy7dXLzr2NtLkvG6'
p100
(dp101
g3
S'BTS'
p102
sg5
I1
sg6
S'https://open.spotify.com/track/7KlTFTpy7dXLzr2NtLkvG6'
p103
sg8
S'Not Today'
p104
ssS'1tSHQvRQD0RQHdQjmEfrCv'
p105
(dp106
g3
S'BOBBY'
p107
sg5
I2
sg6
S'https://open.spotify.com/track/1tSHQvRQD0RQHdQjmEfrCv'
p108
sg8
S'I LOVE YOU'
p109
ssS'6SlbEb9Zvc8rUAHUhreScK'
p110
(dp111
g3
S'Cocktail'
p112
sg5
I2
sg6
S'https://open.spotify.com/track/6SlbEb9Zvc8rUAHUhreScK'
p113
sg8
S'\xe0\xb9\x80\xe0\xb8\x98\xe0\xb8\xad'
p114
ssS'1lKuMKrrRL0Hi2JLoDRVnT'
p115
(dp116
g3
S'Earth Patravee'
p117
sg5
I1
sg6
S'https://open.spotify.com/track/1lKuMKrrRL0Hi2JLoDRVnT'
p118
sg8
S'Timehop'
p119
ssS'3pzjHKrQSvXGHQ98dx18HI'
p120
(dp121
g3
S'Justin Bieber'
p122
sg5
I1
sg6
S'https://open.spotify.com/track/3pzjHKrQSvXGHQ98dx18HI'
p123
sg8
S'What Do You Mean?'
p124
ssS'52okn5MNA47tk87PeZJLEL'
p125
(dp126
g3
S'NF'
p127
sg5
I1
sg6
S'https://open.spotify.com/track/52okn5MNA47tk87PeZJLEL'
p128
sg8
S'Let You Down'
p129
ssS'1CKd1PnqfYx0H12V9MSaIY'
p130
(dp131
g3
S'Zedd'
p132
sg5
I3
sg6
S'https://open.spotify.com/track/1CKd1PnqfYx0H12V9MSaIY'
p133
sg8
S'Get Low (with Liam Payne)'
p134
ssS'5CtI0qwDJkDQGwXD1H1cLb'
p135
(dp136
g3
S'Luis Fonsi'
p137
sg5
I7
sg6
S'https://open.spotify.com/track/5CtI0qwDJkDQGwXD1H1cLb'
p138
sg8
S'Despacito - Remix'
p139
ssS'5o4yGlG0PfeVUa6ClIyOxq'
p140
(dp141
g3
S'Charli XCX'
p142
sg5
I5
sg6
S'https://open.spotify.com/track/5o4yGlG0PfeVUa6ClIyOxq'
p143
sg8
S'Boys'
p144
ssS'2ekn2ttSfGqwhhate0LSR0'
p145
(dp146
g3
S'Dua Lipa'
p147
sg5
I7
sg6
S'https://open.spotify.com/track/2ekn2ttSfGqwhhate0LSR0'
p148
sg8
S'New Rules'
p149
ssS'46Sl1ZdGrMdbdKQ63loc6h'
p150
(dp151
g3
S'Singto Numchok'
p152
sg5
I3
sg6
S'https://open.spotify.com/track/46Sl1ZdGrMdbdKQ63loc6h'
p153
sg8
S'\xe0\xb9\x80\xe0\xb8\x98\xe0\xb8\xad\xe0\xb8\x84\xe0\xb8\xb7\xe0\xb8\xad\xe0\xb8\x82\xe0\xb8\xad\xe0\xb8\x87\xe0\xb8\x82\xe0\xb8\xa7\xe0\xb8\xb1\xe0\xb8\x8d'
p154
ssS'46Uqy57KyAT7xBz6BIqdB3'
p155
(dp156
g3
S'Room 39'
p157
sg5
I7
sg6
S'https://open.spotify.com/track/46Uqy57KyAT7xBz6BIqdB3'
p158
sg8
S'\xe0\xb8\xa3\xe0\xb8\xb1\xe0\xb8\x81\xe0\xb8\x95\xe0\xb8\xb1\xe0\xb8\xa7\xe0\xb9\x80\xe0\xb8\xad\xe0\xb8\x87'
p159
ssS'2uSLx5uwRIhiA3sJJraNqX'
p160
(dp161
g3
S'Maroon 5'
p162
sg5
I1
sg6
S'https://open.spotify.com/track/2uSLx5uwRIhiA3sJJraNqX'
p163
sg8
S'Help Me Out (with Julia Michaels)'
p164
ssS'1vrd6UOGamcKNGnSHJQlSt'
p165
(dp166
g3
S'Taylor Swift'
p167
sg5
I1
sg6
S'https://open.spotify.com/track/1vrd6UOGamcKNGnSHJQlSt'
p168
sg8
S'Love Story'
p169
ssS'6lrciXR6J6Kkm3Tksqk9wM'
p170
(dp171
g3
S'GENA DESOUZA'
p172
sg5
I1
sg6
S'https://open.spotify.com/track/6lrciXR6J6Kkm3Tksqk9wM'
p173
sg8
S'\xe0\xb8\x88\xe0\xb8\xa3\xe0\xb8\xb4\xe0\xb8\x87\xe0\xb9\x86\xe0\xb8\xa1\xe0\xb8\xb1\xe0\xb8\x99\xe0\xb8\x81\xe0\xb9\x87\xe0\xb8\x94\xe0\xb8\xb5 DRUNK'
p174
ssS'6O6M7pJLABmfBRoGZMu76Y'
p175
(dp176
g3
S'The Chainsmokers'
p177
sg5
I2
sg6
S'https://open.spotify.com/track/6O6M7pJLABmfBRoGZMu76Y'
p178
sg8
S'Roses'
p179
ssS'32DGGj6KlNuBr6WaqRxpxi'
p180
(dp181
g3
S'Charlie Puth'
p182
sg5
I1
sg6
S'https://open.spotify.com/track/32DGGj6KlNuBr6WaqRxpxi'
p183
sg8
S'How Long'
p184
ssS'7vGuf3Y35N4wmASOKLUVVU'
p185
(dp186
g3
S'Marshmello'
p187
sg5
I7
sg6
S'https://open.spotify.com/track/7vGuf3Y35N4wmASOKLUVVU'
p188
sg8
S'Silence'
p189
ssS'1Bjy9ZtwMle3uhVgoBgiGN'
p190
(dp191
g3
S"Girls' Generation"
p192
sg5
I2
sg6
S'https://open.spotify.com/track/1Bjy9ZtwMle3uhVgoBgiGN'
p193
sg8
S'Holiday'
p194
ssS'57p8CBvPOxrvyCbn6ttl5r'
p195
(dp196
g3
S'Skrillex'
p197
sg5
I4
sg6
S'https://open.spotify.com/track/57p8CBvPOxrvyCbn6ttl5r'
p198
sg8
S'Would You Ever'
p199
ssS'0CcQNd8CINkwQfe1RDtGV6'
p200
(dp201
g3
S'Imagine Dragons'
p202
sg5
I7
sg6
S'https://open.spotify.com/track/0CcQNd8CINkwQfe1RDtGV6'
p203
sg8
S'Believer'
p204
ssS'6sxDRIzYz50GJeSYLAODZm'
p205
(dp206
g3
S'Fymme Bongkod'
p207
sg5
I2
sg6
S'https://open.spotify.com/track/6sxDRIzYz50GJeSYLAODZm'
p208
sg8
S'\xe0\xb8\x81\xe0\xb8\xb0\xe0\xb8\x97\xe0\xb8\xb1\xe0\xb8\x99\xe0\xb8\xab\xe0\xb8\xb1\xe0\xb8\x99'
p209
ssS'3NdDpSvN911VPGivFlV5d0'
p210
(dp211
g3
S'ZAYN'
p212
sg5
I7
sg6
S'https://open.spotify.com/track/3NdDpSvN911VPGivFlV5d0'
p213
sg8
S'I Don\xe2\x80\x99t Wanna Live Forever (Fifty Shades Darker) - From Fifty Shades Darker (Original Motion Picture Soundtrack)'
p214
ssS'3XITR1gQEfgRAnNf9O1UKz'
p215
(dp216
g3
S'Wanna One'
p217
sg5
I1
sg6
S'https://open.spotify.com/track/3XITR1gQEfgRAnNf9O1UKz'
p218
sg8
S'Wanna Be (My Baby)'
p219
ssS'3o5FB7uyNadcadhKe3GP32'
p220
(dp221
g3
S'Two Popetorn'
p222
sg5
I2
sg6
S'https://open.spotify.com/track/3o5FB7uyNadcadhKe3GP32'
p223
sg8
S'\xe0\xb8\x96\xe0\xb9\x89\xe0\xb8\xb2\xe0\xb8\xab\xe0\xb8\xb2\xe0\xb8\x81'
p224
ssS'5mVeBv0bUZPJU7kPZcm594'
p225
(dp226
g3
S'The Toys'
p227
sg5
I7
sg6
S'https://open.spotify.com/track/5mVeBv0bUZPJU7kPZcm594'
p228
sg8
S'\xe0\xb8\xab\xe0\xb8\x99\xe0\xb9\x89\xe0\xb8\xb2\xe0\xb8\xab\xe0\xb8\x99\xe0\xb8\xb2\xe0\xb8\xa7\xe0\xb8\x97\xe0\xb8\xb5\xe0\xb9\x88\xe0\xb9\x81\xe0\xb8\xa5\xe0\xb9\x89\xe0\xb8\xa7'
p229
ssS'7q8jJ1XZEliBakZSUMFde5'
p230
(dp231
g3
S'Cheat Codes'
p232
sg5
I7
sg6
S'https://open.spotify.com/track/7q8jJ1XZEliBakZSUMFde5'
p233
sg8
S'Stay With You'
p234
ssS'5TB9yRV4DdinilFXwWCitB'
p235
(dp236
g3
S'Ae Jirakorn'
p237
sg5
I4
sg6
S'https://open.spotify.com/track/5TB9yRV4DdinilFXwWCitB'
p238
sg8
S'\xe0\xb8\x9b\xe0\xb8\xb2\xe0\xb9\x83\xe0\xb8\xaa\xe0\xb9\x88\xe0\xb8\xab\xe0\xb8\x99\xe0\xb9\x89\xe0\xb8\xb2'
p239
ssS'2iZa85nnDuPYAW9NswnjDp'
p240
(dp241
g3
S'Ben Chalatit'
p242
sg5
I2
sg6
S'https://open.spotify.com/track/2iZa85nnDuPYAW9NswnjDp'
p243
sg8
S'\xe0\xb8\xa2\xe0\xb8\xb1\xe0\xb8\x87\xe0\xb8\xa3\xe0\xb8\xad'
p244
ssS'1aCn29zlPjEYcIyYKNm7fP'
p245
(dp246
g3
S'UrboyTJ'
p247
sg5
I2
sg6
S'https://open.spotify.com/track/1aCn29zlPjEYcIyYKNm7fP'
p248
sg8
S'\xe0\xb9\x84\xe0\xb8\xa1\xe0\xb9\x88\xe0\xb8\xad\xe0\xb8\xa2\xe0\xb8\xb2\xe0\xb8\x81\xe0\xb8\x9f\xe0\xb8\xb1\xe0\xb8\x87'
p249
ssS'67BbMuItfrHmaNqDxBPF7c'
p250
(dp251
g3
S'BLACKPINK'
p252
sg5
I7
sg6
S'https://open.spotify.com/track/67BbMuItfrHmaNqDxBPF7c'
p253
sg8
S'WHISTLE - KR Ver.'
p254
ssS'4iyH6JZBZjk3htdJdZ6r51'
p255
(dp256
g3
S'Demi Lovato'
p257
sg5
I1
sg6
S'https://open.spotify.com/track/4iyH6JZBZjk3htdJdZ6r51'
p258
sg8
S'Ruin The Friendship'
p259
ssS'1Zyd6zQnC6XIIzmg3hP7Ot'
p260
(dp261
g3
S'BLACKPINK'
p262
sg5
I6
sg6
S'https://open.spotify.com/track/1Zyd6zQnC6XIIzmg3hP7Ot'
p263
sg8
S"As If It's Your Last"
p264
ssS'2SYa5Lx1uoCvyDIW4oee9b'
p265
(dp266
g3
S'BTS'
p267
sg5
I4
sg6
S'https://open.spotify.com/track/2SYa5Lx1uoCvyDIW4oee9b'
p268
sg8
S'MIC Drop'
p269
ssS'6uFsE1JgZ20EXyU0JQZbUR'
p270
(dp271
g3
S'Taylor Swift'
p272
sg5
I7
sg6
S'https://open.spotify.com/track/6uFsE1JgZ20EXyU0JQZbUR'
p273
sg8
S'Look What You Made Me Do'
p274
ssS'0jFHMDRXxKaREor3hBEEST'
p275
(dp276
g3
S'SUNMI'
p277
sg5
I6
sg6
S'https://open.spotify.com/track/0jFHMDRXxKaREor3hBEEST'
p278
sg8
S'Gashina'
p279
ssS'4xBjsLUSjcx2h7PcRikpQp'
p280
(dp281
g3
S'Camila Cabello'
p282
sg5
I4
sg6
S'https://open.spotify.com/track/4xBjsLUSjcx2h7PcRikpQp'
p283
sg8
S'OMG'
p284
ssS'7GX5flRQZVHRAGd6B4TmDO'
p285
(dp286
g3
S'Lil Uzi Vert'
p287
sg5
I7
sg6
S'https://open.spotify.com/track/7GX5flRQZVHRAGd6B4TmDO'
p288
sg8
S'XO TOUR Llif3'
p289
ssS'0CokSRCu5hZgPxcZBaEzVE'
p290
(dp291
g3
S'Macklemore'
p292
sg5
I3
sg6
S'https://open.spotify.com/track/0CokSRCu5hZgPxcZBaEzVE'
p293
sg8
S'Glorious (feat. Skylar Grey)'
p294
ssS'7pcTLUekZJQnzDOUDuExVJ'
p295
(dp296
g3
S'DAOKO\xc3\x97\xe7\xb1\xb3\xe6\xb4\xa5\xe7\x8e\x84\xe5\xb8\xab'
p297
sg5
I3
sg6
S'https://open.spotify.com/track/7pcTLUekZJQnzDOUDuExVJ'
p298
sg8
S'\xe6\x89\x93\xe4\xb8\x8a\xe8\x8a\xb1\xe7\x81\xab'
p299
ssS'75ZvA4QfFiZvzhj2xkaWAh'
p300
(dp301
g3
S'Post Malone'
p302
sg5
I1
sg6
S'https://open.spotify.com/track/75ZvA4QfFiZvzhj2xkaWAh'
p303
sg8
S'I Fall Apart'
p304
ssS'7BKLCZ1jbUBVqRi2FVlTVw'
p305
(dp306
g3
S'The Chainsmokers'
p307
sg5
I7
sg6
S'https://open.spotify.com/track/7BKLCZ1jbUBVqRi2FVlTVw'
p308
sg8
S'Closer'
p309
ssS'4hDuZ5DmaYjNR2WBvlyfBw'
p310
(dp311
g3
S'gnash'
p312
sg5
I1
sg6
S'https://open.spotify.com/track/4hDuZ5DmaYjNR2WBvlyfBw'
p313
sg8
S'superlit'
p314
ssS'7nKQ5WAcjnG48knyLuo8gO'
p315
(dp316
g3
S'Red Velvet'
p317
sg5
I7
sg6
S'https://open.spotify.com/track/7nKQ5WAcjnG48knyLuo8gO'
p318
sg8
S'\xeb\xb9\xa8\xea\xb0\x84 \xeb\xa7\x9b Red Flavor'
p319
ssS'6vN56p7fD0VUbPkU5nsDuH'
p320
(dp321
g3
S'Boyd Kosiyabong'
p322
sg5
I3
sg6
S'https://open.spotify.com/track/6vN56p7fD0VUbPkU5nsDuH'
p323
sg8
S'\xe0\xb8\x89\xe0\xb8\xb1\xe0\xb8\x99\xe0\xb9\x80\xe0\xb8\x82\xe0\xb9\x89\xe0\xb8\xb2\xe0\xb9\x83\xe0\xb8\x88 (feat. Room 39 & Two Popetorn)'
p324
ssS'3CEs5Jnov3YkmYn0Vezrcr'
p325
(dp326
g3
S'Wanna One'
p327
sg5
I7
sg6
S'https://open.spotify.com/track/3CEs5Jnov3YkmYn0Vezrcr'
p328
sg8
S'Energetic'
p329
ssS'0XLOf9LhyazPX9Ld8jPiUq'
p330
(dp331
g3
S'Selena Gomez'
p332
sg5
I4
sg6
S'https://open.spotify.com/track/0XLOf9LhyazPX9Ld8jPiUq'
p333
sg8
S'Fetish (feat. Gucci Mane)'
p334
ssS'0kN8xEmgMW9mh7UmDYHlJP'
p335
(dp336
g3
S'Bruno Mars'
p337
sg5
I7
sg6
S'https://open.spotify.com/track/0kN8xEmgMW9mh7UmDYHlJP'
p338
sg8
S'Versace On The Floor'
p339
ssS'1yxgsra98r3qAtxqiGZPiX'
p340
(dp341
g3
S'Travis Scott'
p342
sg5
I3
sg6
S'https://open.spotify.com/track/1yxgsra98r3qAtxqiGZPiX'
p343
sg8
S'Butterfly Effect'
p344
ssS'5aAx2yezTd8zXrkmtKl66Z'
p345
(dp346
g3
S'The Weeknd'
p347
sg5
I7
sg6
S'https://open.spotify.com/track/5aAx2yezTd8zXrkmtKl66Z'
p348
sg8
S'Starboy'
p349
ssS'2OALaHcDdKkjYEpAr0Qzab'
p350
(dp351
g3
S'Avicii'
p352
sg5
I7
sg6
S'https://open.spotify.com/track/2OALaHcDdKkjYEpAr0Qzab'
p353
sg8
S'Lonely Together (feat. Rita Ora)'
p354
ssS'1H0gOyCNo1NKWFmM8VMIeN'
p355
(dp356
g3
S'KLEAR'
p357
sg5
I7
sg6
S'https://open.spotify.com/track/1H0gOyCNo1NKWFmM8VMIeN'
p358
sg8
S'\xe0\xb8\x84\xe0\xb8\xa3\xe0\xb8\xb1\xe0\xb9\x89\xe0\xb8\x87\xe0\xb8\xab\xe0\xb8\x99\xe0\xb8\xb6\xe0\xb9\x88\xe0\xb8\x87\xe0\xb9\x84\xe0\xb8\xa1\xe0\xb9\x88\xe0\xb8\x96\xe0\xb8\xb6\xe0\xb8\x87\xe0\xb8\x95\xe0\xb8\xb2\xe0\xb8\xa2'
p359
ssS'7fwXWKdDNI5IutOMc5OKYw'
p360
(dp361
g3
S'J Balvin'
p362
sg5
I2
sg6
S'https://open.spotify.com/track/7fwXWKdDNI5IutOMc5OKYw'
p363
sg8
S'Mi Gente (feat. Beyonc\xc3\xa9)'
p364
ssS'4hrpoqJMVE7FxBu1YWx0eQ'
p365
(dp366
g3
S'BTS'
p367
sg5
I6
sg6
S'https://open.spotify.com/track/4hrpoqJMVE7FxBu1YWx0eQ'
p368
sg8
S'Not Today'
p369
ssS'3F5jmTgXeY1zS2ATt4cR7L'
p370
(dp371
g3
S'Namm Ronnadet'
p372
sg5
I5
sg6
S'https://open.spotify.com/track/3F5jmTgXeY1zS2ATt4cR7L'
p373
sg8
S'\xe0\xb8\x88\xe0\xb8\xb5\xe0\xb8\x9a...(May I)'
p374
ssS'6iu311jZAJFLPgoIWgrA72'
p375
(dp376
g3
S'BIGBANG'
p377
sg5
I6
sg6
S'https://open.spotify.com/track/6iu311jZAJFLPgoIWgrA72'
p378
sg8
S'BANG BANG BANG - KR ver.'
p379
ssS'0Zbbxnx4SGGHoIow4PpISP'
p380
(dp381
g3
S'Kygo'
p382
sg5
I3
sg6
S'https://open.spotify.com/track/0Zbbxnx4SGGHoIow4PpISP'
p383
sg8
S'Stargazing'
p384
ssS'1OmcAT5Y8eg5bUPv9qJT4R'
p385
(dp386
g3
S'Post Malone'
p387
sg5
I3
sg6
S'https://open.spotify.com/track/1OmcAT5Y8eg5bUPv9qJT4R'
p388
sg8
S'rockstar'
p389
ssS'53YZi9zgTnF0Py0K6ejyWz'
p390
(dp391
g3
S'EXO'
p392
sg5
I5
sg6
S'https://open.spotify.com/track/53YZi9zgTnF0Py0K6ejyWz'
p393
sg8
S'Power'
p394
ssS'68EMU2RD1ECNeOeJ5qAXCV'
p395
(dp396
g3
S'Charlie Puth'
p397
sg5
I7
sg6
S'https://open.spotify.com/track/68EMU2RD1ECNeOeJ5qAXCV'
p398
sg8
S"We Don't Talk Anymore (feat. Selena Gomez)"
p399
ssS'3b5Li4QKDVBx1x7fQuu54a'
p400
(dp401
g3
S'Alan Walker'
p402
sg5
I7
sg6
S'https://open.spotify.com/track/3b5Li4QKDVBx1x7fQuu54a'
p403
sg8
S'Tired'
p404
ssS'4054xwBz6ZYo1y2Ab6Yqx1'
p405
(dp406
g3
S'Thaitanium'
p407
sg5
I2
sg6
S'https://open.spotify.com/track/4054xwBz6ZYo1y2Ab6Yqx1'
p408
sg8
S'TURNT'
p409
ssS'5KchTsXkMzTri0BCXDDcnN'
p410
(dp411
g3
S'Petchtan'
p412
sg5
I2
sg6
S'https://open.spotify.com/track/5KchTsXkMzTri0BCXDDcnN'
p413
sg8
S'\xe0\xb9\x80\xe0\xb8\x88\xe0\xb9\x87\xe0\xb8\x9a\xe0\xb8\xa5\xe0\xb8\xb0\xe0\xb9\x80\xe0\xb8\x99\xe0\xb8\xb2\xe0\xb8\xb0'
p414
ssS'1j4kHkkpqZRBwE0A4CN4Yv'
p415
(dp416
g3
S'ZAYN'
p417
sg5
I5
sg6
S'https://open.spotify.com/track/1j4kHkkpqZRBwE0A4CN4Yv'
p418
sg8
S'Dusk Till Dawn - Radio Edit'
p419
ssS'3y7ByLZ05tluscOTRgEJ9Y'
p420
(dp421
g3
S'IU'
p422
sg5
I3
sg6
S'https://open.spotify.com/track/3y7ByLZ05tluscOTRgEJ9Y'
p423
sg8
S'Palette (Feat. G-DRAGON)'
p424
ssS'5XiZK7m9PLppgIzJBpw2x5'
p425
(dp426
g3
S'Martin Jensen'
p427
sg5
I2
sg6
S'https://open.spotify.com/track/5XiZK7m9PLppgIzJBpw2x5'
p428
sg8
S'Wait'
p429
ssS'3DXncPQOG4VBw3QHh3S817'
p430
(dp431
g3
S'DJ Khaled'
p432
sg5
I7
sg6
S'https://open.spotify.com/track/3DXncPQOG4VBw3QHh3S817'
p433
sg8
S"I'm the One"
p434
ssS'3UMjZ9bAT1AnpcWD4aKyP8'
p435
(dp436
g3
S'AKDONG MUSICIAN'
p437
sg5
I1
sg6
S'https://open.spotify.com/track/3UMjZ9bAT1AnpcWD4aKyP8'
p438
sg8
S'DINOSAUR'
p439
ssS'54BVTgTpCjK8cRhTFDjHNK'
p440
(dp441
g3
S'Room 39'
p442
sg5
I7
sg6
S'https://open.spotify.com/track/54BVTgTpCjK8cRhTFDjHNK'
p443
sg8
S'\xe0\xb9\x80\xe0\xb8\x9b\xe0\xb9\x87\xe0\xb8\x99\xe0\xb8\x97\xe0\xb8\xb8\xe0\xb8\x81\xe0\xb8\xad\xe0\xb8\xa2\xe0\xb9\x88\xe0\xb8\xb2\xe0\xb8\x87'
p444
ssS'7bJwvubZZaoGE1AGEfu8Fi'
p445
(dp446
g3
S'Ariana Grande'
p447
sg5
I3
sg6
S'https://open.spotify.com/track/7bJwvubZZaoGE1AGEfu8Fi'
p448
sg8
S'One Last Time'
p449
ssS'2Za1AlJNvksouPPWbXpR2X'
p450
(dp451
g3
S'Macklemore'
p452
sg5
I3
sg6
S'https://open.spotify.com/track/2Za1AlJNvksouPPWbXpR2X'
p453
sg8
S'Good Old Days (feat. Kesha)'
p454
ssS'095rDYLjAHYmis3vU8gRxo'
p455
(dp456
g3
S'Sons of People'
p457
sg5
I6
sg6
S'https://open.spotify.com/track/095rDYLjAHYmis3vU8gRxo'
p458
sg8
S'NEVER'
p459
ssS'2QWP8NYYplOqEFBYGCcq0S'
p460
(dp461
g3
S'The Script'
p462
sg5
I6
sg6
S'https://open.spotify.com/track/2QWP8NYYplOqEFBYGCcq0S'
p463
sg8
S'Rain'
p464
ssS'3o8QzWsiiqTUVgBZfHgF58'
p465
(dp466
g3
S'NCT 127'
p467
sg5
I4
sg6
S'https://open.spotify.com/track/3o8QzWsiiqTUVgBZfHgF58'
p468
sg8
S'Cherry Bomb'
p469
ssS'1u8c2t2Cy7UBoG4ArRcF5g'
p470
(dp471
g3
S'Taylor Swift'
p472
sg5
I7
sg6
S'https://open.spotify.com/track/1u8c2t2Cy7UBoG4ArRcF5g'
p473
sg8
S'Blank Space'
p474
ssS'72jbDTw1piOOj770jWNeaG'
p475
(dp476
g3
S'The Chainsmokers'
p477
sg5
I7
sg6
S'https://open.spotify.com/track/72jbDTw1piOOj770jWNeaG'
p478
sg8
S'Paris'
p479
ssS'0FlZM6SFefxfXzX68IpVxb'
p480
(dp481
g3
S'Non Tanon'
p482
sg5
I5
sg6
S'https://open.spotify.com/track/0FlZM6SFefxfXzX68IpVxb'
p483
sg8
S'\xe0\xb8\x9d\xe0\xb8\xb7\xe0\xb8\x99\xe0\xb8\x95\xe0\xb8\xb1\xe0\xb8\xa7\xe0\xb9\x80\xe0\xb8\xad\xe0\xb8\x87\xe0\xb9\x84\xe0\xb8\xa1\xe0\xb9\x88\xe0\xb9\x80\xe0\xb8\x9b\xe0\xb9\x87\xe0\xb8\x99'
p484
ssS'77ADZDyRxjuSRPHZtoffit'
p485
(dp486
g3
S'25 hours'
p487
sg5
I1
sg6
S'https://open.spotify.com/track/77ADZDyRxjuSRPHZtoffit'
p488
sg8
S'\xe0\xb8\xa4\xe0\xb8\x94\xe0\xb8\xb9\xe0\xb8\x81\xe0\xb8\xb2\xe0\xb8\xa5'
p489
ssS'3zskFunjono7DIKxEjkxZU'
p490
(dp491
g3
S'The Others'
p492
sg5
I3
sg6
S'https://open.spotify.com/track/3zskFunjono7DIKxEjkxZU'
p493
sg8
S'\xe0\xb8\xad\xe0\xb8\xa2\xe0\xb9\x88\xe0\xb8\xb2\xe0\xb8\x84\xe0\xb8\xb4\xe0\xb8\x94\xe0\xb8\xa1\xe0\xb8\xb2\xe0\xb8\x81'
p494
ssS'6FemVsNUb2lzWsDRm14FUJ'
p495
(dp496
g3
S'The Script'
p497
sg5
I1
sg6
S'https://open.spotify.com/track/6FemVsNUb2lzWsDRm14FUJ'
p498
sg8
S'Rain'
p499
ssS'4jyVtsexyS1kY6X3X3gmAw'
p500
(dp501
g3
S'The Script'
p502
sg5
I1
sg6
S'https://open.spotify.com/track/4jyVtsexyS1kY6X3X3gmAw'
p503
sg8
S'Written in the Scars'
p504
ssS'6QCNYRB8RHXGaRlITuWRgL'
p505
(dp506
g3
S'Red Velvet'
p507
sg5
I1
sg6
S'https://open.spotify.com/track/6QCNYRB8RHXGaRlITuWRgL'
p508
sg8
S'\xed\x99\x98\xec\x83\x9d Rebirth'
p509
ssS'3fVnlF4pGqWI9flVENcT28'
p510
(dp511
g3
S'Taylor Swift'
p512
sg5
I3
sg6
S'https://open.spotify.com/track/3fVnlF4pGqWI9flVENcT28'
p513
sg8
S'Wildest Dreams'
p514
ssS'2zTVmGKsggygR9cvw95Y8B'
p515
(dp516
g3
S'BNK48'
p517
sg5
I1
sg6
S'https://open.spotify.com/track/2zTVmGKsggygR9cvw95Y8B'
p518
sg8
S'Aitakatta \xe0\xb8\xad\xe0\xb8\xa2\xe0\xb8\xb2\xe0\xb8\x81\xe0\xb8\x88\xe0\xb8\xb0\xe0\xb9\x84\xe0\xb8\x94\xe0\xb9\x89\xe0\xb8\x9e\xe0\xb8\x9a\xe0\xb9\x80\xe0\xb8\x98\xe0\xb8\xad'
p519
ssS'7iV733e1KacKrFRaBNxVEf'
p520
(dp521
g3
S'BTS'
p522
sg5
I4
sg6
S'https://open.spotify.com/track/7iV733e1KacKrFRaBNxVEf'
p523
sg8
S'Intro: Serendipity'
p524
ssS'3RlcLpMmRvSd84Uw6Yt4Iw'
p525
(dp526
g3
S'BTS'
p527
sg5
I5
sg6
S'https://open.spotify.com/track/3RlcLpMmRvSd84Uw6Yt4Iw'
p528
sg8
S'I Need U'
p529
ssS'0dA2Mk56wEzDgegdC6R17g'
p530
(dp531
g3
S'Zedd'
p532
sg5
I7
sg6
S'https://open.spotify.com/track/0dA2Mk56wEzDgegdC6R17g'
p533
sg8
S'Stay (with Alessia Cara)'
p534
ssS'13OiQUzHROJBNGRxcs7nSu'
p535
(dp536
g3
S'Keng Tachaya'
p537
sg5
I6
sg6
S'https://open.spotify.com/track/13OiQUzHROJBNGRxcs7nSu'
p538
sg8
S"\xe0\xb8\xab\xe0\xb8\xb1\xe0\xb8\xa7\xe0\xb9\x83\xe0\xb8\x88\xe0\xb8\x97\xe0\xb8\xa8\xe0\xb8\x81\xe0\xb8\xb1\xe0\xb8\x93\xe0\xb8\x90\xe0\xb9\x8c(Devil's Heart)"
p539
ssS'2kLf4myxQME1Nd0voeKZri'
p540
(dp541
g3
S'Mike Perry'
p542
sg5
I5
sg6
S'https://open.spotify.com/track/2kLf4myxQME1Nd0voeKZri'
p543
sg8
S'Stay Young'
p544
ssS'3Ytr1SUCUi6J3L9dRFx5iH'
p545
(dp546
g3
S'Major Lazer'
p547
sg5
I1
sg6
S'https://open.spotify.com/track/3Ytr1SUCUi6J3L9dRFx5iH'
p548
sg8
S'Know No Better (feat. Quavo)'
p549
ssS'7AvXrOVEVRcfXxme2wo6Im'
p550
(dp551
g3
S'Red Velvet'
p552
sg5
I6
sg6
S'https://open.spotify.com/track/7AvXrOVEVRcfXxme2wo6Im'
p553
sg8
S'\xeb\x9f\xac\xec\x8b\x9c\xec\x95\x88 \xeb\xa3\xb0\xeb\xa0\x9b Russian Roulette'
p554
ssS'7nZmah2llfvLDiUjm0kiyz'
p555
(dp556
g3
S'Justin Bieber'
p557
sg5
I7
sg6
S'https://open.spotify.com/track/7nZmah2llfvLDiUjm0kiyz'
p558
sg8
S'Friends (with BloodPop\xc2\xae)'
p559
ssS'7MHN1aCFtLXjownGhvEQlF'
p560
(dp561
g3
S'Manuel Turizo'
p562
sg5
I1
sg6
S'https://open.spotify.com/track/7MHN1aCFtLXjownGhvEQlF'
p563
sg8
S'Una Lady Como T\xc3\xba'
p564
ssS'4N1o0l5n8NFq2gQeWSHHcs'
p565
(dp566
g3
S'MXM (BRANDNEW BOYS)'
p567
sg5
I1
sg6
S'https://open.spotify.com/track/4N1o0l5n8NFq2gQeWSHHcs'
p568
sg8
S"I'M THE ONE"
p569
ssS'6m5sX3sT8egiC6hqQuU382'
p570
(dp571
g3
S'Jaonaay'
p572
sg5
I7
sg6
S'https://open.spotify.com/track/6m5sX3sT8egiC6hqQuU382'
p573
sg8
S'\xe0\xb8\x84\xe0\xb8\x99\xe0\xb8\xa5\xe0\xb8\xb0\xe0\xb8\x8a\xe0\xb8\xb1\xe0\xb9\x89\xe0\xb8\x99'
p574
ssS'2ujA6F1cpk3m8lsPE5aKua'
p575
(dp576
g3
S'EXO'
p577
sg5
I7
sg6
S'https://open.spotify.com/track/2ujA6F1cpk3m8lsPE5aKua'
p578
sg8
S'\xec\xa0\x84\xec\x95\xbc \xe5\x89\x8d\xe5\xa4\x9c The Eve'
p579
ssS'4URCEQmgwuwaHiySIqGmIa'
p580
(dp581
g3
S'PORTRAIT'
p582
sg5
I7
sg6
S'https://open.spotify.com/track/4URCEQmgwuwaHiySIqGmIa'
p583
sg8
S'\xe0\xb9\x80\xe0\xb8\x88\xe0\xb9\x87\xe0\xb8\x9a\xe0\xb8\x88\xe0\xb8\x99\xe0\xb9\x84\xe0\xb8\xa1\xe0\xb9\x88\xe0\xb9\x80\xe0\xb8\x82\xe0\xb9\x89\xe0\xb8\xb2\xe0\xb9\x83\xe0\xb8\x88'
p584
ssS'4empzWZswsmif6NaN3ZPjK'
p585
(dp586
g3
S'Palaphol'
p587
sg5
I2
sg6
S'https://open.spotify.com/track/4empzWZswsmif6NaN3ZPjK'
p588
sg8
S'\xe0\xb9\x83\xe0\xb8\x84\xe0\xb8\xa3\xe0\xb8\x84\xe0\xb8\x99\xe0\xb8\x99\xe0\xb8\xb1\xe0\xb9\x89\xe0\xb8\x99'
p589
ssS'5tz69p7tJuGPeMGwNTxYuV'
p590
(dp591
g3
S'Logic'
p592
sg5
I7
sg6
S'https://open.spotify.com/track/5tz69p7tJuGPeMGwNTxYuV'
p593
sg8
S'1-800-273-8255'
p594
ssS'0ffweDHrg4bZqdG4IfGYuo'
p595
(dp596
g3
S'BTS'
p597
sg5
I4
sg6
S'https://open.spotify.com/track/0ffweDHrg4bZqdG4IfGYuo'
p598
sg8
S'Pied Piper'
p599
ssS'6WbADFqMvR8N5u0BvtsWQE'
p600
(dp601
g3
S'Avicii'
p602
sg5
I7
sg6
S'https://open.spotify.com/track/6WbADFqMvR8N5u0BvtsWQE'
p603
sg8
S'Without You (feat. Sandro Cavazza)'
p604
ssS'75JFxkI2RXiU7L9VXzMkle'
p605
(dp606
g3
S'Coldplay'
p607
sg5
I6
sg6
S'https://open.spotify.com/track/75JFxkI2RXiU7L9VXzMkle'
p608
sg8
S'The Scientist'
p609
ssS'7AEAGTc8cReDqcbPoY9gwo'
p610
(dp611
g3
S'Taylor Swift'
p612
sg5
I2
sg6
S'https://open.spotify.com/track/7AEAGTc8cReDqcbPoY9gwo'
p613
sg8
S'We Are Never Ever Getting Back Together'
p614
ssS'0fSl800MbFmlLs1aUxx7Z2'
p615
(dp616
g3
S'Portrait'
p617
sg5
I2
sg6
S'https://open.spotify.com/track/0fSl800MbFmlLs1aUxx7Z2'
p618
sg8
S'\xe0\xb9\x82\xe0\xb8\xa5\xe0\xb8\x81\xe0\xb8\x97\xe0\xb8\xb5\xe0\xb9\x88\xe0\xb9\x84\xe0\xb8\xa1\xe0\xb9\x88\xe0\xb8\xa1\xe0\xb8\xb5\xe0\xb9\x80\xe0\xb8\x98\xe0\xb8\xad'
p619
ssS'3usWyH1du9AWTTxUIMOh79'
p620
(dp621
g3
S'Stamp'
p622
sg5
I6
sg6
S'https://open.spotify.com/track/3usWyH1du9AWTTxUIMOh79'
p623
sg8
S'\xe0\xb8\x84\xe0\xb8\x99\xe0\xb8\x97\xe0\xb8\xb5\xe0\xb9\x88\xe0\xb8\x84\xe0\xb8\xb8\xe0\xb8\x93\xe0\xb8\x81\xe0\xb9\x87\xe0\xb8\xa3\xe0\xb8\xb9\xe0\xb9\x89\xe0\xb8\xa7\xe0\xb9\x88\xe0\xb8\xb2\xe0\xb9\x83\xe0\xb8\x84\xe0\xb8\xa3'
p624
ssS'6Ll3qUTssdGWMxbwhMud2N'
p625
(dp626
g3
S'Nick Jonas'
p627
sg5
I4
sg6
S'https://open.spotify.com/track/6Ll3qUTssdGWMxbwhMud2N'
p628
sg8
S'Find You'
p629
ssS'7y9iMe8SOB6z3NoHE2OfXl'
p630
(dp631
g3
S'Halsey'
p632
sg5
I1
sg6
S'https://open.spotify.com/track/7y9iMe8SOB6z3NoHE2OfXl'
p633
sg8
S'Bad At Love'
p634
ssS'0o7glLPfZgns8ZF14Wlpf7'
p635
(dp636
g3
S'Kelly Clarkson'
p637
sg5
I1
sg6
S'https://open.spotify.com/track/0o7glLPfZgns8ZF14Wlpf7'
p638
sg8
S'Love So Soft'
p639
ssS'2jYmK1cb3Uya6FFsocdpzO'
p640
(dp641
g3
S'Sabrina Carpenter'
p642
sg5
I7
sg6
S'https://open.spotify.com/track/2jYmK1cb3Uya6FFsocdpzO'
p643
sg8
S'Why'
p644
ssS'3fM2nCi0ncKoTUYeiHkPQ2'
p645
(dp646
g3
S'Ploychompoo'
p647
sg5
I3
sg6
S'https://open.spotify.com/track/3fM2nCi0ncKoTUYeiHkPQ2'
p648
sg8
S'\xe0\xb9\x81\xe0\xb8\x9e\xe0\xb9\x89\xe0\xb9\x81\xe0\xb8\xa5\xe0\xb9\x89\xe0\xb8\xa7\xe0\xb8\x9e\xe0\xb8\xb2\xe0\xb8\xa5 (\xe0\xb9\x80\xe0\xb8\x9e\xe0\xb8\xa5\xe0\xb8\x87\xe0\xb8\x9b\xe0\xb8\xa3\xe0\xb8\xb0\xe0\xb8\x81\xe0\xb8\xad\xe0\xb8\x9a Club Friday The Series To Be Continued \xe0\xb8\x95\xe0\xb8\xad\xe0\xb8\x99 \xe0\xb8\xa3\xe0\xb8\xb1\xe0\xb8\x81\xe0\xb8\xa5\xe0\xb8\xad\xe0\xb8\x87\xe0\xb9\x83\xe0\xb8\x88)'
p649
ssS'2jyjhRf6DVbMPU5zxagN2h'
p650
(dp651
g3
S'Passenger'
p652
sg5
I1
sg6
S'https://open.spotify.com/track/2jyjhRf6DVbMPU5zxagN2h'
p653
sg8
S'Let Her Go'
p654
ssS'5aY7gIK5RcdqGaKl7tKJFm'
p655
(dp656
g3
S"JETSET'ER"
p657
sg5
I2
sg6
S'https://open.spotify.com/track/5aY7gIK5RcdqGaKl7tKJFm'
p658
sg8
S'\xe0\xb9\x80\xe0\xb8\x98\xe0\xb8\xad\xe0\xb9\x80\xe0\xb8\x81\xe0\xb9\x88\xe0\xb8\x87'
p659
ssS'3l8yQMdniG6Os8gUBNXV57'
p660
(dp661
g3
S'BTS'
p662
sg5
I4
sg6
S'https://open.spotify.com/track/3l8yQMdniG6Os8gUBNXV57'
p663
sg8
S'Outro: Her'
p664
ssS'79cuOz3SPQTuFrp8WgftAu'
p665
(dp666
g3
S'Shawn Mendes'
p667
sg5
I7
sg6
S'https://open.spotify.com/track/79cuOz3SPQTuFrp8WgftAu'
p668
sg8
S"There's Nothing Holdin' Me Back"
p669
ssS'4c2W3VKsOFoIg2SFaO6DY5'
p670
(dp671
g3
S'Rita Ora'
p672
sg5
I7
sg6
S'https://open.spotify.com/track/4c2W3VKsOFoIg2SFaO6DY5'
p673
sg8
S'Your Song'
p674
ssS'1HYzRuWjmS9LXCkdVHi25K'
p675
(dp676
g3
S'Chanyeol'
p677
sg5
I7
sg6
S'https://open.spotify.com/track/1HYzRuWjmS9LXCkdVHi25K'
p678
sg8
S'Stay With Me'
p679
ssS'3eR23VReFzcdmS7TYCrhCe'
p680
(dp681
g3
S'Kygo'
p682
sg5
I2
sg6
S'https://open.spotify.com/track/3eR23VReFzcdmS7TYCrhCe'
p683
sg8
S"It Ain't Me (with Selena Gomez)"
p684
ssS'2eAZfqOm4EnOF9VvN50Tyc'
p685
(dp686
g3
S'Lil Uzi Vert'
p687
sg5
I3
sg6
S'https://open.spotify.com/track/2eAZfqOm4EnOF9VvN50Tyc'
p688
sg8
S'The Way Life Goes'
p689
ssS'4AyDzfSssIVPriQXxoXCVq'
p690
(dp691
g3
S'BTS'
p692
sg5
I2
sg6
S'https://open.spotify.com/track/4AyDzfSssIVPriQXxoXCVq'
p693
sg8
S'Run'
p694
ssS'19WjVVgXjdKXfLXoaDPwTM'
p695
(dp696
g3
S'Taylor Swift'
p697
sg5
I5
sg6
S'https://open.spotify.com/track/19WjVVgXjdKXfLXoaDPwTM'
p698
sg8
S'...Ready For It?'
p699
ssS'2nChvM2Tyv1ib8AvfCJcOe'
p700
(dp701
g3
S'NCT DREAM'
p702
sg5
I2
sg6
S'https://open.spotify.com/track/2nChvM2Tyv1ib8AvfCJcOe'
p703
sg8
S'We Young'
p704
ssS'100N8P8WYnz9eCYuLYGflV'
p705
(dp706
g3
S'IU'
p707
sg5
I1
sg6
S'https://open.spotify.com/track/100N8P8WYnz9eCYuLYGflV'
p708
sg8
S'\xea\xb0\x80\xec\x9d\x84 \xec\x95\x84\xec\xb9\xa8 [Gaeul Achim] : Autumn morning'
p709
ssS'5EzitieoPnjyKHAq0gfRMa'
p710
(dp711
g3
S'EXO'
p712
sg5
I7
sg6
S'https://open.spotify.com/track/5EzitieoPnjyKHAq0gfRMa'
p713
sg8
S'Ko Ko Bop'
p714
ssS'2tdq0CeAGSfhI2l4Gwkvgx'
p715
(dp716
g3
S'BTS'
p717
sg5
I4
sg6
S'https://open.spotify.com/track/2tdq0CeAGSfhI2l4Gwkvgx'
p718
sg8
S'Best Of Me'
p719
ssS'3hRZsdTF5uyGA2uhNqEuhm'
p720
(dp721
g3
S'Niall Horan'
p722
sg5
I4
sg6
S'https://open.spotify.com/track/3hRZsdTF5uyGA2uhNqEuhm'
p723
sg8
S'Too Much To Ask'
p724
ssS'6lM6yIDZ7kxFsgQCCfaLE2'
p725
(dp726
g3
S'EXO'
p727
sg5
I6
sg6
S'https://open.spotify.com/track/6lM6yIDZ7kxFsgQCCfaLE2'
p728
sg8
S'Monster'
p729
ssS'6eUncuJutsFi9BGO1JaBHh'
p730
(dp731
g3
S'Jason Derulo'
p732
sg5
I4
sg6
S'https://open.spotify.com/track/6eUncuJutsFi9BGO1JaBHh'
p733
sg8
S"If I'm Lucky"
p734
ssS'25C5CowdsfXld2jJanbiex'
p735
(dp736
g3
S'Demi Lovato'
p737
sg5
I5
sg6
S'https://open.spotify.com/track/25C5CowdsfXld2jJanbiex'
p738
sg8
S'Sorry Not Sorry'
p739
ssS'1ejtHfSXQwvaAU7F82FXww'
p740
(dp741
g3
S'Adam Levine'
p742
sg5
I2
sg6
S'https://open.spotify.com/track/1ejtHfSXQwvaAU7F82FXww'
p743
sg8
S'Lost Stars'
p744
ssS'6kzTfWCPewG1E4xMEJ9d9P'
p745
(dp746
g3
S'Thaitanium'
p747
sg5
I1
sg6
S'https://open.spotify.com/track/6kzTfWCPewG1E4xMEJ9d9P'
p748
sg8
S'\xe0\xb9\x84\xe0\xb8\xa1\xe0\xb9\x88 GUARANTEE'
p749
ssS'7m9OqQk4RVRkw9JJdeAw96'
p750
(dp751
g3
S'XXXTENTACION'
p752
sg5
I7
sg6
S'https://open.spotify.com/track/7m9OqQk4RVRkw9JJdeAw96'
p753
sg8
S'Jocelyn Flores'
p754
ssS'3YxN5Jakhag4zN7OE3IcL8'
p755
(dp756
g3
S'Sugar Eyes'
p757
sg5
I2
sg6
S'https://open.spotify.com/track/3YxN5Jakhag4zN7OE3IcL8'
p758
sg8
S'\xe0\xb8\xaa\xe0\xb8\xb2\xe0\xb8\xa2\xe0\xb8\x95\xe0\xb8\xb2\xe0\xb8\xa2\xe0\xb8\xb2\xe0\xb8\xa7'
p759
ssS'6De0lHrwBfPfrhorm9q1Xl'
p760
(dp761
g3
S'Danny Ocean'
p762
sg5
I7
sg6
S'https://open.spotify.com/track/6De0lHrwBfPfrhorm9q1Xl'
p763
sg8
S'Me Reh\xc3\xbaso'
p764
ssS'65MOTX6uSFAnqXl7dlAuId'
p765
(dp766
g3
S'Demi Lovato'
p767
sg5
I2
sg6
S'https://open.spotify.com/track/65MOTX6uSFAnqXl7dlAuId'
p768
sg8
S'Tell Me You Love Me'
p769
ssS'5edBgVtRD0fvWk140Sl21T'
p770
(dp771
g3
S'OneRepublic'
p772
sg5
I2
sg6
S'https://open.spotify.com/track/5edBgVtRD0fvWk140Sl21T'
p773
sg8
S'Counting Stars'
p774
ssS'3ryjLm3oupIjJFGc39naNi'
p775
(dp776
g3
S'BTS'
p777
sg5
I4
sg6
S'https://open.spotify.com/track/3ryjLm3oupIjJFGc39naNi'
p778
sg8
S'dimple'
p779
ssS'0cqRj7pUJDkTCEsJkx8snD'
p780
(dp781
g3
S'Taylor Swift'
p782
sg5
I3
sg6
S'https://open.spotify.com/track/0cqRj7pUJDkTCEsJkx8snD'
p783
sg8
S'Shake It Off'
p784
ssS'3HVr6jTVwBHBa2flM0eURR'
p785
(dp786
g3
S'Macklemore'
p787
sg5
I4
sg6
S'https://open.spotify.com/track/3HVr6jTVwBHBa2flM0eURR'
p788
sg8
S'Glorious (feat. Skylar Grey)'
p789
ssS'3V9DfRoS7JfSkuTyNEsCxQ'
p790
(dp791
g3
S'Martin Jensen'
p792
sg5
I4
sg6
S'https://open.spotify.com/track/3V9DfRoS7JfSkuTyNEsCxQ'
p793
sg8
S'Wait'
p794
ssS'6EpRaXYhGOB3fj4V2uDkMJ'
p795
(dp796
g3
S'Liam Payne'
p797
sg5
I7
sg6
S'https://open.spotify.com/track/6EpRaXYhGOB3fj4V2uDkMJ'
p798
sg8
S'Strip That Down'
p799
ssS'1wjzFQodRWrPcQ0AnYnvQ9'
p800
(dp801
g3
S'Lauv'
p802
sg5
I7
sg6
S'https://open.spotify.com/track/1wjzFQodRWrPcQ0AnYnvQ9'
p803
sg8
S'I Like Me Better'
p804
ssS'51PIvodunv6NmX5250zxAh'
p805
(dp806
g3
S'Lady Gaga'
p807
sg5
I5
sg6
S'https://open.spotify.com/track/51PIvodunv6NmX5250zxAh'
p808
sg8
S'The Cure'
p809
ssS'2hwjzwVgSCtCWJnnQmk0sf'
p810
(dp811
g3
S'Cocktail'
p812
sg5
I2
sg6
S'https://open.spotify.com/track/2hwjzwVgSCtCWJnnQmk0sf'
p813
sg8
S'\xe0\xb8\x97\xe0\xb8\xb3\xe0\xb8\x94\xe0\xb8\xb5\xe0\xb9\x84\xe0\xb8\xa1\xe0\xb9\x88\xe0\xb9\x80\xe0\xb8\x84\xe0\xb8\xa2\xe0\xb8\x88\xe0\xb8\xb3'
p814
ssS'1dwX0d0oOC3gpSorC0Z0OS'
p815
(dp816
g3
S'Lipta'
p817
sg5
I1
sg6
S'https://open.spotify.com/track/1dwX0d0oOC3gpSorC0Z0OS'
p818
sg8
S'\xe0\xb8\xad\xe0\xb8\xad\xe0\xb8\x81\xe0\xb8\x95\xe0\xb8\xb1\xe0\xb8\xa7 (\xe0\xb9\x80\xe0\xb8\x9e\xe0\xb8\xa5\xe0\xb8\x87\xe0\xb8\x9b\xe0\xb8\xa3\xe0\xb8\xb0\xe0\xb8\x81\xe0\xb8\xad\xe0\xb8\x9a\xe0\xb8\x8b\xe0\xb8\xb5\xe0\xb8\xa3\xe0\xb8\xb5\xe0\xb8\xaa\xe0\xb9\x8c My Dear Loser \xe0\xb8\xa3\xe0\xb8\xb1\xe0\xb8\x81\xe0\xb9\x84\xe0\xb8\xa1\xe0\xb9\x88\xe0\xb9\x80\xe0\xb8\xad\xe0\xb8\xb2\xe0\xb8\x96\xe0\xb9\x88\xe0\xb8\xb2\xe0\xb8\x99)'
p819
ssS'7iDa6hUg2VgEL1o1HjmfBn'
p820
(dp821
g3
S'Bebe Rexha'
p822
sg5
I4
sg6
S'https://open.spotify.com/track/7iDa6hUg2VgEL1o1HjmfBn'
p823
sg8
S'Meant to Be (feat. Florida Georgia Line)'
p824
ssS'0qYTZCo5Bwh1nsUFGZP3zn'
p825
(dp826
g3
S'Maluma'
p827
sg5
I6
sg6
S'https://open.spotify.com/track/0qYTZCo5Bwh1nsUFGZP3zn'
p828
sg8
S'Felices los 4'
p829
ssS'5eVmR3LXaUuJ4dgXfwcvsx'
p830
(dp831
g3
S'Pop Pongkool'
p832
sg5
I2
sg6
S'https://open.spotify.com/track/5eVmR3LXaUuJ4dgXfwcvsx'
p833
sg8
S'\xe0\xb8\x9b\xe0\xb8\xa5\xe0\xb9\x88\xe0\xb8\xad\xe0\xb8\xa2'
p834
ssS'5Z3GHaZ6ec9bsiI5BenrbY'
p835
(dp836
g3
S'Khalid'
p837
sg5
I7
sg6
S'https://open.spotify.com/track/5Z3GHaZ6ec9bsiI5BenrbY'
p838
sg8
S'Young Dumb & Broke'
p839
ssS'0OCOoJ0TVcCLRCBFycKgnF'
p840
(dp841
g3
S'Pun Basher'
p842
sg5
I5
sg6
S'https://open.spotify.com/track/0OCOoJ0TVcCLRCBFycKgnF'
p843
sg8
S'\xe0\xb8\x97\xe0\xb8\x94\xe0\xb8\xa5\xe0\xb8\xad\xe0\xb8\x87\xe0\xb9\x83\xe0\xb8\x8a\xe0\xb9\x89'
p844
ssS'0Xa7b1Kw7I08dD2k7zZKtV'
p845
(dp846
g3
S'Anjulie'
p847
sg5
I5
sg6
S'https://open.spotify.com/track/0Xa7b1Kw7I08dD2k7zZKtV'
p848
sg8
S'Where The Love Goes'
p849
ssS'6fOPuabPdAJ0HgqJFcDGb1'
p850
(dp851
g3
S'OneRepublic'
p852
sg5
I2
sg6
S'https://open.spotify.com/track/6fOPuabPdAJ0HgqJFcDGb1'
p853
sg8
S'Apologize'
p854
ssS'3ElQaABWL55eqagqUocEYW'
p855
(dp856
g3
S'Palmy'
p857
sg5
I7
sg6
S'https://open.spotify.com/track/3ElQaABWL55eqagqUocEYW'
p858
sg8
S'\xe0\xb8\x99\xe0\xb8\xa7\xe0\xb8\x94'
p859
ssS'1ipE3bBLWeLkIvxWUaxpSu'
p860
(dp861
g3
S'P!nk'
p862
sg5
I2
sg6
S'https://open.spotify.com/track/1ipE3bBLWeLkIvxWUaxpSu'
p863
sg8
S'Beautiful Trauma'
p864
ssS'7zgqtptZvhf8GEmdsM2vp2'
p865
(dp866
g3
S'Taylor Swift'
p867
sg5
I1
sg6
S'https://open.spotify.com/track/7zgqtptZvhf8GEmdsM2vp2'
p868
sg8
S'...Ready For It?'
p869
ssS'5oAgI7Pzg6vxuKrfapg3Pi'
p870
(dp871
g3
S'Martin Garrix'
p872
sg5
I1
sg6
S'https://open.spotify.com/track/5oAgI7Pzg6vxuKrfapg3Pi'
p873
sg8
S'Pizza'
p874
ssS'7AQim7LbvFVZJE3O8TYgf2'
p875
(dp876
g3
S'XXXTENTACION'
p877
sg5
I2
sg6
S'https://open.spotify.com/track/7AQim7LbvFVZJE3O8TYgf2'
p878
sg8
S'Fuck Love (feat. Trippie Redd)'
p879
ssS'4aWmUDTfIPGksMNLV2rQP2'
p880
(dp881
g3
S'Luis Fonsi'
p882
sg5
I4
sg6
S'https://open.spotify.com/track/4aWmUDTfIPGksMNLV2rQP2'
p883
sg8
S'Despacito (Featuring Daddy Yankee)'
p884
ssS'1OlInnJssr9pXY0Ooa0SDT'
p885
(dp886
g3
S'Marc Tatchapon'
p887
sg5
I7
sg6
S'https://open.spotify.com/track/1OlInnJssr9pXY0Ooa0SDT'
p888
sg8
S'\xe0\xb8\xa2\xe0\xb8\xb1\xe0\xb8\x87\xe0\xb8\x84\xe0\xb8\xb4\xe0\xb8\x94\xe0\xb8\x96\xe0\xb8\xb6\xe0\xb8\x87...(Same)'
p889
ssS'31MkGwj0SWgZaTvEt5Hgxv'
p890
(dp891
g3
S'P!nk'
p892
sg5
I7
sg6
S'https://open.spotify.com/track/31MkGwj0SWgZaTvEt5Hgxv'
p893
sg8
S'What About Us'
p894
ssS'1OAh8uOEOvTDqkKFsKksCi'
p895
(dp896
g3
S'DJ Khaled'
p897
sg5
I7
sg6
S'https://open.spotify.com/track/1OAh8uOEOvTDqkKFsKksCi'
p898
sg8
S'Wild Thoughts'
p899
ssS'18c39avnbmFvihzjBJFnFi'
p900
(dp901
g3
S'The 1975'
p902
sg5
I1
sg6
S'https://open.spotify.com/track/18c39avnbmFvihzjBJFnFi'
p903
sg8
S'Milk'
p904
ssS'0xpkfml0e404bgSA0C9U2T'
p905
(dp906
g3
S'BANKK CA$H'
p907
sg5
I6
sg6
S'https://open.spotify.com/track/0xpkfml0e404bgSA0C9U2T'
p908
sg8
S'\xe0\xb8\x9a\xe0\xb8\x97\xe0\xb8\xaa\xe0\xb8\xb8\xe0\xb8\x94\xe0\xb8\x97\xe0\xb9\x89\xe0\xb8\xb2\xe0\xb8\xa2 Feat.DA Endorphine'
p909
ssS'62OEnIdw0jYZWz2WJTFlmI'
p910
(dp911
g3
S'SIN'
p912
sg5
I2
sg6
S'https://open.spotify.com/track/62OEnIdw0jYZWz2WJTFlmI'
p913
sg8
S'\xe0\xb9\x80\xe0\xb8\x98\xe0\xb8\xad\xe0\xb9\x80\xe0\xb8\x9b\xe0\xb8\xa5\xe0\xb8\xb5\xe0\xb9\x88\xe0\xb8\xa2\xe0\xb8\x99\xe0\xb9\x84\xe0\xb8\x9b\xe0\xb9\x81\xe0\xb8\xa5\xe0\xb9\x89\xe0\xb8\xa7'
p914
ssS'38GbQx7pmafGeVhB0Zqokb'
p915
(dp916
g3
S'New & Jiew'
p917
sg5
I1
sg6
S'https://open.spotify.com/track/38GbQx7pmafGeVhB0Zqokb'
p918
sg8
S'\xe0\xb8\x96\xe0\xb9\x89\xe0\xb8\xb2\xe0\xb8\x89\xe0\xb8\xb1\xe0\xb8\x99\xe0\xb9\x84\xe0\xb8\x94\xe0\xb9\x89\xe0\xb8\x81\xe0\xb8\xa5\xe0\xb8\xb1\xe0\xb8\x9a\xe0\xb9\x84\xe0\xb8\x9b'
p919
ssS'5CclbtfH4QbBDF3lT4D8Ue'
p920
(dp921
g3
S'S.D.F'
p922
sg5
I4
sg6
S'https://open.spotify.com/track/5CclbtfH4QbBDF3lT4D8Ue'
p923
sg8
S'\xe0\xb8\xa2\xe0\xb8\xb4\xe0\xb8\x99\xe0\xb8\x94\xe0\xb8\xb5\xe0\xb8\x97\xe0\xb8\xb5\xe0\xb9\x88\xe0\xb9\x84\xe0\xb8\x94\xe0\xb9\x89\xe0\xb8\xa3\xe0\xb8\xb1\xe0\xb8\x81'
p924
ssS'5eqK0tbzUPo2SoeZsov04s'
p925
(dp926
g3
S'21 Savage'
p927
sg5
I4
sg6
S'https://open.spotify.com/track/5eqK0tbzUPo2SoeZsov04s'
p928
sg8
S'Bank Account'
p929
ssS'0W363qrIc4GwuwOqa0WAEO'
p930
(dp931
g3
S'Gryffin'
p932
sg5
I1
sg6
S'https://open.spotify.com/track/0W363qrIc4GwuwOqa0WAEO'
p933
sg8
S'Nobody Compares To You'
p934
ssS'35xujz4rBKjBkVLx2AoD6Y'
p935
(dp936
g3
S'Pang Nakarin'
p937
sg5
I6
sg6
S'https://open.spotify.com/track/35xujz4rBKjBkVLx2AoD6Y'
p938
sg8
S'\xe0\xb8\x97\xe0\xb8\xb8\xe0\xb8\x81\xe0\xb8\x84\xe0\xb8\x99\xe0\xb9\x80\xe0\xb8\x84\xe0\xb8\xa2\xe0\xb8\xa3\xe0\xb9\x89\xe0\xb8\xad\xe0\xb8\x87\xe0\xb9\x84\xe0\xb8\xab\xe0\xb9\x89'
p939
ssS'4s4zrY6U42qAbFVcSDpRm5'
p940
(dp941
g3
S'Boom Boom Cash'
p942
sg5
I3
sg6
S'https://open.spotify.com/track/4s4zrY6U42qAbFVcSDpRm5'
p943
sg8
S'Clean food (feat. Fukking Hero)'
p944
ssS'6dr6QeqH62tYUiPezRbinq'
p945
(dp946
g3
S'BTS'
p947
sg5
I5
sg6
S'https://open.spotify.com/track/6dr6QeqH62tYUiPezRbinq'
p948
sg8
S'Dope'
p949
ssS'3A7qX2QjDlPnazUsRk5y0M'
p950
(dp951
g3
S'David Guetta'
p952
sg5
I7
sg6
S'https://open.spotify.com/track/3A7qX2QjDlPnazUsRk5y0M'
p953
sg8
S'2U (feat. Justin Bieber)'
p954
ssS'4MSnsmZbrh25VE8IJcZufb'
p955
(dp956
g3
S'Peck Palitchoke'
p957
sg5
I7
sg6
S'https://open.spotify.com/track/4MSnsmZbrh25VE8IJcZufb'
p958
sg8
S'\xe0\xb9\x82\xe0\xb8\x97\xe0\xb8\xa9\xe0\xb8\x97\xe0\xb8\xb5\xe0\xb9\x88\xe0\xb9\x80\xe0\xb8\xad\xe0\xb8\xb2\xe0\xb9\x81\xe0\xb8\x95\xe0\xb9\x88\xe0\xb9\x83\xe0\xb8\x88 (sorry)'
p959
ssS'0Wv5wuenRLI3BcwgT3HPIP'
p960
(dp961
g3
S'DJ Snake'
p962
sg5
I3
sg6
S'https://open.spotify.com/track/0Wv5wuenRLI3BcwgT3HPIP'
p963
sg8
S'A Different Way (with Lauv)'
p964
ssS'0m2orA1i5lLZUOt9XLwSd0'
p965
(dp966
g3
S'Fifth Harmony'
p967
sg5
I1
sg6
S'https://open.spotify.com/track/0m2orA1i5lLZUOt9XLwSd0'
p968
sg8
S'He Like That'
p969
ssS'12SCPvDuy54Tl8H2jSELxF'
p970
(dp971
g3
S'Fifth Harmony'
p972
sg5
I1
sg6
S'https://open.spotify.com/track/12SCPvDuy54Tl8H2jSELxF'
p973
sg8
S"Don't Say You Love Me"
p974
ssS'5S2aCEv3wt0bukp7nmhw52'
p975
(dp976
g3
S'The Mousses'
p977
sg5
I7
sg6
S'https://open.spotify.com/track/5S2aCEv3wt0bukp7nmhw52'
p978
sg8
S'\xe0\xb8\xad\xe0\xb8\xa2\xe0\xb9\x88\xe0\xb8\xb2\xe0\xb9\x80\xe0\xb8\x9e\xe0\xb8\xb4\xe0\xb9\x88\xe0\xb8\x87\xe0\xb9\x83\xe0\xb8\x88\xe0\xb8\xa3\xe0\xb9\x89\xe0\xb8\xb2\xe0\xb8\xa2 FEAT. URBOY TJ'
p979
ssS'6Rpj87GuuE59nij1NVmpzD'
p980
(dp981
g3
S'Buddha Bless'
p982
sg5
I7
sg6
S'https://open.spotify.com/track/6Rpj87GuuE59nij1NVmpzD'
p983
sg8
S'\xe0\xb8\xa5\xe0\xb8\xb7\xe0\xb8\xa1\xe0\xb9\x84\xe0\xb8\x9b\xe0\xb8\x81\xe0\xb9\x88\xe0\xb8\xad\xe0\xb8\x99 Feat.\xe0\xb9\x80\xe0\xb8\x81\xe0\xb8\xa3\xe0\xb8\xb5\xe0\xb8\xa2\xe0\xb8\x99 peace'
p984
ssS'79izskDjIFirB2o7uD2Jfk'
p985
(dp986
g3
S'Blue Shade'
p987
sg5
I2
sg6
S'https://open.spotify.com/track/79izskDjIFirB2o7uD2Jfk'
p988
sg8
S'\xe0\xb8\xa3\xe0\xb8\xb1\xe0\xb8\x81\xe0\xb8\x89\xe0\xb8\xb1\xe0\xb8\x99\xe0\xb9\x80\xe0\xb8\x9e\xe0\xb8\xa3\xe0\xb8\xb2\xe0\xb8\xb0\xe0\xb8\xad\xe0\xb8\xb0\xe0\xb9\x84\xe0\xb8\xa3'
p989
ssS'38Ncs9ZEzJzd1ypUjNPsb5'
p990
(dp991
g3
S'Demi Lovato'
p992
sg5
I2
sg6
S'https://open.spotify.com/track/38Ncs9ZEzJzd1ypUjNPsb5'
p993
sg8
S'Sexy Dirty Love'
p994
ssS'43jODHDCovQ6CRYgYMhzrM'
p995
(dp996
g3
S'Violette Wautier'
p997
sg5
I4
sg6
S'https://open.spotify.com/track/43jODHDCovQ6CRYgYMhzrM'
p998
sg8
S'\xe0\xb8\x81\xe0\xb9\x87\xe0\xb9\x81\xe0\xb8\x84\xe0\xb9\x88\xe0\xb9\x84\xe0\xb8\xa1\xe0\xb9\x88\xe0\xb8\xa1\xe0\xb8\xb5\xe0\xb8\x89\xe0\xb8\xb1\xe0\xb8\x99'
p999
ssS'02UNF1uo5f0UNgc1qx5XGt'
p1000
(dp1001
g3
S'WINNER'
p1002
sg5
I6
sg6
S'https://open.spotify.com/track/02UNF1uo5f0UNgc1qx5XGt'
p1003
sg8
S'REALLY REALLY'
p1004
ssS'0NiXXAI876aGImAd6rTj8w'
p1005
(dp1006
g3
S'Jonas Blue'
p1007
sg5
I7
sg6
S'https://open.spotify.com/track/0NiXXAI876aGImAd6rTj8w'
p1008
sg8
S'Mama'
p1009
ssS'6XPCoGblXqyvcyp31vzRyL'
p1010
(dp1011
g3
S'YOUNGOHM'
p1012
sg5
I7
sg6
S'https://open.spotify.com/track/6XPCoGblXqyvcyp31vzRyL'
p1013
sg8
S'\xe0\xb9\x80\xe0\xb8\x89\xe0\xb8\xa2\xe0\xb9\x80\xe0\xb8\xa1\xe0\xb8\xa2'
p1014
ssS'0tgVpDi06FyKpA1z0VMD4v'
p1015
(dp1016
g3
S'Ed Sheeran'
p1017
sg5
I7
sg6
S'https://open.spotify.com/track/0tgVpDi06FyKpA1z0VMD4v'
p1018
sg8
S'Perfect'
p1019
ssS'6gvnmsiH3CI9TLGPoXx7kE'
p1020
(dp1021
g3
S'Atom Chanakan'
p1022
sg5
I5
sg6
S'https://open.spotify.com/track/6gvnmsiH3CI9TLGPoXx7kE'
p1023
sg8
S'\xe0\xb8\xad\xe0\xb9\x89\xe0\xb8\xb2\xe0\xb8\xa7'
p1024
ssS'72jCZdH0Lhg93z6Z4hBjgj'
p1025
(dp1026
g3
S'Taylor Swift'
p1027
sg5
I3
sg6
S'https://open.spotify.com/track/72jCZdH0Lhg93z6Z4hBjgj'
p1028
sg8
S'I Knew You Were Trouble.'
p1029
ssS'6Upu6yjkdi0DVI8E3IBZEU'
p1030
(dp1031
g3
S'SEVENTEEN'
p1032
sg5
I7
sg6
S'https://open.spotify.com/track/6Upu6yjkdi0DVI8E3IBZEU'
p1033
sg8
S"Don't Wanna Cry"
p1034
ssS'4mxWSdf71VFO52qFeY0fZt'
p1035
(dp1036
g3
S'Maroon 5'
p1037
sg5
I6
sg6
S'https://open.spotify.com/track/4mxWSdf71VFO52qFeY0fZt'
p1038
sg8
S'What Lovers Do (feat. SZA)'
p1039
ssS'4Hf7WnR761jpxPr5D46Bcd'
p1040
(dp1041
g3
S'Shawn Mendes'
p1042
sg5
I7
sg6
S'https://open.spotify.com/track/4Hf7WnR761jpxPr5D46Bcd'
p1043
sg8
S'Treat You Better'
p1044
ssS'03JGgPqVY9lYDqFSV6BXMN'
p1045
(dp1046
g3
S'Room 39'
p1047
sg5
I4
sg6
S'https://open.spotify.com/track/03JGgPqVY9lYDqFSV6BXMN'
p1048
sg8
S'\xe0\xb8\x84\xe0\xb8\xa7\xe0\xb8\xb2\xe0\xb8\xa1\xe0\xb8\x88\xe0\xb8\xa3\xe0\xb8\xb4\xe0\xb8\x87'
p1049
ssS'4jdiqVbH1eUwc4MzDV7GMu'
p1050
(dp1051
g3
S'EXO'
p1052
sg5
I1
sg6
S'https://open.spotify.com/track/4jdiqVbH1eUwc4MzDV7GMu'
p1053
sg8
S'CALL ME BABY'
p1054
ssS'7aF09WaavZAmAWuUeYxlYD'
p1055
(dp1056
g3
S'OneRepublic'
p1057
sg5
I7
sg6
S'https://open.spotify.com/track/7aF09WaavZAmAWuUeYxlYD'
p1058
sg8
S'Rich Love (with Seeb)'
p1059
ssS'1l9pbc3jtAMjqnFwXoOrOI'
p1060
(dp1061
g3
S'Labanoon'
p1062
sg5
I3
sg6
S'https://open.spotify.com/track/1l9pbc3jtAMjqnFwXoOrOI'
p1063
sg8
S'\xe0\xb9\x81\xe0\xb8\x9e\xe0\xb9\x89\xe0\xb8\x97\xe0\xb8\xb2\xe0\xb8\x87'
p1064
ssS'6b8Be6ljOzmkOmFslEb23P'
p1065
(dp1066
g3
S'Bruno Mars'
p1067
sg5
I7
sg6
S'https://open.spotify.com/track/6b8Be6ljOzmkOmFslEb23P'
p1068
sg8
S'24K Magic'
p1069
ssS'4gbVRS8gloEluzf0GzDOFc'
p1070
(dp1071
g3
S'Maroon 5'
p1072
sg5
I1
sg6
S'https://open.spotify.com/track/4gbVRS8gloEluzf0GzDOFc'
p1073
sg8
S'Maps'
p1074
ssS'7cQMJ0wDqVS5iM0JIvP6Ay'
p1075
(dp1076
g3
S'Fall Out Boy'
p1077
sg5
I3
sg6
S'https://open.spotify.com/track/7cQMJ0wDqVS5iM0JIvP6Ay'
p1078
sg8
S'The Last Of The Real Ones'
p1079
ssS'3U1wx7xT4fiojVBrbpeGOI'
p1080
(dp1081
g3
S'Thaitanium'
p1082
sg5
I1
sg6
S'https://open.spotify.com/track/3U1wx7xT4fiojVBrbpeGOI'
p1083
sg8
S'Playgirls'
p1084
ssS'1ux0god9zERqovPLrzRdBT'
p1085
(dp1086
g3
S'Violette Wautier'
p1087
sg5
I7
sg6
S'https://open.spotify.com/track/1ux0god9zERqovPLrzRdBT'
p1088
sg8
S'\xe0\xb8\x88\xe0\xb8\xb1\xe0\xb8\x87\xe0\xb8\xab\xe0\xb8\xa7\xe0\xb8\xb0\xe0\xb8\x88\xe0\xb8\xb0\xe0\xb8\xa3\xe0\xb8\xb1\xe0\xb8\x81 - From \xe2\x80\x9cHeartbeat\xe2\x80\x9d Original Soundtrack'
p1089
ssS'7F9vK8hNFMml4GtHsaXui6'
p1090
(dp1091
g3
S'Louis Tomlinson'
p1092
sg5
I7
sg6
S'https://open.spotify.com/track/7F9vK8hNFMml4GtHsaXui6'
p1093
sg8
S'Back to You (feat. Bebe Rexha & Digital Farm Animals)'
p1094
ssS'0B48113ZG9UfkWWt7qD9xX'
p1095
(dp1096
g3
S'Miley Cyrus'
p1097
sg5
I1
sg6
S'https://open.spotify.com/track/0B48113ZG9UfkWWt7qD9xX'
p1098
sg8
S'Younger Now'
p1099
ssS'3B54sVLJ402zGa6Xm4YGNe'
p1100
(dp1101
g3
S'French Montana'
p1102
sg5
I7
sg6
S'https://open.spotify.com/track/3B54sVLJ402zGa6Xm4YGNe'
p1103
sg8
S'Unforgettable'
p1104
ssS'0ug5NqcwcFR2xrfTkc7k8e'
p1105
(dp1106
g3
S'Taylor Swift'
p1107
sg5
I4
sg6
S'https://open.spotify.com/track/0ug5NqcwcFR2xrfTkc7k8e'
p1108
sg8
S'Style'
p1109
ssS'5bcTCxgc7xVfSaMV3RuVke'
p1110
(dp1111
g3
S'Calvin Harris'
p1112
sg5
I7
sg6
S'https://open.spotify.com/track/5bcTCxgc7xVfSaMV3RuVke'
p1113
sg8
S'Feels'
p1114
ssS'0QsvXIfqM0zZoerQfsI9lm'
p1115
(dp1116
g3
S'The Chainsmokers'
p1117
sg5
I6
sg6
S'https://open.spotify.com/track/0QsvXIfqM0zZoerQfsI9lm'
p1118
sg8
S"Don't Let Me Down"
p1119
ssS'0fioLzGM8ngbD1w6fMmm45'
p1120
(dp1121
g3
S'Sam Smith'
p1122
sg5
I5
sg6
S'https://open.spotify.com/track/0fioLzGM8ngbD1w6fMmm45'
p1123
sg8
S"I'm Not The Only One"
p1124
ssS'7pQEnyiyYsrw9YGMGLv4dU'
p1125
(dp1126
g3
S'Violette Wautier'
p1127
sg5
I5
sg6
S'https://open.spotify.com/track/7pQEnyiyYsrw9YGMGLv4dU'
p1128
sg8
S'\xe0\xb8\xad\xe0\xb8\xa2\xe0\xb8\xb2\xe0\xb8\x81\xe0\xb8\x9f\xe0\xb8\xb1\xe0\xb8\x87'
p1129
ssS'3a1lNhkSLSkpJE4MSHpDu9'
p1130
(dp1131
g3
S'Post Malone'
p1132
sg5
I7
sg6
S'https://open.spotify.com/track/3a1lNhkSLSkpJE4MSHpDu9'
p1133
sg8
S'Congratulations'
p1134
ssS'0ofbQMrRDsUaVKq2mGLEAb'
p1135
(dp1136
g3
S'Camila Cabello'
p1137
sg5
I7
sg6
S'https://open.spotify.com/track/0ofbQMrRDsUaVKq2mGLEAb'
p1138
sg8
S'Havana'
p1139
ssS'63rLjQUFTxemPqACev1by7'
p1140
(dp1141
g3
S'MEAN'
p1142
sg5
I3
sg6
S'https://open.spotify.com/track/63rLjQUFTxemPqACev1by7'
p1143
sg8
S'\xe0\xb8\xab\xe0\xb8\xa1\xe0\xb8\xb2\xe0\xb8\xa2\xe0\xb8\x84\xe0\xb8\xa7\xe0\xb8\xb2\xe0\xb8\xa1\xe0\xb8\xa7\xe0\xb9\x88\xe0\xb8\xb2\xe0\xb8\xad\xe0\xb8\xb0\xe0\xb9\x84\xe0\xb8\xa3'
p1144
ssS'1Sl3njkhhz8nrSPZroDQ82'
p1145
(dp1146
g3
S'Dimitri Vegas & Like Mike'
p1147
sg5
I6
sg6
S'https://open.spotify.com/track/1Sl3njkhhz8nrSPZroDQ82'
p1148
sg8
S'Complicated (feat. Kiiara)'
p1149
ssS'6Pw3Gvw4wNMZfTYZa6IQal'
p1150
(dp1151
g3
S'Bebe Rexha'
p1152
sg5
I5
sg6
S'https://open.spotify.com/track/6Pw3Gvw4wNMZfTYZa6IQal'
p1153
sg8
S'The Way I Are (Dance With Somebody) [feat. Lil Wayne]'
p1154
ssS'2ZE3DJuizYTad2S4CvRRhK'
p1155
(dp1156
g3
S'Lauv'
p1157
sg5
I1
sg6
S'https://open.spotify.com/track/2ZE3DJuizYTad2S4CvRRhK'
p1158
sg8
S'Easy Love'
p1159
ssS'1NDxZ7cFAo481dtYWdrUnR'
p1160
(dp1161
g3
S'Maggie Lindemann'
p1162
sg5
I7
sg6
S'https://open.spotify.com/track/1NDxZ7cFAo481dtYWdrUnR'
p1163
sg8
S'Pretty Girl - Cheat Codes X CADE Remix'
p1164
ssS'152lZdxL1OR0ZMW6KquMif'
p1165
(dp1166
g3
S'Khalid'
p1167
sg5
I7
sg6
S'https://open.spotify.com/track/152lZdxL1OR0ZMW6KquMif'
p1168
sg8
S'Location'
p1169
ssS'0NtmQETo6rL2TNhNNXkeDk'
p1170
(dp1171
g3
S'Mint Pattarasaya'
p1172
sg5
I2
sg6
S'https://open.spotify.com/track/0NtmQETo6rL2TNhNNXkeDk'
p1173
sg8
S'\xe0\xb8\x9e\xe0\xb8\x9a\xe0\xb9\x80\xe0\xb8\x98\xe0\xb8\xad\xe0\xb8\x81\xe0\xb9\x88\xe0\xb8\xad\xe0\xb8\x99'
p1174
ssS'4llK75pXNWZz6KAho2Gp16'
p1175
(dp1176
g3
S'Maroon 5'
p1177
sg5
I1
sg6
S'https://open.spotify.com/track/4llK75pXNWZz6KAho2Gp16'
p1178
sg8
S'She Will Be Loved - Radio Mix'
p1179
ssS'5O9blJZ1JlThx6awyI4YcC'
p1180
(dp1181
g3
S'Potato'
p1182
sg5
I1
sg6
S'https://open.spotify.com/track/5O9blJZ1JlThx6awyI4YcC'
p1183
sg8
S'\xe0\xb9\x80\xe0\xb8\x98\xe0\xb8\xad\xe0\xb8\xa2\xe0\xb8\xb1\xe0\xb8\x87...'
p1184
ssS'4NAmRvqSITAAzKWnC8yRq3'
p1185
(dp1186
g3
S'Taylor Swift'
p1187
sg5
I1
sg6
S'https://open.spotify.com/track/4NAmRvqSITAAzKWnC8yRq3'
p1188
sg8
S'Everything Has Changed'
p1189
ssS'20H2Hd5AkUcRjB4yL3UQtJ'
p1190
(dp1191
g3
S'Fifth Harmony'
p1192
sg5
I2
sg6
S'https://open.spotify.com/track/20H2Hd5AkUcRjB4yL3UQtJ'
p1193
sg8
S'Down'
p1194
ssS'1UwERmn5UogyCz6qo21BmA'
p1195
(dp1196
g3
S"Girls' Generation"
p1197
sg5
I2
sg6
S'https://open.spotify.com/track/1UwERmn5UogyCz6qo21BmA'
p1198
sg8
S'All Night'
p1199
ssS'1mX2KmsTMexb5qzp75emJb'
p1200
(dp1201
g3
S'Potato'
p1202
sg5
I1
sg6
S'https://open.spotify.com/track/1mX2KmsTMexb5qzp75emJb'
p1203
sg8
S'\xe0\xb9\x80\xe0\xb8\x98\xe0\xb8\xad\xe0\xb8\x97\xe0\xb8\xb3\xe0\xb9\x83\xe0\xb8\xab\xe0\xb9\x89\xe0\xb9\x84\xe0\xb8\x94\xe0\xb9\x89\xe0\xb8\xa3\xe0\xb8\xb9\xe0\xb9\x89 Feat. \xe0\xb8\x81\xe0\xb9\x89\xe0\xb8\xad\xe0\xb8\x87 \xe0\xb8\xaa\xe0\xb8\xab\xe0\xb8\xa3\xe0\xb8\xb1\xe0\xb8\x96'
p1204
ssS'0uqPG793dkDDN7sCUJJIVC'
p1205
(dp1206
g3
S'The Black Eyed Peas'
p1207
sg5
I3
sg6
S'https://open.spotify.com/track/0uqPG793dkDDN7sCUJJIVC'
p1208
sg8
S'Where Is The Love?'
p1209
ssS'2771LMNxwf62FTAdpJMQfM'
p1210
(dp1211
g3
S'Cardi B'
p1212
sg5
I7
sg6
S'https://open.spotify.com/track/2771LMNxwf62FTAdpJMQfM'
p1213
sg8
S'Bodak Yellow'
p1214
ssS'7yCm5uEZcQ6uzt9E5Py6IR'
p1215
(dp1216
g3
S'The Vamps'
p1217
sg5
I1
sg6
S'https://open.spotify.com/track/7yCm5uEZcQ6uzt9E5Py6IR'
p1218
sg8
S'Middle Of The Night'
p1219
ssS'28Lu2DHTsSjgszvZLbE2iX'
p1220
(dp1221
g3
S'New & Jiew'
p1222
sg5
I1
sg6
S'https://open.spotify.com/track/28Lu2DHTsSjgszvZLbE2iX'
p1223
sg8
S'\xe0\xb8\x96\xe0\xb9\x89\xe0\xb8\xb2\xe0\xb8\x89\xe0\xb8\xb1\xe0\xb8\x99\xe0\xb9\x84\xe0\xb8\x94\xe0\xb9\x89\xe0\xb8\x81\xe0\xb8\xa5\xe0\xb8\xb1\xe0\xb8\x9a\xe0\xb9\x84\xe0\xb8\x9b'
p1224
ssS'53mrVsi49rLHIaKBiSvElG'
p1225
(dp1226
g3
S'blackbear'
p1227
sg5
I2
sg6
S'https://open.spotify.com/track/53mrVsi49rLHIaKBiSvElG'
p1228
sg8
S'do re mi (feat. Gucci Mane)'
p1229
ssS'0D8ZpOXVjapLXrjz5VfZSD'
p1230
(dp1231
g3
S'Sam Smith'
p1232
sg5
I1
sg6
S'https://open.spotify.com/track/0D8ZpOXVjapLXrjz5VfZSD'
p1233
sg8
S'Pray'
p1234
ssS'3m660poUr1chesgkkjQM7P'
p1235
(dp1236
g3
S'Demi Lovato'
p1237
sg5
I2
sg6
S'https://open.spotify.com/track/3m660poUr1chesgkkjQM7P'
p1238
sg8
S'Sorry Not Sorry'
p1239
ssS'3gfmFoJgmn9LiIj5mV8oSS'
p1240
(dp1241
g3
S'R3HAB'
p1242
sg5
I4
sg6
S'https://open.spotify.com/track/3gfmFoJgmn9LiIj5mV8oSS'
p1243
sg8
S"I Just Can't"
p1244
ssS'3ebXMykcMXOcLeJ9xZ17XH'
p1245
(dp1246
g3
S'Martin Garrix'
p1247
sg5
I2
sg6
S'https://open.spotify.com/track/3ebXMykcMXOcLeJ9xZ17XH'
p1248
sg8
S'Scared to Be Lonely'
p1249
ssS'3ALshyY9fzcWICITSHC3km'
p1250
(dp1251
g3
S'Mild'
p1252
sg5
I7
sg6
S'https://open.spotify.com/track/3ALshyY9fzcWICITSHC3km'
p1253
sg8
S'\xe0\xb8\x9b\xe0\xb8\xb2\xe0\xb8\x81\xe0\xb9\x81\xe0\xb8\x82\xe0\xb9\x87\xe0\xb8\x87 (Just in my mind) (\xe0\xb9\x80\xe0\xb8\x9e\xe0\xb8\xa5\xe0\xb8\x87\xe0\xb8\x9b\xe0\xb8\xa3\xe0\xb8\xb0\xe0\xb8\x81\xe0\xb8\xad\xe0\xb8\x9a\xe0\xb8\x8b\xe0\xb8\xb5\xe0\xb8\xa3\xe0\xb8\xb5\xe0\xb8\xaa\xe0\xb9\x8c Slam Dance \xe0\xb8\x97\xe0\xb8\xb8\xe0\xb9\x88\xe0\xb8\xa1\xe0\xb8\x9d\xe0\xb8\xb1\xe0\xb8\x99\xe0\xb8\xaa\xe0\xb8\x99\xe0\xb8\xb1\xe0\xb9\x88\xe0\xb8\x99\xe0\xb8\x9f\xe0\xb8\xa5\xe0\xb8\xad\xe0\xb8\xa3\xe0\xb9\x8c)'
p1254
ssS'2NVJgGuBgcLAnEpahR1wBi'
p1255
(dp1256
g3
S'The Yers'
p1257
sg5
I1
sg6
S'https://open.spotify.com/track/2NVJgGuBgcLAnEpahR1wBi'
p1258
sg8
S'\xe0\xb8\x9e\xe0\xb8\xb2\xe0\xb8\xa2\xe0\xb8\xb8\xe0\xb8\xab\xe0\xb8\xa1\xe0\xb8\xb8\xe0\xb8\x99'
p1259
ssS'54s6sdPuMjVtdB5d5KFzTC'
p1260
(dp1261
g3
S'BTS'
p1262
sg5
I2
sg6
S'https://open.spotify.com/track/54s6sdPuMjVtdB5d5KFzTC'
p1263
sg8
S'Save Me'
p1264
ssS'35UhwULqjLNnN1ofHE1dPj'
p1265
(dp1266
g3
S'Ice Tamonwan'
p1267
sg5
I1
sg6
S'https://open.spotify.com/track/35UhwULqjLNnN1ofHE1dPj'
p1268
sg8
S'\xe0\xb9\x84\xe0\xb8\xa1\xe0\xb9\x88\xe0\xb9\x83\xe0\xb8\x8a\xe0\xb9\x88\xe0\xb9\x80\xe0\xb8\x9e\xe0\xb8\xa3\xe0\xb8\xb2\xe0\xb8\xb0\xe0\xb9\x83\xe0\xb8\x84\xe0\xb8\xa3'
p1269
ssS'3PEgB3fkiojxms35ntsTgs'
p1270
(dp1271
g3
S'Axwell /\\ Ingrosso'
p1272
sg5
I7
sg6
S'https://open.spotify.com/track/3PEgB3fkiojxms35ntsTgs'
p1273
sg8
S'More Than You Know'
p1274
ssS'77ngtwBosDuAwiQu8afOOQ'
p1275
(dp1276
g3
S'Tyron Hapi'
p1277
sg5
I1
sg6
S'https://open.spotify.com/track/77ngtwBosDuAwiQu8afOOQ'
p1278
sg8
S'Anyway'
p1279
ssS'5Gz1PxujU62sfecQpB0Stm'
p1280
(dp1281
g3
S'Olly Murs'
p1282
sg5
I5
sg6
S'https://open.spotify.com/track/5Gz1PxujU62sfecQpB0Stm'
p1283
sg8
S'Unpredictable'
p1284
ssS'64GRDrL1efgXclrhVCeuA0'
p1285
(dp1286
g3
S'Sam Smith'
p1287
sg5
I1
sg6
S'https://open.spotify.com/track/64GRDrL1efgXclrhVCeuA0'
p1288
sg8
S'Lay Me Down'
p1289
ssS'5OepnJhqZoyJN8qWo2LZzy'
p1290
(dp1291
g3
S'BLACKPINK'
p1292
sg5
I7
sg6
S'https://open.spotify.com/track/5OepnJhqZoyJN8qWo2LZzy'
p1293
sg8
S'PLAYING WITH FIRE - KR Ver.'
p1294
ssS'3njZlgsB9MI6DVTg8wDPsg'
p1295
(dp1296
g3
S'The Script'
p1297
sg5
I1
sg6
S'https://open.spotify.com/track/3njZlgsB9MI6DVTg8wDPsg'
p1298
sg8
S'Rock the World'
p1299
ssS'3GCL1PydwsLodcpv0Ll1ch'
p1300
(dp1301
g3
S'Taylor Swift'
p1302
sg5
I1
sg6
S'https://open.spotify.com/track/3GCL1PydwsLodcpv0Ll1ch'
p1303
sg8
S'You Belong With Me'
p1304
ssS'34EtCXSXdm8iR2psCUGpwU'
p1305
(dp1306
g3
S'Aof Pongsak'
p1307
sg5
I7
sg6
S'https://open.spotify.com/track/34EtCXSXdm8iR2psCUGpwU'
p1308
sg8
S"\xe0\xb8\x9b\xe0\xb8\xa5\xe0\xb8\xb2\xe0\xb8\xa2\xe0\xb8\x97\xe0\xb8\xb2\xe0\xb8\x87\xe0\xb8\x97\xe0\xb8\xb5\xe0\xb9\x88\xe0\xb8\xa7\xe0\xb9\x88\xe0\xb8\xb2\xe0\xb8\x87\xe0\xb9\x80\xe0\xb8\x9b\xe0\xb8\xa5\xe0\xb9\x88\xe0\xb8\xb2 (\xe0\xb9\x80\xe0\xb8\x9e\xe0\xb8\xa5\xe0\xb8\x87\xe0\xb8\x9b\xe0\xb8\xa3\xe0\xb8\xb0\xe0\xb8\x81\xe0\xb8\xad\xe0\xb8\x9a Club Friday Celeb's Stories)"
p1309
ssS'7bUsQIWIirvF3tsNfee1zk'
p1310
(dp1311
g3
S'Scrubb'
p1312
sg5
I2
sg6
S'https://open.spotify.com/track/7bUsQIWIirvF3tsNfee1zk'
p1313
sg8
S'\xe0\xb8\xa3\xe0\xb8\xb9\xe0\xb9\x89\xe0\xb8\xaa\xe0\xb8\xb6\xe0\xb8\x81 (Diary)'
p1314
ssS'2rizacJSyD9S1IQUxUxnsK'
p1315
(dp1316
g3
S'The Chainsmokers'
p1317
sg5
I1
sg6
S'https://open.spotify.com/track/2rizacJSyD9S1IQUxUxnsK'
p1318
sg8
S'All We Know'
p1319
ssS'3LbX6aIcOxB1p0pOpYPLVu'
p1320
(dp1321
g3
S'Atom Chanakan'
p1322
sg5
I7
sg6
S'https://open.spotify.com/track/3LbX6aIcOxB1p0pOpYPLVu'
p1323
sg8
S'\xe0\xb8\x8a\xe0\xb9\x88\xe0\xb8\xa7\xe0\xb8\x87\xe0\xb8\x99\xe0\xb8\xb5\xe0\xb9\x89(Karma)'
p1324
ssS'6xfSWlLiaHknC9wYNI2M0a'
p1325
(dp1326
g3
S'TOR+ Saksit'
p1327
sg5
I4
sg6
S'https://open.spotify.com/track/6xfSWlLiaHknC9wYNI2M0a'
p1328
sg8
S'\xe0\xb8\xa3\xe0\xb8\xad\xe0\xb8\xa2\xe0\xb8\xa2\xe0\xb8\xb4\xe0\xb9\x89\xe0\xb8\xa1\xe0\xb8\x82\xe0\xb8\xad\xe0\xb8\x87\xe0\xb8\xa7\xe0\xb8\xb1\xe0\xb8\x99\xe0\xb8\x9e\xe0\xb8\xa3\xe0\xb8\xb8\xe0\xb9\x88\xe0\xb8\x87\xe0\xb8\x99\xe0\xb8\xb5\xe0\xb9\x89'
p1329
ssS'5uv1Q92Nv4l7nsuTvnwT9L'
p1330
(dp1331
g3
S'Suchart Saeheng'
p1332
sg5
I6
sg6
S'https://open.spotify.com/track/5uv1Q92Nv4l7nsuTvnwT9L'
p1333
sg8
S'\xe0\xb9\x80\xe0\xb8\x9e\xe0\xb8\xb5\xe0\xb8\xa2\xe0\xb8\x87'
p1334
ssS'6z56u8jPSSroDFrJVD5cMf'
p1335
(dp1336
g3
S'Whatcharawale'
p1337
sg5
I2
sg6
S'https://open.spotify.com/track/6z56u8jPSSroDFrJVD5cMf'
p1338
sg8
S'\xe0\xb8\xa3\xe0\xb9\x88\xe0\xb8\xa1\xe0\xb8\xaa\xe0\xb8\xb5\xe0\xb9\x80\xe0\xb8\x97\xe0\xb8\xb2'
p1339
ssS'1x5sYLZiu9r5E43kMlt9f8'
p1340
(dp1341
g3
S'Clean Bandit'
p1342
sg5
I7
sg6
S'https://open.spotify.com/track/1x5sYLZiu9r5E43kMlt9f8'
p1343
sg8
S'Symphony (feat. Zara Larsson)'
p1344
ssS'2rb5MvYT7ZIxbKW5hfcHx8'
p1345
(dp1346
g3
S'J Balvin'
p1347
sg5
I7
sg6
S'https://open.spotify.com/track/2rb5MvYT7ZIxbKW5hfcHx8'
p1348
sg8
S'Mi Gente'
p1349
ssS'2X8GwyuNBiOJKLCLNaefOT'
p1350
(dp1351
g3
S'Anne-Marie'
p1352
sg5
I2
sg6
S'https://open.spotify.com/track/2X8GwyuNBiOJKLCLNaefOT'
p1353
sg8
S'Heavy'
p1354
ssS'5SE57ljOIUJ1ybL9U6CuBH'
p1355
(dp1356
g3
S'BTS'
p1357
sg5
I4
sg6
S'https://open.spotify.com/track/5SE57ljOIUJ1ybL9U6CuBH'
p1358
sg8
S'DNA'
p1359
ssS'0WJVy5IYA9AeAI1htZDq0C'
p1360
(dp1361
g3
S'Wanna One'
p1362
sg5
I7
sg6
S'https://open.spotify.com/track/0WJVy5IYA9AeAI1htZDq0C'
p1363
sg8
S'Burn It Up'
p1364
ssS'7KXEhfjwdxHVra8VcT2QHH'
p1365
(dp1366
g3
S'BTS'
p1367
sg5
I3
sg6
S'https://open.spotify.com/track/7KXEhfjwdxHVra8VcT2QHH'
p1368
sg8
S'Skit: Billboard Music Awards Speech'
p1369
ssS'0tKcYR2II1VCQWT79i5NrW'
p1370
(dp1371
g3
S'Imagine Dragons'
p1372
sg5
I7
sg6
S'https://open.spotify.com/track/0tKcYR2II1VCQWT79i5NrW'
p1373
sg8
S'Thunder'
p1374
ssS'5XQMr19TL7Mfksq9zihbOu'
p1375
(dp1376
g3
S'Chris Brown'
p1377
sg5
I3
sg6
S'https://open.spotify.com/track/5XQMr19TL7Mfksq9zihbOu'
p1378
sg8
S'Questions'
p1379
ssS'2Oehrcv4Kov0SuIgWyQY9e'
p1380
(dp1381
g3
S'Imagine Dragons'
p1382
sg5
I4
sg6
S'https://open.spotify.com/track/2Oehrcv4Kov0SuIgWyQY9e'
p1383
sg8
S'Demons'
p1384
ssS'1louJpMmzEicAn7lzDalPW'
p1385
(dp1386
g3
S'Cheat Codes'
p1387
sg5
I7
sg6
S'https://open.spotify.com/track/1louJpMmzEicAn7lzDalPW'
p1388
sg8
S'No Promises (feat. Demi Lovato)'
p1389
ssS'0KKkJNfGyhkQ5aFogxQAPU'
p1390
(dp1391
g3
S'Bruno Mars'
p1392
sg5
I7
sg6
S'https://open.spotify.com/track/0KKkJNfGyhkQ5aFogxQAPU'
p1393
sg8
S"That's What I Like"
p1394
ssS'494OU6M7NOf4ICYb4zWCf5'
p1395
(dp1396
g3
S'Maroon 5'
p1397
sg5
I3
sg6
S'https://open.spotify.com/track/494OU6M7NOf4ICYb4zWCf5'
p1398
sg8
S'Sugar'
p1399
ssS'1Slwb6dOYkBlWal1PGtnNg'
p1400
(dp1401
g3
S'Ed Sheeran'
p1402
sg5
I7
sg6
S'https://open.spotify.com/track/1Slwb6dOYkBlWal1PGtnNg'
p1403
sg8
S'Thinking Out Loud'
p1404
ssS'4z9gBZQjGS4QLb4LOvmeuA'
p1405
(dp1406
g3
S'BTS'
p1407
sg5
I3
sg6
S'https://open.spotify.com/track/4z9gBZQjGS4QLb4LOvmeuA'
p1408
sg8
S'Burning Up (Fire)'
p1409
ssS'2nAUhnLMltzWOHCnjAUsGd'
p1410
(dp1411
g3
S'Season Five'
p1412
sg5
I2
sg6
S'https://open.spotify.com/track/2nAUhnLMltzWOHCnjAUsGd'
p1413
sg8
S'\xe0\xb8\xa7\xe0\xb8\xb9\xe0\xb9\x88\xe0\xb8\xa7\xe0\xb8\xb2\xe0\xb8\xa1 (Unreleased Version)'
p1414
ssS'31NK9ucTVypJ7txSyNq52G'
p1415
(dp1416
g3
S'Songkarn Rangsant'
p1417
sg5
I7
sg6
S'https://open.spotify.com/track/31NK9ucTVypJ7txSyNq52G'
p1418
sg8
S'\xe0\xb9\x82\xe0\xb8\xad\xe0\xb9\x89\xe0\xb9\x80\xe0\xb8\x98\xe0\xb8\xad'
p1419
ssS'2OtGVOEt6BEVj21cT2oZhp'
p1420
(dp1421
g3
S'TOR+ Saksit'
p1422
sg5
I2
sg6
S'https://open.spotify.com/track/2OtGVOEt6BEVj21cT2oZhp'
p1423
sg8
S'\xe0\xb9\x80\xe0\xb8\xa7\xe0\xb8\xa5\xe0\xb8\xb2\xe0\xb8\x82\xe0\xb8\xad\xe0\xb8\x87\xe0\xb9\x80\xe0\xb8\xa3\xe0\xb8\xb2'
p1424
ssS'7pstxLUhvsJC3M4TxHe2aI'
p1425
(dp1426
g3
S'Ti\xc3\xabsto'
p1427
sg5
I1
sg6
S'https://open.spotify.com/track/7pstxLUhvsJC3M4TxHe2aI'
p1428
sg8
S'Carry You Home'
p1429
ssS'02q0ZnV2L4XByzEvWZJqBC'
p1430
(dp1431
g3
S'BTS'
p1432
sg5
I1
sg6
S'https://open.spotify.com/track/02q0ZnV2L4XByzEvWZJqBC'
p1433
sg8
S'Spring Day'
p1434
ssS'6KtTbMttJ8ZtMG6VMds2B2'
p1435
(dp1436
g3
S'Lipta'
p1437
sg5
I7
sg6
S'https://open.spotify.com/track/6KtTbMttJ8ZtMG6VMds2B2'
p1438
sg8
S'Bad Luck'
p1439
ssS'693iqPOQvhI7PobtR8CC8v'
p1440
(dp1441
g3
S'J Balvin'
p1442
sg5
I4
sg6
S'https://open.spotify.com/track/693iqPOQvhI7PobtR8CC8v'
p1443
sg8
S'Bonita'
p1444
ssS'6fxVffaTuwjgEk5h9QyRjy'
p1445
(dp1446
g3
S'Ed Sheeran'
p1447
sg5
I7
sg6
S'https://open.spotify.com/track/6fxVffaTuwjgEk5h9QyRjy'
p1448
sg8
S'Photograph'
p1449
ssS'2kVHAQKVtczchKctctzbtK'
p1450
(dp1451
g3
S'Katy Perry'
p1452
sg5
I1
sg6
S'https://open.spotify.com/track/2kVHAQKVtczchKctctzbtK'
p1453
sg8
S'Swish Swish'
p1454
ssS'6kex4EBAj0WHXDKZMEJaaF'
p1455
(dp1456
g3
S'Jason Derulo'
p1457
sg5
I5
sg6
S'https://open.spotify.com/track/6kex4EBAj0WHXDKZMEJaaF'
p1458
sg8
S'Swalla (feat. Nicki Minaj & Ty Dolla $ign)'
p1459
ssS'2b37HBQW44oMZ6QephdHcJ'
p1460
(dp1461
g3
S'Zeal'
p1462
sg5
I1
sg6
S'https://open.spotify.com/track/2b37HBQW44oMZ6QephdHcJ'
p1463
sg8
S'\xe0\xb9\x80\xe0\xb8\x95\xe0\xb8\xa5\xe0\xb8\xb4\xe0\xb8\x94'
p1464
ssS'1H2qNVjNn13tlpKv6MtiYn'
p1465
(dp1466
g3
S'WINNER'
p1467
sg5
I1
sg6
S'https://open.spotify.com/track/1H2qNVjNn13tlpKv6MtiYn'
p1468
sg8
S'REALLY REALLY'
p1469
ssS'7KXjTSCq5nL1LoYtL7XAwS'
p1470
(dp1471
g3
S'Kendrick Lamar'
p1472
sg5
I7
sg6
S'https://open.spotify.com/track/7KXjTSCq5nL1LoYtL7XAwS'
p1473
sg8
S'HUMBLE.'
p1474
ssS'3YrKiQmCq64ZYeex4ifd17'
p1475
(dp1476
g3
S'Potato'
p1477
sg5
I7
sg6
S'https://open.spotify.com/track/3YrKiQmCq64ZYeex4ifd17'
p1478
sg8
S'\xe0\xb9\x80\xe0\xb8\x98\xe0\xb8\xad\xe0\xb8\x97\xe0\xb8\xb3\xe0\xb9\x83\xe0\xb8\xab\xe0\xb9\x89\xe0\xb9\x84\xe0\xb8\x94\xe0\xb9\x89\xe0\xb8\xa3\xe0\xb8\xb9\xe0\xb9\x89'
p1479
ssS'74ODGXs4byLTRdnKGM4s6E'
p1480
(dp1481
g3
S'LANY'
p1482
sg5
I7
sg6
S'https://open.spotify.com/track/74ODGXs4byLTRdnKGM4s6E'
p1483
sg8
S'Super Far'
p1484
ssS'4LSkEJ5P5MV0y3PZqw7guJ'
p1485
(dp1486
g3
S'Cheat Codes'
p1487
sg5
I4
sg6
S'https://open.spotify.com/track/4LSkEJ5P5MV0y3PZqw7guJ'
p1488
sg8
S'Sober'
p1489
ssS'5pQldwAtnxe6WWY7s05GUc'
p1490
(dp1491
g3
S'Room 39'
p1492
sg5
I2
sg6
S'https://open.spotify.com/track/5pQldwAtnxe6WWY7s05GUc'
p1493
sg8
S'\xe0\xb8\xad\xe0\xb8\xa2\xe0\xb9\x88\xe0\xb8\xb2\xe0\xb8\x87\xe0\xb8\x97\xe0\xb8\xb5\xe0\xb9\x88\xe0\xb8\x89\xe0\xb8\xb1\xe0\xb8\x99\xe0\xb9\x80\xe0\xb8\x9b\xe0\xb9\x87\xe0\xb8\x99'
p1494
ssS'3uVe6WBnQlTdT6zWs6uPX9'
p1495
(dp1496
g3
S'UrboyTJ'
p1497
sg5
I7
sg6
S'https://open.spotify.com/track/3uVe6WBnQlTdT6zWs6uPX9'
p1498
sg8
S'\xe0\xb8\xa3\xe0\xb8\xb1\xe0\xb8\x87\xe0\xb9\x80\xe0\xb8\x81\xe0\xb8\xb5\xe0\xb8\xa2\xe0\xb8\x88\xe0\xb8\x81\xe0\xb8\xb1\xe0\xb8\x99\xe0\xb9\x84\xe0\xb8\xab\xe0\xb8\xa1?'
p1499
ssS'69bp2EbF7Q2rqc5N3ylezZ'
p1500
(dp1501
g3
S'Justin Bieber'
p1502
sg5
I2
sg6
S'https://open.spotify.com/track/69bp2EbF7Q2rqc5N3ylezZ'
p1503
sg8
S'Sorry'
p1504
ssS'4iLqG9SeJSnt0cSPICSjxv'
p1505
(dp1506
g3
S'Charlie Puth'
p1507
sg5
I7
sg6
S'https://open.spotify.com/track/4iLqG9SeJSnt0cSPICSjxv'
p1508
sg8
S'Attention'
p1509
ssS'6RUKPb4LETWmmr3iAEQktW'
p1510
(dp1511
g3
S'The Chainsmokers'
p1512
sg5
I7
sg6
S'https://open.spotify.com/track/6RUKPb4LETWmmr3iAEQktW'
p1513
sg8
S'Something Just Like This'
p1514
ssS'0VhgEqMTNZwYL1ARDLLNCX'
p1515
(dp1516
g3
S'James Arthur'
p1517
sg5
I3
sg6
S'https://open.spotify.com/track/0VhgEqMTNZwYL1ARDLLNCX'
p1518
sg8
S'Can I Be Him'
p1519
ssS'55dOUAyuTB3QWo5sKrpsFv'
p1520
(dp1521
g3
S'Telex Telexs'
p1522
sg5
I1
sg6
S'https://open.spotify.com/track/55dOUAyuTB3QWo5sKrpsFv'
p1523
sg8
S'Labelle - Acoustic'
p1524
ssS'0WNGsQ1oAuHzNTk8jivBKW'
p1525
(dp1526
g3
S'BTS'
p1527
sg5
I6
sg6
S'https://open.spotify.com/track/0WNGsQ1oAuHzNTk8jivBKW'
p1528
sg8
S'Spring Day'
p1529
ssS'4V2FimcFqJ2x7uk4uFQEvN'
p1530
(dp1531
g3
S'Singto Numchok'
p1532
sg5
I2
sg6
S'https://open.spotify.com/track/4V2FimcFqJ2x7uk4uFQEvN'
p1533
sg8
S'\xe0\xb8\xad\xe0\xb8\xa2\xe0\xb8\xb9\xe0\xb9\x88\xe0\xb8\x95\xe0\xb9\x88\xe0\xb8\xad\xe0\xb9\x80\xe0\xb8\xa5\xe0\xb8\xa2\xe0\xb9\x84\xe0\xb8\x94\xe0\xb9\x89\xe0\xb9\x84\xe0\xb8\xab\xe0\xb8\xa1'
p1534
ssS'5GXAXm5YOmYT0kL5jHvYBt'
p1535
(dp1536
g3
S'The Weeknd'
p1537
sg5
I7
sg6
S'https://open.spotify.com/track/5GXAXm5YOmYT0kL5jHvYBt'
p1538
sg8
S'I Feel It Coming'
p1539
ssS'2UbqyqWhVhZzeHi2tWlKWD'
p1540
(dp1541
g3
S'Tanatat Chaiyaat'
p1542
sg5
I2
sg6
S'https://open.spotify.com/track/2UbqyqWhVhZzeHi2tWlKWD'
p1543
sg8
S'\xe0\xb9\x81\xe0\xb8\x9e\xe0\xb9\x89\xe0\xb9\x80\xe0\xb8\x98\xe0\xb8\xad (\xe0\xb9\x80\xe0\xb8\x9e\xe0\xb8\xa5\xe0\xb8\x87\xe0\xb8\x9b\xe0\xb8\xa3\xe0\xb8\xb0\xe0\xb8\x81\xe0\xb8\xad\xe0\xb8\x9a\xe0\xb8\xa5\xe0\xb8\xb0\xe0\xb8\x84\xe0\xb8\xa3 \xe0\xb9\x80\xe0\xb8\xaa\xe0\xb8\x99\xe0\xb9\x88\xe0\xb8\xab\xe0\xb8\xb2 DIARY \xe0\xb8\x95\xe0\xb8\xad\xe0\xb8\x99 \xe0\xb9\x81\xe0\xb8\xaa\xe0\xb8\x9a\xe0\xb9\x80\xe0\xb8\xaa\xe0\xb8\x99\xe0\xb9\x88\xe0\xb8\xab\xe0\xb8\xb2)'
p1544
ssS'0vBUsN3rew8OjgowVwykOn'
p1545
(dp1546
g3
S'TAEYANG'
p1547
sg5
I2
sg6
S'https://open.spotify.com/track/0vBUsN3rew8OjgowVwykOn'
p1548
sg8
S'WAKE ME UP'
p1549
ssS'6jA8HL9i4QGzsj6fjoxp8Y'
p1550
(dp1551
g3
S'Martin Garrix'
p1552
sg5
I7
sg6
S'https://open.spotify.com/track/6jA8HL9i4QGzsj6fjoxp8Y'
p1553
sg8
S'There for You'
p1554
ssS'3kQuu5smL73wiy4e7RZVNv'
p1555
(dp1556
g3
S'Ink Waruntorn'
p1557
sg5
I2
sg6
S'https://open.spotify.com/track/3kQuu5smL73wiy4e7RZVNv'
p1558
sg8
S'\xe0\xb8\x89\xe0\xb8\xb1\xe0\xb8\x99\xe0\xb8\x95\xe0\xb9\x89\xe0\xb8\xad\xe0\xb8\x87\xe0\xb8\x84\xe0\xb8\xb4\xe0\xb8\x94\xe0\xb8\x96\xe0\xb8\xb6\xe0\xb8\x87\xe0\xb9\x80\xe0\xb8\x98\xe0\xb8\xad\xe0\xb9\x81\xe0\xb8\x9a\xe0\xb8\x9a\xe0\xb9\x84\xe0\xb8\xab\xe0\xb8\x99 (Cloudy)'
p1559
ssS'6elsRmdqv0DGmmppxnqm4q'
p1560
(dp1561
g3
S'Jazz Spooknickpapiyongkookkook'
p1562
sg5
I7
sg6
S'https://open.spotify.com/track/6elsRmdqv0DGmmppxnqm4q'
p1563
sg8
S'\xe0\xb8\xa1\xe0\xb8\xb7\xe0\xb8\xad\xe0\xb8\xa5\xe0\xb8\xb1\xe0\xb9\x88\xe0\xb8\x99'
p1564
ssS'0TvQLMecTE8utzoNmvXRbK'
p1565
(dp1566
g3
S'Taylor Swift'
p1567
sg5
I2
sg6
S'https://open.spotify.com/track/0TvQLMecTE8utzoNmvXRbK'
p1568
sg8
S'Bad Blood'
p1569
ssS'5uCax9HTNlzGybIStD3vDh'
p1570
(dp1571
g3
S'James Arthur'
p1572
sg5
I7
sg6
S'https://open.spotify.com/track/5uCax9HTNlzGybIStD3vDh'
p1573
sg8
S"Say You Won't Let Go"
p1574
ssS'7qiZfU4dY1lWllzX7mPBI3'
p1575
(dp1576
g3
S'Ed Sheeran'
p1577
sg5
I7
sg6
S'https://open.spotify.com/track/7qiZfU4dY1lWllzX7mPBI3'
p1578
sg8
S'Shape of You'
p1579
ssS'0q75NwOoFiARAVp4EXU4Bs'
p1580
(dp1581
g3
S'SZA'
p1582
sg5
I2
sg6
S'https://open.spotify.com/track/0q75NwOoFiARAVp4EXU4Bs'
p1583
sg8
S'Love Galore'
p1584
ssS'2fQrGHiQOvpL9UgPvtYy6G'
p1585
(dp1586
g3
S'21 Savage'
p1587
sg5
I3
sg6
S'https://open.spotify.com/track/2fQrGHiQOvpL9UgPvtYy6G'
p1588
sg8
S'Bank Account'
p1589
ssS'0K1IFlNBUIbjazOC26dq9Q'
p1590
(dp1591
g3
S'Pang Nakarin'
p1592
sg5
I2
sg6
S'https://open.spotify.com/track/0K1IFlNBUIbjazOC26dq9Q'
p1593
sg8
S'\xe0\xb8\x84\xe0\xb8\x99\xe0\xb8\xa1\xe0\xb8\xb5\xe0\xb9\x80\xe0\xb8\xaa\xe0\xb8\x99\xe0\xb9\x88\xe0\xb8\xab\xe0\xb9\x8c'
p1594
ssS'6QgjcU0zLnzq5OrUoSZ3OK'
p1595
(dp1596
g3
S'Portugal. The Man'
p1597
sg5
I7
sg6
S'https://open.spotify.com/track/6QgjcU0zLnzq5OrUoSZ3OK'
p1598
sg8
S'Feel It Still'
p1599
ssS'7Lgpic8BsBJR4jFrr9abbz'
p1600
(dp1601
g3
S'Robin Schulz'
p1602
sg5
I1
sg6
S'https://open.spotify.com/track/7Lgpic8BsBJR4jFrr9abbz'
p1603
sg8
S"I Believe I'm Fine"
p1604
ssS'22BH6K8RlpwNzIINvWS4Jj'
p1605
(dp1606
g3
S'Bebe Rexha'
p1607
sg5
I1
sg6
S'https://open.spotify.com/track/22BH6K8RlpwNzIINvWS4Jj'
p1608
sg8
S'(Not) The One'
p1609
ssS'167NczpNbRF7oWakJaY3Hh'
p1610
(dp1611
g3
S'Niall Horan'
p1612
sg5
I7
sg6
S'https://open.spotify.com/track/167NczpNbRF7oWakJaY3Hh'
p1613
sg8
S'Slow Hands'
p1614
ssS'03p70BWvxnhNIMwL70nBEP'
p1615
(dp1616
g3
S'Room 39'
p1617
sg5
I5
sg6
S'https://open.spotify.com/track/03p70BWvxnhNIMwL70nBEP'
p1618
sg8
S'\xe0\xb8\xad\xe0\xb8\xa2\xe0\xb9\x88\xe0\xb8\xb2\xe0\xb9\x83\xe0\xb8\xab\xe0\xb9\x89\xe0\xb8\x89\xe0\xb8\xb1\xe0\xb8\x99\xe0\xb8\x84\xe0\xb8\xb4\xe0\xb8\x94'
p1619
ssS'5RGf8qn1TBWVplLyyKUsuV'
p1620
(dp1621
g3
S'BTS'
p1622
sg5
I7
sg6
S'https://open.spotify.com/track/5RGf8qn1TBWVplLyyKUsuV'
p1623
sg8
S'Blood Sweat & Tears'
p1624
ssS'0cnFQVTvVdQ4C0btqE3J8T'
p1625
(dp1626
g3
S'\xe0\xb9\x82\xe0\xb8\xad\xe0\xb8\x9b\xe0\xb8\xad \xe0\xb8\x9b\xe0\xb8\xa3\xe0\xb8\xb0\xe0\xb8\x9e\xe0\xb8\xb8\xe0\xb8\x97\xe0\xb8\x98\xe0\xb9\x8c'
p1627
sg5
I1
sg6
S'https://open.spotify.com/track/0cnFQVTvVdQ4C0btqE3J8T'
p1628
sg8
S'\xe0\xb9\x80\xe0\xb8\xa7\xe0\xb8\xa5\xe0\xb8\xb2'
p1629
ssS'1pjVBWRTyPG3WXlxTNYT3U'
p1630
(dp1631
g3
S'Room 39'
p1632
sg5
I7
sg6
S'https://open.spotify.com/track/1pjVBWRTyPG3WXlxTNYT3U'
p1633
sg8
S'Restart'
p1634
ssS'1xwnvVY9gHdo69PuGQkG1U'
p1635
(dp1636
g3
S'GFriend'
p1637
sg5
I1
sg6
S'https://open.spotify.com/track/1xwnvVY9gHdo69PuGQkG1U'
p1638
sg8
S'LOVE WHISPER'
p1639
ssS'3VC1IEz9M1txlMSx3h3tPM'
p1640
(dp1641
g3
S'KARD'
p1642
sg5
I1
sg6
S'https://open.spotify.com/track/3VC1IEz9M1txlMSx3h3tPM'
p1643
sg8
S'Hola Hola'
p1644
ssS'5dEaQCUCJIQyJs5qVZYXOC'
p1645
(dp1646
g3
S'BTS'
p1647
sg5
I1
sg6
S'https://open.spotify.com/track/5dEaQCUCJIQyJs5qVZYXOC'
p1648
sg8
S'Come Back Home'
p1649
ssS'43ZyHQITOjhciSUUNPVRHc'
p1650
(dp1651
g3
S'Lil Pump'
p1652
sg5
I1
sg6
S'https://open.spotify.com/track/43ZyHQITOjhciSUUNPVRHc'
p1653
sg8
S'Gucci Gang'
p1654
ssS'7yHEDfrJNd0zWOfXwydNH0'
p1655
(dp1656
g3
S'Ariana Grande'
p1657
sg5
I1
sg6
S'https://open.spotify.com/track/7yHEDfrJNd0zWOfXwydNH0'
p1658
sg8
S'Into You'
p1659
ssS'6dFaVBGSGvVpmrrdX2RS6y'
p1660
(dp1661
g3
S'BTS'
p1662
sg5
I1
sg6
S'https://open.spotify.com/track/6dFaVBGSGvVpmrrdX2RS6y'
p1663
sg8
S'Butterfly'
p1664
ssS'1HBgo4mdGUV7TBNa4rgJIX'
p1665
(dp1666
g3
S'PCHY'
p1667
sg5
I1
sg6
S'https://open.spotify.com/track/1HBgo4mdGUV7TBNa4rgJIX'
p1668
sg8
S'\xe0\xb8\x99\xe0\xb8\xb1\xe0\xb8\x9a\xe0\xb8\xab\xe0\xb8\x99\xe0\xb8\xb6\xe0\xb9\x88\xe0\xb8\x87\xe0\xb8\x81\xe0\xb8\xb1\xe0\xb8\x99\xe0\xb9\x84\xe0\xb8\xab\xe0\xb8\xa1 - From 2Moons The Series'
p1669
ssS'1839RWzPRZCVgvamu4sHSN'
p1670
(dp1671
g3
S'Cash Cash'
p1672
sg5
I6
sg6
S'https://open.spotify.com/track/1839RWzPRZCVgvamu4sHSN'
p1673
sg8
S'All My Love (feat. Conor Maynard)'
p1674
ssS'5Db9VIdDsN5yu3Eu7CT0i4'
p1675
(dp1676
g3
S'Sam Smith'
p1677
sg5
I3
sg6
S'https://open.spotify.com/track/5Db9VIdDsN5yu3Eu7CT0i4'
p1678
sg8
S'Stay With Me'
p1679
ssS'3zoYkqS4y2BsGVShPL2nTE'
p1680
(dp1681
g3
S'CNCO'
p1682
sg5
I6
sg6
S'https://open.spotify.com/track/3zoYkqS4y2BsGVShPL2nTE'
p1683
sg8
S'Reggaet\xc3\xb3n Lento (Remix) [CNCO & Little Mix]'
p1684
ssS'3XfygeAG5SFzEVaQJEKY49'
p1685
(dp1686
g3
S'Atom Chanakan'
p1687
sg5
I6
sg6
S'https://open.spotify.com/track/3XfygeAG5SFzEVaQJEKY49'
p1688
sg8
S'\xe0\xb8\x97\xe0\xb8\xb2\xe0\xb8\x87\xe0\xb8\x82\xe0\xb8\xad\xe0\xb8\x87\xe0\xb8\x9d\xe0\xb8\xb8\xe0\xb9\x88\xe0\xb8\x99 (Dust)'
p1689
ssS'1oyYuiIundjUzgi0oyBNyB'
p1690
(dp1691
g3
S'The Toys'
p1692
sg5
I7
sg6
S'https://open.spotify.com/track/1oyYuiIundjUzgi0oyBNyB'
p1693
sg8
S'\xe0\xb8\x81\xe0\xb9\x88\xe0\xb8\xad\xe0\xb8\x99\xe0\xb8\xa4\xe0\xb8\x94\xe0\xb8\xb9\xe0\xb8\x9d\xe0\xb8\x99'
p1694
ssS'5nq1uTNIR1cBR72T87viS0'
p1695
(dp1696
g3
S'BTS'
p1697
sg5
I4
sg6
S'https://open.spotify.com/track/5nq1uTNIR1cBR72T87viS0'
p1698
sg8
S'Go Go'
p1699
ssS'3hB5DgAiMAQ4DzYbsMq1IT'
p1700
(dp1701
g3
S'Justin Bieber'
p1702
sg5
I7
sg6
S'https://open.spotify.com/track/3hB5DgAiMAQ4DzYbsMq1IT'
p1703
sg8
S'Love Yourself'
p1704
ssS'1YIot8Gj59TQSIJgWmPfgP'
p1705
(dp1706
g3
S'Sukrit Wisetkaew'
p1707
sg5
I1
sg6
S'https://open.spotify.com/track/1YIot8Gj59TQSIJgWmPfgP'
p1708
sg8
S'\xe0\xb9\x80\xe0\xb8\xad\xe0\xb8\xb0\xe0\xb9\x83\xe0\xb8\x88 (\xe0\xb9\x80\xe0\xb8\x9e\xe0\xb8\xa5\xe0\xb8\x87\xe0\xb8\x9b\xe0\xb8\xa3\xe0\xb8\xb0\xe0\xb8\x81\xe0\xb8\xad\xe0\xb8\x9a\xe0\xb8\xa5\xe0\xb8\xb0\xe0\xb8\x84\xe0\xb8\xa3 \xe0\xb9\x80\xe0\xb8\x98\xe0\xb8\xad\xe0\xb8\x84\xe0\xb8\xb7\xe0\xb8\xad\xe0\xb8\x9e\xe0\xb8\xa3\xe0\xb8\xab\xe0\xb8\xa1\xe0\xb8\xa5\xe0\xb8\xb4\xe0\xb8\x82\xe0\xb8\xb4\xe0\xb8\x95)'
p1709
ssS'0afhq8XCExXpqazXczTSve'
p1710
(dp1711
g3
S'Ed Sheeran'
p1712
sg5
I7
sg6
S'https://open.spotify.com/track/0afhq8XCExXpqazXczTSve'
p1713
sg8
S'Galway Girl'
p1714
ssS'0hTyySmaM27kaBNofAYOdr'
p1715
(dp1716
g3
S'Getsunova'
p1717
sg5
I7
sg6
S'https://open.spotify.com/track/0hTyySmaM27kaBNofAYOdr'
p1718
sg8
S'\xe0\xb8\x9e\xe0\xb8\xb1\xe0\xb8\x87..(\xe0\xb8\xa5\xe0\xb8\xb3\xe0\xb8\x9e\xe0\xb8\xb1\xe0\xb8\x87)'
p1719
ssS'3uB6rxXYjmMEhOVJT763S6'
p1720
(dp1721
g3
S'Matoma'
p1722
sg5
I3
sg6
S'https://open.spotify.com/track/3uB6rxXYjmMEhOVJT763S6'
p1723
sg8
S'Staying Up'
p1724
ss.