(dp0
S'1CKd1PnqfYx0H12V9MSaIY'
p1
(dp2
S'artistName'
p3
S'Zedd'
p4
sS'weeksOnChart'
p5
I11
sS'track_href'
p6
S'https://open.spotify.com/track/1CKd1PnqfYx0H12V9MSaIY'
p7
sS'songName'
p8
S'Get Low (with Liam Payne)'
p9
ssS'0mel2N9Ws9r4yLQn5QE21Y'
p10
(dp11
g3
S'Sam Smith'
p12
sg5
I5
sg6
S'https://open.spotify.com/track/0mel2N9Ws9r4yLQn5QE21Y'
p13
sg8
S'Too Good At Goodbyes'
p14
ssS'728zbo72kOoYdGR3AhNsyF'
p15
(dp16
g3
S'The xx'
p17
sg5
I1
sg6
S'https://open.spotify.com/track/728zbo72kOoYdGR3AhNsyF'
p18
sg8
S'Say Something Loving'
p19
ssS'13e6f8t7RKXuxZ0JdaaJRG'
p20
(dp21
g3
S'Drake'
p22
sg5
I6
sg6
S'https://open.spotify.com/track/13e6f8t7RKXuxZ0JdaaJRG'
p23
sg8
S'Jorja Interlude'
p24
ssS'07Qrb9cID0kcYadv0cBN6t'
p25
(dp26
g3
S'NAV'
p27
sg5
I1
sg6
S'https://open.spotify.com/track/07Qrb9cID0kcYadv0cBN6t'
p28
sg8
S'Perfect Timing (Intro)'
p29
ssS'2771LMNxwf62FTAdpJMQfM'
p30
(dp31
g3
S'Cardi B'
p32
sg5
I11
sg6
S'https://open.spotify.com/track/2771LMNxwf62FTAdpJMQfM'
p33
sg8
S'Bodak Yellow'
p34
ssS'7Ezwtgfw7khBrpvaNPtMoT'
p35
(dp36
g3
S'Fat Joe'
p37
sg5
I6
sg6
S'https://open.spotify.com/track/7Ezwtgfw7khBrpvaNPtMoT'
p38
sg8
S'All The Way Up'
p39
ssS'0prNGof3XqfTvNDxHonvdK'
p40
(dp41
g3
S'Alessia Cara'
p42
sg5
I20
sg6
S'https://open.spotify.com/track/0prNGof3XqfTvNDxHonvdK'
p43
sg8
S'Scars To Your Beautiful'
p44
ssS'1pJQAHpD51J7GYaFrrFO9S'
p45
(dp46
g3
S'The Chainsmokers'
p47
sg5
I3
sg6
S'https://open.spotify.com/track/1pJQAHpD51J7GYaFrrFO9S'
p48
sg8
S"Don't Say"
p49
ssS'6HUnnBwYZqcED1eQztxMBN'
p50
(dp51
g3
S'Martin Jensen'
p52
sg5
I35
sg6
S'https://open.spotify.com/track/6HUnnBwYZqcED1eQztxMBN'
p53
sg8
S'Solo Dance'
p54
ssS'3E895HtTn6lB40SA0l9EkL'
p55
(dp56
g3
S'Daniel Caesar'
p57
sg5
I1
sg6
S'https://open.spotify.com/track/3E895HtTn6lB40SA0l9EkL'
p58
sg8
S'Take Me Away (feat. Syd)'
p59
ssS'0RYXEibxMami3QuT8kn4Iz'
p60
(dp61
g3
S'Macklemore'
p62
sg5
I8
sg6
S'https://open.spotify.com/track/0RYXEibxMami3QuT8kn4Iz'
p63
sg8
S'Marmalade (feat. Lil Yachty)'
p64
ssS'0F1Rc18rZcJOALxIIQPTYd'
p65
(dp66
g3
S'Maty Noyes'
p67
sg5
I6
sg6
S'https://open.spotify.com/track/0F1Rc18rZcJOALxIIQPTYd'
p68
sg8
S'in my miNd'
p69
ssS'3QWjljChcOMkRDYSzF33Qr'
p70
(dp71
g3
S'Kiiara'
p72
sg5
I14
sg6
S'https://open.spotify.com/track/3QWjljChcOMkRDYSzF33Qr'
p73
sg8
S'Whippin (feat. Felix Snow)'
p74
ssS'0lLdorYw7lVrJydTINhWdI'
p75
(dp76
g3
S'Michael Bubl\xc3\xa9'
p77
sg5
I1
sg6
S'https://open.spotify.com/track/0lLdorYw7lVrJydTINhWdI'
p78
sg8
S"It's Beginning To Look A Lot Like Christmas"
p79
ssS'1OAh8uOEOvTDqkKFsKksCi'
p80
(dp81
g3
S'DJ Khaled'
p82
sg5
I17
sg6
S'https://open.spotify.com/track/1OAh8uOEOvTDqkKFsKksCi'
p83
sg8
S'Wild Thoughts'
p84
ssS'2aksifNn5ph8igDOkPBA02'
p85
(dp86
g3
S'Rihanna'
p87
sg5
I27
sg6
S'https://open.spotify.com/track/2aksifNn5ph8igDOkPBA02'
p88
sg8
S'Love On The Brain'
p89
ssS'41jDpQ9b2VnVdsYEy2nC7z'
p90
(dp91
g3
S'2 Chainz'
p92
sg5
I1
sg6
S'https://open.spotify.com/track/41jDpQ9b2VnVdsYEy2nC7z'
p93
sg8
S"It's A Vibe"
p94
ssS'4b4KcovePX8Ke2cLIQTLM0'
p95
(dp96
g3
S'The Vamps'
p97
sg5
I1
sg6
S'https://open.spotify.com/track/4b4KcovePX8Ke2cLIQTLM0'
p98
sg8
S'All Night'
p99
ssS'7wGoVu4Dady5GV0Sv4UIsx'
p100
(dp101
g3
S'Post Malone'
p102
sg5
I1
sg6
S'https://open.spotify.com/track/7wGoVu4Dady5GV0Sv4UIsx'
p103
sg8
S'rockstar'
p104
ssS'7LJjWqhqK594nN7qJzLVXE'
p105
(dp106
g3
S'BLACKPINK'
p107
sg5
I1
sg6
S'https://open.spotify.com/track/7LJjWqhqK594nN7qJzLVXE'
p108
sg8
S"As If It's Your Last"
p109
ssS'0jdny0dhgjUwoIp5GkqEaA'
p110
(dp111
g3
S'Kesha'
p112
sg5
I9
sg6
S'https://open.spotify.com/track/0jdny0dhgjUwoIp5GkqEaA'
p113
sg8
S'Praying'
p114
ssS'4pdgV8qr9Oytcv6thCdiIZ'
p115
(dp116
g3
S'A$AP Mob'
p117
sg5
I2
sg6
S'https://open.spotify.com/track/4pdgV8qr9Oytcv6thCdiIZ'
p118
sg8
S'RAF'
p119
ssS'7KcGEssn7BnJdTgildK5y0'
p120
(dp121
g3
S'Nicki Minaj'
p122
sg5
I11
sg6
S'https://open.spotify.com/track/7KcGEssn7BnJdTgildK5y0'
p123
sg8
S'No Frauds'
p124
ssS'1CnPYaKxTVb4LWOtiGOm0m'
p125
(dp126
g3
S'Jon Bellion'
p127
sg5
I23
sg6
S'https://open.spotify.com/track/1CnPYaKxTVb4LWOtiGOm0m'
p128
sg8
S'All Time Low'
p129
ssS'4OZEu0Vwq0RB2LAq14v99n'
p130
(dp131
g3
S'DJ Snake'
p132
sg5
I2
sg6
S'https://open.spotify.com/track/4OZEu0Vwq0RB2LAq14v99n'
p133
sg8
S'Middle'
p134
ssS'5Ber68jZ7ytegr2UISEdb7'
p135
(dp136
g3
S'Michael Bubl\xc3\xa9'
p137
sg5
I1
sg6
S'https://open.spotify.com/track/5Ber68jZ7ytegr2UISEdb7'
p138
sg8
S'Santa Claus Is Coming To Town'
p139
ssS'1tyjWMMINb9S0YBynTvJ7s'
p140
(dp141
g3
S'London On Da Track'
p142
sg5
I4
sg6
S'https://open.spotify.com/track/1tyjWMMINb9S0YBynTvJ7s'
p143
sg8
S'No Flag'
p144
ssS'60xaS8mYBKUW4VQQ666N0T'
p145
(dp146
g3
S'Chance The Rapper'
p147
sg5
I15
sg6
S'https://open.spotify.com/track/60xaS8mYBKUW4VQQ666N0T'
p148
sg8
S'All Night (feat. Knox Fortune)'
p149
ssS'6Pw3Gvw4wNMZfTYZa6IQal'
p150
(dp151
g3
S'Bebe Rexha'
p152
sg5
I5
sg6
S'https://open.spotify.com/track/6Pw3Gvw4wNMZfTYZa6IQal'
p153
sg8
S'The Way I Are (Dance With Somebody) [feat. Lil Wayne]'
p154
ssS'7L9g4cPfohScjJ8mGwLQWr'
p155
(dp156
g3
S'Joey Bada$$'
p157
sg5
I1
sg6
S'https://open.spotify.com/track/7L9g4cPfohScjJ8mGwLQWr'
p158
sg8
S'TEMPTATION'
p159
ssS'5x8W6iNXDCQrHp1DF5j4UW'
p160
(dp161
g3
S'Nicki Minaj'
p162
sg5
I1
sg6
S'https://open.spotify.com/track/5x8W6iNXDCQrHp1DF5j4UW'
p163
sg8
S'Regret In Your Tears'
p164
ssS'6kl1qtQXQsFiIWRBK24Cfp'
p165
(dp166
g3
S'A$AP Mob'
p167
sg5
I11
sg6
S'https://open.spotify.com/track/6kl1qtQXQsFiIWRBK24Cfp'
p168
sg8
S'RAF'
p169
ssS'2FRnf9qhLbvw8fu4IBXx78'
p170
(dp171
g3
S'Wham!'
p172
sg5
I1
sg6
S'https://open.spotify.com/track/2FRnf9qhLbvw8fu4IBXx78'
p173
sg8
S'Last Christmas'
p174
ssS'7tr2za8SQg2CI8EDgrdtNl'
p175
(dp176
g3
S'Calvin Harris'
p177
sg5
I29
sg6
S'https://open.spotify.com/track/7tr2za8SQg2CI8EDgrdtNl'
p178
sg8
S'Slide'
p179
ssS'7zVCrzzEJU7u24sbJPXA5W'
p180
(dp181
g3
S'Kane Brown'
p182
sg5
I15
sg6
S'https://open.spotify.com/track/7zVCrzzEJU7u24sbJPXA5W'
p183
sg8
S'What Ifs'
p184
ssS'76T8y91xMLWJgfsEsmWGxW'
p185
(dp186
g3
S'A$AP Ferg'
p187
sg5
I1
sg6
S'https://open.spotify.com/track/76T8y91xMLWJgfsEsmWGxW'
p188
sg8
S'Nasty (Who Dat)'
p189
ssS'26K4tbF6waeJzo11e3JDo8'
p190
(dp191
g3
S'Ty Dolla $ign'
p192
sg5
I1
sg6
S'https://open.spotify.com/track/26K4tbF6waeJzo11e3JDo8'
p193
sg8
S'So Am I (feat. Damian Marley & Skrillex)'
p194
ssS'3gfmFoJgmn9LiIj5mV8oSS'
p195
(dp196
g3
S'R3HAB'
p197
sg5
I4
sg6
S'https://open.spotify.com/track/3gfmFoJgmn9LiIj5mV8oSS'
p198
sg8
S"I Just Can't"
p199
ssS'40oKW22ZNNkEdZLJTScaQI'
p200
(dp201
g3
S'Kodak Black'
p202
sg5
I8
sg6
S'https://open.spotify.com/track/40oKW22ZNNkEdZLJTScaQI'
p203
sg8
S'Roll In Peace (feat. XXXTENTACION)'
p204
ssS'25khomWgBVamSdKw7hzm3l'
p205
(dp206
g3
S'The Weeknd'
p207
sg5
I4
sg6
S'https://open.spotify.com/track/25khomWgBVamSdKw7hzm3l'
p208
sg8
S'The Hills'
p209
ssS'2yJ9GVCLMmzBBfQAnfzlwr'
p210
(dp211
g3
S'ScHoolboy Q'
p212
sg5
I4
sg6
S'https://open.spotify.com/track/2yJ9GVCLMmzBBfQAnfzlwr'
p213
sg8
S'THat Part'
p214
ssS'06FCvd7rrRcF3DdvWH5Isp'
p215
(dp216
g3
S'Kendrick Lamar'
p217
sg5
I6
sg6
S'https://open.spotify.com/track/06FCvd7rrRcF3DdvWH5Isp'
p218
sg8
S'LUST.'
p219
ssS'4pLwZjInHj3SimIyN9SnOz'
p220
(dp221
g3
S'Ariana Grande'
p222
sg5
I34
sg6
S'https://open.spotify.com/track/4pLwZjInHj3SimIyN9SnOz'
p223
sg8
S'Side To Side'
p224
ssS'6C7RJEIUDqKkJRZVWdkfkH'
p225
(dp226
g3
S'Kanye West'
p227
sg5
I1
sg6
S'https://open.spotify.com/track/6C7RJEIUDqKkJRZVWdkfkH'
p228
sg8
S'Stronger'
p229
ssS'1e1JKLEDKP7hEQzJfNAgPl'
p230
(dp231
g3
S'Playboi Carti'
p232
sg5
I24
sg6
S'https://open.spotify.com/track/1e1JKLEDKP7hEQzJfNAgPl'
p233
sg8
S'Magnolia'
p234
ssS'3E2Zh20GDCR9B1EYjfXWyv'
p235
(dp236
g3
S'AJR'
p237
sg5
I22
sg6
S'https://open.spotify.com/track/3E2Zh20GDCR9B1EYjfXWyv'
p238
sg8
S'Weak'
p239
ssS'2Gl0FzuLxflY6nPifJp5Dr'
p240
(dp241
g3
S'Kygo'
p242
sg5
I20
sg6
S'https://open.spotify.com/track/2Gl0FzuLxflY6nPifJp5Dr'
p243
sg8
S'First Time'
p244
ssS'5xYVqJ7ppf4bTbbztvVOYx'
p245
(dp246
g3
S'Timeflies'
p247
sg5
I2
sg6
S'https://open.spotify.com/track/5xYVqJ7ppf4bTbbztvVOYx'
p248
sg8
S'Raincoat (feat. Shy Martin)'
p249
ssS'0xl1w2q4VLojeXp4JfazPL'
p250
(dp251
g3
S'Drake'
p252
sg5
I7
sg6
S'https://open.spotify.com/track/0xl1w2q4VLojeXp4JfazPL'
p253
sg8
S'Sacrifices'
p254
ssS'2pq9pe4fR25v736ZXa8IRn'
p255
(dp256
g3
S'Lucky Rose'
p257
sg5
I16
sg6
S'https://open.spotify.com/track/2pq9pe4fR25v736ZXa8IRn'
p258
sg8
S'Wild One'
p259
ssS'4BHzQ9C00ceJxfG16AlNWb'
p260
(dp261
g3
S'Adele'
p262
sg5
I9
sg6
S'https://open.spotify.com/track/4BHzQ9C00ceJxfG16AlNWb'
p263
sg8
S'Send My Love (To Your New Lover)'
p264
ssS'6WSBZroxQaO3FYEpT2ACFH'
p265
(dp266
g3
S'Kid Cudi'
p267
sg5
I1
sg6
S'https://open.spotify.com/track/6WSBZroxQaO3FYEpT2ACFH'
p268
sg8
S'Baptized In Fire'
p269
ssS'50PWlIBU7PlGGwzgN8TiFJ'
p270
(dp271
g3
S'Lady Gaga'
p272
sg5
I5
sg6
S'https://open.spotify.com/track/50PWlIBU7PlGGwzgN8TiFJ'
p273
sg8
S'Million Reasons'
p274
ssS'6HN5XPJEV31RQJGoyqZ81K'
p275
(dp276
g3
S'Logic'
p277
sg5
I1
sg6
S'https://open.spotify.com/track/6HN5XPJEV31RQJGoyqZ81K'
p278
sg8
S'Take It Back'
p279
ssS'2RttW7RAu5nOAfq6YFvApB'
p280
(dp281
g3
S'Ed Sheeran'
p282
sg5
I26
sg6
S'https://open.spotify.com/track/2RttW7RAu5nOAfq6YFvApB'
p283
sg8
S'Happier'
p284
ssS'5Htb1uFQ1KrkFXlefS8oGj'
p285
(dp286
g3
S'Demi Lovato'
p287
sg5
I1
sg6
S'https://open.spotify.com/track/5Htb1uFQ1KrkFXlefS8oGj'
p288
sg8
S'Tell Me You Love Me'
p289
ssS'5LYQSNHZxEA880URXFHg6h'
p290
(dp291
g3
S'Lana Del Rey'
p292
sg5
I3
sg6
S'https://open.spotify.com/track/5LYQSNHZxEA880URXFHg6h'
p293
sg8
S'Lust for Life (with The Weeknd)'
p294
ssS'3EmmCZoqpWOTY1g2GBwJoR'
p295
(dp296
g3
S'Steve Aoki'
p297
sg5
I20
sg6
S'https://open.spotify.com/track/3EmmCZoqpWOTY1g2GBwJoR'
p298
sg8
S'Just Hold On'
p299
ssS'2Ce5IyMlVRVvN997ZJjJJA'
p300
(dp301
g3
S'Future'
p302
sg5
I20
sg6
S'https://open.spotify.com/track/2Ce5IyMlVRVvN997ZJjJJA'
p303
sg8
S'Selfish'
p304
ssS'2345kZ5rt8eHjO8CFpx3Yi'
p305
(dp306
g3
S'The Platters'
p307
sg5
I1
sg6
S'https://open.spotify.com/track/2345kZ5rt8eHjO8CFpx3Yi'
p308
sg8
S'Christmas Time'
p309
ssS'6zLdXcmvIxnAXpz9sXFnIE'
p310
(dp311
g3
S'Thomas Rhett'
p312
sg5
I14
sg6
S'https://open.spotify.com/track/6zLdXcmvIxnAXpz9sXFnIE'
p313
sg8
S'Craving You'
p314
ssS'7yq4Qj7cqayVTp3FF9CWbm'
p315
(dp316
g3
S'Vance Joy'
p317
sg5
I21
sg6
S'https://open.spotify.com/track/7yq4Qj7cqayVTp3FF9CWbm'
p318
sg8
S'Riptide'
p319
ssS'3sbF8yG9zzFftk9xN5PNiq'
p320
(dp321
g3
S'Tory Lanez'
p322
sg5
I2
sg6
S'https://open.spotify.com/track/3sbF8yG9zzFftk9xN5PNiq'
p323
sg8
S'Skrt Skrt'
p324
ssS'0jOfl1nZf6sVBTG08Q4brn'
p325
(dp326
g3
S'Migos'
p327
sg5
I4
sg6
S'https://open.spotify.com/track/0jOfl1nZf6sVBTG08Q4brn'
p328
sg8
S'Call Casting'
p329
ssS'3VRk65lHSwqd90TAkQqhvB'
p330
(dp331
g3
S'Katy Perry'
p332
sg5
I2
sg6
S'https://open.spotify.com/track/3VRk65lHSwqd90TAkQqhvB'
p333
sg8
S'Swish Swish'
p334
ssS'20dP2DaMHIAmwWAbp7peSr'
p335
(dp336
g3
S'Young Thug'
p337
sg5
I42
sg6
S'https://open.spotify.com/track/20dP2DaMHIAmwWAbp7peSr'
p338
sg8
S'pick up the phone'
p339
ssS'2wf9bp4MkChojtljddWpbO'
p340
(dp341
g3
S'6LACK'
p342
sg5
I18
sg6
S'https://open.spotify.com/track/2wf9bp4MkChojtljddWpbO'
p343
sg8
S'PRBLMS'
p344
ssS'08Wc3X7XNSyF8WYBPt2L8E'
p345
(dp346
g3
S'Calvin Harris'
p347
sg5
I1
sg6
S'https://open.spotify.com/track/08Wc3X7XNSyF8WYBPt2L8E'
p348
sg8
S'Holiday'
p349
ssS'5eqK0tbzUPo2SoeZsov04s'
p350
(dp351
g3
S'21 Savage'
p352
sg5
I11
sg6
S'https://open.spotify.com/track/5eqK0tbzUPo2SoeZsov04s'
p353
sg8
S'Bank Account'
p354
ssS'5tz69p7tJuGPeMGwNTxYuV'
p355
(dp356
g3
S'Logic'
p357
sg5
I24
sg6
S'https://open.spotify.com/track/5tz69p7tJuGPeMGwNTxYuV'
p358
sg8
S'1-800-273-8255'
p359
ssS'1uL78kFWxhz3umTMWJu8n5'
p360
(dp361
g3
S'Lil Uzi Vert'
p362
sg5
I7
sg6
S'https://open.spotify.com/track/1uL78kFWxhz3umTMWJu8n5'
p363
sg8
S'Sauce It Up'
p364
ssS'4iYRa2btalAzPZoSYfROqF'
p365
(dp366
g3
S'Kendrick Lamar'
p367
sg5
I7
sg6
S'https://open.spotify.com/track/4iYRa2btalAzPZoSYfROqF'
p368
sg8
S'XXX. FEAT. U2.'
p369
ssS'4xlrALxuaCf9yZBHJeTSG6'
p370
(dp371
g3
S'Jonas Blue'
p372
sg5
I9
sg6
S'https://open.spotify.com/track/4xlrALxuaCf9yZBHJeTSG6'
p373
sg8
S'Mama'
p374
ssS'6Nle9hKrkL1wQpwNfEkxjh'
p375
(dp376
g3
S'Frank Ocean'
p377
sg5
I4
sg6
S'https://open.spotify.com/track/6Nle9hKrkL1wQpwNfEkxjh'
p378
sg8
S'Chanel'
p379
ssS'2RwmsAOxtiRezQPmvyejb8'
p380
(dp381
g3
S'6LACK'
p382
sg5
I12
sg6
S'https://open.spotify.com/track/2RwmsAOxtiRezQPmvyejb8'
p383
sg8
S'Ex Calling'
p384
ssS'4izg6Hydc6XGErWW6nbdsV'
p385
(dp386
g3
S'Imagine Dragons'
p387
sg5
I3
sg6
S'https://open.spotify.com/track/4izg6Hydc6XGErWW6nbdsV'
p388
sg8
S'Whatever It Takes'
p389
ssS'0CokSRCu5hZgPxcZBaEzVE'
p390
(dp391
g3
S'Macklemore'
p392
sg5
I3
sg6
S'https://open.spotify.com/track/0CokSRCu5hZgPxcZBaEzVE'
p393
sg8
S'Glorious (feat. Skylar Grey)'
p394
ssS'3BoPOp7YNORLqMUjE5XAh9'
p395
(dp396
g3
S'Migos'
p397
sg5
I1
sg6
S'https://open.spotify.com/track/3BoPOp7YNORLqMUjE5XAh9'
p398
sg8
S'Big On Big'
p399
ssS'3pzjHKrQSvXGHQ98dx18HI'
p400
(dp401
g3
S'Justin Bieber'
p402
sg5
I1
sg6
S'https://open.spotify.com/track/3pzjHKrQSvXGHQ98dx18HI'
p403
sg8
S'What Do You Mean?'
p404
ssS'000xQL6tZNLJzIrtIgxqSl'
p405
(dp406
g3
S'ZAYN'
p407
sg5
I16
sg6
S'https://open.spotify.com/track/000xQL6tZNLJzIrtIgxqSl'
p408
sg8
S'Still Got Time'
p409
ssS'2FBUoWkIuQXwayw2RNo5l6'
p410
(dp411
g3
S'Drake'
p412
sg5
I3
sg6
S'https://open.spotify.com/track/2FBUoWkIuQXwayw2RNo5l6'
p413
sg8
S'Hotline Bling'
p414
ssS'7cQMJ0wDqVS5iM0JIvP6Ay'
p415
(dp416
g3
S'Fall Out Boy'
p417
sg5
I3
sg6
S'https://open.spotify.com/track/7cQMJ0wDqVS5iM0JIvP6Ay'
p418
sg8
S'The Last Of The Real Ones'
p419
ssS'1D3ODoXHBLpdxolZRHWV1j'
p420
(dp421
g3
S'Jonas Blue'
p422
sg5
I6
sg6
S'https://open.spotify.com/track/1D3ODoXHBLpdxolZRHWV1j'
p423
sg8
S'By Your Side'
p424
ssS'2G60ShHRZZhqxSKbZTWdOh'
p425
(dp426
g3
S'DJ Khaled'
p427
sg5
I1
sg6
S'https://open.spotify.com/track/2G60ShHRZZhqxSKbZTWdOh'
p428
sg8
S"I Can't Even Lie"
p429
ssS'4Dbn05LNVX5giGbgbz5fdQ'
p430
(dp431
g3
S'Migos'
p432
sg5
I1
sg6
S'https://open.spotify.com/track/4Dbn05LNVX5giGbgbz5fdQ'
p433
sg8
S'Out Yo Way'
p434
ssS'77VLYTyrdlHEWcjhjQoXlz'
p435
(dp436
g3
S'Robin Schulz'
p437
sg5
I1
sg6
S'https://open.spotify.com/track/77VLYTyrdlHEWcjhjQoXlz'
p438
sg8
S'Oh Child'
p439
ssS'0VJYhKhrHgJ7fgjGaC2k07'
p440
(dp441
g3
S'XXXTENTACION'
p442
sg5
I1
sg6
S'https://open.spotify.com/track/0VJYhKhrHgJ7fgjGaC2k07'
p443
sg8
S'The Explanation'
p444
ssS'4ntsD33Pgsgk8rUyZLLiUV'
p445
(dp446
g3
S'Joey Bada$$'
p447
sg5
I4
sg6
S'https://open.spotify.com/track/4ntsD33Pgsgk8rUyZLLiUV'
p448
sg8
S'DEVASTATED'
p449
ssS'042x9bsUBWW2fJgJ6fUh61'
p450
(dp451
g3
S'DVBBS'
p452
sg5
I30
sg6
S'https://open.spotify.com/track/042x9bsUBWW2fJgJ6fUh61'
p453
sg8
S'Not Going Home'
p454
ssS'5Z01UMMf7V1o0MzF86s6WJ'
p455
(dp456
g3
S'Eminem'
p457
sg5
I38
sg6
S'https://open.spotify.com/track/5Z01UMMf7V1o0MzF86s6WJ'
p458
sg8
S'Lose Yourself - Soundtrack Version'
p459
ssS'5CtI0qwDJkDQGwXD1H1cLb'
p460
(dp461
g3
S'Luis Fonsi'
p462
sg5
I26
sg6
S'https://open.spotify.com/track/5CtI0qwDJkDQGwXD1H1cLb'
p463
sg8
S'Despacito - Remix'
p464
ssS'7m9OqQk4RVRkw9JJdeAw96'
p465
(dp466
g3
S'XXXTENTACION'
p467
sg5
I7
sg6
S'https://open.spotify.com/track/7m9OqQk4RVRkw9JJdeAw96'
p468
sg8
S'Jocelyn Flores'
p469
ssS'5o4yGlG0PfeVUa6ClIyOxq'
p470
(dp471
g3
S'Charli XCX'
p472
sg5
I2
sg6
S'https://open.spotify.com/track/5o4yGlG0PfeVUa6ClIyOxq'
p473
sg8
S'Boys'
p474
ssS'3JKhmIlixlYwFLzrkc6drb'
p475
(dp476
g3
S'Kesha'
p477
sg5
I2
sg6
S'https://open.spotify.com/track/3JKhmIlixlYwFLzrkc6drb'
p478
sg8
S'Learn To Let Go'
p479
ssS'4aSfgWmRa9KsISD4Jmx7QB'
p480
(dp481
g3
S'Kygo'
p482
sg5
I2
sg6
S'https://open.spotify.com/track/4aSfgWmRa9KsISD4Jmx7QB'
p483
sg8
S'This Town'
p484
ssS'0NyOeqzqjVM9j7IuWp2oJ6'
p485
(dp486
g3
S'Gryffin'
p487
sg5
I3
sg6
S'https://open.spotify.com/track/0NyOeqzqjVM9j7IuWp2oJ6'
p488
sg8
S'Feel Good (feat. Daya)'
p489
ssS'7zxRMhXxJMQCeDDg0rKAVo'
p490
(dp491
g3
S'NAV'
p492
sg5
I33
sg6
S'https://open.spotify.com/track/7zxRMhXxJMQCeDDg0rKAVo'
p493
sg8
S'Some Way'
p494
ssS'3zJw3rugfpVrmBeDDnUYzy'
p495
(dp496
g3
S'John Lennon'
p497
sg5
I1
sg6
S'https://open.spotify.com/track/3zJw3rugfpVrmBeDDnUYzy'
p498
sg8
S'Happy Xmas (War Is Over) - 2010 Digital Remaster'
p499
ssS'795qeY9x7NmfYJOZ9dQY0Y'
p500
(dp501
g3
S'Sage The Gemini'
p502
sg5
I2
sg6
S'https://open.spotify.com/track/795qeY9x7NmfYJOZ9dQY0Y'
p503
sg8
S'Butter (feat. DJ Lucci)'
p504
ssS'1a5Yu5L18qNxVhXx38njON'
p505
(dp506
g3
S'Alok'
p507
sg5
I8
sg6
S'https://open.spotify.com/track/1a5Yu5L18qNxVhXx38njON'
p508
sg8
S'Hear Me Now'
p509
ssS'1Eck97uRMlprKOOJN9oO1E'
p510
(dp511
g3
S'G-Eazy'
p512
sg5
I11
sg6
S'https://open.spotify.com/track/1Eck97uRMlprKOOJN9oO1E'
p513
sg8
S'Good Life (with G-Eazy & Kehlani)'
p514
ssS'4Z22Uz5JhtWbkmzojNcdPr'
p515
(dp516
g3
S'PARTYNEXTDOOR'
p517
sg5
I2
sg6
S'https://open.spotify.com/track/4Z22Uz5JhtWbkmzojNcdPr'
p518
sg8
S'Damage'
p519
ssS'7ARveOiD31w2Nq0n5FsSf8'
p520
(dp521
g3
S'Lorde'
p522
sg5
I1
sg6
S'https://open.spotify.com/track/7ARveOiD31w2Nq0n5FsSf8'
p523
sg8
S'Perfect Places'
p524
ssS'2ekn2ttSfGqwhhate0LSR0'
p525
(dp526
g3
S'Dua Lipa'
p527
sg5
I19
sg6
S'https://open.spotify.com/track/2ekn2ttSfGqwhhate0LSR0'
p528
sg8
S'New Rules'
p529
ssS'5humEOJehpAwMJEJmb0JJ2'
p530
(dp531
g3
S'Nat King Cole'
p532
sg5
I1
sg6
S'https://open.spotify.com/track/5humEOJehpAwMJEJmb0JJ2'
p533
sg8
S'The Christmas Song (Merry Christmas To You)'
p534
ssS'2dfqS3MRtbLZSZA1IL8xY5'
p535
(dp536
g3
S'Drake'
p537
sg5
I5
sg6
S'https://open.spotify.com/track/2dfqS3MRtbLZSZA1IL8xY5'
p538
sg8
S'Skepta Interlude'
p539
ssS'1sCxVKWImDZSZKvG0U9B23'
p540
(dp541
g3
S'Selena Gomez'
p542
sg5
I19
sg6
S'https://open.spotify.com/track/1sCxVKWImDZSZKvG0U9B23'
p543
sg8
S'Bad Liar'
p544
ssS'6i759FCuKx713ZnYjtpQGU'
p545
(dp546
g3
S'The Weeknd'
p547
sg5
I6
sg6
S'https://open.spotify.com/track/6i759FCuKx713ZnYjtpQGU'
p548
sg8
S'True Colors'
p549
ssS'7lGKEWMXVWWTt3X71Bv44I'
p550
(dp551
g3
S'X Ambassadors'
p552
sg5
I5
sg6
S'https://open.spotify.com/track/7lGKEWMXVWWTt3X71Bv44I'
p553
sg8
S'Unsteady'
p554
ssS'4gHDOASpAaGG9eitQZP1bQ'
p555
(dp556
g3
S'Luke Combs'
p557
sg5
I1
sg6
S'https://open.spotify.com/track/4gHDOASpAaGG9eitQZP1bQ'
p558
sg8
S'Hurricane'
p559
ssS'3sJHkcxojoJD2Ytbo1yLLF'
p560
(dp561
g3
S'Moon Taxi'
p562
sg5
I9
sg6
S'https://open.spotify.com/track/3sJHkcxojoJD2Ytbo1yLLF'
p563
sg8
S'Two High'
p564
ssS'2uSLx5uwRIhiA3sJJraNqX'
p565
(dp566
g3
S'Maroon 5'
p567
sg5
I1
sg6
S'https://open.spotify.com/track/2uSLx5uwRIhiA3sJJraNqX'
p568
sg8
S'Help Me Out (with Julia Michaels)'
p569
ssS'6V9kwssTrwkKT72imgowj9'
p570
(dp571
g3
S'The Chainsmokers'
p572
sg5
I1
sg6
S'https://open.spotify.com/track/6V9kwssTrwkKT72imgowj9'
p573
sg8
S'My Type'
p574
ssS'7uuBfgY1vBCalrQRyyQhqs'
p575
(dp576
g3
S'Rich Chigga'
p577
sg5
I1
sg6
S'https://open.spotify.com/track/7uuBfgY1vBCalrQRyyQhqs'
p578
sg8
S'Gospel'
p579
ssS'0iQTYM2f0ZO6nAPIWq0olW'
p580
(dp581
g3
S'PARTYNEXTDOOR'
p582
sg5
I2
sg6
S'https://open.spotify.com/track/0iQTYM2f0ZO6nAPIWq0olW'
p583
sg8
S'Low Battery'
p584
ssS'1g1TeDflB6atAy7HKwrzXu'
p585
(dp586
g3
S'Kesha'
p587
sg5
I1
sg6
S'https://open.spotify.com/track/1g1TeDflB6atAy7HKwrzXu'
p588
sg8
S'Learn To Let Go'
p589
ssS'6Q2FftbUG530lCtBI74bMH'
p590
(dp591
g3
S'A Boogie Wit da Hoodie'
p592
sg5
I25
sg6
S'https://open.spotify.com/track/6Q2FftbUG530lCtBI74bMH'
p593
sg8
S'Drowning (feat. Kodak Black)'
p594
ssS'4hiUYb2nb6NlfTP9CD38Pe'
p595
(dp596
g3
S'Ti\xc3\xabsto'
p597
sg5
I5
sg6
S'https://open.spotify.com/track/4hiUYb2nb6NlfTP9CD38Pe'
p598
sg8
S'On My Way'
p599
ssS'3TRFq09DUgYj1mug6RRqJW'
p600
(dp601
g3
S'Luke Christopher'
p602
sg5
I11
sg6
S'https://open.spotify.com/track/3TRFq09DUgYj1mug6RRqJW'
p603
sg8
S'Lot to Learn'
p604
ssS'6s2wpWPFPAgKg2LXxi1Oee'
p605
(dp606
g3
S'Bruce Springsteen'
p607
sg5
I1
sg6
S'https://open.spotify.com/track/6s2wpWPFPAgKg2LXxi1Oee'
p608
sg8
S"Santa Claus Is Comin' to Town - Single Version"
p609
ssS'6O6M7pJLABmfBRoGZMu76Y'
p610
(dp611
g3
S'The Chainsmokers'
p612
sg5
I7
sg6
S'https://open.spotify.com/track/6O6M7pJLABmfBRoGZMu76Y'
p613
sg8
S'Roses'
p614
ssS'3eze1OsZ1rqeXkKStNfTmi'
p615
(dp616
g3
S'Chance The Rapper'
p617
sg5
I1
sg6
S'https://open.spotify.com/track/3eze1OsZ1rqeXkKStNfTmi'
p618
sg8
S'Juke Jam (feat. Justin Bieber & Towkio)'
p619
ssS'1rIKgCH4H52lrvDcz50hS8'
p620
(dp621
g3
S'Zara Larsson'
p622
sg5
I2
sg6
S'https://open.spotify.com/track/1rIKgCH4H52lrvDcz50hS8'
p623
sg8
S'Lush Life'
p624
ssS'2Bli1Wbi5mRa1BcVJaZ1m4'
p625
(dp626
g3
S'NAV'
p627
sg5
I1
sg6
S'https://open.spotify.com/track/2Bli1Wbi5mRa1BcVJaZ1m4'
p628
sg8
S'Good For It'
p629
ssS'76gUmNLXGQVOsGhfcshkFP'
p630
(dp631
g3
S'Drake'
p632
sg5
I10
sg6
S'https://open.spotify.com/track/76gUmNLXGQVOsGhfcshkFP'
p633
sg8
S'Madiba Riddim'
p634
ssS'7vGuf3Y35N4wmASOKLUVVU'
p635
(dp636
g3
S'Marshmello'
p637
sg5
I9
sg6
S'https://open.spotify.com/track/7vGuf3Y35N4wmASOKLUVVU'
p638
sg8
S'Silence'
p639
ssS'7pstxLUhvsJC3M4TxHe2aI'
p640
(dp641
g3
S'Ti\xc3\xabsto'
p642
sg5
I1
sg6
S'https://open.spotify.com/track/7pstxLUhvsJC3M4TxHe2aI'
p643
sg8
S'Carry You Home'
p644
ssS'0xPaZrF25ltzvz1a2Pm5DQ'
p645
(dp646
g3
S'Michael Bubl\xc3\xa9'
p647
sg5
I1
sg6
S'https://open.spotify.com/track/0xPaZrF25ltzvz1a2Pm5DQ'
p648
sg8
S'All I Want For Christmas Is You'
p649
ssS'4nBhjVklA3Mtnyzshg4KmD'
p650
(dp651
g3
S'Bryson Tiller'
p652
sg5
I1
sg6
S'https://open.spotify.com/track/4nBhjVklA3Mtnyzshg4KmD'
p653
sg8
S'In Check'
p654
ssS'7iDxZ5Cd0Yg08d4fI5WVtG'
p655
(dp656
g3
S'Calvin Harris'
p657
sg5
I1
sg6
S'https://open.spotify.com/track/7iDxZ5Cd0Yg08d4fI5WVtG'
p658
sg8
S'Skrt On Me'
p659
ssS'4EZUcj7c8n9pWIwHqN0DoH'
p660
(dp661
g3
S'Bing Crosby'
p662
sg5
I1
sg6
S'https://open.spotify.com/track/4EZUcj7c8n9pWIwHqN0DoH'
p663
sg8
S'Do You Hear What I Hear?'
p664
ssS'3agtg0x11wPvLIWkYR39nZ'
p665
(dp666
g3
S'Linkin Park'
p667
sg5
I1
sg6
S'https://open.spotify.com/track/3agtg0x11wPvLIWkYR39nZ'
p668
sg8
S'Somewhere I Belong'
p669
ssS'7129iqBafaphfc3WPCGC0L'
p670
(dp671
g3
S'Lukas Graham'
p672
sg5
I12
sg6
S'https://open.spotify.com/track/7129iqBafaphfc3WPCGC0L'
p673
sg8
S'7 Years'
p674
ssS'4WjH9Bzt3kx7z8kl0awxh4'
p675
(dp676
g3
S'Major Lazer'
p677
sg5
I15
sg6
S'https://open.spotify.com/track/4WjH9Bzt3kx7z8kl0awxh4'
p678
sg8
S'Lean On (feat. M\xc3\x98 & DJ Snake)'
p679
ssS'1vvNmPOiUuyCbgWmtc6yfm'
p680
(dp681
g3
S'Calvin Harris'
p682
sg5
I18
sg6
S'https://open.spotify.com/track/1vvNmPOiUuyCbgWmtc6yfm'
p683
sg8
S'My Way'
p684
ssS'57p8CBvPOxrvyCbn6ttl5r'
p685
(dp686
g3
S'Skrillex'
p687
sg5
I11
sg6
S'https://open.spotify.com/track/57p8CBvPOxrvyCbn6ttl5r'
p688
sg8
S'Would You Ever'
p689
ssS'0CcQNd8CINkwQfe1RDtGV6'
p690
(dp691
g3
S'Imagine Dragons'
p692
sg5
I33
sg6
S'https://open.spotify.com/track/0CcQNd8CINkwQfe1RDtGV6'
p693
sg8
S'Believer'
p694
ssS'7oolFzHipTMg2nL7shhdz2'
p695
(dp696
g3
S'Ed Sheeran'
p697
sg5
I5
sg6
S'https://open.spotify.com/track/7oolFzHipTMg2nL7shhdz2'
p698
sg8
S'Eraser'
p699
ssS'0RRAHU9Dkui4ZuroPk7XF3'
p700
(dp701
g3
S'NAV'
p702
sg5
I1
sg6
S'https://open.spotify.com/track/0RRAHU9Dkui4ZuroPk7XF3'
p703
sg8
S'Both Sides'
p704
ssS'1f5cbQtDrykjarZVrShaDI'
p705
(dp706
g3
S'A Boogie Wit da Hoodie'
p707
sg5
I2
sg6
S'https://open.spotify.com/track/1f5cbQtDrykjarZVrShaDI'
p708
sg8
S'Drowning (feat. Kodak Black)'
p709
ssS'4QeBlVCl2KzUEcQZiuskRd'
p710
(dp711
g3
S'NexXthursday'
p712
sg5
I4
sg6
S'https://open.spotify.com/track/4QeBlVCl2KzUEcQZiuskRd'
p713
sg8
S'Sway (feat. Quavo & Lil Yachty)'
p714
ssS'7fURZRPkB2S70sYR1naKTK'
p715
(dp716
g3
S'Soundgarden'
p717
sg5
I1
sg6
S'https://open.spotify.com/track/7fURZRPkB2S70sYR1naKTK'
p718
sg8
S'Black Hole Sun'
p719
ssS'3B7udSGy2PfgoCniMSb523'
p720
(dp721
g3
S'Ed Sheeran'
p722
sg5
I1
sg6
S'https://open.spotify.com/track/3B7udSGy2PfgoCniMSb523'
p723
sg8
S'I See Fire'
p724
ssS'2WQn7Yvs728KZmmY6tgWqH'
p725
(dp726
g3
S'Halsey'
p727
sg5
I4
sg6
S'https://open.spotify.com/track/2WQn7Yvs728KZmmY6tgWqH'
p728
sg8
S'Eyes Closed'
p729
ssS'3NdDpSvN911VPGivFlV5d0'
p730
(dp731
g3
S'ZAYN'
p732
sg5
I42
sg6
S'https://open.spotify.com/track/3NdDpSvN911VPGivFlV5d0'
p733
sg8
S'I Don\xe2\x80\x99t Wanna Live Forever (Fifty Shades Darker) - From Fifty Shades Darker (Original Motion Picture Soundtrack)'
p734
ssS'6fwdbPMwP1zVStm8FybmkO'
p735
(dp736
g3
S'21 Savage'
p737
sg5
I42
sg6
S'https://open.spotify.com/track/6fwdbPMwP1zVStm8FybmkO'
p738
sg8
S'X (feat. Future)'
p739
ssS'6UrKVLhzBYZY6fXmNyCLDi'
p740
(dp741
g3
S'Bing Crosby'
p742
sg5
I1
sg6
S'https://open.spotify.com/track/6UrKVLhzBYZY6fXmNyCLDi'
p743
sg8
S'Mele Kalikimaka - Single Version'
p744
ssS'02hNDxtMMTpq72rdp1lm6v'
p745
(dp746
g3
S'2 Chainz'
p747
sg5
I1
sg6
S'https://open.spotify.com/track/02hNDxtMMTpq72rdp1lm6v'
p748
sg8
S'4 AM'
p749
ssS'37F0uwRSrdzkBiuj0D5UHI'
p750
(dp751
g3
S'The Weeknd'
p752
sg5
I42
sg6
S'https://open.spotify.com/track/37F0uwRSrdzkBiuj0D5UHI'
p753
sg8
S'Reminder'
p754
ssS'1wC93sZRGcTgKLN2UWRSwW'
p755
(dp756
g3
S'Lorde'
p757
sg5
I2
sg6
S'https://open.spotify.com/track/1wC93sZRGcTgKLN2UWRSwW'
p758
sg8
S'Perfect Places'
p759
ssS'0Gm6yW9dqvWhBO8DQDiLHs'
p760
(dp761
g3
S'Julia Michaels'
p762
sg5
I2
sg6
S'https://open.spotify.com/track/0Gm6yW9dqvWhBO8DQDiLHs'
p763
sg8
S'Worst In Me'
p764
ssS'5hfpu8saHLGedbHRtNCYjm'
p765
(dp766
g3
S'Machine Gun Kelly'
p767
sg5
I15
sg6
S'https://open.spotify.com/track/5hfpu8saHLGedbHRtNCYjm'
p768
sg8
S'Trap Paris (feat. Quavo & Ty Dolla $ign)'
p769
ssS'3DX4Y0egvc0slLcLl31h2p'
p770
(dp771
g3
S'The Weeknd'
p772
sg5
I6
sg6
S'https://open.spotify.com/track/3DX4Y0egvc0slLcLl31h2p'
p773
sg8
S'Secrets'
p774
ssS'6wV12xIUb8oFY7lBy4KuQe'
p775
(dp776
g3
S'Aaron Carter'
p777
sg5
I12
sg6
S'https://open.spotify.com/track/6wV12xIUb8oFY7lBy4KuQe'
p778
sg8
S'Sooner Or Later'
p779
ssS'6VJ2Z7OHjHA5xfEDqzUr6j'
p780
(dp781
g3
S'Hedley'
p782
sg5
I5
sg6
S'https://open.spotify.com/track/6VJ2Z7OHjHA5xfEDqzUr6j'
p783
sg8
S'Better Days'
p784
ssS'6HEIBHUirx1J0JkUD24szt'
p785
(dp786
g3
S'Ugly God'
p787
sg5
I3
sg6
S'https://open.spotify.com/track/6HEIBHUirx1J0JkUD24szt'
p788
sg8
S'Water'
p789
ssS'1UZOjK1BwmwWU14Erba9CZ'
p790
(dp791
g3
S'Miley Cyrus'
p792
sg5
I2
sg6
S'https://open.spotify.com/track/1UZOjK1BwmwWU14Erba9CZ'
p793
sg8
S'Malibu'
p794
ssS'7oK9VyNzrYvRFo7nQEYkWN'
p795
(dp796
g3
S'The Killers'
p797
sg5
I1
sg6
S'https://open.spotify.com/track/7oK9VyNzrYvRFo7nQEYkWN'
p798
sg8
S'Mr. Brightside'
p799
ssS'2eMwDehkIC1j68U6FA3Eiq'
p800
(dp801
g3
S'Lil Uzi Vert'
p802
sg5
I22
sg6
S'https://open.spotify.com/track/2eMwDehkIC1j68U6FA3Eiq'
p803
sg8
S'XO TOUR Llif3'
p804
ssS'7Hz6LLOVxrojLPIHJJ1S0E'
p805
(dp806
g3
S'Sam Smith'
p807
sg5
I1
sg6
S'https://open.spotify.com/track/7Hz6LLOVxrojLPIHJJ1S0E'
p808
sg8
S'Have Yourself A Merry Little Christmas'
p809
ssS'3CRDbSIZ4r5MsZ0YwxuEkn'
p810
(dp811
g3
S'Twenty One Pilots'
p812
sg5
I15
sg6
S'https://open.spotify.com/track/3CRDbSIZ4r5MsZ0YwxuEkn'
p813
sg8
S'Stressed Out'
p814
ssS'0gbBzIqrECJOEPvQJIBFs5'
p815
(dp816
g3
S'Lorde'
p817
sg5
I17
sg6
S'https://open.spotify.com/track/0gbBzIqrECJOEPvQJIBFs5'
p818
sg8
S'Green Light'
p819
ssS'4dVpf9jZjcORqGTLUaeYj9'
p820
(dp821
g3
S'A$AP Ferg'
p822
sg5
I7
sg6
S'https://open.spotify.com/track/4dVpf9jZjcORqGTLUaeYj9'
p823
sg8
S'Plain Jane'
p824
ssS'6mICuAdrwEjh6Y6lroV2Kg'
p825
(dp826
g3
S'Shakira'
p827
sg5
I21
sg6
S'https://open.spotify.com/track/6mICuAdrwEjh6Y6lroV2Kg'
p828
sg8
S'Chantaje'
p829
ssS'1nX9KhK3Fff27SnrIor2Yb'
p830
(dp831
g3
S'2 Chainz'
p832
sg5
I17
sg6
S'https://open.spotify.com/track/1nX9KhK3Fff27SnrIor2Yb'
p833
sg8
S'4 AM'
p834
ssS'4iyH6JZBZjk3htdJdZ6r51'
p835
(dp836
g3
S'Demi Lovato'
p837
sg5
I1
sg6
S'https://open.spotify.com/track/4iyH6JZBZjk3htdJdZ6r51'
p838
sg8
S'Ruin The Friendship'
p839
ssS'6F609ICg9Spjrw1epsAnpa'
p840
(dp841
g3
S'Drake'
p842
sg5
I28
sg6
S'https://open.spotify.com/track/6F609ICg9Spjrw1epsAnpa'
p843
sg8
S'Controlla'
p844
ssS'3gWu8y0TKCIdy2mpTqVnTl'
p845
(dp846
g3
S'NF'
p847
sg5
I1
sg6
S'https://open.spotify.com/track/3gWu8y0TKCIdy2mpTqVnTl'
p848
sg8
S'Let You Down'
p849
ssS'2pnPe4pJtq7689i5ydzvJJ'
p850
(dp851
g3
S'Chuck Berry'
p852
sg5
I1
sg6
S'https://open.spotify.com/track/2pnPe4pJtq7689i5ydzvJJ'
p853
sg8
S'Run Rudolph Run - Single Version'
p854
ssS'1WC5UN1U79gJlxGLYDGIO7'
p855
(dp856
g3
S'Lorde'
p857
sg5
I2
sg6
S'https://open.spotify.com/track/1WC5UN1U79gJlxGLYDGIO7'
p858
sg8
S'Green Light'
p859
ssS'5qdaaB2RYHohGB1vglLuAf'
p860
(dp861
g3
S'Future'
p862
sg5
I1
sg6
S'https://open.spotify.com/track/5qdaaB2RYHohGB1vglLuAf'
p863
sg8
S'Lookin Exotic'
p864
ssS'5qbcsZMwL0x46sX7VO37Ye'
p865
(dp866
g3
S'NAV'
p867
sg5
I16
sg6
S'https://open.spotify.com/track/5qbcsZMwL0x46sX7VO37Ye'
p868
sg8
S'Up'
p869
ssS'7gHs73wELdeycvS48JfIos'
p870
(dp871
g3
S'Alan Walker'
p872
sg5
I17
sg6
S'https://open.spotify.com/track/7gHs73wELdeycvS48JfIos'
p873
sg8
S'Faded'
p874
ssS'28mrq1UKIVItTbPqyub52b'
p875
(dp876
g3
S'21 Savage'
p877
sg5
I1
sg6
S'https://open.spotify.com/track/28mrq1UKIVItTbPqyub52b'
p878
sg8
S'Close My Eyes'
p879
ssS'3OoZagIW3YK8vjt0ws6NOI'
p880
(dp881
g3
S'DJ Khaled'
p882
sg5
I3
sg6
S'https://open.spotify.com/track/3OoZagIW3YK8vjt0ws6NOI'
p883
sg8
S'Shining'
p884
ssS'16dXg2YuFOxwDC3cTf5jde'
p885
(dp886
g3
S'Kodak Black'
p887
sg5
I2
sg6
S'https://open.spotify.com/track/16dXg2YuFOxwDC3cTf5jde'
p888
sg8
S'Conscience (feat. Future)'
p889
ssS'00lNx0OcTJrS3MKHcB80HY'
p890
(dp891
g3
S'Jax Jones'
p892
sg5
I11
sg6
S'https://open.spotify.com/track/00lNx0OcTJrS3MKHcB80HY'
p893
sg8
S"You Don't Know Me - Radio Edit"
p894
ssS'32DGGj6KlNuBr6WaqRxpxi'
p895
(dp896
g3
S'Charlie Puth'
p897
sg5
I1
sg6
S'https://open.spotify.com/track/32DGGj6KlNuBr6WaqRxpxi'
p898
sg8
S'How Long'
p899
ssS'1QXg7pVx5hpAZWw8KIAcGw'
p900
(dp901
g3
S'Carpenters'
p902
sg5
I1
sg6
S'https://open.spotify.com/track/1QXg7pVx5hpAZWw8KIAcGw'
p903
sg8
S'Merry Christmas Darling - Album Version/Remix'
p904
ssS'6t2ubAB4iSYOuIpRAOGd4t'
p905
(dp906
g3
S'Flo Rida'
p907
sg5
I13
sg6
S'https://open.spotify.com/track/6t2ubAB4iSYOuIpRAOGd4t'
p908
sg8
S'Cake'
p909
ssS'4nDfc6F2uVcc6wdG7kBzWO'
p910
(dp911
g3
S'Nick Jonas'
p912
sg5
I3
sg6
S'https://open.spotify.com/track/4nDfc6F2uVcc6wdG7kBzWO'
p913
sg8
S'Bom Bidi Bom - From Fifty Shades Darker (Original Motion Picture Soundtrack)'
p914
ssS'2ANLarE8yHVsLWW21nj79M'
p915
(dp916
g3
S'Lil Uzi Vert'
p917
sg5
I9
sg6
S'https://open.spotify.com/track/2ANLarE8yHVsLWW21nj79M'
p918
sg8
S'You Was Right'
p919
ssS'0dj1CtyRxZ4bnIT4Q20jNT'
p920
(dp921
g3
S'The Chainsmokers'
p922
sg5
I1
sg6
S'https://open.spotify.com/track/0dj1CtyRxZ4bnIT4Q20jNT'
p923
sg8
S'Wake Up Alone'
p924
ssS'0fg8CqpjdojMyXLNzM2PaJ'
p925
(dp926
g3
S'Major Lazer'
p927
sg5
I30
sg6
S'https://open.spotify.com/track/0fg8CqpjdojMyXLNzM2PaJ'
p928
sg8
S'Run Up (feat. PARTYNEXTDOOR & Nicki Minaj)'
p929
ssS'6CwTHNCzgkq41m11iPpzsf'
p930
(dp931
g3
S'DJ Khaled'
p932
sg5
I1
sg6
S'https://open.spotify.com/track/6CwTHNCzgkq41m11iPpzsf'
p933
sg8
S'Down for Life'
p934
ssS'3A2waEDfZQfl6RNOn8Y1xW'
p935
(dp936
g3
S'R3HAB'
p937
sg5
I6
sg6
S'https://open.spotify.com/track/3A2waEDfZQfl6RNOn8Y1xW'
p938
sg8
S'Trouble'
p939
ssS'6uFsE1JgZ20EXyU0JQZbUR'
p940
(dp941
g3
S'Taylor Swift'
p942
sg5
I7
sg6
S'https://open.spotify.com/track/6uFsE1JgZ20EXyU0JQZbUR'
p943
sg8
S'Look What You Made Me Do'
p944
ssS'53LkLW4k4w7EOayzvx70O9'
p945
(dp946
g3
S'Logic'
p947
sg5
I1
sg6
S'https://open.spotify.com/track/53LkLW4k4w7EOayzvx70O9'
p948
sg8
S'Mos Definitely'
p949
ssS'7lxZbmtC6SkUc2yXBgDOdO'
p950
(dp951
g3
S'DJ Khaled'
p952
sg5
I1
sg6
S'https://open.spotify.com/track/7lxZbmtC6SkUc2yXBgDOdO'
p953
sg8
S'On Everything'
p954
ssS'7Fa5UNizycSms5jP3SQD3F'
p955
(dp956
g3
S'DJ Khaled'
p957
sg5
I1
sg6
S'https://open.spotify.com/track/7Fa5UNizycSms5jP3SQD3F'
p958
sg8
S'Shining'
p959
ssS'4xBjsLUSjcx2h7PcRikpQp'
p960
(dp961
g3
S'Camila Cabello'
p962
sg5
I10
sg6
S'https://open.spotify.com/track/4xBjsLUSjcx2h7PcRikpQp'
p963
sg8
S'OMG'
p964
ssS'0URaKGzNTtzKRtsJN1RkA9'
p965
(dp966
g3
S'Big Sean'
p967
sg5
I1
sg6
S'https://open.spotify.com/track/0URaKGzNTtzKRtsJN1RkA9'
p968
sg8
S'Light'
p969
ssS'7GX5flRQZVHRAGd6B4TmDO'
p970
(dp971
g3
S'Lil Uzi Vert'
p972
sg5
I7
sg6
S'https://open.spotify.com/track/7GX5flRQZVHRAGd6B4TmDO'
p973
sg8
S'XO TOUR Llif3'
p974
ssS'4F7A0DXBrmUAkp32uenhZt'
p975
(dp976
g3
S'The Weeknd'
p977
sg5
I34
sg6
S'https://open.spotify.com/track/4F7A0DXBrmUAkp32uenhZt'
p978
sg8
S'Party Monster'
p979
ssS'5kRPPEWFJIMox5qIkQkiz5'
p980
(dp981
g3
S'Harry Styles'
p982
sg5
I5
sg6
S'https://open.spotify.com/track/5kRPPEWFJIMox5qIkQkiz5'
p983
sg8
S'Sweet Creature'
p984
ssS'2zYs4BonN2ydkbrRk333SN'
p985
(dp986
g3
S'WizKid'
p987
sg5
I6
sg6
S'https://open.spotify.com/track/2zYs4BonN2ydkbrRk333SN'
p988
sg8
S'Come Closer'
p989
ssS'3pXF1nA74528Edde4of9CC'
p990
(dp991
g3
S'Bryson Tiller'
p992
sg5
I12
sg6
S'https://open.spotify.com/track/3pXF1nA74528Edde4of9CC'
p993
sg8
S"Don't"
p994
ssS'4nMlau89VAjmV7agkl7OY3'
p995
(dp996
g3
S'Andy Grammer'
p997
sg5
I10
sg6
S'https://open.spotify.com/track/4nMlau89VAjmV7agkl7OY3'
p998
sg8
S'Fresh Eyes'
p999
ssS'24BSTATmWEmrPOgEM17bfN'
p1000
(dp1001
g3
S'French Montana'
p1002
sg5
I4
sg6
S'https://open.spotify.com/track/24BSTATmWEmrPOgEM17bfN'
p1003
sg8
S'No Shopping'
p1004
ssS'4qBejt9FeqLI9blHI1Nq1x'
p1005
(dp1006
g3
S'Michael Bubl\xc3\xa9'
p1007
sg5
I1
sg6
S'https://open.spotify.com/track/4qBejt9FeqLI9blHI1Nq1x'
p1008
sg8
S'Jingle Bells (feat. The Puppini Sisters)'
p1009
ssS'0pJPdSVti6cTM1Q6xYGmcf'
p1010
(dp1011
g3
S'Calvin Harris'
p1012
sg5
I2
sg6
S'https://open.spotify.com/track/0pJPdSVti6cTM1Q6xYGmcf'
p1013
sg8
S'Faking It'
p1014
ssS'5tVA6TkbaAH9QMITTQRrNv'
p1015
(dp1016
g3
S'Tom Petty'
p1017
sg5
I2
sg6
S'https://open.spotify.com/track/5tVA6TkbaAH9QMITTQRrNv'
p1018
sg8
S"Free Fallin'"
p1019
ssS'75ZvA4QfFiZvzhj2xkaWAh'
p1020
(dp1021
g3
S'Post Malone'
p1022
sg5
I3
sg6
S'https://open.spotify.com/track/75ZvA4QfFiZvzhj2xkaWAh'
p1023
sg8
S'I Fall Apart'
p1024
ssS'1sTUEdVO85YU8Ymk2jeAls'
p1025
(dp1026
g3
S'MiC LOWRY'
p1027
sg5
I4
sg6
S'https://open.spotify.com/track/1sTUEdVO85YU8Ymk2jeAls'
p1028
sg8
S'Oh Lord'
p1029
ssS'7BKLCZ1jbUBVqRi2FVlTVw'
p1030
(dp1031
g3
S'The Chainsmokers'
p1032
sg5
I42
sg6
S'https://open.spotify.com/track/7BKLCZ1jbUBVqRi2FVlTVw'
p1033
sg8
S'Closer'
p1034
ssS'5QxqypupYWHrY8IkGCSObQ'
p1035
(dp1036
g3
S'Migos'
p1037
sg5
I1
sg6
S'https://open.spotify.com/track/5QxqypupYWHrY8IkGCSObQ'
p1038
sg8
S'All Ass'
p1039
ssS'39pS70eeDvyCAF3t8NAlVV'
p1040
(dp1041
g3
S'2 Chainz'
p1042
sg5
I7
sg6
S'https://open.spotify.com/track/39pS70eeDvyCAF3t8NAlVV'
p1043
sg8
S'Good Drank'
p1044
ssS'7hDc8b7IXETo14hHIHdnhd'
p1045
(dp1046
g3
S'Drake'
p1047
sg5
I30
sg6
S'https://open.spotify.com/track/7hDc8b7IXETo14hHIHdnhd'
p1048
sg8
S'Passionfruit'
p1049
ssS'6xHI9KjUjYT0FPtGO8Mxa1'
p1050
(dp1051
g3
S'Luke Combs'
p1052
sg5
I22
sg6
S'https://open.spotify.com/track/6xHI9KjUjYT0FPtGO8Mxa1'
p1053
sg8
S'Hurricane'
p1054
ssS'0PU6tnyfo19DRCM7g5ISl4'
p1055
(dp1056
g3
S'Coleman Hell'
p1057
sg5
I13
sg6
S'https://open.spotify.com/track/0PU6tnyfo19DRCM7g5ISl4'
p1058
sg8
S'Devotion - SMLE Remix'
p1059
ssS'0tICYNayWWhH9GPeFrfjfD'
p1060
(dp1061
g3
S'Kungs'
p1062
sg5
I9
sg6
S'https://open.spotify.com/track/0tICYNayWWhH9GPeFrfjfD'
p1063
sg8
S"This Girl (Kungs Vs. Cookin' On 3 Burners) - Kungs Vs. Cookin' On 3 Burners"
p1064
ssS'0Z9HQ8YvHqdeOjTwsR3cS7'
p1065
(dp1066
g3
S'Moon Taxi'
p1067
sg5
I7
sg6
S'https://open.spotify.com/track/0Z9HQ8YvHqdeOjTwsR3cS7'
p1068
sg8
S'Two High'
p1069
ssS'3Lfiu5sZ4M4B6JaKMBc0FU'
p1070
(dp1071
g3
S'Ed Sheeran'
p1072
sg5
I6
sg6
S'https://open.spotify.com/track/3Lfiu5sZ4M4B6JaKMBc0FU'
p1073
sg8
S'Barcelona'
p1074
ssS'2LTlO3NuNVN70lp2ZbVswF'
p1075
(dp1076
g3
S'Kendrick Lamar'
p1077
sg5
I6
sg6
S'https://open.spotify.com/track/2LTlO3NuNVN70lp2ZbVswF'
p1078
sg8
S'FEEL.'
p1079
ssS'2d48mamATjby7wgPjdrSOQ'
p1080
(dp1081
g3
S'Thomas Rhett'
p1082
sg5
I3
sg6
S'https://open.spotify.com/track/2d48mamATjby7wgPjdrSOQ'
p1083
sg8
S'Craving You'
p1084
ssS'59J5nzL1KniFHnU120dQzt'
p1085
(dp1086
g3
S'Playboi Carti'
p1087
sg5
I22
sg6
S'https://open.spotify.com/track/59J5nzL1KniFHnU120dQzt'
p1088
sg8
S'wokeuplikethis*'
p1089
ssS'1tlBuoIRrtqFs9bE9dmli5'
p1090
(dp1091
g3
S'Future'
p1092
sg5
I5
sg6
S'https://open.spotify.com/track/1tlBuoIRrtqFs9bE9dmli5'
p1093
sg8
S'Extra Luv'
p1094
ssS'1eVRnmGhDPATPxz6kqWuCP'
p1095
(dp1096
g3
S'Julia Michaels'
p1097
sg5
I2
sg6
S'https://open.spotify.com/track/1eVRnmGhDPATPxz6kqWuCP'
p1098
sg8
S'Uh Huh'
p1099
ssS'1MJErNPIQUoEMu4YUUmecm'
p1100
(dp1101
g3
S'Lil Uzi Vert'
p1102
sg5
I2
sg6
S'https://open.spotify.com/track/1MJErNPIQUoEMu4YUUmecm'
p1103
sg8
S'Neon Guts (feat. Pharrell Williams)'
p1104
ssS'2pzuU8vLaG8W1P31X65ZP9'
p1105
(dp1106
g3
S'Big Sean'
p1107
sg5
I1
sg6
S'https://open.spotify.com/track/2pzuU8vLaG8W1P31X65ZP9'
p1108
sg8
S'Voices In My Head/Stick To The Plan'
p1109
ssS'65Q2mv3UlVi9eO70OpsmSe'
p1110
(dp1111
g3
S'Burl Ives'
p1112
sg5
I1
sg6
S'https://open.spotify.com/track/65Q2mv3UlVi9eO70OpsmSe'
p1113
sg8
S'A Holly Jolly Christmas - Single Version'
p1114
ssS'0XLOf9LhyazPX9Ld8jPiUq'
p1115
(dp1116
g3
S'Selena Gomez'
p1117
sg5
I12
sg6
S'https://open.spotify.com/track/0XLOf9LhyazPX9Ld8jPiUq'
p1118
sg8
S'Fetish (feat. Gucci Mane)'
p1119
ssS'05Z7jet4VDNVgNQWcYHnrk'
p1120
(dp1121
g3
S'Chris Brown'
p1122
sg5
I9
sg6
S'https://open.spotify.com/track/05Z7jet4VDNVgNQWcYHnrk'
p1123
sg8
S'Party'
p1124
ssS'0kN8xEmgMW9mh7UmDYHlJP'
p1125
(dp1126
g3
S'Bruno Mars'
p1127
sg5
I11
sg6
S'https://open.spotify.com/track/0kN8xEmgMW9mh7UmDYHlJP'
p1128
sg8
S'Versace On The Floor'
p1129
ssS'1yxgsra98r3qAtxqiGZPiX'
p1130
(dp1131
g3
S'Travis Scott'
p1132
sg5
I21
sg6
S'https://open.spotify.com/track/1yxgsra98r3qAtxqiGZPiX'
p1133
sg8
S'Butterfly Effect'
p1134
ssS'7EiZI6JVHllARrX9PUvAdX'
p1135
(dp1136
g3
S'Future'
p1137
sg5
I31
sg6
S'https://open.spotify.com/track/7EiZI6JVHllARrX9PUvAdX'
p1138
sg8
S'Low Life'
p1139
ssS'550rQQCGkrTzvp4SfpOPzx'
p1140
(dp1141
g3
S'Pentatonix'
p1142
sg5
I1
sg6
S'https://open.spotify.com/track/550rQQCGkrTzvp4SfpOPzx'
p1143
sg8
S'Hallelujah'
p1144
ssS'6ZCsp2zQsSTCilvGVefGVN'
p1145
(dp1146
g3
S'Bryson Tiller'
p1147
sg5
I1
sg6
S'https://open.spotify.com/track/6ZCsp2zQsSTCilvGVefGVN'
p1148
sg8
S'High Stakes'
p1149
ssS'3xXBsjrbG1xQIm1xv1cKOt'
p1150
(dp1151
g3
S'Linkin Park'
p1152
sg5
I1
sg6
S'https://open.spotify.com/track/3xXBsjrbG1xQIm1xv1cKOt'
p1153
sg8
S'One More Light'
p1154
ssS'5lFDtgWsjRJu8fPOAyJIAK'
p1155
(dp1156
g3
S'Drake'
p1157
sg5
I10
sg6
S'https://open.spotify.com/track/5lFDtgWsjRJu8fPOAyJIAK'
p1158
sg8
S'Back To Back'
p1159
ssS'6A8dnC0xkiuWN4BshmTB2I'
p1160
(dp1161
g3
S'A R I Z O N A'
p1162
sg5
I10
sg6
S'https://open.spotify.com/track/6A8dnC0xkiuWN4BshmTB2I'
p1163
sg8
S'Oceans Away'
p1164
ssS'0NWqNXBJTpXbkI5rPWNy3p'
p1165
(dp1166
g3
S'The Weeknd'
p1167
sg5
I6
sg6
S'https://open.spotify.com/track/0NWqNXBJTpXbkI5rPWNy3p'
p1168
sg8
S'All I Know'
p1169
ssS'2OALaHcDdKkjYEpAr0Qzab'
p1170
(dp1171
g3
S'Avicii'
p1172
sg5
I9
sg6
S'https://open.spotify.com/track/2OALaHcDdKkjYEpAr0Qzab'
p1173
sg8
S'Lonely Together (feat. Rita Ora)'
p1174
ssS'56lBX2WHqfGuoeZxZvUnVj'
p1175
(dp1176
g3
S'Imagine Dragons'
p1177
sg5
I3
sg6
S'https://open.spotify.com/track/56lBX2WHqfGuoeZxZvUnVj'
p1178
sg8
S'Thunder'
p1179
ssS'0XfOi87h82i09rQjWYG0Bm'
p1180
(dp1181
g3
S'Jax Jones'
p1182
sg5
I4
sg6
S'https://open.spotify.com/track/0XfOi87h82i09rQjWYG0Bm'
p1183
sg8
S'Instruction (feat. Demi Lovato & Stefflon Don)'
p1184
ssS'5qqabIl2vWzo9ApSC317sa'
p1185
(dp1186
g3
S'Oasis'
p1187
sg5
I1
sg6
S'https://open.spotify.com/track/5qqabIl2vWzo9ApSC317sa'
p1188
sg8
S'Wonderwall - Remastered'
p1189
ssS'28irpKCCK9nn9DZSik2zEx'
p1190
(dp1191
g3
S'Drake'
p1192
sg5
I5
sg6
S'https://open.spotify.com/track/28irpKCCK9nn9DZSik2zEx'
p1193
sg8
S'Glow'
p1194
ssS'5JUu0unA8VwhTZ9LkMWUVI'
p1195
(dp1196
g3
S'Drake'
p1197
sg5
I4
sg6
S'https://open.spotify.com/track/5JUu0unA8VwhTZ9LkMWUVI'
p1198
sg8
S'Since Way Back'
p1199
ssS'4IWAyPf1KMq7JCyGeCjTeH'
p1200
(dp1201
g3
S'Imagine Dragons'
p1202
sg5
I7
sg6
S'https://open.spotify.com/track/4IWAyPf1KMq7JCyGeCjTeH'
p1203
sg8
S'Whatever It Takes'
p1204
ssS'6dVZCbi9CYtD9LjAHXRjIG'
p1205
(dp1206
g3
S'Future'
p1207
sg5
I16
sg6
S'https://open.spotify.com/track/6dVZCbi9CYtD9LjAHXRjIG'
p1208
sg8
S'Mask Off - Remix'
p1209
ssS'0OVhQZkNe7lh0fQeH96EFW'
p1210
(dp1211
g3
S'Bryson Tiller'
p1212
sg5
I1
sg6
S'https://open.spotify.com/track/0OVhQZkNe7lh0fQeH96EFW'
p1213
sg8
S"Don't Get Too High"
p1214
ssS'05nbZ1xxVNwUTcGwLbp7CN'
p1215
(dp1216
g3
S'NAV'
p1217
sg5
I11
sg6
S'https://open.spotify.com/track/05nbZ1xxVNwUTcGwLbp7CN'
p1218
sg8
S'Myself'
p1219
ssS'1RMJOxR6GRPsBHL8qeC2ux'
p1220
(dp1221
g3
S'Daniel Caesar'
p1222
sg5
I1
sg6
S'https://open.spotify.com/track/1RMJOxR6GRPsBHL8qeC2ux'
p1223
sg8
S'Best Part (feat. H.E.R.)'
p1224
ssS'0ZExP2I5Ej92PsnG4G1jVG'
p1225
(dp1226
g3
S'Julia Michaels'
p1227
sg5
I4
sg6
S'https://open.spotify.com/track/0ZExP2I5Ej92PsnG4G1jVG'
p1228
sg8
S'Uh Huh'
p1229
ssS'7MUNNBJKYo3cdokp06wEOB'
p1230
(dp1231
g3
S'Vance Joy'
p1232
sg5
I1
sg6
S'https://open.spotify.com/track/7MUNNBJKYo3cdokp06wEOB'
p1233
sg8
S'Lay It On Me'
p1234
ssS'0dKDwt7DP0uH4XyGaVMtVP'
p1235
(dp1236
g3
S'Walk Off the Earth'
p1237
sg5
I11
sg6
S'https://open.spotify.com/track/0dKDwt7DP0uH4XyGaVMtVP'
p1238
sg8
S'Fire In My Soul'
p1239
ssS'78sr3ogs4UzITcCNbXM9cM'
p1240
(dp1241
g3
S'Future'
p1242
sg5
I9
sg6
S'https://open.spotify.com/track/78sr3ogs4UzITcCNbXM9cM'
p1243
sg8
S'Used to This'
p1244
ssS'2S2od3hT7ceytw7d1pTRuE'
p1245
(dp1246
g3
S'Noah Cyrus'
p1247
sg5
I3
sg6
S'https://open.spotify.com/track/2S2od3hT7ceytw7d1pTRuE'
p1248
sg8
S'Again'
p1249
ssS'3pndPhlQWjuSoXhcIIdBjv'
p1250
(dp1251
g3
S'Russ'
p1252
sg5
I42
sg6
S'https://open.spotify.com/track/3pndPhlQWjuSoXhcIIdBjv'
p1253
sg8
S'What They Want'
p1254
ssS'0WCEaydwN65cvwaW8aqptF'
p1255
(dp1256
g3
S'Olivia Holt'
p1257
sg5
I18
sg6
S'https://open.spotify.com/track/0WCEaydwN65cvwaW8aqptF'
p1258
sg8
S'History'
p1259
ssS'6KjbNLbRjuoa8rEq5yNA6H'
p1260
(dp1261
g3
S'The Chainsmokers'
p1262
sg5
I1
sg6
S'https://open.spotify.com/track/6KjbNLbRjuoa8rEq5yNA6H'
p1263
sg8
S'Honest'
p1264
ssS'3FiE2d325mIOc4YjkSLVJR'
p1265
(dp1266
g3
S'Ariana Grande'
p1267
sg5
I10
sg6
S'https://open.spotify.com/track/3FiE2d325mIOc4YjkSLVJR'
p1268
sg8
S'Everyday'
p1269
ssS'4EbULzyWMuFx94aoIY1MlJ'
p1270
(dp1271
g3
S'NAV'
p1272
sg5
I4
sg6
S'https://open.spotify.com/track/4EbULzyWMuFx94aoIY1MlJ'
p1273
sg8
S'A$AP Ferg'
p1274
ssS'3A7qX2QjDlPnazUsRk5y0M'
p1275
(dp1276
g3
S'David Guetta'
p1277
sg5
I17
sg6
S'https://open.spotify.com/track/3A7qX2QjDlPnazUsRk5y0M'
p1278
sg8
S'2U (feat. Justin Bieber)'
p1279
ssS'2hJWZvTw4QVBwC14ZNs1Ib'
p1280
(dp1281
g3
S'Lil Pump'
p1282
sg5
I1
sg6
S'https://open.spotify.com/track/2hJWZvTw4QVBwC14ZNs1Ib'
p1283
sg8
S'Flex Like Ouu'
p1284
ssS'2bjwRfXMk4uRgOD9IBYl9h'
p1285
(dp1286
g3
S'Drake'
p1287
sg5
I30
sg6
S'https://open.spotify.com/track/2bjwRfXMk4uRgOD9IBYl9h'
p1288
sg8
S'Portland'
p1289
ssS'0FuTx2s3YH1ppmtiM6l0zI'
p1290
(dp1291
g3
S'JP Cooper'
p1292
sg5
I12
sg6
S'https://open.spotify.com/track/0FuTx2s3YH1ppmtiM6l0zI'
p1293
sg8
S'September Song'
p1294
ssS'0Zbbxnx4SGGHoIow4PpISP'
p1295
(dp1296
g3
S'Kygo'
p1297
sg5
I3
sg6
S'https://open.spotify.com/track/0Zbbxnx4SGGHoIow4PpISP'
p1298
sg8
S'Stargazing'
p1299
ssS'1QgTBfRN5m81a5K01qens6'
p1300
(dp1301
g3
S'Lil Uzi Vert'
p1302
sg5
I3
sg6
S'https://open.spotify.com/track/1QgTBfRN5m81a5K01qens6'
p1303
sg8
S'444+222'
p1304
ssS'66WPXyhXqMlkM1kZhyEXWK'
p1305
(dp1306
g3
S'Michael Bubl\xc3\xa9'
p1307
sg5
I1
sg6
S'https://open.spotify.com/track/66WPXyhXqMlkM1kZhyEXWK'
p1308
sg8
S'Christmas (Baby Please Come Home)'
p1309
ssS'5GFDrUTLGJix84sNhjCG0g'
p1310
(dp1311
g3
S'Amin\xc3\xa9'
p1312
sg5
I28
sg6
S'https://open.spotify.com/track/5GFDrUTLGJix84sNhjCG0g'
p1313
sg8
S'Caroline'
p1314
ssS'33B2QbtAj8mbDpwvGTOnBt'
p1315
(dp1316
g3
S'The xx'
p1317
sg5
I1
sg6
S'https://open.spotify.com/track/33B2QbtAj8mbDpwvGTOnBt'
p1318
sg8
S'Dangerous'
p1319
ssS'0azC730Exh71aQlOt9Zj3y'
p1320
(dp1321
g3
S'Calvin Harris'
p1322
sg5
I20
sg6
S'https://open.spotify.com/track/0azC730Exh71aQlOt9Zj3y'
p1323
sg8
S'This Is What You Came For'
p1324
ssS'2jyjhRf6DVbMPU5zxagN2h'
p1325
(dp1326
g3
S'Passenger'
p1327
sg5
I8
sg6
S'https://open.spotify.com/track/2jyjhRf6DVbMPU5zxagN2h'
p1328
sg8
S'Let Her Go'
p1329
ssS'7i2DJ88J7jQ8K7zqFX2fW8'
p1330
(dp1331
g3
S'Halsey'
p1332
sg5
I16
sg6
S'https://open.spotify.com/track/7i2DJ88J7jQ8K7zqFX2fW8'
p1333
sg8
S'Now Or Never'
p1334
ssS'43ZyHQITOjhciSUUNPVRHc'
p1335
(dp1336
g3
S'Lil Pump'
p1337
sg5
I1
sg6
S'https://open.spotify.com/track/43ZyHQITOjhciSUUNPVRHc'
p1338
sg8
S'Gucci Gang'
p1339
ssS'3y9cCbnBn0zjkJa2YkOj70'
p1340
(dp1341
g3
S'Nicki Minaj'
p1342
sg5
I4
sg6
S'https://open.spotify.com/track/3y9cCbnBn0zjkJa2YkOj70'
p1343
sg8
S'Black Barbies'
p1344
ssS'5sNESr6pQfIhL3krM8CtZn'
p1345
(dp1346
g3
S'JAY Z'
p1347
sg5
I1
sg6
S'https://open.spotify.com/track/5sNESr6pQfIhL3krM8CtZn'
p1348
sg8
S'Numb / Encore'
p1349
ssS'68EMU2RD1ECNeOeJ5qAXCV'
p1350
(dp1351
g3
S'Charlie Puth'
p1352
sg5
I35
sg6
S'https://open.spotify.com/track/68EMU2RD1ECNeOeJ5qAXCV'
p1353
sg8
S"We Don't Talk Anymore (feat. Selena Gomez)"
p1354
ssS'2vaMWMPMgsWX4fwJiKmdWm'
p1355
(dp1356
g3
S'A Boogie Wit da Hoodie'
p1357
sg5
I2
sg6
S'https://open.spotify.com/track/2vaMWMPMgsWX4fwJiKmdWm'
p1358
sg8
S'Undefeated (feat. 21 Savage)'
p1359
ssS'4pYZLpX23Vx8rwDpJCpPTA'
p1360
(dp1361
g3
S'Rich The Kid'
p1362
sg5
I2
sg6
S'https://open.spotify.com/track/4pYZLpX23Vx8rwDpJCpPTA'
p1363
sg8
S'New Freezer (feat. Kendrick Lamar)'
p1364
ssS'3b5Li4QKDVBx1x7fQuu54a'
p1365
(dp1366
g3
S'Alan Walker'
p1367
sg5
I1
sg6
S'https://open.spotify.com/track/3b5Li4QKDVBx1x7fQuu54a'
p1368
sg8
S'Tired'
p1369
ssS'2rUwQj4SWaP2anuGDtNpYR'
p1370
(dp1371
g3
S'Bryson Tiller'
p1372
sg5
I3
sg6
S'https://open.spotify.com/track/2rUwQj4SWaP2anuGDtNpYR'
p1373
sg8
S'Self-Made'
p1374
ssS'04CttTezSnv71USiiG9mIo'
p1375
(dp1376
g3
S'Hearts & Colors'
p1377
sg5
I11
sg6
S'https://open.spotify.com/track/04CttTezSnv71USiiG9mIo'
p1378
sg8
S'Lighthouse - Andrelli Remix'
p1379
ssS'1W8vII5CLpMMzAGvGlAgCk'
p1380
(dp1381
g3
S'Desiigner'
p1382
sg5
I2
sg6
S'https://open.spotify.com/track/1W8vII5CLpMMzAGvGlAgCk'
p1383
sg8
S'Liife'
p1384
ssS'6vSwxzO2Qf4BinHSXRwZJe'
p1385
(dp1386
g3
S'Ed Sheeran'
p1387
sg5
I1
sg6
S'https://open.spotify.com/track/6vSwxzO2Qf4BinHSXRwZJe'
p1388
sg8
S'Tenerife Sea'
p1389
ssS'6R6ihJhRbgu7JxJKIbW57w'
p1390
(dp1391
g3
S'Frank Ocean'
p1392
sg5
I1
sg6
S'https://open.spotify.com/track/6R6ihJhRbgu7JxJKIbW57w'
p1393
sg8
S'Provider'
p1394
ssS'1cImYkHOQMFE7AZC9aOk4y'
p1395
(dp1396
g3
S'Bobby Helms'
p1397
sg5
I1
sg6
S'https://open.spotify.com/track/1cImYkHOQMFE7AZC9aOk4y'
p1398
sg8
S'Jingle Bell Rock'
p1399
ssS'6MbH1QiphMCPTqVEVC7UYi'
p1400
(dp1401
g3
S'Drake'
p1402
sg5
I5
sg6
S'https://open.spotify.com/track/6MbH1QiphMCPTqVEVC7UYi'
p1403
sg8
S'Nothings Into Somethings'
p1404
ssS'6M0IsaUX4GNyto4niSegfI'
p1405
(dp1406
g3
S'Post Malone'
p1407
sg5
I1
sg6
S'https://open.spotify.com/track/6M0IsaUX4GNyto4niSegfI'
p1408
sg8
S'No Option'
p1409
ssS'4VuS959DSpr82t3qBqCrWG'
p1410
(dp1411
g3
S'Ed Sheeran'
p1412
sg5
I7
sg6
S'https://open.spotify.com/track/4VuS959DSpr82t3qBqCrWG'
p1413
sg8
S'Supermarket Flowers'
p1414
ssS'2s76aKBWKShlwPC4xTtEEE'
p1415
(dp1416
g3
S'State of Sound'
p1417
sg5
I5
sg6
S'https://open.spotify.com/track/2s76aKBWKShlwPC4xTtEEE'
p1418
sg8
S'Wake Up Where You Are'
p1419
ssS'1jQsKN68yE94tMYml0wHMd'
p1420
(dp1421
g3
S'Big Sean'
p1422
sg5
I2
sg6
S'https://open.spotify.com/track/1jQsKN68yE94tMYml0wHMd'
p1423
sg8
S'Jump Out The Window'
p1424
ssS'0Zx8khUcEfCFK2AEoIhC92'
p1425
(dp1426
g3
S'Snakehips'
p1427
sg5
I13
sg6
S'https://open.spotify.com/track/0Zx8khUcEfCFK2AEoIhC92'
p1428
sg8
S"Don't Leave"
p1429
ssS'15dnkAHcHC0vrIUlbiPiqU'
p1430
(dp1431
g3
S'Imagine Dragons'
p1432
sg5
I1
sg6
S'https://open.spotify.com/track/15dnkAHcHC0vrIUlbiPiqU'
p1433
sg8
S'I Don\xe2\x80\x99t Know Why'
p1434
ssS'1crSsvtU9wZB15dIQXV2QH'
p1435
(dp1436
g3
S'John Mayer'
p1437
sg5
I1
sg6
S'https://open.spotify.com/track/1crSsvtU9wZB15dIQXV2QH'
p1438
sg8
S'Moving On and Getting Over'
p1439
ssS'33SNO8AaciGbNaQFkxvPrW'
p1440
(dp1441
g3
S'Harry Styles'
p1442
sg5
I2
sg6
S'https://open.spotify.com/track/33SNO8AaciGbNaQFkxvPrW'
p1443
sg8
S'Kiwi'
p1444
ssS'61mnlyQlnPuq1GEX0LxIWh'
p1445
(dp1446
g3
S'Baka Not Nice'
p1447
sg5
I10
sg6
S'https://open.spotify.com/track/61mnlyQlnPuq1GEX0LxIWh'
p1448
sg8
S'Live Up To My Name'
p1449
ssS'5Kelvlf6aU6is8muBjaZ4S'
p1450
(dp1451
g3
S'Hedley'
p1452
sg5
I2
sg6
S'https://open.spotify.com/track/5Kelvlf6aU6is8muBjaZ4S'
p1453
sg8
S'Better Days'
p1454
ssS'6n3HGiq4v35D6eFOSwqYuo'
p1455
(dp1456
g3
S'Drake'
p1457
sg5
I14
sg6
S'https://open.spotify.com/track/6n3HGiq4v35D6eFOSwqYuo'
p1458
sg8
S'Teenage Fever'
p1459
ssS'4Km5HrUvYTaSUfiSGPJeQR'
p1460
(dp1461
g3
S'Migos'
p1462
sg5
I42
sg6
S'https://open.spotify.com/track/4Km5HrUvYTaSUfiSGPJeQR'
p1463
sg8
S'Bad and Boujee (feat. Lil Uzi Vert)'
p1464
ssS'61WbtB6ujkpNAsAf5LjF4b'
p1465
(dp1466
g3
S'Katy Perry'
p1467
sg5
I6
sg6
S'https://open.spotify.com/track/61WbtB6ujkpNAsAf5LjF4b'
p1468
sg8
S'Bon app\xc3\xa9tit'
p1469
ssS'2bBMODHVTXGwE2aZYfbgCt'
p1470
(dp1471
g3
S'Gorillaz'
p1472
sg5
I1
sg6
S'https://open.spotify.com/track/2bBMODHVTXGwE2aZYfbgCt'
p1473
sg8
S'Ascension (feat. Vince Staples)'
p1474
ssS'5yuShbu70mtHXY0yLzCQLQ'
p1475
(dp1476
g3
S'Post Malone'
p1477
sg5
I32
sg6
S'https://open.spotify.com/track/5yuShbu70mtHXY0yLzCQLQ'
p1478
sg8
S'Go Flex'
p1479
ssS'3WrG9BpOPQWUus3FjA1Tny'
p1480
(dp1481
g3
S"Destiny's Child"
p1482
sg5
I1
sg6
S'https://open.spotify.com/track/3WrG9BpOPQWUus3FjA1Tny'
p1483
sg8
S'8 Days of Christmas - Live'
p1484
ssS'7faDzZnZYqTyYThx2sbHVQ'
p1485
(dp1486
g3
S'Frank Sinatra'
p1487
sg5
I1
sg6
S'https://open.spotify.com/track/7faDzZnZYqTyYThx2sbHVQ'
p1488
sg8
S'Mistletoe And Holly - 1999 - Remaster'
p1489
ssS'193Dm5SqYy3hTSbuzxbwKc'
p1490
(dp1491
g3
S'Lorde'
p1492
sg5
I1
sg6
S'https://open.spotify.com/track/193Dm5SqYy3hTSbuzxbwKc'
p1493
sg8
S'Writer In The Dark'
p1494
ssS'3tcoEYOZUHKB3RKNByIN13'
p1495
(dp1496
g3
S'Lil Uzi Vert'
p1497
sg5
I1
sg6
S'https://open.spotify.com/track/3tcoEYOZUHKB3RKNByIN13'
p1498
sg8
S'For Real'
p1499
ssS'5tf1VVWniHgryyumXyJM7w'
p1500
(dp1501
g3
S'Robin Schulz'
p1502
sg5
I1
sg6
S'https://open.spotify.com/track/5tf1VVWniHgryyumXyJM7w'
p1503
sg8
S'Sugar (feat. Francesco Yates)'
p1504
ssS'5NQbUaeTEOGdD6hHcre0dZ'
p1505
(dp1506
g3
S'Fetty Wap'
p1507
sg5
I1
sg6
S'https://open.spotify.com/track/5NQbUaeTEOGdD6hHcre0dZ'
p1508
sg8
S'679 (feat. Remy Boyz)'
p1509
ssS'2XlHu0HcujBCkWMdIAvrqt'
p1510
(dp1511
g3
S'Drake'
p1512
sg5
I26
sg6
S'https://open.spotify.com/track/2XlHu0HcujBCkWMdIAvrqt'
p1513
sg8
S'Blem'
p1514
ssS'3Jrs7cC2OJNlNSy9VnDOMZ'
p1515
(dp1516
g3
S'Bryson Tiller'
p1517
sg5
I2
sg6
S'https://open.spotify.com/track/3Jrs7cC2OJNlNSy9VnDOMZ'
p1518
sg8
S'Somethin Tells Me'
p1519
ssS'11dFghVXANMlKmJXsNCbNl'
p1520
(dp1521
g3
S'Carly Rae Jepsen'
p1522
sg5
I1
sg6
S'https://open.spotify.com/track/11dFghVXANMlKmJXsNCbNl'
p1523
sg8
S'Cut To The Feeling'
p1524
ssS'5f5r2N4Lp9WoULWPH9zp2W'
p1525
(dp1526
g3
S'Drake'
p1527
sg5
I5
sg6
S'https://open.spotify.com/track/5f5r2N4Lp9WoULWPH9zp2W'
p1528
sg8
S"Can't Have Everything"
p1529
ssS'56uTIyBsxLQIYgF765A2aM'
p1530
(dp1531
g3
S'DJ Khaled'
p1532
sg5
I1
sg6
S'https://open.spotify.com/track/56uTIyBsxLQIYgF765A2aM'
p1533
sg8
S"It's Secured"
p1534
ssS'7nZmah2llfvLDiUjm0kiyz'
p1535
(dp1536
g3
S'Justin Bieber'
p1537
sg5
I8
sg6
S'https://open.spotify.com/track/7nZmah2llfvLDiUjm0kiyz'
p1538
sg8
S'Friends (with BloodPop\xc2\xae)'
p1539
ssS'5hYTyyh2odQKphUbMqc5gN'
p1540
(dp1541
g3
S'Alessia Cara'
p1542
sg5
I26
sg6
S'https://open.spotify.com/track/5hYTyyh2odQKphUbMqc5gN'
p1543
sg8
S"How Far I'll Go - From Moana"
p1544
ssS'1AH60dMaEfNjzDoUIFwIQi'
p1545
(dp1546
g3
S'A Boogie Wit da Hoodie'
p1547
sg5
I2
sg6
S'https://open.spotify.com/track/1AH60dMaEfNjzDoUIFwIQi'
p1548
sg8
S'Beast Mode (feat. PnB Rock & YoungBoy Never Broke Again)'
p1549
ssS'4GJAd1nBylAEbw1dZDVzEQ'
p1550
(dp1551
g3
S'Lost Kings'
p1552
sg5
I1
sg6
S'https://open.spotify.com/track/4GJAd1nBylAEbw1dZDVzEQ'
p1553
sg8
S'Quit You'
p1554
ssS'12REd1n8PeiHHWOh066tpr'
p1555
(dp1556
g3
S'Flume'
p1557
sg5
I3
sg6
S'https://open.spotify.com/track/12REd1n8PeiHHWOh066tpr'
p1558
sg8
S'Never Be Like You'
p1559
ssS'07Ugv4TA7PvQfoqetnmLrS'
p1560
(dp1561
g3
S'Arcade Fire'
p1562
sg5
I1
sg6
S'https://open.spotify.com/track/07Ugv4TA7PvQfoqetnmLrS'
p1563
sg8
S'Everything Now'
p1564
ssS'11EDhDAVDtGPoSar6ootYA'
p1565
(dp1566
g3
S'Halsey'
p1567
sg5
I2
sg6
S'https://open.spotify.com/track/11EDhDAVDtGPoSar6ootYA'
p1568
sg8
S'Strangers'
p1569
ssS'4sxLB4ibrNZko2Y9wHfwZ3'
p1570
(dp1571
g3
S'Bryson Tiller'
p1572
sg5
I1
sg6
S'https://open.spotify.com/track/4sxLB4ibrNZko2Y9wHfwZ3'
p1573
sg8
S'Get Mine'
p1574
ssS'4Q9vx0KwTiOMaRjOZkaxst'
p1575
(dp1576
g3
S'Future'
p1577
sg5
I1
sg6
S'https://open.spotify.com/track/4Q9vx0KwTiOMaRjOZkaxst'
p1578
sg8
S'My Collection'
p1579
ssS'7sO0dVFCfixpLshm4daMH3'
p1580
(dp1581
g3
S'Migos'
p1582
sg5
I1
sg6
S'https://open.spotify.com/track/7sO0dVFCfixpLshm4daMH3'
p1583
sg8
S'What The Price'
p1584
ssS'4eqne0oIdt9GW2ubiliny0'
p1585
(dp1586
g3
S'Judy Garland'
p1587
sg5
I1
sg6
S'https://open.spotify.com/track/4eqne0oIdt9GW2ubiliny0'
p1588
sg8
S'Have Yourself A Merry Little Christmas - Meet Me In St. Louis Original Cast Recording'
p1589
ssS'7q02j5zwOqQOXm21IaPMlY'
p1590
(dp1591
g3
S'DiRTY RADiO'
p1592
sg5
I15
sg6
S'https://open.spotify.com/track/7q02j5zwOqQOXm21IaPMlY'
p1593
sg8
S'True Love'
p1594
ssS'14nAQy3fHVzDb7LKxpS7Ld'
p1595
(dp1596
g3
S'Lil Uzi Vert'
p1597
sg5
I1
sg6
S'https://open.spotify.com/track/14nAQy3fHVzDb7LKxpS7Ld'
p1598
sg8
S'Pretty Mami'
p1599
ssS'25oOaleife6E2MIKmFkPvg'
p1600
(dp1601
g3
S'Young Thug'
p1602
sg5
I17
sg6
S'https://open.spotify.com/track/25oOaleife6E2MIKmFkPvg'
p1603
sg8
S'Relationship (feat. Future)'
p1604
ssS'4oLuMvGQ4WJfU2s4OM6nfE'
p1605
(dp1606
g3
S'Migos'
p1607
sg5
I1
sg6
S'https://open.spotify.com/track/4oLuMvGQ4WJfU2s4OM6nfE'
p1608
sg8
S'Culture (feat. DJ Khaled)'
p1609
ssS'6p8NuHm8uCGnn2Dtbtf7zE'
p1610
(dp1611
g3
S'Migos'
p1612
sg5
I37
sg6
S'https://open.spotify.com/track/6p8NuHm8uCGnn2Dtbtf7zE'
p1613
sg8
S'Slippery (feat. Gucci Mane)'
p1614
ssS'2KvHC9z14GSl4YpkNMX384'
p1615
(dp1616
g3
S'Drake'
p1617
sg5
I17
sg6
S'https://open.spotify.com/track/2KvHC9z14GSl4YpkNMX384'
p1618
sg8
S'Do Not Disturb'
p1619
ssS'7bTwYGhBdSQ8vuXc76Xint'
p1620
(dp1621
g3
S'The Lumineers'
p1622
sg5
I13
sg6
S'https://open.spotify.com/track/7bTwYGhBdSQ8vuXc76Xint'
p1623
sg8
S'Ophelia'
p1624
ssS'2gbCG4Rt9984UZ7Tc0dIFd'
p1625
(dp1626
g3
S'Michael Bubl\xc3\xa9'
p1627
sg5
I1
sg6
S'https://open.spotify.com/track/2gbCG4Rt9984UZ7Tc0dIFd'
p1628
sg8
S'White Christmas (Duet With Shania Twain)'
p1629
ssS'5e0RPsQUTQu0A29wqD6bZR'
p1630
(dp1631
g3
S'Future'
p1632
sg5
I1
sg6
S'https://open.spotify.com/track/5e0RPsQUTQu0A29wqD6bZR'
p1633
sg8
S'Super Trapper'
p1634
ssS'77lGafvlU68CeHgB2pkHC9'
p1635
(dp1636
g3
S'Machine Gun Kelly'
p1637
sg5
I11
sg6
S'https://open.spotify.com/track/77lGafvlU68CeHgB2pkHC9'
p1638
sg8
S'At My Best (feat. Hailee Steinfeld)'
p1639
ssS'0dA2Mk56wEzDgegdC6R17g'
p1640
(dp1641
g3
S'Zedd'
p1642
sg5
I33
sg6
S'https://open.spotify.com/track/0dA2Mk56wEzDgegdC6R17g'
p1643
sg8
S'Stay (with Alessia Cara)'
p1644
ssS'3kGfazcbVvVkuZunzlLgTD'
p1645
(dp1646
g3
S'Sigala'
p1647
sg5
I5
sg6
S'https://open.spotify.com/track/3kGfazcbVvVkuZunzlLgTD'
p1648
sg8
S'Came Here for Love'
p1649
ssS'3UjJP4ludb74a29P5EHEIo'
p1650
(dp1651
g3
S'Sabrina Carpenter'
p1652
sg5
I7
sg6
S'https://open.spotify.com/track/3UjJP4ludb74a29P5EHEIo'
p1653
sg8
S'Thumbs'
p1654
ssS'3Ytr1SUCUi6J3L9dRFx5iH'
p1655
(dp1656
g3
S'Major Lazer'
p1657
sg5
I19
sg6
S'https://open.spotify.com/track/3Ytr1SUCUi6J3L9dRFx5iH'
p1658
sg8
S'Know No Better (feat. Quavo)'
p1659
ssS'1sl5tSzfK1JrcQIcA8rYDy'
p1660
(dp1661
g3
S'Grey'
p1662
sg5
I5
sg6
S'https://open.spotify.com/track/1sl5tSzfK1JrcQIcA8rYDy'
p1663
sg8
S'I Miss You'
p1664
ssS'1gb6riq7CCP5clGpSD0XPH'
p1665
(dp1666
g3
S'Future'
p1667
sg5
I1
sg6
S'https://open.spotify.com/track/1gb6riq7CCP5clGpSD0XPH'
p1668
sg8
S'Sorry'
p1669
ssS'0TwcrekK2QSdpXSzJHTsQh'
p1670
(dp1671
g3
S'Majid Jordan'
p1672
sg5
I1
sg6
S'https://open.spotify.com/track/0TwcrekK2QSdpXSzJHTsQh'
p1673
sg8
S'One I Want (feat. PARTYNEXTDOOR)'
p1674
ssS'4LP2VeYnQCW8FpsUztef2Y'
p1675
(dp1676
g3
S'Jazz Cartier'
p1677
sg5
I3
sg6
S'https://open.spotify.com/track/4LP2VeYnQCW8FpsUztef2Y'
p1678
sg8
S'Tempted'
p1679
ssS'13HVjjWUZFaWilh2QUJKsP'
p1680
(dp1681
g3
S'James Bay'
p1682
sg5
I18
sg6
S'https://open.spotify.com/track/13HVjjWUZFaWilh2QUJKsP'
p1683
sg8
S'Let It Go'
p1684
ssS'0y9uTzK9cNKSAEHnpeRG8C'
p1685
(dp1686
g3
S'Kendrick Lamar'
p1687
sg5
I4
sg6
S'https://open.spotify.com/track/0y9uTzK9cNKSAEHnpeRG8C'
p1688
sg8
S'DUCKWORTH.'
p1689
ssS'2vQwlW8H1jFveGNXwZfJCV'
p1690
(dp1691
g3
S'XXXTENTACION'
p1692
sg5
I1
sg6
S'https://open.spotify.com/track/2vQwlW8H1jFveGNXwZfJCV'
p1693
sg8
S'Dead Inside (Interlude)'
p1694
ssS'6Guzw9w1uDFVamcC5lBtkZ'
p1695
(dp1696
g3
S'Jonathan Roy'
p1697
sg5
I1
sg6
S'https://open.spotify.com/track/6Guzw9w1uDFVamcC5lBtkZ'
p1698
sg8
S'Good Things'
p1699
ssS'2d8JP84HNLKhmd6IYOoupQ'
p1700
(dp1701
g3
S'Fetty Wap'
p1702
sg5
I1
sg6
S'https://open.spotify.com/track/2d8JP84HNLKhmd6IYOoupQ'
p1703
sg8
S'Trap Queen'
p1704
ssS'53mrVsi49rLHIaKBiSvElG'
p1705
(dp1706
g3
S'blackbear'
p1707
sg5
I10
sg6
S'https://open.spotify.com/track/53mrVsi49rLHIaKBiSvElG'
p1708
sg8
S'do re mi (feat. Gucci Mane)'
p1709
ssS'6CvTbrBxxc5jFwqsivhpxh'
p1710
(dp1711
g3
S'Logic'
p1712
sg5
I1
sg6
S'https://open.spotify.com/track/6CvTbrBxxc5jFwqsivhpxh'
p1713
sg8
S'Anziety'
p1714
ssS'7fwXWKdDNI5IutOMc5OKYw'
p1715
(dp1716
g3
S'J Balvin'
p1717
sg5
I2
sg6
S'https://open.spotify.com/track/7fwXWKdDNI5IutOMc5OKYw'
p1718
sg8
S'Mi Gente (feat. Beyonc\xc3\xa9)'
p1719
ssS'7of1slAJIWrXxP8ikAHxje'
p1720
(dp1721
g3
S'James Hersey'
p1722
sg5
I3
sg6
S'https://open.spotify.com/track/7of1slAJIWrXxP8ikAHxje'
p1723
sg8
S'Miss You'
p1724
ssS'6CUBgX8bXC5YQCkdgRHqyg'
p1725
(dp1726
g3
S'blackbear'
p1727
sg5
I4
sg6
S'https://open.spotify.com/track/6CUBgX8bXC5YQCkdgRHqyg'
p1728
sg8
S'do re mi'
p1729
ssS'3hRZsdTF5uyGA2uhNqEuhm'
p1730
(dp1731
g3
S'Niall Horan'
p1732
sg5
I4
sg6
S'https://open.spotify.com/track/3hRZsdTF5uyGA2uhNqEuhm'
p1733
sg8
S'Too Much To Ask'
p1734
ssS'2dfHh7ECGxfNqZTQno09Vk'
p1735
(dp1736
g3
S'Ed Sheeran'
p1737
sg5
I6
sg6
S'https://open.spotify.com/track/2dfHh7ECGxfNqZTQno09Vk'
p1738
sg8
S"Hearts Don't Break Around Here"
p1739
ssS'4bHsxqR3GMrXTxEPLuK5ue'
p1740
(dp1741
g3
S'Journey'
p1742
sg5
I12
sg6
S'https://open.spotify.com/track/4bHsxqR3GMrXTxEPLuK5ue'
p1743
sg8
S"Don't Stop Believin'"
p1744
ssS'76Y0gxtTxN0FyDCYh5qYQj'
p1745
(dp1746
g3
S'Migos'
p1747
sg5
I37
sg6
S'https://open.spotify.com/track/76Y0gxtTxN0FyDCYh5qYQj'
p1748
sg8
S'Get Right Witcha'
p1749
ssS'6D0b04NJIKfEMg040WioJQ'
p1750
(dp1751
g3
S'Julia Michaels'
p1752
sg5
I2
sg6
S'https://open.spotify.com/track/6D0b04NJIKfEMg040WioJQ'
p1753
sg8
S'Issues'
p1754
ssS'542Xd5qDeLBvgXZXhfW7LE'
p1755
(dp1756
g3
S'Vice'
p1757
sg5
I1
sg6
S'https://open.spotify.com/track/542Xd5qDeLBvgXZXhfW7LE'
p1758
sg8
S'Obsession (feat. Jon Bellion)'
p1759
ssS'6pRoE3RdW4w1Fjd8epVWjZ'
p1760
(dp1761
g3
S'Future'
p1762
sg5
I1
sg6
S'https://open.spotify.com/track/6pRoE3RdW4w1Fjd8epVWjZ'
p1763
sg8
S'Use Me'
p1764
ssS'3pjUyVbFmM96tYhSaKJwTt'
p1765
(dp1766
g3
S'J. Cole'
p1767
sg5
I3
sg6
S'https://open.spotify.com/track/3pjUyVbFmM96tYhSaKJwTt'
p1768
sg8
S'Change'
p1769
ssS'7l9CE3wmEGOUYw1j4ETjnL'
p1770
(dp1771
g3
S'Gorillaz'
p1772
sg5
I1
sg6
S'https://open.spotify.com/track/7l9CE3wmEGOUYw1j4ETjnL'
p1773
sg8
S'Saturnz Barz (feat. Popcaan)'
p1774
ssS'343YBumqHu19cGoGARUTsd'
p1775
(dp1776
g3
S'Drake'
p1777
sg5
I42
sg6
S'https://open.spotify.com/track/343YBumqHu19cGoGARUTsd'
p1778
sg8
S'Fake Love'
p1779
ssS'5HDPtsnyb3maFmPL8LLUTG'
p1780
(dp1781
g3
S'Ed Sheeran'
p1782
sg5
I7
sg6
S'https://open.spotify.com/track/5HDPtsnyb3maFmPL8LLUTG'
p1783
sg8
S'New Man'
p1784
ssS'4xyNG8vZR3g8FnphVkbjRo'
p1785
(dp1786
g3
S'Lana Del Rey'
p1787
sg5
I1
sg6
S'https://open.spotify.com/track/4xyNG8vZR3g8FnphVkbjRo'
p1788
sg8
S'Love'
p1789
ssS'299lFlaAsNQdgbIZNPmIA0'
p1790
(dp1791
g3
S'Vince Guaraldi Trio'
p1792
sg5
I1
sg6
S'https://open.spotify.com/track/299lFlaAsNQdgbIZNPmIA0'
p1793
sg8
S'Christmas Time Is Here - Vocal'
p1794
ssS'5KAgd2yW7tktrKDsJhO9Fr'
p1795
(dp1796
g3
S'Marianas Trench'
p1797
sg5
I11
sg6
S'https://open.spotify.com/track/5KAgd2yW7tktrKDsJhO9Fr'
p1798
sg8
S'Who Do You Love'
p1799
ssS'5uDASfU19gDxSjW8cnCaBp'
p1800
(dp1801
g3
S'Rob $tone'
p1802
sg5
I35
sg6
S'https://open.spotify.com/track/5uDASfU19gDxSjW8cnCaBp'
p1803
sg8
S'Chill Bill'
p1804
ssS'4pdPtRcBmOSQDlJ3Fk945m'
p1805
(dp1806
g3
S'DJ Snake'
p1807
sg5
I35
sg6
S'https://open.spotify.com/track/4pdPtRcBmOSQDlJ3Fk945m'
p1808
sg8
S'Let Me Love You'
p1809
ssS'5EnYT6F7wEcdege6mDHEfO'
p1810
(dp1811
g3
S'Drake'
p1812
sg5
I14
sg6
S'https://open.spotify.com/track/5EnYT6F7wEcdege6mDHEfO'
p1813
sg8
S'Signs'
p1814
ssS'1uoL9GX45dTnmrWQ7Ii1Ft'
p1815
(dp1816
g3
S'Halsey'
p1817
sg5
I1
sg6
S'https://open.spotify.com/track/1uoL9GX45dTnmrWQ7Ii1Ft'
p1818
sg8
S'Not Afraid Anymore'
p1819
ssS'6zpXc7WJ3TqYWb02B6sKyF'
p1820
(dp1821
g3
S'Big Sean'
p1822
sg5
I1
sg6
S'https://open.spotify.com/track/6zpXc7WJ3TqYWb02B6sKyF'
p1823
sg8
S'Bigger Than Me'
p1824
ssS'6H0AwSQ20mo62jGlPGB8S6'
p1825
(dp1826
g3
S'2 Chainz'
p1827
sg5
I23
sg6
S'https://open.spotify.com/track/6H0AwSQ20mo62jGlPGB8S6'
p1828
sg8
S"It's A Vibe"
p1829
ssS'1OAiWI2oPmglaOiv9fdioU'
p1830
(dp1831
g3
S'Coldplay'
p1832
sg5
I6
sg6
S'https://open.spotify.com/track/1OAiWI2oPmglaOiv9fdioU'
p1833
sg8
S'Hymn For The Weekend - Seeb Remix'
p1834
ssS'6Ll3qUTssdGWMxbwhMud2N'
p1835
(dp1836
g3
S'Nick Jonas'
p1837
sg5
I4
sg6
S'https://open.spotify.com/track/6Ll3qUTssdGWMxbwhMud2N'
p1838
sg8
S'Find You'
p1839
ssS'7LEydI5NfjY6mZfKwYIptZ'
p1840
(dp1841
g3
S'Fifth Harmony'
p1842
sg5
I12
sg6
S'https://open.spotify.com/track/7LEydI5NfjY6mZfKwYIptZ'
p1843
sg8
S'Down'
p1844
ssS'7y9iMe8SOB6z3NoHE2OfXl'
p1845
(dp1846
g3
S'Halsey'
p1847
sg5
I8
sg6
S'https://open.spotify.com/track/7y9iMe8SOB6z3NoHE2OfXl'
p1848
sg8
S'Bad At Love'
p1849
ssS'2Na0z2gfN67Rzf0vp74Wi3'
p1850
(dp1851
g3
S'Drake'
p1852
sg5
I4
sg6
S'https://open.spotify.com/track/2Na0z2gfN67Rzf0vp74Wi3'
p1853
sg8
S'Lose You'
p1854
ssS'0jiW3PNiHJxOhWh9oPBJ7m'
p1855
(dp1856
g3
S'NAV'
p1857
sg5
I2
sg6
S'https://open.spotify.com/track/0jiW3PNiHJxOhWh9oPBJ7m'
p1858
sg8
S'Held Me Down'
p1859
ssS'5O8x1YlmLQopQHErxtDfi9'
p1860
(dp1861
g3
S'Lil Uzi Vert'
p1862
sg5
I6
sg6
S'https://open.spotify.com/track/5O8x1YlmLQopQHErxtDfi9'
p1863
sg8
S'UnFazed (feat. The Weeknd)'
p1864
ssS'5dNfHmqgr128gMY2tc5CeJ'
p1865
(dp1866
g3
S'R. Kelly'
p1867
sg5
I2
sg6
S'https://open.spotify.com/track/5dNfHmqgr128gMY2tc5CeJ'
p1868
sg8
S'Ignition - Remix'
p1869
ssS'2jYmK1cb3Uya6FFsocdpzO'
p1870
(dp1871
g3
S'Sabrina Carpenter'
p1872
sg5
I4
sg6
S'https://open.spotify.com/track/2jYmK1cb3Uya6FFsocdpzO'
p1873
sg8
S'Why'
p1874
ssS'5OOkp4U9P9oL23maHFHL1h'
p1875
(dp1876
g3
S'Desiigner'
p1877
sg5
I36
sg6
S'https://open.spotify.com/track/5OOkp4U9P9oL23maHFHL1h'
p1878
sg8
S'Panda'
p1879
ssS'5xey3cl8y5fWst3EKgPFk8'
p1880
(dp1881
g3
S'KREAM'
p1882
sg5
I2
sg6
S'https://open.spotify.com/track/5xey3cl8y5fWst3EKgPFk8'
p1883
sg8
S'Drowning'
p1884
ssS'3qmvK8QARSPkFTuKeIXSbs'
p1885
(dp1886
g3
S'Linkin Park'
p1887
sg5
I1
sg6
S'https://open.spotify.com/track/3qmvK8QARSPkFTuKeIXSbs'
p1888
sg8
S'Bleed It Out'
p1889
ssS'7y6c07pgjZvtHI9kuMVqk1'
p1890
(dp1891
g3
S'Drake'
p1892
sg5
I10
sg6
S'https://open.spotify.com/track/7y6c07pgjZvtHI9kuMVqk1'
p1893
sg8
S'Get It Together'
p1894
ssS'5XiZK7m9PLppgIzJBpw2x5'
p1895
(dp1896
g3
S'Martin Jensen'
p1897
sg5
I1
sg6
S'https://open.spotify.com/track/5XiZK7m9PLppgIzJBpw2x5'
p1898
sg8
S'Wait'
p1899
ssS'3pJkBPHadRAxBBo484RipI'
p1900
(dp1901
g3
S'Thomas Rhett'
p1902
sg5
I1
sg6
S'https://open.spotify.com/track/3pJkBPHadRAxBBo484RipI'
p1903
sg8
S'Sixteen'
p1904
ssS'4ckuS4Nj4FZ7i3Def3Br8W'
p1905
(dp1906
g3
S'Drake'
p1907
sg5
I19
sg6
S'https://open.spotify.com/track/4ckuS4Nj4FZ7i3Def3Br8W'
p1908
sg8
S'Sneakin\xe2\x80\x99'
p1909
ssS'5RCfvwDewu6p2x1mEI6smX'
p1910
(dp1911
g3
S'Tay-K'
p1912
sg5
I6
sg6
S'https://open.spotify.com/track/5RCfvwDewu6p2x1mEI6smX'
p1913
sg8
S'The Race'
p1914
ssS'1Qxj5nxpN2zXWYngetSiRi'
p1915
(dp1916
g3
S'2 Chainz'
p1917
sg5
I1
sg6
S'https://open.spotify.com/track/1Qxj5nxpN2zXWYngetSiRi'
p1918
sg8
S'OG Kush Diet'
p1919
ssS'39sIYwLYquEkGkmRMPHkH4'
p1920
(dp1921
g3
S'Felix Cartal'
p1922
sg5
I4
sg6
S'https://open.spotify.com/track/39sIYwLYquEkGkmRMPHkH4'
p1923
sg8
S'Get What You Give'
p1924
ssS'1WIZiOuNO3woKfdlSK2gNn'
p1925
(dp1926
g3
S'Kodak Black'
p1927
sg5
I7
sg6
S'https://open.spotify.com/track/1WIZiOuNO3woKfdlSK2gNn'
p1928
sg8
S"Transportin'"
p1929
ssS'7floNISpH8VF4z4459Qo18'
p1930
(dp1931
g3
S'XXXTENTACION'
p1932
sg5
I2
sg6
S'https://open.spotify.com/track/7floNISpH8VF4z4459Qo18'
p1933
sg8
S'Look At Me!'
p1934
ssS'79cuOz3SPQTuFrp8WgftAu'
p1935
(dp1936
g3
S'Shawn Mendes'
p1937
sg5
I25
sg6
S'https://open.spotify.com/track/79cuOz3SPQTuFrp8WgftAu'
p1938
sg8
S"There's Nothing Holdin' Me Back"
p1939
ssS'4c2W3VKsOFoIg2SFaO6DY5'
p1940
(dp1941
g3
S'Rita Ora'
p1942
sg5
I20
sg6
S'https://open.spotify.com/track/4c2W3VKsOFoIg2SFaO6DY5'
p1943
sg8
S'Your Song'
p1944
ssS'0lmdsH1MIoLsMymnNpd6HU'
p1945
(dp1946
g3
S'Dante Klein'
p1947
sg5
I1
sg6
S'https://open.spotify.com/track/0lmdsH1MIoLsMymnNpd6HU'
p1948
sg8
S'Let Me Hold You (Turn Me On)'
p1949
ssS'4ARPvK8DHLwt4oX65ZAFMw'
p1950
(dp1951
g3
S'XXXTENTACION'
p1952
sg5
I30
sg6
S'https://open.spotify.com/track/4ARPvK8DHLwt4oX65ZAFMw'
p1953
sg8
S'Look At Me!'
p1954
ssS'5tFep7dXGd7vEJ668wTPux'
p1955
(dp1956
g3
S'Gucci Mane'
p1957
sg5
I18
sg6
S'https://open.spotify.com/track/5tFep7dXGd7vEJ668wTPux'
p1958
sg8
S'Both (feat. Drake)'
p1959
ssS'7bPLo5Fv7h15E2fW3g1mVQ'
p1960
(dp1961
g3
S'Dave'
p1962
sg5
I8
sg6
S'https://open.spotify.com/track/7bPLo5Fv7h15E2fW3g1mVQ'
p1963
sg8
S'Wanna Know Remix (feat. Drake)'
p1964
ssS'1PouCui4RgDYcrQVAqdYuf'
p1965
(dp1966
g3
S'Sam Hunt'
p1967
sg5
I2
sg6
S'https://open.spotify.com/track/1PouCui4RgDYcrQVAqdYuf'
p1968
sg8
S"Drinkin' Too Much"
p1969
ssS'51ChrwmUPDJvedPQnIU8Ls'
p1970
(dp1971
g3
S'Ed Sheeran'
p1972
sg5
I13
sg6
S'https://open.spotify.com/track/51ChrwmUPDJvedPQnIU8Ls'
p1973
sg8
S'Dive'
p1974
ssS'0ESJlaM8CE1jRWaNtwSNj8'
p1975
(dp1976
g3
S'Travis Scott'
p1977
sg5
I35
sg6
S'https://open.spotify.com/track/0ESJlaM8CE1jRWaNtwSNj8'
p1978
sg8
S'beibs in the trap'
p1979
ssS'76lgcpdPtw5hHu3A6LuGZe'
p1980
(dp1981
g3
S'Dustin Lynch'
p1982
sg5
I4
sg6
S'https://open.spotify.com/track/76lgcpdPtw5hHu3A6LuGZe'
p1983
sg8
S'Small Town Boy'
p1984
ssS'3eR23VReFzcdmS7TYCrhCe'
p1985
(dp1986
g3
S'Kygo'
p1987
sg5
I33
sg6
S'https://open.spotify.com/track/3eR23VReFzcdmS7TYCrhCe'
p1988
sg8
S"It Ain't Me (with Selena Gomez)"
p1989
ssS'6a9vKVMFfNBi741DVSit3H'
p1990
(dp1991
g3
S'Felix Jaehn'
p1992
sg5
I4
sg6
S'https://open.spotify.com/track/6a9vKVMFfNBi741DVSit3H'
p1993
sg8
S'Feel Good'
p1994
ssS'5J5PXmMdQ2nh1lZOal8KmK'
p1995
(dp1996
g3
S'Meek Mill'
p1997
sg5
I12
sg6
S'https://open.spotify.com/track/5J5PXmMdQ2nh1lZOal8KmK'
p1998
sg8
S'Litty (feat. Tory Lanez)'
p1999
ssS'5wihevBA7MO9PNYyWyTfkh'
p2000
(dp2001
g3
S'Migos'
p2002
sg5
I2
sg6
S'https://open.spotify.com/track/5wihevBA7MO9PNYyWyTfkh'
p2003
sg8
S'Brown Paper Bag'
p2004
ssS'3LnOF5n1GOs01siYZXzS3p'
p2005
(dp2006
g3
S'A Boogie Wit da Hoodie'
p2007
sg5
I3
sg6
S'https://open.spotify.com/track/3LnOF5n1GOs01siYZXzS3p'
p2008
sg8
S'Drowning (feat. Kodak Black)'
p2009
ssS'5Qh8DqDqD0BxHbI2f8P3j2'
p2010
(dp2011
g3
S'VINAI'
p2012
sg5
I6
sg6
S'https://open.spotify.com/track/5Qh8DqDqD0BxHbI2f8P3j2'
p2013
sg8
S'Where the Water Ends'
p2014
ssS'5LXj9Ch3O9ATm1NoHT8GXn'
p2015
(dp2016
g3
S'Coldplay'
p2017
sg5
I1
sg6
S'https://open.spotify.com/track/5LXj9Ch3O9ATm1NoHT8GXn'
p2018
sg8
S'Hypnotised'
p2019
ssS'732btJLGu7gYNHHNdzshrG'
p2020
(dp2021
g3
S'Logic'
p2022
sg5
I1
sg6
S'https://open.spotify.com/track/732btJLGu7gYNHHNdzshrG'
p2023
sg8
S'Ink Blot'
p2024
ssS'1KT0xdIjm7t053xByACrrg'
p2025
(dp2026
g3
S'Ariana Grande'
p2027
sg5
I2
sg6
S'https://open.spotify.com/track/1KT0xdIjm7t053xByACrrg'
p2028
sg8
S'\xe7\xbe\x8e\xe5\xa5\xb3\xe3\x81\xa8\xe9\x87\x8e\xe7\x8d\xa3'
p2029
ssS'32lgtADX2cB9I4KFs1Y1py'
p2030
(dp2031
g3
S'The Weeknd'
p2032
sg5
I5
sg6
S'https://open.spotify.com/track/32lgtADX2cB9I4KFs1Y1py'
p2033
sg8
S'False Alarm'
p2034
ssS'6TIU9Ehmi6dMzZK73Ym4yj'
p2035
(dp2036
g3
S'Ed Sheeran'
p2037
sg5
I5
sg6
S'https://open.spotify.com/track/6TIU9Ehmi6dMzZK73Ym4yj'
p2038
sg8
S'Save Myself'
p2039
ssS'7taXf5odg9xCAZERYfyOkS'
p2040
(dp2041
g3
S'Jos\xc3\xa9 Feliciano'
p2042
sg5
I1
sg6
S'https://open.spotify.com/track/7taXf5odg9xCAZERYfyOkS'
p2043
sg8
S'Feliz Navidad'
p2044
ssS'2oUuLLKS8WbF7ELJcwbqms'
p2045
(dp2046
g3
S'XXXTENTACION'
p2047
sg5
I4
sg6
S'https://open.spotify.com/track/2oUuLLKS8WbF7ELJcwbqms'
p2048
sg8
S'Look at Me!'
p2049
ssS'1OmcAT5Y8eg5bUPv9qJT4R'
p2050
(dp2051
g3
S'Post Malone'
p2052
sg5
I3
sg6
S'https://open.spotify.com/track/1OmcAT5Y8eg5bUPv9qJT4R'
p2053
sg8
S'rockstar'
p2054
ssS'6GeD5g9vZTz25Egf8kxoIY'
p2055
(dp2056
g3
S'The Chainsmokers'
p2057
sg5
I1
sg6
S'https://open.spotify.com/track/6GeD5g9vZTz25Egf8kxoIY'
p2058
sg8
S'Last Day Alive'
p2059
ssS'5YYjsDIxJKpVgNLkPpBmRA'
p2060
(dp2061
g3
S'Desiigner'
p2062
sg5
I10
sg6
S'https://open.spotify.com/track/5YYjsDIxJKpVgNLkPpBmRA'
p2063
sg8
S'Up'
p2064
ssS'2mfUa8bLs2s5N4VaqJZ4lZ'
p2065
(dp2066
g3
S'Hailee Steinfeld'
p2067
sg5
I24
sg6
S'https://open.spotify.com/track/2mfUa8bLs2s5N4VaqJZ4lZ'
p2068
sg8
S'Most Girls'
p2069
ssS'3wfWvMo4Kq12qVR5AAEBdD'
p2070
(dp2071
g3
S'Madalen Duke'
p2072
sg5
I3
sg6
S'https://open.spotify.com/track/3wfWvMo4Kq12qVR5AAEBdD'
p2073
sg8
S'Gucci Store'
p2074
ssS'4aWmUDTfIPGksMNLV2rQP2'
p2075
(dp2076
g3
S'Luis Fonsi'
p2077
sg5
I38
sg6
S'https://open.spotify.com/track/4aWmUDTfIPGksMNLV2rQP2'
p2078
sg8
S'Despacito (Featuring Daddy Yankee)'
p2079
ssS'58zsLZPvfflaiIbNWoA22O'
p2080
(dp2081
g3
S"Rag'n'Bone Man"
p2082
sg5
I1
sg6
S'https://open.spotify.com/track/58zsLZPvfflaiIbNWoA22O'
p2083
sg8
S'Human'
p2084
ssS'2YK01AIIWuywG24gsbuizE'
p2085
(dp2086
g3
S'Post Malone'
p2087
sg5
I2
sg6
S'https://open.spotify.com/track/2YK01AIIWuywG24gsbuizE'
p2088
sg8
S'Congratulations - Remix'
p2089
ssS'35QZaWQRkmnAVqBF1TLCxQ'
p2090
(dp2091
g3
S'Ed Sheeran'
p2092
sg5
I5
sg6
S'https://open.spotify.com/track/35QZaWQRkmnAVqBF1TLCxQ'
p2093
sg8
S'Nancy Mulligan'
p2094
ssS'60APt5N2NRaKWf5xzJdzyC'
p2095
(dp2096
g3
S'Calvin Harris'
p2097
sg5
I7
sg6
S'https://open.spotify.com/track/60APt5N2NRaKWf5xzJdzyC'
p2098
sg8
S'Heatstroke'
p2099
ssS'1HTtUBEY3tuw2btgwwI2Ja'
p2100
(dp2101
g3
S'Gucci Mane'
p2102
sg5
I8
sg6
S'https://open.spotify.com/track/1HTtUBEY3tuw2btgwwI2Ja'
p2103
sg8
S'I Get The Bag (feat. Migos)'
p2104
ssS'25C5CowdsfXld2jJanbiex'
p2105
(dp2106
g3
S'Demi Lovato'
p2107
sg5
I11
sg6
S'https://open.spotify.com/track/25C5CowdsfXld2jJanbiex'
p2108
sg8
S'Sorry Not Sorry'
p2109
ssS'2Z8WuEywRWYTKe1NybPQEW'
p2110
(dp2111
g3
S'Twenty One Pilots'
p2112
sg5
I10
sg6
S'https://open.spotify.com/track/2Z8WuEywRWYTKe1NybPQEW'
p2113
sg8
S'Ride'
p2114
ssS'1fEl5TPKRJAsuP6TqZ23hB'
p2115
(dp2116
g3
S'Lil Pump'
p2117
sg5
I1
sg6
S'https://open.spotify.com/track/1fEl5TPKRJAsuP6TqZ23hB'
p2118
sg8
S'D Rose'
p2119
ssS'0B8QzDH7YWih85V5SEMnyJ'
p2120
(dp2121
g3
S'Lil Uzi Vert'
p2122
sg5
I35
sg6
S'https://open.spotify.com/track/0B8QzDH7YWih85V5SEMnyJ'
p2123
sg8
S'Money Longer'
p2124
ssS'52okn5MNA47tk87PeZJLEL'
p2125
(dp2126
g3
S'NF'
p2127
sg5
I1
sg6
S'https://open.spotify.com/track/52okn5MNA47tk87PeZJLEL'
p2128
sg8
S'Let You Down'
p2129
ssS'4WfjYOo0JxommRm1PyObJl'
p2130
(dp2131
g3
S'J. Cole'
p2132
sg5
I2
sg6
S'https://open.spotify.com/track/4WfjYOo0JxommRm1PyObJl'
p2133
sg8
S'High For Hours'
p2134
ssS'6JV2JOEocMgcZxYSZelKcc'
p2135
(dp2136
g3
S'Justin Timberlake'
p2137
sg5
I35
sg6
S'https://open.spotify.com/track/6JV2JOEocMgcZxYSZelKcc'
p2138
sg8
S"CAN'T STOP THE FEELING! (Original Song from DreamWorks Animation's TROLLS)"
p2139
ssS'05KOgYg8PGeJyyWBPi5ja8'
p2140
(dp2141
g3
S'Drake'
p2142
sg5
I12
sg6
S'https://open.spotify.com/track/05KOgYg8PGeJyyWBPi5ja8'
p2143
sg8
S'Free Smoke'
p2144
ssS'6De0lHrwBfPfrhorm9q1Xl'
p2145
(dp2146
g3
S'Danny Ocean'
p2147
sg5
I17
sg6
S'https://open.spotify.com/track/6De0lHrwBfPfrhorm9q1Xl'
p2148
sg8
S'Me Reh\xc3\xbaso'
p2149
ssS'5mmvdgjLgQPTGOUeqWt4Lw'
p2150
(dp2151
g3
S'Anevo'
p2152
sg5
I1
sg6
S'https://open.spotify.com/track/5mmvdgjLgQPTGOUeqWt4Lw'
p2153
sg8
S'Feel Something (feat. Kayla Diamond)'
p2154
ssS'7aV2mflaASUmGhCErm7kBO'
p2155
(dp2156
g3
S'Nevada'
p2157
sg5
I8
sg6
S'https://open.spotify.com/track/7aV2mflaASUmGhCErm7kBO'
p2158
sg8
S'The Mack'
p2159
ssS'0bYg9bo50gSsH3LtXe2SQn'
p2160
(dp2161
g3
S'Mariah Carey'
p2162
sg5
I1
sg6
S'https://open.spotify.com/track/0bYg9bo50gSsH3LtXe2SQn'
p2163
sg8
S'All I Want for Christmas Is You'
p2164
ssS'4at9j7aC7FvDlsllpOvsAC'
p2165
(dp2166
g3
S'Lil Pump'
p2167
sg5
I1
sg6
S'https://open.spotify.com/track/4at9j7aC7FvDlsllpOvsAC'
p2168
sg8
S"What U Sayin' (feat. Smokepurpp)"
p2169
ssS'3WNx4pJLzQgYapuBWS4mUG'
p2170
(dp2171
g3
S'Tory Lanez'
p2172
sg5
I3
sg6
S'https://open.spotify.com/track/3WNx4pJLzQgYapuBWS4mUG'
p2173
sg8
S'Shooters'
p2174
ssS'1sYSP7gKa5kdKIfhANfori'
p2175
(dp2176
g3
S'MAX'
p2177
sg5
I10
sg6
S'https://open.spotify.com/track/1sYSP7gKa5kdKIfhANfori'
p2178
sg8
S'Lights Down Low'
p2179
ssS'4MV8yeKSsls4xev14yDXL6'
p2180
(dp2181
g3
S'TRXD'
p2182
sg5
I5
sg6
S'https://open.spotify.com/track/4MV8yeKSsls4xev14yDXL6'
p2183
sg8
S'Our City'
p2184
ssS'3rOSwuTsUlJp0Pu0MkN8r8'
p2185
(dp2186
g3
S'Future'
p2187
sg5
I34
sg6
S'https://open.spotify.com/track/3rOSwuTsUlJp0Pu0MkN8r8'
p2188
sg8
S'Mask Off'
p2189
ssS'4FQJyi8gnbhKy623wNx6Ps'
p2190
(dp2191
g3
S'Nat King Cole Trio'
p2192
sg5
I1
sg6
S'https://open.spotify.com/track/4FQJyi8gnbhKy623wNx6Ps'
p2193
sg8
S'All I Want For Christmas (Is My Two Front Teeth) - 1990 - Remaster'
p2194
ssS'0G149jkGWKwrPXUGkEDgWM'
p2195
(dp2196
g3
S'21 Savage'
p2197
sg5
I7
sg6
S'https://open.spotify.com/track/0G149jkGWKwrPXUGkEDgWM'
p2198
sg8
S'Numb'
p2199
ssS'1qOLh0tI7trd1zdDKxYZTe'
p2200
(dp2201
g3
S'Hailee Steinfeld'
p2202
sg5
I35
sg6
S'https://open.spotify.com/track/1qOLh0tI7trd1zdDKxYZTe'
p2203
sg8
S'Starving'
p2204
ssS'3HVr6jTVwBHBa2flM0eURR'
p2205
(dp2206
g3
S'Macklemore'
p2207
sg5
I13
sg6
S'https://open.spotify.com/track/3HVr6jTVwBHBa2flM0eURR'
p2208
sg8
S'Glorious (feat. Skylar Grey)'
p2209
ssS'7inXu0Eaeg02VsM8kHNvzM'
p2210
(dp2211
g3
S'Frank Sinatra'
p2212
sg5
I1
sg6
S'https://open.spotify.com/track/7inXu0Eaeg02VsM8kHNvzM'
p2213
sg8
S'Let It Snow! Let It Snow! Let It Snow!'
p2214
ssS'0JiVRyTJcJnmlwCZ854K4p'
p2215
(dp2216
g3
S'Alan Walker'
p2217
sg5
I6
sg6
S'https://open.spotify.com/track/0JiVRyTJcJnmlwCZ854K4p'
p2218
sg8
S'Alone'
p2219
ssS'1cG0umU5TKStygKsPFZ9pY'
p2220
(dp2221
g3
S'Robin Schulz'
p2222
sg5
I11
sg6
S'https://open.spotify.com/track/1cG0umU5TKStygKsPFZ9pY'
p2223
sg8
S'Shed a Light'
p2224
ssS'6520aj0B4FSKGVuKNsOCOi'
p2225
(dp2226
g3
S'Katy Perry'
p2227
sg5
I18
sg6
S'https://open.spotify.com/track/6520aj0B4FSKGVuKNsOCOi'
p2228
sg8
S'Chained To The Rhythm'
p2229
ssS'4q8PHoRsPUB52LFylX8Ulz'
p2230
(dp2231
g3
S'Axwell /\\ Ingrosso'
p2232
sg5
I8
sg6
S'https://open.spotify.com/track/4q8PHoRsPUB52LFylX8Ulz'
p2233
sg8
S'More Than You Know'
p2234
ssS'6EpRaXYhGOB3fj4V2uDkMJ'
p2235
(dp2236
g3
S'Liam Payne'
p2237
sg5
I21
sg6
S'https://open.spotify.com/track/6EpRaXYhGOB3fj4V2uDkMJ'
p2238
sg8
S'Strip That Down'
p2239
ssS'2MX30RliaxJDgmQ3C3rrJX'
p2240
(dp2241
g3
S'blackbear'
p2242
sg5
I1
sg6
S'https://open.spotify.com/track/2MX30RliaxJDgmQ3C3rrJX'
p2243
sg8
S'do re mi'
p2244
ssS'4AFgK4wP1iD5i8BYaLr9Vf'
p2245
(dp2246
g3
S'Future'
p2247
sg5
I3
sg6
S'https://open.spotify.com/track/4AFgK4wP1iD5i8BYaLr9Vf'
p2248
sg8
S'You Da Baddest'
p2249
ssS'1r0faljjM2b876iNoaDUh5'
p2250
(dp2251
g3
S'Big Sean'
p2252
sg5
I2
sg6
S'https://open.spotify.com/track/1r0faljjM2b876iNoaDUh5'
p2253
sg8
S'Sacrifices'
p2254
ssS'1wjzFQodRWrPcQ0AnYnvQ9'
p2255
(dp2256
g3
S'Lauv'
p2257
sg5
I20
sg6
S'https://open.spotify.com/track/1wjzFQodRWrPcQ0AnYnvQ9'
p2258
sg8
S'I Like Me Better'
p2259
ssS'2Cth0v1xri32oZ799rL3rl'
p2260
(dp2261
g3
S'Tyga'
p2262
sg5
I3
sg6
S'https://open.spotify.com/track/2Cth0v1xri32oZ799rL3rl'
p2263
sg8
S'Feel Me'
p2264
ssS'03hqMhmCZiNKMSPmVabPLP'
p2265
(dp2266
g3
S'Lana Del Rey'
p2267
sg5
I1
sg6
S'https://open.spotify.com/track/03hqMhmCZiNKMSPmVabPLP'
p2268
sg8
S'Groupie Love (feat. A$AP Rocky)'
p2269
ssS'0utlOiJy2weVl9WTkcEWHy'
p2270
(dp2271
g3
S'J. Cole'
p2272
sg5
I9
sg6
S'https://open.spotify.com/track/0utlOiJy2weVl9WTkcEWHy'
p2273
sg8
S'Neighbors'
p2274
ssS'4WN9xLkAeINLPLaoeZ9ZW9'
p2275
(dp2276
g3
S'Nat King Cole'
p2277
sg5
I1
sg6
S'https://open.spotify.com/track/4WN9xLkAeINLPLaoeZ9ZW9'
p2278
sg8
S'The Happiest Christmas Tree'
p2279
ssS'3GVkPk8mqxz0itaAriG1L7'
p2280
(dp2281
g3
S'XXXTENTACION'
p2282
sg5
I7
sg6
S'https://open.spotify.com/track/3GVkPk8mqxz0itaAriG1L7'
p2283
sg8
S'Everybody Dies In Their Nightmares'
p2284
ssS'67dyMPOUsbZ9Yg06PnfAAh'
p2285
(dp2286
g3
S'Future'
p2287
sg5
I4
sg6
S'https://open.spotify.com/track/67dyMPOUsbZ9Yg06PnfAAh'
p2288
sg8
S'Draco'
p2289
ssS'3GPI7hYiqD6enLRobhkBm8'
p2290
(dp2291
g3
S'ItaloBrothers'
p2292
sg5
I4
sg6
S'https://open.spotify.com/track/3GPI7hYiqD6enLRobhkBm8'
p2293
sg8
S'Summer Air'
p2294
ssS'1KqvRRQd3lfM0pAlkGPrgD'
p2295
(dp2296
g3
S'Ed Sheeran'
p2297
sg5
I1
sg6
S'https://open.spotify.com/track/1KqvRRQd3lfM0pAlkGPrgD'
p2298
sg8
S'Shape of You (Major Lazer Remix) [feat. Nyla & Kranium]'
p2299
ssS'2XMTqoHHSH0lvuXrvIEdco'
p2300
(dp2301
g3
S'FRENSHIP'
p2302
sg5
I24
sg6
S'https://open.spotify.com/track/2XMTqoHHSH0lvuXrvIEdco'
p2303
sg8
S'Capsize'
p2304
ssS'5MFzQMkrl1FOOng9tq6R9r'
p2305
(dp2306
g3
S'Maroon 5'
p2307
sg5
I22
sg6
S'https://open.spotify.com/track/5MFzQMkrl1FOOng9tq6R9r'
p2308
sg8
S"Don't Wanna Know"
p2309
ssS'5Z3GHaZ6ec9bsiI5BenrbY'
p2310
(dp2311
g3
S'Khalid'
p2312
sg5
I16
sg6
S'https://open.spotify.com/track/5Z3GHaZ6ec9bsiI5BenrbY'
p2313
sg8
S'Young Dumb & Broke'
p2314
ssS'3FDrI0FLKzrYQiWxPhqV2W'
p2315
(dp2316
g3
S'Calvin Harris'
p2317
sg5
I4
sg6
S'https://open.spotify.com/track/3FDrI0FLKzrYQiWxPhqV2W'
p2318
sg8
S'Rollin'
p2319
ssS'3CyICSGQGqUaFeYvMJgpnt'
p2320
(dp2321
g3
S'Future'
p2322
sg5
I1
sg6
S'https://open.spotify.com/track/3CyICSGQGqUaFeYvMJgpnt'
p2323
sg8
S'High Demand'
p2324
ssS'2YMhrXQYKkm4kXLcXKKd5z'
p2325
(dp2326
g3
S'Dustin Lynch'
p2327
sg5
I5
sg6
S'https://open.spotify.com/track/2YMhrXQYKkm4kXLcXKKd5z'
p2328
sg8
S'Small Town Boy'
p2329
ssS'5XQMr19TL7Mfksq9zihbOu'
p2330
(dp2331
g3
S'Chris Brown'
p2332
sg5
I8
sg6
S'https://open.spotify.com/track/5XQMr19TL7Mfksq9zihbOu'
p2333
sg8
S'Questions'
p2334
ssS'6eT7xZZlB2mwyzJ2sUKG6w'
p2335
(dp2336
g3
S'Post Malone'
p2337
sg5
I42
sg6
S'https://open.spotify.com/track/6eT7xZZlB2mwyzJ2sUKG6w'
p2338
sg8
S'White Iverson'
p2339
ssS'0Xa7b1Kw7I08dD2k7zZKtV'
p2340
(dp2341
g3
S'Anjulie'
p2342
sg5
I3
sg6
S'https://open.spotify.com/track/0Xa7b1Kw7I08dD2k7zZKtV'
p2343
sg8
S'Where The Love Goes'
p2344
ssS'51PIvodunv6NmX5250zxAh'
p2345
(dp2346
g3
S'Lady Gaga'
p2347
sg5
I16
sg6
S'https://open.spotify.com/track/51PIvodunv6NmX5250zxAh'
p2348
sg8
S'The Cure'
p2349
ssS'58kwvMXeOlsvzPqUlyj75Y'
p2350
(dp2351
g3
S'Logic'
p2352
sg5
I1
sg6
S'https://open.spotify.com/track/58kwvMXeOlsvzPqUlyj75Y'
p2353
sg8
S'Confess'
p2354
ssS'3NgCzSW98SsqBdpYcnm4kv'
p2355
(dp2356
g3
S'Camila Cabello'
p2357
sg5
I1
sg6
S'https://open.spotify.com/track/3NgCzSW98SsqBdpYcnm4kv'
p2358
sg8
S'I Have Questions'
p2359
ssS'0v9Wz8o0BT8DU38R4ddjeH'
p2360
(dp2361
g3
S'Chance The Rapper'
p2362
sg5
I27
sg6
S'https://open.spotify.com/track/0v9Wz8o0BT8DU38R4ddjeH'
p2363
sg8
S'No Problem (feat. Lil Wayne & 2 Chainz)'
p2364
ssS'0IqKeD8ZSP72KbGYyzEcAs'
p2365
(dp2366
g3
S'Hozier'
p2367
sg5
I1
sg6
S'https://open.spotify.com/track/0IqKeD8ZSP72KbGYyzEcAs'
p2368
sg8
S'Take Me To Church'
p2369
ssS'33bURv895AN4FkBvgFo2dx'
p2370
(dp2371
g3
S'Harry Styles'
p2372
sg5
I1
sg6
S'https://open.spotify.com/track/33bURv895AN4FkBvgFo2dx'
p2373
sg8
S'Woman'
p2374
ssS'5QqyRUZeBE04yJxsD1OC0I'
p2375
(dp2376
g3
S'Lana Del Rey'
p2377
sg5
I1
sg6
S'https://open.spotify.com/track/5QqyRUZeBE04yJxsD1OC0I'
p2378
sg8
S'Summer Bummer (feat. A$AP Rocky & Playboi Carti)'
p2379
ssS'2jTujnt0y344ai1rNOywgr'
p2380
(dp2381
g3
S'Drake'
p2382
sg5
I10
sg6
S'https://open.spotify.com/track/2jTujnt0y344ai1rNOywgr'
p2383
sg8
S'KMT'
p2384
ssS'3uFmweGlFudKNiX13XFwFm'
p2385
(dp2386
g3
S'Lil Pump'
p2387
sg5
I1
sg6
S'https://open.spotify.com/track/3uFmweGlFudKNiX13XFwFm'
p2388
sg8
S'Molly'
p2389
ssS'6gBFPUFcJLzWGx4lenP6h2'
p2390
(dp2391
g3
S'Travis Scott'
p2392
sg5
I42
sg6
S'https://open.spotify.com/track/6gBFPUFcJLzWGx4lenP6h2'
p2393
sg8
S'goosebumps'
p2394
ssS'7zgqtptZvhf8GEmdsM2vp2'
p2395
(dp2396
g3
S'Taylor Swift'
p2397
sg5
I1
sg6
S'https://open.spotify.com/track/7zgqtptZvhf8GEmdsM2vp2'
p2398
sg8
S'...Ready For It?'
p2399
ssS'4STaHtfguDMkWbPEo6Fwcx'
p2400
(dp2401
g3
S'PARTYNEXTDOOR'
p2402
sg5
I29
sg6
S'https://open.spotify.com/track/4STaHtfguDMkWbPEo6Fwcx'
p2403
sg8
S'Not Nice'
p2404
ssS'6DB2KOEwHnjkgEnBt5SdeJ'
p2405
(dp2406
g3
S'Future'
p2407
sg5
I4
sg6
S'https://open.spotify.com/track/6DB2KOEwHnjkgEnBt5SdeJ'
p2408
sg8
S'Mask Off - Remix'
p2409
ssS'3U3J5v3rkx89WnFEQvAJD5'
p2410
(dp2411
g3
S'Jessie Reyez'
p2412
sg5
I5
sg6
S'https://open.spotify.com/track/3U3J5v3rkx89WnFEQvAJD5'
p2413
sg8
S'Figures'
p2414
ssS'0ro5QCkSCtbfhMHnvMase3'
p2415
(dp2416
g3
S'Lil Uzi Vert'
p2417
sg5
I1
sg6
S'https://open.spotify.com/track/0ro5QCkSCtbfhMHnvMase3'
p2418
sg8
S'How To Talk'
p2419
ssS'7AQim7LbvFVZJE3O8TYgf2'
p2420
(dp2421
g3
S'XXXTENTACION'
p2422
sg5
I7
sg6
S'https://open.spotify.com/track/7AQim7LbvFVZJE3O8TYgf2'
p2423
sg8
S'Fuck Love (feat. Trippie Redd)'
p2424
ssS'2C0KFbb4v9CNWR5c9jWcKC'
p2425
(dp2426
g3
S'Gorillaz'
p2427
sg5
I1
sg6
S'https://open.spotify.com/track/2C0KFbb4v9CNWR5c9jWcKC'
p2428
sg8
S'Andromeda (feat. DRAM)'
p2429
ssS'4GBuL6fgtVXJNgP1GzoF6Z'
p2430
(dp2431
g3
S'A$AP Ferg'
p2432
sg5
I1
sg6
S'https://open.spotify.com/track/4GBuL6fgtVXJNgP1GzoF6Z'
p2433
sg8
S'Nasty (Who Dat)'
p2434
ssS'3yaq0WhtGS0Y6r7vDkw4lc'
p2435
(dp2436
g3
S'Future'
p2437
sg5
I1
sg6
S'https://open.spotify.com/track/3yaq0WhtGS0Y6r7vDkw4lc'
p2438
sg8
S'Good Dope'
p2439
ssS'4Ba8FqEIKB8Cygzz1pg3D9'
p2440
(dp2441
g3
S'CVBZ'
p2442
sg5
I1
sg6
S'https://open.spotify.com/track/4Ba8FqEIKB8Cygzz1pg3D9'
p2443
sg8
S'Be Somebody'
p2444
ssS'0Nhu3zSYbEz32IYiobV75e'
p2445
(dp2446
g3
S'Halsey'
p2447
sg5
I10
sg6
S'https://open.spotify.com/track/0Nhu3zSYbEz32IYiobV75e'
p2448
sg8
S'Now Or Never'
p2449
ssS'4oexZb9T0QV38CltZDS2XN'
p2450
(dp2451
g3
S'Bob Pressner'
p2452
sg5
I1
sg6
S'https://open.spotify.com/track/4oexZb9T0QV38CltZDS2XN'
p2453
sg8
S'American Dream'
p2454
ssS'31MkGwj0SWgZaTvEt5Hgxv'
p2455
(dp2456
g3
S'P!nk'
p2457
sg5
I9
sg6
S'https://open.spotify.com/track/31MkGwj0SWgZaTvEt5Hgxv'
p2458
sg8
S'What About Us'
p2459
ssS'60a0Rd6pjrkxjPbaKzXjfq'
p2460
(dp2461
g3
S'Linkin Park'
p2462
sg5
I4
sg6
S'https://open.spotify.com/track/60a0Rd6pjrkxjPbaKzXjfq'
p2463
sg8
S'In The End'
p2464
ssS'498ZVInMGDkmmNVpSWqHiZ'
p2465
(dp2466
g3
S'Florida Georgia Line'
p2467
sg5
I12
sg6
S'https://open.spotify.com/track/498ZVInMGDkmmNVpSWqHiZ'
p2468
sg8
S'May We All'
p2469
ssS'3pC1ILr9KzmQLMe8Kn5QBG'
p2470
(dp2471
g3
S'DJ Khaled'
p2472
sg5
I2
sg6
S'https://open.spotify.com/track/3pC1ILr9KzmQLMe8Kn5QBG'
p2473
sg8
S'To the Max'
p2474
ssS'0V9cosR5jWa4fr2koARmhD'
p2475
(dp2476
g3
S'ItaloBrothers'
p2477
sg5
I5
sg6
S'https://open.spotify.com/track/0V9cosR5jWa4fr2koARmhD'
p2478
sg8
S'Summer Air'
p2479
ssS'2rb5MvYT7ZIxbKW5hfcHx8'
p2480
(dp2481
g3
S'J Balvin'
p2482
sg5
I15
sg6
S'https://open.spotify.com/track/2rb5MvYT7ZIxbKW5hfcHx8'
p2483
sg8
S'Mi Gente'
p2484
ssS'4eP9Et7gkdPf6eeCRNal75'
p2485
(dp2486
g3
S'Vanic'
p2487
sg5
I2
sg6
S'https://open.spotify.com/track/4eP9Et7gkdPf6eeCRNal75'
p2488
sg8
S'Too Soon'
p2489
ssS'6r7zgVLkd8uGKZbvYDuCXJ'
p2490
(dp2491
g3
S'Cassow'
p2492
sg5
I2
sg6
S'https://open.spotify.com/track/6r7zgVLkd8uGKZbvYDuCXJ'
p2493
sg8
S'La Brea'
p2494
ssS'7y06b4wdIvUa5mEiEClTA3'
p2495
(dp2496
g3
S'Future'
p2497
sg5
I1
sg6
S'https://open.spotify.com/track/7y06b4wdIvUa5mEiEClTA3'
p2498
sg8
S'Damage'
p2499
ssS'5DLTuH4A5VZB2HKpqHQR6t'
p2500
(dp2501
g3
S'Post Malone'
p2502
sg5
I8
sg6
S'https://open.spotify.com/track/5DLTuH4A5VZB2HKpqHQR6t'
p2503
sg8
S'Patient'
p2504
ssS'5q4BpnMrYEFzLO0dYODj6J'
p2505
(dp2506
g3
S'Lorde'
p2507
sg5
I1
sg6
S'https://open.spotify.com/track/5q4BpnMrYEFzLO0dYODj6J'
p2508
sg8
S'The Louvre'
p2509
ssS'7fRfIvHPH6bHdMDjPFwTMh'
p2510
(dp2511
g3
S'Logic'
p2512
sg5
I1
sg6
S'https://open.spotify.com/track/7fRfIvHPH6bHdMDjPFwTMh'
p2513
sg8
S'Hallelujah'
p2514
ssS'6E39QsoWB7JjphPF9xCQSN'
p2515
(dp2516
g3
S'Desiigner'
p2517
sg5
I5
sg6
S'https://open.spotify.com/track/6E39QsoWB7JjphPF9xCQSN'
p2518
sg8
S'Outlet'
p2519
ssS'2ClE3QfsNx9p0zjPKxmUYq'
p2520
(dp2521
g3
S'DJ Khaled'
p2522
sg5
I1
sg6
S'https://open.spotify.com/track/2ClE3QfsNx9p0zjPKxmUYq'
p2523
sg8
S'Iced Out My Arms'
p2524
ssS'0rlFL6bxIWcCn9gk9GExFA'
p2525
(dp2526
g3
S'Ty Dolla $ign'
p2527
sg5
I7
sg6
S'https://open.spotify.com/track/0rlFL6bxIWcCn9gk9GExFA'
p2528
sg8
S'Love U Better (feat. Lil Wayne & The-Dream)'
p2529
ssS'3kxfsdsCpFgN412fpnW85Y'
p2530
(dp2531
g3
S'Childish Gambino'
p2532
sg5
I42
sg6
S'https://open.spotify.com/track/3kxfsdsCpFgN412fpnW85Y'
p2533
sg8
S'Redbone'
p2534
ssS'5hTpBe8h35rJ67eAWHQsJx'
p2535
(dp2536
g3
S'Amin\xc3\xa9'
p2537
sg5
I9
sg6
S'https://open.spotify.com/track/5hTpBe8h35rJ67eAWHQsJx'
p2538
sg8
S'Caroline'
p2539
ssS'0iTCmKvuU1ReULiQB0rI7n'
p2540
(dp2541
g3
S'Gucci Mane'
p2542
sg5
I13
sg6
S'https://open.spotify.com/track/0iTCmKvuU1ReULiQB0rI7n'
p2543
sg8
S'Tone it Down (feat. Chris Brown)'
p2544
ssS'19HA9J80qZfIkAnp2g8N2S'
p2545
(dp2546
g3
S'21 Savage'
p2547
sg5
I2
sg6
S'https://open.spotify.com/track/19HA9J80qZfIkAnp2g8N2S'
p2548
sg8
S'Famous'
p2549
ssS'1KeZgPUr54C8iz3FjqzVoz'
p2550
(dp2551
g3
S'The Chainsmokers'
p2552
sg5
I6
sg6
S'https://open.spotify.com/track/1KeZgPUr54C8iz3FjqzVoz'
p2553
sg8
S'Young'
p2554
ssS'4sPmO7WMQUAf45kwMOtONw'
p2555
(dp2556
g3
S'Adele'
p2557
sg5
I2
sg6
S'https://open.spotify.com/track/4sPmO7WMQUAf45kwMOtONw'
p2558
sg8
S'Hello'
p2559
ssS'0Ws8D3EWUDgY962Xftb0h5'
p2560
(dp2561
g3
S'Calvin Harris'
p2562
sg5
I2
sg6
S'https://open.spotify.com/track/0Ws8D3EWUDgY962Xftb0h5'
p2563
sg8
S'Cash Out'
p2564
ssS'2Za1AlJNvksouPPWbXpR2X'
p2565
(dp2566
g3
S'Macklemore'
p2567
sg5
I3
sg6
S'https://open.spotify.com/track/2Za1AlJNvksouPPWbXpR2X'
p2568
sg8
S'Good Old Days (feat. Kesha)'
p2569
ssS'3tuyK9qfen7lPMji9Saw3d'
p2570
(dp2571
g3
S'Bryson Tiller'
p2572
sg5
I1
sg6
S'https://open.spotify.com/track/3tuyK9qfen7lPMji9Saw3d'
p2573
sg8
S'We Both Know'
p2574
ssS'3IJPE9ICRq5PxVZxdv1sEv'
p2575
(dp2576
g3
S'Future'
p2577
sg5
I3
sg6
S'https://open.spotify.com/track/3IJPE9ICRq5PxVZxdv1sEv'
p2578
sg8
S'Incredible'
p2579
ssS'6BaCraQ9xeLYg4Sb9TBT2X'
p2580
(dp2581
g3
S'Calvin Harris'
p2582
sg5
I1
sg6
S'https://open.spotify.com/track/6BaCraQ9xeLYg4Sb9TBT2X'
p2583
sg8
S'Feels'
p2584
ssS'4XGqzhzg4PDmdPEMWmi7r8'
p2585
(dp2586
g3
S'DVBBS'
p2587
sg5
I8
sg6
S'https://open.spotify.com/track/4XGqzhzg4PDmdPEMWmi7r8'
p2588
sg8
S'Parallel Lines'
p2589
ssS'3Q3myFA7q4Op95DOpHplaY'
p2590
(dp2591
g3
S'blackbear'
p2592
sg5
I22
sg6
S'https://open.spotify.com/track/3Q3myFA7q4Op95DOpHplaY'
p2593
sg8
S'do re mi'
p2594
ssS'6875MeXyCW0wLyT72Eetmo'
p2595
(dp2596
g3
S'Hailee Steinfeld'
p2597
sg5
I6
sg6
S'https://open.spotify.com/track/6875MeXyCW0wLyT72Eetmo'
p2598
sg8
S'Starving'
p2599
ssS'3eZGNBvKkExXp8q5FAyM8y'
p2600
(dp2601
g3
S'Kanye West'
p2602
sg5
I3
sg6
S'https://open.spotify.com/track/3eZGNBvKkExXp8q5FAyM8y'
p2603
sg8
S'Champions'
p2604
ssS'0BCy325UZyR9z0t0uxwn2N'
p2605
(dp2606
g3
S'Florida Georgia Line'
p2607
sg5
I4
sg6
S'https://open.spotify.com/track/0BCy325UZyR9z0t0uxwn2N'
p2608
sg8
S'H.O.L.Y.'
p2609
ssS'6Knv6wdA0luoMUuuoYi2i1'
p2610
(dp2611
g3
S'Flo Rida'
p2612
sg5
I3
sg6
S'https://open.spotify.com/track/6Knv6wdA0luoMUuuoYi2i1'
p2613
sg8
S'My House'
p2614
ssS'3JWh19WsndEFg0UFRFeTiU'
p2615
(dp2616
g3
S'NAV'
p2617
sg5
I3
sg6
S'https://open.spotify.com/track/3JWh19WsndEFg0UFRFeTiU'
p2618
sg8
S'Minute'
p2619
ssS'6gTJaPuj8DT8RjuDJyBgzP'
p2620
(dp2621
g3
S'Ed Sheeran'
p2622
sg5
I1
sg6
S'https://open.spotify.com/track/6gTJaPuj8DT8RjuDJyBgzP'
p2623
sg8
S"Don't"
p2624
ssS'3T7dNA7O8c3Axj5WyDNcH3'
p2625
(dp2626
g3
S'Brenda Lee'
p2627
sg5
I1
sg6
S'https://open.spotify.com/track/3T7dNA7O8c3Axj5WyDNcH3'
p2628
sg8
S"Rockin' Around The Christmas Tree - Single Version"
p2629
ssS'5q5gzmbBS5yQzos2BvVr1t'
p2630
(dp2631
g3
S'M\xc3\x98'
p2632
sg5
I12
sg6
S'https://open.spotify.com/track/5q5gzmbBS5yQzos2BvVr1t'
p2633
sg8
S'Nights With You'
p2634
ssS'3DXncPQOG4VBw3QHh3S817'
p2635
(dp2636
g3
S'DJ Khaled'
p2637
sg5
I20
sg6
S'https://open.spotify.com/track/3DXncPQOG4VBw3QHh3S817'
p2638
sg8
S"I'm the One"
p2639
ssS'5Lbsc65org0b85kNsPkluY'
p2640
(dp2641
g3
S'Harry Styles'
p2642
sg5
I1
sg6
S'https://open.spotify.com/track/5Lbsc65org0b85kNsPkluY'
p2643
sg8
S'Only Angel'
p2644
ssS'6mapJIPnQ23RTAevUoE0DL'
p2645
(dp2646
g3
S'Rae Sremmurd'
p2647
sg5
I42
sg6
S'https://open.spotify.com/track/6mapJIPnQ23RTAevUoE0DL'
p2648
sg8
S'Swang'
p2649
ssS'6mORGLOz79w6VsCRLWYYuK'
p2650
(dp2651
g3
S'Lord Huron'
p2652
sg5
I27
sg6
S'https://open.spotify.com/track/6mORGLOz79w6VsCRLWYYuK'
p2653
sg8
S'The Night We Met'
p2654
ssS'5aAx2yezTd8zXrkmtKl66Z'
p2655
(dp2656
g3
S'The Weeknd'
p2657
sg5
I42
sg6
S'https://open.spotify.com/track/5aAx2yezTd8zXrkmtKl66Z'
p2658
sg8
S'Starboy'
p2659
ssS'3izYo2ghdPK4B8jwXYgje4'
p2660
(dp2661
g3
S'Hedley'
p2662
sg5
I8
sg6
S'https://open.spotify.com/track/3izYo2ghdPK4B8jwXYgje4'
p2663
sg8
S'Love Again'
p2664
ssS'2BrzlUj1u1CtvaJDGIKpsP'
p2665
(dp2666
g3
S'Noah Cyrus'
p2667
sg5
I12
sg6
S'https://open.spotify.com/track/2BrzlUj1u1CtvaJDGIKpsP'
p2668
sg8
S'Make Me (Cry)'
p2669
ssS'1WRy5l3TwrwlzNmB5bOeKw'
p2670
(dp2671
g3
S'Drake'
p2672
sg5
I5
sg6
S'https://open.spotify.com/track/1WRy5l3TwrwlzNmB5bOeKw'
p2673
sg8
S'Pop Style'
p2674
ssS'1SJtlNRJDeYHioymcvsqev'
p2675
(dp2676
g3
S'Camila Cabello'
p2677
sg5
I18
sg6
S'https://open.spotify.com/track/1SJtlNRJDeYHioymcvsqev'
p2678
sg8
S'Crying in the Club'
p2679
ssS'0Wv5wuenRLI3BcwgT3HPIP'
p2680
(dp2681
g3
S'DJ Snake'
p2682
sg5
I3
sg6
S'https://open.spotify.com/track/0Wv5wuenRLI3BcwgT3HPIP'
p2683
sg8
S'A Different Way (with Lauv)'
p2684
ssS'04DwTuZ2VBdJCCC5TROn7L'
p2685
(dp2686
g3
S'Martin Garrix'
p2687
sg5
I25
sg6
S'https://open.spotify.com/track/04DwTuZ2VBdJCCC5TROn7L'
p2688
sg8
S'In the Name of Love'
p2689
ssS'0m2orA1i5lLZUOt9XLwSd0'
p2690
(dp2691
g3
S'Fifth Harmony'
p2692
sg5
I1
sg6
S'https://open.spotify.com/track/0m2orA1i5lLZUOt9XLwSd0'
p2693
sg8
S'He Like That'
p2694
ssS'7M62jxrvr7UJdo6DchAFf3'
p2695
(dp2696
g3
S'Big Sean'
p2697
sg5
I1
sg6
S'https://open.spotify.com/track/7M62jxrvr7UJdo6DchAFf3'
p2698
sg8
S'Inspire Me'
p2699
ssS'7bJ4mu7MHa3rHiNyKjOoSl'
p2700
(dp2701
g3
S'Drake'
p2702
sg5
I7
sg6
S'https://open.spotify.com/track/7bJ4mu7MHa3rHiNyKjOoSl'
p2703
sg8
S'Ice Melts'
p2704
ssS'0pSBuHjILhNEo55xK1zrRt'
p2705
(dp2706
g3
S'Ayo & Teo'
p2707
sg5
I35
sg6
S'https://open.spotify.com/track/0pSBuHjILhNEo55xK1zrRt'
p2708
sg8
S'Rolex'
p2709
ssS'05bnEv2dpFzmGVLGdjD9UP'
p2710
(dp2711
g3
S'XXXTENTACION'
p2712
sg5
I2
sg6
S'https://open.spotify.com/track/05bnEv2dpFzmGVLGdjD9UP'
p2713
sg8
S'Orlando'
p2714
ssS'4JAyIDXOqNM6qHuZML01uX'
p2715
(dp2716
g3
S''
p2717
sg5
I1
sg6
S'https://open.spotify.com/track/4JAyIDXOqNM6qHuZML01uX'
p2718
sg8
g2717
ssS'6VRghJeP6I0w1KxkdWFfIh'
p2719
(dp2720
g3
S'Imagine Dragons'
p2721
sg5
I3
sg6
S'https://open.spotify.com/track/6VRghJeP6I0w1KxkdWFfIh'
p2722
sg8
S'Believer'
p2723
ssS'6SznMYPQJHzr3IwsAHLId2'
p2724
(dp2725
g3
S'Ed Sheeran'
p2726
sg5
I4
sg6
S'https://open.spotify.com/track/6SznMYPQJHzr3IwsAHLId2'
p2727
sg8
S'Bibia Be Ye Ye'
p2728
ssS'6jmngk8Fwup05JZ6kgXEGX'
p2729
(dp2730
g3
S'Imagine Dragons'
p2731
sg5
I1
sg6
S'https://open.spotify.com/track/6jmngk8Fwup05JZ6kgXEGX'
p2732
sg8
S'Walking The Wire'
p2733
ssS'5xbrhx2tMMcN68IT3cJbhS'
p2734
(dp2735
g3
S'XXXTENTACION'
p2736
sg5
I1
sg6
S'https://open.spotify.com/track/5xbrhx2tMMcN68IT3cJbhS'
p2737
sg8
S'Ayala (Outro)'
p2738
ssS'6gHWMJzCYkbDcsqKHoycJw'
p2739
(dp2740
g3
S'21 Savage'
p2741
sg5
I1
sg6
S'https://open.spotify.com/track/6gHWMJzCYkbDcsqKHoycJw'
p2742
sg8
S'FaceTime'
p2743
ssS'3GgT5Au03iV45iGfTpzdhu'
p2744
(dp2745
g3
S'Meek Mill'
p2746
sg5
I1
sg6
S'https://open.spotify.com/track/3GgT5Au03iV45iGfTpzdhu'
p2747
sg8
S'Whatever You Need (feat. Chris Brown & Ty Dolla $ign)'
p2748
ssS'4wdZdkEugVVorAfzqRqC6N'
p2749
(dp2750
g3
S'Post Malone'
p2751
sg5
I9
sg6
S'https://open.spotify.com/track/4wdZdkEugVVorAfzqRqC6N'
p2752
sg8
S'Candy Paint'
p2753
ssS'0NiXXAI876aGImAd6rTj8w'
p2754
(dp2755
g3
S'Jonas Blue'
p2756
sg5
I14
sg6
S'https://open.spotify.com/track/0NiXXAI876aGImAd6rTj8w'
p2757
sg8
S'Mama'
p2758
ssS'4f1QbCjIAgQwnf7ms9NXWx'
p2759
(dp2760
g3
S'Russ'
p2761
sg5
I2
sg6
S'https://open.spotify.com/track/4f1QbCjIAgQwnf7ms9NXWx'
p2762
sg8
S'Me You'
p2763
ssS'6sBB5CBuzKJhDooro1IraE'
p2764
(dp2765
g3
S'21 Savage'
p2766
sg5
I1
sg6
S'https://open.spotify.com/track/6sBB5CBuzKJhDooro1IraE'
p2767
sg8
S'Baby Girl'
p2768
ssS'1EaKU4dMbesXXd3BrLCtYG'
p2769
(dp2770
g3
S'Kendrick Lamar'
p2771
sg5
I23
sg6
S'https://open.spotify.com/track/1EaKU4dMbesXXd3BrLCtYG'
p2772
sg8
S'ELEMENT.'
p2773
ssS'6eGMMPRVYzpssGgednRvzU'
p2774
(dp2775
g3
S'Lana Del Rey'
p2776
sg5
I1
sg6
S'https://open.spotify.com/track/6eGMMPRVYzpssGgednRvzU'
p2777
sg8
S'Cherry'
p2778
ssS'1n4jwRVXdkK2U34nBDUKKT'
p2779
(dp2780
g3
S'Kendrick Lamar'
p2781
sg5
I4
sg6
S'https://open.spotify.com/track/1n4jwRVXdkK2U34nBDUKKT'
p2782
sg8
S'BLOOD.'
p2783
ssS'0rHJxNaQRMGK6Y4TUx3xRO'
p2784
(dp2785
g3
S'Yo Gotti'
p2786
sg5
I5
sg6
S'https://open.spotify.com/track/0rHJxNaQRMGK6Y4TUx3xRO'
p2787
sg8
S'Castro'
p2788
ssS'2h3i5tGUl6hMu572umjcGo'
p2789
(dp2790
g3
S'Wale'
p2791
sg5
I6
sg6
S'https://open.spotify.com/track/2h3i5tGUl6hMu572umjcGo'
p2792
sg8
S'Running Back (feat. Lil Wayne)'
p2793
ssS'4TucnqHh162g9sgIoC7Mh1'
p2794
(dp2795
g3
S'NAV'
p2796
sg5
I1
sg6
S'https://open.spotify.com/track/4TucnqHh162g9sgIoC7Mh1'
p2797
sg8
S'My Mind'
p2798
ssS'5Ohxk2dO5COHF1krpoPigN'
p2799
(dp2800
g3
S'Harry Styles'
p2801
sg5
I26
sg6
S'https://open.spotify.com/track/5Ohxk2dO5COHF1krpoPigN'
p2802
sg8
S'Sign of the Times'
p2803
ssS'2XaInsPPUkZRkY4uFJ3AHK'
p2804
(dp2805
g3
S'Gucci Mane'
p2806
sg5
I12
sg6
S'https://open.spotify.com/track/2XaInsPPUkZRkY4uFJ3AHK'
p2807
sg8
S'Met Gala (feat. Offset)'
p2808
ssS'7FCfMXYTIiQ9b4hDYs4Iol'
p2809
(dp2810
g3
S'Dua Lipa'
p2811
sg5
I6
sg6
S'https://open.spotify.com/track/7FCfMXYTIiQ9b4hDYs4Iol'
p2812
sg8
S'Be The One'
p2813
ssS'4mxWSdf71VFO52qFeY0fZt'
p2814
(dp2815
g3
S'Maroon 5'
p2816
sg5
I6
sg6
S'https://open.spotify.com/track/4mxWSdf71VFO52qFeY0fZt'
p2817
sg8
S'What Lovers Do (feat. SZA)'
p2818
ssS'1ADjWm8QNhgNV8yCNNgQ1T'
p2819
(dp2820
g3
S'Ariana Grande'
p2821
sg5
I1
sg6
S'https://open.spotify.com/track/1ADjWm8QNhgNV8yCNNgQ1T'
p2822
sg8
S'Santa Tell Me'
p2823
ssS'4Hf7WnR761jpxPr5D46Bcd'
p2824
(dp2825
g3
S'Shawn Mendes'
p2826
sg5
I35
sg6
S'https://open.spotify.com/track/4Hf7WnR761jpxPr5D46Bcd'
p2827
sg8
S'Treat You Better'
p2828
ssS'5bgwqaRSS3M8WHWruHgSL5'
p2829
(dp2830
g3
S'Khalid'
p2831
sg5
I6
sg6
S'https://open.spotify.com/track/5bgwqaRSS3M8WHWruHgSL5'
p2832
sg8
S'8TEEN'
p2833
ssS'4fhVodXZARPX0oTuQh8V9l'
p2834
(dp2835
g3
S'Astrid S'
p2836
sg5
I4
sg6
S'https://open.spotify.com/track/4fhVodXZARPX0oTuQh8V9l'
p2837
sg8
S'Breathe'
p2838
ssS'5xGH4fqJwvMynXn3dcmbpr'
p2839
(dp2840
g3
S'Bryson Tiller'
p2841
sg5
I1
sg6
S'https://open.spotify.com/track/5xGH4fqJwvMynXn3dcmbpr'
p2842
sg8
S'You Got It'
p2843
ssS'76cX1GFe7MHAxcfNDOckuS'
p2844
(dp2845
g3
S'Leroy Styles'
p2846
sg5
I7
sg6
S'https://open.spotify.com/track/76cX1GFe7MHAxcfNDOckuS'
p2847
sg8
S'Golden Youth'
p2848
ssS'1Tt4sE4pXi57mTD1GCzsqm'
p2849
(dp2850
g3
S'Rihanna'
p2851
sg5
I17
sg6
S'https://open.spotify.com/track/1Tt4sE4pXi57mTD1GCzsqm'
p2852
sg8
S'Needed Me'
p2853
ssS'7BzjpnOxxngXt1LZiVXhND'
p2854
(dp2855
g3
S'Future'
p2856
sg5
I1
sg6
S'https://open.spotify.com/track/7BzjpnOxxngXt1LZiVXhND'
p2857
sg8
S'POA'
p2858
ssS'16Ah4QqH4mgYVXqfC4mdSd'
p2859
(dp2860
g3
S'Tory Lanez'
p2861
sg5
I9
sg6
S'https://open.spotify.com/track/16Ah4QqH4mgYVXqfC4mdSd'
p2862
sg8
S'LUV'
p2863
ssS'0VFXJrXtfuX2iqlnXpl4zD'
p2864
(dp2865
g3
S'Fetty Wap'
p2866
sg5
I1
sg6
S'https://open.spotify.com/track/0VFXJrXtfuX2iqlnXpl4zD'
p2867
sg8
S'Like A Star (feat. Nicki Minaj)'
p2868
ssS'1MksGqIztTT6M9R1ErKVs8'
p2869
(dp2870
g3
S'Big Sean'
p2871
sg5
I9
sg6
S'https://open.spotify.com/track/1MksGqIztTT6M9R1ErKVs8'
p2872
sg8
S'No Favors'
p2873
ssS'4hXAK3mjFVFOOiJQ3rKAXi'
p2874
(dp2875
g3
S'Burl Ives'
p2876
sg5
I1
sg6
S'https://open.spotify.com/track/4hXAK3mjFVFOOiJQ3rKAXi'
p2877
sg8
S'Rudolph The Red-Nosed Reindeer'
p2878
ssS'7xHWNBFm6ObGEQPaUxHuKO'
p2879
(dp2880
g3
S'Sia'
p2881
sg5
I18
sg6
S'https://open.spotify.com/track/7xHWNBFm6ObGEQPaUxHuKO'
p2882
sg8
S'The Greatest'
p2883
ssS'5knuzwU65gJK7IF5yJsuaW'
p2884
(dp2885
g3
S'Clean Bandit'
p2886
sg5
I42
sg6
S'https://open.spotify.com/track/5knuzwU65gJK7IF5yJsuaW'
p2887
sg8
S'Rockabye (feat. Sean Paul & Anne-Marie)'
p2888
ssS'7aF09WaavZAmAWuUeYxlYD'
p2889
(dp2890
g3
S'OneRepublic'
p2891
sg5
I13
sg6
S'https://open.spotify.com/track/7aF09WaavZAmAWuUeYxlYD'
p2892
sg8
S'Rich Love (with Seeb)'
p2893
ssS'1T5YN3coSTm6uTfCC2WXVo'
p2894
(dp2895
g3
S'Hedley'
p2896
sg5
I1
sg6
S'https://open.spotify.com/track/1T5YN3coSTm6uTfCC2WXVo'
p2897
sg8
S'Better Days'
p2898
ssS'6c2ACHz4eS6ZaUG4PUWbdC'
p2899
(dp2900
g3
S'Karl Wolf'
p2901
sg5
I3
sg6
S'https://open.spotify.com/track/6c2ACHz4eS6ZaUG4PUWbdC'
p2902
sg8
S'Wherever You Go - Gyptian Remix'
p2903
ssS'2UwbhMie1EAYuTZ0QXeMwl'
p2904
(dp2905
g3
S'XXXTENTACION'
p2906
sg5
I2
sg6
S'https://open.spotify.com/track/2UwbhMie1EAYuTZ0QXeMwl'
p2907
sg8
S'Save Me'
p2908
ssS'14WWzenpaEgQZlqPq2nk4v'
p2909
(dp2910
g3
S'Rihanna'
p2911
sg5
I11
sg6
S'https://open.spotify.com/track/14WWzenpaEgQZlqPq2nk4v'
p2912
sg8
S'Work'
p2913
ssS'4tHqQMWSqmL6YjXwsqthDI'
p2914
(dp2915
g3
S'Mykola Dmytrovych Leontovych'
p2916
sg5
I1
sg6
S'https://open.spotify.com/track/4tHqQMWSqmL6YjXwsqthDI'
p2917
sg8
S'Carol of the Bells'
p2918
ssS'5Od0M7jp6IODTPW0cygHgu'
p2919
(dp2920
g3
S'NAV'
p2921
sg5
I11
sg6
S'https://open.spotify.com/track/5Od0M7jp6IODTPW0cygHgu'
p2922
sg8
S'Perfect Timing (Intro)'
p2923
ssS'36YCdzT57us0LhDmCYtrNE'
p2924
(dp2925
g3
S'The Weeknd'
p2926
sg5
I6
sg6
S'https://open.spotify.com/track/36YCdzT57us0LhDmCYtrNE'
p2927
sg8
S'Rockin\xe2\x80\x99'
p2928
ssS'6b8Be6ljOzmkOmFslEb23P'
p2929
(dp2930
g3
S'Bruno Mars'
p2931
sg5
I36
sg6
S'https://open.spotify.com/track/6b8Be6ljOzmkOmFslEb23P'
p2932
sg8
S'24K Magic'
p2933
ssS'1IF5UcqRO42D12vYwceOY6'
p2934
(dp2935
g3
S'Harry Styles'
p2936
sg5
I1
sg6
S'https://open.spotify.com/track/1IF5UcqRO42D12vYwceOY6'
p2937
sg8
S'From the Dining Table'
p2938
ssS'2f9LSU0aBW04w6KL26DW8r'
p2939
(dp2940
g3
S'WizKid'
p2941
sg5
I14
sg6
S'https://open.spotify.com/track/2f9LSU0aBW04w6KL26DW8r'
p2942
sg8
S'Come Closer'
p2943
ssS'6uJwPeBGb3swi85TSr9iIz'
p2944
(dp2945
g3
S'Coldplay'
p2946
sg5
I1
sg6
S'https://open.spotify.com/track/6uJwPeBGb3swi85TSr9iIz'
p2947
sg8
S'Miracles (Someone Special)'
p2948
ssS'3AMnOVxEHUgVrythGgqPhI'
p2949
(dp2950
g3
S'A Boogie Wit da Hoodie'
p2951
sg5
I2
sg6
S'https://open.spotify.com/track/3AMnOVxEHUgVrythGgqPhI'
p2952
sg8
S"Say A'"
p2953
ssS'095XMpnufdWcJUWpO37EXh'
p2954
(dp2955
g3
S'NAV'
p2956
sg5
I1
sg6
S'https://open.spotify.com/track/095XMpnufdWcJUWpO37EXh'
p2957
sg8
S'Call Me'
p2958
ssS'07ARBxsDbIdAxLwuRCkGJ4'
p2959
(dp2960
g3
S'Virginia To Vegas'
p2961
sg5
I13
sg6
S'https://open.spotify.com/track/07ARBxsDbIdAxLwuRCkGJ4'
p2962
sg8
S'Lights Out'
p2963
ssS'4so0Wek9Ig1p6CRCHuINwW'
p2964
(dp2965
g3
S'Bing Crosby'
p2966
sg5
I1
sg6
S'https://open.spotify.com/track/4so0Wek9Ig1p6CRCHuINwW'
p2967
sg8
S'White Christmas'
p2968
ssS'1DRW9bQzt2SE8f7H4KJZyL'
p2969
(dp2970
g3
S'Miguel'
p2971
sg5
I7
sg6
S'https://open.spotify.com/track/1DRW9bQzt2SE8f7H4KJZyL'
p2972
sg8
S'Sky Walker'
p2973
ssS'4FPrAERfkPKOBKrRoyuxLu'
p2974
(dp2975
g3
S'Michael Bubl\xc3\xa9'
p2976
sg5
I1
sg6
S'https://open.spotify.com/track/4FPrAERfkPKOBKrRoyuxLu'
p2977
sg8
S'Cold December Night'
p2978
ssS'4u9Y4Z9i9VaAbBK7rW1Rha'
p2979
(dp2980
g3
S'Harry Styles'
p2981
sg5
I1
sg6
S'https://open.spotify.com/track/4u9Y4Z9i9VaAbBK7rW1Rha'
p2982
sg8
S'Meet Me in the Hallway'
p2983
ssS'23luOrEVHMfoX0AhfbQuS6'
p2984
(dp2985
g3
S'Kendrick Lamar'
p2986
sg5
I4
sg6
S'https://open.spotify.com/track/23luOrEVHMfoX0AhfbQuS6'
p2987
sg8
S'FEAR.'
p2988
ssS'0qfq195ZlBgRNeeABoQCwp'
p2989
(dp2990
g3
S'Majid Jordan'
p2991
sg5
I10
sg6
S'https://open.spotify.com/track/0qfq195ZlBgRNeeABoQCwp'
p2992
sg8
S'One I Want (feat. PARTYNEXTDOOR)'
p2993
ssS'4h90qkbnW1Qq6pBhoPvwko'
p2994
(dp2995
g3
S'The Weeknd'
p2996
sg5
I12
sg6
S'https://open.spotify.com/track/4h90qkbnW1Qq6pBhoPvwko'
p2997
sg8
S'Sidewalks'
p2998
ssS'6HZILIRieu8S0iqY8kIKhj'
p2999
(dp3000
g3
S'Kendrick Lamar'
p3001
sg5
I26
sg6
S'https://open.spotify.com/track/6HZILIRieu8S0iqY8kIKhj'
p3002
sg8
S'DNA.'
p3003
ssS'4B2OmQGLBVB51aYNgUvXeM'
p3004
(dp3005
g3
S'Bryson Tiller'
p3006
sg5
I1
sg6
S'https://open.spotify.com/track/4B2OmQGLBVB51aYNgUvXeM'
p3007
sg8
S'Blowing Smoke'
p3008
ssS'4UknpXoLjlB7Mao4UWcJ2o'
p3009
(dp3010
g3
S'The Weeknd'
p3011
sg5
I3
sg6
S'https://open.spotify.com/track/4UknpXoLjlB7Mao4UWcJ2o'
p3012
sg8
S'A Lonely Night'
p3013
ssS'7F9vK8hNFMml4GtHsaXui6'
p3014
(dp3015
g3
S'Louis Tomlinson'
p3016
sg5
I12
sg6
S'https://open.spotify.com/track/7F9vK8hNFMml4GtHsaXui6'
p3017
sg8
S'Back to You (feat. Bebe Rexha & Digital Farm Animals)'
p3018
ssS'2nYwV62UABTH0NanrwVIdQ'
p3019
(dp3020
g3
S'Rae Sremmurd'
p3021
sg5
I10
sg6
S'https://open.spotify.com/track/2nYwV62UABTH0NanrwVIdQ'
p3022
sg8
S'Perplexing Pegasus'
p3023
ssS'0B48113ZG9UfkWWt7qD9xX'
p3024
(dp3025
g3
S'Miley Cyrus'
p3026
sg5
I4
sg6
S'https://open.spotify.com/track/0B48113ZG9UfkWWt7qD9xX'
p3027
sg8
S'Younger Now'
p3028
ssS'2EEeOnHehOozLq4aS0n6SL'
p3029
(dp3030
g3
S'KYLE'
p3031
sg5
I42
sg6
S'https://open.spotify.com/track/2EEeOnHehOozLq4aS0n6SL'
p3032
sg8
S'iSpy (feat. Lil Yachty)'
p3033
ssS'3B54sVLJ402zGa6Xm4YGNe'
p3034
(dp3035
g3
S'French Montana'
p3036
sg5
I14
sg6
S'https://open.spotify.com/track/3B54sVLJ402zGa6Xm4YGNe'
p3037
sg8
S'Unforgettable'
p3038
ssS'4mU5iXHeLgbR94siF7p1sY'
p3039
(dp3040
g3
S'The Weeknd'
p3041
sg5
I12
sg6
S'https://open.spotify.com/track/4mU5iXHeLgbR94siF7p1sY'
p3042
sg8
S'Six Feet Under'
p3043
ssS'7F1LWA9sIlTorHUo4amGqk'
p3044
(dp3045
g3
S'The Weeknd'
p3046
sg5
I7
sg6
S'https://open.spotify.com/track/7F1LWA9sIlTorHUo4amGqk'
p3047
sg8
S'Reminder - Remix'
p3048
ssS'6gpcs5eMhJwax4mIfKDYQk'
p3049
(dp3050
g3
S'Calvin Harris'
p3051
sg5
I4
sg6
S'https://open.spotify.com/track/6gpcs5eMhJwax4mIfKDYQk'
p3052
sg8
S'Slide'
p3053
ssS'5bcTCxgc7xVfSaMV3RuVke'
p3054
(dp3055
g3
S'Calvin Harris'
p3056
sg5
I16
sg6
S'https://open.spotify.com/track/5bcTCxgc7xVfSaMV3RuVke'
p3057
sg8
S'Feels'
p3058
ssS'0QsvXIfqM0zZoerQfsI9lm'
p3059
(dp3060
g3
S'The Chainsmokers'
p3061
sg5
I38
sg6
S'https://open.spotify.com/track/0QsvXIfqM0zZoerQfsI9lm'
p3062
sg8
S"Don't Let Me Down"
p3063
ssS'7cGFbx7MP0H23iHZTZpqMM'
p3064
(dp3065
g3
S'Logic'
p3066
sg5
I15
sg6
S'https://open.spotify.com/track/7cGFbx7MP0H23iHZTZpqMM'
p3067
sg8
S'Everybody'
p3068
ssS'4qqArAiTPueDxIp7cf87h7'
p3069
(dp3070
g3
S'M\xc3\x98'
p3071
sg5
I1
sg6
S'https://open.spotify.com/track/4qqArAiTPueDxIp7cf87h7'
p3072
sg8
S'Final Song'
p3073
ssS'5hslUAKq9I9CG2bAulFkHN'
p3074
(dp3075
g3
S'Andy Williams'
p3076
sg5
I1
sg6
S'https://open.spotify.com/track/5hslUAKq9I9CG2bAulFkHN'
p3077
sg8
S"It's the Most Wonderful Time of the Year"
p3078
ssS'2nLtzopw4rPReszdYBJU6h'
p3079
(dp3080
g3
S'Linkin Park'
p3081
sg5
I3
sg6
S'https://open.spotify.com/track/2nLtzopw4rPReszdYBJU6h'
p3082
sg8
S'Numb'
p3083
ssS'4U9arGcc4ATa7shChhLQP0'
p3084
(dp3085
g3
S'Thirty Seconds To Mars'
p3086
sg5
I2
sg6
S'https://open.spotify.com/track/4U9arGcc4ATa7shChhLQP0'
p3087
sg8
S'Walk On Water'
p3088
ssS'3a1lNhkSLSkpJE4MSHpDu9'
p3089
(dp3090
g3
S'Post Malone'
p3091
sg5
I38
sg6
S'https://open.spotify.com/track/3a1lNhkSLSkpJE4MSHpDu9'
p3092
sg8
S'Congratulations'
p3093
ssS'6dxU7Xf9j2yNI7aCcT8W1g'
p3094
(dp3095
g3
S'Bryson Tiller'
p3096
sg5
I1
sg6
S'https://open.spotify.com/track/6dxU7Xf9j2yNI7aCcT8W1g'
p3097
sg8
S'Stay Blessed'
p3098
ssS'2ow0wC8bzfiI0sePbJScnL'
p3099
(dp3100
g3
S'Karl Wolf'
p3101
sg5
I1
sg6
S'https://open.spotify.com/track/2ow0wC8bzfiI0sePbJScnL'
p3102
sg8
S'Wherever You Go - Remix'
p3103
ssS'0dyiHoYbYjYaOEXLpmzQZG'
p3104
(dp3105
g3
S'Lorde'
p3106
sg5
I1
sg6
S'https://open.spotify.com/track/0dyiHoYbYjYaOEXLpmzQZG'
p3107
sg8
S'Supercut'
p3108
ssS'0OlS52TmtK2gPaEtdmr7DN'
p3109
(dp3110
g3
S'Old Dominion'
p3111
sg5
I5
sg6
S'https://open.spotify.com/track/0OlS52TmtK2gPaEtdmr7DN'
p3112
sg8
S'No Such Thing as a Broken Heart'
p3113
ssS'6yr8GiTHWvFfi4o6Q5ebdT'
p3114
(dp3115
g3
S'Eminem'
p3116
sg5
I41
sg6
S'https://open.spotify.com/track/6yr8GiTHWvFfi4o6Q5ebdT'
p3117
sg8
S"'Till I Collapse"
p3118
ssS'6WbADFqMvR8N5u0BvtsWQE'
p3119
(dp3120
g3
S'Avicii'
p3121
sg5
I9
sg6
S'https://open.spotify.com/track/6WbADFqMvR8N5u0BvtsWQE'
p3122
sg8
S'Without You (feat. Sandro Cavazza)'
p3123
ssS'2fkeWbM6iqTw7oGHTYm2lw'
p3124
(dp3125
g3
S'Drake'
p3126
sg5
I7
sg6
S'https://open.spotify.com/track/2fkeWbM6iqTw7oGHTYm2lw'
p3127
sg8
S'4422'
p3128
ssS'0ofbQMrRDsUaVKq2mGLEAb'
p3129
(dp3130
g3
S'Camila Cabello'
p3131
sg5
I10
sg6
S'https://open.spotify.com/track/0ofbQMrRDsUaVKq2mGLEAb'
p3132
sg8
S'Havana'
p3133
ssS'6I6NX6tjGsxFAsIfGzY9lJ'
p3134
(dp3135
g3
S'J. Cole'
p3136
sg5
I13
sg6
S'https://open.spotify.com/track/6I6NX6tjGsxFAsIfGzY9lJ'
p3137
sg8
S'Deja Vu'
p3138
ssS'3sdDgcU2XvO8EwkUsIe7VW'
p3139
(dp3140
g3
S'DJ Mustard'
p3141
sg5
I4
sg6
S'https://open.spotify.com/track/3sdDgcU2XvO8EwkUsIe7VW'
p3142
sg8
S'Want Her'
p3143
ssS'3eLWJ29j2FGM91T7aGlHHW'
p3144
(dp3145
g3
S'Nat King Cole'
p3146
sg5
I1
sg6
S'https://open.spotify.com/track/3eLWJ29j2FGM91T7aGlHHW'
p3147
sg8
S'Joy To The World'
p3148
ssS'6bLopGnirdrilrpdVB6Um1'
p3149
(dp3150
g3
S'Sia'
p3151
sg5
I2
sg6
S'https://open.spotify.com/track/6bLopGnirdrilrpdVB6Um1'
p3152
sg8
S'The Greatest'
p3153
ssS'7iAiOtm19uRwipMm7TH6lw'
p3154
(dp3155
g3
S'Future'
p3156
sg5
I1
sg6
S'https://open.spotify.com/track/7iAiOtm19uRwipMm7TH6lw'
p3157
sg8
S'Zoom'
p3158
ssS'2KpCpk6HjXXLb7nnXoXA5O'
p3159
(dp3160
g3
S'JAY Z'
p3161
sg5
I12
sg6
S'https://open.spotify.com/track/2KpCpk6HjXXLb7nnXoXA5O'
p3162
sg8
S'Ni**as In Paris'
p3163
ssS'7DQXiMeLqiQsy1uqHSk0xc'
p3164
(dp3165
g3
S'Shawn Hook'
p3166
sg5
I3
sg6
S'https://open.spotify.com/track/7DQXiMeLqiQsy1uqHSk0xc'
p3167
sg8
S'Reminding Me'
p3168
ssS'0OPfZM09RUjE46nIeJGCfX'
p3169
(dp3170
g3
S'NAV'
p3171
sg5
I1
sg6
S'https://open.spotify.com/track/0OPfZM09RUjE46nIeJGCfX'
p3172
sg8
S'NAV'
p3173
ssS'4WrS6vezaPwOafKJmHqMEU'
p3174
(dp3175
g3
S'Jax Jones'
p3176
sg5
I1
sg6
S'https://open.spotify.com/track/4WrS6vezaPwOafKJmHqMEU'
p3177
sg8
S"You Don't Know Me - Radio Edit"
p3178
ssS'1Sl3njkhhz8nrSPZroDQ82'
p3179
(dp3180
g3
S'Dimitri Vegas & Like Mike'
p3181
sg5
I5
sg6
S'https://open.spotify.com/track/1Sl3njkhhz8nrSPZroDQ82'
p3182
sg8
S'Complicated (feat. Kiiara)'
p3183
ssS'433P7tDcIAi6NLnf4Sh6tI'
p3184
(dp3185
g3
S'Drake'
p3186
sg5
I12
sg6
S'https://open.spotify.com/track/433P7tDcIAi6NLnf4Sh6tI'
p3187
sg8
S'Still Here'
p3188
ssS'57BrRMwf9LrcmuOsyGilwr'
p3189
(dp3190
g3
S'Linkin Park'
p3191
sg5
I1
sg6
S'https://open.spotify.com/track/57BrRMwf9LrcmuOsyGilwr'
p3192
sg8
S'Crawling'
p3193
ssS'6c7D34787LOtPm8tzhsLgH'
p3194
(dp3195
g3
S'Yo Gotti'
p3196
sg5
I13
sg6
S'https://open.spotify.com/track/6c7D34787LOtPm8tzhsLgH'
p3197
sg8
S'Rake It Up'
p3198
ssS'0afhq8XCExXpqazXczTSve'
p3199
(dp3200
g3
S'Ed Sheeran'
p3201
sg5
I32
sg6
S'https://open.spotify.com/track/0afhq8XCExXpqazXczTSve'
p3202
sg8
S'Galway Girl'
p3203
ssS'2ZE3DJuizYTad2S4CvRRhK'
p3204
(dp3205
g3
S'Lauv'
p3206
sg5
I1
sg6
S'https://open.spotify.com/track/2ZE3DJuizYTad2S4CvRRhK'
p3207
sg8
S'Easy Love'
p3208
ssS'6m9qPYXmhge2QhBLfFKnVF'
p3209
(dp3210
g3
S'Chance The Rapper'
p3211
sg5
I2
sg6
S'https://open.spotify.com/track/6m9qPYXmhge2QhBLfFKnVF'
p3212
sg8
S'Same Drugs'
p3213
ssS'1NDxZ7cFAo481dtYWdrUnR'
p3214
(dp3215
g3
S'Maggie Lindemann'
p3216
sg5
I25
sg6
S'https://open.spotify.com/track/1NDxZ7cFAo481dtYWdrUnR'
p3217
sg8
S'Pretty Girl - Cheat Codes X CADE Remix'
p3218
ssS'2aFiaMXmWsM3Vj72F9ksBl'
p3219
(dp3220
g3
S'DNCE'
p3221
sg5
I3
sg6
S'https://open.spotify.com/track/2aFiaMXmWsM3Vj72F9ksBl'
p3222
sg8
S'Cake By The Ocean'
p3223
ssS'1iDPB2WNsGEWuKycQyDGn6'
p3224
(dp3225
g3
S'Lil Pump'
p3226
sg5
I1
sg6
S'https://open.spotify.com/track/1iDPB2WNsGEWuKycQyDGn6'
p3227
sg8
S'Crazy'
p3228
ssS'152lZdxL1OR0ZMW6KquMif'
p3229
(dp3230
g3
S'Khalid'
p3231
sg5
I36
sg6
S'https://open.spotify.com/track/152lZdxL1OR0ZMW6KquMif'
p3232
sg8
S'Location'
p3233
ssS'4TZy1wLyHec06pwgFYDh1a'
p3234
(dp3235
g3
S'Shawn Mendes'
p3236
sg5
I27
sg6
S'https://open.spotify.com/track/4TZy1wLyHec06pwgFYDh1a'
p3237
sg8
S'Mercy'
p3238
ssS'2yZax79pOrYuyIFVW2cZY2'
p3239
(dp3240
g3
S'XXXTENTACION'
p3241
sg5
I3
sg6
S'https://open.spotify.com/track/2yZax79pOrYuyIFVW2cZY2'
p3242
sg8
S'Carry On'
p3243
ssS'3RXkboS74UYzN14xTqzPyY'
p3244
(dp3245
g3
g2717
sg5
I1
sg6
S'https://open.spotify.com/track/3RXkboS74UYzN14xTqzPyY'
p3246
sg8
g2717
ssS'4Q3N4Ct4zCuIHuZ65E3BD4'
p3247
(dp3248
g3
S'Kodak Black'
p3249
sg5
I34
sg6
S'https://open.spotify.com/track/4Q3N4Ct4zCuIHuZ65E3BD4'
p3250
sg8
S'Tunnel Vision'
p3251
ssS'20H2Hd5AkUcRjB4yL3UQtJ'
p3252
(dp3253
g3
S'Fifth Harmony'
p3254
sg5
I5
sg6
S'https://open.spotify.com/track/20H2Hd5AkUcRjB4yL3UQtJ'
p3255
sg8
S'Down'
p3256
ssS'1E43TJhKcM8hXgM958ROQ1'
p3257
(dp3258
g3
S'The Weeknd'
p3259
sg5
I2
sg6
S'https://open.spotify.com/track/1E43TJhKcM8hXgM958ROQ1'
p3260
sg8
S'Love To Lay'
p3261
ssS'6rcKz2VYbcaHJ0qSXucR56'
p3262
(dp3263
g3
S'Quality Control'
p3264
sg5
I2
sg6
S'https://open.spotify.com/track/6rcKz2VYbcaHJ0qSXucR56'
p3265
sg8
S'Too Hotty'
p3266
ssS'6yifEZyA5xGbQmmrmQ63Nb'
p3267
(dp3268
g3
S'Alyssa Reid'
p3269
sg5
I1
sg6
S'https://open.spotify.com/track/6yifEZyA5xGbQmmrmQ63Nb'
p3270
sg8
S'High'
p3271
ssS'1FUViuNSldssMIawrOXF2i'
p3272
(dp3273
g3
S'Bebe Rexha'
p3274
sg5
I20
sg6
S'https://open.spotify.com/track/1FUViuNSldssMIawrOXF2i'
p3275
sg8
S'I Got You'
p3276
ssS'2DQHzXM5eKjunrgtcnsefC'
p3277
(dp3278
g3
S'Julie Bergan'
p3279
sg5
I1
sg6
S'https://open.spotify.com/track/2DQHzXM5eKjunrgtcnsefC'
p3280
sg8
S'Blackout'
p3281
ssS'5XJREWO2HkuBLqKlTa0vl5'
p3282
(dp3283
g3
S'Alyssa Reid'
p3284
sg5
I3
sg6
S'https://open.spotify.com/track/5XJREWO2HkuBLqKlTa0vl5'
p3285
sg8
S'Badlands'
p3286
ssS'0dvu4Irbq0SM5BWny30rRR'
p3287
(dp3288
g3
S'G4SHI'
p3289
sg5
I7
sg6
S'https://open.spotify.com/track/0dvu4Irbq0SM5BWny30rRR'
p3290
sg8
S'Disrespectful'
p3291
ssS'5JwLhFNrXw49pn3HQqu02G'
p3292
(dp3293
g3
S'Lana Del Rey'
p3294
sg5
I1
sg6
S'https://open.spotify.com/track/5JwLhFNrXw49pn3HQqu02G'
p3295
sg8
S'Summer Bummer (feat. A$AP Rocky & Playboi Carti)'
p3296
ssS'3cNjgVBKTJ1SvKhunrCdVy'
p3297
(dp3298
g3
S'Joel Adams'
p3299
sg5
I1
sg6
S'https://open.spotify.com/track/3cNjgVBKTJ1SvKhunrCdVy'
p3300
sg8
S"Please Don't Go"
p3301
ssS'6OuV4vfyb8v3vGGGksqyKf'
p3302
(dp3303
g3
S'AJR'
p3304
sg5
I1
sg6
S'https://open.spotify.com/track/6OuV4vfyb8v3vGGGksqyKf'
p3305
sg8
S'Weak'
p3306
ssS'2of5xn0GU0TdFneR1saRLH'
p3307
(dp3308
g3
S'DJ Khaled'
p3309
sg5
I1
sg6
S'https://open.spotify.com/track/2of5xn0GU0TdFneR1saRLH'
p3310
sg8
S'To the Max'
p3311
ssS'4Zxdw0Hno7YDu0IzvY76Qo'
p3312
(dp3313
g3
S'Future'
p3314
sg5
I4
sg6
S'https://open.spotify.com/track/4Zxdw0Hno7YDu0IzvY76Qo'
p3315
sg8
S'Rent Money'
p3316
ssS'4Q4jmPHwu0wrJvqrld0FQ6'
p3317
(dp3318
g3
S'Zara Larsson'
p3319
sg5
I14
sg6
S'https://open.spotify.com/track/4Q4jmPHwu0wrJvqrld0FQ6'
p3320
sg8
S'I Would Like'
p3321
ssS'5VEuraNSVxMTzDTtrmL3lQ'
p3322
(dp3323
g3
S'Bing Crosby'
p3324
sg5
I1
sg6
S'https://open.spotify.com/track/5VEuraNSVxMTzDTtrmL3lQ'
p3325
sg8
S'Winter Wonderland'
p3326
ssS'0f3VCprEO3u4j93FtHxTbj'
p3327
(dp3328
g3
S'Adventure Club'
p3329
sg5
I1
sg6
S'https://open.spotify.com/track/0f3VCprEO3u4j93FtHxTbj'
p3330
sg8
S'Forever (feat. Ben Stevenson)'
p3331
ssS'5tRmoZRoupvMYPV1oezFrH'
p3332
(dp3333
g3
S'Lil Uzi Vert'
p3334
sg5
I6
sg6
S'https://open.spotify.com/track/5tRmoZRoupvMYPV1oezFrH'
p3335
sg8
S'X'
p3336
ssS'6KdmNK9MogmGcnO3wNZHhp'
p3337
(dp3338
g3
S'Calvin Harris'
p3339
sg5
I1
sg6
S'https://open.spotify.com/track/6KdmNK9MogmGcnO3wNZHhp'
p3340
sg8
S'Hard to Love'
p3341
ssS'7yyRTcZmCiyzzJlNzGC9Ol'
p3342
(dp3343
g3
S'DRAM'
p3344
sg5
I42
sg6
S'https://open.spotify.com/track/7yyRTcZmCiyzzJlNzGC9Ol'
p3345
sg8
S'Broccoli (feat. Lil Yachty)'
p3346
ssS'10M2Ex445zw585Ducldzkw'
p3347
(dp3348
g3
S'Brett Young'
p3349
sg5
I2
sg6
S'https://open.spotify.com/track/10M2Ex445zw585Ducldzkw'
p3350
sg8
S"In Case You Didn't Know"
p3351
ssS'2CvOqDpQIMw69cCzWqr5yr'
p3352
(dp3353
g3
S'Beyonc\xc3\xa9'
p3354
sg5
I1
sg6
S'https://open.spotify.com/track/2CvOqDpQIMw69cCzWqr5yr'
p3355
sg8
S'Halo'
p3356
ssS'30MM5jWpUmOxtTNd9Ey5LZ'
p3357
(dp3358
g3
S'Thomas Rhett'
p3359
sg5
I5
sg6
S'https://open.spotify.com/track/30MM5jWpUmOxtTNd9Ey5LZ'
p3360
sg8
S'Unforgettable'
p3361
ssS'3LRddJIw2ymm1CHIO9xlkC'
p3362
(dp3363
g3
S'French Montana'
p3364
sg5
I3
sg6
S'https://open.spotify.com/track/3LRddJIw2ymm1CHIO9xlkC'
p3365
sg8
S'Bring Dem Things'
p3366
ssS'7BKUWh5sdtdS17crohRe4L'
p3367
(dp3368
g3
S'Logic'
p3369
sg5
I3
sg6
S'https://open.spotify.com/track/7BKUWh5sdtdS17crohRe4L'
p3370
sg8
S'Black SpiderMan'
p3371
ssS'6PCUP3dWmTjcTtXY02oFdT'
p3372
(dp3373
g3
S'Ed Sheeran'
p3374
sg5
I40
sg6
S'https://open.spotify.com/track/6PCUP3dWmTjcTtXY02oFdT'
p3375
sg8
S'Castle on the Hill'
p3376
ssS'572NmogOEHowA9JdNqh036'
p3377
(dp3378
g3
S'Future'
p3379
sg5
I1
sg6
S'https://open.spotify.com/track/572NmogOEHowA9JdNqh036'
p3380
sg8
S'Might as Well'
p3381
ssS'4KvXkK07Xyxix6k4Hi60Ia'
p3382
(dp3383
g3
S'NAV'
p3384
sg5
I1
sg6
S'https://open.spotify.com/track/4KvXkK07Xyxix6k4Hi60Ia'
p3385
sg8
S'Did You See NAV?'
p3386
ssS'2LBqCSwhJGcFQeTHMVGwy3'
p3387
(dp3388
g3
S'The Weeknd'
p3389
sg5
I8
sg6
S'https://open.spotify.com/track/2LBqCSwhJGcFQeTHMVGwy3'
p3390
sg8
S'Die For You'
p3391
ssS'5LABCxgmP7DATATIJXOh6n'
p3392
(dp3393
g3
S'Harry Styles'
p3394
sg5
I1
sg6
S'https://open.spotify.com/track/5LABCxgmP7DATATIJXOh6n'
p3395
sg8
S'Ever Since New York'
p3396
ssS'5pvVAwQbuFoR7LkcicrKnk'
p3397
(dp3398
g3
S'Vice'
p3399
sg5
I9
sg6
S'https://open.spotify.com/track/5pvVAwQbuFoR7LkcicrKnk'
p3400
sg8
S'Obsession (feat. Jon Bellion)'
p3401
ssS'7yoe9vbbzakNAXwb1UaWLS'
p3402
(dp3403
g3
S'Big Sean'
p3404
sg5
I1
sg6
S'https://open.spotify.com/track/7yoe9vbbzakNAXwb1UaWLS'
p3405
sg8
S'Same Time Pt. 1'
p3406
ssS'5Y3Tj0wJhKAaPbwWxXxZGS'
p3407
(dp3408
g3
S'Lil Uzi Vert'
p3409
sg5
I1
sg6
S'https://open.spotify.com/track/5Y3Tj0wJhKAaPbwWxXxZGS'
p3410
sg8
S'Feelings Mutual'
p3411
ssS'104buTcnP2AsxqB7U1FIZ4'
p3412
(dp3413
g3
S'Linkin Park'
p3414
sg5
I6
sg6
S'https://open.spotify.com/track/104buTcnP2AsxqB7U1FIZ4'
p3415
sg8
S'Heavy (feat. Kiiara)'
p3416
ssS'43jBqV3j3Xi1g6wO0bhIMd'
p3417
(dp3418
g3
S'Sage The Gemini'
p3419
sg5
I11
sg6
S'https://open.spotify.com/track/43jBqV3j3Xi1g6wO0bhIMd'
p3420
sg8
S'Now and Later'
p3421
ssS'650OeHTLxZAQmb4aEbGmaA'
p3422
(dp3423
g3
S'Linkin Park'
p3424
sg5
I1
sg6
S'https://open.spotify.com/track/650OeHTLxZAQmb4aEbGmaA'
p3425
sg8
S'Good Goodbye (feat. Pusha T and Stormzy)'
p3426
ssS'1PSBzsahR2AKwLJgx8ehBj'
p3427
(dp3428
g3
S'Machine Gun Kelly'
p3429
sg5
I25
sg6
S'https://open.spotify.com/track/1PSBzsahR2AKwLJgx8ehBj'
p3430
sg8
S'Bad Things (with Camila Cabello)'
p3431
ssS'4KaIJ1FWXUoAAnOts1YWjD'
p3432
(dp3433
g3
S'Calvin Harris'
p3434
sg5
I2
sg6
S'https://open.spotify.com/track/4KaIJ1FWXUoAAnOts1YWjD'
p3435
sg8
S'Prayers Up'
p3436
ssS'7KOlJ92bu51cltsD9KU5I7'
p3437
(dp3438
g3
S'Migos'
p3439
sg5
I39
sg6
S'https://open.spotify.com/track/7KOlJ92bu51cltsD9KU5I7'
p3440
sg8
S'T-Shirt'
p3441
ssS'0D8ZpOXVjapLXrjz5VfZSD'
p3442
(dp3443
g3
S'Sam Smith'
p3444
sg5
I1
sg6
S'https://open.spotify.com/track/0D8ZpOXVjapLXrjz5VfZSD'
p3445
sg8
S'Pray'
p3446
ssS'59e7E2LMPZ2bhW5G6aCwX8'
p3447
(dp3448
g3
S'A$AP Mob'
p3449
sg5
I4
sg6
S'https://open.spotify.com/track/59e7E2LMPZ2bhW5G6aCwX8'
p3450
sg8
S'Crazy Brazy'
p3451
ssS'0gHcxtyWQT0HrlGxaxP1KT'
p3452
(dp3453
g3
S'NAV'
p3454
sg5
I1
sg6
S'https://open.spotify.com/track/0gHcxtyWQT0HrlGxaxP1KT'
p3455
sg8
S'Hit'
p3456
ssS'3m660poUr1chesgkkjQM7P'
p3457
(dp3458
g3
S'Demi Lovato'
p3459
sg5
I2
sg6
S'https://open.spotify.com/track/3m660poUr1chesgkkjQM7P'
p3460
sg8
S'Sorry Not Sorry'
p3461
ssS'3SGWp9fJCzgK0WcpcKSQdy'
p3462
(dp3463
g3
S'Stanaj'
p3464
sg5
I10
sg6
S'https://open.spotify.com/track/3SGWp9fJCzgK0WcpcKSQdy'
p3465
sg8
S'Romantic - NOTD Remix'
p3466
ssS'3K4HG9evC7dg3N0R9cYqk4'
p3467
(dp3468
g3
S'Linkin Park'
p3469
sg5
I1
sg6
S'https://open.spotify.com/track/3K4HG9evC7dg3N0R9cYqk4'
p3470
sg8
S'One Step Closer'
p3471
ssS'0xG0SHshCStMEyNbNC5d4k'
p3472
(dp3473
g3
S'Julia Michaels'
p3474
sg5
I9
sg6
S'https://open.spotify.com/track/0xG0SHshCStMEyNbNC5d4k'
p3475
sg8
S'Issues'
p3476
ssS'4C5ewaZ05vyXM23jFJdwd4'
p3477
(dp3478
g3
S'Halsey'
p3479
sg5
I1
sg6
S'https://open.spotify.com/track/4C5ewaZ05vyXM23jFJdwd4'
p3480
sg8
S'Strangers'
p3481
ssS'0QV16pno66L6K3fn4W13b7'
p3482
(dp3483
g3
S'Lil Uzi Vert'
p3484
sg5
I1
sg6
S'https://open.spotify.com/track/0QV16pno66L6K3fn4W13b7'
p3485
sg8
S'No Sleep Leak'
p3486
ssS'3ebXMykcMXOcLeJ9xZ17XH'
p3487
(dp3488
g3
S'Martin Garrix'
p3489
sg5
I30
sg6
S'https://open.spotify.com/track/3ebXMykcMXOcLeJ9xZ17XH'
p3490
sg8
S'Scared to Be Lonely'
p3491
ssS'6fujklziTHa8uoM5OQSfIo'
p3492
(dp3493
g3
S'Rae Sremmurd'
p3494
sg5
I34
sg6
S'https://open.spotify.com/track/6fujklziTHa8uoM5OQSfIo'
p3495
sg8
S'Black Beatles'
p3496
ssS'19WjVVgXjdKXfLXoaDPwTM'
p3497
(dp3498
g3
S'Taylor Swift'
p3499
sg5
I5
sg6
S'https://open.spotify.com/track/19WjVVgXjdKXfLXoaDPwTM'
p3500
sg8
S'...Ready For It?'
p3501
ssS'6UjfByV1lDLW0SOVQA4NAi'
p3502
(dp3503
g3
S'Drake'
p3504
sg5
I30
sg6
S'https://open.spotify.com/track/6UjfByV1lDLW0SOVQA4NAi'
p3505
sg8
S'Gyalchester'
p3506
ssS'3Te3gG6MPEDNqLGzWrjKC3'
p3507
(dp3508
g3
S'The Weeknd'
p3509
sg5
I3
sg6
S'https://open.spotify.com/track/3Te3gG6MPEDNqLGzWrjKC3'
p3510
sg8
S'Nothing Without You'
p3511
ssS'4gqMQftUs22F8pOGVn5Acr'
p3512
(dp3513
g3
S'Shawn Hook'
p3514
sg5
I21
sg6
S'https://open.spotify.com/track/4gqMQftUs22F8pOGVn5Acr'
p3515
sg8
S'Reminding Me'
p3516
ssS'3PEgB3fkiojxms35ntsTgs'
p3517
(dp3518
g3
S'Axwell /\\ Ingrosso'
p3519
sg5
I11
sg6
S'https://open.spotify.com/track/3PEgB3fkiojxms35ntsTgs'
p3520
sg8
S'More Than You Know'
p3521
ssS'6CfrYuD3YRDYdYvH9jNtXY'
p3522
(dp3523
g3
S'Drake'
p3524
sg5
I13
sg6
S'https://open.spotify.com/track/6CfrYuD3YRDYdYvH9jNtXY'
p3525
sg8
S'No Long Talk'
p3526
ssS'0wyja8xD9cNhDtfuY0dVMP'
p3527
(dp3528
g3
S'Thomas Rhett'
p3529
sg5
I1
sg6
S'https://open.spotify.com/track/0wyja8xD9cNhDtfuY0dVMP'
p3530
sg8
S'Leave Right Now'
p3531
ssS'7iDa6hUg2VgEL1o1HjmfBn'
p3532
(dp3533
g3
S'Bebe Rexha'
p3534
sg5
I5
sg6
S'https://open.spotify.com/track/7iDa6hUg2VgEL1o1HjmfBn'
p3535
sg8
S'Meant to Be (feat. Florida Georgia Line)'
p3536
ssS'2Xqd0wUttjueBfdcltADOv'
p3537
(dp3538
g3
S'G-Eazy'
p3539
sg5
I5
sg6
S'https://open.spotify.com/track/2Xqd0wUttjueBfdcltADOv'
p3540
sg8
S'No Limit'
p3541
ssS'7aiVBCp1ibIWE5GeHkbtxr'
p3542
(dp3543
g3
S'Britney Spears'
p3544
sg5
I1
sg6
S'https://open.spotify.com/track/7aiVBCp1ibIWE5GeHkbtxr'
p3545
sg8
S'My Only Wish (This Year)'
p3546
ssS'4AlrLQ2RMxOwz1gTTkb4vQ'
p3547
(dp3548
g3
S'Migos'
p3549
sg5
I1
sg6
S'https://open.spotify.com/track/4AlrLQ2RMxOwz1gTTkb4vQ'
p3550
sg8
S'Deadz (feat. 2 Chainz)'
p3551
ssS'4gmmRb6bZJffOOiww1JGTO'
p3552
(dp3553
g3
S'21 Savage'
p3554
sg5
I16
sg6
S'https://open.spotify.com/track/4gmmRb6bZJffOOiww1JGTO'
p3555
sg8
S'No Heart'
p3556
ssS'0B8B8cVRFIG1yznoQe7c9s'
p3557
(dp3558
g3
S'The Chainsmokers'
p3559
sg5
I8
sg6
S'https://open.spotify.com/track/0B8B8cVRFIG1yznoQe7c9s'
p3560
sg8
S'Setting Fires'
p3561
ssS'1mDGDb2fUmUMdqV3tb8VKQ'
p3562
(dp3563
g3
S'Halsey'
p3564
sg5
I1
sg6
S'https://open.spotify.com/track/1mDGDb2fUmUMdqV3tb8VKQ'
p3565
sg8
S'Now Or Never'
p3566
ssS'2FLhHX8HpeqO4E3GEFz85Z'
p3567
(dp3568
g3
S'Lights'
p3569
sg5
I1
sg6
S'https://open.spotify.com/track/2FLhHX8HpeqO4E3GEFz85Z'
p3570
sg8
S'Giants'
p3571
ssS'5p3NP9mQblDsVJLdfNZJ3I'
p3572
(dp3573
g3
S'Kendrick Lamar'
p3574
sg5
I5
sg6
S'https://open.spotify.com/track/5p3NP9mQblDsVJLdfNZJ3I'
p3575
sg8
S'GOD.'
p3576
ssS'7qs2GAglLWfxEfmO8u2u0A'
p3577
(dp3578
g3
S'Loote'
p3579
sg5
I12
sg6
S'https://open.spotify.com/track/7qs2GAglLWfxEfmO8u2u0A'
p3580
sg8
S'High Without Your Love'
p3581
ssS'42NpUvd0I2kdIuMXX4nobE'
p3582
(dp3583
g3
S'Nick Jonas'
p3584
sg5
I4
sg6
S'https://open.spotify.com/track/42NpUvd0I2kdIuMXX4nobE'
p3585
sg8
S'Remember I Told You'
p3586
ssS'6pDVjCUA3B1vg9waKutAsv'
p3587
(dp3588
g3
S'The Weeknd'
p3589
sg5
I4
sg6
S'https://open.spotify.com/track/6pDVjCUA3B1vg9waKutAsv'
p3590
sg8
S'Attention'
p3591
ssS'47AMYhY7w49L3rv6UZdlXV'
p3592
(dp3593
g3
S'WizKid'
p3594
sg5
I3
sg6
S'https://open.spotify.com/track/47AMYhY7w49L3rv6UZdlXV'
p3595
sg8
S'Dirty Wine'
p3596
ssS'6OZh916QF8XNunWaP97WEZ'
p3597
(dp3598
g3
S'Jonas Blue'
p3599
sg5
I7
sg6
S'https://open.spotify.com/track/6OZh916QF8XNunWaP97WEZ'
p3600
sg8
S'Fast Car'
p3601
ssS'2rizacJSyD9S1IQUxUxnsK'
p3602
(dp3603
g3
S'The Chainsmokers'
p3604
sg5
I16
sg6
S'https://open.spotify.com/track/2rizacJSyD9S1IQUxUxnsK'
p3605
sg8
S'All We Know'
p3606
ssS'72jbDTw1piOOj770jWNeaG'
p3607
(dp3608
g3
S'The Chainsmokers'
p3609
sg5
I39
sg6
S'https://open.spotify.com/track/72jbDTw1piOOj770jWNeaG'
p3610
sg8
S'Paris'
p3611
ssS'6RsWqX8zABZLhZydXxEFOm'
p3612
(dp3613
g3
S'The Weeknd'
p3614
sg5
I1
sg6
S'https://open.spotify.com/track/6RsWqX8zABZLhZydXxEFOm'
p3615
sg8
S"Can't Feel My Face"
p3616
ssS'79NlESqzFSW0hdBWgls4FX'
p3617
(dp3618
g3
S'Kesha'
p3619
sg5
I5
sg6
S'https://open.spotify.com/track/79NlESqzFSW0hdBWgls4FX'
p3620
sg8
S'Praying'
p3621
ssS'0tgVpDi06FyKpA1z0VMD4v'
p3622
(dp3623
g3
S'Ed Sheeran'
p3624
sg5
I32
sg6
S'https://open.spotify.com/track/0tgVpDi06FyKpA1z0VMD4v'
p3625
sg8
S'Perfect'
p3626
ssS'6cAKeFFYW2aClZSUyvqAEW'
p3627
(dp3628
g3
S'Isaiah'
p3629
sg5
I11
sg6
S'https://open.spotify.com/track/6cAKeFFYW2aClZSUyvqAEW'
p3630
sg8
S"It's Gotta Be You"
p3631
ssS'26hcyzSE154xMZCbFdtInA'
p3632
(dp3633
g3
S'KREAM'
p3634
sg5
I15
sg6
S'https://open.spotify.com/track/26hcyzSE154xMZCbFdtInA'
p3635
sg8
S'Taped Up Heart (feat. Clara Mae)'
p3636
ssS'0H8XeaJunhvpBdBFIYi6Sh'
p3637
(dp3638
g3
S'Post Malone'
p3639
sg5
I7
sg6
S'https://open.spotify.com/track/0H8XeaJunhvpBdBFIYi6Sh'
p3640
sg8
S'Deja Vu'
p3641
ssS'34i4yxPrHWquuR4kjiivFO'
p3642
(dp3643
g3
S'V\xc3\x89RIT\xc3\x89'
p3644
sg5
I4
sg6
S'https://open.spotify.com/track/34i4yxPrHWquuR4kjiivFO'
p3645
sg8
S'Somebody Else'
p3646
ssS'63VjkOdhReAbE8GGknijkP'
p3647
(dp3648
g3
S'Madalen Duke'
p3649
sg5
I3
sg6
S'https://open.spotify.com/track/63VjkOdhReAbE8GGknijkP'
p3650
sg8
S'Gucci Store'
p3651
ssS'7w1JDEjmXYw2DwllK1EwCg'
p3652
(dp3653
g3
S'Machine Gun Kelly'
p3654
sg5
I1
sg6
S'https://open.spotify.com/track/7w1JDEjmXYw2DwllK1EwCg'
p3655
sg8
S'Go For Broke (feat. James Arthur)'
p3656
ssS'2wDjpPW3HZdA9quPPmZAMu'
p3657
(dp3658
g3
S'Cashmere Cat'
p3659
sg5
I6
sg6
S'https://open.spotify.com/track/2wDjpPW3HZdA9quPPmZAMu'
p3660
sg8
S'Trust Nobody (feat. Selena Gomez & Tory Lanez)'
p3661
ssS'54ucfuN596MU25jQD3KjCL'
p3662
(dp3663
g3
S'Lorde'
p3664
sg5
I1
sg6
S'https://open.spotify.com/track/54ucfuN596MU25jQD3KjCL'
p3665
sg8
S'Sober II (Melodrama)'
p3666
ssS'1hvpDAxZPKjKztOc72sv06'
p3667
(dp3668
g3
S'Band Aid'
p3669
sg5
I1
sg6
S'https://open.spotify.com/track/1hvpDAxZPKjKztOc72sv06'
p3670
sg8
S"Do They Know It's Christmas? - 1984 Version"
p3671
ssS'72Q0FQQo32KJloivv5xge2'
p3672
(dp3673
g3
S'DJ Khaled'
p3674
sg5
I3
sg6
S'https://open.spotify.com/track/72Q0FQQo32KJloivv5xge2'
p3675
sg8
S"I'm the One"
p3676
ssS'1JupdHkhDzE4XtrFFe9w6o'
p3677
(dp3678
g3
S'Old Dominion'
p3679
sg5
I5
sg6
S'https://open.spotify.com/track/1JupdHkhDzE4XtrFFe9w6o'
p3680
sg8
S'No Such Thing as a Broken Heart'
p3681
ssS'0hNduWmlWmEmuwEFcYvRu1'
p3682
(dp3683
g3
S'Petit Biscuit'
p3684
sg5
I15
sg6
S'https://open.spotify.com/track/0hNduWmlWmEmuwEFcYvRu1'
p3685
sg8
S'Sunset Lover'
p3686
ssS'1x5sYLZiu9r5E43kMlt9f8'
p3687
(dp3688
g3
S'Clean Bandit'
p3689
sg5
I30
sg6
S'https://open.spotify.com/track/1x5sYLZiu9r5E43kMlt9f8'
p3690
sg8
S'Symphony (feat. Zara Larsson)'
p3691
ssS'6IeK3Ap5m3HabwJxgI6eSE'
p3692
(dp3693
g3
S'Perry Como'
p3694
sg5
I1
sg6
S'https://open.spotify.com/track/6IeK3Ap5m3HabwJxgI6eSE'
p3695
sg8
S"It's Beginning to Look a Lot Like Christmas"
p3696
ssS'5SE57ljOIUJ1ybL9U6CuBH'
p3697
(dp3698
g3
S'BTS'
p3699
sg5
I4
sg6
S'https://open.spotify.com/track/5SE57ljOIUJ1ybL9U6CuBH'
p3700
sg8
S'DNA'
p3701
ssS'1uPEDUtTJZOkj7CjGDtZGv'
p3702
(dp3703
g3
S'Bing Crosby'
p3704
sg5
I1
sg6
S'https://open.spotify.com/track/1uPEDUtTJZOkj7CjGDtZGv'
p3705
sg8
S'God Rest Ye Merry Gentlemen - Single Version'
p3706
ssS'3bVbQvGVIe4n24AzyXovXh'
p3707
(dp3708
g3
g2717
sg5
I1
sg6
S'https://open.spotify.com/track/3bVbQvGVIe4n24AzyXovXh'
p3709
sg8
g2717
ssS'2H3wWrnO758y0fPH7Ilerg'
p3710
(dp3711
g3
S'XXXTENTACION'
p3712
sg5
I3
sg6
S'https://open.spotify.com/track/2H3wWrnO758y0fPH7Ilerg'
p3713
sg8
S'Depression & Obsession'
p3714
ssS'6SwRhMLwNqEi6alNPVG00n'
p3715
(dp3716
g3
S'Kendrick Lamar'
p3717
sg5
I26
sg6
S'https://open.spotify.com/track/6SwRhMLwNqEi6alNPVG00n'
p3718
sg8
S'LOYALTY. FEAT. RIHANNA.'
p3719
ssS'2HzfRSfCogBSsgW2CckVA2'
p3720
(dp3721
g3
S'Luke Christopher'
p3722
sg5
I1
sg6
S'https://open.spotify.com/track/2HzfRSfCogBSsgW2CckVA2'
p3723
sg8
S'Lot to Learn'
p3724
ssS'439TlnnznSiBbQbgXiBqAd'
p3725
(dp3726
g3
S'Kendrick Lamar'
p3727
sg5
I3
sg6
S'https://open.spotify.com/track/439TlnnznSiBbQbgXiBqAd'
p3728
sg8
S'm.A.A.d city'
p3729
ssS'33z5crv3IO5U2BOi8xod92'
p3730
(dp3731
g3
S'Wiz Khalifa'
p3732
sg5
I2
sg6
S'https://open.spotify.com/track/33z5crv3IO5U2BOi8xod92'
p3733
sg8
S'Something New (feat. Ty Dolla $ign)'
p3734
ssS'0tKcYR2II1VCQWT79i5NrW'
p3735
(dp3736
g3
S'Imagine Dragons'
p3737
sg5
I21
sg6
S'https://open.spotify.com/track/0tKcYR2II1VCQWT79i5NrW'
p3738
sg8
S'Thunder'
p3739
ssS'31mqc7EKPsJf3pe6H5jEfC'
p3740
(dp3741
g3
S'Joey Bada$$'
p3742
sg5
I2
sg6
S'https://open.spotify.com/track/31mqc7EKPsJf3pe6H5jEfC'
p3743
sg8
S'ROCKABYE BABY (feat. ScHoolboy Q)'
p3744
ssS'4r4PJQBHAE0bIKCjunhTgd'
p3745
(dp3746
g3
S'2 Chainz'
p3747
sg5
I1
sg6
S'https://open.spotify.com/track/4r4PJQBHAE0bIKCjunhTgd'
p3748
sg8
S'4 AM'
p3749
ssS'6DNtNfH8hXkqOX1sjqmI7p'
p3750
(dp3751
g3
S'Major Lazer'
p3752
sg5
I35
sg6
S'https://open.spotify.com/track/6DNtNfH8hXkqOX1sjqmI7p'
p3753
sg8
S'Cold Water (feat. Justin Bieber & M\xc3\x98)'
p3754
ssS'5NNlUMcOEOdoOIwwaWXv0k'
p3755
(dp3756
g3
S'Maroon 5'
p3757
sg5
I20
sg6
S'https://open.spotify.com/track/5NNlUMcOEOdoOIwwaWXv0k'
p3758
sg8
S'Cold'
p3759
ssS'3t0J8vI9StQD8KIBkT2Cp5'
p3760
(dp3761
g3
S'Alan Walker'
p3762
sg5
I3
sg6
S'https://open.spotify.com/track/3t0J8vI9StQD8KIBkT2Cp5'
p3763
sg8
S'Tired - Kygo Remix'
p3764
ssS'1sXUWdKx03aP9Gmzft58rt'
p3765
(dp3766
g3
S'Julia Michaels'
p3767
sg5
I28
sg6
S'https://open.spotify.com/track/1sXUWdKx03aP9Gmzft58rt'
p3768
sg8
S'Issues'
p3769
ssS'32zhF8yXc1lej5EcudJXp7'
p3770
(dp3771
g3
S'Lil Pump'
p3772
sg5
I1
sg6
S'https://open.spotify.com/track/32zhF8yXc1lej5EcudJXp7'
p3773
sg8
S'Back (feat. Lil Yachty)'
p3774
ssS'3QiAAp20rPC3dcAtKtMaqQ'
p3775
(dp3776
g3
S'Elvis Presley'
p3777
sg5
I1
sg6
S'https://open.spotify.com/track/3QiAAp20rPC3dcAtKtMaqQ'
p3778
sg8
S'Blue Christmas'
p3779
ssS'5hx4FpDZOnDVYlyoG3rMks'
p3780
(dp3781
g3
S'Lil Yachty'
p3782
sg5
I5
sg6
S'https://open.spotify.com/track/5hx4FpDZOnDVYlyoG3rMks'
p3783
sg8
S'Peek A Boo'
p3784
ssS'1zayuwd1YLZsYDArkruHdL'
p3785
(dp3786
g3
S'Kendrick Lamar'
p3787
sg5
I4
sg6
S'https://open.spotify.com/track/1zayuwd1YLZsYDArkruHdL'
p3788
sg8
S'The Heart Part 4'
p3789
ssS'4L7Y2OAPiY2I2GndZjAs5K'
p3790
(dp3791
g3
S'Lana Del Rey'
p3792
sg5
I1
sg6
S'https://open.spotify.com/track/4L7Y2OAPiY2I2GndZjAs5K'
p3793
sg8
S'Lust For Life (with The Weeknd)'
p3794
ssS'14oOKFGuXu8DqvOe1W8vao'
p3795
(dp3796
g3
S'Katy Perry'
p3797
sg5
I2
sg6
S'https://open.spotify.com/track/14oOKFGuXu8DqvOe1W8vao'
p3798
sg8
S'Bon App\xc3\xa9tit'
p3799
ssS'4BHSjbYylfOH5WAGusDyni'
p3800
(dp3801
g3
S'Kendrick Lamar'
p3802
sg5
I6
sg6
S'https://open.spotify.com/track/4BHSjbYylfOH5WAGusDyni'
p3803
sg8
S'YAH.'
p3804
ssS'6WhzFzROw3aq3rPWjgYlxr'
p3805
(dp3806
g3
S'Kiiara'
p3807
sg5
I12
sg6
S'https://open.spotify.com/track/6WhzFzROw3aq3rPWjgYlxr'
p3808
sg8
S'Gold'
p3809
ssS'2ISl1zekPsc26sUQpVt8UB'
p3810
(dp3811
g3
S"Shakin' Stevens"
p3812
sg5
I1
sg6
S'https://open.spotify.com/track/2ISl1zekPsc26sUQpVt8UB'
p3813
sg8
S'Merry Christmas Everyone - Remastered'
p3814
ssS'2pJZ1v8HezrAoZ0Fhzby92'
p3815
(dp3816
g3
S'Ed Sheeran'
p3817
sg5
I8
sg6
S'https://open.spotify.com/track/2pJZ1v8HezrAoZ0Fhzby92'
p3818
sg8
S'What Do I Know?'
p3819
ssS'0KKkJNfGyhkQ5aFogxQAPU'
p3820
(dp3821
g3
S'Bruno Mars'
p3822
sg5
I42
sg6
S'https://open.spotify.com/track/0KKkJNfGyhkQ5aFogxQAPU'
p3823
sg8
S"That's What I Like"
p3824
ssS'1Slwb6dOYkBlWal1PGtnNg'
p3825
(dp3826
g3
S'Ed Sheeran'
p3827
sg5
I31
sg6
S'https://open.spotify.com/track/1Slwb6dOYkBlWal1PGtnNg'
p3828
sg8
S'Thinking Out Loud'
p3829
ssS'2mNbgyi0gori4b1rFSPgIb'
p3830
(dp3831
g3
S'Lorde'
p3832
sg5
I1
sg6
S'https://open.spotify.com/track/2mNbgyi0gori4b1rFSPgIb'
p3833
sg8
S'Sober'
p3834
ssS'3zoYkqS4y2BsGVShPL2nTE'
p3835
(dp3836
g3
S'CNCO'
p3837
sg5
I7
sg6
S'https://open.spotify.com/track/3zoYkqS4y2BsGVShPL2nTE'
p3838
sg8
S'Reggaet\xc3\xb3n Lento (Remix) [CNCO & Little Mix]'
p3839
ssS'1u0MOgWF1bbylVxpJG2ZjB'
p3840
(dp3841
g3
S'Big Sean'
p3842
sg5
I2
sg6
S'https://open.spotify.com/track/1u0MOgWF1bbylVxpJG2ZjB'
p3843
sg8
S'Owe Me'
p3844
ssS'4IdAIZRVkwuQQnHpi529cn'
p3845
(dp3846
g3
S'Bryson Tiller'
p3847
sg5
I1
sg6
S'https://open.spotify.com/track/4IdAIZRVkwuQQnHpi529cn'
p3848
sg8
S'No Longer Friends'
p3849
ssS'2habSXqcJGExM6JJyskY7O'
p3850
(dp3851
g3
S'Miley Cyrus'
p3852
sg5
I20
sg6
S'https://open.spotify.com/track/2habSXqcJGExM6JJyskY7O'
p3853
sg8
S'Malibu'
p3854
ssS'5Ua3GXyHwiSfpNTMjq6m2z'
p3855
(dp3856
g3
S'Little Mix'
p3857
sg5
I13
sg6
S'https://open.spotify.com/track/5Ua3GXyHwiSfpNTMjq6m2z'
p3858
sg8
S'Touch'
p3859
ssS'6i0V12jOa3mr6uu4WYhUBr'
p3860
(dp3861
g3
S'Twenty One Pilots'
p3862
sg5
I28
sg6
S'https://open.spotify.com/track/6i0V12jOa3mr6uu4WYhUBr'
p3863
sg8
S'Heathens'
p3864
ssS'1p5B1jJk75RAblZCTnzUTU'
p3865
(dp3866
g3
S'2 Chainz'
p3867
sg5
I2
sg6
S'https://open.spotify.com/track/1p5B1jJk75RAblZCTnzUTU'
p3868
sg8
S"It's A Vibe"
p3869
ssS'1louJpMmzEicAn7lzDalPW'
p3870
(dp3871
g3
S'Cheat Codes'
p3872
sg5
I28
sg6
S'https://open.spotify.com/track/1louJpMmzEicAn7lzDalPW'
p3873
sg8
S'No Promises (feat. Demi Lovato)'
p3874
ssS'40UroIGvsMPLPBYwH8rMNA'
p3875
(dp3876
g3
S'Vice'
p3877
sg5
I14
sg6
S'https://open.spotify.com/track/40UroIGvsMPLPBYwH8rMNA'
p3878
sg8
S'Steady 1234 (feat. Jasmine Thompson & Skizzy Mars)'
p3879
ssS'0BU7nIcCZxYSE0hYcc5oZz'
p3880
(dp3881
g3
S'Kodak Black'
p3882
sg5
I33
sg6
S'https://open.spotify.com/track/0BU7nIcCZxYSE0hYcc5oZz'
p3883
sg8
S'Too Many Years'
p3884
ssS'0SuG9kyzGRpDqrCWtgD6Lq'
p3885
(dp3886
g3
S'Ed Sheeran'
p3887
sg5
I1
sg6
S'https://open.spotify.com/track/0SuG9kyzGRpDqrCWtgD6Lq'
p3888
sg8
S'Give Me Love'
p3889
ssS'12o6dxWGk29uIAP3OWY0pM'
p3890
(dp3891
g3
S'Lorde'
p3892
sg5
I5
sg6
S'https://open.spotify.com/track/12o6dxWGk29uIAP3OWY0pM'
p3893
sg8
S'Homemade Dynamite'
p3894
ssS'7wiESxCGoUkRdgZF2JOLZu'
p3895
(dp3896
g3
S'Phil Spector'
p3897
sg5
I1
sg6
S'https://open.spotify.com/track/7wiESxCGoUkRdgZF2JOLZu'
p3898
sg8
S'Sleigh Ride'
p3899
ssS'6fxVffaTuwjgEk5h9QyRjy'
p3900
(dp3901
g3
S'Ed Sheeran'
p3902
sg5
I36
sg6
S'https://open.spotify.com/track/6fxVffaTuwjgEk5h9QyRjy'
p3903
sg8
S'Photograph'
p3904
ssS'0w5Bdu51Ka25Pf3hojsKHh'
p3905
(dp3906
g3
S'Paramore'
p3907
sg5
I1
sg6
S'https://open.spotify.com/track/0w5Bdu51Ka25Pf3hojsKHh'
p3908
sg8
S'Hard Times'
p3909
ssS'1tp1xMJ1uaOktksskS0Fzs'
p3910
(dp3911
g3
S'Gucci Mane'
p3912
sg5
I4
sg6
S'https://open.spotify.com/track/1tp1xMJ1uaOktksskS0Fzs'
p3913
sg8
S'Curve (feat. The Weeknd)'
p3914
ssS'0qYTZCo5Bwh1nsUFGZP3zn'
p3915
(dp3916
g3
S'Maluma'
p3917
sg5
I17
sg6
S'https://open.spotify.com/track/0qYTZCo5Bwh1nsUFGZP3zn'
p3918
sg8
S'Felices los 4'
p3919
ssS'1VdZ0vKfR5jneCmWIUAMxK'
p3920
(dp3921
g3
S'Ed Sheeran'
p3922
sg5
I1
sg6
S'https://open.spotify.com/track/1VdZ0vKfR5jneCmWIUAMxK'
p3923
sg8
S'The A Team'
p3924
ssS'1rBI8NN1afzViJMGgTc2AG'
p3925
(dp3926
g3
S'Christian Hudson'
p3927
sg5
I2
sg6
S'https://open.spotify.com/track/1rBI8NN1afzViJMGgTc2AG'
p3928
sg8
S'Four Leaf Clover - Klowds Remix'
p3929
ssS'6nxQdXa1uAL0rY72wPZu89'
p3930
(dp3931
g3
S'John Legend'
p3932
sg5
I15
sg6
S'https://open.spotify.com/track/6nxQdXa1uAL0rY72wPZu89'
p3933
sg8
S'Love Me Now'
p3934
ssS'65kp3OFn7JXbCvkm3m2Ui2'
p3935
(dp3936
g3
S'Lil Uzi Vert'
p3937
sg5
I1
sg6
S'https://open.spotify.com/track/65kp3OFn7JXbCvkm3m2Ui2'
p3938
sg8
S'Two\xc2\xae'
p3939
ssS'6kex4EBAj0WHXDKZMEJaaF'
p3940
(dp3941
g3
S'Jason Derulo'
p3942
sg5
I33
sg6
S'https://open.spotify.com/track/6kex4EBAj0WHXDKZMEJaaF'
p3943
sg8
S'Swalla (feat. Nicki Minaj & Ty Dolla $ign)'
p3944
ssS'10I3CmmwT0BkOVhduDy53o'
p3945
(dp3946
g3
S'Kevin Gates'
p3947
sg5
I6
sg6
S'https://open.spotify.com/track/10I3CmmwT0BkOVhduDy53o'
p3948
sg8
S'Really Really'
p3949
ssS'2jfCy43LsFbCQoB6HyetlY'
p3950
(dp3951
g3
S'SJUR'
p3952
sg5
I22
sg6
S'https://open.spotify.com/track/2jfCy43LsFbCQoB6HyetlY'
p3953
sg8
S'Let Me Love You'
p3954
ssS'54LGxQGf5LPXNGjtzDZ5IE'
p3955
(dp3956
g3
S'Zara Larsson'
p3957
sg5
I1
sg6
S'https://open.spotify.com/track/54LGxQGf5LPXNGjtzDZ5IE'
p3958
sg8
S'So Good'
p3959
ssS'08WPvDEsHvTFuB9w8tC2OS'
p3960
(dp3961
g3
S'Sage The Gemini'
p3962
sg5
I1
sg6
S'https://open.spotify.com/track/08WPvDEsHvTFuB9w8tC2OS'
p3963
sg8
S'Now and Later'
p3964
ssS'4ZJPwET9Jrgpkqi4Vo3Yg8'
p3965
(dp3966
g3
S'Bebe Rexha'
p3967
sg5
I7
sg6
S'https://open.spotify.com/track/4ZJPwET9Jrgpkqi4Vo3Yg8'
p3968
sg8
S'Bad Bitch (feat. Ty Dolla $ign)'
p3969
ssS'5wIeuNURiubue1VTcglU57'
p3970
(dp3971
g3
S'Kesha'
p3972
sg5
I1
sg6
S'https://open.spotify.com/track/5wIeuNURiubue1VTcglU57'
p3973
sg8
S'Woman'
p3974
ssS'27GmP9AWRs744SzKcpJsTZ'
p3975
(dp3976
g3
S'Drake'
p3977
sg5
I15
sg6
S'https://open.spotify.com/track/27GmP9AWRs744SzKcpJsTZ'
p3978
sg8
S'Jumpman'
p3979
ssS'1Dp7JGFNjvg8Nk0CtMCcnr'
p3980
(dp3981
g3
S'Lorde'
p3982
sg5
I1
sg6
S'https://open.spotify.com/track/1Dp7JGFNjvg8Nk0CtMCcnr'
p3983
sg8
S'Hard Feelings/Loveless'
p3984
ssS'0Fv5N0cHBsl4bzCbollCAS'
p3985
(dp3986
g3
S'Big Sean'
p3987
sg5
I21
sg6
S'https://open.spotify.com/track/0Fv5N0cHBsl4bzCbollCAS'
p3988
sg8
S'Moves'
p3989
ssS'7KXjTSCq5nL1LoYtL7XAwS'
p3990
(dp3991
g3
S'Kendrick Lamar'
p3992
sg5
I28
sg6
S'https://open.spotify.com/track/7KXjTSCq5nL1LoYtL7XAwS'
p3993
sg8
S'HUMBLE.'
p3994
ssS'6tjituizSxwSmBB5vtgHZE'
p3995
(dp3996
g3
S'Michael Bubl\xc3\xa9'
p3997
sg5
I1
sg6
S'https://open.spotify.com/track/6tjituizSxwSmBB5vtgHZE'
p3998
sg8
S'Holly Jolly Christmas'
p3999
ssS'2Ae5awwKvQpTBKQHr1TYCg'
p4000
(dp4001
g3
S'Nause'
p4002
sg5
I12
sg6
S'https://open.spotify.com/track/2Ae5awwKvQpTBKQHr1TYCg'
p4003
sg8
S'Dynamite (feat. Pretty Sister)'
p4004
ssS'43hDboyy6vJ6z2Jx5sHnCF'
p4005
(dp4006
g3
S'Cashmere Cat'
p4007
sg5
I1
sg6
S'https://open.spotify.com/track/43hDboyy6vJ6z2Jx5sHnCF'
p4008
sg8
S'Love Incredible (feat. Camila Cabello)'
p4009
ssS'1xpXnpIpuvzpx9jz15baJF'
p4010
(dp4011
g3
S'NAV'
p4012
sg5
I8
sg6
S'https://open.spotify.com/track/1xpXnpIpuvzpx9jz15baJF'
p4013
sg8
S'Call Me'
p4014
ssS'1KZ0Xo6Mmeprp1Sw5xCHYz'
p4015
(dp4016
g3
S'Rick Ross'
p4017
sg5
I1
sg6
S'https://open.spotify.com/track/1KZ0Xo6Mmeprp1Sw5xCHYz'
p4018
sg8
S'Trap Trap Trap'
p4019
ssS'7lsYGc5H5DHktxO7gbB8bN'
p4020
(dp4021
g3
S'The Weeknd'
p4022
sg5
I4
sg6
S'https://open.spotify.com/track/7lsYGc5H5DHktxO7gbB8bN'
p4023
sg8
S'Ordinary Life'
p4024
ssS'11HOTp4KdeOwmn7Ew0GSIs'
p4025
(dp4026
g3
S'NAV'
p4027
sg5
I1
sg6
S'https://open.spotify.com/track/11HOTp4KdeOwmn7Ew0GSIs'
p4028
sg8
S'Lonely'
p4029
ssS'6Na5uKk5SsqZimk0hAWo8y'
p4030
(dp4031
g3
S'Drake'
p4032
sg5
I2
sg6
S'https://open.spotify.com/track/6Na5uKk5SsqZimk0hAWo8y'
p4033
sg8
S'Signs'
p4034
ssS'4gavOCQdZ2g86gkvi17FM7'
p4035
(dp4036
g3
S'Paul McCartney'
p4037
sg5
I1
sg6
S'https://open.spotify.com/track/4gavOCQdZ2g86gkvi17FM7'
p4038
sg8
S'Wonderful Christmastime - Remastered 2011 / Edited Version'
p4039
ssS'74ODGXs4byLTRdnKGM4s6E'
p4040
(dp4041
g3
S'LANY'
p4042
sg5
I9
sg6
S'https://open.spotify.com/track/74ODGXs4byLTRdnKGM4s6E'
p4043
sg8
S'Super Far'
p4044
ssS'7uoMPWQIGU8wwrPrc94x1m'
p4045
(dp4046
g3
S'A Boogie Wit da Hoodie'
p4047
sg5
I2
sg6
S'https://open.spotify.com/track/7uoMPWQIGU8wwrPrc94x1m'
p4048
sg8
S'Beast Mode (feat. PnB Rock & YoungBoy Never Broke Again)'
p4049
ssS'0n2bvWvMwr0gbjcuTm92eW'
p4050
(dp4051
g3
S'Lana Del Rey'
p4052
sg5
I4
sg6
S'https://open.spotify.com/track/0n2bvWvMwr0gbjcuTm92eW'
p4053
sg8
S'Love'
p4054
ssS'2nUJvBO87SkxCViQsLc9Zr'
p4055
(dp4056
g3
S'Big Shaq'
p4057
sg5
I1
sg6
S'https://open.spotify.com/track/2nUJvBO87SkxCViQsLc9Zr'
p4058
sg8
S"Man's Not Hot"
p4059
ssS'4LSkEJ5P5MV0y3PZqw7guJ'
p4060
(dp4061
g3
S'Cheat Codes'
p4062
sg5
I3
sg6
S'https://open.spotify.com/track/4LSkEJ5P5MV0y3PZqw7guJ'
p4063
sg8
S'Sober'
p4064
ssS'7JYsArznYOjX2jsrT3UEnL'
p4065
(dp4066
g3
S'Young M.A'
p4067
sg5
I11
sg6
S'https://open.spotify.com/track/7JYsArznYOjX2jsrT3UEnL'
p4068
sg8
S'OOOUUU'
p4069
ssS'3SAnARTfPnAP01H0SUJ5E0'
p4070
(dp4071
g3
S'SJUR'
p4072
sg5
I1
sg6
S'https://open.spotify.com/track/3SAnARTfPnAP01H0SUJ5E0'
p4073
sg8
S'What Do I Do'
p4074
ssS'4kfm1uI9QGaoN9qm6CkAMn'
p4075
(dp4076
g3
S'Linkin Park'
p4077
sg5
I1
sg6
S'https://open.spotify.com/track/4kfm1uI9QGaoN9qm6CkAMn'
p4078
sg8
S"What I've Done"
p4079
ssS'69bp2EbF7Q2rqc5N3ylezZ'
p4080
(dp4081
g3
S'Justin Bieber'
p4082
sg5
I12
sg6
S'https://open.spotify.com/track/69bp2EbF7Q2rqc5N3ylezZ'
p4083
sg8
S'Sorry'
p4084
ssS'6eL1ncVDtQHgSm3E288TS7'
p4085
(dp4086
g3
S'Vince Staples'
p4087
sg5
I1
sg6
S'https://open.spotify.com/track/6eL1ncVDtQHgSm3E288TS7'
p4088
sg8
S'Big Fish'
p4089
ssS'6eUncuJutsFi9BGO1JaBHh'
p4090
(dp4091
g3
S'Jason Derulo'
p4092
sg5
I6
sg6
S'https://open.spotify.com/track/6eUncuJutsFi9BGO1JaBHh'
p4093
sg8
S"If I'm Lucky"
p4094
ssS'2MnJoNVtf0pw7HUn3I1Tih'
p4095
(dp4096
g3
S'21 Savage'
p4097
sg5
I2
sg6
S'https://open.spotify.com/track/2MnJoNVtf0pw7HUn3I1Tih'
p4098
sg8
S'Bad Business'
p4099
ssS'2cnKEkpVUSV4wnjQiTWfH6'
p4100
(dp4101
g3
S'Wisin'
p4102
sg5
I3
sg6
S'https://open.spotify.com/track/2cnKEkpVUSV4wnjQiTWfH6'
p4103
sg8
S'Esc\xc3\xa1pate Conmigo'
p4104
ssS'2dqLk7ezV15LEJEwUmEbXB'
p4105
(dp4106
g3
S'Marian Hill'
p4107
sg5
I12
sg6
S'https://open.spotify.com/track/2dqLk7ezV15LEJEwUmEbXB'
p4108
sg8
S'Down'
p4109
ssS'4iLqG9SeJSnt0cSPICSjxv'
p4110
(dp4111
g3
S'Charlie Puth'
p4112
sg5
I25
sg6
S'https://open.spotify.com/track/4iLqG9SeJSnt0cSPICSjxv'
p4113
sg8
S'Attention'
p4114
ssS'6JyuJFedEvPmdWQW0PkbGJ'
p4115
(dp4116
g3
S'Skrillex'
p4117
sg5
I1
sg6
S'https://open.spotify.com/track/6JyuJFedEvPmdWQW0PkbGJ'
p4118
sg8
S'Purple Lamborghini (with Rick Ross)'
p4119
ssS'6RUKPb4LETWmmr3iAEQktW'
p4120
(dp4121
g3
S'The Chainsmokers'
p4122
sg5
I34
sg6
S'https://open.spotify.com/track/6RUKPb4LETWmmr3iAEQktW'
p4123
sg8
S'Something Just Like This'
p4124
ssS'7M16mAuWuFA5rC9HvkXaGx'
p4125
(dp4126
g3
S'Jax Jones'
p4127
sg5
I2
sg6
S'https://open.spotify.com/track/7M16mAuWuFA5rC9HvkXaGx'
p4128
sg8
S"You Don't Know Me - Radio Edit"
p4129
ssS'3mRcWCyteY2133a7xVMrYw'
p4130
(dp4131
g3
S'Future'
p4132
sg5
I21
sg6
S'https://open.spotify.com/track/3mRcWCyteY2133a7xVMrYw'
p4133
sg8
S'Comin Out Strong'
p4134
ssS'0VhgEqMTNZwYL1ARDLLNCX'
p4135
(dp4136
g3
S'James Arthur'
p4137
sg5
I5
sg6
S'https://open.spotify.com/track/0VhgEqMTNZwYL1ARDLLNCX'
p4138
sg8
S'Can I Be Him'
p4139
ssS'2CPqh63wRVscbceKcPxwvv'
p4140
(dp4141
g3
S'Mike Perry'
p4142
sg5
I1
sg6
S'https://open.spotify.com/track/2CPqh63wRVscbceKcPxwvv'
p4143
sg8
S'The Ocean'
p4144
ssS'5abwHwUhywLGNli5NDcEN7'
p4145
(dp4146
g3
S'Thomas Gold'
p4147
sg5
I4
sg6
S'https://open.spotify.com/track/5abwHwUhywLGNli5NDcEN7'
p4148
sg8
S'Magic'
p4149
ssS'4YkwUfWSIxdKNLDXw0caFO'
p4150
(dp4151
g3
S'Chris Brown'
p4152
sg5
I8
sg6
S'https://open.spotify.com/track/4YkwUfWSIxdKNLDXw0caFO'
p4153
sg8
S'Pills & Automobiles'
p4154
ssS'6OQea06z3cbOqYgG2O6eOZ'
p4155
(dp4156
g3
S'Logic'
p4157
sg5
I1
sg6
S'https://open.spotify.com/track/6OQea06z3cbOqYgG2O6eOZ'
p4158
sg8
S'Killing Spree'
p4159
ssS'4vv1KjUzPwrtDbozizSfQc'
p4160
(dp4161
g3
S'DJ Khaled'
p4162
sg5
I2
sg6
S'https://open.spotify.com/track/4vv1KjUzPwrtDbozizSfQc'
p4163
sg8
S"Don't Quit"
p4164
ssS'2ZdCrBA52bb4pIG3tOOZiQ'
p4165
(dp4166
g3
S'Lil Uzi Vert'
p4167
sg5
I1
sg6
S'https://open.spotify.com/track/2ZdCrBA52bb4pIG3tOOZiQ'
p4168
sg8
S'Dark Queen'
p4169
ssS'1xznGGDReH1oQq0xzbwXa3'
p4170
(dp4171
g3
S'Drake'
p4172
sg5
I42
sg6
S'https://open.spotify.com/track/1xznGGDReH1oQq0xzbwXa3'
p4173
sg8
S'One Dance'
p4174
ssS'5GXAXm5YOmYT0kL5jHvYBt'
p4175
(dp4176
g3
S'The Weeknd'
p4177
sg5
I42
sg6
S'https://open.spotify.com/track/5GXAXm5YOmYT0kL5jHvYBt'
p4178
sg8
S'I Feel It Coming'
p4179
ssS'1wZqJM5FGDEl3FjHDxDyQd'
p4180
(dp4181
g3
S'PARTYNEXTDOOR'
p4182
sg5
I13
sg6
S'https://open.spotify.com/track/1wZqJM5FGDEl3FjHDxDyQd'
p4183
sg8
S'Come and See Me (feat. Drake)'
p4184
ssS'6IZvVAP7VPPnsGX6bvgkqg'
p4185
(dp4186
g3
S'Kendrick Lamar'
p4187
sg5
I6
sg6
S'https://open.spotify.com/track/6IZvVAP7VPPnsGX6bvgkqg'
p4188
sg8
S'PRIDE.'
p4189
ssS'0lMbuWUpfTWhEmOKxppEau'
p4190
(dp4191
g3
S'Calvin Harris'
p4192
sg5
I17
sg6
S'https://open.spotify.com/track/0lMbuWUpfTWhEmOKxppEau'
p4193
sg8
S'Rollin'
p4194
ssS'508hbpTQ7wclT2JDpKBUSV'
p4195
(dp4196
g3
S'Lorde'
p4197
sg5
I1
sg6
S'https://open.spotify.com/track/508hbpTQ7wclT2JDpKBUSV'
p4198
sg8
S'Perfect Places'
p4199
ssS'0ZiRSqlSsDlY0UyDYU9CTE'
p4200
(dp4201
g3
S'Thomas Rhett'
p4202
sg5
I6
sg6
S'https://open.spotify.com/track/0ZiRSqlSsDlY0UyDYU9CTE'
p4203
sg8
S'Unforgettable'
p4204
ssS'62vpWI1CHwFy7tMIcSStl8'
p4205
(dp4206
g3
S'J. Cole'
p4207
sg5
I41
sg6
S'https://open.spotify.com/track/62vpWI1CHwFy7tMIcSStl8'
p4208
sg8
S'No Role Modelz'
p4209
ssS'4sQMalN597HdggTu196aL0'
p4210
(dp4211
g3
S'Flume'
p4212
sg5
I2
sg6
S'https://open.spotify.com/track/4sQMalN597HdggTu196aL0'
p4213
sg8
S'Say It (feat. Tove Lo)'
p4214
ssS'597IVBYr60vm0HKjgOnztJ'
p4215
(dp4216
g3
S'Carpenters'
p4217
sg5
I1
sg6
S'https://open.spotify.com/track/597IVBYr60vm0HKjgOnztJ'
p4218
sg8
S'Sleigh Ride'
p4219
ssS'4B1rpPmQXwj78wk6aIGwwU'
p4220
(dp4221
g3
S'Harry Styles'
p4222
sg5
I1
sg6
S'https://open.spotify.com/track/4B1rpPmQXwj78wk6aIGwwU'
p4223
sg8
S'Two Ghosts'
p4224
ssS'6jA8HL9i4QGzsj6fjoxp8Y'
p4225
(dp4226
g3
S'Martin Garrix'
p4227
sg5
I18
sg6
S'https://open.spotify.com/track/6jA8HL9i4QGzsj6fjoxp8Y'
p4228
sg8
S'There for You'
p4229
ssS'4Df6RCPoJkH3YotB6Tu6vy'
p4230
(dp4231
g3
S'Tritonal'
p4232
sg5
I1
sg6
S'https://open.spotify.com/track/4Df6RCPoJkH3YotB6Tu6vy'
p4233
sg8
S'Good Thing'
p4234
ssS'2QffgsYVZkvMQsZmQdgf2L'
p4235
(dp4236
g3
S'Allie X'
p4237
sg5
I2
sg6
S'https://open.spotify.com/track/2QffgsYVZkvMQsZmQdgf2L'
p4238
sg8
S'Paper Love'
p4239
ssS'1CUVN2kn7mW5FjkqXTR2W1'
p4240
(dp4241
g3
S'Jonas Blue'
p4242
sg5
I1
sg6
S'https://open.spotify.com/track/1CUVN2kn7mW5FjkqXTR2W1'
p4243
sg8
S'Perfect Strangers'
p4244
ssS'2q0VexHJirnUPnEOhr2DxK'
p4245
(dp4246
g3
S'Frank Ocean'
p4247
sg5
I2
sg6
S'https://open.spotify.com/track/2q0VexHJirnUPnEOhr2DxK'
p4248
sg8
S'Biking'
p4249
ssS'1vVNlXi8gf8tZ7OhnEs4VE'
p4250
(dp4251
g3
S'French Montana'
p4252
sg5
I12
sg6
S'https://open.spotify.com/track/1vVNlXi8gf8tZ7OhnEs4VE'
p4253
sg8
S'A Lie'
p4254
ssS'0SGkqnVQo9KPytSri1H6cF'
p4255
(dp4256
g3
S'Big Sean'
p4257
sg5
I42
sg6
S'https://open.spotify.com/track/0SGkqnVQo9KPytSri1H6cF'
p4258
sg8
S'Bounce Back'
p4259
ssS'4kbdUYBu8aRoigcOpVLMC4'
p4260
(dp4261
g3
S'Em Rossi'
p4262
sg5
I1
sg6
S'https://open.spotify.com/track/4kbdUYBu8aRoigcOpVLMC4'
p4263
sg8
S'No Easy Way (Acoustic)'
p4264
ssS'7nKBxz47S9SD79N086fuhn'
p4265
(dp4266
g3
S'Enrique Iglesias'
p4267
sg5
I16
sg6
S'https://open.spotify.com/track/7nKBxz47S9SD79N086fuhn'
p4268
sg8
S'SUBEME LA RADIO'
p4269
ssS'27SdWb2rFzO6GWiYDBTD9j'
p4270
(dp4271
g3
S'Sia'
p4272
sg5
I30
sg6
S'https://open.spotify.com/track/27SdWb2rFzO6GWiYDBTD9j'
p4273
sg8
S'Cheap Thrills'
p4274
ssS'4J2RaG4UH2HCThcqzDpeAF'
p4275
(dp4276
g3
S'Imagine Dragons'
p4277
sg5
I1
sg6
S'https://open.spotify.com/track/4J2RaG4UH2HCThcqzDpeAF'
p4278
sg8
S'Start Over'
p4279
ssS'3vgNmjuRDnGLxUFGCLkwpm'
p4280
(dp4281
g3
S'David Guetta'
p4282
sg5
I2
sg6
S'https://open.spotify.com/track/3vgNmjuRDnGLxUFGCLkwpm'
p4283
sg8
S'Light My Body Up (feat. Nicki Minaj & Lil Wayne)'
p4284
ssS'77mLzdHEWRB60CLlV02TV2'
p4285
(dp4286
g3
S'Logic'
p4287
sg5
I1
sg6
S'https://open.spotify.com/track/77mLzdHEWRB60CLlV02TV2'
p4288
sg8
S'America'
p4289
ssS'5xhJmd0I15jFcEdqxfCzKk'
p4290
(dp4291
g3
S'The Chainsmokers'
p4292
sg5
I1
sg6
S'https://open.spotify.com/track/5xhJmd0I15jFcEdqxfCzKk'
p4293
sg8
S"It Won't Kill Ya"
p4294
ssS'6PJ8FF6UR8FZXfEvpHkIVN'
p4295
(dp4296
g3
S'Ed Sheeran'
p4297
sg5
I8
sg6
S'https://open.spotify.com/track/6PJ8FF6UR8FZXfEvpHkIVN'
p4298
sg8
S'How Would You Feel (Paean)'
p4299
ssS'6foxplXS0YEq8cO374Lty4'
p4300
(dp4301
g3
S'Lil Pump'
p4302
sg5
I4
sg6
S'https://open.spotify.com/track/6foxplXS0YEq8cO374Lty4'
p4303
sg8
S'Gucci Gang'
p4304
ssS'1j4kHkkpqZRBwE0A4CN4Yv'
p4305
(dp4306
g3
S'ZAYN'
p4307
sg5
I5
sg6
S'https://open.spotify.com/track/1j4kHkkpqZRBwE0A4CN4Yv'
p4308
sg8
S'Dusk Till Dawn - Radio Edit'
p4309
ssS'3eFJqPe8VUYrABbFjSauuj'
p4310
(dp4311
g3
g2717
sg5
I1
sg6
S'https://open.spotify.com/track/3eFJqPe8VUYrABbFjSauuj'
p4312
sg8
g2717
ssS'4CHp6dRZTeFAu4bSOxfH7Y'
p4313
(dp4314
g3
S'Lil Pump'
p4315
sg5
I1
sg6
S'https://open.spotify.com/track/4CHp6dRZTeFAu4bSOxfH7Y'
p4316
sg8
S'Boss'
p4317
ssS'5ndfVSDyPq90jaIUhNPeby'
p4318
(dp4319
g3
S'Katy Perry'
p4320
sg5
I2
sg6
S'https://open.spotify.com/track/5ndfVSDyPq90jaIUhNPeby'
p4321
sg8
S'Chained To The Rhythm'
p4322
ssS'5uCax9HTNlzGybIStD3vDh'
p4323
(dp4324
g3
S'James Arthur'
p4325
sg5
I42
sg6
S'https://open.spotify.com/track/5uCax9HTNlzGybIStD3vDh'
p4326
sg8
S"Say You Won't Let Go"
p4327
ssS'7qiZfU4dY1lWllzX7mPBI3'
p4328
(dp4329
g3
S'Ed Sheeran'
p4330
sg5
I40
sg6
S'https://open.spotify.com/track/7qiZfU4dY1lWllzX7mPBI3'
p4331
sg8
S'Shape of You'
p4332
ssS'6LOCAhFzZiavHcLJucLuDy'
p4333
(dp4334
g3
S'DJ Khaled'
p4335
sg5
I1
sg6
S'https://open.spotify.com/track/6LOCAhFzZiavHcLJucLuDy'
p4336
sg8
S"Don't Quit"
p4337
ssS'0iV9yfj1knFNOSEiuTHZwl'
p4338
(dp4339
g3
S'Christina Aguilera'
p4340
sg5
I1
sg6
S'https://open.spotify.com/track/0iV9yfj1knFNOSEiuTHZwl'
p4341
sg8
S'Have Yourself a Merry Little Christmas'
p4342
ssS'5nA67Y0XX9JipZwYxX7Gl7'
p4343
(dp4344
g3
S'Niall Horan'
p4345
sg5
I16
sg6
S'https://open.spotify.com/track/5nA67Y0XX9JipZwYxX7Gl7'
p4346
sg8
S'This Town'
p4347
ssS'0wfbD5rAksdXUzRvMfM3x5'
p4348
(dp4349
g3
S'The Chainsmokers'
p4350
sg5
I10
sg6
S'https://open.spotify.com/track/0wfbD5rAksdXUzRvMfM3x5'
p4351
sg8
S'The One'
p4352
ssS'0q75NwOoFiARAVp4EXU4Bs'
p4353
(dp4354
g3
S'SZA'
p4355
sg5
I17
sg6
S'https://open.spotify.com/track/0q75NwOoFiARAVp4EXU4Bs'
p4356
sg8
S'Love Galore'
p4357
ssS'1rsAFUCa6BVMgRQ3FCQQsi'
p4358
(dp4359
g3
S'Lil Pump'
p4360
sg5
I1
sg6
S'https://open.spotify.com/track/1rsAFUCa6BVMgRQ3FCQQsi'
p4361
sg8
S'Boss'
p4362
ssS'2fQrGHiQOvpL9UgPvtYy6G'
p4363
(dp4364
g3
S'21 Savage'
p4365
sg5
I3
sg6
S'https://open.spotify.com/track/2fQrGHiQOvpL9UgPvtYy6G'
p4366
sg8
S'Bank Account'
p4367
ssS'7gAsQukM6omGxCZE1Y3iDl'
p4368
(dp4369
g3
S'Elijah Woods x Jamie Fine'
p4370
sg5
I4
sg6
S'https://open.spotify.com/track/7gAsQukM6omGxCZE1Y3iDl'
p4371
sg8
S'Catchin Feels'
p4372
ssS'2Z0q3tqlFjm0iHLW6ilGkP'
p4373
(dp4374
g3
S'Hedley'
p4375
sg5
I2
sg6
S'https://open.spotify.com/track/2Z0q3tqlFjm0iHLW6ilGkP'
p4376
sg8
S'Love Again'
p4377
ssS'56dllQaFZBw3SPTiKZvqYH'
p4378
(dp4379
g3
S'Kay Starr'
p4380
sg5
I1
sg6
S'https://open.spotify.com/track/56dllQaFZBw3SPTiKZvqYH'
p4381
sg8
S'The Man With The Bag'
p4382
ssS'6HbGKJJqQ67K2TwzOndeTj'
p4383
(dp4384
g3
S'NAV'
p4385
sg5
I1
sg6
S'https://open.spotify.com/track/6HbGKJJqQ67K2TwzOndeTj'
p4386
sg8
S"I Don't Care"
p4387
ssS'7bsnTsbiwOymZWjPF9v6Di'
p4388
(dp4389
g3
S'Macklemore'
p4390
sg5
I2
sg6
S'https://open.spotify.com/track/7bsnTsbiwOymZWjPF9v6Di'
p4391
sg8
S'Marmalade (feat. Lil Yachty)'
p4392
ssS'2eAZfqOm4EnOF9VvN50Tyc'
p4393
(dp4394
g3
S'Lil Uzi Vert'
p4395
sg5
I7
sg6
S'https://open.spotify.com/track/2eAZfqOm4EnOF9VvN50Tyc'
p4396
sg8
S'The Way Life Goes'
p4397
ssS'1F2HXIJrE2Xn81OzT2zZvW'
p4398
(dp4399
g3
S'French Montana'
p4400
sg5
I13
sg6
S'https://open.spotify.com/track/1F2HXIJrE2Xn81OzT2zZvW'
p4401
sg8
S'Unforgettable'
p4402
ssS'6QgjcU0zLnzq5OrUoSZ3OK'
p4403
(dp4404
g3
S'Portugal. The Man'
p4405
sg5
I14
sg6
S'https://open.spotify.com/track/6QgjcU0zLnzq5OrUoSZ3OK'
p4406
sg8
S'Feel It Still'
p4407
ssS'4atJ40xfasjdM9ZF3p07BV'
p4408
(dp4409
g3
S'Big Sean'
p4410
sg5
I3
sg6
S'https://open.spotify.com/track/4atJ40xfasjdM9ZF3p07BV'
p4411
sg8
S'Halfway Off The Balcony'
p4412
ssS'5VlstKgCJPHDIMCQO4jHcQ'
p4413
(dp4414
g3
S'Big Sean'
p4415
sg5
I1
sg6
S'https://open.spotify.com/track/5VlstKgCJPHDIMCQO4jHcQ'
p4416
sg8
S'Sunday Morning Jetpack'
p4417
ssS'78rIJddV4X0HkNAInEcYde'
p4418
(dp4419
g3
S'Starley'
p4420
sg5
I40
sg6
S'https://open.spotify.com/track/78rIJddV4X0HkNAInEcYde'
p4421
sg8
S'Call On Me - Ryan Riback Extended Remix'
p4422
ssS'0L7loeTIg6akW84aEQZpCT'
p4423
(dp4424
g3
S'Major Lazer'
p4425
sg5
I16
sg6
S'https://open.spotify.com/track/0L7loeTIg6akW84aEQZpCT'
p4426
sg8
S'Light It Up (feat. Nyla & Fuse ODG) - Remix'
p4427
ssS'5GG3knKdxKWrNboRijxeKF'
p4428
(dp4429
g3
S'Bryson Tiller'
p4430
sg5
I18
sg6
S'https://open.spotify.com/track/5GG3knKdxKWrNboRijxeKF'
p4431
sg8
S'Run Me Dry'
p4432
ssS'4Q5yMlwAfAoitqg4r9oZHN'
p4433
(dp4434
g3
S'Cashmere Cat'
p4435
sg5
I9
sg6
S'https://open.spotify.com/track/4Q5yMlwAfAoitqg4r9oZHN'
p4436
sg8
S'Quit (feat. Ariana Grande)'
p4437
ssS'55OdqrG8WLmsYyY1jijD9b'
p4438
(dp4439
g3
S'Young Thug'
p4440
sg5
I3
sg6
S'https://open.spotify.com/track/55OdqrG8WLmsYyY1jijD9b'
p4441
sg8
S'Wyclef Jean'
p4442
ssS'1Bqxj0aH5KewYHKUg1IdrF'
p4443
(dp4444
g3
S'G-Eazy'
p4445
sg5
I10
sg6
S'https://open.spotify.com/track/1Bqxj0aH5KewYHKUg1IdrF'
p4446
sg8
S'Some Kind Of Drug'
p4447
ssS'22BH6K8RlpwNzIINvWS4Jj'
p4448
(dp4449
g3
S'Bebe Rexha'
p4450
sg5
I6
sg6
S'https://open.spotify.com/track/22BH6K8RlpwNzIINvWS4Jj'
p4451
sg8
S'(Not) The One'
p4452
ssS'65MOTX6uSFAnqXl7dlAuId'
p4453
(dp4454
g3
S'Demi Lovato'
p4455
sg5
I5
sg6
S'https://open.spotify.com/track/65MOTX6uSFAnqXl7dlAuId'
p4456
sg8
S'Tell Me You Love Me'
p4457
ssS'5TXDeTFVRVY7Cvt0Dw4vWW'
p4458
(dp4459
g3
S'XXXTENTACION'
p4460
sg5
I7
sg6
S'https://open.spotify.com/track/5TXDeTFVRVY7Cvt0Dw4vWW'
p4461
sg8
S'Revenge'
p4462
ssS'167NczpNbRF7oWakJaY3Hh'
p4463
(dp4464
g3
S'Niall Horan'
p4465
sg5
I23
sg6
S'https://open.spotify.com/track/167NczpNbRF7oWakJaY3Hh'
p4466
sg8
S'Slow Hands'
p4467
ssS'0fH86zQcE2CmATQju6WpXv'
p4468
(dp4469
g3
S'Kris Kross Amsterdam'
p4470
sg5
I2
sg6
S'https://open.spotify.com/track/0fH86zQcE2CmATQju6WpXv'
p4471
sg8
S'Are You Sure? (feat. Ty Dolla $ign)'
p4472
ssS'0tkUg2KCEKWlcPJNcey8Nw'
p4473
(dp4474
g3
S'Charlotte Cardin'
p4475
sg5
I4
sg6
S'https://open.spotify.com/track/0tkUg2KCEKWlcPJNcey8Nw'
p4476
sg8
S'Main Girl'
p4477
ssS'0or0gNaKAXYYCsOrpvRzAu'
p4478
(dp4479
g3
S'Lorde'
p4480
sg5
I3
sg6
S'https://open.spotify.com/track/0or0gNaKAXYYCsOrpvRzAu'
p4481
sg8
S'Liability'
p4482
ssS'19a3JfW8BQwqHWUMbcqSx8'
p4483
(dp4484
g3
S'Kanye West'
p4485
sg5
I6
sg6
S'https://open.spotify.com/track/19a3JfW8BQwqHWUMbcqSx8'
p4486
sg8
S'Famous'
p4487
ssS'0XPcUR68l2ZFXXsorjnjuh'
p4488
(dp4489
g3
S'Ryan Riback'
p4490
sg5
I1
sg6
S'https://open.spotify.com/track/0XPcUR68l2ZFXXsorjnjuh'
p4491
sg8
S'One Last Time'
p4492
ssS'41xpFBBttwitDVd7rEDc2p'
p4493
(dp4494
g3
S'Jocelyn Alice'
p4495
sg5
I15
sg6
S'https://open.spotify.com/track/41xpFBBttwitDVd7rEDc2p'
p4496
sg8
S'Feels Right - Galloway Remix'
p4497
ssS'1YWd9BzGWXhFBRvDCdg1Th'
p4498
(dp4499
g3
S'Virginia To Vegas'
p4500
sg5
I10
sg6
S'https://open.spotify.com/track/1YWd9BzGWXhFBRvDCdg1Th'
p4501
sg8
S'Selfish'
p4502
ssS'6kig1UFggPUyZBCvXD3Wod'
p4503
(dp4504
g3
S'Metro Boomin'
p4505
sg5
I16
sg6
S'https://open.spotify.com/track/6kig1UFggPUyZBCvXD3Wod'
p4506
sg8
S'No Complaints'
p4507
ssS'7yHEDfrJNd0zWOfXwydNH0'
p4508
(dp4509
g3
S'Ariana Grande'
p4510
sg5
I12
sg6
S'https://open.spotify.com/track/7yHEDfrJNd0zWOfXwydNH0'
p4511
sg8
S'Into You'
p4512
ssS'7zFXmv6vqI4qOt4yGf3jYZ'
p4513
(dp4514
g3
S'Daniel Caesar'
p4515
sg5
I4
sg6
S'https://open.spotify.com/track/7zFXmv6vqI4qOt4yGf3jYZ'
p4516
sg8
S'Get You (feat. Kali Uchis)'
p4517
ssS'1lntL1cI2UIWlxjL5QiN8g'
p4518
(dp4519
g3
S'Lauv'
p4520
sg5
I16
sg6
S'https://open.spotify.com/track/1lntL1cI2UIWlxjL5QiN8g'
p4521
sg8
S'The Other'
p4522
ssS'1839RWzPRZCVgvamu4sHSN'
p4523
(dp4524
g3
S'Cash Cash'
p4525
sg5
I13
sg6
S'https://open.spotify.com/track/1839RWzPRZCVgvamu4sHSN'
p4526
sg8
S'All My Love (feat. Conor Maynard)'
p4527
ssS'77mh9ekRRedxpn25cf4p6q'
p4528
(dp4529
g3
S'PARTYNEXTDOOR'
p4530
sg5
I1
sg6
S'https://open.spotify.com/track/77mh9ekRRedxpn25cf4p6q'
p4531
sg8
S'Rendezvous'
p4532
ssS'5Db9VIdDsN5yu3Eu7CT0i4'
p4533
(dp4534
g3
S'Sam Smith'
p4535
sg5
I2
sg6
S'https://open.spotify.com/track/5Db9VIdDsN5yu3Eu7CT0i4'
p4536
sg8
S'Stay With Me'
p4537
ssS'11KJSRSgaDxqydKYiD2Jew'
p4538
(dp4539
g3
S'Drake'
p4540
sg5
I28
sg6
S'https://open.spotify.com/track/11KJSRSgaDxqydKYiD2Jew'
p4541
sg8
S'Too Good'
p4542
ssS'2ACOWPLUe4A4KuQ5ioD2od'
p4543
(dp4544
g3
S'Fifth Harmony'
p4545
sg5
I2
sg6
S'https://open.spotify.com/track/2ACOWPLUe4A4KuQ5ioD2od'
p4546
sg8
S"That's My Girl"
p4547
ssS'7pYFPMeK0TnaTGdS6qOtEr'
p4548
(dp4549
g3
S'Stargate'
p4550
sg5
I2
sg6
S'https://open.spotify.com/track/7pYFPMeK0TnaTGdS6qOtEr'
p4551
sg8
S'Waterfall'
p4552
ssS'1yNyoWWWikbLhwIGWjZuDW'
p4553
(dp4554
g3
S'The Vamps'
p4555
sg5
I19
sg6
S'https://open.spotify.com/track/1yNyoWWWikbLhwIGWjZuDW'
p4556
sg8
S'All Night'
p4557
ssS'26AuyrZGzWWiYZPSd3XBIg'
p4558
(dp4559
g3
S'The Chainsmokers'
p4560
sg5
I2
sg6
S'https://open.spotify.com/track/26AuyrZGzWWiYZPSd3XBIg'
p4561
sg8
S'Bloodstream'
p4562
ssS'5ndHl6BMrihdTqvT6Exhln'
p4563
(dp4564
g3
S'DJ Khaled'
p4565
sg5
I1
sg6
S'https://open.spotify.com/track/5ndHl6BMrihdTqvT6Exhln'
p4566
sg8
S'Major Bag Alert'
p4567
ssS'4lozYCMRLtEc46exlhoK2Q'
p4568
(dp4569
g3
S'Future'
p4570
sg5
I1
sg6
S'https://open.spotify.com/track/4lozYCMRLtEc46exlhoK2Q'
p4571
sg8
S"I'm so Groovy"
p4572
ssS'045SnNDjOfOLKM5OxARH4g'
p4573
(dp4574
g3
S'Dustin Lynch'
p4575
sg5
I2
sg6
S'https://open.spotify.com/track/045SnNDjOfOLKM5OxARH4g'
p4576
sg8
S'Small Town Boy'
p4577
ssS'3Dwq1oiOFys6Sxr5SslmXw'
p4578
(dp4579
g3
S'Harry Styles'
p4580
sg5
I2
sg6
S'https://open.spotify.com/track/3Dwq1oiOFys6Sxr5SslmXw'
p4581
sg8
S'Carolina'
p4582
ssS'1jYiIOC5d6soxkJP81fxq2'
p4583
(dp4584
g3
S'DJ Khaled'
p4585
sg5
I1
sg6
S'https://open.spotify.com/track/1jYiIOC5d6soxkJP81fxq2'
p4586
sg8
S"I'm the One"
p4587
ssS'4vb4mFvYsr2h6enhjJsq9Y'
p4588
(dp4589
g3
S'Adele'
p4590
sg5
I15
sg6
S'https://open.spotify.com/track/4vb4mFvYsr2h6enhjJsq9Y'
p4591
sg8
S'Water Under the Bridge'
p4592
ssS'6cPyTS0Kk2sc4xQwC93kOg'
p4593
(dp4594
g3
S'The Chainsmokers'
p4595
sg5
I8
sg6
S'https://open.spotify.com/track/6cPyTS0Kk2sc4xQwC93kOg'
p4596
sg8
S'Break Up Every Night'
p4597
ssS'2kVHAQKVtczchKctctzbtK'
p4598
(dp4599
g3
S'Katy Perry'
p4600
sg5
I10
sg6
S'https://open.spotify.com/track/2kVHAQKVtczchKctctzbtK'
p4601
sg8
S'Swish Swish'
p4602
ssS'17Fd6Yb7mSbinKG8LoWfFl'
p4603
(dp4604
g3
S'Mike Posner'
p4605
sg5
I35
sg6
S'https://open.spotify.com/track/17Fd6Yb7mSbinKG8LoWfFl'
p4606
sg8
S'I Took A Pill In Ibiza - Seeb Remix'
p4607
ssS'7zTx8ePYAmPFQuxP3xlXZn'
p4608
(dp4609
g3
S'San Holo'
p4610
sg5
I9
sg6
S'https://open.spotify.com/track/7zTx8ePYAmPFQuxP3xlXZn'
p4611
sg8
S'Light'
p4612
ssS'4tCtwWceOPWzenK2HAIJSb'
p4613
(dp4614
g3
S'Fifth Harmony'
p4615
sg5
I28
sg6
S'https://open.spotify.com/track/4tCtwWceOPWzenK2HAIJSb'
p4616
sg8
S'Work from Home'
p4617
ssS'28mIIBZt0jAe8k9g52NOsX'
p4618
(dp4619
g3
S'A$AP Mob'
p4620
sg5
I1
sg6
S'https://open.spotify.com/track/28mIIBZt0jAe8k9g52NOsX'
p4621
sg8
S'Feels So Good'
p4622
ssS'7mldq42yDuxiUNn08nvzHO'
p4623
(dp4624
g3
S'Sam Hunt'
p4625
sg5
I36
sg6
S'https://open.spotify.com/track/7mldq42yDuxiUNn08nvzHO'
p4626
sg8
S'Body Like A Back Road'
p4627
ssS'3hB5DgAiMAQ4DzYbsMq1IT'
p4628
(dp4629
g3
S'Justin Bieber'
p4630
sg5
I20
sg6
S'https://open.spotify.com/track/3hB5DgAiMAQ4DzYbsMq1IT'
p4631
sg8
S'Love Yourself'
p4632
ssS'1foCxQtxBweJtZmdxhEHVO'
p4633
(dp4634
g3
S'Eartha Kitt'
p4635
sg5
I1
sg6
S'https://open.spotify.com/track/1foCxQtxBweJtZmdxhEHVO'
p4636
sg8
S'Santa Baby'
p4637
ssS'32OWobmyAz8J2qA8iWekyS'
p4638
(dp4639
g3
S'Justin Bieber'
p4640
sg5
I1
sg6
S'https://open.spotify.com/track/32OWobmyAz8J2qA8iWekyS'
p4641
sg8
S'Mistletoe'
p4642
ssS'6XOYVSmNDjKUNMXooU4s4z'
p4643
(dp4644
g3
S'OneRepublic'
p4645
sg5
I16
sg6
S'https://open.spotify.com/track/6XOYVSmNDjKUNMXooU4s4z'
p4646
sg8
S'No Vacancy'
p4647
ssS'248OFOZef6ShXv6DGgbnxU'
p4648
(dp4649
g3
S'Khalid'
p4650
sg5
I3
sg6
S'https://open.spotify.com/track/248OFOZef6ShXv6DGgbnxU'
p4651
sg8
S'Saved'
p4652
ssS'204U3zjm9kkzX25Pr4Rdld'
p4653
(dp4654
g3
S'Migos'
p4655
sg5
I8
sg6
S'https://open.spotify.com/track/204U3zjm9kkzX25Pr4Rdld'
p4656
sg8
S'Kelly Price (feat. Travis Scott)'
p4657
ssS'0NZUqq4iLQddokgtiC44Kb'
p4658
(dp4659
g3
S'Future'
p4660
sg5
I3
sg6
S'https://open.spotify.com/track/0NZUqq4iLQddokgtiC44Kb'
p4661
sg8
S'PIE'
p4662
ssS'6AGON2BGdPmPMJGiiNuuwl'
p4663
(dp4664
g3
S'J. Cole'
p4665
sg5
I7
sg6
S'https://open.spotify.com/track/6AGON2BGdPmPMJGiiNuuwl'
p4666
sg8
S'Immortal'
p4667
ssS'3NJG6vMH1ZsectZkocMEm0'
p4668
(dp4669
g3
S'Desiigner'
p4670
sg5
I7
sg6
S'https://open.spotify.com/track/3NJG6vMH1ZsectZkocMEm0'
p4671
sg8
S'Tiimmy Turner'
p4672
ssS'6PGoSes0D9eUDeeAafB2As'
p4673
(dp4674
g3
S'Kendrick Lamar'
p4675
sg5
I26
sg6
S'https://open.spotify.com/track/6PGoSes0D9eUDeeAafB2As'
p4676
sg8
S'LOVE. FEAT. ZACARI.'
p4677
ssS'1lItf5ZXJc1by9SbPeljFd'
p4678
(dp4679
g3
S'Zay Hilfigerrr'
p4680
sg5
I6
sg6
S'https://open.spotify.com/track/1lItf5ZXJc1by9SbPeljFd'
p4681
sg8
S'Juju On That Beat (TZ Anthem)'
p4682
ssS'2nBI3iWLhupR7LyAJ5GGkE'
p4683
(dp4684
g3
S'Kanye West'
p4685
sg5
I15
sg6
S'https://open.spotify.com/track/2nBI3iWLhupR7LyAJ5GGkE'
p4686
sg8
S'Champions'
p4687
ss.