(dp0
S'1CKd1PnqfYx0H12V9MSaIY'
p1
(dp2
S'artistName'
p3
S'Zedd'
p4
sS'weeksOnChart'
p5
I7
sS'track_href'
p6
S'https://open.spotify.com/track/1CKd1PnqfYx0H12V9MSaIY'
p7
sS'songName'
p8
S'Get Low (with Liam Payne)'
p9
ssS'1J9E6g2RQFcEEKR3frWEES'
p10
(dp11
g3
S'Ohashi Trio'
p12
sg5
I2
sg6
S'https://open.spotify.com/track/1J9E6g2RQFcEEKR3frWEES'
p13
sg8
S'SHE'
p14
ssS'1OAh8uOEOvTDqkKFsKksCi'
p15
(dp16
g3
S'DJ Khaled'
p17
sg5
I7
sg6
S'https://open.spotify.com/track/1OAh8uOEOvTDqkKFsKksCi'
p18
sg8
S'Wild Thoughts'
p19
ssS'0jdny0dhgjUwoIp5GkqEaA'
p20
(dp21
g3
S'Kesha'
p22
sg5
I1
sg6
S'https://open.spotify.com/track/0jdny0dhgjUwoIp5GkqEaA'
p23
sg8
S'Praying'
p24
ssS'1j4kHkkpqZRBwE0A4CN4Yv'
p25
(dp26
g3
S'ZAYN'
p27
sg5
I5
sg6
S'https://open.spotify.com/track/1j4kHkkpqZRBwE0A4CN4Yv'
p28
sg8
S'Dusk Till Dawn - Radio Edit'
p29
ssS'0mel2N9Ws9r4yLQn5QE21Y'
p30
(dp31
g3
S'Sam Smith'
p32
sg5
I5
sg6
S'https://open.spotify.com/track/0mel2N9Ws9r4yLQn5QE21Y'
p33
sg8
S'Too Good At Goodbyes'
p34
ssS'3DXncPQOG4VBw3QHh3S817'
p35
(dp36
g3
S'DJ Khaled'
p37
sg5
I7
sg6
S'https://open.spotify.com/track/3DXncPQOG4VBw3QHh3S817'
p38
sg8
S"I'm the One"
p39
ssS'3Xrd2febrBti5pNuRTVmra'
p40
(dp41
g3
S'GENERATIONS from EXILE TRIBE'
p42
sg5
I7
sg6
S'https://open.spotify.com/track/3Xrd2febrBti5pNuRTVmra'
p43
sg8
S'SORA'
p44
ssS'3NdDpSvN911VPGivFlV5d0'
p45
(dp46
g3
S'ZAYN'
p47
sg5
I7
sg6
S'https://open.spotify.com/track/3NdDpSvN911VPGivFlV5d0'
p48
sg8
S'I Don\xe2\x80\x99t Wanna Live Forever (Fifty Shades Darker) - From Fifty Shades Darker (Original Motion Picture Soundtrack)'
p49
ssS'6HUnnBwYZqcED1eQztxMBN'
p50
(dp51
g3
S'Martin Jensen'
p52
sg5
I3
sg6
S'https://open.spotify.com/track/6HUnnBwYZqcED1eQztxMBN'
p53
sg8
S'Solo Dance'
p54
ssS'7bJwvubZZaoGE1AGEfu8Fi'
p55
(dp56
g3
S'Ariana Grande'
p57
sg5
I7
sg6
S'https://open.spotify.com/track/7bJwvubZZaoGE1AGEfu8Fi'
p58
sg8
S'One Last Time'
p59
ssS'0XJMS3oV6rv69jZElWweA8'
p60
(dp61
g3
S'AKLO'
p62
sg5
I5
sg6
S'https://open.spotify.com/track/0XJMS3oV6rv69jZElWweA8'
p63
sg8
S'Different Man'
p64
ssS'5eqK0tbzUPo2SoeZsov04s'
p65
(dp66
g3
S'21 Savage'
p67
sg5
I4
sg6
S'https://open.spotify.com/track/5eqK0tbzUPo2SoeZsov04s'
p68
sg8
S'Bank Account'
p69
ssS'0tgVpDi06FyKpA1z0VMD4v'
p70
(dp71
g3
S'Ed Sheeran'
p72
sg5
I7
sg6
S'https://open.spotify.com/track/0tgVpDi06FyKpA1z0VMD4v'
p73
sg8
S'Perfect'
p74
ssS'1qAPA8TooLVEqAZ58fhcrt'
p75
(dp76
g3
S'BLACKPINK'
p77
sg5
I7
sg6
S'https://open.spotify.com/track/1qAPA8TooLVEqAZ58fhcrt'
p78
sg8
S'BOOMBAYAH - KR Ver.'
p79
ssS'315z5bDr8oJ0OAxD3jQZmH'
p80
(dp81
g3
S'Motohiro Hata'
p82
sg5
I6
sg6
S'https://open.spotify.com/track/315z5bDr8oJ0OAxD3jQZmH'
p83
sg8
S'\xe3\x81\xb2\xe3\x81\xbe\xe3\x82\x8f\xe3\x82\x8a\xe3\x81\xae\xe7\xb4\x84\xe6\x9d\x9f - evergreen ver.'
p84
ssS'22HV45yz3qAOXQLGRAkHYK'
p85
(dp86
g3
S'Awich'
p87
sg5
I2
sg6
S'https://open.spotify.com/track/22HV45yz3qAOXQLGRAkHYK'
p88
sg8
S'Remember'
p89
ssS'4mxWSdf71VFO52qFeY0fZt'
p90
(dp91
g3
S'Maroon 5'
p92
sg5
I6
sg6
S'https://open.spotify.com/track/4mxWSdf71VFO52qFeY0fZt'
p93
sg8
S'What Lovers Do (feat. SZA)'
p94
ssS'7wGoVu4Dady5GV0Sv4UIsx'
p95
(dp96
g3
S'Post Malone'
p97
sg5
I1
sg6
S'https://open.spotify.com/track/7wGoVu4Dady5GV0Sv4UIsx'
p98
sg8
S'rockstar'
p99
ssS'7LJjWqhqK594nN7qJzLVXE'
p100
(dp101
g3
S'BLACKPINK'
p102
sg5
I1
sg6
S'https://open.spotify.com/track/7LJjWqhqK594nN7qJzLVXE'
p103
sg8
S"As If It's Your Last"
p104
ssS'6IcrwGdIvRsrImOnoYfG9Z'
p105
(dp106
g3
S'Wiz Khalifa'
p107
sg5
I7
sg6
S'https://open.spotify.com/track/6IcrwGdIvRsrImOnoYfG9Z'
p108
sg8
S'See You Again (feat. Charlie Puth) - From Furious 7'
p109
ssS'1839RWzPRZCVgvamu4sHSN'
p110
(dp111
g3
S'Cash Cash'
p112
sg5
I3
sg6
S'https://open.spotify.com/track/1839RWzPRZCVgvamu4sHSN'
p113
sg8
S'All My Love (feat. Conor Maynard)'
p114
ssS'6g1NlCpW7fgqDnWbCCDrHl'
p115
(dp116
g3
S'Avicii'
p117
sg5
I7
sg6
S'https://open.spotify.com/track/6g1NlCpW7fgqDnWbCCDrHl'
p118
sg8
S'Wake Me Up - Radio Edit'
p119
ssS'0K4Wg6Pwx0cOuJkN8xvuto'
p120
(dp121
g3
S'AAA'
p122
sg5
I7
sg6
S'https://open.spotify.com/track/0K4Wg6Pwx0cOuJkN8xvuto'
p123
sg8
S'MAGIC'
p124
ssS'2GJxT761mGTQocouI2oLTe'
p125
(dp126
g3
S'TWICE'
p127
sg5
I7
sg6
S'https://open.spotify.com/track/2GJxT761mGTQocouI2oLTe'
p128
sg8
S'Jelly Jelly'
p129
ssS'3BbfgC1wM6x5TRYgAVZYi0'
p130
(dp131
g3
S'TWICE'
p132
sg5
I7
sg6
S'https://open.spotify.com/track/3BbfgC1wM6x5TRYgAVZYi0'
p133
sg8
S'SIGNAL'
p134
ssS'7BqBn9nzAq8spo5e7cZ0dJ'
p135
(dp136
g3
S'Bruno Mars'
p137
sg5
I7
sg6
S'https://open.spotify.com/track/7BqBn9nzAq8spo5e7cZ0dJ'
p138
sg8
S'Just the Way You Are'
p139
ssS'6875MeXyCW0wLyT72Eetmo'
p140
(dp141
g3
S'Hailee Steinfeld'
p142
sg5
I7
sg6
S'https://open.spotify.com/track/6875MeXyCW0wLyT72Eetmo'
p143
sg8
S'Starving'
p144
ssS'33AsbevnJ1aQjEHdkMExsE'
p145
(dp146
g3
S'Beck'
p147
sg5
I1
sg6
S'https://open.spotify.com/track/33AsbevnJ1aQjEHdkMExsE'
p148
sg8
S'Dear Life'
p149
ssS'1x5sYLZiu9r5E43kMlt9f8'
p150
(dp151
g3
S'Clean Bandit'
p152
sg5
I7
sg6
S'https://open.spotify.com/track/1x5sYLZiu9r5E43kMlt9f8'
p153
sg8
S'Symphony (feat. Zara Larsson)'
p154
ssS'2rb5MvYT7ZIxbKW5hfcHx8'
p155
(dp156
g3
S'J Balvin'
p157
sg5
I7
sg6
S'https://open.spotify.com/track/2rb5MvYT7ZIxbKW5hfcHx8'
p158
sg8
S'Mi Gente'
p159
ssS'5UnRutJ5phJ9Ti4WnFgEoJ'
p160
(dp161
g3
S'TWICE'
p162
sg5
I7
sg6
S'https://open.spotify.com/track/5UnRutJ5phJ9Ti4WnFgEoJ'
p163
sg8
S'CHEER UP - Japanese ver.'
p164
ssS'7tr2za8SQg2CI8EDgrdtNl'
p165
(dp166
g3
S'Calvin Harris'
p167
sg5
I5
sg6
S'https://open.spotify.com/track/7tr2za8SQg2CI8EDgrdtNl'
p168
sg8
S'Slide'
p169
ssS'22uQDAWeupUDmr3Qit0abI'
p170
(dp171
g3
S'Ketsumeishi'
p172
sg5
I5
sg6
S'https://open.spotify.com/track/22uQDAWeupUDmr3Qit0abI'
p173
sg8
S'\xe5\xa4\x8f\xe3\x81\xae\xe6\x80\x9d\xe3\x81\x84\xe5\x87\xba'
p174
ssS'46gSY0U7ZZCmd7EuJuo15N'
p175
(dp176
g3
S'AAA'
p177
sg5
I7
sg6
S'https://open.spotify.com/track/46gSY0U7ZZCmd7EuJuo15N'
p178
sg8
S'\xe6\x81\x8b\xe9\x9f\xb3\xe3\x81\xa8\xe9\x9b\xa8\xe7\xa9\xba'
p179
ssS'7m9OqQk4RVRkw9JJdeAw96'
p180
(dp181
g3
S'XXXTENTACION'
p182
sg5
I6
sg6
S'https://open.spotify.com/track/7m9OqQk4RVRkw9JJdeAw96'
p183
sg8
S'Jocelyn Flores'
p184
ssS'7KXEhfjwdxHVra8VcT2QHH'
p185
(dp186
g3
S'BTS'
p187
sg5
I2
sg6
S'https://open.spotify.com/track/7KXEhfjwdxHVra8VcT2QHH'
p188
sg8
S'Skit: Billboard Music Awards Speech'
p189
ssS'7omUuXZu2DVHqYRUkdOENh'
p190
(dp191
g3
S'RADWIMPS'
p192
sg5
I3
sg6
S'https://open.spotify.com/track/7omUuXZu2DVHqYRUkdOENh'
p193
sg8
S'\xe5\x90\x9b\xe3\x81\xa8\xe7\xbe\x8a\xe3\x81\xa8\xe9\x9d\x92'
p194
ssS'6IghCx6jRj5VHEmXKQH2pR'
p195
(dp196
g3
S'ONE OK ROCK'
p197
sg5
I7
sg6
S'https://open.spotify.com/track/6IghCx6jRj5VHEmXKQH2pR'
p198
sg8
S'Re:make'
p199
ssS'6FZGeOJzBQ6KI8lyqaztae'
p200
(dp201
g3
S'RADWIMPS'
p202
sg5
I7
sg6
S'https://open.spotify.com/track/6FZGeOJzBQ6KI8lyqaztae'
p203
sg8
S'\xe3\x81\xb5\xe3\x81\x9f\xe3\x82\x8a\xe3\x81\x94\xe3\x81\xa8 - \xe4\xb8\x80\xe7\x94\x9f\xe3\x81\xab\xe4\xb8\x80\xe5\xba\xa6\xe3\x81\xae\xe3\x83\xaf\xe3\x83\xbc\xe3\x83\x97Ver.'
p204
ssS'3A7qX2QjDlPnazUsRk5y0M'
p205
(dp206
g3
S'David Guetta'
p207
sg5
I7
sg6
S'https://open.spotify.com/track/3A7qX2QjDlPnazUsRk5y0M'
p208
sg8
S'2U (feat. Justin Bieber)'
p209
ssS'4pLwZjInHj3SimIyN9SnOz'
p210
(dp211
g3
S'Ariana Grande'
p212
sg5
I7
sg6
S'https://open.spotify.com/track/4pLwZjInHj3SimIyN9SnOz'
p213
sg8
S'Side To Side'
p214
ssS'0Wv5wuenRLI3BcwgT3HPIP'
p215
(dp216
g3
S'DJ Snake'
p217
sg5
I3
sg6
S'https://open.spotify.com/track/0Wv5wuenRLI3BcwgT3HPIP'
p218
sg8
S'A Different Way (with Lauv)'
p219
ssS'5A4QP4EpcPxD5CapYSJfeV'
p220
(dp221
g3
S'Austin Mahone'
p222
sg5
I7
sg6
S'https://open.spotify.com/track/5A4QP4EpcPxD5CapYSJfeV'
p223
sg8
S'Dirty Work'
p224
ssS'0tKcYR2II1VCQWT79i5NrW'
p225
(dp226
g3
S'Imagine Dragons'
p227
sg5
I7
sg6
S'https://open.spotify.com/track/0tKcYR2II1VCQWT79i5NrW'
p228
sg8
S'Thunder'
p229
ssS'2Gl0FzuLxflY6nPifJp5Dr'
p230
(dp231
g3
S'Kygo'
p232
sg5
I7
sg6
S'https://open.spotify.com/track/2Gl0FzuLxflY6nPifJp5Dr'
p233
sg8
S'First Time'
p234
ssS'5w6TVvv71F8px5cObg2xnx'
p235
(dp236
g3
S'Owl City'
p237
sg5
I3
sg6
S'https://open.spotify.com/track/5w6TVvv71F8px5cObg2xnx'
p238
sg8
S'Good Time'
p239
ssS'1u8c2t2Cy7UBoG4ArRcF5g'
p240
(dp241
g3
S'Taylor Swift'
p242
sg5
I7
sg6
S'https://open.spotify.com/track/1u8c2t2Cy7UBoG4ArRcF5g'
p243
sg8
S'Blank Space'
p244
ssS'0aFUi8kAIUcLEaM6LylNui'
p245
(dp246
g3
S'SEKAI NO OWARI'
p247
sg5
I3
sg6
S'https://open.spotify.com/track/0aFUi8kAIUcLEaM6LylNui'
p248
sg8
S'RAIN'
p249
ssS'6DNtNfH8hXkqOX1sjqmI7p'
p250
(dp251
g3
S'Major Lazer'
p252
sg5
I7
sg6
S'https://open.spotify.com/track/6DNtNfH8hXkqOX1sjqmI7p'
p253
sg8
S'Cold Water (feat. Justin Bieber & M\xc3\x98)'
p254
ssS'72jbDTw1piOOj770jWNeaG'
p255
(dp256
g3
S'The Chainsmokers'
p257
sg5
I7
sg6
S'https://open.spotify.com/track/72jbDTw1piOOj770jWNeaG'
p258
sg8
S'Paris'
p259
ssS'59eluCMn0XbOWqeWQ91FTM'
p260
(dp261
g3
S'aimyon'
p262
sg5
I2
sg6
S'https://open.spotify.com/track/59eluCMn0XbOWqeWQ91FTM'
p263
sg8
S'\xe5\x90\x9b\xe3\x81\xaf\xe3\x83\xad\xe3\x83\x83\xe3\x82\xaf\xe3\x82\x92\xe8\x81\xb4\xe3\x81\x8b\xe3\x81\xaa\xe3\x81\x84'
p264
ssS'0rduVGD3WmGciFFb6sUScg'
p265
(dp266
g3
S'GReeeeN'
p267
sg5
I6
sg6
S'https://open.spotify.com/track/0rduVGD3WmGciFFb6sUScg'
p268
sg8
S'\xe3\x82\xaa\xe3\x83\xac\xe3\x83\xb3\xe3\x82\xb8'
p269
ssS'5XQMr19TL7Mfksq9zihbOu'
p270
(dp271
g3
S'Chris Brown'
p272
sg5
I7
sg6
S'https://open.spotify.com/track/5XQMr19TL7Mfksq9zihbOu'
p273
sg8
S'Questions'
p274
ssS'0albLGvYx6ftOUJ7KF0i5I'
p275
(dp276
g3
S'Suchmos'
p277
sg5
I7
sg6
S'https://open.spotify.com/track/0albLGvYx6ftOUJ7KF0i5I'
p278
sg8
S'STAY TUNE'
p279
ssS'7zgqtptZvhf8GEmdsM2vp2'
p280
(dp281
g3
S'Taylor Swift'
p282
sg5
I1
sg6
S'https://open.spotify.com/track/7zgqtptZvhf8GEmdsM2vp2'
p283
sg8
S'...Ready For It?'
p284
ssS'3EmmCZoqpWOTY1g2GBwJoR'
p285
(dp286
g3
S'Steve Aoki'
p287
sg5
I1
sg6
S'https://open.spotify.com/track/3EmmCZoqpWOTY1g2GBwJoR'
p288
sg8
S'Just Hold On'
p289
ssS'1P3cdB5wydoRlTFRz0bNLO'
p290
(dp291
g3
S'ONE OK ROCK'
p292
sg5
I5
sg6
S'https://open.spotify.com/track/1P3cdB5wydoRlTFRz0bNLO'
p293
sg8
S'Take what you want (featuring 5 Seconds of Summer)'
p294
ssS'0ijT1F143SdGb45SQB3rHk'
p295
(dp296
g3
S'Shota Shimizu'
p297
sg5
I7
sg6
S'https://open.spotify.com/track/0ijT1F143SdGb45SQB3rHk'
p298
sg8
S'Milk Tea'
p299
ssS'1louJpMmzEicAn7lzDalPW'
p300
(dp301
g3
S'Cheat Codes'
p302
sg5
I7
sg6
S'https://open.spotify.com/track/1louJpMmzEicAn7lzDalPW'
p303
sg8
S'No Promises (feat. Demi Lovato)'
p304
ssS'6IxWbmElUUj7AstEEzIgtl'
p305
(dp306
g3
S'AAA'
p307
sg5
I2
sg6
S'https://open.spotify.com/track/6IxWbmElUUj7AstEEzIgtl'
p308
sg8
S'LIFE'
p309
ssS'0KKkJNfGyhkQ5aFogxQAPU'
p310
(dp311
g3
S'Bruno Mars'
p312
sg5
I7
sg6
S'https://open.spotify.com/track/0KKkJNfGyhkQ5aFogxQAPU'
p313
sg8
S"That's What I Like"
p314
ssS'1vBVxhdaJWb1Eca4yc7K4t'
p315
(dp316
g3
S'EXILE'
p317
sg5
I5
sg6
S'https://open.spotify.com/track/1vBVxhdaJWb1Eca4yc7K4t'
p318
sg8
S'Michi'
p319
ssS'57sk9X1fPLXRfkw74XNrmK'
p320
(dp321
g3
S'ONE OK ROCK'
p322
sg5
I2
sg6
S'https://open.spotify.com/track/57sk9X1fPLXRfkw74XNrmK'
p323
sg8
S'We Are'
p324
ssS'494OU6M7NOf4ICYb4zWCf5'
p325
(dp326
g3
S'Maroon 5'
p327
sg5
I7
sg6
S'https://open.spotify.com/track/494OU6M7NOf4ICYb4zWCf5'
p328
sg8
S'Sugar'
p329
ssS'1Slwb6dOYkBlWal1PGtnNg'
p330
(dp331
g3
S'Ed Sheeran'
p332
sg5
I7
sg6
S'https://open.spotify.com/track/1Slwb6dOYkBlWal1PGtnNg'
p333
sg8
S'Thinking Out Loud'
p334
ssS'0NiXXAI876aGImAd6rTj8w'
p335
(dp336
g3
S'Jonas Blue'
p337
sg5
I7
sg6
S'https://open.spotify.com/track/0NiXXAI876aGImAd6rTj8w'
p338
sg8
S'Mama'
p339
ssS'7FJP35tUJ2121EJsFpU1Gh'
p340
(dp341
g3
S'Zedd'
p342
sg5
I7
sg6
S'https://open.spotify.com/track/7FJP35tUJ2121EJsFpU1Gh'
p343
sg8
S'Beautiful Now'
p344
ssS'2JrFLSgCKWRuLfRTwemuKU'
p345
(dp346
g3
S'UVERworld'
p347
sg5
I1
sg6
S'https://open.spotify.com/track/2JrFLSgCKWRuLfRTwemuKU'
p348
sg8
S'Ittekinoeikyou'
p349
ssS'0dA2Mk56wEzDgegdC6R17g'
p350
(dp351
g3
S'Zedd'
p352
sg5
I7
sg6
S'https://open.spotify.com/track/0dA2Mk56wEzDgegdC6R17g'
p353
sg8
S'Stay (with Alessia Cara)'
p354
ssS'3Ytr1SUCUi6J3L9dRFx5iH'
p355
(dp356
g3
S'Major Lazer'
p357
sg5
I1
sg6
S'https://open.spotify.com/track/3Ytr1SUCUi6J3L9dRFx5iH'
p358
sg8
S'Know No Better (feat. Quavo)'
p359
ssS'7mm5xLUzKCmLfgpOmo1v56'
p360
(dp361
g3
S'AAA'
p362
sg5
I2
sg6
S'https://open.spotify.com/track/7mm5xLUzKCmLfgpOmo1v56'
p363
sg8
S'WAY OF GLORY'
p364
ssS'2bnUATKYS3JykGpZjjlbXV'
p365
(dp366
g3
S'TWICE'
p367
sg5
I7
sg6
S'https://open.spotify.com/track/2bnUATKYS3JykGpZjjlbXV'
p368
sg8
S'Like OOH-AHH - Japanese ver.'
p369
ssS'0ffweDHrg4bZqdG4IfGYuo'
p370
(dp371
g3
S'BTS'
p372
sg5
I4
sg6
S'https://open.spotify.com/track/0ffweDHrg4bZqdG4IfGYuo'
p373
sg8
S'Pied Piper'
p374
ssS'3pzjHKrQSvXGHQ98dx18HI'
p375
(dp376
g3
S'Justin Bieber'
p377
sg5
I7
sg6
S'https://open.spotify.com/track/3pzjHKrQSvXGHQ98dx18HI'
p378
sg8
S'What Do You Mean?'
p379
ssS'000xQL6tZNLJzIrtIgxqSl'
p380
(dp381
g3
S'ZAYN'
p382
sg5
I7
sg6
S'https://open.spotify.com/track/000xQL6tZNLJzIrtIgxqSl'
p383
sg8
S'Still Got Time'
p384
ssS'26b8AQqACTxOEWpEejMPLY'
p385
(dp386
g3
S'Miliyah'
p387
sg5
I5
sg6
S'https://open.spotify.com/track/26b8AQqACTxOEWpEejMPLY'
p388
sg8
S'Aitai'
p389
ssS'7nZmah2llfvLDiUjm0kiyz'
p390
(dp391
g3
S'Justin Bieber'
p392
sg5
I7
sg6
S'https://open.spotify.com/track/7nZmah2llfvLDiUjm0kiyz'
p393
sg8
S'Friends (with BloodPop\xc2\xae)'
p394
ssS'7iV733e1KacKrFRaBNxVEf'
p395
(dp396
g3
S'BTS'
p397
sg5
I3
sg6
S'https://open.spotify.com/track/7iV733e1KacKrFRaBNxVEf'
p398
sg8
S'Intro: Serendipity'
p399
ssS'3zielyGhYKYzWSdzSxfYoO'
p400
(dp401
g3
S'Shota Shimizu'
p402
sg5
I3
sg6
S'https://open.spotify.com/track/3zielyGhYKYzWSdzSxfYoO'
p403
sg8
S'Damage'
p404
ssS'693iqPOQvhI7PobtR8CC8v'
p405
(dp406
g3
S'J Balvin'
p407
sg5
I5
sg6
S'https://open.spotify.com/track/693iqPOQvhI7PobtR8CC8v'
p408
sg8
S'Bonita'
p409
ssS'43ZyHQITOjhciSUUNPVRHc'
p410
(dp411
g3
S'Lil Pump'
p412
sg5
I1
sg6
S'https://open.spotify.com/track/43ZyHQITOjhciSUUNPVRHc'
p413
sg8
S'Gucci Gang'
p414
ssS'0KMw8ZsfzGtWn7WEwgvMmo'
p415
(dp416
g3
S'AAA'
p417
sg5
I5
sg6
S'https://open.spotify.com/track/0KMw8ZsfzGtWn7WEwgvMmo'
p418
sg8
S'No Way Back'
p419
ssS'5CtI0qwDJkDQGwXD1H1cLb'
p420
(dp421
g3
S'Luis Fonsi'
p422
sg5
I7
sg6
S'https://open.spotify.com/track/5CtI0qwDJkDQGwXD1H1cLb'
p423
sg8
S'Despacito - Remix'
p424
ssS'6fxVffaTuwjgEk5h9QyRjy'
p425
(dp426
g3
S'Ed Sheeran'
p427
sg5
I4
sg6
S'https://open.spotify.com/track/6fxVffaTuwjgEk5h9QyRjy'
p428
sg8
S'Photograph'
p429
ssS'7fYbFYt7X4FZvuJJC90EX0'
p430
(dp431
g3
S'Ariana Grande'
p432
sg5
I7
sg6
S'https://open.spotify.com/track/7fYbFYt7X4FZvuJJC90EX0'
p433
sg8
S'Problem'
p434
ssS'5knuzwU65gJK7IF5yJsuaW'
p435
(dp436
g3
S'Clean Bandit'
p437
sg5
I7
sg6
S'https://open.spotify.com/track/5knuzwU65gJK7IF5yJsuaW'
p438
sg8
S'Rockabye (feat. Sean Paul & Anne-Marie)'
p439
ssS'6jIpuClSFwyBoGTwwpkKU5'
p440
(dp441
g3
S'TWICE'
p442
sg5
I7
sg6
S'https://open.spotify.com/track/6jIpuClSFwyBoGTwwpkKU5'
p443
sg8
S'CHEER UP'
p444
ssS'5LkQpbBFgoyQm1jGlznT7p'
p445
(dp446
g3
S'TWICE'
p447
sg5
I7
sg6
S'https://open.spotify.com/track/5LkQpbBFgoyQm1jGlznT7p'
p448
sg8
S'KNOCK KNOCK - Japanese ver.'
p449
ssS'1PM8OIREXRl5lFb06852rr'
p450
(dp451
g3
S'R3HAB'
p452
sg5
I1
sg6
S'https://open.spotify.com/track/1PM8OIREXRl5lFb06852rr'
p453
sg8
S'You Could Be'
p454
ssS'5kTNsZfxTxJ3I8S7PNIrUj'
p455
(dp456
g3
S'Masaki Suda'
p457
sg5
I1
sg6
S'https://open.spotify.com/track/5kTNsZfxTxJ3I8S7PNIrUj'
p458
sg8
S'\xe5\x91\xbc\xe5\x90\xb8'
p459
ssS'6kex4EBAj0WHXDKZMEJaaF'
p460
(dp461
g3
S'Jason Derulo'
p462
sg5
I7
sg6
S'https://open.spotify.com/track/6kex4EBAj0WHXDKZMEJaaF'
p463
sg8
S'Swalla (feat. Nicki Minaj & Ty Dolla $ign)'
p464
ssS'1Eck97uRMlprKOOJN9oO1E'
p465
(dp466
g3
S'G-Eazy'
p467
sg5
I7
sg6
S'https://open.spotify.com/track/1Eck97uRMlprKOOJN9oO1E'
p468
sg8
S'Good Life (with G-Eazy & Kehlani)'
p469
ssS'2ekn2ttSfGqwhhate0LSR0'
p470
(dp471
g3
S'Dua Lipa'
p472
sg5
I7
sg6
S'https://open.spotify.com/track/2ekn2ttSfGqwhhate0LSR0'
p473
sg8
S'New Rules'
p474
ssS'5WEqjIUHkwZ5h3DSE7F9bM'
p475
(dp476
g3
S'Avicii'
p477
sg5
I1
sg6
S'https://open.spotify.com/track/5WEqjIUHkwZ5h3DSE7F9bM'
p478
sg8
S'Friend Of Mine (feat. Vargas & Lagola)'
p479
ssS'4jaaMznp3KPllxbmRdiIbx'
p480
(dp481
g3
S'Shota Shimizu'
p482
sg5
I6
sg6
S'https://open.spotify.com/track/4jaaMznp3KPllxbmRdiIbx'
p483
sg8
S'Hanatabanokawarinimelodywo'
p484
ssS'1XT0cpl9g0GuRQJao2nqXd'
p485
(dp486
g3
S'ONE OK ROCK'
p487
sg5
I7
sg6
S'https://open.spotify.com/track/1XT0cpl9g0GuRQJao2nqXd'
p488
sg8
S'Kanzen kankaku Dreamer'
p489
ssS'1sCxVKWImDZSZKvG0U9B23'
p490
(dp491
g3
S'Selena Gomez'
p492
sg5
I6
sg6
S'https://open.spotify.com/track/1sCxVKWImDZSZKvG0U9B23'
p493
sg8
S'Bad Liar'
p494
ssS'20I6sIOMTCkB6w7ryavxtO'
p495
(dp496
g3
S'Carly Rae Jepsen'
p497
sg5
I7
sg6
S'https://open.spotify.com/track/20I6sIOMTCkB6w7ryavxtO'
p498
sg8
S'Call Me Maybe'
p499
ssS'5tz69p7tJuGPeMGwNTxYuV'
p500
(dp501
g3
S'Logic'
p502
sg5
I7
sg6
S'https://open.spotify.com/track/5tz69p7tJuGPeMGwNTxYuV'
p503
sg8
S'1-800-273-8255'
p504
ssS'0YAMQSmHk6BSUGTYpaoqTJ'
p505
(dp506
g3
S'ONE OK ROCK'
p507
sg5
I7
sg6
S'https://open.spotify.com/track/0YAMQSmHk6BSUGTYpaoqTJ'
p508
sg8
S'Wherever you are'
p509
ssS'40cPkRjw5aLQIOjaqgUVnB'
p510
(dp511
g3
S'SEKAI NO OWARI'
p512
sg5
I4
sg6
S'https://open.spotify.com/track/40cPkRjw5aLQIOjaqgUVnB'
p513
sg8
S'RAIN'
p514
ssS'0eEaGQuEZo5sEuJzU5kwkW'
p515
(dp516
g3
S'Shota Shimizu'
p517
sg5
I7
sg6
S'https://open.spotify.com/track/0eEaGQuEZo5sEuJzU5kwkW'
p518
sg8
S'Fire'
p519
ssS'7aF09WaavZAmAWuUeYxlYD'
p520
(dp521
g3
S'OneRepublic'
p522
sg5
I7
sg6
S'https://open.spotify.com/track/7aF09WaavZAmAWuUeYxlYD'
p523
sg8
S'Rich Love (with Seeb)'
p524
ssS'2uSLx5uwRIhiA3sJJraNqX'
p525
(dp526
g3
S'Maroon 5'
p527
sg5
I1
sg6
S'https://open.spotify.com/track/2uSLx5uwRIhiA3sJJraNqX'
p528
sg8
S'Help Me Out (with Julia Michaels)'
p529
ssS'4VrWlk8IQxevMvERoX08iC'
p530
(dp531
g3
S'Sia'
p532
sg5
I2
sg6
S'https://open.spotify.com/track/4VrWlk8IQxevMvERoX08iC'
p533
sg8
S'Chandelier'
p534
ssS'7KXjTSCq5nL1LoYtL7XAwS'
p535
(dp536
g3
S'Kendrick Lamar'
p537
sg5
I7
sg6
S'https://open.spotify.com/track/7KXjTSCq5nL1LoYtL7XAwS'
p538
sg8
S'HUMBLE.'
p539
ssS'6Flllj0iIJPwXUpxL9KdxC'
p540
(dp541
g3
S'Aimer'
p542
sg5
I2
sg6
S'https://open.spotify.com/track/6Flllj0iIJPwXUpxL9KdxC'
p543
sg8
S'Choucho Musubi'
p544
ssS'2wAf64UF5cK7mlAUfvVPl9'
p545
(dp546
g3
S'EXILE'
p547
sg5
I7
sg6
S'https://open.spotify.com/track/2wAf64UF5cK7mlAUfvVPl9'
p548
sg8
S"Tda'''Aitakute"
p549
ssS'6WbADFqMvR8N5u0BvtsWQE'
p550
(dp551
g3
S'Avicii'
p552
sg5
I7
sg6
S'https://open.spotify.com/track/6WbADFqMvR8N5u0BvtsWQE'
p553
sg8
S'Without You (feat. Sandro Cavazza)'
p554
ssS'5C5m0n29iXtAg5cQZt6cEN'
p555
(dp556
g3
S'E-girls'
p557
sg5
I7
sg6
S'https://open.spotify.com/track/5C5m0n29iXtAg5cQZt6cEN'
p558
sg8
S'Love \xe2\x98\x86 Queen'
p559
ssS'3rQjCycDV0Ibadg6A1Nq45'
p560
(dp561
g3
S'TWICE'
p562
sg5
I4
sg6
S'https://open.spotify.com/track/3rQjCycDV0Ibadg6A1Nq45'
p563
sg8
S'KNOCK KNOCK'
p564
ssS'7AEAGTc8cReDqcbPoY9gwo'
p565
(dp566
g3
S'Taylor Swift'
p567
sg5
I6
sg6
S'https://open.spotify.com/track/7AEAGTc8cReDqcbPoY9gwo'
p568
sg8
S'We Are Never Ever Getting Back Together'
p569
ssS'6b8Be6ljOzmkOmFslEb23P'
p570
(dp571
g3
S'Bruno Mars'
p572
sg5
I7
sg6
S'https://open.spotify.com/track/6b8Be6ljOzmkOmFslEb23P'
p573
sg8
S'24K Magic'
p574
ssS'4pdPtRcBmOSQDlJ3Fk945m'
p575
(dp576
g3
S'DJ Snake'
p577
sg5
I7
sg6
S'https://open.spotify.com/track/4pdPtRcBmOSQDlJ3Fk945m'
p578
sg8
S'Let Me Love You'
p579
ssS'32DGGj6KlNuBr6WaqRxpxi'
p580
(dp581
g3
S'Charlie Puth'
p582
sg5
I1
sg6
S'https://open.spotify.com/track/32DGGj6KlNuBr6WaqRxpxi'
p583
sg8
S'How Long'
p584
ssS'7vGuf3Y35N4wmASOKLUVVU'
p585
(dp586
g3
S'Marshmello'
p587
sg5
I7
sg6
S'https://open.spotify.com/track/7vGuf3Y35N4wmASOKLUVVU'
p588
sg8
S'Silence'
p589
ssS'74ODGXs4byLTRdnKGM4s6E'
p590
(dp591
g3
S'LANY'
p592
sg5
I2
sg6
S'https://open.spotify.com/track/74ODGXs4byLTRdnKGM4s6E'
p593
sg8
S'Super Far'
p594
ssS'24ntcqBHV6PpbGLgXdkv3e'
p595
(dp596
g3
S'Flower'
p597
sg5
I4
sg6
S'https://open.spotify.com/track/24ntcqBHV6PpbGLgXdkv3e'
p598
sg8
S'\xe3\x81\x9f\xe3\x81\x84\xe3\x82\x88\xe3\x81\x86\xe3\x81\xae\xe5\x93\x80\xe6\x82\xbc\xe6\xad\x8c'
p599
ssS'1nMbZ9OsVNSLEyijI80EST'
p600
(dp601
g3
S'TWICE'
p602
sg5
I7
sg6
S'https://open.spotify.com/track/1nMbZ9OsVNSLEyijI80EST'
p603
sg8
S'TT'
p604
ssS'78rIJddV4X0HkNAInEcYde'
p605
(dp606
g3
S'Starley'
p607
sg5
I3
sg6
S'https://open.spotify.com/track/78rIJddV4X0HkNAInEcYde'
p608
sg8
S'Call On Me - Ryan Riback Extended Remix'
p609
ssS'6U1HaCuOL1ZouGk0OEpEbS'
p610
(dp611
g3
S'J Soul Brothers III'
p612
sg5
I1
sg6
S'https://open.spotify.com/track/6U1HaCuOL1ZouGk0OEpEbS'
p613
sg8
S'HAPPY'
p614
ssS'2eAZfqOm4EnOF9VvN50Tyc'
p615
(dp616
g3
S'Lil Uzi Vert'
p617
sg5
I2
sg6
S'https://open.spotify.com/track/2eAZfqOm4EnOF9VvN50Tyc'
p618
sg8
S'The Way Life Goes'
p619
ssS'4qTysgid6tdondU8lf2i0P'
p620
(dp621
g3
S'BIGBANG'
p622
sg5
I1
sg6
S'https://open.spotify.com/track/4qTysgid6tdondU8lf2i0P'
p623
sg8
S'FXXK IT - KR Ver.'
p624
ssS'4kqSiEVVEdToADnAr95Uhq'
p625
(dp626
g3
S'negoto'
p627
sg5
I4
sg6
S'https://open.spotify.com/track/4kqSiEVVEdToADnAr95Uhq'
p628
sg8
S'Soramo Toberuhazu'
p629
ssS'6PO8T4qt3FHfauSs98zO9j'
p630
(dp631
g3
S'Shota Shimizu'
p632
sg5
I7
sg6
S'https://open.spotify.com/track/6PO8T4qt3FHfauSs98zO9j'
p633
sg8
S'Dream'
p634
ssS'2ISFfVz2EALjmUHfDxRnsB'
p635
(dp636
g3
S'AI'
p637
sg5
I7
sg6
S'https://open.spotify.com/track/2ISFfVz2EALjmUHfDxRnsB'
p638
sg8
S'\xe3\x82\xad\xe3\x83\xa9\xe3\x82\xad\xe3\x83\xa9'
p639
ssS'69bp2EbF7Q2rqc5N3ylezZ'
p640
(dp641
g3
S'Justin Bieber'
p642
sg5
I7
sg6
S'https://open.spotify.com/track/69bp2EbF7Q2rqc5N3ylezZ'
p643
sg8
S'Sorry'
p644
ssS'0CcQNd8CINkwQfe1RDtGV6'
p645
(dp646
g3
S'Imagine Dragons'
p647
sg5
I7
sg6
S'https://open.spotify.com/track/0CcQNd8CINkwQfe1RDtGV6'
p648
sg8
S'Believer'
p649
ssS'4b5oBON2DgamONUxvP4JyQ'
p650
(dp651
g3
S'Dai Hirai'
p652
sg5
I7
sg6
S'https://open.spotify.com/track/4b5oBON2DgamONUxvP4JyQ'
p653
sg8
S'Slow & Easy'
p654
ssS'6g93YtKKHU2H1qIqhLIL0Y'
p655
(dp656
g3
S'Aimer'
p657
sg5
I6
sg6
S'https://open.spotify.com/track/6g93YtKKHU2H1qIqhLIL0Y'
p658
sg8
S'Kataomoi'
p659
ssS'7F9vK8hNFMml4GtHsaXui6'
p660
(dp661
g3
S'Louis Tomlinson'
p662
sg5
I7
sg6
S'https://open.spotify.com/track/7F9vK8hNFMml4GtHsaXui6'
p663
sg8
S'Back to You (feat. Bebe Rexha & Digital Farm Animals)'
p664
ssS'7bmdV1IiqeCIK1Lb3klDVV'
p665
(dp666
g3
S'ONE OK ROCK'
p667
sg5
I1
sg6
S'https://open.spotify.com/track/7bmdV1IiqeCIK1Lb3klDVV'
p668
sg8
S'Taking Off'
p669
ssS'3glfyV9FhK872pJcAtOjeI'
p670
(dp671
g3
S'AAA'
p672
sg5
I7
sg6
S'https://open.spotify.com/track/3glfyV9FhK872pJcAtOjeI'
p673
sg8
S'\xe6\xb6\x99\xe3\x81\xae\xe3\x81\xaa\xe3\x81\x84\xe4\xb8\x96\xe7\x95\x8c'
p674
ssS'5Bg0HkfaRYRx8A7tMrjT9Z'
p675
(dp676
g3
S'Shota Shimizu'
p677
sg5
I7
sg6
S'https://open.spotify.com/track/5Bg0HkfaRYRx8A7tMrjT9Z'
p678
sg8
S'Kimiga Suki'
p679
ssS'4iLqG9SeJSnt0cSPICSjxv'
p680
(dp681
g3
S'Charlie Puth'
p682
sg5
I7
sg6
S'https://open.spotify.com/track/4iLqG9SeJSnt0cSPICSjxv'
p683
sg8
S'Attention'
p684
ssS'6RUKPb4LETWmmr3iAEQktW'
p685
(dp686
g3
S'The Chainsmokers'
p687
sg5
I7
sg6
S'https://open.spotify.com/track/6RUKPb4LETWmmr3iAEQktW'
p688
sg8
S'Something Just Like This'
p689
ssS'3B54sVLJ402zGa6Xm4YGNe'
p690
(dp691
g3
S'French Montana'
p692
sg5
I7
sg6
S'https://open.spotify.com/track/3B54sVLJ402zGa6Xm4YGNe'
p693
sg8
S'Unforgettable'
p694
ssS'57p8CBvPOxrvyCbn6ttl5r'
p695
(dp696
g3
S'Skrillex'
p697
sg5
I4
sg6
S'https://open.spotify.com/track/57p8CBvPOxrvyCbn6ttl5r'
p698
sg8
S'Would You Ever'
p699
ssS'4AW9Fobw3ENnOFDKwKdq7Q'
p700
(dp701
g3
S'Daichi Miura'
p702
sg5
I2
sg6
S'https://open.spotify.com/track/4AW9Fobw3ENnOFDKwKdq7Q'
p703
sg8
S'\xe6\x99\xae\xe9\x80\x9a\xe3\x81\xae\xe4\xbb\x8a\xe5\xa4\x9c\xe3\x81\xae\xe3\x81\x93\xe3\x81\xa8\xe3\x82\x92 \xe3\x83\xbc let tonight be forever remembered \xe3\x83\xbc'
p704
ssS'5bcTCxgc7xVfSaMV3RuVke'
p705
(dp706
g3
S'Calvin Harris'
p707
sg5
I7
sg6
S'https://open.spotify.com/track/5bcTCxgc7xVfSaMV3RuVke'
p708
sg8
S'Feels'
p709
ssS'0QsvXIfqM0zZoerQfsI9lm'
p710
(dp711
g3
S'The Chainsmokers'
p712
sg5
I7
sg6
S'https://open.spotify.com/track/0QsvXIfqM0zZoerQfsI9lm'
p713
sg8
S"Don't Let Me Down"
p714
ssS'79cuOz3SPQTuFrp8WgftAu'
p715
(dp716
g3
S'Shawn Mendes'
p717
sg5
I7
sg6
S'https://open.spotify.com/track/79cuOz3SPQTuFrp8WgftAu'
p718
sg8
S"There's Nothing Holdin' Me Back"
p719
ssS'4c2W3VKsOFoIg2SFaO6DY5'
p720
(dp721
g3
S'Rita Ora'
p722
sg5
I7
sg6
S'https://open.spotify.com/track/4c2W3VKsOFoIg2SFaO6DY5'
p723
sg8
S'Your Song'
p724
ssS'4R7QVSqBN0koJHcOL7PGb5'
p725
(dp726
g3
S'TWICE'
p727
sg5
I7
sg6
S'https://open.spotify.com/track/4R7QVSqBN0koJHcOL7PGb5'
p728
sg8
S'SIGNAL - Japanese ver.'
p729
ssS'2GLp1Arz4ZtihdjdL9m80W'
p730
(dp731
g3
S'AAA'
p732
sg5
I7
sg6
S'https://open.spotify.com/track/2GLp1Arz4ZtihdjdL9m80W'
p733
sg8
S'\xe6\x84\x9b\xe3\x81\x97\xe3\x81\xa6\xe3\x82\x8b\xe3\x81\xae\xe3\x81\xab\xe3\x80\x81\xe6\x84\x9b\xe3\x81\x9b\xe3\x81\xaa\xe3\x81\x84'
p734
ssS'5PF0IW8iHqOcTWAyRqiDzb'
p735
(dp736
g3
S'Shota Shimizu'
p737
sg5
I7
sg6
S'https://open.spotify.com/track/5PF0IW8iHqOcTWAyRqiDzb'
p738
sg8
S'Home'
p739
ssS'3a1lNhkSLSkpJE4MSHpDu9'
p740
(dp741
g3
S'Post Malone'
p742
sg5
I7
sg6
S'https://open.spotify.com/track/3a1lNhkSLSkpJE4MSHpDu9'
p743
sg8
S'Congratulations'
p744
ssS'2fQrGHiQOvpL9UgPvtYy6G'
p745
(dp746
g3
S'21 Savage'
p747
sg5
I3
sg6
S'https://open.spotify.com/track/2fQrGHiQOvpL9UgPvtYy6G'
p748
sg8
S'Bank Account'
p749
ssS'1m69ELEgE6k5ZWsap40ozt'
p750
(dp751
g3
S'Ozuna'
p752
sg5
I1
sg6
S'https://open.spotify.com/track/1m69ELEgE6k5ZWsap40ozt'
p753
sg8
S'Se Prepar\xc3\xb3'
p754
ssS'3eR23VReFzcdmS7TYCrhCe'
p755
(dp756
g3
S'Kygo'
p757
sg5
I7
sg6
S'https://open.spotify.com/track/3eR23VReFzcdmS7TYCrhCe'
p758
sg8
S"It Ain't Me (with Selena Gomez)"
p759
ssS'67BbMuItfrHmaNqDxBPF7c'
p760
(dp761
g3
S'BLACKPINK'
p762
sg5
I7
sg6
S'https://open.spotify.com/track/67BbMuItfrHmaNqDxBPF7c'
p763
sg8
S'WHISTLE - KR Ver.'
p764
ssS'60QO7SvW5aaFgMLvltlr6E'
p765
(dp766
g3
S'Naoto Inti Raymi'
p767
sg5
I2
sg6
S'https://open.spotify.com/track/60QO7SvW5aaFgMLvltlr6E'
p768
sg8
S'Overflows~\xe8\xa8\x80\xe8\x91\x89\xe3\x81\xab\xe3\x81\xa6\xe3\x82\x99\xe3\x81\x8d\xe3\x81\xaa\xe3\x81\x8f\xe3\x81\xa6~'
p769
ssS'3l8yQMdniG6Os8gUBNXV57'
p770
(dp771
g3
S'BTS'
p772
sg5
I2
sg6
S'https://open.spotify.com/track/3l8yQMdniG6Os8gUBNXV57'
p773
sg8
S'Outro: Her'
p774
ssS'4Q6tJExe0LhBW6nhgEN8PC'
p775
(dp776
g3
S'AAA'
p777
sg5
I7
sg6
S'https://open.spotify.com/track/4Q6tJExe0LhBW6nhgEN8PC'
p778
sg8
S'LOVER'
p779
ssS'0ofbQMrRDsUaVKq2mGLEAb'
p780
(dp781
g3
S'Camila Cabello'
p782
sg5
I7
sg6
S'https://open.spotify.com/track/0ofbQMrRDsUaVKq2mGLEAb'
p783
sg8
S'Havana'
p784
ssS'5hN8uAuKfdGNzgGwzgGzyC'
p785
(dp786
g3
S'Masaki Suda'
p787
sg5
I4
sg6
S'https://open.spotify.com/track/5hN8uAuKfdGNzgGwzgGzyC'
p788
sg8
S'Kokyu'
p789
ssS'2LwjA3u1bTgnhfbR4MsPxw'
p790
(dp791
g3
S'Shota Shimizu'
p792
sg5
I7
sg6
S'https://open.spotify.com/track/2LwjA3u1bTgnhfbR4MsPxw'
p793
sg8
S'Because of You'
p794
ssS'6jA8HL9i4QGzsj6fjoxp8Y'
p795
(dp796
g3
S'Martin Garrix'
p797
sg5
I6
sg6
S'https://open.spotify.com/track/6jA8HL9i4QGzsj6fjoxp8Y'
p798
sg8
S'There for You'
p799
ssS'4clwFLZjrvTtnrMviJnVKh'
p800
(dp801
g3
S'ORANGE RANGE'
p802
sg5
I2
sg6
S'https://open.spotify.com/track/4clwFLZjrvTtnrMviJnVKh'
p803
sg8
S'Hana'
p804
ssS'2mfUa8bLs2s5N4VaqJZ4lZ'
p805
(dp806
g3
S'Hailee Steinfeld'
p807
sg5
I7
sg6
S'https://open.spotify.com/track/2mfUa8bLs2s5N4VaqJZ4lZ'
p808
sg8
S'Most Girls'
p809
ssS'1Zyd6zQnC6XIIzmg3hP7Ot'
p810
(dp811
g3
S'BLACKPINK'
p812
sg5
I6
sg6
S'https://open.spotify.com/track/1Zyd6zQnC6XIIzmg3hP7Ot'
p813
sg8
S"As If It's Your Last"
p814
ssS'0Zbbxnx4SGGHoIow4PpISP'
p815
(dp816
g3
S'Kygo'
p817
sg5
I3
sg6
S'https://open.spotify.com/track/0Zbbxnx4SGGHoIow4PpISP'
p818
sg8
S'Stargazing'
p819
ssS'1KT0xdIjm7t053xByACrrg'
p820
(dp821
g3
S'Ariana Grande'
p822
sg5
I7
sg6
S'https://open.spotify.com/track/1KT0xdIjm7t053xByACrrg'
p823
sg8
S'\xe7\xbe\x8e\xe5\xa5\xb3\xe3\x81\xa8\xe9\x87\x8e\xe7\x8d\xa3'
p824
ssS'7vwXjDrZT2mqiFynlEwwgG'
p825
(dp826
g3
S'AAA'
p827
sg5
I7
sg6
S'https://open.spotify.com/track/7vwXjDrZT2mqiFynlEwwgG'
p828
sg8
S'\xe3\x81\x95\xe3\x82\x88\xe3\x81\xaa\xe3\x82\x89\xe3\x81\xae\xe5\x89\x8d\xe3\x81\xab'
p829
ssS'6IARks33Wnqa0tgXSTZWx8'
p830
(dp831
g3
S'AAA'
p832
sg5
I1
sg6
S'https://open.spotify.com/track/6IARks33Wnqa0tgXSTZWx8'
p833
sg8
S'LIFE'
p834
ssS'4QL5DKkPZwBXkph4fW2Y0Z'
p835
(dp836
g3
S'ONE OK ROCK'
p837
sg5
I5
sg6
S'https://open.spotify.com/track/4QL5DKkPZwBXkph4fW2Y0Z'
p838
sg8
S'We are'
p839
ssS'2SYa5Lx1uoCvyDIW4oee9b'
p840
(dp841
g3
S'BTS'
p842
sg5
I4
sg6
S'https://open.spotify.com/track/2SYa5Lx1uoCvyDIW4oee9b'
p843
sg8
S'MIC Drop'
p844
ssS'5TzjoTFdq4jsp9AhTG0Du6'
p845
(dp846
g3
S'PAELLAS'
p847
sg5
I2
sg6
S'https://open.spotify.com/track/5TzjoTFdq4jsp9AhTG0Du6'
p848
sg8
S'Fade'
p849
ssS'1OmcAT5Y8eg5bUPv9qJT4R'
p850
(dp851
g3
S'Post Malone'
p852
sg5
I3
sg6
S'https://open.spotify.com/track/1OmcAT5Y8eg5bUPv9qJT4R'
p853
sg8
S'rockstar'
p854
ssS'3hRZsdTF5uyGA2uhNqEuhm'
p855
(dp856
g3
S'Niall Horan'
p857
sg5
I4
sg6
S'https://open.spotify.com/track/3hRZsdTF5uyGA2uhNqEuhm'
p858
sg8
S'Too Much To Ask'
p859
ssS'2gasr6aemUqZIBBN05EO03'
p860
(dp861
g3
S'Shota Shimizu'
p862
sg5
I7
sg6
S'https://open.spotify.com/track/2gasr6aemUqZIBBN05EO03'
p863
sg8
S'My Boo'
p864
ssS'7ztdl6cnbJgHRdMkKldkts'
p865
(dp866
g3
S'GReeeeN'
p867
sg5
I7
sg6
S'https://open.spotify.com/track/7ztdl6cnbJgHRdMkKldkts'
p868
sg8
S'\xe3\x82\xad\xe3\x82\xbb\xe3\x82\xad'
p869
ssS'72hy5aHFbC5U6vOF3bwpMv'
p870
(dp871
g3
S'Sonoko Inoue'
p872
sg5
I6
sg6
S'https://open.spotify.com/track/72hy5aHFbC5U6vOF3bwpMv'
p873
sg8
S'\xe3\x81\xa9\xe3\x82\x93\xe3\x81\xaa\xe3\x81\xa8\xe3\x81\x8d\xe3\x82\x82\xe3\x80\x82'
p874
ssS'3cjlIkGj2T8TWkBdSfEHnE'
p875
(dp876
g3
S'Shota Shimizu'
p877
sg5
I1
sg6
S'https://open.spotify.com/track/3cjlIkGj2T8TWkBdSfEHnE'
p878
sg8
S'Sorry Not Sorry'
p879
ssS'1X2Zd5wKGbY1oKzb8dzJRy'
p880
(dp881
g3
S'Ariana Grande'
p882
sg5
I7
sg6
S'https://open.spotify.com/track/1X2Zd5wKGbY1oKzb8dzJRy'
p883
sg8
S'Break Free'
p884
ssS'5A4xCfm0MybwPbAdVqoJe2'
p885
(dp886
g3
S'Dai Hirai'
p887
sg5
I7
sg6
S'https://open.spotify.com/track/5A4xCfm0MybwPbAdVqoJe2'
p888
sg8
S'Beautiful'
p889
ssS'0afhq8XCExXpqazXczTSve'
p890
(dp891
g3
S'Ed Sheeran'
p892
sg5
I7
sg6
S'https://open.spotify.com/track/0afhq8XCExXpqazXczTSve'
p893
sg8
S'Galway Girl'
p894
ssS'6vVtJoHIZIjbQAlw1TFX05'
p895
(dp896
g3
S'Hiroomi Tosaka'
p897
sg5
I3
sg6
S'https://open.spotify.com/track/6vVtJoHIZIjbQAlw1TFX05'
p898
sg8
S'WASTED LOVE'
p899
ssS'4aWmUDTfIPGksMNLV2rQP2'
p900
(dp901
g3
S'Luis Fonsi'
p902
sg5
I7
sg6
S'https://open.spotify.com/track/4aWmUDTfIPGksMNLV2rQP2'
p903
sg8
S'Despacito (Featuring Daddy Yankee)'
p904
ssS'7qiZfU4dY1lWllzX7mPBI3'
p905
(dp906
g3
S'Ed Sheeran'
p907
sg5
I7
sg6
S'https://open.spotify.com/track/7qiZfU4dY1lWllzX7mPBI3'
p908
sg8
S'Shape of You'
p909
ssS'6uFsE1JgZ20EXyU0JQZbUR'
p910
(dp911
g3
S'Taylor Swift'
p912
sg5
I7
sg6
S'https://open.spotify.com/track/6uFsE1JgZ20EXyU0JQZbUR'
p913
sg8
S'Look What You Made Me Do'
p914
ssS'6adHLVcdYkQRMcLAcKq5YX'
p915
(dp916
g3
S'bonobos'
p917
sg5
I2
sg6
S'https://open.spotify.com/track/6adHLVcdYkQRMcLAcKq5YX'
p918
sg8
S'THANK YOU FOR THE MUSIC - Nui!'
p919
ssS'1NDxZ7cFAo481dtYWdrUnR'
p920
(dp921
g3
S'Maggie Lindemann'
p922
sg5
I7
sg6
S'https://open.spotify.com/track/1NDxZ7cFAo481dtYWdrUnR'
p923
sg8
S'Pretty Girl - Cheat Codes X CADE Remix'
p924
ssS'25C5CowdsfXld2jJanbiex'
p925
(dp926
g3
S'Demi Lovato'
p927
sg5
I5
sg6
S'https://open.spotify.com/track/25C5CowdsfXld2jJanbiex'
p928
sg8
S'Sorry Not Sorry'
p929
ssS'0ve9Tpz8Yw0I4eXhWsy21o'
p930
(dp931
g3
S'[Alexandros]'
p932
sg5
I7
sg6
S'https://open.spotify.com/track/0ve9Tpz8Yw0I4eXhWsy21o'
p933
sg8
S'\xe3\x83\xaf\xe3\x82\xbf\xe3\x83\xaa\xe3\x83\x89\xe3\x83\xaa'
p934
ssS'3oEekS4xhmFQ88ieCVTZ7H'
p935
(dp936
g3
S'Jessie J'
p937
sg5
I7
sg6
S'https://open.spotify.com/track/3oEekS4xhmFQ88ieCVTZ7H'
p938
sg8
S'Bang Bang'
p939
ssS'4xBjsLUSjcx2h7PcRikpQp'
p940
(dp941
g3
S'Camila Cabello'
p942
sg5
I6
sg6
S'https://open.spotify.com/track/4xBjsLUSjcx2h7PcRikpQp'
p943
sg8
S'OMG'
p944
ssS'3XIHNvOmDcZfxncVRglPxI'
p945
(dp946
g3
S'AAA'
p947
sg5
I2
sg6
S'https://open.spotify.com/track/3XIHNvOmDcZfxncVRglPxI'
p948
sg8
S'NEW'
p949
ssS'7GX5flRQZVHRAGd6B4TmDO'
p950
(dp951
g3
S'Lil Uzi Vert'
p952
sg5
I7
sg6
S'https://open.spotify.com/track/7GX5flRQZVHRAGd6B4TmDO'
p953
sg8
S'XO TOUR Llif3'
p954
ssS'7swIKcU4tFRk4iFJpi12Fg'
p955
(dp956
g3
S'MONGOL800'
p957
sg5
I7
sg6
S'https://open.spotify.com/track/7swIKcU4tFRk4iFJpi12Fg'
p958
sg8
S'\xe5\xb0\x8f\xe3\x81\x95\xe3\x81\xaa\xe6\x81\x8b\xe3\x81\xae\xe3\x81\x86\xe3\x81\x9f'
p959
ssS'0CokSRCu5hZgPxcZBaEzVE'
p960
(dp961
g3
S'Macklemore'
p962
sg5
I3
sg6
S'https://open.spotify.com/track/0CokSRCu5hZgPxcZBaEzVE'
p963
sg8
S'Glorious (feat. Skylar Grey)'
p964
ssS'20H2Hd5AkUcRjB4yL3UQtJ'
p965
(dp966
g3
S'Fifth Harmony'
p967
sg5
I7
sg6
S'https://open.spotify.com/track/20H2Hd5AkUcRjB4yL3UQtJ'
p968
sg8
S'Down'
p969
ssS'6De0lHrwBfPfrhorm9q1Xl'
p970
(dp971
g3
S'Danny Ocean'
p972
sg5
I7
sg6
S'https://open.spotify.com/track/6De0lHrwBfPfrhorm9q1Xl'
p973
sg8
S'Me Reh\xc3\xbaso'
p974
ssS'6QgjcU0zLnzq5OrUoSZ3OK'
p975
(dp976
g3
S'Portugal. The Man'
p977
sg5
I5
sg6
S'https://open.spotify.com/track/6QgjcU0zLnzq5OrUoSZ3OK'
p978
sg8
S'Feel It Still'
p979
ssS'4m8ayeTlVnsYAtR42NhDqZ'
p980
(dp981
g3
S'Mrs. GREEN APPLE'
p982
sg5
I7
sg6
S'https://open.spotify.com/track/4m8ayeTlVnsYAtR42NhDqZ'
p983
sg8
S'WanteD! WanteD!'
p984
ssS'5SE57ljOIUJ1ybL9U6CuBH'
p985
(dp986
g3
S'BTS'
p987
sg5
I4
sg6
S'https://open.spotify.com/track/5SE57ljOIUJ1ybL9U6CuBH'
p988
sg8
S'DNA'
p989
ssS'7pcTLUekZJQnzDOUDuExVJ'
p990
(dp991
g3
S'DAOKO\xc3\x97\xe7\xb1\xb3\xe6\xb4\xa5\xe7\x8e\x84\xe5\xb8\xab'
p992
sg5
I7
sg6
S'https://open.spotify.com/track/7pcTLUekZJQnzDOUDuExVJ'
p993
sg8
S'\xe6\x89\x93\xe4\xb8\x8a\xe8\x8a\xb1\xe7\x81\xab'
p994
ssS'6InS5BZVgwQXcFF3FTwdug'
p995
(dp996
g3
S'Attractions'
p997
sg5
I3
sg6
S'https://open.spotify.com/track/6InS5BZVgwQXcFF3FTwdug'
p998
sg8
S'Knock Away'
p999
ssS'4A9wlW3RaNV2pUzx1Dyov0'
p1000
(dp1001
g3
S'DREAMS COME TRUE'
p1002
sg5
I1
sg6
S'https://open.spotify.com/track/4A9wlW3RaNV2pUzx1Dyov0'
p1003
sg8
S'\xe3\x81\x9d\xe3\x81\xae\xe6\x97\xa5\xe3\x81\xaf\xe5\xbf\x85\xe3\x81\x9a\xe6\x9d\xa5\xe3\x82\x8b - SINGLE VERSION'
p1004
ssS'21z1GxeHjfD3qkaF5CgCTO'
p1005
(dp1006
g3
S'KANA-BOON'
p1007
sg5
I7
sg6
S'https://open.spotify.com/track/21z1GxeHjfD3qkaF5CgCTO'
p1008
sg8
S'Silhouette'
p1009
ssS'75ZvA4QfFiZvzhj2xkaWAh'
p1010
(dp1011
g3
S'Post Malone'
p1012
sg5
I1
sg6
S'https://open.spotify.com/track/75ZvA4QfFiZvzhj2xkaWAh'
p1013
sg8
S'I Fall Apart'
p1014
ssS'7iXHLtPosbHvglVSJ4rxLq'
p1015
(dp1016
g3
S'GReeeeN'
p1017
sg5
I7
sg6
S'https://open.spotify.com/track/7iXHLtPosbHvglVSJ4rxLq'
p1018
sg8
S'\xe6\x84\x9b\xe5\x94\x84'
p1019
ssS'7BKLCZ1jbUBVqRi2FVlTVw'
p1020
(dp1021
g3
S'The Chainsmokers'
p1022
sg5
I7
sg6
S'https://open.spotify.com/track/7BKLCZ1jbUBVqRi2FVlTVw'
p1023
sg8
S'Closer'
p1024
ssS'3ryjLm3oupIjJFGc39naNi'
p1025
(dp1026
g3
S'BTS'
p1027
sg5
I4
sg6
S'https://open.spotify.com/track/3ryjLm3oupIjJFGc39naNi'
p1028
sg8
S'dimple'
p1029
ssS'65KlshIGPBSnlf0SWfhb40'
p1030
(dp1031
g3
S'Yurufuwa Gang'
p1032
sg5
I2
sg6
S'https://open.spotify.com/track/65KlshIGPBSnlf0SWfhb40'
p1033
sg8
S'Make Up'
p1034
ssS'0cqRj7pUJDkTCEsJkx8snD'
p1035
(dp1036
g3
S'Taylor Swift'
p1037
sg5
I7
sg6
S'https://open.spotify.com/track/0cqRj7pUJDkTCEsJkx8snD'
p1038
sg8
S'Shake It Off'
p1039
ssS'167NczpNbRF7oWakJaY3Hh'
p1040
(dp1041
g3
S'Niall Horan'
p1042
sg5
I7
sg6
S'https://open.spotify.com/track/167NczpNbRF7oWakJaY3Hh'
p1043
sg8
S'Slow Hands'
p1044
ssS'3HVr6jTVwBHBa2flM0eURR'
p1045
(dp1046
g3
S'Macklemore'
p1047
sg5
I4
sg6
S'https://open.spotify.com/track/3HVr6jTVwBHBa2flM0eURR'
p1048
sg8
S'Glorious (feat. Skylar Grey)'
p1049
ssS'5RGf8qn1TBWVplLyyKUsuV'
p1050
(dp1051
g3
S'BTS'
p1052
sg5
I6
sg6
S'https://open.spotify.com/track/5RGf8qn1TBWVplLyyKUsuV'
p1053
sg8
S'Blood Sweat & Tears'
p1054
ssS'3awymLmIrvn9lkJeFpmRSf'
p1055
(dp1056
g3
S'Dai Hirai'
p1057
sg5
I7
sg6
S'https://open.spotify.com/track/3awymLmIrvn9lkJeFpmRSf'
p1058
sg8
S'\xe3\x81\xbe\xe3\x81\x9f\xe9\x80\xa2\xe3\x81\x86\xe6\x97\xa5\xe3\x81\xbe\xe3\x81\xa7'
p1059
ssS'6EpRaXYhGOB3fj4V2uDkMJ'
p1060
(dp1061
g3
S'Liam Payne'
p1062
sg5
I7
sg6
S'https://open.spotify.com/track/6EpRaXYhGOB3fj4V2uDkMJ'
p1063
sg8
S'Strip That Down'
p1064
ssS'0KjILTvrVubwbbxw5Rldxq'
p1065
(dp1066
g3
S'Suchmos'
p1067
sg5
I3
sg6
S'https://open.spotify.com/track/0KjILTvrVubwbbxw5Rldxq'
p1068
sg8
S'Wiper'
p1069
ssS'3chgmcXcJPCDxo24uRCba3'
p1070
(dp1071
g3
S'illion'
p1072
sg5
I1
sg6
S'https://open.spotify.com/track/3chgmcXcJPCDxo24uRCba3'
p1073
sg8
S'BANKA'
p1074
ssS'19WjVVgXjdKXfLXoaDPwTM'
p1075
(dp1076
g3
S'Taylor Swift'
p1077
sg5
I5
sg6
S'https://open.spotify.com/track/19WjVVgXjdKXfLXoaDPwTM'
p1078
sg8
S'...Ready For It?'
p1079
ssS'1wjzFQodRWrPcQ0AnYnvQ9'
p1080
(dp1081
g3
S'Lauv'
p1082
sg5
I7
sg6
S'https://open.spotify.com/track/1wjzFQodRWrPcQ0AnYnvQ9'
p1083
sg8
S'I Like Me Better'
p1084
ssS'3KOAjzxIJdreRSzffGLYoa'
p1085
(dp1086
g3
S'Shota Shimizu'
p1087
sg5
I7
sg6
S'https://open.spotify.com/track/3KOAjzxIJdreRSzffGLYoa'
p1088
sg8
S'Sanbyakurokujyurokunichi'
p1089
ssS'7BgAUdewLF9XfPupx9V4W2'
p1090
(dp1091
g3
S'Glim Spanky'
p1092
sg5
I4
sg6
S'https://open.spotify.com/track/7BgAUdewLF9XfPupx9V4W2'
p1093
sg8
S'\xe5\x90\xb9\xe3\x81\x8d\xe6\x8a\x9c\xe3\x81\x8f\xe9\xa2\xa8\xe3\x81\xae\xe3\x82\x88\xe3\x81\x86\xe3\x81\xab'
p1094
ssS'4v6edT4Ogf8qXGphyFfg1u'
p1095
(dp1096
g3
S'Creep Hyp'
p1097
sg5
I7
sg6
S'https://open.spotify.com/track/4v6edT4Ogf8qXGphyFfg1u'
p1098
sg8
S'\xe3\x82\xa4\xe3\x83\x88'
p1099
ssS'7JFyFGvIXZEKdfGUiRVBTY'
p1100
(dp1101
g3
S'AmPm'
p1102
sg5
I3
sg6
S'https://open.spotify.com/track/7JFyFGvIXZEKdfGUiRVBTY'
p1103
sg8
S'Darling Break Free'
p1104
ssS'2771LMNxwf62FTAdpJMQfM'
p1105
(dp1106
g3
S'Cardi B'
p1107
sg5
I7
sg6
S'https://open.spotify.com/track/2771LMNxwf62FTAdpJMQfM'
p1108
sg8
S'Bodak Yellow'
p1109
ssS'0XLOf9LhyazPX9Ld8jPiUq'
p1110
(dp1111
g3
S'Selena Gomez'
p1112
sg5
I7
sg6
S'https://open.spotify.com/track/0XLOf9LhyazPX9Ld8jPiUq'
p1113
sg8
S'Fetish (feat. Gucci Mane)'
p1114
ssS'3khLfnWKvEJuJLrcASCXWF'
p1115
(dp1116
g3
S'Motohiro Hata'
p1117
sg5
I5
sg6
S'https://open.spotify.com/track/3khLfnWKvEJuJLrcASCXWF'
p1118
sg8
S'Girl'
p1119
ssS'5SDVaYU4nfaIV0rNSlWSCa'
p1120
(dp1121
g3
S'ayaka'
p1122
sg5
I1
sg6
S'https://open.spotify.com/track/5SDVaYU4nfaIV0rNSlWSCa'
p1123
sg8
S'\xe4\xb8\x89\xe6\x97\xa5\xe6\x9c\x88'
p1124
ssS'6PCUP3dWmTjcTtXY02oFdT'
p1125
(dp1126
g3
S'Ed Sheeran'
p1127
sg5
I7
sg6
S'https://open.spotify.com/track/6PCUP3dWmTjcTtXY02oFdT'
p1128
sg8
S'Castle on the Hill'
p1129
ssS'1yxgsra98r3qAtxqiGZPiX'
p1130
(dp1131
g3
S'Travis Scott'
p1132
sg5
I3
sg6
S'https://open.spotify.com/track/1yxgsra98r3qAtxqiGZPiX'
p1133
sg8
S'Butterfly Effect'
p1134
ssS'4Rby6ujcqaaZIav9LQ2u67'
p1135
(dp1136
g3
S'UVERworld'
p1137
sg5
I7
sg6
S'https://open.spotify.com/track/4Rby6ujcqaaZIav9LQ2u67'
p1138
sg8
S'Decided'
p1139
ssS'7ANmgFJ8YDBh0uUOfSeYrX'
p1140
(dp1141
g3
S'Carly Rae Jepsen'
p1142
sg5
I4
sg6
S'https://open.spotify.com/track/7ANmgFJ8YDBh0uUOfSeYrX'
p1143
sg8
S'Cut To The Feeling'
p1144
ssS'0qYTZCo5Bwh1nsUFGZP3zn'
p1145
(dp1146
g3
S'Maluma'
p1147
sg5
I7
sg6
S'https://open.spotify.com/track/0qYTZCo5Bwh1nsUFGZP3zn'
p1148
sg8
S'Felices los 4'
p1149
ssS'7CmWXD3w1xOO53AAO4LRVQ'
p1150
(dp1151
g3
S'Superfly'
p1152
sg5
I7
sg6
S'https://open.spotify.com/track/7CmWXD3w1xOO53AAO4LRVQ'
p1153
sg8
S'\xe6\x84\x9b\xe3\x82\x92\xe3\x81\x93\xe3\x82\x81\xe3\x81\xa6\xe8\x8a\xb1\xe6\x9d\x9f\xe3\x82\x92'
p1154
ssS'5MFzQMkrl1FOOng9tq6R9r'
p1155
(dp1156
g3
S'Maroon 5'
p1157
sg5
I1
sg6
S'https://open.spotify.com/track/5MFzQMkrl1FOOng9tq6R9r'
p1158
sg8
S"Don't Wanna Know"
p1159
ssS'5Z3GHaZ6ec9bsiI5BenrbY'
p1160
(dp1161
g3
S'Khalid'
p1162
sg5
I7
sg6
S'https://open.spotify.com/track/5Z3GHaZ6ec9bsiI5BenrbY'
p1163
sg8
S'Young Dumb & Broke'
p1164
ssS'2OALaHcDdKkjYEpAr0Qzab'
p1165
(dp1166
g3
S'Avicii'
p1167
sg5
I7
sg6
S'https://open.spotify.com/track/2OALaHcDdKkjYEpAr0Qzab'
p1168
sg8
S'Lonely Together (feat. Rita Ora)'
p1169
ssS'0XfOi87h82i09rQjWYG0Bm'
p1170
(dp1171
g3
S'Jax Jones'
p1172
sg5
I2
sg6
S'https://open.spotify.com/track/0XfOi87h82i09rQjWYG0Bm'
p1173
sg8
S'Instruction (feat. Demi Lovato & Stefflon Don)'
p1174
ssS'17DfKcV1gBdfMBdzsf4NQx'
p1175
(dp1176
g3
S'miwa'
p1177
sg5
I7
sg6
S'https://open.spotify.com/track/17DfKcV1gBdfMBdzsf4NQx'
p1178
sg8
S'Kataomoi'
p1179
ssS'3zoYkqS4y2BsGVShPL2nTE'
p1180
(dp1181
g3
S'CNCO'
p1182
sg5
I2
sg6
S'https://open.spotify.com/track/3zoYkqS4y2BsGVShPL2nTE'
p1183
sg8
S'Reggaet\xc3\xb3n Lento (Remix) [CNCO & Little Mix]'
p1184
ssS'2NgQV5lmGPPTTlrHXeAPJ7'
p1185
(dp1186
g3
S'Flower'
p1187
sg5
I7
sg6
S'https://open.spotify.com/track/2NgQV5lmGPPTTlrHXeAPJ7'
p1188
sg8
S'Yasashisade Afureruyouni'
p1189
ssS'7fwXWKdDNI5IutOMc5OKYw'
p1190
(dp1191
g3
S'J Balvin'
p1192
sg5
I2
sg6
S'https://open.spotify.com/track/7fwXWKdDNI5IutOMc5OKYw'
p1193
sg8
S'Mi Gente (feat. Beyonc\xc3\xa9)'
p1194
ssS'0D8ZpOXVjapLXrjz5VfZSD'
p1195
(dp1196
g3
S'Sam Smith'
p1197
sg5
I1
sg6
S'https://open.spotify.com/track/0D8ZpOXVjapLXrjz5VfZSD'
p1198
sg8
S'Pray'
p1199
ssS'4f3nDjgqXurMryYBSp0TZD'
p1200
(dp1201
g3
S'ONE OK ROCK'
p1202
sg5
I7
sg6
S'https://open.spotify.com/track/4f3nDjgqXurMryYBSp0TZD'
p1203
sg8
S'The Beginning'
p1204
ssS'32OlwWuMpZ6b0aN2RZOeMS'
p1205
(dp1206
g3
S'Mark Ronson'
p1207
sg5
I7
sg6
S'https://open.spotify.com/track/32OlwWuMpZ6b0aN2RZOeMS'
p1208
sg8
S'Uptown Funk'
p1209
ssS'7MHN1aCFtLXjownGhvEQlF'
p1210
(dp1211
g3
S'Manuel Turizo'
p1212
sg5
I4
sg6
S'https://open.spotify.com/track/7MHN1aCFtLXjownGhvEQlF'
p1213
sg8
S'Una Lady Como T\xc3\xba'
p1214
ssS'3m660poUr1chesgkkjQM7P'
p1215
(dp1216
g3
S'Demi Lovato'
p1217
sg5
I2
sg6
S'https://open.spotify.com/track/3m660poUr1chesgkkjQM7P'
p1218
sg8
S'Sorry Not Sorry'
p1219
ssS'7JNh1cfm0eXjqFVOzKLyau'
p1220
(dp1221
g3
S'Becky G'
p1222
sg5
I1
sg6
S'https://open.spotify.com/track/7JNh1cfm0eXjqFVOzKLyau'
p1223
sg8
S'Mayores'
p1224
ssS'2RobEQGaFJS8tZ0EWnCtld'
p1225
(dp1226
g3
S'Motohiro Hata'
p1227
sg5
I7
sg6
S'https://open.spotify.com/track/2RobEQGaFJS8tZ0EWnCtld'
p1228
sg8
S'\xe9\xb1\x97(\xe3\x81\x86\xe3\x82\x8d\xe3\x81\x93)'
p1229
ssS'3FiE2d325mIOc4YjkSLVJR'
p1230
(dp1231
g3
S'Ariana Grande'
p1232
sg5
I6
sg6
S'https://open.spotify.com/track/3FiE2d325mIOc4YjkSLVJR'
p1233
sg8
S'Everyday'
p1234
ssS'4tCtwWceOPWzenK2HAIJSb'
p1235
(dp1236
g3
S'Fifth Harmony'
p1237
sg5
I7
sg6
S'https://open.spotify.com/track/4tCtwWceOPWzenK2HAIJSb'
p1238
sg8
S'Work from Home'
p1239
ssS'2SivUkzgql54t0O4dH1b7O'
p1240
(dp1241
g3
S'TWICE'
p1242
sg5
I1
sg6
S'https://open.spotify.com/track/2SivUkzgql54t0O4dH1b7O'
p1243
sg8
S'Like OOH-AHH'
p1244
ssS'31FaowDBExlcRt5DHIXOkQ'
p1245
(dp1246
g3
S'Masaki Suda'
p1247
sg5
I7
sg6
S'https://open.spotify.com/track/31FaowDBExlcRt5DHIXOkQ'
p1248
sg8
S'Mitakotomonaikeshiki'
p1249
ssS'2Dovl1obNCp8nJoTT6oJOF'
p1250
(dp1251
g3
S'Ringo Sheena'
p1252
sg5
I1
sg6
S'https://open.spotify.com/track/2Dovl1obNCp8nJoTT6oJOF'
p1253
sg8
S'\xe3\x81\x8a\xe3\x81\x84\xe3\x81\x97\xe3\x81\x84\xe5\xad\xa3\xe7\xaf\x80'
p1254
ssS'4u3qi4mgvCQzeTSIuUWHzl'
p1255
(dp1256
g3
S'ONE OK ROCK'
p1257
sg5
I2
sg6
S'https://open.spotify.com/track/4u3qi4mgvCQzeTSIuUWHzl'
p1258
sg8
S'Take What You Want (feat. 5 Seconds of Summer)'
p1259
ssS'5nq1uTNIR1cBR72T87viS0'
p1260
(dp1261
g3
S'BTS'
p1262
sg5
I4
sg6
S'https://open.spotify.com/track/5nq1uTNIR1cBR72T87viS0'
p1263
sg8
S'Go Go'
p1264
ssS'2tdq0CeAGSfhI2l4Gwkvgx'
p1265
(dp1266
g3
S'BTS'
p1267
sg5
I4
sg6
S'https://open.spotify.com/track/2tdq0CeAGSfhI2l4Gwkvgx'
p1268
sg8
S'Best Of Me'
p1269
ssS'3hB5DgAiMAQ4DzYbsMq1IT'
p1270
(dp1271
g3
S'Justin Bieber'
p1272
sg5
I7
sg6
S'https://open.spotify.com/track/3hB5DgAiMAQ4DzYbsMq1IT'
p1273
sg8
S'Love Yourself'
p1274
ssS'7FyHSAzfTFu88aDOpOIVtH'
p1275
(dp1276
g3
S'Dai Hirai'
p1277
sg5
I7
sg6
S'https://open.spotify.com/track/7FyHSAzfTFu88aDOpOIVtH'
p1278
sg8
S'Story of Our Life'
p1279
ssS'3PEgB3fkiojxms35ntsTgs'
p1280
(dp1281
g3
S'Axwell /\\ Ingrosso'
p1282
sg5
I7
sg6
S'https://open.spotify.com/track/3PEgB3fkiojxms35ntsTgs'
p1283
sg8
S'More Than You Know'
p1284
ssS'0kN8xEmgMW9mh7UmDYHlJP'
p1285
(dp1286
g3
S'Bruno Mars'
p1287
sg5
I7
sg6
S'https://open.spotify.com/track/0kN8xEmgMW9mh7UmDYHlJP'
p1288
sg8
S'Versace On The Floor'
p1289
ssS'1dB06EmjB6NyftV1pxq6Qk'
p1290
(dp1291
g3
S'BLACKPINK'
p1292
sg5
I7
sg6
S'https://open.spotify.com/track/1dB06EmjB6NyftV1pxq6Qk'
p1293
sg8
S'BOOMBAYAH'
p1294
ssS'2k84FgJC2Qbj8lRf0lp1Qn'
p1295
(dp1296
g3
S'Ketsumeishi'
p1297
sg5
I7
sg6
S'https://open.spotify.com/track/2k84FgJC2Qbj8lRf0lp1Qn'
p1298
sg8
S'\xe3\x81\xaf\xe3\x81\x98\xe3\x81\xbe\xe3\x82\x8a\xe3\x81\xae\xe4\xba\x88\xe6\x84\x9f'
p1299
ssS'2cnKEkpVUSV4wnjQiTWfH6'
p1300
(dp1301
g3
S'Wisin'
p1302
sg5
I1
sg6
S'https://open.spotify.com/track/2cnKEkpVUSV4wnjQiTWfH6'
p1303
sg8
S'Esc\xc3\xa1pate Conmigo'
p1304
ssS'7yHEDfrJNd0zWOfXwydNH0'
p1305
(dp1306
g3
S'Ariana Grande'
p1307
sg5
I7
sg6
S'https://open.spotify.com/track/7yHEDfrJNd0zWOfXwydNH0'
p1308
sg8
S'Into You'
p1309
ssS'7AQim7LbvFVZJE3O8TYgf2'
p1310
(dp1311
g3
S'XXXTENTACION'
p1312
sg5
I2
sg6
S'https://open.spotify.com/track/7AQim7LbvFVZJE3O8TYgf2'
p1313
sg8
S'Fuck Love (feat. Trippie Redd)'
p1314
ssS'0PAyiPTz8gL0udQnSasc5G'
p1315
(dp1316
g3
S'TWICE'
p1317
sg5
I7
sg6
S'https://open.spotify.com/track/0PAyiPTz8gL0udQnSasc5G'
p1318
sg8
S'TT - Japanese ver.'
p1319
ssS'3IIRfFYKHPYTgKHw3oJUVn'
p1320
(dp1321
g3
S'RIRI'
p1322
sg5
I1
sg6
S'https://open.spotify.com/track/3IIRfFYKHPYTgKHw3oJUVn'
p1323
sg8
S'RUSH'
p1324
ssS'68EMU2RD1ECNeOeJ5qAXCV'
p1325
(dp1326
g3
S'Charlie Puth'
p1327
sg5
I7
sg6
S'https://open.spotify.com/track/68EMU2RD1ECNeOeJ5qAXCV'
p1328
sg8
S"We Don't Talk Anymore (feat. Selena Gomez)"
p1329
ssS'5OepnJhqZoyJN8qWo2LZzy'
p1330
(dp1331
g3
S'BLACKPINK'
p1332
sg5
I6
sg6
S'https://open.spotify.com/track/5OepnJhqZoyJN8qWo2LZzy'
p1333
sg8
S'PLAYING WITH FIRE - KR Ver.'
p1334
ssS'6eUncuJutsFi9BGO1JaBHh'
p1335
(dp1336
g3
S'Jason Derulo'
p1337
sg5
I5
sg6
S'https://open.spotify.com/track/6eUncuJutsFi9BGO1JaBHh'
p1338
sg8
S"If I'm Lucky"
p1339
ssS'1RGmoxDK77rPBGUNQbHKLW'
p1340
(dp1341
g3
S'AAA'
p1342
sg5
I2
sg6
S'https://open.spotify.com/track/1RGmoxDK77rPBGUNQbHKLW'
p1343
sg8
S'No Way Back'
p1344
ssS'31MkGwj0SWgZaTvEt5Hgxv'
p1345
(dp1346
g3
S'P!nk'
p1347
sg5
I7
sg6
S'https://open.spotify.com/track/31MkGwj0SWgZaTvEt5Hgxv'
p1348
sg8
S'What About Us'
p1349
ss.