(dp0
S'46jLy47W8rkf8rEX04gMKB'
p1
(dp2
S'artistName'
p3
S'OneRepublic'
p4
sS'weeksOnChart'
p5
I1
sS'track_href'
p6
S'https://open.spotify.com/track/46jLy47W8rkf8rEX04gMKB'
p7
sS'songName'
p8
S'Wherever I Go'
p9
ssS'0mel2N9Ws9r4yLQn5QE21Y'
p10
(dp11
g3
S'Sam Smith'
p12
sg5
I5
sg6
S'https://open.spotify.com/track/0mel2N9Ws9r4yLQn5QE21Y'
p13
sg8
S'Too Good At Goodbyes'
p14
ssS'728zbo72kOoYdGR3AhNsyF'
p15
(dp16
g3
S'The xx'
p17
sg5
I1
sg6
S'https://open.spotify.com/track/728zbo72kOoYdGR3AhNsyF'
p18
sg8
S'Say Something Loving'
p19
ssS'13e6f8t7RKXuxZ0JdaaJRG'
p20
(dp21
g3
S'Drake'
p22
sg5
I3
sg6
S'https://open.spotify.com/track/13e6f8t7RKXuxZ0JdaaJRG'
p23
sg8
S'Jorja Interlude'
p24
ssS'1Q1Lz8shbr2AXR8zKReTqd'
p25
(dp26
g3
S'Hearts & Colors'
p27
sg5
I1
sg6
S'https://open.spotify.com/track/1Q1Lz8shbr2AXR8zKReTqd'
p28
sg8
S'For The Love'
p29
ssS'0jdny0dhgjUwoIp5GkqEaA'
p30
(dp31
g3
S'Kesha'
p32
sg5
I5
sg6
S'https://open.spotify.com/track/0jdny0dhgjUwoIp5GkqEaA'
p33
sg8
S'Praying'
p34
ssS'60a0Rd6pjrkxjPbaKzXjfq'
p35
(dp36
g3
S'Linkin Park'
p37
sg5
I8
sg6
S'https://open.spotify.com/track/60a0Rd6pjrkxjPbaKzXjfq'
p38
sg8
S'In The End'
p39
ssS'0prNGof3XqfTvNDxHonvdK'
p40
(dp41
g3
S'Alessia Cara'
p42
sg5
I19
sg6
S'https://open.spotify.com/track/0prNGof3XqfTvNDxHonvdK'
p43
sg8
S'Scars To Your Beautiful'
p44
ssS'186cTlQUs30b246S06XczN'
p45
(dp46
g3
S'Giorgos Sabanis'
p47
sg5
I30
sg6
S'https://open.spotify.com/track/186cTlQUs30b246S06XczN'
p48
sg8
S'Min Anisiheis'
p49
ssS'6HUnnBwYZqcED1eQztxMBN'
p50
(dp51
g3
S'Martin Jensen'
p52
sg5
I42
sg6
S'https://open.spotify.com/track/6HUnnBwYZqcED1eQztxMBN'
p53
sg8
S'Solo Dance'
p54
ssS'4pYZLpX23Vx8rwDpJCpPTA'
p55
(dp56
g3
S'Rich The Kid'
p57
sg5
I2
sg6
S'https://open.spotify.com/track/4pYZLpX23Vx8rwDpJCpPTA'
p58
sg8
S'New Freezer (feat. Kendrick Lamar)'
p59
ssS'6hmhG1b4LEyNuashVvuIAo'
p60
(dp61
g3
S'Zara Larsson'
p62
sg5
I4
sg6
S'https://open.spotify.com/track/6hmhG1b4LEyNuashVvuIAo'
p63
sg8
S'Never Forget You'
p64
ssS'0F1Rc18rZcJOALxIIQPTYd'
p65
(dp66
g3
S'Maty Noyes'
p67
sg5
I1
sg6
S'https://open.spotify.com/track/0F1Rc18rZcJOALxIIQPTYd'
p68
sg8
S'in my miNd'
p69
ssS'3QWjljChcOMkRDYSzF33Qr'
p70
(dp71
g3
S'Kiiara'
p72
sg5
I21
sg6
S'https://open.spotify.com/track/3QWjljChcOMkRDYSzF33Qr'
p73
sg8
S'Whippin (feat. Felix Snow)'
p74
ssS'0lLdorYw7lVrJydTINhWdI'
p75
(dp76
g3
S'Michael Bubl\xc3\xa9'
p77
sg5
I1
sg6
S'https://open.spotify.com/track/0lLdorYw7lVrJydTINhWdI'
p78
sg8
S"It's Beginning To Look A Lot Like Christmas"
p79
ssS'1OAh8uOEOvTDqkKFsKksCi'
p80
(dp81
g3
S'DJ Khaled'
p82
sg5
I17
sg6
S'https://open.spotify.com/track/1OAh8uOEOvTDqkKFsKksCi'
p83
sg8
S'Wild Thoughts'
p84
ssS'2aksifNn5ph8igDOkPBA02'
p85
(dp86
g3
S'Rihanna'
p87
sg5
I40
sg6
S'https://open.spotify.com/track/2aksifNn5ph8igDOkPBA02'
p88
sg8
S'Love On The Brain'
p89
ssS'5o4yGlG0PfeVUa6ClIyOxq'
p90
(dp91
g3
S'Charli XCX'
p92
sg5
I2
sg6
S'https://open.spotify.com/track/5o4yGlG0PfeVUa6ClIyOxq'
p93
sg8
S'Boys'
p94
ssS'7zxRMhXxJMQCeDDg0rKAVo'
p95
(dp96
g3
S'NAV'
p97
sg5
I1
sg6
S'https://open.spotify.com/track/7zxRMhXxJMQCeDDg0rKAVo'
p98
sg8
S'Some Way'
p99
ssS'7wGoVu4Dady5GV0Sv4UIsx'
p100
(dp101
g3
S'Post Malone'
p102
sg5
I1
sg6
S'https://open.spotify.com/track/7wGoVu4Dady5GV0Sv4UIsx'
p103
sg8
S'rockstar'
p104
ssS'0V9cosR5jWa4fr2koARmhD'
p105
(dp106
g3
S'ItaloBrothers'
p107
sg5
I5
sg6
S'https://open.spotify.com/track/0V9cosR5jWa4fr2koARmhD'
p108
sg8
S'Summer Air'
p109
ssS'7KcGEssn7BnJdTgildK5y0'
p110
(dp111
g3
S'Nicki Minaj'
p112
sg5
I11
sg6
S'https://open.spotify.com/track/7KcGEssn7BnJdTgildK5y0'
p113
sg8
S'No Frauds'
p114
ssS'1CnPYaKxTVb4LWOtiGOm0m'
p115
(dp116
g3
S'Jon Bellion'
p117
sg5
I16
sg6
S'https://open.spotify.com/track/1CnPYaKxTVb4LWOtiGOm0m'
p118
sg8
S'All Time Low'
p119
ssS'60xaS8mYBKUW4VQQ666N0T'
p120
(dp121
g3
S'Chance The Rapper'
p122
sg5
I5
sg6
S'https://open.spotify.com/track/60xaS8mYBKUW4VQQ666N0T'
p123
sg8
S'All Night (feat. Knox Fortune)'
p124
ssS'6Pw3Gvw4wNMZfTYZa6IQal'
p125
(dp126
g3
S'Bebe Rexha'
p127
sg5
I8
sg6
S'https://open.spotify.com/track/6Pw3Gvw4wNMZfTYZa6IQal'
p128
sg8
S'The Way I Are (Dance With Somebody) [feat. Lil Wayne]'
p129
ssS'2FRnf9qhLbvw8fu4IBXx78'
p130
(dp131
g3
S'Wham!'
p132
sg5
I2
sg6
S'https://open.spotify.com/track/2FRnf9qhLbvw8fu4IBXx78'
p133
sg8
S'Last Christmas'
p134
ssS'7tr2za8SQg2CI8EDgrdtNl'
p135
(dp136
g3
S'Calvin Harris'
p137
sg5
I28
sg6
S'https://open.spotify.com/track/7tr2za8SQg2CI8EDgrdtNl'
p138
sg8
S'Slide'
p139
ssS'7zVCrzzEJU7u24sbJPXA5W'
p140
(dp141
g3
S'Kane Brown'
p142
sg5
I1
sg6
S'https://open.spotify.com/track/7zVCrzzEJU7u24sbJPXA5W'
p143
sg8
S'What Ifs'
p144
ssS'44n97yHySt0Z9rqPaXgjCK'
p145
(dp146
g3
S'Halsey'
p147
sg5
I1
sg6
S'https://open.spotify.com/track/44n97yHySt0Z9rqPaXgjCK'
p148
sg8
S'Sorry'
p149
ssS'40oKW22ZNNkEdZLJTScaQI'
p150
(dp151
g3
S'Kodak Black'
p152
sg5
I7
sg6
S'https://open.spotify.com/track/40oKW22ZNNkEdZLJTScaQI'
p153
sg8
S'Roll In Peace (feat. XXXTENTACION)'
p154
ssS'4Wet0hdxLfg6wN2LUZ9hzs'
p155
(dp156
g3
S'\xce\x9d\xce\xaf\xce\xba\xce\xbf\xcf\x82 \xce\x9f\xce\xb9\xce\xba\xce\xbf\xce\xbd\xce\xbf\xce\xbc\xcf\x8c\xcf\x80\xce\xbf\xcf\x85\xce\xbb\xce\xbf\xcf\x82'
p157
sg5
I12
sg6
S'https://open.spotify.com/track/4Wet0hdxLfg6wN2LUZ9hzs'
p158
sg8
S'O Haraktiras'
p159
ssS'25khomWgBVamSdKw7hzm3l'
p160
(dp161
g3
S'The Weeknd'
p162
sg5
I19
sg6
S'https://open.spotify.com/track/25khomWgBVamSdKw7hzm3l'
p163
sg8
S'The Hills'
p164
ssS'06FCvd7rrRcF3DdvWH5Isp'
p165
(dp166
g3
S'Kendrick Lamar'
p167
sg5
I4
sg6
S'https://open.spotify.com/track/06FCvd7rrRcF3DdvWH5Isp'
p168
sg8
S'LUST.'
p169
ssS'4pLwZjInHj3SimIyN9SnOz'
p170
(dp171
g3
S'Ariana Grande'
p172
sg5
I42
sg6
S'https://open.spotify.com/track/4pLwZjInHj3SimIyN9SnOz'
p173
sg8
S'Side To Side'
p174
ssS'0TEOunZoX7nLnt7SRd2g48'
p175
(dp176
g3
S'Demy'
p177
sg5
I3
sg6
S'https://open.spotify.com/track/0TEOunZoX7nLnt7SRd2g48'
p178
sg8
S'This Is Love'
p179
ssS'6C7RJEIUDqKkJRZVWdkfkH'
p180
(dp181
g3
S'Kanye West'
p182
sg5
I14
sg6
S'https://open.spotify.com/track/6C7RJEIUDqKkJRZVWdkfkH'
p183
sg8
S'Stronger'
p184
ssS'3E2Zh20GDCR9B1EYjfXWyv'
p185
(dp186
g3
S'AJR'
p187
sg5
I20
sg6
S'https://open.spotify.com/track/3E2Zh20GDCR9B1EYjfXWyv'
p188
sg8
S'Weak'
p189
ssS'2Gl0FzuLxflY6nPifJp5Dr'
p190
(dp191
g3
S'Kygo'
p192
sg5
I24
sg6
S'https://open.spotify.com/track/2Gl0FzuLxflY6nPifJp5Dr'
p193
sg8
S'First Time'
p194
ssS'0xl1w2q4VLojeXp4JfazPL'
p195
(dp196
g3
S'Drake'
p197
sg5
I4
sg6
S'https://open.spotify.com/track/0xl1w2q4VLojeXp4JfazPL'
p198
sg8
S'Sacrifices'
p199
ssS'5YCqzqb6yN6TsMOHb4FSVw'
p200
(dp201
g3
S'Kristian Kostov'
p202
sg5
I3
sg6
S'https://open.spotify.com/track/5YCqzqb6yN6TsMOHb4FSVw'
p203
sg8
S'Beautiful Mess'
p204
ssS'4BHzQ9C00ceJxfG16AlNWb'
p205
(dp206
g3
S'Adele'
p207
sg5
I13
sg6
S'https://open.spotify.com/track/4BHzQ9C00ceJxfG16AlNWb'
p208
sg8
S'Send My Love (To Your New Lover)'
p209
ssS'4Km5HrUvYTaSUfiSGPJeQR'
p210
(dp211
g3
S'Migos'
p212
sg5
I42
sg6
S'https://open.spotify.com/track/4Km5HrUvYTaSUfiSGPJeQR'
p213
sg8
S'Bad and Boujee (feat. Lil Uzi Vert)'
p214
ssS'50PWlIBU7PlGGwzgN8TiFJ'
p215
(dp216
g3
S'Lady Gaga'
p217
sg5
I12
sg6
S'https://open.spotify.com/track/50PWlIBU7PlGGwzgN8TiFJ'
p218
sg8
S'Million Reasons'
p219
ssS'2RttW7RAu5nOAfq6YFvApB'
p220
(dp221
g3
S'Ed Sheeran'
p222
sg5
I10
sg6
S'https://open.spotify.com/track/2RttW7RAu5nOAfq6YFvApB'
p223
sg8
S'Happier'
p224
ssS'0RYXEibxMami3QuT8kn4Iz'
p225
(dp226
g3
S'Macklemore'
p227
sg5
I4
sg6
S'https://open.spotify.com/track/0RYXEibxMami3QuT8kn4Iz'
p228
sg8
S'Marmalade (feat. Lil Yachty)'
p229
ssS'5LYQSNHZxEA880URXFHg6h'
p230
(dp231
g3
S'Lana Del Rey'
p232
sg5
I12
sg6
S'https://open.spotify.com/track/5LYQSNHZxEA880URXFHg6h'
p233
sg8
S'Lust for Life (with The Weeknd)'
p234
ssS'3EmmCZoqpWOTY1g2GBwJoR'
p235
(dp236
g3
S'Steve Aoki'
p237
sg5
I16
sg6
S'https://open.spotify.com/track/3EmmCZoqpWOTY1g2GBwJoR'
p238
sg8
S'Just Hold On'
p239
ssS'2Ce5IyMlVRVvN997ZJjJJA'
p240
(dp241
g3
S'Future'
p242
sg5
I18
sg6
S'https://open.spotify.com/track/2Ce5IyMlVRVvN997ZJjJJA'
p243
sg8
S'Selfish'
p244
ssS'69uCmYNvkqnvIpyTKJXZ5P'
p245
(dp246
g3
S'Hot Shade'
p247
sg5
I3
sg6
S'https://open.spotify.com/track/69uCmYNvkqnvIpyTKJXZ5P'
p248
sg8
S'Better'
p249
ssS'6Zosz8w6CmdGMZM6p4JlbQ'
p250
(dp251
g3
S'Danny Ocean'
p252
sg5
I2
sg6
S'https://open.spotify.com/track/6Zosz8w6CmdGMZM6p4JlbQ'
p253
sg8
S'Me Reh\xc3\xbaso'
p254
ssS'6zLdXcmvIxnAXpz9sXFnIE'
p255
(dp256
g3
S'Thomas Rhett'
p257
sg5
I5
sg6
S'https://open.spotify.com/track/6zLdXcmvIxnAXpz9sXFnIE'
p258
sg8
S'Craving You'
p259
ssS'6u0oHknFYrnUd42A6rvFly'
p260
(dp261
g3
S'Ed Sheeran'
p262
sg5
I1
sg6
S'https://open.spotify.com/track/6u0oHknFYrnUd42A6rvFly'
p263
sg8
S'Sing'
p264
ssS'5V3mdRI2yQxbSsJGDPc5lD'
p265
(dp266
g3
S'System Of A Down'
p267
sg5
I2
sg6
S'https://open.spotify.com/track/5V3mdRI2yQxbSsJGDPc5lD'
p268
sg8
S'Chop Suey!'
p269
ssS'0gbBzIqrECJOEPvQJIBFs5'
p270
(dp271
g3
S'Lorde'
p272
sg5
I13
sg6
S'https://open.spotify.com/track/0gbBzIqrECJOEPvQJIBFs5'
p273
sg8
S'Green Light'
p274
ssS'3VRk65lHSwqd90TAkQqhvB'
p275
(dp276
g3
S'Katy Perry'
p277
sg5
I2
sg6
S'https://open.spotify.com/track/3VRk65lHSwqd90TAkQqhvB'
p278
sg8
S'Swish Swish'
p279
ssS'7KlTFTpy7dXLzr2NtLkvG6'
p280
(dp281
g3
S'BTS'
p282
sg5
I1
sg6
S'https://open.spotify.com/track/7KlTFTpy7dXLzr2NtLkvG6'
p283
sg8
S'Not Today'
p284
ssS'5eqK0tbzUPo2SoeZsov04s'
p285
(dp286
g3
S'21 Savage'
p287
sg5
I11
sg6
S'https://open.spotify.com/track/5eqK0tbzUPo2SoeZsov04s'
p288
sg8
S'Bank Account'
p289
ssS'5tz69p7tJuGPeMGwNTxYuV'
p290
(dp291
g3
S'Logic'
p292
sg5
I23
sg6
S'https://open.spotify.com/track/5tz69p7tJuGPeMGwNTxYuV'
p293
sg8
S'1-800-273-8255'
p294
ssS'1uL78kFWxhz3umTMWJu8n5'
p295
(dp296
g3
S'Lil Uzi Vert'
p297
sg5
I5
sg6
S'https://open.spotify.com/track/1uL78kFWxhz3umTMWJu8n5'
p298
sg8
S'Sauce It Up'
p299
ssS'4iYRa2btalAzPZoSYfROqF'
p300
(dp301
g3
S'Kendrick Lamar'
p302
sg5
I4
sg6
S'https://open.spotify.com/track/4iYRa2btalAzPZoSYfROqF'
p303
sg8
S'XXX. FEAT. U2.'
p304
ssS'4xlrALxuaCf9yZBHJeTSG6'
p305
(dp306
g3
S'Jonas Blue'
p307
sg5
I9
sg6
S'https://open.spotify.com/track/4xlrALxuaCf9yZBHJeTSG6'
p308
sg8
S'Mama'
p309
ssS'6Nle9hKrkL1wQpwNfEkxjh'
p310
(dp311
g3
S'Frank Ocean'
p312
sg5
I2
sg6
S'https://open.spotify.com/track/6Nle9hKrkL1wQpwNfEkxjh'
p313
sg8
S'Chanel'
p314
ssS'4izg6Hydc6XGErWW6nbdsV'
p315
(dp316
g3
S'Imagine Dragons'
p317
sg5
I3
sg6
S'https://open.spotify.com/track/4izg6Hydc6XGErWW6nbdsV'
p318
sg8
S'Whatever It Takes'
p319
ssS'2oUuLLKS8WbF7ELJcwbqms'
p320
(dp321
g3
S'XXXTENTACION'
p322
sg5
I1
sg6
S'https://open.spotify.com/track/2oUuLLKS8WbF7ELJcwbqms'
p323
sg8
S'Look at Me!'
p324
ssS'3pzjHKrQSvXGHQ98dx18HI'
p325
(dp326
g3
S'Justin Bieber'
p327
sg5
I1
sg6
S'https://open.spotify.com/track/3pzjHKrQSvXGHQ98dx18HI'
p328
sg8
S'What Do You Mean?'
p329
ssS'000xQL6tZNLJzIrtIgxqSl'
p330
(dp331
g3
S'ZAYN'
p332
sg5
I28
sg6
S'https://open.spotify.com/track/000xQL6tZNLJzIrtIgxqSl'
p333
sg8
S'Still Got Time'
p334
ssS'2FBUoWkIuQXwayw2RNo5l6'
p335
(dp336
g3
S'Drake'
p337
sg5
I12
sg6
S'https://open.spotify.com/track/2FBUoWkIuQXwayw2RNo5l6'
p338
sg8
S'Hotline Bling'
p339
ssS'1D3ODoXHBLpdxolZRHWV1j'
p340
(dp341
g3
S'Jonas Blue'
p342
sg5
I8
sg6
S'https://open.spotify.com/track/1D3ODoXHBLpdxolZRHWV1j'
p343
sg8
S'By Your Side'
p344
ssS'1CKd1PnqfYx0H12V9MSaIY'
p345
(dp346
g3
S'Zedd'
p347
sg5
I14
sg6
S'https://open.spotify.com/track/1CKd1PnqfYx0H12V9MSaIY'
p348
sg8
S'Get Low (with Liam Payne)'
p349
ssS'5c4tB0saSkNHX5CyDosuF7'
p350
(dp351
g3
S'Burak Yeter'
p352
sg5
I2
sg6
S'https://open.spotify.com/track/5c4tB0saSkNHX5CyDosuF7'
p353
sg8
S'Tuesday'
p354
ssS'042x9bsUBWW2fJgJ6fUh61'
p355
(dp356
g3
S'DVBBS'
p357
sg5
I13
sg6
S'https://open.spotify.com/track/042x9bsUBWW2fJgJ6fUh61'
p358
sg8
S'Not Going Home'
p359
ssS'5Z01UMMf7V1o0MzF86s6WJ'
p360
(dp361
g3
S'Eminem'
p362
sg5
I42
sg6
S'https://open.spotify.com/track/5Z01UMMf7V1o0MzF86s6WJ'
p363
sg8
S'Lose Yourself - Soundtrack Version'
p364
ssS'5CtI0qwDJkDQGwXD1H1cLb'
p365
(dp366
g3
S'Luis Fonsi'
p367
sg5
I26
sg6
S'https://open.spotify.com/track/5CtI0qwDJkDQGwXD1H1cLb'
p368
sg8
S'Despacito - Remix'
p369
ssS'7m9OqQk4RVRkw9JJdeAw96'
p370
(dp371
g3
S'XXXTENTACION'
p372
sg5
I7
sg6
S'https://open.spotify.com/track/7m9OqQk4RVRkw9JJdeAw96'
p373
sg8
S'Jocelyn Flores'
p374
ssS'4vTsOYAocjaslUONkx2YS3'
p375
(dp376
g3
S'Halsey'
p377
sg5
I1
sg6
S'https://open.spotify.com/track/4vTsOYAocjaslUONkx2YS3'
p378
sg8
S'Angel On Fire'
p379
ssS'2T6nXlX0TP5RsZGLRfuf3t'
p380
(dp381
g3
S'Nikos Ikonomopoulos'
p382
sg5
I14
sg6
S'https://open.spotify.com/track/2T6nXlX0TP5RsZGLRfuf3t'
p383
sg8
S'Ine Kati Laika'
p384
ssS'7JhTr0G0gr3ESY3B9uqPi4'
p385
(dp386
g3
S'Muse'
p387
sg5
I1
sg6
S'https://open.spotify.com/track/7JhTr0G0gr3ESY3B9uqPi4'
p388
sg8
S'Dig Down'
p389
ssS'1N90cV79gbBgO0bOs74Y0t'
p390
(dp391
g3
S'Calvin Harris'
p392
sg5
I1
sg6
S'https://open.spotify.com/track/1N90cV79gbBgO0bOs74Y0t'
p393
sg8
S'Heatstroke'
p394
ssS'0NyOeqzqjVM9j7IuWp2oJ6'
p395
(dp396
g3
S'Gryffin'
p397
sg5
I17
sg6
S'https://open.spotify.com/track/0NyOeqzqjVM9j7IuWp2oJ6'
p398
sg8
S'Feel Good (feat. Daya)'
p399
ssS'4b4KcovePX8Ke2cLIQTLM0'
p400
(dp401
g3
S'The Vamps'
p402
sg5
I4
sg6
S'https://open.spotify.com/track/4b4KcovePX8Ke2cLIQTLM0'
p403
sg8
S'All Night'
p404
ssS'0xG0SHshCStMEyNbNC5d4k'
p405
(dp406
g3
S'Julia Michaels'
p407
sg5
I9
sg6
S'https://open.spotify.com/track/0xG0SHshCStMEyNbNC5d4k'
p408
sg8
S'Issues'
p409
ssS'3zJw3rugfpVrmBeDDnUYzy'
p410
(dp411
g3
S'John Lennon'
p412
sg5
I1
sg6
S'https://open.spotify.com/track/3zJw3rugfpVrmBeDDnUYzy'
p413
sg8
S'Happy Xmas (War Is Over) - 2010 Digital Remaster'
p414
ssS'4eNFLMnxa4fgMVBCCPcIkc'
p415
(dp416
g3
S'Marina Satti'
p417
sg5
I1
sg6
S'https://open.spotify.com/track/4eNFLMnxa4fgMVBCCPcIkc'
p418
sg8
S'\xce\x9a\xce\xbf\xcf\x8d\xcf\x80\xce\xb5\xcf\x82'
p419
ssS'1a5Yu5L18qNxVhXx38njON'
p420
(dp421
g3
S'Alok'
p422
sg5
I21
sg6
S'https://open.spotify.com/track/1a5Yu5L18qNxVhXx38njON'
p423
sg8
S'Hear Me Now'
p424
ssS'1Eck97uRMlprKOOJN9oO1E'
p425
(dp426
g3
S'G-Eazy'
p427
sg5
I15
sg6
S'https://open.spotify.com/track/1Eck97uRMlprKOOJN9oO1E'
p428
sg8
S'Good Life (with G-Eazy & Kehlani)'
p429
ssS'7ARveOiD31w2Nq0n5FsSf8'
p430
(dp431
g3
S'Lorde'
p432
sg5
I1
sg6
S'https://open.spotify.com/track/7ARveOiD31w2Nq0n5FsSf8'
p433
sg8
S'Perfect Places'
p434
ssS'2ekn2ttSfGqwhhate0LSR0'
p435
(dp436
g3
S'Dua Lipa'
p437
sg5
I15
sg6
S'https://open.spotify.com/track/2ekn2ttSfGqwhhate0LSR0'
p438
sg8
S'New Rules'
p439
ssS'0y1QJc3SJVPKJ1OvFmFqe6'
p440
(dp441
g3
S'Kaleo'
p442
sg5
I35
sg6
S'https://open.spotify.com/track/0y1QJc3SJVPKJ1OvFmFqe6'
p443
sg8
S'Way Down We Go'
p444
ssS'5humEOJehpAwMJEJmb0JJ2'
p445
(dp446
g3
S'Nat King Cole'
p447
sg5
I1
sg6
S'https://open.spotify.com/track/5humEOJehpAwMJEJmb0JJ2'
p448
sg8
S'The Christmas Song (Merry Christmas To You)'
p449
ssS'2dfqS3MRtbLZSZA1IL8xY5'
p450
(dp451
g3
S'Drake'
p452
sg5
I3
sg6
S'https://open.spotify.com/track/2dfqS3MRtbLZSZA1IL8xY5'
p453
sg8
S'Skepta Interlude'
p454
ssS'1sCxVKWImDZSZKvG0U9B23'
p455
(dp456
g3
S'Selena Gomez'
p457
sg5
I21
sg6
S'https://open.spotify.com/track/1sCxVKWImDZSZKvG0U9B23'
p458
sg8
S'Bad Liar'
p459
ssS'6i759FCuKx713ZnYjtpQGU'
p460
(dp461
g3
S'The Weeknd'
p462
sg5
I12
sg6
S'https://open.spotify.com/track/6i759FCuKx713ZnYjtpQGU'
p463
sg8
S'True Colors'
p464
ssS'7nns9KjsadA1Cx7as2eGNG'
p465
(dp466
g3
S'Lana Del Rey'
p467
sg5
I1
sg6
S'https://open.spotify.com/track/7nns9KjsadA1Cx7as2eGNG'
p468
sg8
S'God Bless America - And All The Beautiful Women In It'
p469
ssS'6jmngk8Fwup05JZ6kgXEGX'
p470
(dp471
g3
S'Imagine Dragons'
p472
sg5
I1
sg6
S'https://open.spotify.com/track/6jmngk8Fwup05JZ6kgXEGX'
p473
sg8
S'Walking The Wire'
p474
ssS'3sJHkcxojoJD2Ytbo1yLLF'
p475
(dp476
g3
S'Moon Taxi'
p477
sg5
I13
sg6
S'https://open.spotify.com/track/3sJHkcxojoJD2Ytbo1yLLF'
p478
sg8
S'Two High'
p479
ssS'2uSLx5uwRIhiA3sJJraNqX'
p480
(dp481
g3
S'Maroon 5'
p482
sg5
I1
sg6
S'https://open.spotify.com/track/2uSLx5uwRIhiA3sJJraNqX'
p483
sg8
S'Help Me Out (with Julia Michaels)'
p484
ssS'0G149jkGWKwrPXUGkEDgWM'
p485
(dp486
g3
S'21 Savage'
p487
sg5
I6
sg6
S'https://open.spotify.com/track/0G149jkGWKwrPXUGkEDgWM'
p488
sg8
S'Numb'
p489
ssS'0ADG9OgdVTL7fgREP75BrZ'
p490
(dp491
g3
S'Zara Larsson'
p492
sg5
I16
sg6
S'https://open.spotify.com/track/0ADG9OgdVTL7fgREP75BrZ'
p493
sg8
S"Ain't My Fault"
p494
ssS'6Q2FftbUG530lCtBI74bMH'
p495
(dp496
g3
S'A Boogie Wit da Hoodie'
p497
sg5
I11
sg6
S'https://open.spotify.com/track/6Q2FftbUG530lCtBI74bMH'
p498
sg8
S'Drowning (feat. Kodak Black)'
p499
ssS'7vAXN57IQ0sj049wZGIboE'
p500
(dp501
g3
S'Imagine Dragons'
p502
sg5
I1
sg6
S'https://open.spotify.com/track/7vAXN57IQ0sj049wZGIboE'
p503
sg8
S'Rise Up'
p504
ssS'2bDXmdP23tCK9uj8e2o3ya'
p505
(dp506
g3
S'Halsey'
p507
sg5
I1
sg6
S'https://open.spotify.com/track/2bDXmdP23tCK9uj8e2o3ya'
p508
sg8
S'Devil In Me'
p509
ssS'3TRFq09DUgYj1mug6RRqJW'
p510
(dp511
g3
S'Luke Christopher'
p512
sg5
I14
sg6
S'https://open.spotify.com/track/3TRFq09DUgYj1mug6RRqJW'
p513
sg8
S'Lot to Learn'
p514
ssS'6s2wpWPFPAgKg2LXxi1Oee'
p515
(dp516
g3
S'Bruce Springsteen'
p517
sg5
I1
sg6
S'https://open.spotify.com/track/6s2wpWPFPAgKg2LXxi1Oee'
p518
sg8
S"Santa Claus Is Comin' to Town - Single Version"
p519
ssS'2oaK4JLVnmRGIO9ytBE1bt'
p520
(dp521
g3
S'Red Hot Chili Peppers'
p522
sg5
I1
sg6
S'https://open.spotify.com/track/2oaK4JLVnmRGIO9ytBE1bt'
p523
sg8
S'Dark Necessities'
p524
ssS'1rIKgCH4H52lrvDcz50hS8'
p525
(dp526
g3
S'Zara Larsson'
p527
sg5
I23
sg6
S'https://open.spotify.com/track/1rIKgCH4H52lrvDcz50hS8'
p528
sg8
S'Lush Life'
p529
ssS'76gUmNLXGQVOsGhfcshkFP'
p530
(dp531
g3
S'Drake'
p532
sg5
I3
sg6
S'https://open.spotify.com/track/76gUmNLXGQVOsGhfcshkFP'
p533
sg8
S'Madiba Riddim'
p534
ssS'7vGuf3Y35N4wmASOKLUVVU'
p535
(dp536
g3
S'Marshmello'
p537
sg5
I9
sg6
S'https://open.spotify.com/track/7vGuf3Y35N4wmASOKLUVVU'
p538
sg8
S'Silence'
p539
ssS'3EfugazgSddQvzZpkof5I4'
p540
(dp541
g3
S'Anne-Marie'
p542
sg5
I7
sg6
S'https://open.spotify.com/track/3EfugazgSddQvzZpkof5I4'
p543
sg8
S'Ciao Adios'
p544
ssS'0xPaZrF25ltzvz1a2Pm5DQ'
p545
(dp546
g3
S'Michael Bubl\xc3\xa9'
p547
sg5
I1
sg6
S'https://open.spotify.com/track/0xPaZrF25ltzvz1a2Pm5DQ'
p548
sg8
S'All I Want For Christmas Is You'
p549
ssS'3KiktyOxQd2Z0bmnabgRq2'
p550
(dp551
g3
S'Ed Sheeran'
p552
sg5
I1
sg6
S'https://open.spotify.com/track/3KiktyOxQd2Z0bmnabgRq2'
p553
sg8
S"I'm A Mess"
p554
ssS'1JbO4FkQGcm7Zj6hDgTvS2'
p555
(dp556
g3
S'Arin Ray'
p557
sg5
I1
sg6
S'https://open.spotify.com/track/1JbO4FkQGcm7Zj6hDgTvS2'
p558
sg8
S"We Ain't Homies"
p559
ssS'7129iqBafaphfc3WPCGC0L'
p560
(dp561
g3
S'Lukas Graham'
p562
sg5
I17
sg6
S'https://open.spotify.com/track/7129iqBafaphfc3WPCGC0L'
p563
sg8
S'7 Years'
p564
ssS'4WjH9Bzt3kx7z8kl0awxh4'
p565
(dp566
g3
S'Major Lazer'
p567
sg5
I34
sg6
S'https://open.spotify.com/track/4WjH9Bzt3kx7z8kl0awxh4'
p568
sg8
S'Lean On (feat. M\xc3\x98 & DJ Snake)'
p569
ssS'57p8CBvPOxrvyCbn6ttl5r'
p570
(dp571
g3
S'Skrillex'
p572
sg5
I11
sg6
S'https://open.spotify.com/track/57p8CBvPOxrvyCbn6ttl5r'
p573
sg8
S'Would You Ever'
p574
ssS'5uDASfU19gDxSjW8cnCaBp'
p575
(dp576
g3
S'Rob $tone'
p577
sg5
I4
sg6
S'https://open.spotify.com/track/5uDASfU19gDxSjW8cnCaBp'
p578
sg8
S'Chill Bill'
p579
ssS'0CcQNd8CINkwQfe1RDtGV6'
p580
(dp581
g3
S'Imagine Dragons'
p582
sg5
I33
sg6
S'https://open.spotify.com/track/0CcQNd8CINkwQfe1RDtGV6'
p583
sg8
S'Believer'
p584
ssS'7oolFzHipTMg2nL7shhdz2'
p585
(dp586
g3
S'Ed Sheeran'
p587
sg5
I4
sg6
S'https://open.spotify.com/track/7oolFzHipTMg2nL7shhdz2'
p588
sg8
S'Eraser'
p589
ssS'1f5cbQtDrykjarZVrShaDI'
p590
(dp591
g3
S'A Boogie Wit da Hoodie'
p592
sg5
I1
sg6
S'https://open.spotify.com/track/1f5cbQtDrykjarZVrShaDI'
p593
sg8
S'Drowning (feat. Kodak Black)'
p594
ssS'4Yf5bqU3NK4kNOypcrLYwU'
p595
(dp596
g3
S'Linkin Park'
p597
sg5
I1
sg6
S'https://open.spotify.com/track/4Yf5bqU3NK4kNOypcrLYwU'
p598
sg8
S'Faint'
p599
ssS'3B7udSGy2PfgoCniMSb523'
p600
(dp601
g3
S'Ed Sheeran'
p602
sg5
I12
sg6
S'https://open.spotify.com/track/3B7udSGy2PfgoCniMSb523'
p603
sg8
S'I See Fire'
p604
ssS'2WQn7Yvs728KZmmY6tgWqH'
p605
(dp606
g3
S'Halsey'
p607
sg5
I5
sg6
S'https://open.spotify.com/track/2WQn7Yvs728KZmmY6tgWqH'
p608
sg8
S'Eyes Closed'
p609
ssS'3NdDpSvN911VPGivFlV5d0'
p610
(dp611
g3
S'ZAYN'
p612
sg5
I42
sg6
S'https://open.spotify.com/track/3NdDpSvN911VPGivFlV5d0'
p613
sg8
S'I Don\xe2\x80\x99t Wanna Live Forever (Fifty Shades Darker) - From Fifty Shades Darker (Original Motion Picture Soundtrack)'
p614
ssS'6fwdbPMwP1zVStm8FybmkO'
p615
(dp616
g3
S'21 Savage'
p617
sg5
I7
sg6
S'https://open.spotify.com/track/6fwdbPMwP1zVStm8FybmkO'
p618
sg8
S'X (feat. Future)'
p619
ssS'02hNDxtMMTpq72rdp1lm6v'
p620
(dp621
g3
S'2 Chainz'
p622
sg5
I1
sg6
S'https://open.spotify.com/track/02hNDxtMMTpq72rdp1lm6v'
p623
sg8
S'4 AM'
p624
ssS'3gGHAScxUDsJqcAM6ZvjuH'
p625
(dp626
g3
S'John Legend'
p627
sg5
I6
sg6
S'https://open.spotify.com/track/3gGHAScxUDsJqcAM6ZvjuH'
p628
sg8
S'Start A Fire'
p629
ssS'1wC93sZRGcTgKLN2UWRSwW'
p630
(dp631
g3
S'Lorde'
p632
sg5
I1
sg6
S'https://open.spotify.com/track/1wC93sZRGcTgKLN2UWRSwW'
p633
sg8
S'Perfect Places'
p634
ssS'5hfpu8saHLGedbHRtNCYjm'
p635
(dp636
g3
S'Machine Gun Kelly'
p637
sg5
I2
sg6
S'https://open.spotify.com/track/5hfpu8saHLGedbHRtNCYjm'
p638
sg8
S'Trap Paris (feat. Quavo & Ty Dolla $ign)'
p639
ssS'3DX4Y0egvc0slLcLl31h2p'
p640
(dp641
g3
S'The Weeknd'
p642
sg5
I9
sg6
S'https://open.spotify.com/track/3DX4Y0egvc0slLcLl31h2p'
p643
sg8
S'Secrets'
p644
ssS'6wV12xIUb8oFY7lBy4KuQe'
p645
(dp646
g3
S'Aaron Carter'
p647
sg5
I10
sg6
S'https://open.spotify.com/track/6wV12xIUb8oFY7lBy4KuQe'
p648
sg8
S'Sooner Or Later'
p649
ssS'1UZOjK1BwmwWU14Erba9CZ'
p650
(dp651
g3
S'Miley Cyrus'
p652
sg5
I2
sg6
S'https://open.spotify.com/track/1UZOjK1BwmwWU14Erba9CZ'
p653
sg8
S'Malibu'
p654
ssS'2SR8QbdNfzA3SUv4rt33sJ'
p655
(dp656
g3
S'Justin Hurwitz'
p657
sg5
I2
sg6
S'https://open.spotify.com/track/2SR8QbdNfzA3SUv4rt33sJ'
p658
sg8
S'Herman\xe2\x80\x99s Habit - From La La Land Soundtrack'
p659
ssS'2eMwDehkIC1j68U6FA3Eiq'
p660
(dp661
g3
S'Lil Uzi Vert'
p662
sg5
I21
sg6
S'https://open.spotify.com/track/2eMwDehkIC1j68U6FA3Eiq'
p663
sg8
S'XO TOUR Llif3'
p664
ssS'6Fh2zqmgnpWNYHYxu2KqEM'
p665
(dp666
g3
S'Konstantinos Argiros'
p667
sg5
I17
sg6
S'https://open.spotify.com/track/6Fh2zqmgnpWNYHYxu2KqEM'
p668
sg8
S'Ximeromata'
p669
ssS'2KklXplRtxMsBYo474Es0w'
p670
(dp671
g3
S'Ofenbach'
p672
sg5
I25
sg6
S'https://open.spotify.com/track/2KklXplRtxMsBYo474Es0w'
p673
sg8
S'Be Mine'
p674
ssS'3CRDbSIZ4r5MsZ0YwxuEkn'
p675
(dp676
g3
S'Twenty One Pilots'
p677
sg5
I40
sg6
S'https://open.spotify.com/track/3CRDbSIZ4r5MsZ0YwxuEkn'
p678
sg8
S'Stressed Out'
p679
ssS'4dVpf9jZjcORqGTLUaeYj9'
p680
(dp681
g3
S'A$AP Ferg'
p682
sg5
I4
sg6
S'https://open.spotify.com/track/4dVpf9jZjcORqGTLUaeYj9'
p683
sg8
S'Plain Jane'
p684
ssS'6mICuAdrwEjh6Y6lroV2Kg'
p685
(dp686
g3
S'Shakira'
p687
sg5
I41
sg6
S'https://open.spotify.com/track/6mICuAdrwEjh6Y6lroV2Kg'
p688
sg8
S'Chantaje'
p689
ssS'1nX9KhK3Fff27SnrIor2Yb'
p690
(dp691
g3
S'2 Chainz'
p692
sg5
I8
sg6
S'https://open.spotify.com/track/1nX9KhK3Fff27SnrIor2Yb'
p693
sg8
S'4 AM'
p694
ssS'4iyH6JZBZjk3htdJdZ6r51'
p695
(dp696
g3
S'Demi Lovato'
p697
sg5
I1
sg6
S'https://open.spotify.com/track/4iyH6JZBZjk3htdJdZ6r51'
p698
sg8
S'Ruin The Friendship'
p699
ssS'6F609ICg9Spjrw1epsAnpa'
p700
(dp701
g3
S'Drake'
p702
sg5
I16
sg6
S'https://open.spotify.com/track/6F609ICg9Spjrw1epsAnpa'
p703
sg8
S'Controlla'
p704
ssS'2pnPe4pJtq7689i5ydzvJJ'
p705
(dp706
g3
S'Chuck Berry'
p707
sg5
I1
sg6
S'https://open.spotify.com/track/2pnPe4pJtq7689i5ydzvJJ'
p708
sg8
S'Run Rudolph Run - Single Version'
p709
ssS'4I39irD0xSyfRA099AsWow'
p710
(dp711
g3
S'Demi Lovato'
p712
sg5
I1
sg6
S'https://open.spotify.com/track/4I39irD0xSyfRA099AsWow'
p713
sg8
S"You Don't Do It For Me Anymore"
p714
ssS'5qbcsZMwL0x46sX7VO37Ye'
p715
(dp716
g3
S'NAV'
p717
sg5
I5
sg6
S'https://open.spotify.com/track/5qbcsZMwL0x46sX7VO37Ye'
p718
sg8
S'Up'
p719
ssS'7gHs73wELdeycvS48JfIos'
p720
(dp721
g3
S'Alan Walker'
p722
sg5
I22
sg6
S'https://open.spotify.com/track/7gHs73wELdeycvS48JfIos'
p723
sg8
S'Faded'
p724
ssS'2CIOdprH35qLe14Mvi3qMQ'
p725
(dp726
g3
S'Antonis Remos'
p727
sg5
I12
sg6
S'https://open.spotify.com/track/2CIOdprH35qLe14Mvi3qMQ'
p728
sg8
S'Spasmena Kommatia Tis Kardias'
p729
ssS'4lOavMadLCGAOJEvMJ5t4t'
p730
(dp731
g3
S'The Neighbourhood'
p732
sg5
I1
sg6
S'https://open.spotify.com/track/4lOavMadLCGAOJEvMJ5t4t'
p733
sg8
S'24/7'
p734
ssS'4FuwvztVnQT4vzvoqlGYgq'
p735
(dp736
g3
S'Rod Stewart'
p737
sg5
I1
sg6
S'https://open.spotify.com/track/4FuwvztVnQT4vzvoqlGYgq'
p738
sg8
S"Da Ya Think I'm Sexy"
p739
ssS'00lNx0OcTJrS3MKHcB80HY'
p740
(dp741
g3
S'Jax Jones'
p742
sg5
I30
sg6
S'https://open.spotify.com/track/00lNx0OcTJrS3MKHcB80HY'
p743
sg8
S"You Don't Know Me - Radio Edit"
p744
ssS'2s76aKBWKShlwPC4xTtEEE'
p745
(dp746
g3
S'State of Sound'
p747
sg5
I3
sg6
S'https://open.spotify.com/track/2s76aKBWKShlwPC4xTtEEE'
p748
sg8
S'Wake Up Where You Are'
p749
ssS'2HBfbTWVjOO0JpVvdwzcSG'
p750
(dp751
g3
S'Melisses'
p752
sg5
I5
sg6
S'https://open.spotify.com/track/2HBfbTWVjOO0JpVvdwzcSG'
p753
sg8
S'Ola Moiazoun Kalokairi'
p754
ssS'6t2ubAB4iSYOuIpRAOGd4t'
p755
(dp756
g3
S'Flo Rida'
p757
sg5
I14
sg6
S'https://open.spotify.com/track/6t2ubAB4iSYOuIpRAOGd4t'
p758
sg8
S'Cake'
p759
ssS'4nDfc6F2uVcc6wdG7kBzWO'
p760
(dp761
g3
S'Nick Jonas'
p762
sg5
I3
sg6
S'https://open.spotify.com/track/4nDfc6F2uVcc6wdG7kBzWO'
p763
sg8
S'Bom Bidi Bom - From Fifty Shades Darker (Original Motion Picture Soundtrack)'
p764
ssS'0A2J5TumCpT4aJVvQHNEQW'
p765
(dp766
g3
S'Ed Sheeran'
p767
sg5
I1
sg6
S'https://open.spotify.com/track/0A2J5TumCpT4aJVvQHNEQW'
p768
sg8
S'One'
p769
ssS'0fg8CqpjdojMyXLNzM2PaJ'
p770
(dp771
g3
S'Major Lazer'
p772
sg5
I19
sg6
S'https://open.spotify.com/track/0fg8CqpjdojMyXLNzM2PaJ'
p773
sg8
S'Run Up (feat. PARTYNEXTDOOR & Nicki Minaj)'
p774
ssS'6yL2kTsdVwYnGwPkKGtMd5'
p775
(dp776
g3
S'Ariana Grande'
p777
sg5
I1
sg6
S'https://open.spotify.com/track/6yL2kTsdVwYnGwPkKGtMd5'
p778
sg8
S'Everyday'
p779
ssS'3umS4y3uQDkqekNjVpiRUs'
p780
(dp781
g3
S'Nicky Jam'
p782
sg5
I1
sg6
S'https://open.spotify.com/track/3umS4y3uQDkqekNjVpiRUs'
p783
sg8
S'El Amante'
p784
ssS'5htKJSes6gBPOvXoBqaBeD'
p785
(dp786
g3
S'Padelis Padelidis'
p787
sg5
I1
sg6
S'https://open.spotify.com/track/5htKJSes6gBPOvXoBqaBeD'
p788
sg8
S'Ginete'
p789
ssS'6uFsE1JgZ20EXyU0JQZbUR'
p790
(dp791
g3
S'Taylor Swift'
p792
sg5
I7
sg6
S'https://open.spotify.com/track/6uFsE1JgZ20EXyU0JQZbUR'
p793
sg8
S'Look What You Made Me Do'
p794
ssS'6rQSrBHf7HlZjtcMZ4S4bO'
p795
(dp796
g3
S'J Balvin'
p797
sg5
I29
sg6
S'https://open.spotify.com/track/6rQSrBHf7HlZjtcMZ4S4bO'
p798
sg8
S'Safari'
p799
ssS'5CPqOpKSk0QcJ3dGdaWcRB'
p800
(dp801
g3
S'The xx'
p802
sg5
I1
sg6
S'https://open.spotify.com/track/5CPqOpKSk0QcJ3dGdaWcRB'
p803
sg8
S'On Hold'
p804
ssS'0L87MffumRNWrY2SNUFcvs'
p805
(dp806
g3
S'Milky Chance'
p807
sg5
I7
sg6
S'https://open.spotify.com/track/0L87MffumRNWrY2SNUFcvs'
p808
sg8
S'Cocoon'
p809
ssS'4xBjsLUSjcx2h7PcRikpQp'
p810
(dp811
g3
S'Camila Cabello'
p812
sg5
I10
sg6
S'https://open.spotify.com/track/4xBjsLUSjcx2h7PcRikpQp'
p813
sg8
S'OMG'
p814
ssS'0gHS4d1Per54lZHgO9B64x'
p815
(dp816
g3
S'Sam Feldt'
p817
sg5
I1
sg6
S'https://open.spotify.com/track/0gHS4d1Per54lZHgO9B64x'
p818
sg8
S'YES'
p819
ssS'7GX5flRQZVHRAGd6B4TmDO'
p820
(dp821
g3
S'Lil Uzi Vert'
p822
sg5
I7
sg6
S'https://open.spotify.com/track/7GX5flRQZVHRAGd6B4TmDO'
p823
sg8
S'XO TOUR Llif3'
p824
ssS'3O7p9Itz8PXUoAjD2vmuM6'
p825
(dp826
g3
S'Lana Del Rey'
p827
sg5
I2
sg6
S'https://open.spotify.com/track/3O7p9Itz8PXUoAjD2vmuM6'
p828
sg8
S'Beautiful People Beautiful Problems (feat. Stevie Nicks)'
p829
ssS'4F7A0DXBrmUAkp32uenhZt'
p830
(dp831
g3
S'The Weeknd'
p832
sg5
I23
sg6
S'https://open.spotify.com/track/4F7A0DXBrmUAkp32uenhZt'
p833
sg8
S'Party Monster'
p834
ssS'5kRPPEWFJIMox5qIkQkiz5'
p835
(dp836
g3
S'Harry Styles'
p837
sg5
I4
sg6
S'https://open.spotify.com/track/5kRPPEWFJIMox5qIkQkiz5'
p838
sg8
S'Sweet Creature'
p839
ssS'0CokSRCu5hZgPxcZBaEzVE'
p840
(dp841
g3
S'Macklemore'
p842
sg5
I3
sg6
S'https://open.spotify.com/track/0CokSRCu5hZgPxcZBaEzVE'
p843
sg8
S'Glorious (feat. Skylar Grey)'
p844
ssS'7tKckpZN0PtaNNezEW2bLR'
p845
(dp846
g3
S'Konstantinos Argiros'
p847
sg5
I5
sg6
S'https://open.spotify.com/track/7tKckpZN0PtaNNezEW2bLR'
p848
sg8
S'Osa Niotho'
p849
ssS'75ZvA4QfFiZvzhj2xkaWAh'
p850
(dp851
g3
S'Post Malone'
p852
sg5
I2
sg6
S'https://open.spotify.com/track/75ZvA4QfFiZvzhj2xkaWAh'
p853
sg8
S'I Fall Apart'
p854
ssS'1sTUEdVO85YU8Ymk2jeAls'
p855
(dp856
g3
S'MiC LOWRY'
p857
sg5
I5
sg6
S'https://open.spotify.com/track/1sTUEdVO85YU8Ymk2jeAls'
p858
sg8
S'Oh Lord'
p859
ssS'7BKLCZ1jbUBVqRi2FVlTVw'
p860
(dp861
g3
S'The Chainsmokers'
p862
sg5
I42
sg6
S'https://open.spotify.com/track/7BKLCZ1jbUBVqRi2FVlTVw'
p863
sg8
S'Closer'
p864
ssS'0TGTE9TEh9qzuFwmtRNICn'
p865
(dp866
g3
S'Bishop Briggs'
p867
sg5
I1
sg6
S'https://open.spotify.com/track/0TGTE9TEh9qzuFwmtRNICn'
p868
sg8
S'River'
p869
ssS'30MM5jWpUmOxtTNd9Ey5LZ'
p870
(dp871
g3
S'Thomas Rhett'
p872
sg5
I4
sg6
S'https://open.spotify.com/track/30MM5jWpUmOxtTNd9Ey5LZ'
p873
sg8
S'Unforgettable'
p874
ssS'7hDc8b7IXETo14hHIHdnhd'
p875
(dp876
g3
S'Drake'
p877
sg5
I30
sg6
S'https://open.spotify.com/track/7hDc8b7IXETo14hHIHdnhd'
p878
sg8
S'Passionfruit'
p879
ssS'3RiPr603aXAoi4GHyXx0uy'
p880
(dp881
g3
S'Coldplay'
p882
sg5
I5
sg6
S'https://open.spotify.com/track/3RiPr603aXAoi4GHyXx0uy'
p883
sg8
S'Hymn For The Weekend'
p884
ssS'0tICYNayWWhH9GPeFrfjfD'
p885
(dp886
g3
S'Kungs'
p887
sg5
I29
sg6
S'https://open.spotify.com/track/0tICYNayWWhH9GPeFrfjfD'
p888
sg8
S"This Girl (Kungs Vs. Cookin' On 3 Burners) - Kungs Vs. Cookin' On 3 Burners"
p889
ssS'7okKUUieyjtmrDQMfwu8Ur'
p890
(dp891
g3
S'Marina Satti'
p892
sg5
I14
sg6
S'https://open.spotify.com/track/7okKUUieyjtmrDQMfwu8Ur'
p893
sg8
S'Mantissa'
p894
ssS'3Lfiu5sZ4M4B6JaKMBc0FU'
p895
(dp896
g3
S'Ed Sheeran'
p897
sg5
I5
sg6
S'https://open.spotify.com/track/3Lfiu5sZ4M4B6JaKMBc0FU'
p898
sg8
S'Barcelona'
p899
ssS'2LTlO3NuNVN70lp2ZbVswF'
p900
(dp901
g3
S'Kendrick Lamar'
p902
sg5
I4
sg6
S'https://open.spotify.com/track/2LTlO3NuNVN70lp2ZbVswF'
p903
sg8
S'FEEL.'
p904
ssS'5ULRlgiSPSKTaJN1vU9yso'
p905
(dp906
g3
S'Ed Sheeran'
p907
sg5
I3
sg6
S'https://open.spotify.com/track/5ULRlgiSPSKTaJN1vU9yso'
p908
sg8
S'Shape of You - Acoustic'
p909
ssS'59J5nzL1KniFHnU120dQzt'
p910
(dp911
g3
S'Playboi Carti'
p912
sg5
I4
sg6
S'https://open.spotify.com/track/59J5nzL1KniFHnU120dQzt'
p913
sg8
S'wokeuplikethis*'
p914
ssS'1tlBuoIRrtqFs9bE9dmli5'
p915
(dp916
g3
S'Future'
p917
sg5
I1
sg6
S'https://open.spotify.com/track/1tlBuoIRrtqFs9bE9dmli5'
p918
sg8
S'Extra Luv'
p919
ssS'1eVRnmGhDPATPxz6kqWuCP'
p920
(dp921
g3
S'Julia Michaels'
p922
sg5
I2
sg6
S'https://open.spotify.com/track/1eVRnmGhDPATPxz6kqWuCP'
p923
sg8
S'Uh Huh'
p924
ssS'6y2Kaz9QI01XBKJ8mTb7Pf'
p925
(dp926
g3
S"Rag'n'Bone Man"
p927
sg5
I15
sg6
S'https://open.spotify.com/track/6y2Kaz9QI01XBKJ8mTb7Pf'
p928
sg8
S'Skin'
p929
ssS'5gcA28rUaSsEOM5g7Q5wF5'
p930
(dp931
g3
S'Justin Hurwitz'
p932
sg5
I5
sg6
S'https://open.spotify.com/track/5gcA28rUaSsEOM5g7Q5wF5'
p933
sg8
S'Planetarium - From La La Land Soundtrack'
p934
ssS'5ZXmCqIzh9cRaMMfdtHuyZ'
p935
(dp936
g3
S'Andrelli'
p937
sg5
I3
sg6
S'https://open.spotify.com/track/5ZXmCqIzh9cRaMMfdtHuyZ'
p938
sg8
S'Old Man'
p939
ssS'65Q2mv3UlVi9eO70OpsmSe'
p940
(dp941
g3
S'Burl Ives'
p942
sg5
I1
sg6
S'https://open.spotify.com/track/65Q2mv3UlVi9eO70OpsmSe'
p943
sg8
S'A Holly Jolly Christmas - Single Version'
p944
ssS'0XLOf9LhyazPX9Ld8jPiUq'
p945
(dp946
g3
S'Selena Gomez'
p947
sg5
I13
sg6
S'https://open.spotify.com/track/0XLOf9LhyazPX9Ld8jPiUq'
p948
sg8
S'Fetish (feat. Gucci Mane)'
p949
ssS'2eAAEa8pxKF7My0EO4rFgR'
p950
(dp951
g3
S'Dua Lipa'
p952
sg5
I19
sg6
S'https://open.spotify.com/track/2eAAEa8pxKF7My0EO4rFgR'
p953
sg8
S'Blow Your Mind (Mwah)'
p954
ssS'1yxgsra98r3qAtxqiGZPiX'
p955
(dp956
g3
S'Travis Scott'
p957
sg5
I21
sg6
S'https://open.spotify.com/track/1yxgsra98r3qAtxqiGZPiX'
p958
sg8
S'Butterfly Effect'
p959
ssS'7EiZI6JVHllARrX9PUvAdX'
p960
(dp961
g3
S'Future'
p962
sg5
I11
sg6
S'https://open.spotify.com/track/7EiZI6JVHllARrX9PUvAdX'
p963
sg8
S'Low Life'
p964
ssS'0Clb9aiXWa0dvVff5aN4VN'
p965
(dp966
g3
S'Astrid S'
p967
sg5
I2
sg6
S'https://open.spotify.com/track/0Clb9aiXWa0dvVff5aN4VN'
p968
sg8
S'Think Before I Talk'
p969
ssS'6OKaib6HaebKVCL5VOoIGR'
p970
(dp971
g3
S'Robin Schulz'
p972
sg5
I3
sg6
S'https://open.spotify.com/track/6OKaib6HaebKVCL5VOoIGR'
p973
sg8
S'4 Life (feat. Graham Candy)'
p974
ssS'3xXBsjrbG1xQIm1xv1cKOt'
p975
(dp976
g3
S'Linkin Park'
p977
sg5
I1
sg6
S'https://open.spotify.com/track/3xXBsjrbG1xQIm1xv1cKOt'
p978
sg8
S'One More Light'
p979
ssS'0yJv0G7r1PZIl1CY5XhvkR'
p980
(dp981
g3
S'Nathan Goshen'
p982
sg5
I6
sg6
S'https://open.spotify.com/track/0yJv0G7r1PZIl1CY5XhvkR'
p983
sg8
S'Thinking About It (Let It Go) - KVR Remix'
p984
ssS'0OwX5aROoW1Iip8FV51Efg'
p985
(dp986
g3
S'Anne-Marie'
p987
sg5
I1
sg6
S'https://open.spotify.com/track/0OwX5aROoW1Iip8FV51Efg'
p988
sg8
S'Alarm'
p989
ssS'6A8dnC0xkiuWN4BshmTB2I'
p990
(dp991
g3
S'A R I Z O N A'
p992
sg5
I22
sg6
S'https://open.spotify.com/track/6A8dnC0xkiuWN4BshmTB2I'
p993
sg8
S'Oceans Away'
p994
ssS'0NWqNXBJTpXbkI5rPWNy3p'
p995
(dp996
g3
S'The Weeknd'
p997
sg5
I12
sg6
S'https://open.spotify.com/track/0NWqNXBJTpXbkI5rPWNy3p'
p998
sg8
S'All I Know'
p999
ssS'2OALaHcDdKkjYEpAr0Qzab'
p1000
(dp1001
g3
S'Avicii'
p1002
sg5
I9
sg6
S'https://open.spotify.com/track/2OALaHcDdKkjYEpAr0Qzab'
p1003
sg8
S'Lonely Together (feat. Rita Ora)'
p1004
ssS'56lBX2WHqfGuoeZxZvUnVj'
p1005
(dp1006
g3
S'Imagine Dragons'
p1007
sg5
I3
sg6
S'https://open.spotify.com/track/56lBX2WHqfGuoeZxZvUnVj'
p1008
sg8
S'Thunder'
p1009
ssS'2h1IPjP471JJRSShTHRUhi'
p1010
(dp1011
g3
S'Ariana Grande'
p1012
sg5
I1
sg6
S'https://open.spotify.com/track/2h1IPjP471JJRSShTHRUhi'
p1013
sg8
S'Dangerous Woman'
p1014
ssS'5qqabIl2vWzo9ApSC317sa'
p1015
(dp1016
g3
S'Oasis'
p1017
sg5
I5
sg6
S'https://open.spotify.com/track/5qqabIl2vWzo9ApSC317sa'
p1018
sg8
S'Wonderwall - Remastered'
p1019
ssS'28irpKCCK9nn9DZSik2zEx'
p1020
(dp1021
g3
S'Drake'
p1022
sg5
I2
sg6
S'https://open.spotify.com/track/28irpKCCK9nn9DZSik2zEx'
p1023
sg8
S'Glow'
p1024
ssS'5JUu0unA8VwhTZ9LkMWUVI'
p1025
(dp1026
g3
S'Drake'
p1027
sg5
I2
sg6
S'https://open.spotify.com/track/5JUu0unA8VwhTZ9LkMWUVI'
p1028
sg8
S'Since Way Back'
p1029
ssS'4IWAyPf1KMq7JCyGeCjTeH'
p1030
(dp1031
g3
S'Imagine Dragons'
p1032
sg5
I7
sg6
S'https://open.spotify.com/track/4IWAyPf1KMq7JCyGeCjTeH'
p1033
sg8
S'Whatever It Takes'
p1034
ssS'1AJQ97yAt6xfeF7nQaE1t8'
p1035
(dp1036
g3
S'Imagine Dragons'
p1037
sg5
I1
sg6
S'https://open.spotify.com/track/1AJQ97yAt6xfeF7nQaE1t8'
p1038
sg8
S'Walking The Wire'
p1039
ssS'0ZExP2I5Ej92PsnG4G1jVG'
p1040
(dp1041
g3
S'Julia Michaels'
p1042
sg5
I4
sg6
S'https://open.spotify.com/track/0ZExP2I5Ej92PsnG4G1jVG'
p1043
sg8
S'Uh Huh'
p1044
ssS'7lQ8MOhq6IN2w8EYcFNSUk'
p1045
(dp1046
g3
S'Eminem'
p1047
sg5
I1
sg6
S'https://open.spotify.com/track/7lQ8MOhq6IN2w8EYcFNSUk'
p1048
sg8
S'Without Me'
p1049
ssS'3rq5w4bQGigXOfdN30ATJt'
p1050
(dp1051
g3
S'Arctic Monkeys'
p1052
sg5
I41
sg6
S'https://open.spotify.com/track/3rq5w4bQGigXOfdN30ATJt'
p1053
sg8
S'Do I Wanna Know?'
p1054
ssS'78sr3ogs4UzITcCNbXM9cM'
p1055
(dp1056
g3
S'Future'
p1057
sg5
I3
sg6
S'https://open.spotify.com/track/78sr3ogs4UzITcCNbXM9cM'
p1058
sg8
S'Used to This'
p1059
ssS'2S2od3hT7ceytw7d1pTRuE'
p1060
(dp1061
g3
S'Noah Cyrus'
p1062
sg5
I3
sg6
S'https://open.spotify.com/track/2S2od3hT7ceytw7d1pTRuE'
p1063
sg8
S'Again'
p1064
ssS'0WCEaydwN65cvwaW8aqptF'
p1065
(dp1066
g3
S'Olivia Holt'
p1067
sg5
I28
sg6
S'https://open.spotify.com/track/0WCEaydwN65cvwaW8aqptF'
p1068
sg8
S'History'
p1069
ssS'6KjbNLbRjuoa8rEq5yNA6H'
p1070
(dp1071
g3
S'The Chainsmokers'
p1072
sg5
I1
sg6
S'https://open.spotify.com/track/6KjbNLbRjuoa8rEq5yNA6H'
p1073
sg8
S'Honest'
p1074
ssS'3FiE2d325mIOc4YjkSLVJR'
p1075
(dp1076
g3
S'Ariana Grande'
p1077
sg5
I14
sg6
S'https://open.spotify.com/track/3FiE2d325mIOc4YjkSLVJR'
p1078
sg8
S'Everyday'
p1079
ssS'3A7qX2QjDlPnazUsRk5y0M'
p1080
(dp1081
g3
S'David Guetta'
p1082
sg5
I17
sg6
S'https://open.spotify.com/track/3A7qX2QjDlPnazUsRk5y0M'
p1083
sg8
S'2U (feat. Justin Bieber)'
p1084
ssS'2bjwRfXMk4uRgOD9IBYl9h'
p1085
(dp1086
g3
S'Drake'
p1087
sg5
I20
sg6
S'https://open.spotify.com/track/2bjwRfXMk4uRgOD9IBYl9h'
p1088
sg8
S'Portland'
p1089
ssS'0FuTx2s3YH1ppmtiM6l0zI'
p1090
(dp1091
g3
S'JP Cooper'
p1092
sg5
I40
sg6
S'https://open.spotify.com/track/0FuTx2s3YH1ppmtiM6l0zI'
p1093
sg8
S'September Song'
p1094
ssS'0Zbbxnx4SGGHoIow4PpISP'
p1095
(dp1096
g3
S'Kygo'
p1097
sg5
I3
sg6
S'https://open.spotify.com/track/0Zbbxnx4SGGHoIow4PpISP'
p1098
sg8
S'Stargazing'
p1099
ssS'1QgTBfRN5m81a5K01qens6'
p1100
(dp1101
g3
S'Lil Uzi Vert'
p1102
sg5
I2
sg6
S'https://open.spotify.com/track/1QgTBfRN5m81a5K01qens6'
p1103
sg8
S'444+222'
p1104
ssS'5GFDrUTLGJix84sNhjCG0g'
p1105
(dp1106
g3
S'Amin\xc3\xa9'
p1107
sg5
I10
sg6
S'https://open.spotify.com/track/5GFDrUTLGJix84sNhjCG0g'
p1108
sg8
S'Caroline'
p1109
ssS'33B2QbtAj8mbDpwvGTOnBt'
p1110
(dp1111
g3
S'The xx'
p1112
sg5
I1
sg6
S'https://open.spotify.com/track/33B2QbtAj8mbDpwvGTOnBt'
p1113
sg8
S'Dangerous'
p1114
ssS'0azC730Exh71aQlOt9Zj3y'
p1115
(dp1116
g3
S'Calvin Harris'
p1117
sg5
I29
sg6
S'https://open.spotify.com/track/0azC730Exh71aQlOt9Zj3y'
p1118
sg8
S'This Is What You Came For'
p1119
ssS'4mJDfMcT7odIUjWlb2WO4L'
p1120
(dp1121
g3
S'Ed Sheeran'
p1122
sg5
I1
sg6
S'https://open.spotify.com/track/4mJDfMcT7odIUjWlb2WO4L'
p1123
sg8
S'...Baby One More Time - Recorded at Spotify Studios NYC'
p1124
ssS'57Y51hxqMn2j3dosW75R6n'
p1125
(dp1126
g3
S'Robin Bengtsson'
p1127
sg5
I1
sg6
S'https://open.spotify.com/track/57Y51hxqMn2j3dosW75R6n'
p1128
sg8
S'I Can\xc2\xb4t Go On'
p1129
ssS'2jyjhRf6DVbMPU5zxagN2h'
p1130
(dp1131
g3
S'Passenger'
p1132
sg5
I3
sg6
S'https://open.spotify.com/track/2jyjhRf6DVbMPU5zxagN2h'
p1133
sg8
S'Let Her Go'
p1134
ssS'7i2DJ88J7jQ8K7zqFX2fW8'
p1135
(dp1136
g3
S'Halsey'
p1137
sg5
I16
sg6
S'https://open.spotify.com/track/7i2DJ88J7jQ8K7zqFX2fW8'
p1138
sg8
S'Now Or Never'
p1139
ssS'43ZyHQITOjhciSUUNPVRHc'
p1140
(dp1141
g3
S'Lil Pump'
p1142
sg5
I1
sg6
S'https://open.spotify.com/track/43ZyHQITOjhciSUUNPVRHc'
p1143
sg8
S'Gucci Gang'
p1144
ssS'0Gi17qCJh9e9RJxLaYkm9l'
p1145
(dp1146
g3
S'The Weeknd'
p1147
sg5
I1
sg6
S'https://open.spotify.com/track/0Gi17qCJh9e9RJxLaYkm9l'
p1148
sg8
S'Dark Times'
p1149
ssS'3y9cCbnBn0zjkJa2YkOj70'
p1150
(dp1151
g3
S'Nicki Minaj'
p1152
sg5
I2
sg6
S'https://open.spotify.com/track/3y9cCbnBn0zjkJa2YkOj70'
p1153
sg8
S'Black Barbies'
p1154
ssS'5sNESr6pQfIhL3krM8CtZn'
p1155
(dp1156
g3
S'JAY Z'
p1157
sg5
I3
sg6
S'https://open.spotify.com/track/5sNESr6pQfIhL3krM8CtZn'
p1158
sg8
S'Numb / Encore'
p1159
ssS'68EMU2RD1ECNeOeJ5qAXCV'
p1160
(dp1161
g3
S'Charlie Puth'
p1162
sg5
I42
sg6
S'https://open.spotify.com/track/68EMU2RD1ECNeOeJ5qAXCV'
p1163
sg8
S"We Don't Talk Anymore (feat. Selena Gomez)"
p1164
ssS'2vaMWMPMgsWX4fwJiKmdWm'
p1165
(dp1166
g3
S'A Boogie Wit da Hoodie'
p1167
sg5
I1
sg6
S'https://open.spotify.com/track/2vaMWMPMgsWX4fwJiKmdWm'
p1168
sg8
S'Undefeated (feat. 21 Savage)'
p1169
ssS'5gDWsRxpJ2lZAffh5p7K0w'
p1170
(dp1171
g3
S'The Weeknd'
p1172
sg5
I5
sg6
S'https://open.spotify.com/track/5gDWsRxpJ2lZAffh5p7K0w'
p1173
sg8
S'Stargirl Interlude'
p1174
ssS'3b5Li4QKDVBx1x7fQuu54a'
p1175
(dp1176
g3
S'Alan Walker'
p1177
sg5
I18
sg6
S'https://open.spotify.com/track/3b5Li4QKDVBx1x7fQuu54a'
p1178
sg8
S'Tired'
p1179
ssS'6vSwxzO2Qf4BinHSXRwZJe'
p1180
(dp1181
g3
S'Ed Sheeran'
p1182
sg5
I7
sg6
S'https://open.spotify.com/track/6vSwxzO2Qf4BinHSXRwZJe'
p1183
sg8
S'Tenerife Sea'
p1184
ssS'5XiZK7m9PLppgIzJBpw2x5'
p1185
(dp1186
g3
S'Martin Jensen'
p1187
sg5
I4
sg6
S'https://open.spotify.com/track/5XiZK7m9PLppgIzJBpw2x5'
p1188
sg8
S'Wait'
p1189
ssS'1cImYkHOQMFE7AZC9aOk4y'
p1190
(dp1191
g3
S'Bobby Helms'
p1192
sg5
I1
sg6
S'https://open.spotify.com/track/1cImYkHOQMFE7AZC9aOk4y'
p1193
sg8
S'Jingle Bell Rock'
p1194
ssS'2q6tgiA9tpb6DMguABwCWE'
p1195
(dp1196
g3
S'John Legend'
p1197
sg5
I4
sg6
S'https://open.spotify.com/track/2q6tgiA9tpb6DMguABwCWE'
p1198
sg8
S'All of Me'
p1199
ssS'1jNOi6m3Hn8nLEeHCp5Msr'
p1200
(dp1201
g3
S'The White Stripes'
p1202
sg5
I21
sg6
S'https://open.spotify.com/track/1jNOi6m3Hn8nLEeHCp5Msr'
p1203
sg8
S'Seven Nation Army'
p1204
ssS'4VuS959DSpr82t3qBqCrWG'
p1205
(dp1206
g3
S'Ed Sheeran'
p1207
sg5
I5
sg6
S'https://open.spotify.com/track/4VuS959DSpr82t3qBqCrWG'
p1208
sg8
S'Supermarket Flowers'
p1209
ssS'7bJwvubZZaoGE1AGEfu8Fi'
p1210
(dp1211
g3
S'Ariana Grande'
p1212
sg5
I17
sg6
S'https://open.spotify.com/track/7bJwvubZZaoGE1AGEfu8Fi'
p1213
sg8
S'One Last Time'
p1214
ssS'2Za1AlJNvksouPPWbXpR2X'
p1215
(dp1216
g3
S'Macklemore'
p1217
sg5
I3
sg6
S'https://open.spotify.com/track/2Za1AlJNvksouPPWbXpR2X'
p1218
sg8
S'Good Old Days (feat. Kesha)'
p1219
ssS'1WOmEg42Mgaz1nRimIMR9C'
p1220
(dp1221
g3
S'Justin Hurwitz'
p1222
sg5
I7
sg6
S'https://open.spotify.com/track/1WOmEg42Mgaz1nRimIMR9C'
p1223
sg8
S'Epilogue - From La La Land Soundtrack'
p1224
ssS'0Zx8khUcEfCFK2AEoIhC92'
p1225
(dp1226
g3
S'Snakehips'
p1227
sg5
I16
sg6
S'https://open.spotify.com/track/0Zx8khUcEfCFK2AEoIhC92'
p1228
sg8
S"Don't Leave"
p1229
ssS'3sBfXJVKKUWyKqEUsrYiNO'
p1230
(dp1231
g3
S'Flume'
p1232
sg5
I1
sg6
S'https://open.spotify.com/track/3sBfXJVKKUWyKqEUsrYiNO'
p1233
sg8
S'Say It - Illenium Remix'
p1234
ssS'7Dm3dV3WPNdTgxoNY7YFnc'
p1235
(dp1236
g3
S'Fleetwood Mac'
p1237
sg5
I1
sg6
S'https://open.spotify.com/track/7Dm3dV3WPNdTgxoNY7YFnc'
p1238
sg8
S'The Chain - Remastered'
p1239
ssS'33SNO8AaciGbNaQFkxvPrW'
p1240
(dp1241
g3
S'Harry Styles'
p1242
sg5
I3
sg6
S'https://open.spotify.com/track/33SNO8AaciGbNaQFkxvPrW'
p1243
sg8
S'Kiwi'
p1244
ssS'6n3HGiq4v35D6eFOSwqYuo'
p1245
(dp1246
g3
S'Drake'
p1247
sg5
I6
sg6
S'https://open.spotify.com/track/6n3HGiq4v35D6eFOSwqYuo'
p1248
sg8
S'Teenage Fever'
p1249
ssS'3abKAw6reL2U3vhAe98ZsY'
p1250
(dp1251
g3
S'Julia Michaels'
p1252
sg5
I1
sg6
S'https://open.spotify.com/track/3abKAw6reL2U3vhAe98ZsY'
p1253
sg8
S'Issues - Alan Walker Remix'
p1254
ssS'61WbtB6ujkpNAsAf5LjF4b'
p1255
(dp1256
g3
S'Katy Perry'
p1257
sg5
I19
sg6
S'https://open.spotify.com/track/61WbtB6ujkpNAsAf5LjF4b'
p1258
sg8
S'Bon app\xc3\xa9tit'
p1259
ssS'0YHUITU3w6ws1v8ehT264g'
p1260
(dp1261
g3
S'Little Mix'
p1262
sg5
I10
sg6
S'https://open.spotify.com/track/0YHUITU3w6ws1v8ehT264g'
p1263
sg8
S'Shout Out to My Ex'
p1264
ssS'5yuShbu70mtHXY0yLzCQLQ'
p1265
(dp1266
g3
S'Post Malone'
p1267
sg5
I1
sg6
S'https://open.spotify.com/track/5yuShbu70mtHXY0yLzCQLQ'
p1268
sg8
S'Go Flex'
p1269
ssS'3WrG9BpOPQWUus3FjA1Tny'
p1270
(dp1271
g3
S"Destiny's Child"
p1272
sg5
I1
sg6
S'https://open.spotify.com/track/3WrG9BpOPQWUus3FjA1Tny'
p1273
sg8
S'8 Days of Christmas - Live'
p1274
ssS'0XEAeSr6TfTKoQhSOeQekB'
p1275
(dp1276
g3
S'\xce\xa0\xce\xb1\xce\xbd\xcf\x84\xce\xb5\xce\xbb\xce\xae\xcf\x82 \xce\xa0\xce\xb1\xce\xbd\xcf\x84\xce\xb5\xce\xbb\xce\xaf\xce\xb4\xce\xb7\xcf\x82'
p1277
sg5
I3
sg6
S'https://open.spotify.com/track/0XEAeSr6TfTKoQhSOeQekB'
p1278
sg8
S'\xce\x98\xcf\x85\xce\xbc\xce\xac\xce\xbc\xce\xb1\xce\xb9'
p1279
ssS'193Dm5SqYy3hTSbuzxbwKc'
p1280
(dp1281
g3
S'Lorde'
p1282
sg5
I1
sg6
S'https://open.spotify.com/track/193Dm5SqYy3hTSbuzxbwKc'
p1283
sg8
S'Writer In The Dark'
p1284
ssS'45OfR7ugJMgbFDuNOVpIq3'
p1285
(dp1286
g3
S'Matoma'
p1287
sg5
I14
sg6
S'https://open.spotify.com/track/45OfR7ugJMgbFDuNOVpIq3'
p1288
sg8
S'Party On The West Coast (feat. Snoop Dogg)'
p1289
ssS'5tf1VVWniHgryyumXyJM7w'
p1290
(dp1291
g3
S'Robin Schulz'
p1292
sg5
I7
sg6
S'https://open.spotify.com/track/5tf1VVWniHgryyumXyJM7w'
p1293
sg8
S'Sugar (feat. Francesco Yates)'
p1294
ssS'32DGGj6KlNuBr6WaqRxpxi'
p1295
(dp1296
g3
S'Charlie Puth'
p1297
sg5
I1
sg6
S'https://open.spotify.com/track/32DGGj6KlNuBr6WaqRxpxi'
p1298
sg8
S'How Long'
p1299
ssS'5eek2X5459T1HoYJk2CKXv'
p1300
(dp1301
g3
S'Papa Roach'
p1302
sg5
I2
sg6
S'https://open.spotify.com/track/5eek2X5459T1HoYJk2CKXv'
p1303
sg8
S'Last Resort'
p1304
ssS'2XlHu0HcujBCkWMdIAvrqt'
p1305
(dp1306
g3
S'Drake'
p1307
sg5
I7
sg6
S'https://open.spotify.com/track/2XlHu0HcujBCkWMdIAvrqt'
p1308
sg8
S'Blem'
p1309
ssS'2jfCy43LsFbCQoB6HyetlY'
p1310
(dp1311
g3
S'SJUR'
p1312
sg5
I1
sg6
S'https://open.spotify.com/track/2jfCy43LsFbCQoB6HyetlY'
p1313
sg8
S'Let Me Love You'
p1314
ssS'5f5r2N4Lp9WoULWPH9zp2W'
p1315
(dp1316
g3
S'Drake'
p1317
sg5
I2
sg6
S'https://open.spotify.com/track/5f5r2N4Lp9WoULWPH9zp2W'
p1318
sg8
S"Can't Have Everything"
p1319
ssS'5Htb1uFQ1KrkFXlefS8oGj'
p1320
(dp1321
g3
S'Demi Lovato'
p1322
sg5
I2
sg6
S'https://open.spotify.com/track/5Htb1uFQ1KrkFXlefS8oGj'
p1323
sg8
S'Tell Me You Love Me'
p1324
ssS'31vZNE9IbY0JI0gRmaLAWr'
p1325
(dp1326
g3
S'The Neighbourhood'
p1327
sg5
I1
sg6
S'https://open.spotify.com/track/31vZNE9IbY0JI0gRmaLAWr'
p1328
sg8
S'Sadderdaze'
p1329
ssS'7nAfXgeHfDO50upcOjJOaq'
p1330
(dp1331
g3
S'Linkin Park'
p1332
sg5
I1
sg6
S'https://open.spotify.com/track/7nAfXgeHfDO50upcOjJOaq'
p1333
sg8
S'Talking to Myself'
p1334
ssS'5hYTyyh2odQKphUbMqc5gN'
p1335
(dp1336
g3
S'Alessia Cara'
p1337
sg5
I22
sg6
S'https://open.spotify.com/track/5hYTyyh2odQKphUbMqc5gN'
p1338
sg8
S"How Far I'll Go - From Moana"
p1339
ssS'7lSdUlVf8k6kxklKkskb1m'
p1340
(dp1341
g3
S'Lana Del Rey'
p1342
sg5
I2
sg6
S'https://open.spotify.com/track/7lSdUlVf8k6kxklKkskb1m'
p1343
sg8
S'Heroin'
p1344
ssS'1sBhJGPUKrdRycgKxve70v'
p1345
(dp1346
g3
S'Felix Jaehn'
p1347
sg5
I13
sg6
S'https://open.spotify.com/track/1sBhJGPUKrdRycgKxve70v'
p1348
sg8
S'Hot2Touch'
p1349
ssS'72jbDTw1piOOj770jWNeaG'
p1350
(dp1351
g3
S'The Chainsmokers'
p1352
sg5
I39
sg6
S'https://open.spotify.com/track/72jbDTw1piOOj770jWNeaG'
p1353
sg8
S'Paris'
p1354
ssS'12REd1n8PeiHHWOh066tpr'
p1355
(dp1356
g3
S'Flume'
p1357
sg5
I1
sg6
S'https://open.spotify.com/track/12REd1n8PeiHHWOh066tpr'
p1358
sg8
S'Never Be Like You'
p1359
ssS'0XfOi87h82i09rQjWYG0Bm'
p1360
(dp1361
g3
S'Jax Jones'
p1362
sg5
I9
sg6
S'https://open.spotify.com/track/0XfOi87h82i09rQjWYG0Bm'
p1363
sg8
S'Instruction (feat. Demi Lovato & Stefflon Don)'
p1364
ssS'11EDhDAVDtGPoSar6ootYA'
p1365
(dp1366
g3
S'Halsey'
p1367
sg5
I3
sg6
S'https://open.spotify.com/track/11EDhDAVDtGPoSar6ootYA'
p1368
sg8
S'Strangers'
p1369
ssS'4sxLB4ibrNZko2Y9wHfwZ3'
p1370
(dp1371
g3
S'Bryson Tiller'
p1372
sg5
I1
sg6
S'https://open.spotify.com/track/4sxLB4ibrNZko2Y9wHfwZ3'
p1373
sg8
S'Get Mine'
p1374
ssS'6FemVsNUb2lzWsDRm14FUJ'
p1375
(dp1376
g3
S'The Script'
p1377
sg5
I4
sg6
S'https://open.spotify.com/track/6FemVsNUb2lzWsDRm14FUJ'
p1378
sg8
S'Rain'
p1379
ssS'5abwHwUhywLGNli5NDcEN7'
p1380
(dp1381
g3
S'Thomas Gold'
p1382
sg5
I6
sg6
S'https://open.spotify.com/track/5abwHwUhywLGNli5NDcEN7'
p1383
sg8
S'Magic'
p1384
ssS'4CnoD3XxuCJC7z0JE3SVWm'
p1385
(dp1386
g3
S'The Main Level'
p1387
sg5
I3
sg6
S'https://open.spotify.com/track/4CnoD3XxuCJC7z0JE3SVWm'
p1388
sg8
S'Bombadilla'
p1389
ssS'5b88tNINg4Q4nrRbrCXUmg'
p1390
(dp1391
g3
S'Pharrell Williams'
p1392
sg5
I1
sg6
S'https://open.spotify.com/track/5b88tNINg4Q4nrRbrCXUmg'
p1393
sg8
S'Happy - From Despicable Me 2'
p1394
ssS'2vLpQi7ApQVqENbfNMpeQI'
p1395
(dp1396
g3
S'Tamta'
p1397
sg5
I1
sg6
S'https://open.spotify.com/track/2vLpQi7ApQVqENbfNMpeQI'
p1398
sg8
S'Ilious Ke Thalasses'
p1399
ssS'3d90ERLBxR3o44o4r9hWTl'
p1400
(dp1401
g3
S'Lana Del Rey'
p1402
sg5
I2
sg6
S'https://open.spotify.com/track/3d90ERLBxR3o44o4r9hWTl'
p1403
sg8
S'Coachella - Woodstock In My Mind'
p1404
ssS'12o6dxWGk29uIAP3OWY0pM'
p1405
(dp1406
g3
S'Lorde'
p1407
sg5
I5
sg6
S'https://open.spotify.com/track/12o6dxWGk29uIAP3OWY0pM'
p1408
sg8
S'Homemade Dynamite'
p1409
ssS'4iky6W6te4VvMSBoAa97Yk'
p1410
(dp1411
g3
S'Giorgos Sabanis'
p1412
sg5
I16
sg6
S'https://open.spotify.com/track/4iky6W6te4VvMSBoAa97Yk'
p1413
sg8
S'Mono Esy'
p1414
ssS'6YnzBV7YkaXZNCK3tlnCfg'
p1415
(dp1416
g3
S'Boney M.'
p1417
sg5
I1
sg6
S'https://open.spotify.com/track/6YnzBV7YkaXZNCK3tlnCfg'
p1418
sg8
S"Mary's Boy Child / Oh My Lord"
p1419
ssS'6p8NuHm8uCGnn2Dtbtf7zE'
p1420
(dp1421
g3
S'Migos'
p1422
sg5
I23
sg6
S'https://open.spotify.com/track/6p8NuHm8uCGnn2Dtbtf7zE'
p1423
sg8
S'Slippery (feat. Gucci Mane)'
p1424
ssS'2KvHC9z14GSl4YpkNMX384'
p1425
(dp1426
g3
S'Drake'
p1427
sg5
I4
sg6
S'https://open.spotify.com/track/2KvHC9z14GSl4YpkNMX384'
p1428
sg8
S'Do Not Disturb'
p1429
ssS'46GGxd8TVRt6FjUBfCavVT'
p1430
(dp1431
g3
S'X Ambassadors'
p1432
sg5
I4
sg6
S'https://open.spotify.com/track/46GGxd8TVRt6FjUBfCavVT'
p1433
sg8
S'Renegades'
p1434
ssS'77lGafvlU68CeHgB2pkHC9'
p1435
(dp1436
g3
S'Machine Gun Kelly'
p1437
sg5
I10
sg6
S'https://open.spotify.com/track/77lGafvlU68CeHgB2pkHC9'
p1438
sg8
S'At My Best (feat. Hailee Steinfeld)'
p1439
ssS'0dA2Mk56wEzDgegdC6R17g'
p1440
(dp1441
g3
S'Zedd'
p1442
sg5
I33
sg6
S'https://open.spotify.com/track/0dA2Mk56wEzDgegdC6R17g'
p1443
sg8
S'Stay (with Alessia Cara)'
p1444
ssS'3kGfazcbVvVkuZunzlLgTD'
p1445
(dp1446
g3
S'Sigala'
p1447
sg5
I18
sg6
S'https://open.spotify.com/track/3kGfazcbVvVkuZunzlLgTD'
p1448
sg8
S'Came Here for Love'
p1449
ssS'3Ytr1SUCUi6J3L9dRFx5iH'
p1450
(dp1451
g3
S'Major Lazer'
p1452
sg5
I19
sg6
S'https://open.spotify.com/track/3Ytr1SUCUi6J3L9dRFx5iH'
p1453
sg8
S'Know No Better (feat. Quavo)'
p1454
ssS'25wStx3LyTjYmHTd3RDu0t'
p1455
(dp1456
g3
S'Ty Dolla $ign'
p1457
sg5
I1
sg6
S'https://open.spotify.com/track/25wStx3LyTjYmHTd3RDu0t'
p1458
sg8
S'Ex (feat. YG)'
p1459
ssS'1sl5tSzfK1JrcQIcA8rYDy'
p1460
(dp1461
g3
S'Grey'
p1462
sg5
I5
sg6
S'https://open.spotify.com/track/1sl5tSzfK1JrcQIcA8rYDy'
p1463
sg8
S'I Miss You'
p1464
ssS'5mDxt91vXGenhsLcCM9EYG'
p1465
(dp1466
g3
S'Padelis Padelidis'
p1467
sg5
I1
sg6
S'https://open.spotify.com/track/5mDxt91vXGenhsLcCM9EYG'
p1468
sg8
S"De Se Sighoro (Sto 'ha Pi)"
p1469
ssS'269xqcgGTN9PlivhUkOLhX'
p1470
(dp1471
g3
S'Lana Del Rey'
p1472
sg5
I3
sg6
S'https://open.spotify.com/track/269xqcgGTN9PlivhUkOLhX'
p1473
sg8
S'In My Feelings'
p1474
ssS'0jRcwtTkpoGPAlhdHMYHaJ'
p1475
(dp1476
g3
S'Padelis Padelidis'
p1477
sg5
I11
sg6
S'https://open.spotify.com/track/0jRcwtTkpoGPAlhdHMYHaJ'
p1478
sg8
S'Alli Mia Efkeria'
p1479
ssS'5ZnJsoJGkQ5K15W7Rcr5JO'
p1480
(dp1481
g3
S'Little Mix'
p1482
sg5
I7
sg6
S'https://open.spotify.com/track/5ZnJsoJGkQ5K15W7Rcr5JO'
p1483
sg8
S'No More Sad Songs (feat. Machine Gun Kelly)'
p1484
ssS'7nZmah2llfvLDiUjm0kiyz'
p1485
(dp1486
g3
S'Justin Bieber'
p1487
sg5
I8
sg6
S'https://open.spotify.com/track/7nZmah2llfvLDiUjm0kiyz'
p1488
sg8
S'Friends (with BloodPop\xc2\xae)'
p1489
ssS'13HVjjWUZFaWilh2QUJKsP'
p1490
(dp1491
g3
S'James Bay'
p1492
sg5
I9
sg6
S'https://open.spotify.com/track/13HVjjWUZFaWilh2QUJKsP'
p1493
sg8
S'Let It Go'
p1494
ssS'0y9uTzK9cNKSAEHnpeRG8C'
p1495
(dp1496
g3
S'Kendrick Lamar'
p1497
sg5
I2
sg6
S'https://open.spotify.com/track/0y9uTzK9cNKSAEHnpeRG8C'
p1498
sg8
S'DUCKWORTH.'
p1499
ssS'2vQwlW8H1jFveGNXwZfJCV'
p1500
(dp1501
g3
S'XXXTENTACION'
p1502
sg5
I1
sg6
S'https://open.spotify.com/track/2vQwlW8H1jFveGNXwZfJCV'
p1503
sg8
S'Dead Inside (Interlude)'
p1504
ssS'3eFJqPe8VUYrABbFjSauuj'
p1505
(dp1506
g3
S''
p1507
sg5
I1
sg6
S'https://open.spotify.com/track/3eFJqPe8VUYrABbFjSauuj'
p1508
sg8
g1507
ssS'6D0b04NJIKfEMg040WioJQ'
p1509
(dp1510
g3
S'Julia Michaels'
p1511
sg5
I2
sg6
S'https://open.spotify.com/track/6D0b04NJIKfEMg040WioJQ'
p1512
sg8
S'Issues'
p1513
ssS'7fwXWKdDNI5IutOMc5OKYw'
p1514
(dp1515
g3
S'J Balvin'
p1516
sg5
I2
sg6
S'https://open.spotify.com/track/7fwXWKdDNI5IutOMc5OKYw'
p1517
sg8
S'Mi Gente (feat. Beyonc\xc3\xa9)'
p1518
ssS'7of1slAJIWrXxP8ikAHxje'
p1519
(dp1520
g3
S'James Hersey'
p1521
sg5
I3
sg6
S'https://open.spotify.com/track/7of1slAJIWrXxP8ikAHxje'
p1522
sg8
S'Miss You'
p1523
ssS'5VaLhE67iBHeuPKbyGS2wk'
p1524
(dp1525
g3
S'Mike Perry'
p1526
sg5
I9
sg6
S'https://open.spotify.com/track/5VaLhE67iBHeuPKbyGS2wk'
p1527
sg8
S'Hands'
p1528
ssS'761QvVHTibYjEi2r6A4g4Q'
p1529
(dp1530
g3
S'Lana Del Rey'
p1531
sg5
I1
sg6
S'https://open.spotify.com/track/761QvVHTibYjEi2r6A4g4Q'
p1532
sg8
S'Get Free'
p1533
ssS'2dfHh7ECGxfNqZTQno09Vk'
p1534
(dp1535
g3
S'Ed Sheeran'
p1536
sg5
I5
sg6
S'https://open.spotify.com/track/2dfHh7ECGxfNqZTQno09Vk'
p1537
sg8
S"Hearts Don't Break Around Here"
p1538
ssS'6n8TMVyFKoUmDc4apxceRD'
p1539
(dp1540
g3
S'Linkin Park'
p1541
sg5
I1
sg6
S'https://open.spotify.com/track/6n8TMVyFKoUmDc4apxceRD'
p1542
sg8
S'Breaking The Habit'
p1543
ssS'7JGtJqhhjYCD4hqY8thjkL'
p1544
(dp1545
g3
S'Miquela'
p1546
sg5
I1
sg6
S'https://open.spotify.com/track/7JGtJqhhjYCD4hqY8thjkL'
p1547
sg8
S'Not Mine'
p1548
ssS'76Y0gxtTxN0FyDCYh5qYQj'
p1549
(dp1550
g3
S'Migos'
p1551
sg5
I11
sg6
S'https://open.spotify.com/track/76Y0gxtTxN0FyDCYh5qYQj'
p1552
sg8
S'Get Right Witcha'
p1553
ssS'67M8Sg4R7bEidOf0cag0Ld'
p1554
(dp1555
g3
S'HAIM'
p1556
sg5
I1
sg6
S'https://open.spotify.com/track/67M8Sg4R7bEidOf0cag0Ld'
p1557
sg8
S'Little of Your Love - BloodPop\xc2\xae Remix'
p1558
ssS'542Xd5qDeLBvgXZXhfW7LE'
p1559
(dp1560
g3
S'Vice'
p1561
sg5
I3
sg6
S'https://open.spotify.com/track/542Xd5qDeLBvgXZXhfW7LE'
p1562
sg8
S'Obsession (feat. Jon Bellion)'
p1563
ssS'0jOfl1nZf6sVBTG08Q4brn'
p1564
(dp1565
g3
S'Migos'
p1566
sg5
I1
sg6
S'https://open.spotify.com/track/0jOfl1nZf6sVBTG08Q4brn'
p1567
sg8
S'Call Casting'
p1568
ssS'7l9CE3wmEGOUYw1j4ETjnL'
p1569
(dp1570
g3
S'Gorillaz'
p1571
sg5
I1
sg6
S'https://open.spotify.com/track/7l9CE3wmEGOUYw1j4ETjnL'
p1572
sg8
S'Saturnz Barz (feat. Popcaan)'
p1573
ssS'5fc6rQgAKiLutfUYWQ6QnJ'
p1574
(dp1575
g3
S'Sia'
p1576
sg5
I6
sg6
S'https://open.spotify.com/track/5fc6rQgAKiLutfUYWQ6QnJ'
p1577
sg8
S'Helium - From Fifty Shades Darker (Original Motion Picture Soundtrack)'
p1578
ssS'0ffweDHrg4bZqdG4IfGYuo'
p1579
(dp1580
g3
S'BTS'
p1581
sg5
I2
sg6
S'https://open.spotify.com/track/0ffweDHrg4bZqdG4IfGYuo'
p1582
sg8
S'Pied Piper'
p1583
ssS'0NiXXAI876aGImAd6rTj8w'
p1584
(dp1585
g3
S'Jonas Blue'
p1586
sg5
I14
sg6
S'https://open.spotify.com/track/0NiXXAI876aGImAd6rTj8w'
p1587
sg8
S'Mama'
p1588
ssS'343YBumqHu19cGoGARUTsd'
p1589
(dp1590
g3
S'Drake'
p1591
sg5
I40
sg6
S'https://open.spotify.com/track/343YBumqHu19cGoGARUTsd'
p1592
sg8
S'Fake Love'
p1593
ssS'5HDPtsnyb3maFmPL8LLUTG'
p1594
(dp1595
g3
S'Ed Sheeran'
p1596
sg5
I6
sg6
S'https://open.spotify.com/track/5HDPtsnyb3maFmPL8LLUTG'
p1597
sg8
S'New Man'
p1598
ssS'2CCfudTf3bHvtNbRmWtXHr'
p1599
(dp1600
g3
S'Preme'
p1601
sg5
I1
sg6
S'https://open.spotify.com/track/2CCfudTf3bHvtNbRmWtXHr'
p1602
sg8
S'Tango (Go)'
p1603
ssS'4xyNG8vZR3g8FnphVkbjRo'
p1604
(dp1605
g3
S'Lana Del Rey'
p1606
sg5
I2
sg6
S'https://open.spotify.com/track/4xyNG8vZR3g8FnphVkbjRo'
p1607
sg8
S'Love'
p1608
ssS'299lFlaAsNQdgbIZNPmIA0'
p1609
(dp1610
g3
S'Vince Guaraldi Trio'
p1611
sg5
I1
sg6
S'https://open.spotify.com/track/299lFlaAsNQdgbIZNPmIA0'
p1612
sg8
S'Christmas Time Is Here - Vocal'
p1613
ssS'6WbADFqMvR8N5u0BvtsWQE'
p1614
(dp1615
g3
S'Avicii'
p1616
sg5
I9
sg6
S'https://open.spotify.com/track/6WbADFqMvR8N5u0BvtsWQE'
p1617
sg8
S'Without You (feat. Sandro Cavazza)'
p1618
ssS'7i9763l5SSfOnqZ35VOcfy'
p1619
(dp1620
g3
S'Twenty One Pilots'
p1621
sg5
I2
sg6
S'https://open.spotify.com/track/7i9763l5SSfOnqZ35VOcfy'
p1622
sg8
S'Heavydirtysoul'
p1623
ssS'4pdPtRcBmOSQDlJ3Fk945m'
p1624
(dp1625
g3
S'DJ Snake'
p1626
sg5
I42
sg6
S'https://open.spotify.com/track/4pdPtRcBmOSQDlJ3Fk945m'
p1627
sg8
S'Let Me Love You'
p1628
ssS'5EnYT6F7wEcdege6mDHEfO'
p1629
(dp1630
g3
S'Drake'
p1631
sg5
I13
sg6
S'https://open.spotify.com/track/5EnYT6F7wEcdege6mDHEfO'
p1632
sg8
S'Signs'
p1633
ssS'1uoL9GX45dTnmrWQ7Ii1Ft'
p1634
(dp1635
g3
S'Halsey'
p1636
sg5
I3
sg6
S'https://open.spotify.com/track/1uoL9GX45dTnmrWQ7Ii1Ft'
p1637
sg8
S'Not Afraid Anymore'
p1638
ssS'6H0AwSQ20mo62jGlPGB8S6'
p1639
(dp1640
g3
S'2 Chainz'
p1641
sg5
I4
sg6
S'https://open.spotify.com/track/6H0AwSQ20mo62jGlPGB8S6'
p1642
sg8
S"It's A Vibe"
p1643
ssS'1OAiWI2oPmglaOiv9fdioU'
p1644
(dp1645
g3
S'Coldplay'
p1646
sg5
I17
sg6
S'https://open.spotify.com/track/1OAiWI2oPmglaOiv9fdioU'
p1647
sg8
S'Hymn For The Weekend - Seeb Remix'
p1648
ssS'6Ll3qUTssdGWMxbwhMud2N'
p1649
(dp1650
g3
S'Nick Jonas'
p1651
sg5
I1
sg6
S'https://open.spotify.com/track/6Ll3qUTssdGWMxbwhMud2N'
p1652
sg8
S'Find You'
p1653
ssS'5rdtA538Bqr7Y9FWfAVWi7'
p1654
(dp1655
g3
S'Margaret'
p1656
sg5
I1
sg6
S'https://open.spotify.com/track/5rdtA538Bqr7Y9FWfAVWi7'
p1657
sg8
S'What You Do'
p1658
ssS'7LEydI5NfjY6mZfKwYIptZ'
p1659
(dp1660
g3
S'Fifth Harmony'
p1661
sg5
I12
sg6
S'https://open.spotify.com/track/7LEydI5NfjY6mZfKwYIptZ'
p1662
sg8
S'Down'
p1663
ssS'7y9iMe8SOB6z3NoHE2OfXl'
p1664
(dp1665
g3
S'Halsey'
p1666
sg5
I10
sg6
S'https://open.spotify.com/track/7y9iMe8SOB6z3NoHE2OfXl'
p1667
sg8
S'Bad At Love'
p1668
ssS'2Na0z2gfN67Rzf0vp74Wi3'
p1669
(dp1670
g3
S'Drake'
p1671
sg5
I2
sg6
S'https://open.spotify.com/track/2Na0z2gfN67Rzf0vp74Wi3'
p1672
sg8
S'Lose You'
p1673
ssS'7oK9VyNzrYvRFo7nQEYkWN'
p1674
(dp1675
g3
S'The Killers'
p1676
sg5
I3
sg6
S'https://open.spotify.com/track/7oK9VyNzrYvRFo7nQEYkWN'
p1677
sg8
S'Mr. Brightside'
p1678
ssS'0o7glLPfZgns8ZF14Wlpf7'
p1679
(dp1680
g3
S'Kelly Clarkson'
p1681
sg5
I1
sg6
S'https://open.spotify.com/track/0o7glLPfZgns8ZF14Wlpf7'
p1682
sg8
S'Love So Soft'
p1683
ssS'2jYmK1cb3Uya6FFsocdpzO'
p1684
(dp1685
g3
S'Sabrina Carpenter'
p1686
sg5
I10
sg6
S'https://open.spotify.com/track/2jYmK1cb3Uya6FFsocdpzO'
p1687
sg8
S'Why'
p1688
ssS'5OOkp4U9P9oL23maHFHL1h'
p1689
(dp1690
g3
S'Desiigner'
p1691
sg5
I42
sg6
S'https://open.spotify.com/track/5OOkp4U9P9oL23maHFHL1h'
p1692
sg8
S'Panda'
p1693
ssS'7zTx8ePYAmPFQuxP3xlXZn'
p1694
(dp1695
g3
S'San Holo'
p1696
sg5
I9
sg6
S'https://open.spotify.com/track/7zTx8ePYAmPFQuxP3xlXZn'
p1697
sg8
S'Light'
p1698
ssS'3qmvK8QARSPkFTuKeIXSbs'
p1699
(dp1700
g3
S'Linkin Park'
p1701
sg5
I1
sg6
S'https://open.spotify.com/track/3qmvK8QARSPkFTuKeIXSbs'
p1702
sg8
S'Bleed It Out'
p1703
ssS'7y6c07pgjZvtHI9kuMVqk1'
p1704
(dp1705
g3
S'Drake'
p1706
sg5
I7
sg6
S'https://open.spotify.com/track/7y6c07pgjZvtHI9kuMVqk1'
p1707
sg8
S'Get It Together'
p1708
ssS'4ckuS4Nj4FZ7i3Def3Br8W'
p1709
(dp1710
g3
S'Drake'
p1711
sg5
I13
sg6
S'https://open.spotify.com/track/4ckuS4Nj4FZ7i3Def3Br8W'
p1712
sg8
S'Sneakin\xe2\x80\x99'
p1713
ssS'5EBvHC0SGFJDenBJafqOX4'
p1714
(dp1715
g3
S'Halsey'
p1716
sg5
I1
sg6
S'https://open.spotify.com/track/5EBvHC0SGFJDenBJafqOX4'
p1717
sg8
S'100 Letters'
p1718
ssS'5RCfvwDewu6p2x1mEI6smX'
p1719
(dp1720
g3
S'Tay-K'
p1721
sg5
I1
sg6
S'https://open.spotify.com/track/5RCfvwDewu6p2x1mEI6smX'
p1722
sg8
S'The Race'
p1723
ssS'1WIZiOuNO3woKfdlSK2gNn'
p1724
(dp1725
g3
S'Kodak Black'
p1726
sg5
I2
sg6
S'https://open.spotify.com/track/1WIZiOuNO3woKfdlSK2gNn'
p1727
sg8
S"Transportin'"
p1728
ssS'3cFsmM51N5zMAuu1nNY4Tw'
p1729
(dp1730
g3
S'Sean Paul'
p1731
sg5
I38
sg6
S'https://open.spotify.com/track/3cFsmM51N5zMAuu1nNY4Tw'
p1732
sg8
S'No Lie'
p1733
ssS'79cuOz3SPQTuFrp8WgftAu'
p1734
(dp1735
g3
S'Shawn Mendes'
p1736
sg5
I26
sg6
S'https://open.spotify.com/track/79cuOz3SPQTuFrp8WgftAu'
p1737
sg8
S"There's Nothing Holdin' Me Back"
p1738
ssS'4c2W3VKsOFoIg2SFaO6DY5'
p1739
(dp1740
g3
S'Rita Ora'
p1741
sg5
I20
sg6
S'https://open.spotify.com/track/4c2W3VKsOFoIg2SFaO6DY5'
p1742
sg8
S'Your Song'
p1743
ssS'0lmdsH1MIoLsMymnNpd6HU'
p1744
(dp1745
g3
S'Dante Klein'
p1746
sg5
I7
sg6
S'https://open.spotify.com/track/0lmdsH1MIoLsMymnNpd6HU'
p1747
sg8
S'Let Me Hold You (Turn Me On)'
p1748
ssS'4ARPvK8DHLwt4oX65ZAFMw'
p1749
(dp1750
g3
S'XXXTENTACION'
p1751
sg5
I30
sg6
S'https://open.spotify.com/track/4ARPvK8DHLwt4oX65ZAFMw'
p1752
sg8
S'Look At Me!'
p1753
ssS'3UjJP4ludb74a29P5EHEIo'
p1754
(dp1755
g3
S'Sabrina Carpenter'
p1756
sg5
I11
sg6
S'https://open.spotify.com/track/3UjJP4ludb74a29P5EHEIo'
p1757
sg8
S'Thumbs'
p1758
ssS'2xI4CmkT6Bl4s5b4qggcgU'
p1759
(dp1760
g3
S'Isaiah'
p1761
sg5
I1
sg6
S'https://open.spotify.com/track/2xI4CmkT6Bl4s5b4qggcgU'
p1762
sg8
S"Don't Come Easy"
p1763
ssS'0dssTLrqY79Klk6jx2RXCj'
p1764
(dp1765
g3
S'Lana Del Rey'
p1766
sg5
I1
sg6
S'https://open.spotify.com/track/0dssTLrqY79Klk6jx2RXCj'
p1767
sg8
S'When The World Was At War We Kept Dancing'
p1768
ssS'3eR23VReFzcdmS7TYCrhCe'
p1769
(dp1770
g3
S'Kygo'
p1771
sg5
I34
sg6
S'https://open.spotify.com/track/3eR23VReFzcdmS7TYCrhCe'
p1772
sg8
S"It Ain't Me (with Selena Gomez)"
p1773
ssS'6a9vKVMFfNBi741DVSit3H'
p1774
(dp1775
g3
S'Felix Jaehn'
p1776
sg5
I2
sg6
S'https://open.spotify.com/track/6a9vKVMFfNBi741DVSit3H'
p1777
sg8
S'Feel Good'
p1778
ssS'2eAZfqOm4EnOF9VvN50Tyc'
p1779
(dp1780
g3
S'Lil Uzi Vert'
p1781
sg5
I7
sg6
S'https://open.spotify.com/track/2eAZfqOm4EnOF9VvN50Tyc'
p1782
sg8
S'The Way Life Goes'
p1783
ssS'3LnOF5n1GOs01siYZXzS3p'
p1784
(dp1785
g3
S'A Boogie Wit da Hoodie'
p1786
sg5
I3
sg6
S'https://open.spotify.com/track/3LnOF5n1GOs01siYZXzS3p'
p1787
sg8
S'Drowning (feat. Kodak Black)'
p1788
ssS'6jA8HL9i4QGzsj6fjoxp8Y'
p1789
(dp1790
g3
S'Martin Garrix'
p1791
sg5
I20
sg6
S'https://open.spotify.com/track/6jA8HL9i4QGzsj6fjoxp8Y'
p1792
sg8
S'There for You'
p1793
ssS'5LXj9Ch3O9ATm1NoHT8GXn'
p1794
(dp1795
g3
S'Coldplay'
p1796
sg5
I1
sg6
S'https://open.spotify.com/track/5LXj9Ch3O9ATm1NoHT8GXn'
p1797
sg8
S'Hypnotised'
p1798
ssS'5bZtRlMBU76vHuDOb1GM5u'
p1799
(dp1800
g3
S'Jonas Blue'
p1801
sg5
I2
sg6
S'https://open.spotify.com/track/5bZtRlMBU76vHuDOb1GM5u'
p1802
sg8
S'Perfect Strangers'
p1803
ssS'2OWKDTonST8HNko3dBlPPp'
p1804
(dp1805
g3
S'Dua Lipa'
p1806
sg5
I1
sg6
S'https://open.spotify.com/track/2OWKDTonST8HNko3dBlPPp'
p1807
sg8
S'Lost In Your Light (feat. Miguel)'
p1808
ssS'32lgtADX2cB9I4KFs1Y1py'
p1809
(dp1810
g3
S'The Weeknd'
p1811
sg5
I8
sg6
S'https://open.spotify.com/track/32lgtADX2cB9I4KFs1Y1py'
p1812
sg8
S'False Alarm'
p1813
ssS'6TIU9Ehmi6dMzZK73Ym4yj'
p1814
(dp1815
g3
S'Ed Sheeran'
p1816
sg5
I4
sg6
S'https://open.spotify.com/track/6TIU9Ehmi6dMzZK73Ym4yj'
p1817
sg8
S'Save Myself'
p1818
ssS'7taXf5odg9xCAZERYfyOkS'
p1819
(dp1820
g3
S'Jos\xc3\xa9 Feliciano'
p1821
sg5
I1
sg6
S'https://open.spotify.com/track/7taXf5odg9xCAZERYfyOkS'
p1822
sg8
S'Feliz Navidad'
p1823
ssS'1OmcAT5Y8eg5bUPv9qJT4R'
p1824
(dp1825
g3
S'Post Malone'
p1826
sg5
I3
sg6
S'https://open.spotify.com/track/1OmcAT5Y8eg5bUPv9qJT4R'
p1827
sg8
S'rockstar'
p1828
ssS'3hRZsdTF5uyGA2uhNqEuhm'
p1829
(dp1830
g3
S'Niall Horan'
p1831
sg5
I4
sg6
S'https://open.spotify.com/track/3hRZsdTF5uyGA2uhNqEuhm'
p1832
sg8
S'Too Much To Ask'
p1833
ssS'5YYjsDIxJKpVgNLkPpBmRA'
p1834
(dp1835
g3
S'Desiigner'
p1836
sg5
I3
sg6
S'https://open.spotify.com/track/5YYjsDIxJKpVgNLkPpBmRA'
p1837
sg8
S'Up'
p1838
ssS'2lDWYLNnfYyXngjz4plpy2'
p1839
(dp1840
g3
S'Emma Stone'
p1841
sg5
I3
sg6
S'https://open.spotify.com/track/2lDWYLNnfYyXngjz4plpy2'
p1842
sg8
S'Audition (The Fools Who Dream) - From La La Land Soundtrack'
p1843
ssS'2mfUa8bLs2s5N4VaqJZ4lZ'
p1844
(dp1845
g3
S'Hailee Steinfeld'
p1846
sg5
I24
sg6
S'https://open.spotify.com/track/2mfUa8bLs2s5N4VaqJZ4lZ'
p1847
sg8
S'Most Girls'
p1848
ssS'7floNISpH8VF4z4459Qo18'
p1849
(dp1850
g3
S'XXXTENTACION'
p1851
sg5
I2
sg6
S'https://open.spotify.com/track/7floNISpH8VF4z4459Qo18'
p1852
sg8
S'Look At Me!'
p1853
ssS'4aWmUDTfIPGksMNLV2rQP2'
p1854
(dp1855
g3
S'Luis Fonsi'
p1856
sg5
I38
sg6
S'https://open.spotify.com/track/4aWmUDTfIPGksMNLV2rQP2'
p1857
sg8
S'Despacito (Featuring Daddy Yankee)'
p1858
ssS'58zsLZPvfflaiIbNWoA22O'
p1859
(dp1860
g3
S"Rag'n'Bone Man"
p1861
sg5
I42
sg6
S'https://open.spotify.com/track/58zsLZPvfflaiIbNWoA22O'
p1862
sg8
S'Human'
p1863
ssS'5dKyZWlgjWw1oJgLa4GCZD'
p1864
(dp1865
g3
S'Tove Lo'
p1866
sg5
I6
sg6
S'https://open.spotify.com/track/5dKyZWlgjWw1oJgLa4GCZD'
p1867
sg8
S'Cool Girl'
p1868
ssS'60APt5N2NRaKWf5xzJdzyC'
p1869
(dp1870
g3
S'Calvin Harris'
p1871
sg5
I8
sg6
S'https://open.spotify.com/track/60APt5N2NRaKWf5xzJdzyC'
p1872
sg8
S'Heatstroke'
p1873
ssS'1HTtUBEY3tuw2btgwwI2Ja'
p1874
(dp1875
g3
S'Gucci Mane'
p1876
sg5
I8
sg6
S'https://open.spotify.com/track/1HTtUBEY3tuw2btgwwI2Ja'
p1877
sg8
S'I Get The Bag (feat. Migos)'
p1878
ssS'25C5CowdsfXld2jJanbiex'
p1879
(dp1880
g3
S'Demi Lovato'
p1881
sg5
I12
sg6
S'https://open.spotify.com/track/25C5CowdsfXld2jJanbiex'
p1882
sg8
S'Sorry Not Sorry'
p1883
ssS'1vVNlXi8gf8tZ7OhnEs4VE'
p1884
(dp1885
g3
S'French Montana'
p1886
sg5
I1
sg6
S'https://open.spotify.com/track/1vVNlXi8gf8tZ7OhnEs4VE'
p1887
sg8
S'A Lie'
p1888
ssS'6tt0QkZlKcP85Tx5F3baO6'
p1889
(dp1890
g3
S'Halloran & Kate'
p1891
sg5
I4
sg6
S'https://open.spotify.com/track/6tt0QkZlKcP85Tx5F3baO6'
p1892
sg8
S'Weak - Boonz Tropical Remix'
p1893
ssS'2Z8WuEywRWYTKe1NybPQEW'
p1894
(dp1895
g3
S'Twenty One Pilots'
p1896
sg5
I22
sg6
S'https://open.spotify.com/track/2Z8WuEywRWYTKe1NybPQEW'
p1897
sg8
S'Ride'
p1898
ssS'52okn5MNA47tk87PeZJLEL'
p1899
(dp1900
g3
S'NF'
p1901
sg5
I1
sg6
S'https://open.spotify.com/track/52okn5MNA47tk87PeZJLEL'
p1902
sg8
S'Let You Down'
p1903
ssS'6JV2JOEocMgcZxYSZelKcc'
p1904
(dp1905
g3
S'Justin Timberlake'
p1906
sg5
I33
sg6
S'https://open.spotify.com/track/6JV2JOEocMgcZxYSZelKcc'
p1907
sg8
S"CAN'T STOP THE FEELING! (Original Song from DreamWorks Animation's TROLLS)"
p1908
ssS'05KOgYg8PGeJyyWBPi5ja8'
p1909
(dp1910
g3
S'Drake'
p1911
sg5
I6
sg6
S'https://open.spotify.com/track/05KOgYg8PGeJyyWBPi5ja8'
p1912
sg8
S'Free Smoke'
p1913
ssS'6De0lHrwBfPfrhorm9q1Xl'
p1914
(dp1915
g3
S'Danny Ocean'
p1916
sg5
I21
sg6
S'https://open.spotify.com/track/6De0lHrwBfPfrhorm9q1Xl'
p1917
sg8
S'Me Reh\xc3\xbaso'
p1918
ssS'7aV2mflaASUmGhCErm7kBO'
p1919
(dp1920
g3
S'Nevada'
p1921
sg5
I7
sg6
S'https://open.spotify.com/track/7aV2mflaASUmGhCErm7kBO'
p1922
sg8
S'The Mack'
p1923
ssS'0bYg9bo50gSsH3LtXe2SQn'
p1924
(dp1925
g3
S'Mariah Carey'
p1926
sg5
I2
sg6
S'https://open.spotify.com/track/0bYg9bo50gSsH3LtXe2SQn'
p1927
sg8
S'All I Want for Christmas Is You'
p1928
ssS'6sDQ4uiWw9OdVrCXFLSlZt'
p1929
(dp1930
g3
S'Eminem'
p1931
sg5
I31
sg6
S'https://open.spotify.com/track/6sDQ4uiWw9OdVrCXFLSlZt'
p1932
sg8
S'Rap God'
p1933
ssS'3Q3myFA7q4Op95DOpHplaY'
p1934
(dp1935
g3
S'blackbear'
p1936
sg5
I7
sg6
S'https://open.spotify.com/track/3Q3myFA7q4Op95DOpHplaY'
p1937
sg8
S'do re mi'
p1938
ssS'3rOSwuTsUlJp0Pu0MkN8r8'
p1939
(dp1940
g3
S'Future'
p1941
sg5
I34
sg6
S'https://open.spotify.com/track/3rOSwuTsUlJp0Pu0MkN8r8'
p1942
sg8
S'Mask Off'
p1943
ssS'3ryjLm3oupIjJFGc39naNi'
p1944
(dp1945
g3
S'BTS'
p1946
sg5
I2
sg6
S'https://open.spotify.com/track/3ryjLm3oupIjJFGc39naNi'
p1947
sg8
S'dimple'
p1948
ssS'1qOLh0tI7trd1zdDKxYZTe'
p1949
(dp1950
g3
S'Hailee Steinfeld'
p1951
sg5
I32
sg6
S'https://open.spotify.com/track/1qOLh0tI7trd1zdDKxYZTe'
p1952
sg8
S'Starving'
p1953
ssS'0cqRj7pUJDkTCEsJkx8snD'
p1954
(dp1955
g3
S'Taylor Swift'
p1956
sg5
I4
sg6
S'https://open.spotify.com/track/0cqRj7pUJDkTCEsJkx8snD'
p1957
sg8
S'Shake It Off'
p1958
ssS'3HVr6jTVwBHBa2flM0eURR'
p1959
(dp1960
g3
S'Macklemore'
p1961
sg5
I9
sg6
S'https://open.spotify.com/track/3HVr6jTVwBHBa2flM0eURR'
p1962
sg8
S'Glorious (feat. Skylar Grey)'
p1963
ssS'7inXu0Eaeg02VsM8kHNvzM'
p1964
(dp1965
g3
S'Frank Sinatra'
p1966
sg5
I2
sg6
S'https://open.spotify.com/track/7inXu0Eaeg02VsM8kHNvzM'
p1967
sg8
S'Let It Snow! Let It Snow! Let It Snow!'
p1968
ssS'0JiVRyTJcJnmlwCZ854K4p'
p1969
(dp1970
g3
S'Alan Walker'
p1971
sg5
I11
sg6
S'https://open.spotify.com/track/0JiVRyTJcJnmlwCZ854K4p'
p1972
sg8
S'Alone'
p1973
ssS'1cG0umU5TKStygKsPFZ9pY'
p1974
(dp1975
g3
S'Robin Schulz'
p1976
sg5
I38
sg6
S'https://open.spotify.com/track/1cG0umU5TKStygKsPFZ9pY'
p1977
sg8
S'Shed a Light'
p1978
ssS'6520aj0B4FSKGVuKNsOCOi'
p1979
(dp1980
g3
S'Katy Perry'
p1981
sg5
I27
sg6
S'https://open.spotify.com/track/6520aj0B4FSKGVuKNsOCOi'
p1982
sg8
S'Chained To The Rhythm'
p1983
ssS'3caMfJGFp53NAH2TuigdNj'
p1984
(dp1985
g3
S'Galantis'
p1986
sg5
I17
sg6
S'https://open.spotify.com/track/3caMfJGFp53NAH2TuigdNj'
p1987
sg8
S'Hunter'
p1988
ssS'6EpRaXYhGOB3fj4V2uDkMJ'
p1989
(dp1990
g3
S'Liam Payne'
p1991
sg5
I21
sg6
S'https://open.spotify.com/track/6EpRaXYhGOB3fj4V2uDkMJ'
p1992
sg8
S'Strip That Down'
p1993
ssS'5ChkMS8OtdzJeqyybCc9R5'
p1994
(dp1995
g3
S'Michael Jackson'
p1996
sg5
I1
sg6
S'https://open.spotify.com/track/5ChkMS8OtdzJeqyybCc9R5'
p1997
sg8
S'Billie Jean'
p1998
ssS'6kig1UFggPUyZBCvXD3Wod'
p1999
(dp2000
g3
S'Metro Boomin'
p2001
sg5
I14
sg6
S'https://open.spotify.com/track/6kig1UFggPUyZBCvXD3Wod'
p2002
sg8
S'No Complaints'
p2003
ssS'1r0faljjM2b876iNoaDUh5'
p2004
(dp2005
g3
S'Big Sean'
p2006
sg5
I1
sg6
S'https://open.spotify.com/track/1r0faljjM2b876iNoaDUh5'
p2007
sg8
S'Sacrifices'
p2008
ssS'3Db8OhBMmNPLv2rHYoP7Wf'
p2009
(dp2010
g3
S'John Gibbons'
p2011
sg5
I15
sg6
S'https://open.spotify.com/track/3Db8OhBMmNPLv2rHYoP7Wf'
p2012
sg8
S'P.Y.T. (Pretty Young Thing)'
p2013
ssS'1wjzFQodRWrPcQ0AnYnvQ9'
p2014
(dp2015
g3
S'Lauv'
p2016
sg5
I19
sg6
S'https://open.spotify.com/track/1wjzFQodRWrPcQ0AnYnvQ9'
p2017
sg8
S'I Like Me Better'
p2018
ssS'51PIvodunv6NmX5250zxAh'
p2019
(dp2020
g3
S'Lady Gaga'
p2021
sg5
I13
sg6
S'https://open.spotify.com/track/51PIvodunv6NmX5250zxAh'
p2022
sg8
S'The Cure'
p2023
ssS'03hqMhmCZiNKMSPmVabPLP'
p2024
(dp2025
g3
S'Lana Del Rey'
p2026
sg5
I2
sg6
S'https://open.spotify.com/track/03hqMhmCZiNKMSPmVabPLP'
p2027
sg8
S'Groupie Love (feat. A$AP Rocky)'
p2028
ssS'7iDa6hUg2VgEL1o1HjmfBn'
p2029
(dp2030
g3
S'Bebe Rexha'
p2031
sg5
I4
sg6
S'https://open.spotify.com/track/7iDa6hUg2VgEL1o1HjmfBn'
p2032
sg8
S'Meant to Be (feat. Florida Georgia Line)'
p2033
ssS'7abpmGpF7PGep2rDU68GBR'
p2034
(dp2035
g3
S'Burak Yeter'
p2036
sg5
I33
sg6
S'https://open.spotify.com/track/7abpmGpF7PGep2rDU68GBR'
p2037
sg8
S'Tuesday'
p2038
ssS'67dyMPOUsbZ9Yg06PnfAAh'
p2039
(dp2040
g3
S'Future'
p2041
sg5
I1
sg6
S'https://open.spotify.com/track/67dyMPOUsbZ9Yg06PnfAAh'
p2042
sg8
S'Draco'
p2043
ssS'3GPI7hYiqD6enLRobhkBm8'
p2044
(dp2045
g3
S'ItaloBrothers'
p2046
sg5
I16
sg6
S'https://open.spotify.com/track/3GPI7hYiqD6enLRobhkBm8'
p2047
sg8
S'Summer Air'
p2048
ssS'1KqvRRQd3lfM0pAlkGPrgD'
p2049
(dp2050
g3
S'Ed Sheeran'
p2051
sg5
I2
sg6
S'https://open.spotify.com/track/1KqvRRQd3lfM0pAlkGPrgD'
p2052
sg8
S'Shape of You (Major Lazer Remix) [feat. Nyla & Kranium]'
p2053
ssS'2XMTqoHHSH0lvuXrvIEdco'
p2054
(dp2055
g3
S'FRENSHIP'
p2056
sg5
I10
sg6
S'https://open.spotify.com/track/2XMTqoHHSH0lvuXrvIEdco'
p2057
sg8
S'Capsize'
p2058
ssS'5MFzQMkrl1FOOng9tq6R9r'
p2059
(dp2060
g3
S'Maroon 5'
p2061
sg5
I23
sg6
S'https://open.spotify.com/track/5MFzQMkrl1FOOng9tq6R9r'
p2062
sg8
S"Don't Wanna Know"
p2063
ssS'5Z3GHaZ6ec9bsiI5BenrbY'
p2064
(dp2065
g3
S'Khalid'
p2066
sg5
I16
sg6
S'https://open.spotify.com/track/5Z3GHaZ6ec9bsiI5BenrbY'
p2067
sg8
S'Young Dumb & Broke'
p2068
ssS'6ltPEsP4edATzvinHOzvk2'
p2069
(dp2070
g3
S'Dr. Dre'
p2071
sg5
I2
sg6
S'https://open.spotify.com/track/6ltPEsP4edATzvinHOzvk2'
p2072
sg8
S'Still D.R.E.'
p2073
ssS'3FDrI0FLKzrYQiWxPhqV2W'
p2074
(dp2075
g3
S'Calvin Harris'
p2076
sg5
I4
sg6
S'https://open.spotify.com/track/3FDrI0FLKzrYQiWxPhqV2W'
p2077
sg8
S'Rollin'
p2078
ssS'6eT7xZZlB2mwyzJ2sUKG6w'
p2079
(dp2080
g3
S'Post Malone'
p2081
sg5
I3
sg6
S'https://open.spotify.com/track/6eT7xZZlB2mwyzJ2sUKG6w'
p2082
sg8
S'White Iverson'
p2083
ssS'1WP1r7fuvRqZRnUaTi2I1Q'
p2084
(dp2085
g3
S'Shawn Mendes'
p2086
sg5
I19
sg6
S'https://open.spotify.com/track/1WP1r7fuvRqZRnUaTi2I1Q'
p2087
sg8
S'Stitches'
p2088
ssS'6Nm0PIjQHqW8OxQlNB2ze9'
p2089
(dp2090
g3
S'Sondr'
p2091
sg5
I1
sg6
S'https://open.spotify.com/track/6Nm0PIjQHqW8OxQlNB2ze9'
p2092
sg8
S'Live Love Learn'
p2093
ssS'45yEy5WJywhJ3sDI28ajTm'
p2094
(dp2095
g3
S'The Beatles'
p2096
sg5
I3
sg6
S'https://open.spotify.com/track/45yEy5WJywhJ3sDI28ajTm'
p2097
sg8
S'Here Comes The Sun - Remastered'
p2098
ssS'3NgCzSW98SsqBdpYcnm4kv'
p2099
(dp2100
g3
S'Camila Cabello'
p2101
sg5
I3
sg6
S'https://open.spotify.com/track/3NgCzSW98SsqBdpYcnm4kv'
p2102
sg8
S'I Have Questions'
p2103
ssS'1jYiIOC5d6soxkJP81fxq2'
p2104
(dp2105
g3
S'DJ Khaled'
p2106
sg5
I1
sg6
S'https://open.spotify.com/track/1jYiIOC5d6soxkJP81fxq2'
p2107
sg8
S"I'm the One"
p2108
ssS'00wxIcA1PPbqEzATkHT4e1'
p2109
(dp2110
g3
S'Francesco Gabbani'
p2111
sg5
I1
sg6
S'https://open.spotify.com/track/00wxIcA1PPbqEzATkHT4e1'
p2112
sg8
S"Occidentali's Karma - Radio Edit"
p2113
ssS'0IqKeD8ZSP72KbGYyzEcAs'
p2114
(dp2115
g3
S'Hozier'
p2116
sg5
I18
sg6
S'https://open.spotify.com/track/0IqKeD8ZSP72KbGYyzEcAs'
p2117
sg8
S'Take Me To Church'
p2118
ssS'33bURv895AN4FkBvgFo2dx'
p2119
(dp2120
g3
S'Harry Styles'
p2121
sg5
I1
sg6
S'https://open.spotify.com/track/33bURv895AN4FkBvgFo2dx'
p2122
sg8
S'Woman'
p2123
ssS'5QqyRUZeBE04yJxsD1OC0I'
p2124
(dp2125
g3
S'Lana Del Rey'
p2126
sg5
I4
sg6
S'https://open.spotify.com/track/5QqyRUZeBE04yJxsD1OC0I'
p2127
sg8
S'Summer Bummer (feat. A$AP Rocky & Playboi Carti)'
p2128
ssS'4DFmlBKzcCDc6vtofC68ad'
p2129
(dp2130
g3
S'Demi Lovato'
p2131
sg5
I1
sg6
S'https://open.spotify.com/track/4DFmlBKzcCDc6vtofC68ad'
p2132
sg8
S'Cry Baby'
p2133
ssS'2jTujnt0y344ai1rNOywgr'
p2134
(dp2135
g3
S'Drake'
p2136
sg5
I4
sg6
S'https://open.spotify.com/track/2jTujnt0y344ai1rNOywgr'
p2137
sg8
S'KMT'
p2138
ssS'6pVW5LRWgeLaHudxauOTJU'
p2139
(dp2140
g3
S'Daryl Hall & John Oates'
p2141
sg5
I1
sg6
S'https://open.spotify.com/track/6pVW5LRWgeLaHudxauOTJU'
p2142
sg8
S'Jingle Bell Rock from Daryl'
p2143
ssS'3JKhmIlixlYwFLzrkc6drb'
p2144
(dp2145
g3
S'Kesha'
p2146
sg5
I1
sg6
S'https://open.spotify.com/track/3JKhmIlixlYwFLzrkc6drb'
p2147
sg8
S'Learn To Let Go'
p2148
ssS'1ipE3bBLWeLkIvxWUaxpSu'
p2149
(dp2150
g3
S'P!nk'
p2151
sg5
I1
sg6
S'https://open.spotify.com/track/1ipE3bBLWeLkIvxWUaxpSu'
p2152
sg8
S'Beautiful Trauma'
p2153
ssS'6gBFPUFcJLzWGx4lenP6h2'
p2154
(dp2155
g3
S'Travis Scott'
p2156
sg5
I39
sg6
S'https://open.spotify.com/track/6gBFPUFcJLzWGx4lenP6h2'
p2157
sg8
S'goosebumps'
p2158
ssS'7zgqtptZvhf8GEmdsM2vp2'
p2159
(dp2160
g3
S'Taylor Swift'
p2161
sg5
I1
sg6
S'https://open.spotify.com/track/7zgqtptZvhf8GEmdsM2vp2'
p2162
sg8
S'...Ready For It?'
p2163
ssS'6DB2KOEwHnjkgEnBt5SdeJ'
p2164
(dp2165
g3
S'Future'
p2166
sg5
I4
sg6
S'https://open.spotify.com/track/6DB2KOEwHnjkgEnBt5SdeJ'
p2167
sg8
S'Mask Off - Remix'
p2168
ssS'238lxqPGebn0kDHCQPXUwB'
p2169
(dp2170
g3
S'Padelis Padelidis'
p2171
sg5
I2
sg6
S'https://open.spotify.com/track/238lxqPGebn0kDHCQPXUwB'
p2172
sg8
S'Lioma Se Gremo'
p2173
ssS'7AQim7LbvFVZJE3O8TYgf2'
p2174
(dp2175
g3
S'XXXTENTACION'
p2176
sg5
I7
sg6
S'https://open.spotify.com/track/7AQim7LbvFVZJE3O8TYgf2'
p2177
sg8
S'Fuck Love (feat. Trippie Redd)'
p2178
ssS'0Nhu3zSYbEz32IYiobV75e'
p2179
(dp2180
g3
S'Halsey'
p2181
sg5
I11
sg6
S'https://open.spotify.com/track/0Nhu3zSYbEz32IYiobV75e'
p2182
sg8
S'Now Or Never'
p2183
ssS'6eUncuJutsFi9BGO1JaBHh'
p2184
(dp2185
g3
S'Jason Derulo'
p2186
sg5
I6
sg6
S'https://open.spotify.com/track/6eUncuJutsFi9BGO1JaBHh'
p2187
sg8
S"If I'm Lucky"
p2188
ssS'7s25THrKz86DM225dOYwnr'
p2189
(dp2190
g3
S'Aretha Franklin'
p2191
sg5
I1
sg6
S'https://open.spotify.com/track/7s25THrKz86DM225dOYwnr'
p2192
sg8
S'Respect'
p2193
ssS'31MkGwj0SWgZaTvEt5Hgxv'
p2194
(dp2195
g3
S'P!nk'
p2196
sg5
I9
sg6
S'https://open.spotify.com/track/31MkGwj0SWgZaTvEt5Hgxv'
p2197
sg8
S'What About Us'
p2198
ssS'0PDUDa38GO8lMxLCRc4lL1'
p2199
(dp2200
g3
S'ZAYN'
p2201
sg5
I18
sg6
S'https://open.spotify.com/track/0PDUDa38GO8lMxLCRc4lL1'
p2202
sg8
S'PILLOWTALK'
p2203
ssS'3pC1ILr9KzmQLMe8Kn5QBG'
p2204
(dp2205
g3
S'DJ Khaled'
p2206
sg5
I2
sg6
S'https://open.spotify.com/track/3pC1ILr9KzmQLMe8Kn5QBG'
p2207
sg8
S'To the Max'
p2208
ssS'5sTkWRLzOIH6EoHT5CKD9i'
p2209
(dp2210
g3
S'Vasilis Dimas'
p2211
sg5
I15
sg6
S'https://open.spotify.com/track/5sTkWRLzOIH6EoHT5CKD9i'
p2212
sg8
S'Ragizei I Kardia Mou'
p2213
ssS'0zCfmceT1YvtZXGbR6Roht'
p2214
(dp2215
g3
S'La La Land Cast'
p2216
sg5
I10
sg6
S'https://open.spotify.com/track/0zCfmceT1YvtZXGbR6Roht'
p2217
sg8
S'Another Day Of Sun - From La La Land Soundtrack'
p2218
ssS'35QZaWQRkmnAVqBF1TLCxQ'
p2219
(dp2220
g3
S'Ed Sheeran'
p2221
sg5
I5
sg6
S'https://open.spotify.com/track/35QZaWQRkmnAVqBF1TLCxQ'
p2222
sg8
S'Nancy Mulligan'
p2223
ssS'1e1JKLEDKP7hEQzJfNAgPl'
p2224
(dp2225
g3
S'Playboi Carti'
p2226
sg5
I20
sg6
S'https://open.spotify.com/track/1e1JKLEDKP7hEQzJfNAgPl'
p2227
sg8
S'Magnolia'
p2228
ssS'5q4BpnMrYEFzLO0dYODj6J'
p2229
(dp2230
g3
S'Lorde'
p2231
sg5
I1
sg6
S'https://open.spotify.com/track/5q4BpnMrYEFzLO0dYODj6J'
p2232
sg8
S'The Louvre'
p2233
ssS'2FM1zCMO0OE9g6JqmT9p36'
p2234
(dp2235
g3
S'Anja Nissen'
p2236
sg5
I1
sg6
S'https://open.spotify.com/track/2FM1zCMO0OE9g6JqmT9p36'
p2237
sg8
S'Where I Am'
p2238
ssS'6E39QsoWB7JjphPF9xCQSN'
p2239
(dp2240
g3
S'Desiigner'
p2241
sg5
I4
sg6
S'https://open.spotify.com/track/6E39QsoWB7JjphPF9xCQSN'
p2242
sg8
S'Outlet'
p2243
ssS'3kxfsdsCpFgN412fpnW85Y'
p2244
(dp2245
g3
S'Childish Gambino'
p2246
sg5
I37
sg6
S'https://open.spotify.com/track/3kxfsdsCpFgN412fpnW85Y'
p2247
sg8
S'Redbone'
p2248
ssS'5hTpBe8h35rJ67eAWHQsJx'
p2249
(dp2250
g3
S'Amin\xc3\xa9'
p2251
sg5
I1
sg6
S'https://open.spotify.com/track/5hTpBe8h35rJ67eAWHQsJx'
p2252
sg8
S'Caroline'
p2253
ssS'0iTCmKvuU1ReULiQB0rI7n'
p2254
(dp2255
g3
S'Gucci Mane'
p2256
sg5
I1
sg6
S'https://open.spotify.com/track/0iTCmKvuU1ReULiQB0rI7n'
p2257
sg8
S'Tone it Down (feat. Chris Brown)'
p2258
ssS'3qyeNnFY67zX6VmmIbzPsL'
p2259
(dp2260
g3
S'Mike Perry'
p2261
sg5
I5
sg6
S'https://open.spotify.com/track/3qyeNnFY67zX6VmmIbzPsL'
p2262
sg8
S'Body to Body'
p2263
ssS'0vbbhcA6okLzvsy6WSTlLg'
p2264
(dp2265
g3
S'Rudimental'
p2266
sg5
I1
sg6
S'https://open.spotify.com/track/0vbbhcA6okLzvsy6WSTlLg'
p2267
sg8
S'Lay It All On Me (feat. Ed Sheeran)'
p2268
ssS'4sPmO7WMQUAf45kwMOtONw'
p2269
(dp2270
g3
S'Adele'
p2271
sg5
I10
sg6
S'https://open.spotify.com/track/4sPmO7WMQUAf45kwMOtONw'
p2272
sg8
S'Hello'
p2273
ssS'1j4kHkkpqZRBwE0A4CN4Yv'
p2274
(dp2275
g3
S'ZAYN'
p2276
sg5
I6
sg6
S'https://open.spotify.com/track/1j4kHkkpqZRBwE0A4CN4Yv'
p2277
sg8
S'Dusk Till Dawn - Radio Edit'
p2278
ssS'3agtg0x11wPvLIWkYR39nZ'
p2279
(dp2280
g3
S'Linkin Park'
p2281
sg5
I1
sg6
S'https://open.spotify.com/track/3agtg0x11wPvLIWkYR39nZ'
p2282
sg8
S'Somewhere I Belong'
p2283
ssS'5p3NP9mQblDsVJLdfNZJ3I'
p2284
(dp2285
g3
S'Kendrick Lamar'
p2286
sg5
I2
sg6
S'https://open.spotify.com/track/5p3NP9mQblDsVJLdfNZJ3I'
p2287
sg8
S'GOD.'
p2288
ssS'6BaCraQ9xeLYg4Sb9TBT2X'
p2289
(dp2290
g3
S'Calvin Harris'
p2291
sg5
I1
sg6
S'https://open.spotify.com/track/6BaCraQ9xeLYg4Sb9TBT2X'
p2292
sg8
S'Feels'
p2293
ssS'6875MeXyCW0wLyT72Eetmo'
p2294
(dp2295
g3
S'Hailee Steinfeld'
p2296
sg5
I4
sg6
S'https://open.spotify.com/track/6875MeXyCW0wLyT72Eetmo'
p2297
sg8
S'Starving'
p2298
ssS'6gTJaPuj8DT8RjuDJyBgzP'
p2299
(dp2300
g3
S'Ed Sheeran'
p2301
sg5
I8
sg6
S'https://open.spotify.com/track/6gTJaPuj8DT8RjuDJyBgzP'
p2302
sg8
S"Don't"
p2303
ssS'5dH7o4TP3HYLvCjo4QAhhv'
p2304
(dp2305
g3
S'Sak Noel & Salvi'
p2306
sg5
I3
sg6
S'https://open.spotify.com/track/5dH7o4TP3HYLvCjo4QAhhv'
p2307
sg8
S'Trumpets'
p2308
ssS'3T7dNA7O8c3Axj5WyDNcH3'
p2309
(dp2310
g3
S'Brenda Lee'
p2311
sg5
I1
sg6
S'https://open.spotify.com/track/3T7dNA7O8c3Axj5WyDNcH3'
p2312
sg8
S"Rockin' Around The Christmas Tree - Single Version"
p2313
ssS'5q5gzmbBS5yQzos2BvVr1t'
p2314
(dp2315
g3
S'M\xc3\x98'
p2316
sg5
I18
sg6
S'https://open.spotify.com/track/5q5gzmbBS5yQzos2BvVr1t'
p2317
sg8
S'Nights With You'
p2318
ssS'3DXncPQOG4VBw3QHh3S817'
p2319
(dp2320
g3
S'DJ Khaled'
p2321
sg5
I20
sg6
S'https://open.spotify.com/track/3DXncPQOG4VBw3QHh3S817'
p2322
sg8
S"I'm the One"
p2323
ssS'0mt02gJ425Xjm7c3jYkOBn'
p2324
(dp2325
g3
S'Lana Del Rey'
p2326
sg5
I3
sg6
S'https://open.spotify.com/track/0mt02gJ425Xjm7c3jYkOBn'
p2327
sg8
S'Lust For Life (with The Weeknd)'
p2328
ssS'5Lbsc65org0b85kNsPkluY'
p2329
(dp2330
g3
S'Harry Styles'
p2331
sg5
I1
sg6
S'https://open.spotify.com/track/5Lbsc65org0b85kNsPkluY'
p2332
sg8
S'Only Angel'
p2333
ssS'6mapJIPnQ23RTAevUoE0DL'
p2334
(dp2335
g3
S'Rae Sremmurd'
p2336
sg5
I17
sg6
S'https://open.spotify.com/track/6mapJIPnQ23RTAevUoE0DL'
p2337
sg8
S'Swang'
p2338
ssS'6MbH1QiphMCPTqVEVC7UYi'
p2339
(dp2340
g3
S'Drake'
p2341
sg5
I2
sg6
S'https://open.spotify.com/track/6MbH1QiphMCPTqVEVC7UYi'
p2342
sg8
S'Nothings Into Somethings'
p2343
ssS'6mORGLOz79w6VsCRLWYYuK'
p2344
(dp2345
g3
S'Lord Huron'
p2346
sg5
I26
sg6
S'https://open.spotify.com/track/6mORGLOz79w6VsCRLWYYuK'
p2347
sg8
S'The Night We Met'
p2348
ssS'5aAx2yezTd8zXrkmtKl66Z'
p2349
(dp2350
g3
S'The Weeknd'
p2351
sg5
I42
sg6
S'https://open.spotify.com/track/5aAx2yezTd8zXrkmtKl66Z'
p2352
sg8
S'Starboy'
p2353
ssS'2BrzlUj1u1CtvaJDGIKpsP'
p2354
(dp2355
g3
S'Noah Cyrus'
p2356
sg5
I12
sg6
S'https://open.spotify.com/track/2BrzlUj1u1CtvaJDGIKpsP'
p2357
sg8
S'Make Me (Cry)'
p2358
ssS'1SJtlNRJDeYHioymcvsqev'
p2359
(dp2360
g3
S'Camila Cabello'
p2361
sg5
I21
sg6
S'https://open.spotify.com/track/1SJtlNRJDeYHioymcvsqev'
p2362
sg8
S'Crying in the Club'
p2363
ssS'0Wv5wuenRLI3BcwgT3HPIP'
p2364
(dp2365
g3
S'DJ Snake'
p2366
sg5
I3
sg6
S'https://open.spotify.com/track/0Wv5wuenRLI3BcwgT3HPIP'
p2367
sg8
S'A Different Way (with Lauv)'
p2368
ssS'04DwTuZ2VBdJCCC5TROn7L'
p2369
(dp2370
g3
S'Martin Garrix'
p2371
sg5
I36
sg6
S'https://open.spotify.com/track/04DwTuZ2VBdJCCC5TROn7L'
p2372
sg8
S'In the Name of Love'
p2373
ssS'0m2orA1i5lLZUOt9XLwSd0'
p2374
(dp2375
g3
S'Fifth Harmony'
p2376
sg5
I5
sg6
S'https://open.spotify.com/track/0m2orA1i5lLZUOt9XLwSd0'
p2377
sg8
S'He Like That'
p2378
ssS'7bJ4mu7MHa3rHiNyKjOoSl'
p2379
(dp2380
g3
S'Drake'
p2381
sg5
I2
sg6
S'https://open.spotify.com/track/7bJ4mu7MHa3rHiNyKjOoSl'
p2382
sg8
S'Ice Melts'
p2383
ssS'2nUJvBO87SkxCViQsLc9Zr'
p2384
(dp2385
g3
S'Big Shaq'
p2386
sg5
I1
sg6
S'https://open.spotify.com/track/2nUJvBO87SkxCViQsLc9Zr'
p2387
sg8
S"Man's Not Hot"
p2388
ssS'0pSBuHjILhNEo55xK1zrRt'
p2389
(dp2390
g3
S'Ayo & Teo'
p2391
sg5
I31
sg6
S'https://open.spotify.com/track/0pSBuHjILhNEo55xK1zrRt'
p2392
sg8
S'Rolex'
p2393
ssS'5MMtMj1vfY0L2i8E3BsQ4i'
p2394
(dp2395
g3
S'Snik'
p2396
sg5
I7
sg6
S'https://open.spotify.com/track/5MMtMj1vfY0L2i8E3BsQ4i'
p2397
sg8
S'Ferrari'
p2398
ssS'4JAyIDXOqNM6qHuZML01uX'
p2399
(dp2400
g3
g1507
sg5
I1
sg6
S'https://open.spotify.com/track/4JAyIDXOqNM6qHuZML01uX'
p2401
sg8
g1507
ssS'2tdq0CeAGSfhI2l4Gwkvgx'
p2402
(dp2403
g3
S'BTS'
p2404
sg5
I2
sg6
S'https://open.spotify.com/track/2tdq0CeAGSfhI2l4Gwkvgx'
p2405
sg8
S'Best Of Me'
p2406
ssS'6VRghJeP6I0w1KxkdWFfIh'
p2407
(dp2408
g3
S'Imagine Dragons'
p2409
sg5
I3
sg6
S'https://open.spotify.com/track/6VRghJeP6I0w1KxkdWFfIh'
p2410
sg8
S'Believer'
p2411
ssS'56fCI6qlI3HOE2rjp9SKAm'
p2412
(dp2413
g3
S'Marcus & Martinus'
p2414
sg5
I1
sg6
S'https://open.spotify.com/track/56fCI6qlI3HOE2rjp9SKAm'
p2415
sg8
S'Like It Like It'
p2416
ssS'6SznMYPQJHzr3IwsAHLId2'
p2417
(dp2418
g3
S'Ed Sheeran'
p2419
sg5
I4
sg6
S'https://open.spotify.com/track/6SznMYPQJHzr3IwsAHLId2'
p2420
sg8
S'Bibia Be Ye Ye'
p2421
ssS'38Ncs9ZEzJzd1ypUjNPsb5'
p2422
(dp2423
g3
S'Demi Lovato'
p2424
sg5
I1
sg6
S'https://open.spotify.com/track/38Ncs9ZEzJzd1ypUjNPsb5'
p2425
sg8
S'Sexy Dirty Love'
p2426
ssS'4FFHaJK3Ay5SvyXlXrxYXI'
p2427
(dp2428
g3
S'Giorgos Sabanis'
p2429
sg5
I16
sg6
S'https://open.spotify.com/track/4FFHaJK3Ay5SvyXlXrxYXI'
p2430
sg8
S'Se Sena Stamatise I Kardia'
p2431
ssS'2Inz7gGPGgieN0CTw9TOOs'
p2432
(dp2433
g3
S'JP Cooper'
p2434
sg5
I1
sg6
S'https://open.spotify.com/track/2Inz7gGPGgieN0CTw9TOOs'
p2435
sg8
S'September Song'
p2436
ssS'5ulSn7Zhh7MylcgUGvynDb'
p2437
(dp2438
g3
S'The Neighbourhood'
p2439
sg5
I1
sg6
S'https://open.spotify.com/track/5ulSn7Zhh7MylcgUGvynDb'
p2440
sg8
S'You Get Me So High'
p2441
ssS'1EaKU4dMbesXXd3BrLCtYG'
p2442
(dp2443
g3
S'Kendrick Lamar'
p2444
sg5
I8
sg6
S'https://open.spotify.com/track/1EaKU4dMbesXXd3BrLCtYG'
p2445
sg8
S'ELEMENT.'
p2446
ssS'3BRO4QR9ZDj9Ae3VtbjeUr'
p2447
(dp2448
g3
S'Halsey'
p2449
sg5
I1
sg6
S'https://open.spotify.com/track/3BRO4QR9ZDj9Ae3VtbjeUr'
p2450
sg8
S'Lie'
p2451
ssS'0sZfuG1rArPovx9CdZ40vZ'
p2452
(dp2453
g3
S'Tove Styrke'
p2454
sg5
I1
sg6
S'https://open.spotify.com/track/0sZfuG1rArPovx9CdZ40vZ'
p2455
sg8
S'Mistakes'
p2456
ssS'5UJshy5HDHdNEVqlJwzsQB'
p2457
(dp2458
g3
S'Bruno Mars'
p2459
sg5
I2
sg6
S'https://open.spotify.com/track/5UJshy5HDHdNEVqlJwzsQB'
p2460
sg8
S'Versace On The Floor (Bruno Mars vs. David Guetta)'
p2461
ssS'6eGMMPRVYzpssGgednRvzU'
p2462
(dp2463
g3
S'Lana Del Rey'
p2464
sg5
I4
sg6
S'https://open.spotify.com/track/6eGMMPRVYzpssGgednRvzU'
p2465
sg8
S'Cherry'
p2466
ssS'1n4jwRVXdkK2U34nBDUKKT'
p2467
(dp2468
g3
S'Kendrick Lamar'
p2469
sg5
I3
sg6
S'https://open.spotify.com/track/1n4jwRVXdkK2U34nBDUKKT'
p2470
sg8
S'BLOOD.'
p2471
ssS'3GVkPk8mqxz0itaAriG1L7'
p2472
(dp2473
g3
S'XXXTENTACION'
p2474
sg5
I7
sg6
S'https://open.spotify.com/track/3GVkPk8mqxz0itaAriG1L7'
p2475
sg8
S'Everybody Dies In Their Nightmares'
p2476
ssS'1sYSP7gKa5kdKIfhANfori'
p2477
(dp2478
g3
S'MAX'
p2479
sg5
I13
sg6
S'https://open.spotify.com/track/1sYSP7gKa5kdKIfhANfori'
p2480
sg8
S'Lights Down Low'
p2481
ssS'5Ohxk2dO5COHF1krpoPigN'
p2482
(dp2483
g3
S'Harry Styles'
p2484
sg5
I27
sg6
S'https://open.spotify.com/track/5Ohxk2dO5COHF1krpoPigN'
p2485
sg8
S'Sign of the Times'
p2486
ssS'2XaInsPPUkZRkY4uFJ3AHK'
p2487
(dp2488
g3
S'Gucci Mane'
p2489
sg5
I9
sg6
S'https://open.spotify.com/track/2XaInsPPUkZRkY4uFJ3AHK'
p2490
sg8
S'Met Gala (feat. Offset)'
p2491
ssS'5jhF4d9nxIm1P58WQCCa5h'
p2492
(dp2493
g3
S'Katy Perry'
p2494
sg5
I1
sg6
S'https://open.spotify.com/track/5jhF4d9nxIm1P58WQCCa5h'
p2495
sg8
S'Roulette'
p2496
ssS'6O85MfGECKBqAK2MgSbCaj'
p2497
(dp2498
g3
S'Martin Solveig'
p2499
sg5
I19
sg6
S'https://open.spotify.com/track/6O85MfGECKBqAK2MgSbCaj'
p2500
sg8
S'Places'
p2501
ssS'7FCfMXYTIiQ9b4hDYs4Iol'
p2502
(dp2503
g3
S'Dua Lipa'
p2504
sg5
I16
sg6
S'https://open.spotify.com/track/7FCfMXYTIiQ9b4hDYs4Iol'
p2505
sg8
S'Be The One'
p2506
ssS'4JqJofEjChNytY6MMTJsi7'
p2507
(dp2508
g3
S'Hearts & Colors'
p2509
sg5
I1
sg6
S'https://open.spotify.com/track/4JqJofEjChNytY6MMTJsi7'
p2510
sg8
S'Shame'
p2511
ssS'4mxWSdf71VFO52qFeY0fZt'
p2512
(dp2513
g3
S'Maroon 5'
p2514
sg5
I6
sg6
S'https://open.spotify.com/track/4mxWSdf71VFO52qFeY0fZt'
p2515
sg8
S'What Lovers Do (feat. SZA)'
p2516
ssS'1ADjWm8QNhgNV8yCNNgQ1T'
p2517
(dp2518
g3
S'Ariana Grande'
p2519
sg5
I1
sg6
S'https://open.spotify.com/track/1ADjWm8QNhgNV8yCNNgQ1T'
p2520
sg8
S'Santa Tell Me'
p2521
ssS'4Hf7WnR761jpxPr5D46Bcd'
p2522
(dp2523
g3
S'Shawn Mendes'
p2524
sg5
I42
sg6
S'https://open.spotify.com/track/4Hf7WnR761jpxPr5D46Bcd'
p2525
sg8
S'Treat You Better'
p2526
ssS'3AEZUABDXNtecAOSC1qTfo'
p2527
(dp2528
g3
S'CNCO'
p2529
sg5
I8
sg6
S'https://open.spotify.com/track/3AEZUABDXNtecAOSC1qTfo'
p2530
sg8
S'Reggaet\xc3\xb3n Lento (Bailemos)'
p2531
ssS'4mq14Qa6OehdiyZFtHcdCH'
p2532
(dp2533
g3
S'Lana Del Rey'
p2534
sg5
I3
sg6
S'https://open.spotify.com/track/4mq14Qa6OehdiyZFtHcdCH'
p2535
sg8
S'13 Beaches'
p2536
ssS'0dXNQ8dckG4eYfEtq9zcva'
p2537
(dp2538
g3
S'The Vamps'
p2539
sg5
I1
sg6
S'https://open.spotify.com/track/0dXNQ8dckG4eYfEtq9zcva'
p2540
sg8
S'All Night'
p2541
ssS'1Tt4sE4pXi57mTD1GCzsqm'
p2542
(dp2543
g3
S'Rihanna'
p2544
sg5
I20
sg6
S'https://open.spotify.com/track/1Tt4sE4pXi57mTD1GCzsqm'
p2545
sg8
S'Needed Me'
p2546
ssS'3CJvmtWw2bJsudbAC5uCQk'
p2547
(dp2548
g3
S'Selena Gomez'
p2549
sg5
I4
sg6
S'https://open.spotify.com/track/3CJvmtWw2bJsudbAC5uCQk'
p2550
sg8
S'Hands To Myself'
p2551
ssS'6qPI3aH7jpx8dQ6UwQ2dX4'
p2552
(dp2553
g3
S'Gladys Knight & The Pips'
p2554
sg5
I1
sg6
S'https://open.spotify.com/track/6qPI3aH7jpx8dQ6UwQ2dX4'
p2555
sg8
S'When a Child Is Born (Soleado)'
p2556
ssS'450X3NhtLIVmYeMEIkV3mj'
p2557
(dp2558
g3
S'Lana Del Rey'
p2559
sg5
I1
sg6
S'https://open.spotify.com/track/450X3NhtLIVmYeMEIkV3mj'
p2560
sg8
S'Groupie Love (feat. A$AP Rocky)'
p2561
ssS'16FcjJG7qeajF19TmB8Dqm'
p2562
(dp2563
g3
S'Fifth Harmony'
p2564
sg5
I1
sg6
S'https://open.spotify.com/track/16FcjJG7qeajF19TmB8Dqm'
p2565
sg8
S'Angel'
p2566
ssS'2RF4YUblnfECntXOmBvv5M'
p2567
(dp2568
g3
S'Hovig'
p2569
sg5
I1
sg6
S'https://open.spotify.com/track/2RF4YUblnfECntXOmBvv5M'
p2570
sg8
S'Gravity'
p2571
ssS'2EWpa5XnAuSn0sIkSSIhYk'
p2572
(dp2573
g3
S'The Revivalists'
p2574
sg5
I5
sg6
S'https://open.spotify.com/track/2EWpa5XnAuSn0sIkSSIhYk'
p2575
sg8
S'Wish I Knew You'
p2576
ssS'1MksGqIztTT6M9R1ErKVs8'
p2577
(dp2578
g3
S'Big Sean'
p2579
sg5
I4
sg6
S'https://open.spotify.com/track/1MksGqIztTT6M9R1ErKVs8'
p2580
sg8
S'No Favors'
p2581
ssS'4hXAK3mjFVFOOiJQ3rKAXi'
p2582
(dp2583
g3
S'Burl Ives'
p2584
sg5
I1
sg6
S'https://open.spotify.com/track/4hXAK3mjFVFOOiJQ3rKAXi'
p2585
sg8
S'Rudolph The Red-Nosed Reindeer'
p2586
ssS'7xHWNBFm6ObGEQPaUxHuKO'
p2587
(dp2588
g3
S'Sia'
p2589
sg5
I21
sg6
S'https://open.spotify.com/track/7xHWNBFm6ObGEQPaUxHuKO'
p2590
sg8
S'The Greatest'
p2591
ssS'2fXH2iei02pBaSIdn5X4zJ'
p2592
(dp2593
g3
S'Ryan Gosling'
p2594
sg5
I7
sg6
S'https://open.spotify.com/track/2fXH2iei02pBaSIdn5X4zJ'
p2595
sg8
S'A Lovely Night - From La La Land Soundtrack'
p2596
ssS'5knuzwU65gJK7IF5yJsuaW'
p2597
(dp2598
g3
S'Clean Bandit'
p2599
sg5
I42
sg6
S'https://open.spotify.com/track/5knuzwU65gJK7IF5yJsuaW'
p2600
sg8
S'Rockabye (feat. Sean Paul & Anne-Marie)'
p2601
ssS'7aF09WaavZAmAWuUeYxlYD'
p2602
(dp2603
g3
S'OneRepublic'
p2604
sg5
I13
sg6
S'https://open.spotify.com/track/7aF09WaavZAmAWuUeYxlYD'
p2605
sg8
S'Rich Love (with Seeb)'
p2606
ssS'3bWAqKDWg6u1davspr5IkS'
p2607
(dp2608
g3
S'Robin Schulz'
p2609
sg5
I21
sg6
S'https://open.spotify.com/track/3bWAqKDWg6u1davspr5IkS'
p2610
sg8
S'OK'
p2611
ssS'2UwbhMie1EAYuTZ0QXeMwl'
p2612
(dp2613
g3
S'XXXTENTACION'
p2614
sg5
I2
sg6
S'https://open.spotify.com/track/2UwbhMie1EAYuTZ0QXeMwl'
p2615
sg8
S'Save Me'
p2616
ssS'14WWzenpaEgQZlqPq2nk4v'
p2617
(dp2618
g3
S'Rihanna'
p2619
sg5
I16
sg6
S'https://open.spotify.com/track/14WWzenpaEgQZlqPq2nk4v'
p2620
sg8
S'Work'
p2621
ssS'4tHqQMWSqmL6YjXwsqthDI'
p2622
(dp2623
g3
S'Mykola Dmytrovych Leontovych'
p2624
sg5
I1
sg6
S'https://open.spotify.com/track/4tHqQMWSqmL6YjXwsqthDI'
p2625
sg8
S'Carol of the Bells'
p2626
ssS'5i10jSKXmDUVUmvuqCLzKu'
p2627
(dp2628
g3
S'Padelis Padelidis'
p2629
sg5
I5
sg6
S'https://open.spotify.com/track/5i10jSKXmDUVUmvuqCLzKu'
p2630
sg8
S'Karavia Sto Vitho'
p2631
ssS'36YCdzT57us0LhDmCYtrNE'
p2632
(dp2633
g3
S'The Weeknd'
p2634
sg5
I11
sg6
S'https://open.spotify.com/track/36YCdzT57us0LhDmCYtrNE'
p2635
sg8
S'Rockin\xe2\x80\x99'
p2636
ssS'6b8Be6ljOzmkOmFslEb23P'
p2637
(dp2638
g3
S'Bruno Mars'
p2639
sg5
I35
sg6
S'https://open.spotify.com/track/6b8Be6ljOzmkOmFslEb23P'
p2640
sg8
S'24K Magic'
p2641
ssS'1IF5UcqRO42D12vYwceOY6'
p2642
(dp2643
g3
S'Harry Styles'
p2644
sg5
I1
sg6
S'https://open.spotify.com/track/1IF5UcqRO42D12vYwceOY6'
p2645
sg8
S'From the Dining Table'
p2646
ssS'1yqw6q4JWOQjeXIyB8djTv'
p2647
(dp2648
g3
S'Padelis Padelidis'
p2649
sg5
I1
sg6
S'https://open.spotify.com/track/1yqw6q4JWOQjeXIyB8djTv'
p2650
sg8
S'Ta Shinia Sou'
p2651
ssS'5iKNac3DNe0NYVYJFz0lUz'
p2652
(dp2653
g3
S'Melisses'
p2654
sg5
I37
sg6
S'https://open.spotify.com/track/5iKNac3DNe0NYVYJFz0lUz'
p2655
sg8
S'To Kyma'
p2656
ssS'6Ep6BzIOB9tz3P4sWqiiAB'
p2657
(dp2658
g3
S'Imagine Dragons'
p2659
sg5
I32
sg6
S'https://open.spotify.com/track/6Ep6BzIOB9tz3P4sWqiiAB'
p2660
sg8
S'Radioactive'
p2661
ssS'7cQMJ0wDqVS5iM0JIvP6Ay'
p2662
(dp2663
g3
S'Fall Out Boy'
p2664
sg5
I4
sg6
S'https://open.spotify.com/track/7cQMJ0wDqVS5iM0JIvP6Ay'
p2665
sg8
S'The Last Of The Real Ones'
p2666
ssS'7iNIg7XDEaYECfWD5dJ9Va'
p2667
(dp2668
g3
S'Justin Bieber'
p2669
sg5
I1
sg6
S'https://open.spotify.com/track/7iNIg7XDEaYECfWD5dJ9Va'
p2670
sg8
S'Friends (with BloodPop\xc2\xae)'
p2671
ssS'3d9JucRI60arArgQXqtfjJ'
p2672
(dp2673
g3
S'Alesso'
p2674
sg5
I1
sg6
S'https://open.spotify.com/track/3d9JucRI60arArgQXqtfjJ'
p2675
sg8
S'Falling'
p2676
ssS'4so0Wek9Ig1p6CRCHuINwW'
p2677
(dp2678
g3
S'Bing Crosby'
p2679
sg5
I1
sg6
S'https://open.spotify.com/track/4so0Wek9Ig1p6CRCHuINwW'
p2680
sg8
S'White Christmas'
p2681
ssS'4u9Y4Z9i9VaAbBK7rW1Rha'
p2682
(dp2683
g3
S'Harry Styles'
p2684
sg5
I1
sg6
S'https://open.spotify.com/track/4u9Y4Z9i9VaAbBK7rW1Rha'
p2685
sg8
S'Meet Me in the Hallway'
p2686
ssS'23luOrEVHMfoX0AhfbQuS6'
p2687
(dp2688
g3
S'Kendrick Lamar'
p2689
sg5
I3
sg6
S'https://open.spotify.com/track/23luOrEVHMfoX0AhfbQuS6'
p2690
sg8
S'FEAR.'
p2691
ssS'458ESscRcqCVX1xbllEmPn'
p2692
(dp2693
g3
S'NEIKED'
p2694
sg5
I1
sg6
S'https://open.spotify.com/track/458ESscRcqCVX1xbllEmPn'
p2695
sg8
S'Call Me'
p2696
ssS'5DA77EqppDmCTWGovd4oTP'
p2697
(dp2698
g3
S'Cheat Codes'
p2699
sg5
I7
sg6
S'https://open.spotify.com/track/5DA77EqppDmCTWGovd4oTP'
p2700
sg8
S'Sex'
p2701
ssS'4h90qkbnW1Qq6pBhoPvwko'
p2702
(dp2703
g3
S'The Weeknd'
p2704
sg5
I18
sg6
S'https://open.spotify.com/track/4h90qkbnW1Qq6pBhoPvwko'
p2705
sg8
S'Sidewalks'
p2706
ssS'6HZILIRieu8S0iqY8kIKhj'
p2707
(dp2708
g3
S'Kendrick Lamar'
p2709
sg5
I26
sg6
S'https://open.spotify.com/track/6HZILIRieu8S0iqY8kIKhj'
p2710
sg8
S'DNA.'
p2711
ssS'2A17f6I4fh6GqYX0J8noGr'
p2712
(dp2713
g3
S'Ed Sheeran'
p2714
sg5
I5
sg6
S'https://open.spotify.com/track/2A17f6I4fh6GqYX0J8noGr'
p2715
sg8
S'Galway Girl - Martin Jensen Remix'
p2716
ssS'37rXzyNXedHoCRluAKE3Yh'
p2717
(dp2718
g3
S'LYSA'
p2719
sg5
I1
sg6
S'https://open.spotify.com/track/37rXzyNXedHoCRluAKE3Yh'
p2720
sg8
S'Beats And Battle Drums'
p2721
ssS'4UknpXoLjlB7Mao4UWcJ2o'
p2722
(dp2723
g3
S'The Weeknd'
p2724
sg5
I8
sg6
S'https://open.spotify.com/track/4UknpXoLjlB7Mao4UWcJ2o'
p2725
sg8
S'A Lonely Night'
p2726
ssS'7F9vK8hNFMml4GtHsaXui6'
p2727
(dp2728
g3
S'Louis Tomlinson'
p2729
sg5
I12
sg6
S'https://open.spotify.com/track/7F9vK8hNFMml4GtHsaXui6'
p2730
sg8
S'Back to You (feat. Bebe Rexha & Digital Farm Animals)'
p2731
ssS'11Fo4dAH31K7UZHGqCkCmE'
p2732
(dp2733
g3
S'Axwell /\\ Ingrosso'
p2734
sg5
I14
sg6
S'https://open.spotify.com/track/11Fo4dAH31K7UZHGqCkCmE'
p2735
sg8
S'I Love You'
p2736
ssS'6O6M7pJLABmfBRoGZMu76Y'
p2737
(dp2738
g3
S'The Chainsmokers'
p2739
sg5
I1
sg6
S'https://open.spotify.com/track/6O6M7pJLABmfBRoGZMu76Y'
p2740
sg8
S'Roses'
p2741
ssS'2nYwV62UABTH0NanrwVIdQ'
p2742
(dp2743
g3
S'Rae Sremmurd'
p2744
sg5
I10
sg6
S'https://open.spotify.com/track/2nYwV62UABTH0NanrwVIdQ'
p2745
sg8
S'Perplexing Pegasus'
p2746
ssS'6SUocL0caib4mLHe8ZrZzi'
p2747
(dp2748
g3
S'Rudimental'
p2749
sg5
I13
sg6
S'https://open.spotify.com/track/6SUocL0caib4mLHe8ZrZzi'
p2750
sg8
S'Sun Comes Up'
p2751
ssS'2H3ZUSE54pST4ubRd5FzFR'
p2752
(dp2753
g3
S'Marvin Gaye'
p2754
sg5
I1
sg6
S'https://open.spotify.com/track/2H3ZUSE54pST4ubRd5FzFR'
p2755
sg8
S"Ain't No Mountain High Enough"
p2756
ssS'0B48113ZG9UfkWWt7qD9xX'
p2757
(dp2758
g3
S'Miley Cyrus'
p2759
sg5
I1
sg6
S'https://open.spotify.com/track/0B48113ZG9UfkWWt7qD9xX'
p2760
sg8
S'Younger Now'
p2761
ssS'1Bqxj0aH5KewYHKUg1IdrF'
p2762
(dp2763
g3
S'G-Eazy'
p2764
sg5
I11
sg6
S'https://open.spotify.com/track/1Bqxj0aH5KewYHKUg1IdrF'
p2765
sg8
S'Some Kind Of Drug'
p2766
ssS'1hvpDAxZPKjKztOc72sv06'
p2767
(dp2768
g3
S'Band Aid'
p2769
sg5
I1
sg6
S'https://open.spotify.com/track/1hvpDAxZPKjKztOc72sv06'
p2770
sg8
S"Do They Know It's Christmas? - 1984 Version"
p2771
ssS'4mU5iXHeLgbR94siF7p1sY'
p2772
(dp2773
g3
S'The Weeknd'
p2774
sg5
I17
sg6
S'https://open.spotify.com/track/4mU5iXHeLgbR94siF7p1sY'
p2775
sg8
S'Six Feet Under'
p2776
ssS'6yyYIkZUyGAlos4CsCXYxy'
p2777
(dp2778
g3
S'Padelis Padelidis'
p2779
sg5
I2
sg6
S'https://open.spotify.com/track/6yyYIkZUyGAlos4CsCXYxy'
p2780
sg8
S'Iha Kapote Mia Agapi'
p2781
ssS'7F1LWA9sIlTorHUo4amGqk'
p2782
(dp2783
g3
S'The Weeknd'
p2784
sg5
I7
sg6
S'https://open.spotify.com/track/7F1LWA9sIlTorHUo4amGqk'
p2785
sg8
S'Reminder - Remix'
p2786
ssS'6gpcs5eMhJwax4mIfKDYQk'
p2787
(dp2788
g3
S'Calvin Harris'
p2789
sg5
I4
sg6
S'https://open.spotify.com/track/6gpcs5eMhJwax4mIfKDYQk'
p2790
sg8
S'Slide'
p2791
ssS'5bcTCxgc7xVfSaMV3RuVke'
p2792
(dp2793
g3
S'Calvin Harris'
p2794
sg5
I16
sg6
S'https://open.spotify.com/track/5bcTCxgc7xVfSaMV3RuVke'
p2795
sg8
S'Feels'
p2796
ssS'0QsvXIfqM0zZoerQfsI9lm'
p2797
(dp2798
g3
S'The Chainsmokers'
p2799
sg5
I42
sg6
S'https://open.spotify.com/track/0QsvXIfqM0zZoerQfsI9lm'
p2800
sg8
S"Don't Let Me Down"
p2801
ssS'7cGFbx7MP0H23iHZTZpqMM'
p2802
(dp2803
g3
S'Logic'
p2804
sg5
I4
sg6
S'https://open.spotify.com/track/7cGFbx7MP0H23iHZTZpqMM'
p2805
sg8
S'Everybody'
p2806
ssS'4qqArAiTPueDxIp7cf87h7'
p2807
(dp2808
g3
S'M\xc3\x98'
p2809
sg5
I10
sg6
S'https://open.spotify.com/track/4qqArAiTPueDxIp7cf87h7'
p2810
sg8
S'Final Song'
p2811
ssS'5hslUAKq9I9CG2bAulFkHN'
p2812
(dp2813
g3
S'Andy Williams'
p2814
sg5
I1
sg6
S'https://open.spotify.com/track/5hslUAKq9I9CG2bAulFkHN'
p2815
sg8
S"It's the Most Wonderful Time of the Year"
p2816
ssS'2nLtzopw4rPReszdYBJU6h'
p2817
(dp2818
g3
S'Linkin Park'
p2819
sg5
I9
sg6
S'https://open.spotify.com/track/2nLtzopw4rPReszdYBJU6h'
p2820
sg8
S'Numb'
p2821
ssS'4U9arGcc4ATa7shChhLQP0'
p2822
(dp2823
g3
S'Thirty Seconds To Mars'
p2824
sg5
I2
sg6
S'https://open.spotify.com/track/4U9arGcc4ATa7shChhLQP0'
p2825
sg8
S'Walk On Water'
p2826
ssS'3a1lNhkSLSkpJE4MSHpDu9'
p2827
(dp2828
g3
S'Post Malone'
p2829
sg5
I35
sg6
S'https://open.spotify.com/track/3a1lNhkSLSkpJE4MSHpDu9'
p2830
sg8
S'Congratulations'
p2831
ssS'51w95jAPQDOWN3M7xopWWh'
p2832
(dp2833
g3
S'Logan Paul'
p2834
sg5
I1
sg6
S'https://open.spotify.com/track/51w95jAPQDOWN3M7xopWWh'
p2835
sg8
S"Help Me Help You (feat. Why Don't We)"
p2836
ssS'0dyiHoYbYjYaOEXLpmzQZG'
p2837
(dp2838
g3
S'Lorde'
p2839
sg5
I1
sg6
S'https://open.spotify.com/track/0dyiHoYbYjYaOEXLpmzQZG'
p2840
sg8
S'Supercut'
p2841
ssS'6foxplXS0YEq8cO374Lty4'
p2842
(dp2843
g3
S'Lil Pump'
p2844
sg5
I4
sg6
S'https://open.spotify.com/track/6foxplXS0YEq8cO374Lty4'
p2845
sg8
S'Gucci Gang'
p2846
ssS'6yr8GiTHWvFfi4o6Q5ebdT'
p2847
(dp2848
g3
S'Eminem'
p2849
sg5
I42
sg6
S'https://open.spotify.com/track/6yr8GiTHWvFfi4o6Q5ebdT'
p2850
sg8
S"'Till I Collapse"
p2851
ssS'5ln5yQdUywVbf8HhFsOcd6'
p2852
(dp2853
g3
S'Halsey'
p2854
sg5
I1
sg6
S'https://open.spotify.com/track/5ln5yQdUywVbf8HhFsOcd6'
p2855
sg8
S'Walls Could Talk'
p2856
ssS'2fkeWbM6iqTw7oGHTYm2lw'
p2857
(dp2858
g3
S'Drake'
p2859
sg5
I4
sg6
S'https://open.spotify.com/track/2fkeWbM6iqTw7oGHTYm2lw'
p2860
sg8
S'4422'
p2861
ssS'0ofbQMrRDsUaVKq2mGLEAb'
p2862
(dp2863
g3
S'Camila Cabello'
p2864
sg5
I10
sg6
S'https://open.spotify.com/track/0ofbQMrRDsUaVKq2mGLEAb'
p2865
sg8
S'Havana'
p2866
ssS'6I6NX6tjGsxFAsIfGzY9lJ'
p2867
(dp2868
g3
S'J. Cole'
p2869
sg5
I6
sg6
S'https://open.spotify.com/track/6I6NX6tjGsxFAsIfGzY9lJ'
p2870
sg8
S'Deja Vu'
p2871
ssS'6bLopGnirdrilrpdVB6Um1'
p2872
(dp2873
g3
S'Sia'
p2874
sg5
I6
sg6
S'https://open.spotify.com/track/6bLopGnirdrilrpdVB6Um1'
p2875
sg8
S'The Greatest'
p2876
ssS'25oOaleife6E2MIKmFkPvg'
p2877
(dp2878
g3
S'Young Thug'
p2879
sg5
I1
sg6
S'https://open.spotify.com/track/25oOaleife6E2MIKmFkPvg'
p2880
sg8
S'Relationship (feat. Future)'
p2881
ssS'6uJwPeBGb3swi85TSr9iIz'
p2882
(dp2883
g3
S'Coldplay'
p2884
sg5
I1
sg6
S'https://open.spotify.com/track/6uJwPeBGb3swi85TSr9iIz'
p2885
sg8
S'Miracles (Someone Special)'
p2886
ssS'693iqPOQvhI7PobtR8CC8v'
p2887
(dp2888
g3
S'J Balvin'
p2889
sg5
I2
sg6
S'https://open.spotify.com/track/693iqPOQvhI7PobtR8CC8v'
p2890
sg8
S'Bonita'
p2891
ssS'270nmdCrJaFwO9y9sFso9R'
p2892
(dp2893
g3
S'Demi Lovato'
p2894
sg5
I1
sg6
S'https://open.spotify.com/track/270nmdCrJaFwO9y9sFso9R'
p2895
sg8
S'Daddy Issues'
p2896
ssS'1vvNmPOiUuyCbgWmtc6yfm'
p2897
(dp2898
g3
S'Calvin Harris'
p2899
sg5
I21
sg6
S'https://open.spotify.com/track/1vvNmPOiUuyCbgWmtc6yfm'
p2900
sg8
S'My Way'
p2901
ssS'7DQXiMeLqiQsy1uqHSk0xc'
p2902
(dp2903
g3
S'Shawn Hook'
p2904
sg5
I3
sg6
S'https://open.spotify.com/track/7DQXiMeLqiQsy1uqHSk0xc'
p2905
sg8
S'Reminding Me'
p2906
ssS'3V9DfRoS7JfSkuTyNEsCxQ'
p2907
(dp2908
g3
S'Martin Jensen'
p2909
sg5
I4
sg6
S'https://open.spotify.com/track/3V9DfRoS7JfSkuTyNEsCxQ'
p2910
sg8
S'Wait'
p2911
ssS'4WrS6vezaPwOafKJmHqMEU'
p2912
(dp2913
g3
S'Jax Jones'
p2914
sg5
I1
sg6
S'https://open.spotify.com/track/4WrS6vezaPwOafKJmHqMEU'
p2915
sg8
S"You Don't Know Me - Radio Edit"
p2916
ssS'1Sl3njkhhz8nrSPZroDQ82'
p2917
(dp2918
g3
S'Dimitri Vegas & Like Mike'
p2919
sg5
I11
sg6
S'https://open.spotify.com/track/1Sl3njkhhz8nrSPZroDQ82'
p2920
sg8
S'Complicated (feat. Kiiara)'
p2921
ssS'4NtcojKRdDC5AL9PtxlAQN'
p2922
(dp2923
g3
S'Dihaj'
p2924
sg5
I1
sg6
S'https://open.spotify.com/track/4NtcojKRdDC5AL9PtxlAQN'
p2925
sg8
S'Skeletons'
p2926
ssS'57BrRMwf9LrcmuOsyGilwr'
p2927
(dp2928
g3
S'Linkin Park'
p2929
sg5
I1
sg6
S'https://open.spotify.com/track/57BrRMwf9LrcmuOsyGilwr'
p2930
sg8
S'Crawling'
p2931
ssS'6c7D34787LOtPm8tzhsLgH'
p2932
(dp2933
g3
S'Yo Gotti'
p2934
sg5
I9
sg6
S'https://open.spotify.com/track/6c7D34787LOtPm8tzhsLgH'
p2935
sg8
S'Rake It Up'
p2936
ssS'0afhq8XCExXpqazXczTSve'
p2937
(dp2938
g3
S'Ed Sheeran'
p2939
sg5
I32
sg6
S'https://open.spotify.com/track/0afhq8XCExXpqazXczTSve'
p2940
sg8
S'Galway Girl'
p2941
ssS'2ZE3DJuizYTad2S4CvRRhK'
p2942
(dp2943
g3
S'Lauv'
p2944
sg5
I1
sg6
S'https://open.spotify.com/track/2ZE3DJuizYTad2S4CvRRhK'
p2945
sg8
S'Easy Love'
p2946
ssS'2rb5MvYT7ZIxbKW5hfcHx8'
p2947
(dp2948
g3
S'J Balvin'
p2949
sg5
I15
sg6
S'https://open.spotify.com/track/2rb5MvYT7ZIxbKW5hfcHx8'
p2950
sg8
S'Mi Gente'
p2951
ssS'1NDxZ7cFAo481dtYWdrUnR'
p2952
(dp2953
g3
S'Maggie Lindemann'
p2954
sg5
I28
sg6
S'https://open.spotify.com/track/1NDxZ7cFAo481dtYWdrUnR'
p2955
sg8
S'Pretty Girl - Cheat Codes X CADE Remix'
p2956
ssS'2aFiaMXmWsM3Vj72F9ksBl'
p2957
(dp2958
g3
S'DNCE'
p2959
sg5
I28
sg6
S'https://open.spotify.com/track/2aFiaMXmWsM3Vj72F9ksBl'
p2960
sg8
S'Cake By The Ocean'
p2961
ssS'152lZdxL1OR0ZMW6KquMif'
p2962
(dp2963
g3
S'Khalid'
p2964
sg5
I28
sg6
S'https://open.spotify.com/track/152lZdxL1OR0ZMW6KquMif'
p2965
sg8
S'Location'
p2966
ssS'2dOTkLZFbpNXrhc24CnTFd'
p2967
(dp2968
g3
S'David Guetta'
p2969
sg5
I2
sg6
S'https://open.spotify.com/track/2dOTkLZFbpNXrhc24CnTFd'
p2970
sg8
S'Titanium (feat. Sia) - feat. Sia'
p2971
ssS'4TZy1wLyHec06pwgFYDh1a'
p2972
(dp2973
g3
S'Shawn Mendes'
p2974
sg5
I24
sg6
S'https://open.spotify.com/track/4TZy1wLyHec06pwgFYDh1a'
p2975
sg8
S'Mercy'
p2976
ssS'4q8PHoRsPUB52LFylX8Ulz'
p2977
(dp2978
g3
S'Axwell /\\ Ingrosso'
p2979
sg5
I9
sg6
S'https://open.spotify.com/track/4q8PHoRsPUB52LFylX8Ulz'
p2980
sg8
S'More Than You Know'
p2981
ssS'3RXkboS74UYzN14xTqzPyY'
p2982
(dp2983
g3
g1507
sg5
I1
sg6
S'https://open.spotify.com/track/3RXkboS74UYzN14xTqzPyY'
p2984
sg8
g1507
ssS'4Q3N4Ct4zCuIHuZ65E3BD4'
p2985
(dp2986
g3
S'Kodak Black'
p2987
sg5
I14
sg6
S'https://open.spotify.com/track/4Q3N4Ct4zCuIHuZ65E3BD4'
p2988
sg8
S'Tunnel Vision'
p2989
ssS'20H2Hd5AkUcRjB4yL3UQtJ'
p2990
(dp2991
g3
S'Fifth Harmony'
p2992
sg5
I6
sg6
S'https://open.spotify.com/track/20H2Hd5AkUcRjB4yL3UQtJ'
p2993
sg8
S'Down'
p2994
ssS'1E43TJhKcM8hXgM958ROQ1'
p2995
(dp2996
g3
S'The Weeknd'
p2997
sg5
I5
sg6
S'https://open.spotify.com/track/1E43TJhKcM8hXgM958ROQ1'
p2998
sg8
S'Love To Lay'
p2999
ssS'0HEmnAUT8PHznIAAmVXqFJ'
p3000
(dp3001
g3
S'George Michael'
p3002
sg5
I1
sg6
S'https://open.spotify.com/track/0HEmnAUT8PHznIAAmVXqFJ'
p3003
sg8
S'Faith - Remastered'
p3004
ssS'1FUViuNSldssMIawrOXF2i'
p3005
(dp3006
g3
S'Bebe Rexha'
p3007
sg5
I33
sg6
S'https://open.spotify.com/track/1FUViuNSldssMIawrOXF2i'
p3008
sg8
S'I Got You'
p3009
ssS'4AFgK4wP1iD5i8BYaLr9Vf'
p3010
(dp3011
g3
S'Future'
p3012
sg5
I2
sg6
S'https://open.spotify.com/track/4AFgK4wP1iD5i8BYaLr9Vf'
p3013
sg8
S'You Da Baddest'
p3014
ssS'2Te14aSrBgFj1CE2sBBVMX'
p3015
(dp3016
g3
S'Halsey'
p3017
sg5
I1
sg6
S'https://open.spotify.com/track/2Te14aSrBgFj1CE2sBBVMX'
p3018
sg8
S'Alone'
p3019
ssS'3cNjgVBKTJ1SvKhunrCdVy'
p3020
(dp3021
g3
S'Joel Adams'
p3022
sg5
I8
sg6
S'https://open.spotify.com/track/3cNjgVBKTJ1SvKhunrCdVy'
p3023
sg8
S"Please Don't Go"
p3024
ssS'4Zxdw0Hno7YDu0IzvY76Qo'
p3025
(dp3026
g3
S'Future'
p3027
sg5
I1
sg6
S'https://open.spotify.com/track/4Zxdw0Hno7YDu0IzvY76Qo'
p3028
sg8
S'Rent Money'
p3029
ssS'4Q4jmPHwu0wrJvqrld0FQ6'
p3030
(dp3031
g3
S'Zara Larsson'
p3032
sg5
I14
sg6
S'https://open.spotify.com/track/4Q4jmPHwu0wrJvqrld0FQ6'
p3033
sg8
S'I Would Like'
p3034
ssS'5VEuraNSVxMTzDTtrmL3lQ'
p3035
(dp3036
g3
S'Bing Crosby'
p3037
sg5
I1
sg6
S'https://open.spotify.com/track/5VEuraNSVxMTzDTtrmL3lQ'
p3038
sg8
S'Winter Wonderland'
p3039
ssS'5tRmoZRoupvMYPV1oezFrH'
p3040
(dp3041
g3
S'Lil Uzi Vert'
p3042
sg5
I2
sg6
S'https://open.spotify.com/track/5tRmoZRoupvMYPV1oezFrH'
p3043
sg8
S'X'
p3044
ssS'7yyRTcZmCiyzzJlNzGC9Ol'
p3045
(dp3046
g3
S'DRAM'
p3047
sg5
I16
sg6
S'https://open.spotify.com/track/7yyRTcZmCiyzzJlNzGC9Ol'
p3048
sg8
S'Broccoli (feat. Lil Yachty)'
p3049
ssS'3vcHPShfJAFP3TtAAsTHsV'
p3050
(dp3051
g3
S'Sunstroke Project'
p3052
sg5
I1
sg6
S'https://open.spotify.com/track/3vcHPShfJAFP3TtAAsTHsV'
p3053
sg8
S'Hey Mamma - Radio Edit'
p3054
ssS'7iV733e1KacKrFRaBNxVEf'
p3055
(dp3056
g3
S'BTS'
p3057
sg5
I1
sg6
S'https://open.spotify.com/track/7iV733e1KacKrFRaBNxVEf'
p3058
sg8
S'Intro: Serendipity'
p3059
ssS'2CvOqDpQIMw69cCzWqr5yr'
p3060
(dp3061
g3
S'Beyonc\xc3\xa9'
p3062
sg5
I2
sg6
S'https://open.spotify.com/track/2CvOqDpQIMw69cCzWqr5yr'
p3063
sg8
S'Halo'
p3064
ssS'4ricyQVd20UQde1jpXCSuJ'
p3065
(dp3066
g3
S'Tony Bennett'
p3067
sg5
I1
sg6
S'https://open.spotify.com/track/4ricyQVd20UQde1jpXCSuJ'
p3068
sg8
S'Winter Wonderland'
p3069
ssS'2771LMNxwf62FTAdpJMQfM'
p3070
(dp3071
g3
S'Cardi B'
p3072
sg5
I10
sg6
S'https://open.spotify.com/track/2771LMNxwf62FTAdpJMQfM'
p3073
sg8
S'Bodak Yellow'
p3074
ssS'0Z9HQ8YvHqdeOjTwsR3cS7'
p3075
(dp3076
g3
S'Moon Taxi'
p3077
sg5
I7
sg6
S'https://open.spotify.com/track/0Z9HQ8YvHqdeOjTwsR3cS7'
p3078
sg8
S'Two High'
p3079
ssS'6PCUP3dWmTjcTtXY02oFdT'
p3080
(dp3081
g3
S'Ed Sheeran'
p3082
sg5
I31
sg6
S'https://open.spotify.com/track/6PCUP3dWmTjcTtXY02oFdT'
p3083
sg8
S'Castle on the Hill'
p3084
ssS'2LBqCSwhJGcFQeTHMVGwy3'
p3085
(dp3086
g3
S'The Weeknd'
p3087
sg5
I17
sg6
S'https://open.spotify.com/track/2LBqCSwhJGcFQeTHMVGwy3'
p3088
sg8
S'Die For You'
p3089
ssS'5LABCxgmP7DATATIJXOh6n'
p3090
(dp3091
g3
S'Harry Styles'
p3092
sg5
I2
sg6
S'https://open.spotify.com/track/5LABCxgmP7DATATIJXOh6n'
p3093
sg8
S'Ever Since New York'
p3094
ssS'5pvVAwQbuFoR7LkcicrKnk'
p3095
(dp3096
g3
S'Vice'
p3097
sg5
I16
sg6
S'https://open.spotify.com/track/5pvVAwQbuFoR7LkcicrKnk'
p3098
sg8
S'Obsession (feat. Jon Bellion)'
p3099
ssS'104buTcnP2AsxqB7U1FIZ4'
p3100
(dp3101
g3
S'Linkin Park'
p3102
sg5
I8
sg6
S'https://open.spotify.com/track/104buTcnP2AsxqB7U1FIZ4'
p3103
sg8
S'Heavy (feat. Kiiara)'
p3104
ssS'43jBqV3j3Xi1g6wO0bhIMd'
p3105
(dp3106
g3
S'Sage The Gemini'
p3107
sg5
I10
sg6
S'https://open.spotify.com/track/43jBqV3j3Xi1g6wO0bhIMd'
p3108
sg8
S'Now and Later'
p3109
ssS'650OeHTLxZAQmb4aEbGmaA'
p3110
(dp3111
g3
S'Linkin Park'
p3112
sg5
I1
sg6
S'https://open.spotify.com/track/650OeHTLxZAQmb4aEbGmaA'
p3113
sg8
S'Good Goodbye (feat. Pusha T and Stormzy)'
p3114
ssS'1PSBzsahR2AKwLJgx8ehBj'
p3115
(dp3116
g3
S'Machine Gun Kelly'
p3117
sg5
I12
sg6
S'https://open.spotify.com/track/1PSBzsahR2AKwLJgx8ehBj'
p3118
sg8
S'Bad Things (with Camila Cabello)'
p3119
ssS'53mrVsi49rLHIaKBiSvElG'
p3120
(dp3121
g3
S'blackbear'
p3122
sg5
I10
sg6
S'https://open.spotify.com/track/53mrVsi49rLHIaKBiSvElG'
p3123
sg8
S'do re mi (feat. Gucci Mane)'
p3124
ssS'7KOlJ92bu51cltsD9KU5I7'
p3125
(dp3126
g3
S'Migos'
p3127
sg5
I39
sg6
S'https://open.spotify.com/track/7KOlJ92bu51cltsD9KU5I7'
p3128
sg8
S'T-Shirt'
p3129
ssS'0D8ZpOXVjapLXrjz5VfZSD'
p3130
(dp3131
g3
S'Sam Smith'
p3132
sg5
I1
sg6
S'https://open.spotify.com/track/0D8ZpOXVjapLXrjz5VfZSD'
p3133
sg8
S'Pray'
p3134
ssS'3m660poUr1chesgkkjQM7P'
p3135
(dp3136
g3
S'Demi Lovato'
p3137
sg5
I2
sg6
S'https://open.spotify.com/track/3m660poUr1chesgkkjQM7P'
p3138
sg8
S'Sorry Not Sorry'
p3139
ssS'3SGWp9fJCzgK0WcpcKSQdy'
p3140
(dp3141
g3
S'Stanaj'
p3142
sg5
I20
sg6
S'https://open.spotify.com/track/3SGWp9fJCzgK0WcpcKSQdy'
p3143
sg8
S'Romantic - NOTD Remix'
p3144
ssS'3K4HG9evC7dg3N0R9cYqk4'
p3145
(dp3146
g3
S'Linkin Park'
p3147
sg5
I1
sg6
S'https://open.spotify.com/track/3K4HG9evC7dg3N0R9cYqk4'
p3148
sg8
S'One Step Closer'
p3149
ssS'1Vej0qeQ3ioKwpI6FUbRv1'
p3150
(dp3151
g3
S'Linkin Park'
p3152
sg5
I1
sg6
S'https://open.spotify.com/track/1Vej0qeQ3ioKwpI6FUbRv1'
p3153
sg8
S'Papercut'
p3154
ssS'4C5ewaZ05vyXM23jFJdwd4'
p3155
(dp3156
g3
S'Halsey'
p3157
sg5
I1
sg6
S'https://open.spotify.com/track/4C5ewaZ05vyXM23jFJdwd4'
p3158
sg8
S'Strangers'
p3159
ssS'3gfmFoJgmn9LiIj5mV8oSS'
p3160
(dp3161
g3
S'R3HAB'
p3162
sg5
I4
sg6
S'https://open.spotify.com/track/3gfmFoJgmn9LiIj5mV8oSS'
p3163
sg8
S"I Just Can't"
p3164
ssS'3ebXMykcMXOcLeJ9xZ17XH'
p3165
(dp3166
g3
S'Martin Garrix'
p3167
sg5
I37
sg6
S'https://open.spotify.com/track/3ebXMykcMXOcLeJ9xZ17XH'
p3168
sg8
S'Scared to Be Lonely'
p3169
ssS'6fujklziTHa8uoM5OQSfIo'
p3170
(dp3171
g3
S'Rae Sremmurd'
p3172
sg5
I28
sg6
S'https://open.spotify.com/track/6fujklziTHa8uoM5OQSfIo'
p3173
sg8
S'Black Beatles'
p3174
ssS'7KxhSJOYiqCDclXDBNlFSZ'
p3175
(dp3176
g3
S'Selena Gomez'
p3177
sg5
I9
sg6
S'https://open.spotify.com/track/7KxhSJOYiqCDclXDBNlFSZ'
p3178
sg8
S'Kill Em With Kindness'
p3179
ssS'19WjVVgXjdKXfLXoaDPwTM'
p3180
(dp3181
g3
S'Taylor Swift'
p3182
sg5
I5
sg6
S'https://open.spotify.com/track/19WjVVgXjdKXfLXoaDPwTM'
p3183
sg8
S'...Ready For It?'
p3184
ssS'7DM4BPaS7uofFul3ywMe46'
p3185
(dp3186
g3
S'Ricky Martin'
p3187
sg5
I12
sg6
S'https://open.spotify.com/track/7DM4BPaS7uofFul3ywMe46'
p3188
sg8
S"Vente Pa' Ca"
p3189
ssS'6UjfByV1lDLW0SOVQA4NAi'
p3190
(dp3191
g3
S'Drake'
p3192
sg5
I22
sg6
S'https://open.spotify.com/track/6UjfByV1lDLW0SOVQA4NAi'
p3193
sg8
S'Gyalchester'
p3194
ssS'3Te3gG6MPEDNqLGzWrjKC3'
p3195
(dp3196
g3
S'The Weeknd'
p3197
sg5
I9
sg6
S'https://open.spotify.com/track/3Te3gG6MPEDNqLGzWrjKC3'
p3198
sg8
S'Nothing Without You'
p3199
ssS'4gqMQftUs22F8pOGVn5Acr'
p3200
(dp3201
g3
S'Shawn Hook'
p3202
sg5
I7
sg6
S'https://open.spotify.com/track/4gqMQftUs22F8pOGVn5Acr'
p3203
sg8
S'Reminding Me'
p3204
ssS'3PEgB3fkiojxms35ntsTgs'
p3205
(dp3206
g3
S'Axwell /\\ Ingrosso'
p3207
sg5
I11
sg6
S'https://open.spotify.com/track/3PEgB3fkiojxms35ntsTgs'
p3208
sg8
S'More Than You Know'
p3209
ssS'6CfrYuD3YRDYdYvH9jNtXY'
p3210
(dp3211
g3
S'Drake'
p3212
sg5
I4
sg6
S'https://open.spotify.com/track/6CfrYuD3YRDYdYvH9jNtXY'
p3213
sg8
S'No Long Talk'
p3214
ssS'1XRTXNP8eLpWXfso8Q4dC5'
p3215
(dp3216
g3
S'Mike Perry'
p3217
sg5
I2
sg6
S'https://open.spotify.com/track/1XRTXNP8eLpWXfso8Q4dC5'
p3218
sg8
S'Talk About It'
p3219
ssS'5vFshmrfuOng89bVtW33J9'
p3220
(dp3221
g3
S'Foo Fighters'
p3222
sg5
I1
sg6
S'https://open.spotify.com/track/5vFshmrfuOng89bVtW33J9'
p3223
sg8
S'The Sky Is A Neighborhood'
p3224
ssS'2Xqd0wUttjueBfdcltADOv'
p3225
(dp3226
g3
S'G-Eazy'
p3227
sg5
I4
sg6
S'https://open.spotify.com/track/2Xqd0wUttjueBfdcltADOv'
p3228
sg8
S'No Limit'
p3229
ssS'26g6FFoDfV1ArdnIy28uST'
p3230
(dp3231
g3
S'Sad Eye'
p3232
sg5
I11
sg6
S'https://open.spotify.com/track/26g6FFoDfV1ArdnIy28uST'
p3233
sg8
S'Come Home'
p3234
ssS'7aiVBCp1ibIWE5GeHkbtxr'
p3235
(dp3236
g3
S'Britney Spears'
p3237
sg5
I1
sg6
S'https://open.spotify.com/track/7aiVBCp1ibIWE5GeHkbtxr'
p3238
sg8
S'My Only Wish (This Year)'
p3239
ssS'6KI1ZpZWYAJLvmVhCJz65G'
p3240
(dp3241
g3
S'Grace'
p3242
sg5
I3
sg6
S'https://open.spotify.com/track/6KI1ZpZWYAJLvmVhCJz65G'
p3243
sg8
S"You Don't Own Me"
p3244
ssS'3SqvR3HYLlCTYzbDXJ52OC'
p3245
(dp3246
g3
S'LP'
p3247
sg5
I25
sg6
S'https://open.spotify.com/track/3SqvR3HYLlCTYzbDXJ52OC'
p3248
sg8
S'Lost on You'
p3249
ssS'4gmmRb6bZJffOOiww1JGTO'
p3250
(dp3251
g3
S'21 Savage'
p3252
sg5
I6
sg6
S'https://open.spotify.com/track/4gmmRb6bZJffOOiww1JGTO'
p3253
sg8
S'No Heart'
p3254
ssS'0UeYCHOETPfai02uskjJ3x'
p3255
(dp3256
g3
S'Bag Raiders'
p3257
sg5
I2
sg6
S'https://open.spotify.com/track/0UeYCHOETPfai02uskjJ3x'
p3258
sg8
S'Shooting Stars'
p3259
ssS'0B8B8cVRFIG1yznoQe7c9s'
p3260
(dp3261
g3
S'The Chainsmokers'
p3262
sg5
I8
sg6
S'https://open.spotify.com/track/0B8B8cVRFIG1yznoQe7c9s'
p3263
sg8
S'Setting Fires'
p3264
ssS'7hHTbI9DRg8u9oJ92RQJkw'
p3265
(dp3266
g3
S'Halsey'
p3267
sg5
I1
sg6
S'https://open.spotify.com/track/7hHTbI9DRg8u9oJ92RQJkw'
p3268
sg8
S'Don\xe2\x80\x99t Play'
p3269
ssS'3UjSOJ00E1eLMcayBm827Q'
p3270
(dp3271
g3
S'Salvador Sobral'
p3272
sg5
I1
sg6
S'https://open.spotify.com/track/3UjSOJ00E1eLMcayBm827Q'
p3273
sg8
S'Amar pelos Dois'
p3274
ssS'1mDGDb2fUmUMdqV3tb8VKQ'
p3275
(dp3276
g3
S'Halsey'
p3277
sg5
I1
sg6
S'https://open.spotify.com/track/1mDGDb2fUmUMdqV3tb8VKQ'
p3278
sg8
S'Now Or Never'
p3279
ssS'0Ws8D3EWUDgY962Xftb0h5'
p3280
(dp3281
g3
S'Calvin Harris'
p3282
sg5
I1
sg6
S'https://open.spotify.com/track/0Ws8D3EWUDgY962Xftb0h5'
p3283
sg8
S'Cash Out'
p3284
ssS'7qs2GAglLWfxEfmO8u2u0A'
p3285
(dp3286
g3
S'Loote'
p3287
sg5
I13
sg6
S'https://open.spotify.com/track/7qs2GAglLWfxEfmO8u2u0A'
p3288
sg8
S'High Without Your Love'
p3289
ssS'42NpUvd0I2kdIuMXX4nobE'
p3290
(dp3291
g3
S'Nick Jonas'
p3292
sg5
I1
sg6
S'https://open.spotify.com/track/42NpUvd0I2kdIuMXX4nobE'
p3293
sg8
S'Remember I Told You'
p3294
ssS'6pDVjCUA3B1vg9waKutAsv'
p3295
(dp3296
g3
S'The Weeknd'
p3297
sg5
I6
sg6
S'https://open.spotify.com/track/6pDVjCUA3B1vg9waKutAsv'
p3298
sg8
S'Attention'
p3299
ssS'6OZh916QF8XNunWaP97WEZ'
p3300
(dp3301
g3
S'Jonas Blue'
p3302
sg5
I16
sg6
S'https://open.spotify.com/track/6OZh916QF8XNunWaP97WEZ'
p3303
sg8
S'Fast Car'
p3304
ssS'2rizacJSyD9S1IQUxUxnsK'
p3305
(dp3306
g3
S'The Chainsmokers'
p3307
sg5
I12
sg6
S'https://open.spotify.com/track/2rizacJSyD9S1IQUxUxnsK'
p3308
sg8
S'All We Know'
p3309
ssS'2yZax79pOrYuyIFVW2cZY2'
p3310
(dp3311
g3
S'XXXTENTACION'
p3312
sg5
I1
sg6
S'https://open.spotify.com/track/2yZax79pOrYuyIFVW2cZY2'
p3313
sg8
S'Carry On'
p3314
ssS'6RsWqX8zABZLhZydXxEFOm'
p3315
(dp3316
g3
S'The Weeknd'
p3317
sg5
I18
sg6
S'https://open.spotify.com/track/6RsWqX8zABZLhZydXxEFOm'
p3318
sg8
S"Can't Feel My Face"
p3319
ssS'79NlESqzFSW0hdBWgls4FX'
p3320
(dp3321
g3
S'Kesha'
p3322
sg5
I5
sg6
S'https://open.spotify.com/track/79NlESqzFSW0hdBWgls4FX'
p3323
sg8
S'Praying'
p3324
ssS'0tgVpDi06FyKpA1z0VMD4v'
p3325
(dp3326
g3
S'Ed Sheeran'
p3327
sg5
I25
sg6
S'https://open.spotify.com/track/0tgVpDi06FyKpA1z0VMD4v'
p3328
sg8
S'Perfect'
p3329
ssS'46pF1zFimM582ss1PrMy68'
p3330
(dp3331
g3
S'Darlene Love'
p3332
sg5
I1
sg6
S'https://open.spotify.com/track/46pF1zFimM582ss1PrMy68'
p3333
sg8
S'Christmas (Baby Please Come Home)'
p3334
ssS'3Cc3ssgsvdSaEbFT6KHBAv'
p3335
(dp3336
g3
S'HEDEGAARD'
p3337
sg5
I1
sg6
S'https://open.spotify.com/track/3Cc3ssgsvdSaEbFT6KHBAv'
p3338
sg8
S'That\xc2\xb4s Me'
p3339
ssS'2Vdub5mY4lad7w64bFPUez'
p3340
(dp3341
g3
S'Pitbull'
p3342
sg5
I18
sg6
S'https://open.spotify.com/track/2Vdub5mY4lad7w64bFPUez'
p3343
sg8
S'Hey Ma (with Pitbull & J Balvin feat. Camila Cabello) - Spanish Version'
p3344
ssS'6cAKeFFYW2aClZSUyvqAEW'
p3345
(dp3346
g3
S'Isaiah'
p3347
sg5
I17
sg6
S'https://open.spotify.com/track/6cAKeFFYW2aClZSUyvqAEW'
p3348
sg8
S"It's Gotta Be You"
p3349
ssS'26hcyzSE154xMZCbFdtInA'
p3350
(dp3351
g3
S'KREAM'
p3352
sg5
I7
sg6
S'https://open.spotify.com/track/26hcyzSE154xMZCbFdtInA'
p3353
sg8
S'Taped Up Heart (feat. Clara Mae)'
p3354
ssS'34i4yxPrHWquuR4kjiivFO'
p3355
(dp3356
g3
S'V\xc3\x89RIT\xc3\x89'
p3357
sg5
I8
sg6
S'https://open.spotify.com/track/34i4yxPrHWquuR4kjiivFO'
p3358
sg8
S'Somebody Else'
p3359
ssS'5vMwmfhNcMi3pgGwfutVqI'
p3360
(dp3361
g3
S'Chris Tyson'
p3362
sg5
I1
sg6
S'https://open.spotify.com/track/5vMwmfhNcMi3pgGwfutVqI'
p3363
sg8
S'Back Flip'
p3364
ssS'1onfcprzpSGh2LqrBh17AA'
p3365
(dp3366
g3
S'The xx'
p3367
sg5
I1
sg6
S'https://open.spotify.com/track/1onfcprzpSGh2LqrBh17AA'
p3368
sg8
S'Lips'
p3369
ssS'2wDjpPW3HZdA9quPPmZAMu'
p3370
(dp3371
g3
S'Cashmere Cat'
p3372
sg5
I7
sg6
S'https://open.spotify.com/track/2wDjpPW3HZdA9quPPmZAMu'
p3373
sg8
S'Trust Nobody (feat. Selena Gomez & Tory Lanez)'
p3374
ssS'54ucfuN596MU25jQD3KjCL'
p3375
(dp3376
g3
S'Lorde'
p3377
sg5
I1
sg6
S'https://open.spotify.com/track/54ucfuN596MU25jQD3KjCL'
p3378
sg8
S'Sober II (Melodrama)'
p3379
ssS'3b0EOvScbZUc0qJx0E1L2z'
p3380
(dp3381
g3
S'The Jackson 5'
p3382
sg5
I1
sg6
S'https://open.spotify.com/track/3b0EOvScbZUc0qJx0E1L2z'
p3383
sg8
S'I Want You Back'
p3384
ssS'72Q0FQQo32KJloivv5xge2'
p3385
(dp3386
g3
S'DJ Khaled'
p3387
sg5
I3
sg6
S'https://open.spotify.com/track/72Q0FQQo32KJloivv5xge2'
p3388
sg8
S"I'm the One"
p3389
ssS'49EgauTc1cGkHwPGCaHh1f'
p3390
(dp3391
g3
S'Lil Yachty'
p3392
sg5
I1
sg6
S'https://open.spotify.com/track/49EgauTc1cGkHwPGCaHh1f'
p3393
sg8
S'Better'
p3394
ssS'0hNduWmlWmEmuwEFcYvRu1'
p3395
(dp3396
g3
S'Petit Biscuit'
p3397
sg5
I24
sg6
S'https://open.spotify.com/track/0hNduWmlWmEmuwEFcYvRu1'
p3398
sg8
S'Sunset Lover'
p3399
ssS'1x5sYLZiu9r5E43kMlt9f8'
p3400
(dp3401
g3
S'Clean Bandit'
p3402
sg5
I30
sg6
S'https://open.spotify.com/track/1x5sYLZiu9r5E43kMlt9f8'
p3403
sg8
S'Symphony (feat. Zara Larsson)'
p3404
ssS'37F0uwRSrdzkBiuj0D5UHI'
p3405
(dp3406
g3
S'The Weeknd'
p3407
sg5
I25
sg6
S'https://open.spotify.com/track/37F0uwRSrdzkBiuj0D5UHI'
p3408
sg8
S'Reminder'
p3409
ssS'6IeK3Ap5m3HabwJxgI6eSE'
p3410
(dp3411
g3
S'Perry Como'
p3412
sg5
I1
sg6
S'https://open.spotify.com/track/6IeK3Ap5m3HabwJxgI6eSE'
p3413
sg8
S"It's Beginning to Look a Lot Like Christmas"
p3414
ssS'3VOtM6x5KXZuxSzHaaf9oO'
p3415
(dp3416
g3
S'Jonas Blue'
p3417
sg5
I1
sg6
S'https://open.spotify.com/track/3VOtM6x5KXZuxSzHaaf9oO'
p3418
sg8
S'Mama - Acoustic'
p3419
ssS'3ZOEytgrvLwQaqXreDs2Jx'
p3420
(dp3421
g3
S'Red Hot Chili Peppers'
p3422
sg5
I2
sg6
S'https://open.spotify.com/track/3ZOEytgrvLwQaqXreDs2Jx'
p3423
sg8
S"Can't Stop"
p3424
ssS'5SE57ljOIUJ1ybL9U6CuBH'
p3425
(dp3426
g3
S'BTS'
p3427
sg5
I4
sg6
S'https://open.spotify.com/track/5SE57ljOIUJ1ybL9U6CuBH'
p3428
sg8
S'DNA'
p3429
ssS'3bVbQvGVIe4n24AzyXovXh'
p3430
(dp3431
g3
g1507
sg5
I1
sg6
S'https://open.spotify.com/track/3bVbQvGVIe4n24AzyXovXh'
p3432
sg8
g1507
ssS'2H3wWrnO758y0fPH7Ilerg'
p3433
(dp3434
g3
S'XXXTENTACION'
p3435
sg5
I1
sg6
S'https://open.spotify.com/track/2H3wWrnO758y0fPH7Ilerg'
p3436
sg8
S'Depression & Obsession'
p3437
ssS'6SwRhMLwNqEi6alNPVG00n'
p3438
(dp3439
g3
S'Kendrick Lamar'
p3440
sg5
I26
sg6
S'https://open.spotify.com/track/6SwRhMLwNqEi6alNPVG00n'
p3441
sg8
S'LOYALTY. FEAT. RIHANNA.'
p3442
ssS'2HzfRSfCogBSsgW2CckVA2'
p3443
(dp3444
g3
S'Luke Christopher'
p3445
sg5
I1
sg6
S'https://open.spotify.com/track/2HzfRSfCogBSsgW2CckVA2'
p3446
sg8
S'Lot to Learn'
p3447
ssS'439TlnnznSiBbQbgXiBqAd'
p3448
(dp3449
g3
S'Kendrick Lamar'
p3450
sg5
I1
sg6
S'https://open.spotify.com/track/439TlnnznSiBbQbgXiBqAd'
p3451
sg8
S'm.A.A.d city'
p3452
ssS'33z5crv3IO5U2BOi8xod92'
p3453
(dp3454
g3
S'Wiz Khalifa'
p3455
sg5
I1
sg6
S'https://open.spotify.com/track/33z5crv3IO5U2BOi8xod92'
p3456
sg8
S'Something New (feat. Ty Dolla $ign)'
p3457
ssS'0tKcYR2II1VCQWT79i5NrW'
p3458
(dp3459
g3
S'Imagine Dragons'
p3460
sg5
I21
sg6
S'https://open.spotify.com/track/0tKcYR2II1VCQWT79i5NrW'
p3461
sg8
S'Thunder'
p3462
ssS'4r4PJQBHAE0bIKCjunhTgd'
p3463
(dp3464
g3
S'2 Chainz'
p3465
sg5
I1
sg6
S'https://open.spotify.com/track/4r4PJQBHAE0bIKCjunhTgd'
p3466
sg8
S'4 AM'
p3467
ssS'6DNtNfH8hXkqOX1sjqmI7p'
p3468
(dp3469
g3
S'Major Lazer'
p3470
sg5
I38
sg6
S'https://open.spotify.com/track/6DNtNfH8hXkqOX1sjqmI7p'
p3471
sg8
S'Cold Water (feat. Justin Bieber & M\xc3\x98)'
p3472
ssS'2ytH5wDuqhgLTiDVYioteq'
p3473
(dp3474
g3
S'Jax Jones'
p3475
sg5
I2
sg6
S'https://open.spotify.com/track/2ytH5wDuqhgLTiDVYioteq'
p3476
sg8
S'Instruction'
p3477
ssS'5NNlUMcOEOdoOIwwaWXv0k'
p3478
(dp3479
g3
S'Maroon 5'
p3480
sg5
I30
sg6
S'https://open.spotify.com/track/5NNlUMcOEOdoOIwwaWXv0k'
p3481
sg8
S'Cold'
p3482
ssS'5XQMr19TL7Mfksq9zihbOu'
p3483
(dp3484
g3
S'Chris Brown'
p3485
sg5
I8
sg6
S'https://open.spotify.com/track/5XQMr19TL7Mfksq9zihbOu'
p3486
sg8
S'Questions'
p3487
ssS'1sXUWdKx03aP9Gmzft58rt'
p3488
(dp3489
g3
S'Julia Michaels'
p3490
sg5
I27
sg6
S'https://open.spotify.com/track/1sXUWdKx03aP9Gmzft58rt'
p3491
sg8
S'Issues'
p3492
ssS'3QiAAp20rPC3dcAtKtMaqQ'
p3493
(dp3494
g3
S'Elvis Presley'
p3495
sg5
I1
sg6
S'https://open.spotify.com/track/3QiAAp20rPC3dcAtKtMaqQ'
p3496
sg8
S'Blue Christmas'
p3497
ssS'5hx4FpDZOnDVYlyoG3rMks'
p3498
(dp3499
g3
S'Lil Yachty'
p3500
sg5
I2
sg6
S'https://open.spotify.com/track/5hx4FpDZOnDVYlyoG3rMks'
p3501
sg8
S'Peek A Boo'
p3502
ssS'2Oehrcv4Kov0SuIgWyQY9e'
p3503
(dp3504
g3
S'Imagine Dragons'
p3505
sg5
I6
sg6
S'https://open.spotify.com/track/2Oehrcv4Kov0SuIgWyQY9e'
p3506
sg8
S'Demons'
p3507
ssS'1zayuwd1YLZsYDArkruHdL'
p3508
(dp3509
g3
S'Kendrick Lamar'
p3510
sg5
I3
sg6
S'https://open.spotify.com/track/1zayuwd1YLZsYDArkruHdL'
p3511
sg8
S'The Heart Part 4'
p3512
ssS'4L7Y2OAPiY2I2GndZjAs5K'
p3513
(dp3514
g3
S'Lana Del Rey'
p3515
sg5
I2
sg6
S'https://open.spotify.com/track/4L7Y2OAPiY2I2GndZjAs5K'
p3516
sg8
S'Lust For Life (with The Weeknd)'
p3517
ssS'14oOKFGuXu8DqvOe1W8vao'
p3518
(dp3519
g3
S'Katy Perry'
p3520
sg5
I2
sg6
S'https://open.spotify.com/track/14oOKFGuXu8DqvOe1W8vao'
p3521
sg8
S'Bon App\xc3\xa9tit'
p3522
ssS'4BHSjbYylfOH5WAGusDyni'
p3523
(dp3524
g3
S'Kendrick Lamar'
p3525
sg5
I4
sg6
S'https://open.spotify.com/track/4BHSjbYylfOH5WAGusDyni'
p3526
sg8
S'YAH.'
p3527
ssS'4uoumbAMEMaKdtiv763jKz'
p3528
(dp3529
g3
S'Zara Larsson'
p3530
sg5
I26
sg6
S'https://open.spotify.com/track/4uoumbAMEMaKdtiv763jKz'
p3531
sg8
S'TG4M'
p3532
ssS'7usFMJkhVigXyDxzWq2MU5'
p3533
(dp3534
g3
S'\xce\xa4\xce\xac\xce\xbc\xcf\x84\xce\xb1'
p3535
sg5
I1
sg6
S'https://open.spotify.com/track/7usFMJkhVigXyDxzWq2MU5'
p3536
sg8
S'Ilious Ke Thalasses'
p3537
ssS'6WhzFzROw3aq3rPWjgYlxr'
p3538
(dp3539
g3
S'Kiiara'
p3540
sg5
I14
sg6
S'https://open.spotify.com/track/6WhzFzROw3aq3rPWjgYlxr'
p3541
sg8
S'Gold'
p3542
ssS'2ISl1zekPsc26sUQpVt8UB'
p3543
(dp3544
g3
S"Shakin' Stevens"
p3545
sg5
I1
sg6
S'https://open.spotify.com/track/2ISl1zekPsc26sUQpVt8UB'
p3546
sg8
S'Merry Christmas Everyone - Remastered'
p3547
ssS'2pJZ1v8HezrAoZ0Fhzby92'
p3548
(dp3549
g3
S'Ed Sheeran'
p3550
sg5
I10
sg6
S'https://open.spotify.com/track/2pJZ1v8HezrAoZ0Fhzby92'
p3551
sg8
S'What Do I Know?'
p3552
ssS'0KKkJNfGyhkQ5aFogxQAPU'
p3553
(dp3554
g3
S'Bruno Mars'
p3555
sg5
I35
sg6
S'https://open.spotify.com/track/0KKkJNfGyhkQ5aFogxQAPU'
p3556
sg8
S"That's What I Like"
p3557
ssS'1Slwb6dOYkBlWal1PGtnNg'
p3558
(dp3559
g3
S'Ed Sheeran'
p3560
sg5
I42
sg6
S'https://open.spotify.com/track/1Slwb6dOYkBlWal1PGtnNg'
p3561
sg8
S'Thinking Out Loud'
p3562
ssS'2mNbgyi0gori4b1rFSPgIb'
p3563
(dp3564
g3
S'Lorde'
p3565
sg5
I2
sg6
S'https://open.spotify.com/track/2mNbgyi0gori4b1rFSPgIb'
p3566
sg8
S'Sober'
p3567
ssS'3kXqUXnukwkpsxhW8emNC0'
p3568
(dp3569
g3
S'Blanche'
p3570
sg5
I2
sg6
S'https://open.spotify.com/track/3kXqUXnukwkpsxhW8emNC0'
p3571
sg8
S'City Lights'
p3572
ssS'3zoYkqS4y2BsGVShPL2nTE'
p3573
(dp3574
g3
S'CNCO'
p3575
sg5
I8
sg6
S'https://open.spotify.com/track/3zoYkqS4y2BsGVShPL2nTE'
p3576
sg8
S'Reggaet\xc3\xb3n Lento (Remix) [CNCO & Little Mix]'
p3577
ssS'3B54sVLJ402zGa6Xm4YGNe'
p3578
(dp3579
g3
S'French Montana'
p3580
sg5
I14
sg6
S'https://open.spotify.com/track/3B54sVLJ402zGa6Xm4YGNe'
p3581
sg8
S'Unforgettable'
p3582
ssS'2habSXqcJGExM6JJyskY7O'
p3583
(dp3584
g3
S'Miley Cyrus'
p3585
sg5
I20
sg6
S'https://open.spotify.com/track/2habSXqcJGExM6JJyskY7O'
p3586
sg8
S'Malibu'
p3587
ssS'5Ua3GXyHwiSfpNTMjq6m2z'
p3588
(dp3589
g3
S'Little Mix'
p3590
sg5
I28
sg6
S'https://open.spotify.com/track/5Ua3GXyHwiSfpNTMjq6m2z'
p3591
sg8
S'Touch'
p3592
ssS'6i0V12jOa3mr6uu4WYhUBr'
p3593
(dp3594
g3
S'Twenty One Pilots'
p3595
sg5
I42
sg6
S'https://open.spotify.com/track/6i0V12jOa3mr6uu4WYhUBr'
p3596
sg8
S'Heathens'
p3597
ssS'1louJpMmzEicAn7lzDalPW'
p3598
(dp3599
g3
S'Cheat Codes'
p3600
sg5
I28
sg6
S'https://open.spotify.com/track/1louJpMmzEicAn7lzDalPW'
p3601
sg8
S'No Promises (feat. Demi Lovato)'
p3602
ssS'6zQMbR8e1AQyRDmKUBxoz5'
p3603
(dp3604
g3
S'Marcus & Martinus'
p3605
sg5
I2
sg6
S'https://open.spotify.com/track/6zQMbR8e1AQyRDmKUBxoz5'
p3606
sg8
S'Make You Believe In Love'
p3607
ssS'40UroIGvsMPLPBYwH8rMNA'
p3608
(dp3609
g3
S'Vice'
p3610
sg5
I7
sg6
S'https://open.spotify.com/track/40UroIGvsMPLPBYwH8rMNA'
p3611
sg8
S'Steady 1234 (feat. Jasmine Thompson & Skizzy Mars)'
p3612
ssS'5nA67Y0XX9JipZwYxX7Gl7'
p3613
(dp3614
g3
S'Niall Horan'
p3615
sg5
I8
sg6
S'https://open.spotify.com/track/5nA67Y0XX9JipZwYxX7Gl7'
p3616
sg8
S'This Town'
p3617
ssS'02q0ZnV2L4XByzEvWZJqBC'
p3618
(dp3619
g3
S'BTS'
p3620
sg5
I1
sg6
S'https://open.spotify.com/track/02q0ZnV2L4XByzEvWZJqBC'
p3621
sg8
S'Spring Day'
p3622
ssS'5153LWKMJiMNIRCChGN4Ja'
p3623
(dp3624
g3
S'Mike Perry'
p3625
sg5
I7
sg6
S'https://open.spotify.com/track/5153LWKMJiMNIRCChGN4Ja'
p3626
sg8
S'Hands'
p3627
ssS'0SuG9kyzGRpDqrCWtgD6Lq'
p3628
(dp3629
g3
S'Ed Sheeran'
p3630
sg5
I2
sg6
S'https://open.spotify.com/track/0SuG9kyzGRpDqrCWtgD6Lq'
p3631
sg8
S'Give Me Love'
p3632
ssS'4chgBnYTuTMTytBrNhO6IO'
p3633
(dp3634
g3
S'Sofi Tukker'
p3635
sg5
I1
sg6
S'https://open.spotify.com/track/4chgBnYTuTMTytBrNhO6IO'
p3636
sg8
S'Fuck They'
p3637
ssS'7wiESxCGoUkRdgZF2JOLZu'
p3638
(dp3639
g3
S'Phil Spector'
p3640
sg5
I1
sg6
S'https://open.spotify.com/track/7wiESxCGoUkRdgZF2JOLZu'
p3641
sg8
S'Sleigh Ride'
p3642
ssS'5yQHRt2jsjQdj0WNASwvKK'
p3643
(dp3644
g3
S'The Boy Next Door'
p3645
sg5
I3
sg6
S'https://open.spotify.com/track/5yQHRt2jsjQdj0WNASwvKK'
p3646
sg8
S'La Colegiala'
p3647
ssS'6fxVffaTuwjgEk5h9QyRjy'
p3648
(dp3649
g3
S'Ed Sheeran'
p3650
sg5
I42
sg6
S'https://open.spotify.com/track/6fxVffaTuwjgEk5h9QyRjy'
p3651
sg8
S'Photograph'
p3652
ssS'0w5Bdu51Ka25Pf3hojsKHh'
p3653
(dp3654
g3
S'Paramore'
p3655
sg5
I3
sg6
S'https://open.spotify.com/track/0w5Bdu51Ka25Pf3hojsKHh'
p3656
sg8
S'Hard Times'
p3657
ssS'1tp1xMJ1uaOktksskS0Fzs'
p3658
(dp3659
g3
S'Gucci Mane'
p3660
sg5
I4
sg6
S'https://open.spotify.com/track/1tp1xMJ1uaOktksskS0Fzs'
p3661
sg8
S'Curve (feat. The Weeknd)'
p3662
ssS'0qYTZCo5Bwh1nsUFGZP3zn'
p3663
(dp3664
g3
S'Maluma'
p3665
sg5
I23
sg6
S'https://open.spotify.com/track/0qYTZCo5Bwh1nsUFGZP3zn'
p3666
sg8
S'Felices los 4'
p3667
ssS'4h4qZgzHongzXzxyhCPKtt'
p3668
(dp3669
g3
S'Justin Hurwitz'
p3670
sg5
I1
sg6
S'https://open.spotify.com/track/4h4qZgzHongzXzxyhCPKtt'
p3671
sg8
S'City Of Stars (Humming) - From La La Land Soundtrack'
p3672
ssS'1VdZ0vKfR5jneCmWIUAMxK'
p3673
(dp3674
g3
S'Ed Sheeran'
p3675
sg5
I4
sg6
S'https://open.spotify.com/track/1VdZ0vKfR5jneCmWIUAMxK'
p3676
sg8
S'The A Team'
p3677
ssS'1xa5pXOwLoxHuBDU0JiUdn'
p3678
(dp3679
g3
S'Halsey'
p3680
sg5
I1
sg6
S'https://open.spotify.com/track/1xa5pXOwLoxHuBDU0JiUdn'
p3681
sg8
S'Eyes Closed'
p3682
ssS'1wur1SW656paPv7EyTqWu4'
p3683
(dp3684
g3
S'C\xc3\xa9line Dion'
p3685
sg5
I1
sg6
S'https://open.spotify.com/track/1wur1SW656paPv7EyTqWu4'
p3686
sg8
S'Happy Xmas (War Is Over)'
p3687
ssS'7xE4vKvjqUTtHyJ9zi0k1q'
p3688
(dp3689
g3
S'Emma Stone'
p3690
sg5
I7
sg6
S'https://open.spotify.com/track/7xE4vKvjqUTtHyJ9zi0k1q'
p3691
sg8
S'Someone In The Crowd - From La La Land Soundtrack'
p3692
ssS'6nxQdXa1uAL0rY72wPZu89'
p3693
(dp3694
g3
S'John Legend'
p3695
sg5
I11
sg6
S'https://open.spotify.com/track/6nxQdXa1uAL0rY72wPZu89'
p3696
sg8
S'Love Me Now'
p3697
ssS'6kex4EBAj0WHXDKZMEJaaF'
p3698
(dp3699
g3
S'Jason Derulo'
p3700
sg5
I33
sg6
S'https://open.spotify.com/track/6kex4EBAj0WHXDKZMEJaaF'
p3701
sg8
S'Swalla (feat. Nicki Minaj & Ty Dolla $ign)'
p3702
ssS'1s7voXUxRTw98pmy1J8urv'
p3703
(dp3704
g3
S'Mike Perry'
p3705
sg5
I1
sg6
S'https://open.spotify.com/track/1s7voXUxRTw98pmy1J8urv'
p3706
sg8
S'Hands'
p3707
ssS'10JBIfvldDR2TnT5sphGc2'
p3708
(dp3709
g3
S'Train'
p3710
sg5
I1
sg6
S'https://open.spotify.com/track/10JBIfvldDR2TnT5sphGc2'
p3711
sg8
S'Shake up Christmas'
p3712
ssS'54h8xHewdRPnYzmbEHBhOO'
p3713
(dp3714
g3
S'Imagine Dragons'
p3715
sg5
I1
sg6
S'https://open.spotify.com/track/54h8xHewdRPnYzmbEHBhOO'
p3716
sg8
S'I\xe2\x80\x99ll Make It Up To You'
p3717
ssS'7yq4Qj7cqayVTp3FF9CWbm'
p3718
(dp3719
g3
S'Vance Joy'
p3720
sg5
I17
sg6
S'https://open.spotify.com/track/7yq4Qj7cqayVTp3FF9CWbm'
p3721
sg8
S'Riptide'
p3722
ssS'54LGxQGf5LPXNGjtzDZ5IE'
p3723
(dp3724
g3
S'Zara Larsson'
p3725
sg5
I1
sg6
S'https://open.spotify.com/track/54LGxQGf5LPXNGjtzDZ5IE'
p3726
sg8
S'So Good'
p3727
ssS'08WPvDEsHvTFuB9w8tC2OS'
p3728
(dp3729
g3
S'Sage The Gemini'
p3730
sg5
I1
sg6
S'https://open.spotify.com/track/08WPvDEsHvTFuB9w8tC2OS'
p3731
sg8
S'Now and Later'
p3732
ssS'7ID2dydg1QFuWObmdhwzfm'
p3733
(dp3734
g3
S'The Weeknd'
p3735
sg5
I4
sg6
S'https://open.spotify.com/track/7ID2dydg1QFuWObmdhwzfm'
p3736
sg8
S'Earned It (Fifty Shades Of Grey)'
p3737
ssS'4ZJPwET9Jrgpkqi4Vo3Yg8'
p3738
(dp3739
g3
S'Bebe Rexha'
p3740
sg5
I9
sg6
S'https://open.spotify.com/track/4ZJPwET9Jrgpkqi4Vo3Yg8'
p3741
sg8
S'Bad Bitch (feat. Ty Dolla $ign)'
p3742
ssS'5wIeuNURiubue1VTcglU57'
p3743
(dp3744
g3
S'Kesha'
p3745
sg5
I1
sg6
S'https://open.spotify.com/track/5wIeuNURiubue1VTcglU57'
p3746
sg8
S'Woman'
p3747
ssS'27GmP9AWRs744SzKcpJsTZ'
p3748
(dp3749
g3
S'Drake'
p3750
sg5
I21
sg6
S'https://open.spotify.com/track/27GmP9AWRs744SzKcpJsTZ'
p3751
sg8
S'Jumpman'
p3752
ssS'1Dp7JGFNjvg8Nk0CtMCcnr'
p3753
(dp3754
g3
S'Lorde'
p3755
sg5
I1
sg6
S'https://open.spotify.com/track/1Dp7JGFNjvg8Nk0CtMCcnr'
p3756
sg8
S'Hard Feelings/Loveless'
p3757
ssS'0Fv5N0cHBsl4bzCbollCAS'
p3758
(dp3759
g3
S'Big Sean'
p3760
sg5
I15
sg6
S'https://open.spotify.com/track/0Fv5N0cHBsl4bzCbollCAS'
p3761
sg8
S'Moves'
p3762
ssS'7KXjTSCq5nL1LoYtL7XAwS'
p3763
(dp3764
g3
S'Kendrick Lamar'
p3765
sg5
I28
sg6
S'https://open.spotify.com/track/7KXjTSCq5nL1LoYtL7XAwS'
p3766
sg8
S'HUMBLE.'
p3767
ssS'2zRiYzBzeabQQ16BK3c6jk'
p3768
(dp3769
g3
S'Halsey'
p3770
sg5
I1
sg6
S'https://open.spotify.com/track/2zRiYzBzeabQQ16BK3c6jk'
p3771
sg8
S'Heaven In Hiding'
p3772
ssS'2Ae5awwKvQpTBKQHr1TYCg'
p3773
(dp3774
g3
S'Nause'
p3775
sg5
I8
sg6
S'https://open.spotify.com/track/2Ae5awwKvQpTBKQHr1TYCg'
p3776
sg8
S'Dynamite (feat. Pretty Sister)'
p3777
ssS'43hDboyy6vJ6z2Jx5sHnCF'
p3778
(dp3779
g3
S'Cashmere Cat'
p3780
sg5
I1
sg6
S'https://open.spotify.com/track/43hDboyy6vJ6z2Jx5sHnCF'
p3781
sg8
S'Love Incredible (feat. Camila Cabello)'
p3782
ssS'73VrGWg4I2DJiWXtbseyiG'
p3783
(dp3784
g3
S'U2'
p3785
sg5
I1
sg6
S'https://open.spotify.com/track/73VrGWg4I2DJiWXtbseyiG'
p3786
sg8
S'You\xe2\x80\x99re The Best Thing About Me'
p3787
ssS'7lsYGc5H5DHktxO7gbB8bN'
p3788
(dp3789
g3
S'The Weeknd'
p3790
sg5
I6
sg6
S'https://open.spotify.com/track/7lsYGc5H5DHktxO7gbB8bN'
p3791
sg8
S'Ordinary Life'
p3792
ssS'1wDfQ3eLZb51M8jCkNwbyx'
p3793
(dp3794
g3
S'Daya'
p3795
sg5
I1
sg6
S'https://open.spotify.com/track/1wDfQ3eLZb51M8jCkNwbyx'
p3796
sg8
S'Words'
p3797
ssS'6Na5uKk5SsqZimk0hAWo8y'
p3798
(dp3799
g3
S'Drake'
p3800
sg5
I2
sg6
S'https://open.spotify.com/track/6Na5uKk5SsqZimk0hAWo8y'
p3801
sg8
S'Signs'
p3802
ssS'4gavOCQdZ2g86gkvi17FM7'
p3803
(dp3804
g3
S'Paul McCartney'
p3805
sg5
I1
sg6
S'https://open.spotify.com/track/4gavOCQdZ2g86gkvi17FM7'
p3806
sg8
S'Wonderful Christmastime - Remastered 2011 / Edited Version'
p3807
ssS'6BF0q7i49pcQxFqoehpNKB'
p3808
(dp3809
g3
S'\xce\xa4\xce\xac\xce\xbc\xcf\x84\xce\xb1'
p3810
sg5
I6
sg6
S'https://open.spotify.com/track/6BF0q7i49pcQxFqoehpNKB'
p3811
sg8
S'Ilious Ke Thalasses'
p3812
ssS'09KlDlkOYuC5x6hOaM7vaP'
p3813
(dp3814
g3
S'Fifth Harmony'
p3815
sg5
I1
sg6
S'https://open.spotify.com/track/09KlDlkOYuC5x6hOaM7vaP'
p3816
sg8
S'Angel'
p3817
ssS'74ODGXs4byLTRdnKGM4s6E'
p3818
(dp3819
g3
S'LANY'
p3820
sg5
I13
sg6
S'https://open.spotify.com/track/74ODGXs4byLTRdnKGM4s6E'
p3821
sg8
S'Super Far'
p3822
ssS'0n2bvWvMwr0gbjcuTm92eW'
p3823
(dp3824
g3
S'Lana Del Rey'
p3825
sg5
I10
sg6
S'https://open.spotify.com/track/0n2bvWvMwr0gbjcuTm92eW'
p3826
sg8
S'Love'
p3827
ssS'4yRuPrh3Zf5NFJjbC6NvKp'
p3828
(dp3829
g3
S'Boehm'
p3830
sg5
I1
sg6
S'https://open.spotify.com/track/4yRuPrh3Zf5NFJjbC6NvKp'
p3831
sg8
S'We Come - Radio Edit'
p3832
ssS'3AsAuGTaDQzavZZThyYlop'
p3833
(dp3834
g3
S'NEIKED'
p3835
sg5
I4
sg6
S'https://open.spotify.com/track/3AsAuGTaDQzavZZThyYlop'
p3836
sg8
S'Sexual'
p3837
ssS'2mEvsc8k8iwR099b49PccJ'
p3838
(dp3839
g3
S'Justin Hurwitz'
p3840
sg5
I1
sg6
S'https://open.spotify.com/track/2mEvsc8k8iwR099b49PccJ'
p3841
sg8
S'The End - From La La Land Soundtrack'
p3842
ssS'4kfm1uI9QGaoN9qm6CkAMn'
p3843
(dp3844
g3
S'Linkin Park'
p3845
sg5
I2
sg6
S'https://open.spotify.com/track/4kfm1uI9QGaoN9qm6CkAMn'
p3846
sg8
S"What I've Done"
p3847
ssS'69bp2EbF7Q2rqc5N3ylezZ'
p3848
(dp3849
g3
S'Justin Bieber'
p3850
sg5
I20
sg6
S'https://open.spotify.com/track/69bp2EbF7Q2rqc5N3ylezZ'
p3851
sg8
S'Sorry'
p3852
ssS'5JwLhFNrXw49pn3HQqu02G'
p3853
(dp3854
g3
S'Lana Del Rey'
p3855
sg5
I1
sg6
S'https://open.spotify.com/track/5JwLhFNrXw49pn3HQqu02G'
p3856
sg8
S'Summer Bummer (feat. A$AP Rocky & Playboi Carti)'
p3857
ssS'6UBiayVPCYHV8dz05KNy1m'
p3858
(dp3859
g3
S'Madstreet'
p3860
sg5
I1
sg6
S'https://open.spotify.com/track/6UBiayVPCYHV8dz05KNy1m'
p3861
sg8
S'High'
p3862
ssS'2cnKEkpVUSV4wnjQiTWfH6'
p3863
(dp3864
g3
S'Wisin'
p3865
sg5
I6
sg6
S'https://open.spotify.com/track/2cnKEkpVUSV4wnjQiTWfH6'
p3866
sg8
S'Esc\xc3\xa1pate Conmigo'
p3867
ssS'08QmhAybC6VHeG8gah84qA'
p3868
(dp3869
g3
S'NEIKED'
p3870
sg5
I1
sg6
S'https://open.spotify.com/track/08QmhAybC6VHeG8gah84qA'
p3871
sg8
S'Call Me'
p3872
ssS'04CttTezSnv71USiiG9mIo'
p3873
(dp3874
g3
S'Hearts & Colors'
p3875
sg5
I23
sg6
S'https://open.spotify.com/track/04CttTezSnv71USiiG9mIo'
p3876
sg8
S'Lighthouse - Andrelli Remix'
p3877
ssS'4iLqG9SeJSnt0cSPICSjxv'
p3878
(dp3879
g3
S'Charlie Puth'
p3880
sg5
I25
sg6
S'https://open.spotify.com/track/4iLqG9SeJSnt0cSPICSjxv'
p3881
sg8
S'Attention'
p3882
ssS'7mAvh3auAemE7T03Lep5N5'
p3883
(dp3884
g3
S'Margaret'
p3885
sg5
I1
sg6
S'https://open.spotify.com/track/7mAvh3auAemE7T03Lep5N5'
p3886
sg8
S'What You Do'
p3887
ssS'6JyuJFedEvPmdWQW0PkbGJ'
p3888
(dp3889
g3
S'Skrillex'
p3890
sg5
I14
sg6
S'https://open.spotify.com/track/6JyuJFedEvPmdWQW0PkbGJ'
p3891
sg8
S'Purple Lamborghini (with Rick Ross)'
p3892
ssS'5kXCVnfbxfq5nKjAVvj3no'
p3893
(dp3894
g3
S'Demi Lovato'
p3895
sg5
I1
sg6
S'https://open.spotify.com/track/5kXCVnfbxfq5nKjAVvj3no'
p3896
sg8
S'Sexy Dirty Love'
p3897
ssS'6RUKPb4LETWmmr3iAEQktW'
p3898
(dp3899
g3
S'The Chainsmokers'
p3900
sg5
I34
sg6
S'https://open.spotify.com/track/6RUKPb4LETWmmr3iAEQktW'
p3901
sg8
S'Something Just Like This'
p3902
ssS'3FQCJI2t5LTbsRPfYVBSVB'
p3903
(dp3904
g3
S'Linkin Park'
p3905
sg5
I1
sg6
S'https://open.spotify.com/track/3FQCJI2t5LTbsRPfYVBSVB'
p3906
sg8
S'Battle Symphony'
p3907
ssS'7M16mAuWuFA5rC9HvkXaGx'
p3908
(dp3909
g3
S'Jax Jones'
p3910
sg5
I5
sg6
S'https://open.spotify.com/track/7M16mAuWuFA5rC9HvkXaGx'
p3911
sg8
S"You Don't Know Me - Radio Edit"
p3912
ssS'3mRcWCyteY2133a7xVMrYw'
p3913
(dp3914
g3
S'Future'
p3915
sg5
I3
sg6
S'https://open.spotify.com/track/3mRcWCyteY2133a7xVMrYw'
p3916
sg8
S'Comin Out Strong'
p3917
ssS'0VhgEqMTNZwYL1ARDLLNCX'
p3918
(dp3919
g3
S'James Arthur'
p3920
sg5
I16
sg6
S'https://open.spotify.com/track/0VhgEqMTNZwYL1ARDLLNCX'
p3921
sg8
S'Can I Be Him'
p3922
ssS'2CPqh63wRVscbceKcPxwvv'
p3923
(dp3924
g3
S'Mike Perry'
p3925
sg5
I9
sg6
S'https://open.spotify.com/track/2CPqh63wRVscbceKcPxwvv'
p3926
sg8
S'The Ocean'
p3927
ssS'5PYPCxyWltRIyPkhSsnWIk'
p3928
(dp3929
g3
S'Justin Hurwitz'
p3930
sg5
I2
sg6
S'https://open.spotify.com/track/5PYPCxyWltRIyPkhSsnWIk'
p3931
sg8
S'Engagement Party - From La La Land Soundtrack'
p3932
ssS'65MOTX6uSFAnqXl7dlAuId'
p3933
(dp3934
g3
S'Demi Lovato'
p3935
sg5
I2
sg6
S'https://open.spotify.com/track/65MOTX6uSFAnqXl7dlAuId'
p3936
sg8
S'Tell Me You Love Me'
p3937
ssS'7CiatbFJpSnXnbCiVaGlm0'
p3938
(dp3939
g3
S'JOWST'
p3940
sg5
I1
sg6
S'https://open.spotify.com/track/7CiatbFJpSnXnbCiVaGlm0'
p3941
sg8
S'Grab The Moment'
p3942
ssS'4vv1KjUzPwrtDbozizSfQc'
p3943
(dp3944
g3
S'DJ Khaled'
p3945
sg5
I2
sg6
S'https://open.spotify.com/track/4vv1KjUzPwrtDbozizSfQc'
p3946
sg8
S"Don't Quit"
p3947
ssS'1xznGGDReH1oQq0xzbwXa3'
p3948
(dp3949
g3
S'Drake'
p3950
sg5
I42
sg6
S'https://open.spotify.com/track/1xznGGDReH1oQq0xzbwXa3'
p3951
sg8
S'One Dance'
p3952
ssS'5GXAXm5YOmYT0kL5jHvYBt'
p3953
(dp3954
g3
S'The Weeknd'
p3955
sg5
I42
sg6
S'https://open.spotify.com/track/5GXAXm5YOmYT0kL5jHvYBt'
p3956
sg8
S'I Feel It Coming'
p3957
ssS'6IZvVAP7VPPnsGX6bvgkqg'
p3958
(dp3959
g3
S'Kendrick Lamar'
p3960
sg5
I4
sg6
S'https://open.spotify.com/track/6IZvVAP7VPPnsGX6bvgkqg'
p3961
sg8
S'PRIDE.'
p3962
ssS'0lMbuWUpfTWhEmOKxppEau'
p3963
(dp3964
g3
S'Calvin Harris'
p3965
sg5
I12
sg6
S'https://open.spotify.com/track/0lMbuWUpfTWhEmOKxppEau'
p3966
sg8
S'Rollin'
p3967
ssS'508hbpTQ7wclT2JDpKBUSV'
p3968
(dp3969
g3
S'Lorde'
p3970
sg5
I1
sg6
S'https://open.spotify.com/track/508hbpTQ7wclT2JDpKBUSV'
p3971
sg8
S'Perfect Places'
p3972
ssS'5p8n7G5y5tFSClqpANiMUf'
p3973
(dp3974
g3
S'Snik'
p3975
sg5
I4
sg6
S'https://open.spotify.com/track/5p8n7G5y5tFSClqpANiMUf'
p3976
sg8
S'Harry Houdini'
p3977
ssS'0ZiRSqlSsDlY0UyDYU9CTE'
p3978
(dp3979
g3
S'Thomas Rhett'
p3980
sg5
I4
sg6
S'https://open.spotify.com/track/0ZiRSqlSsDlY0UyDYU9CTE'
p3981
sg8
S'Unforgettable'
p3982
ssS'4sQMalN597HdggTu196aL0'
p3983
(dp3984
g3
S'Flume'
p3985
sg5
I2
sg6
S'https://open.spotify.com/track/4sQMalN597HdggTu196aL0'
p3986
sg8
S'Say It (feat. Tove Lo)'
p3987
ssS'51ChrwmUPDJvedPQnIU8Ls'
p3988
(dp3989
g3
S'Ed Sheeran'
p3990
sg5
I13
sg6
S'https://open.spotify.com/track/51ChrwmUPDJvedPQnIU8Ls'
p3991
sg8
S'Dive'
p3992
ssS'4B1rpPmQXwj78wk6aIGwwU'
p3993
(dp3994
g3
S'Harry Styles'
p3995
sg5
I1
sg6
S'https://open.spotify.com/track/4B1rpPmQXwj78wk6aIGwwU'
p3996
sg8
S'Two Ghosts'
p3997
ssS'2R7858bg0GHuBBxjTyOL7N'
p3998
(dp3999
g3
S'George Michael'
p4000
sg5
I2
sg6
S'https://open.spotify.com/track/2R7858bg0GHuBBxjTyOL7N'
p4001
sg8
S'Careless Whisper'
p4002
ssS'7nbr4TKPTsVbngPqWmXhNi'
p4003
(dp4004
g3
S'VAX'
p4005
sg5
I1
sg6
S'https://open.spotify.com/track/7nbr4TKPTsVbngPqWmXhNi'
p4006
sg8
S'6 In the Morning'
p4007
ssS'1CUVN2kn7mW5FjkqXTR2W1'
p4008
(dp4009
g3
S'Jonas Blue'
p4010
sg5
I25
sg6
S'https://open.spotify.com/track/1CUVN2kn7mW5FjkqXTR2W1'
p4011
sg8
S'Perfect Strangers'
p4012
ssS'7mkm8ry8rZEzJ9C5wQZZrY'
p4013
(dp4014
g3
S'Basic Tape'
p4015
sg5
I2
sg6
S'https://open.spotify.com/track/7mkm8ry8rZEzJ9C5wQZZrY'
p4016
sg8
S'No Matter (Basic Tape vs. Frances)'
p4017
ssS'0SGkqnVQo9KPytSri1H6cF'
p4018
(dp4019
g3
S'Big Sean'
p4020
sg5
I40
sg6
S'https://open.spotify.com/track/0SGkqnVQo9KPytSri1H6cF'
p4021
sg8
S'Bounce Back'
p4022
ssS'0Tel1fmuCxEFV6wBLXsEdk'
p4023
(dp4024
g3
S'Ed Sheeran'
p4025
sg5
I1
sg6
S'https://open.spotify.com/track/0Tel1fmuCxEFV6wBLXsEdk'
p4026
sg8
S'Kiss Me'
p4027
ssS'7nKBxz47S9SD79N086fuhn'
p4028
(dp4029
g3
S'Enrique Iglesias'
p4030
sg5
I32
sg6
S'https://open.spotify.com/track/7nKBxz47S9SD79N086fuhn'
p4031
sg8
S'SUBEME LA RADIO'
p4032
ssS'27SdWb2rFzO6GWiYDBTD9j'
p4033
(dp4034
g3
S'Sia'
p4035
sg5
I42
sg6
S'https://open.spotify.com/track/27SdWb2rFzO6GWiYDBTD9j'
p4036
sg8
S'Cheap Thrills'
p4037
ssS'3vgNmjuRDnGLxUFGCLkwpm'
p4038
(dp4039
g3
S'David Guetta'
p4040
sg5
I5
sg6
S'https://open.spotify.com/track/3vgNmjuRDnGLxUFGCLkwpm'
p4041
sg8
S'Light My Body Up (feat. Nicki Minaj & Lil Wayne)'
p4042
ssS'5dQJKDx0x73seZbwSORa1T'
p4043
(dp4044
g3
S'The Vamps'
p4045
sg5
I6
sg6
S'https://open.spotify.com/track/5dQJKDx0x73seZbwSORa1T'
p4046
sg8
S'Middle Of The Night'
p4047
ssS'6PJ8FF6UR8FZXfEvpHkIVN'
p4048
(dp4049
g3
S'Ed Sheeran'
p4050
sg5
I8
sg6
S'https://open.spotify.com/track/6PJ8FF6UR8FZXfEvpHkIVN'
p4051
sg8
S'How Would You Feel (Paean)'
p4052
ssS'3fx5ozORvvTGnSnOhUqrgj'
p4053
(dp4054
g3
S'Lana Del Rey'
p4055
sg5
I1
sg6
S'https://open.spotify.com/track/3fx5ozORvvTGnSnOhUqrgj'
p4056
sg8
S'Change'
p4057
ssS'2Pn76oik9rWyoBShTSNY9Q'
p4058
(dp4059
g3
S'Lana Del Rey'
p4060
sg5
I3
sg6
S'https://open.spotify.com/track/2Pn76oik9rWyoBShTSNY9Q'
p4061
sg8
S'White Mustang'
p4062
ssS'3kdMzXOcrDIdSWLdONHNK5'
p4063
(dp4064
g3
S'Foo Fighters'
p4065
sg5
I1
sg6
S'https://open.spotify.com/track/3kdMzXOcrDIdSWLdONHNK5'
p4066
sg8
S'The Sky Is A Neighborhood'
p4067
ssS'5ndfVSDyPq90jaIUhNPeby'
p4068
(dp4069
g3
S'Katy Perry'
p4070
sg5
I2
sg6
S'https://open.spotify.com/track/5ndfVSDyPq90jaIUhNPeby'
p4071
sg8
S'Chained To The Rhythm'
p4072
ssS'5uCax9HTNlzGybIStD3vDh'
p4073
(dp4074
g3
S'James Arthur'
p4075
sg5
I42
sg6
S'https://open.spotify.com/track/5uCax9HTNlzGybIStD3vDh'
p4076
sg8
S"Say You Won't Let Go"
p4077
ssS'7qiZfU4dY1lWllzX7mPBI3'
p4078
(dp4079
g3
S'Ed Sheeran'
p4080
sg5
I40
sg6
S'https://open.spotify.com/track/7qiZfU4dY1lWllzX7mPBI3'
p4081
sg8
S'Shape of You'
p4082
ssS'6LOCAhFzZiavHcLJucLuDy'
p4083
(dp4084
g3
S'DJ Khaled'
p4085
sg5
I1
sg6
S'https://open.spotify.com/track/6LOCAhFzZiavHcLJucLuDy'
p4086
sg8
S"Don't Quit"
p4087
ssS'0iV9yfj1knFNOSEiuTHZwl'
p4088
(dp4089
g3
S'Christina Aguilera'
p4090
sg5
I1
sg6
S'https://open.spotify.com/track/0iV9yfj1knFNOSEiuTHZwl'
p4091
sg8
S'Have Yourself a Merry Little Christmas'
p4092
ssS'6CUBgX8bXC5YQCkdgRHqyg'
p4093
(dp4094
g3
S'blackbear'
p4095
sg5
I3
sg6
S'https://open.spotify.com/track/6CUBgX8bXC5YQCkdgRHqyg'
p4096
sg8
S'do re mi'
p4097
ssS'0wfbD5rAksdXUzRvMfM3x5'
p4098
(dp4099
g3
S'The Chainsmokers'
p4100
sg5
I16
sg6
S'https://open.spotify.com/track/0wfbD5rAksdXUzRvMfM3x5'
p4101
sg8
S'The One'
p4102
ssS'1ALL550OX4NZ84q8EMVd2M'
p4103
(dp4104
g3
S'Ian Erix'
p4105
sg5
I1
sg6
S'https://open.spotify.com/track/1ALL550OX4NZ84q8EMVd2M'
p4106
sg8
S'Footprints in the Sand'
p4107
ssS'0q75NwOoFiARAVp4EXU4Bs'
p4108
(dp4109
g3
S'SZA'
p4110
sg5
I12
sg6
S'https://open.spotify.com/track/0q75NwOoFiARAVp4EXU4Bs'
p4111
sg8
S'Love Galore'
p4112
ssS'2fQrGHiQOvpL9UgPvtYy6G'
p4113
(dp4114
g3
S'21 Savage'
p4115
sg5
I3
sg6
S'https://open.spotify.com/track/2fQrGHiQOvpL9UgPvtYy6G'
p4116
sg8
S'Bank Account'
p4117
ssS'05bnEv2dpFzmGVLGdjD9UP'
p4118
(dp4119
g3
S'XXXTENTACION'
p4120
sg5
I1
sg6
S'https://open.spotify.com/track/05bnEv2dpFzmGVLGdjD9UP'
p4121
sg8
S'Orlando'
p4122
ssS'0LGCloCfw3fk1XQh0zbrs1'
p4123
(dp4124
g3
S'Mike Perry'
p4125
sg5
I1
sg6
S'https://open.spotify.com/track/0LGCloCfw3fk1XQh0zbrs1'
p4126
sg8
S'Hands'
p4127
ssS'2FiSTH0GYpIioUgjfzMIja'
p4128
(dp4129
g3
S'Kygo'
p4130
sg5
I2
sg6
S'https://open.spotify.com/track/2FiSTH0GYpIioUgjfzMIja'
p4131
sg8
S'Stay'
p4132
ssS'5ghIJDpPoe3CfHMGu71E6T'
p4133
(dp4134
g3
S'Nirvana'
p4135
sg5
I1
sg6
S'https://open.spotify.com/track/5ghIJDpPoe3CfHMGu71E6T'
p4136
sg8
S'Smells Like Teen Spirit'
p4137
ssS'1F2HXIJrE2Xn81OzT2zZvW'
p4138
(dp4139
g3
S'French Montana'
p4140
sg5
I13
sg6
S'https://open.spotify.com/track/1F2HXIJrE2Xn81OzT2zZvW'
p4141
sg8
S'Unforgettable'
p4142
ssS'6QgjcU0zLnzq5OrUoSZ3OK'
p4143
(dp4144
g3
S'Portugal. The Man'
p4145
sg5
I14
sg6
S'https://open.spotify.com/track/6QgjcU0zLnzq5OrUoSZ3OK'
p4146
sg8
S'Feel It Still'
p4147
ssS'6Yk3pZPw8hlUBMTeLLLRC1'
p4148
(dp4149
g3
S'The Boy Next Door'
p4150
sg5
I2
sg6
S'https://open.spotify.com/track/6Yk3pZPw8hlUBMTeLLLRC1'
p4151
sg8
S'La Colegiala'
p4152
ssS'7jltqRIyxLXBDNZ1QlmnBp'
p4153
(dp4154
g3
S'Ryan Gosling'
p4155
sg5
I7
sg6
S'https://open.spotify.com/track/7jltqRIyxLXBDNZ1QlmnBp'
p4156
sg8
S'City Of Stars - From La La Land Soundtrack/Pier'
p4157
ssS'2f9LSU0aBW04w6KL26DW8r'
p4158
(dp4159
g3
S'WizKid'
p4160
sg5
I1
sg6
S'https://open.spotify.com/track/2f9LSU0aBW04w6KL26DW8r'
p4161
sg8
S'Come Closer'
p4162
ssS'78rIJddV4X0HkNAInEcYde'
p4163
(dp4164
g3
S'Starley'
p4165
sg5
I42
sg6
S'https://open.spotify.com/track/78rIJddV4X0HkNAInEcYde'
p4166
sg8
S'Call On Me - Ryan Riback Extended Remix'
p4167
ssS'0L7loeTIg6akW84aEQZpCT'
p4168
(dp4169
g3
S'Major Lazer'
p4170
sg5
I29
sg6
S'https://open.spotify.com/track/0L7loeTIg6akW84aEQZpCT'
p4171
sg8
S'Light It Up (feat. Nyla & Fuse ODG) - Remix'
p4172
ssS'5GG3knKdxKWrNboRijxeKF'
p4173
(dp4174
g3
S'Bryson Tiller'
p4175
sg5
I1
sg6
S'https://open.spotify.com/track/5GG3knKdxKWrNboRijxeKF'
p4176
sg8
S'Run Me Dry'
p4177
ssS'4Q5yMlwAfAoitqg4r9oZHN'
p4178
(dp4179
g3
S'Cashmere Cat'
p4180
sg5
I10
sg6
S'https://open.spotify.com/track/4Q5yMlwAfAoitqg4r9oZHN'
p4181
sg8
S'Quit (feat. Ariana Grande)'
p4182
ssS'2EEeOnHehOozLq4aS0n6SL'
p4183
(dp4184
g3
S'KYLE'
p4185
sg5
I31
sg6
S'https://open.spotify.com/track/2EEeOnHehOozLq4aS0n6SL'
p4186
sg8
S'iSpy (feat. Lil Yachty)'
p4187
ssS'5TXDeTFVRVY7Cvt0Dw4vWW'
p4188
(dp4189
g3
S'XXXTENTACION'
p4190
sg5
I4
sg6
S'https://open.spotify.com/track/5TXDeTFVRVY7Cvt0Dw4vWW'
p4191
sg8
S'Revenge'
p4192
ssS'62FbLMpG27j0z43nd1Hs2I'
p4193
(dp4194
g3
S'DJ Envy'
p4195
sg5
I1
sg6
S'https://open.spotify.com/track/62FbLMpG27j0z43nd1Hs2I'
p4196
sg8
S'Text Ur Number (feat. DJ Sliink & Fetty Wap)'
p4197
ssS'167NczpNbRF7oWakJaY3Hh'
p4198
(dp4199
g3
S'Niall Horan'
p4200
sg5
I23
sg6
S'https://open.spotify.com/track/167NczpNbRF7oWakJaY3Hh'
p4201
sg8
S'Slow Hands'
p4202
ssS'0or0gNaKAXYYCsOrpvRzAu'
p4203
(dp4204
g3
S'Lorde'
p4205
sg5
I2
sg6
S'https://open.spotify.com/track/0or0gNaKAXYYCsOrpvRzAu'
p4206
sg8
S'Liability'
p4207
ssS'19a3JfW8BQwqHWUMbcqSx8'
p4208
(dp4209
g3
S'Kanye West'
p4210
sg5
I1
sg6
S'https://open.spotify.com/track/19a3JfW8BQwqHWUMbcqSx8'
p4211
sg8
S'Famous'
p4212
ssS'2SYa5Lx1uoCvyDIW4oee9b'
p4213
(dp4214
g3
S'BTS'
p4215
sg5
I2
sg6
S'https://open.spotify.com/track/2SYa5Lx1uoCvyDIW4oee9b'
p4216
sg8
S'MIC Drop'
p4217
ssS'1R17cgUv6HeQFa78dzqb7s'
p4218
(dp4219
g3
S'Justin Hurwitz'
p4220
sg5
I10
sg6
S'https://open.spotify.com/track/1R17cgUv6HeQFa78dzqb7s'
p4221
sg8
S'Mia & Sebastian\xe2\x80\x99s Theme - From La La Land Soundtrack'
p4222
ssS'7yHEDfrJNd0zWOfXwydNH0'
p4223
(dp4224
g3
S'Ariana Grande'
p4225
sg5
I25
sg6
S'https://open.spotify.com/track/7yHEDfrJNd0zWOfXwydNH0'
p4226
sg8
S'Into You'
p4227
ssS'4YkwUfWSIxdKNLDXw0caFO'
p4228
(dp4229
g3
S'Chris Brown'
p4230
sg5
I1
sg6
S'https://open.spotify.com/track/4YkwUfWSIxdKNLDXw0caFO'
p4231
sg8
S'Pills & Automobiles'
p4232
ssS'1lntL1cI2UIWlxjL5QiN8g'
p4233
(dp4234
g3
S'Lauv'
p4235
sg5
I15
sg6
S'https://open.spotify.com/track/1lntL1cI2UIWlxjL5QiN8g'
p4236
sg8
S'The Other'
p4237
ssS'0LtVx5vsq9nfpGsWgjUin6'
p4238
(dp4239
g3
S'Ryan Gosling'
p4240
sg5
I12
sg6
S'https://open.spotify.com/track/0LtVx5vsq9nfpGsWgjUin6'
p4241
sg8
S'City Of Stars - From La La Land Soundtrack'
p4242
ssS'5ZRcp3KMbqF3KXIEJ7Pg6K'
p4243
(dp4244
g3
S'Mahmut Orhan'
p4245
sg5
I3
sg6
S'https://open.spotify.com/track/5ZRcp3KMbqF3KXIEJ7Pg6K'
p4246
sg8
S'Save Me'
p4247
ssS'6nlXWOyoCPLXXWaklOyQcb'
p4248
(dp4249
g3
S'Julia Michaels'
p4250
sg5
I14
sg6
S'https://open.spotify.com/track/6nlXWOyoCPLXXWaklOyQcb'
p4251
sg8
S'Issues - Alan Walker Remix'
p4252
ssS'35AOGxEzcsgAdzhFLutbXO'
p4253
(dp4254
g3
S'SEASIDE HIGHLIFE'
p4255
sg5
I8
sg6
S'https://open.spotify.com/track/35AOGxEzcsgAdzhFLutbXO'
p4256
sg8
S'Sideways'
p4257
ssS'2h9L3U6h3jnfOpIAj8E86H'
p4258
(dp4259
g3
S'Tove Lo'
p4260
sg5
I1
sg6
S'https://open.spotify.com/track/2h9L3U6h3jnfOpIAj8E86H'
p4261
sg8
S'Disco Tits'
p4262
ssS'15dnkAHcHC0vrIUlbiPiqU'
p4263
(dp4264
g3
S'Imagine Dragons'
p4265
sg5
I1
sg6
S'https://open.spotify.com/track/15dnkAHcHC0vrIUlbiPiqU'
p4266
sg8
S'I Don\xe2\x80\x99t Know Why'
p4267
ssS'5Db9VIdDsN5yu3Eu7CT0i4'
p4268
(dp4269
g3
S'Sam Smith'
p4270
sg5
I9
sg6
S'https://open.spotify.com/track/5Db9VIdDsN5yu3Eu7CT0i4'
p4271
sg8
S'Stay With Me'
p4272
ssS'7nY0TjOsD1BZehkZgLiOxO'
p4273
(dp4274
g3
S'Katy Perry'
p4275
sg5
I2
sg6
S'https://open.spotify.com/track/7nY0TjOsD1BZehkZgLiOxO'
p4276
sg8
S'Hey Hey Hey'
p4277
ssS'11KJSRSgaDxqydKYiD2Jew'
p4278
(dp4279
g3
S'Drake'
p4280
sg5
I18
sg6
S'https://open.spotify.com/track/11KJSRSgaDxqydKYiD2Jew'
p4281
sg8
S'Too Good'
p4282
ssS'7pYFPMeK0TnaTGdS6qOtEr'
p4283
(dp4284
g3
S'Stargate'
p4285
sg5
I2
sg6
S'https://open.spotify.com/track/7pYFPMeK0TnaTGdS6qOtEr'
p4286
sg8
S'Waterfall'
p4287
ssS'1yNyoWWWikbLhwIGWjZuDW'
p4288
(dp4289
g3
S'The Vamps'
p4290
sg5
I27
sg6
S'https://open.spotify.com/track/1yNyoWWWikbLhwIGWjZuDW'
p4291
sg8
S'All Night'
p4292
ssS'5xMzazov0IHYllrc8U2K6F'
p4293
(dp4294
g3
S'Jennifer Lopez'
p4295
sg5
I5
sg6
S'https://open.spotify.com/track/5xMzazov0IHYllrc8U2K6F'
p4296
sg8
S'Ni T\xc3\xba Ni Yo'
p4297
ssS'3Dwq1oiOFys6Sxr5SslmXw'
p4298
(dp4299
g3
S'Harry Styles'
p4300
sg5
I2
sg6
S'https://open.spotify.com/track/3Dwq1oiOFys6Sxr5SslmXw'
p4301
sg8
S'Carolina'
p4302
ssS'4vb4mFvYsr2h6enhjJsq9Y'
p4303
(dp4304
g3
S'Adele'
p4305
sg5
I19
sg6
S'https://open.spotify.com/track/4vb4mFvYsr2h6enhjJsq9Y'
p4306
sg8
S'Water Under the Bridge'
p4307
ssS'6cPyTS0Kk2sc4xQwC93kOg'
p4308
(dp4309
g3
S'The Chainsmokers'
p4310
sg5
I8
sg6
S'https://open.spotify.com/track/6cPyTS0Kk2sc4xQwC93kOg'
p4311
sg8
S'Break Up Every Night'
p4312
ssS'2kVHAQKVtczchKctctzbtK'
p4313
(dp4314
g3
S'Katy Perry'
p4315
sg5
I19
sg6
S'https://open.spotify.com/track/2kVHAQKVtczchKctctzbtK'
p4316
sg8
S'Swish Swish'
p4317
ssS'17Fd6Yb7mSbinKG8LoWfFl'
p4318
(dp4319
g3
S'Mike Posner'
p4320
sg5
I33
sg6
S'https://open.spotify.com/track/17Fd6Yb7mSbinKG8LoWfFl'
p4321
sg8
S'I Took A Pill In Ibiza - Seeb Remix'
p4322
ssS'7JYsArznYOjX2jsrT3UEnL'
p4323
(dp4324
g3
S'Young M.A'
p4325
sg5
I3
sg6
S'https://open.spotify.com/track/7JYsArznYOjX2jsrT3UEnL'
p4326
sg8
S'OOOUUU'
p4327
ssS'4tCtwWceOPWzenK2HAIJSb'
p4328
(dp4329
g3
S'Fifth Harmony'
p4330
sg5
I40
sg6
S'https://open.spotify.com/track/4tCtwWceOPWzenK2HAIJSb'
p4331
sg8
S'Work from Home'
p4332
ssS'6VZwnDUMkAZs36g6v9MVQX'
p4333
(dp4334
g3
S'Lana Del Rey'
p4335
sg5
I1
sg6
S'https://open.spotify.com/track/6VZwnDUMkAZs36g6v9MVQX'
p4336
sg8
S'Tomorrow Never Came (feat. Sean Ono Lennon)'
p4337
ssS'7iz4bsfPOrK9wzhXkgUfya'
p4338
(dp4339
g3
S'Katy Perry'
p4340
sg5
I1
sg6
S'https://open.spotify.com/track/7iz4bsfPOrK9wzhXkgUfya'
p4341
sg8
S'Witness'
p4342
ssS'5nq1uTNIR1cBR72T87viS0'
p4343
(dp4344
g3
S'BTS'
p4345
sg5
I2
sg6
S'https://open.spotify.com/track/5nq1uTNIR1cBR72T87viS0'
p4346
sg8
S'Go Go'
p4347
ssS'7mldq42yDuxiUNn08nvzHO'
p4348
(dp4349
g3
S'Sam Hunt'
p4350
sg5
I26
sg6
S'https://open.spotify.com/track/7mldq42yDuxiUNn08nvzHO'
p4351
sg8
S'Body Like A Back Road'
p4352
ssS'3hB5DgAiMAQ4DzYbsMq1IT'
p4353
(dp4354
g3
S'Justin Bieber'
p4355
sg5
I26
sg6
S'https://open.spotify.com/track/3hB5DgAiMAQ4DzYbsMq1IT'
p4356
sg8
S'Love Yourself'
p4357
ssS'1foCxQtxBweJtZmdxhEHVO'
p4358
(dp4359
g3
S'Eartha Kitt'
p4360
sg5
I1
sg6
S'https://open.spotify.com/track/1foCxQtxBweJtZmdxhEHVO'
p4361
sg8
S'Santa Baby'
p4362
ssS'32OWobmyAz8J2qA8iWekyS'
p4363
(dp4364
g3
S'Justin Bieber'
p4365
sg5
I1
sg6
S'https://open.spotify.com/track/32OWobmyAz8J2qA8iWekyS'
p4366
sg8
S'Mistletoe'
p4367
ssS'6XOYVSmNDjKUNMXooU4s4z'
p4368
(dp4369
g3
S'OneRepublic'
p4370
sg5
I24
sg6
S'https://open.spotify.com/track/6XOYVSmNDjKUNMXooU4s4z'
p4371
sg8
S'No Vacancy'
p4372
ssS'204U3zjm9kkzX25Pr4Rdld'
p4373
(dp4374
g3
S'Migos'
p4375
sg5
I2
sg6
S'https://open.spotify.com/track/204U3zjm9kkzX25Pr4Rdld'
p4376
sg8
S'Kelly Price (feat. Travis Scott)'
p4377
ssS'0NZUqq4iLQddokgtiC44Kb'
p4378
(dp4379
g3
S'Future'
p4380
sg5
I1
sg6
S'https://open.spotify.com/track/0NZUqq4iLQddokgtiC44Kb'
p4381
sg8
S'PIE'
p4382
ssS'1839RWzPRZCVgvamu4sHSN'
p4383
(dp4384
g3
S'Cash Cash'
p4385
sg5
I10
sg6
S'https://open.spotify.com/track/1839RWzPRZCVgvamu4sHSN'
p4386
sg8
S'All My Love (feat. Conor Maynard)'
p4387
ssS'3bidbhpOYeV4knp8AIu8Xn'
p4388
(dp4389
g3
S'Macklemore & Ryan Lewis'
p4390
sg5
I2
sg6
S'https://open.spotify.com/track/3bidbhpOYeV4knp8AIu8Xn'
p4391
sg8
S"Can't Hold Us - feat. Ray Dalton"
p4392
ssS'3NJG6vMH1ZsectZkocMEm0'
p4393
(dp4394
g3
S'Desiigner'
p4395
sg5
I19
sg6
S'https://open.spotify.com/track/3NJG6vMH1ZsectZkocMEm0'
p4396
sg8
S'Tiimmy Turner'
p4397
ssS'6PGoSes0D9eUDeeAafB2As'
p4398
(dp4399
g3
S'Kendrick Lamar'
p4400
sg5
I13
sg6
S'https://open.spotify.com/track/6PGoSes0D9eUDeeAafB2As'
p4401
sg8
S'LOVE. FEAT. ZACARI.'
p4402
ssS'1lItf5ZXJc1by9SbPeljFd'
p4403
(dp4404
g3
S'Zay Hilfigerrr'
p4405
sg5
I6
sg6
S'https://open.spotify.com/track/1lItf5ZXJc1by9SbPeljFd'
p4406
sg8
S'Juju On That Beat (TZ Anthem)'
p4407
ssS'0QPo7oW4yxTzUjrXJmCZIy'
p4408
(dp4409
g3
S'The Killers'
p4410
sg5
I2
sg6
S'https://open.spotify.com/track/0QPo7oW4yxTzUjrXJmCZIy'
p4411
sg8
S'The Man'
p4412
ss.