(dp0
S'0mel2N9Ws9r4yLQn5QE21Y'
p1
(dp2
S'artistName'
p3
S'Sam Smith'
p4
sS'weeksOnChart'
p5
I5
sS'track_href'
p6
S'https://open.spotify.com/track/0mel2N9Ws9r4yLQn5QE21Y'
p7
sS'songName'
p8
S'Too Good At Goodbyes'
p9
ssS'1pJQAHpD51J7GYaFrrFO9S'
p10
(dp11
g3
S'The Chainsmokers'
p12
sg5
I1
sg6
S'https://open.spotify.com/track/1pJQAHpD51J7GYaFrrFO9S'
p13
sg8
S"Don't Say"
p14
ssS'0jdny0dhgjUwoIp5GkqEaA'
p15
(dp16
g3
S'Kesha'
p17
sg5
I2
sg6
S'https://open.spotify.com/track/0jdny0dhgjUwoIp5GkqEaA'
p18
sg8
S'Praying'
p19
ssS'60a0Rd6pjrkxjPbaKzXjfq'
p20
(dp21
g3
S'Linkin Park'
p22
sg5
I3
sg6
S'https://open.spotify.com/track/60a0Rd6pjrkxjPbaKzXjfq'
p23
sg8
S'In The End'
p24
ssS'0prNGof3XqfTvNDxHonvdK'
p25
(dp26
g3
S'Alessia Cara'
p27
sg5
I16
sg6
S'https://open.spotify.com/track/0prNGof3XqfTvNDxHonvdK'
p28
sg8
S'Scars To Your Beautiful'
p29
ssS'6HUnnBwYZqcED1eQztxMBN'
p30
(dp31
g3
S'Martin Jensen'
p32
sg5
I24
sg6
S'https://open.spotify.com/track/6HUnnBwYZqcED1eQztxMBN'
p33
sg8
S'Solo Dance'
p34
ssS'6hmhG1b4LEyNuashVvuIAo'
p35
(dp36
g3
S'Zara Larsson'
p37
sg5
I1
sg6
S'https://open.spotify.com/track/6hmhG1b4LEyNuashVvuIAo'
p38
sg8
S'Never Forget You'
p39
ssS'11bD1JtSjlIgKgZG2134DZ'
p40
(dp41
g3
S'Snow Patrol'
p42
sg5
I10
sg6
S'https://open.spotify.com/track/11bD1JtSjlIgKgZG2134DZ'
p43
sg8
S'Chasing Cars'
p44
ssS'0F1Rc18rZcJOALxIIQPTYd'
p45
(dp46
g3
S'Maty Noyes'
p47
sg5
I1
sg6
S'https://open.spotify.com/track/0F1Rc18rZcJOALxIIQPTYd'
p48
sg8
S'in my miNd'
p49
ssS'3QWjljChcOMkRDYSzF33Qr'
p50
(dp51
g3
S'Kiiara'
p52
sg5
I9
sg6
S'https://open.spotify.com/track/3QWjljChcOMkRDYSzF33Qr'
p53
sg8
S'Whippin (feat. Felix Snow)'
p54
ssS'1NDxZ7cFAo481dtYWdrUnR'
p55
(dp56
g3
S'Maggie Lindemann'
p57
sg5
I28
sg6
S'https://open.spotify.com/track/1NDxZ7cFAo481dtYWdrUnR'
p58
sg8
S'Pretty Girl - Cheat Codes X CADE Remix'
p59
ssS'0lLdorYw7lVrJydTINhWdI'
p60
(dp61
g3
S'Michael Bubl\xc3\xa9'
p62
sg5
I1
sg6
S'https://open.spotify.com/track/0lLdorYw7lVrJydTINhWdI'
p63
sg8
S"It's Beginning To Look A Lot Like Christmas"
p64
ssS'1OAh8uOEOvTDqkKFsKksCi'
p65
(dp66
g3
S'DJ Khaled'
p67
sg5
I17
sg6
S'https://open.spotify.com/track/1OAh8uOEOvTDqkKFsKksCi'
p68
sg8
S'Wild Thoughts'
p69
ssS'2aksifNn5ph8igDOkPBA02'
p70
(dp71
g3
S'Rihanna'
p72
sg5
I4
sg6
S'https://open.spotify.com/track/2aksifNn5ph8igDOkPBA02'
p73
sg8
S'Love On The Brain'
p74
ssS'5o4yGlG0PfeVUa6ClIyOxq'
p75
(dp76
g3
S'Charli XCX'
p77
sg5
I8
sg6
S'https://open.spotify.com/track/5o4yGlG0PfeVUa6ClIyOxq'
p78
sg8
S'Boys'
p79
ssS'4b4KcovePX8Ke2cLIQTLM0'
p80
(dp81
g3
S'The Vamps'
p82
sg5
I12
sg6
S'https://open.spotify.com/track/4b4KcovePX8Ke2cLIQTLM0'
p83
sg8
S'All Night'
p84
ssS'7wGoVu4Dady5GV0Sv4UIsx'
p85
(dp86
g3
S'Post Malone'
p87
sg5
I1
sg6
S'https://open.spotify.com/track/7wGoVu4Dady5GV0Sv4UIsx'
p88
sg8
S'rockstar'
p89
ssS'7LJjWqhqK594nN7qJzLVXE'
p90
(dp91
g3
S'BLACKPINK'
p92
sg5
I10
sg6
S'https://open.spotify.com/track/7LJjWqhqK594nN7qJzLVXE'
p93
sg8
S"As If It's Your Last"
p94
ssS'60LTEqwQF7J0mO093FPRdc'
p95
(dp96
g3
S'Kiana Valenciano'
p97
sg5
I2
sg6
S'https://open.spotify.com/track/60LTEqwQF7J0mO093FPRdc'
p98
sg8
S'Does She Know'
p99
ssS'1CnPYaKxTVb4LWOtiGOm0m'
p100
(dp101
g3
S'Jon Bellion'
p102
sg5
I20
sg6
S'https://open.spotify.com/track/1CnPYaKxTVb4LWOtiGOm0m'
p103
sg8
S'All Time Low'
p104
ssS'4OZEu0Vwq0RB2LAq14v99n'
p105
(dp106
g3
S'DJ Snake'
p107
sg5
I35
sg6
S'https://open.spotify.com/track/4OZEu0Vwq0RB2LAq14v99n'
p108
sg8
S'Middle'
p109
ssS'4ioNqWWd8Ivz4bLfrn3bBN'
p110
(dp111
g3
S'Craig David'
p112
sg5
I3
sg6
S'https://open.spotify.com/track/4ioNqWWd8Ivz4bLfrn3bBN'
p113
sg8
S'Heartline'
p114
ssS'6Pw3Gvw4wNMZfTYZa6IQal'
p115
(dp116
g3
S'Bebe Rexha'
p117
sg5
I21
sg6
S'https://open.spotify.com/track/6Pw3Gvw4wNMZfTYZa6IQal'
p118
sg8
S'The Way I Are (Dance With Somebody) [feat. Lil Wayne]'
p119
ssS'2RJfK2pOvGpnxC255YOy5k'
p120
(dp121
g3
S'Paramore'
p122
sg5
I1
sg6
S'https://open.spotify.com/track/2RJfK2pOvGpnxC255YOy5k'
p123
sg8
S'Rose-Colored Boy'
p124
ssS'6VCrPY3rpckaEU8KXBITVJ'
p125
(dp126
g3
S'The Juans'
p127
sg5
I8
sg6
S'https://open.spotify.com/track/6VCrPY3rpckaEU8KXBITVJ'
p128
sg8
S'Balisong (Theme Song of the Movie 100 Tula Para Kay Stella)'
p129
ssS'2FRnf9qhLbvw8fu4IBXx78'
p130
(dp131
g3
S'Wham!'
p132
sg5
I1
sg6
S'https://open.spotify.com/track/2FRnf9qhLbvw8fu4IBXx78'
p133
sg8
S'Last Christmas'
p134
ssS'7tr2za8SQg2CI8EDgrdtNl'
p135
(dp136
g3
S'Calvin Harris'
p137
sg5
I25
sg6
S'https://open.spotify.com/track/7tr2za8SQg2CI8EDgrdtNl'
p138
sg8
S'Slide'
p139
ssS'4xBjsLUSjcx2h7PcRikpQp'
p140
(dp141
g3
S'Camila Cabello'
p142
sg5
I8
sg6
S'https://open.spotify.com/track/4xBjsLUSjcx2h7PcRikpQp'
p143
sg8
S'OMG'
p144
ssS'7L605WhF5EGf34ggj87yK6'
p145
(dp146
g3
S'Lifehouse'
p147
sg5
I41
sg6
S'https://open.spotify.com/track/7L605WhF5EGf34ggj87yK6'
p148
sg8
S'You And Me'
p149
ssS'4pLwZjInHj3SimIyN9SnOz'
p150
(dp151
g3
S'Ariana Grande'
p152
sg5
I34
sg6
S'https://open.spotify.com/track/4pLwZjInHj3SimIyN9SnOz'
p153
sg8
S'Side To Side'
p154
ssS'3E2Zh20GDCR9B1EYjfXWyv'
p155
(dp156
g3
S'AJR'
p157
sg5
I22
sg6
S'https://open.spotify.com/track/3E2Zh20GDCR9B1EYjfXWyv'
p158
sg8
S'Weak'
p159
ssS'2Gl0FzuLxflY6nPifJp5Dr'
p160
(dp161
g3
S'Kygo'
p162
sg5
I16
sg6
S'https://open.spotify.com/track/2Gl0FzuLxflY6nPifJp5Dr'
p163
sg8
S'First Time'
p164
ssS'4BHzQ9C00ceJxfG16AlNWb'
p165
(dp166
g3
S'Adele'
p167
sg5
I20
sg6
S'https://open.spotify.com/track/4BHzQ9C00ceJxfG16AlNWb'
p168
sg8
S'Send My Love (To Your New Lover)'
p169
ssS'4Km5HrUvYTaSUfiSGPJeQR'
p170
(dp171
g3
S'Migos'
p172
sg5
I15
sg6
S'https://open.spotify.com/track/4Km5HrUvYTaSUfiSGPJeQR'
p173
sg8
S'Bad and Boujee (feat. Lil Uzi Vert)'
p174
ssS'50PWlIBU7PlGGwzgN8TiFJ'
p175
(dp176
g3
S'Lady Gaga'
p177
sg5
I7
sg6
S'https://open.spotify.com/track/50PWlIBU7PlGGwzgN8TiFJ'
p178
sg8
S'Million Reasons'
p179
ssS'2RttW7RAu5nOAfq6YFvApB'
p180
(dp181
g3
S'Ed Sheeran'
p182
sg5
I32
sg6
S'https://open.spotify.com/track/2RttW7RAu5nOAfq6YFvApB'
p183
sg8
S'Happier'
p184
ssS'4A4A6dwl5DqdqrZaEtKGPR'
p185
(dp186
g3
S'Taylor Swift'
p187
sg5
I1
sg6
S'https://open.spotify.com/track/4A4A6dwl5DqdqrZaEtKGPR'
p188
sg8
S'Wildest Dreams'
p189
ssS'1cOyWWUr3oXJIxY0AjJEx9'
p190
(dp191
g3
S'Troye Sivan'
p192
sg5
I42
sg6
S'https://open.spotify.com/track/1cOyWWUr3oXJIxY0AjJEx9'
p193
sg8
S'YOUTH'
p194
ssS'3EmmCZoqpWOTY1g2GBwJoR'
p195
(dp196
g3
S'Steve Aoki'
p197
sg5
I23
sg6
S'https://open.spotify.com/track/3EmmCZoqpWOTY1g2GBwJoR'
p198
sg8
S'Just Hold On'
p199
ssS'2Ce5IyMlVRVvN997ZJjJJA'
p200
(dp201
g3
S'Future'
p202
sg5
I14
sg6
S'https://open.spotify.com/track/2Ce5IyMlVRVvN997ZJjJJA'
p203
sg8
S'Selfish'
p204
ssS'2qqte0XT0eFFVLuNP7Qena'
p205
(dp206
g3
S'Piolo Pascual'
p207
sg5
I42
sg6
S'https://open.spotify.com/track/2qqte0XT0eFFVLuNP7Qena'
p208
sg8
S'Paano Ba Ang Magmahal'
p209
ssS'3eFJqPe8VUYrABbFjSauuj'
p210
(dp211
g3
S''
p212
sg5
I1
sg6
S'https://open.spotify.com/track/3eFJqPe8VUYrABbFjSauuj'
p213
sg8
g212
ssS'0TQwHViH6PeO7zUxH6EAT3'
p214
(dp215
g3
S'LANY'
p216
sg5
I1
sg6
S'https://open.spotify.com/track/0TQwHViH6PeO7zUxH6EAT3'
p217
sg8
S'Hericane'
p218
ssS'61sQYdFNS6sEBYCyr1q5gn'
p219
(dp220
g3
S'Boyz II Men'
p221
sg5
I3
sg6
S'https://open.spotify.com/track/61sQYdFNS6sEBYCyr1q5gn'
p222
sg8
S"I'll Make Love To You"
p223
ssS'7KlTFTpy7dXLzr2NtLkvG6'
p224
(dp225
g3
S'BTS'
p226
sg5
I2
sg6
S'https://open.spotify.com/track/7KlTFTpy7dXLzr2NtLkvG6'
p227
sg8
S'Not Today'
p228
ssS'5eqK0tbzUPo2SoeZsov04s'
p229
(dp230
g3
S'21 Savage'
p231
sg5
I7
sg6
S'https://open.spotify.com/track/5eqK0tbzUPo2SoeZsov04s'
p232
sg8
S'Bank Account'
p233
ssS'5dNfHmqgr128gMY2tc5CeJ'
p234
(dp235
g3
S'R. Kelly'
p236
sg5
I4
sg6
S'https://open.spotify.com/track/5dNfHmqgr128gMY2tc5CeJ'
p237
sg8
S'Ignition - Remix'
p238
ssS'4xlrALxuaCf9yZBHJeTSG6'
p239
(dp240
g3
S'Jonas Blue'
p241
sg5
I9
sg6
S'https://open.spotify.com/track/4xlrALxuaCf9yZBHJeTSG6'
p242
sg8
S'Mama'
p243
ssS'4izg6Hydc6XGErWW6nbdsV'
p244
(dp245
g3
S'Imagine Dragons'
p246
sg5
I1
sg6
S'https://open.spotify.com/track/4izg6Hydc6XGErWW6nbdsV'
p247
sg8
S'Whatever It Takes'
p248
ssS'23khhseCLQqVMCIT1WMAns'
p249
(dp250
g3
S'Coldplay'
p251
sg5
I1
sg6
S'https://open.spotify.com/track/23khhseCLQqVMCIT1WMAns'
p252
sg8
S'Magic'
p253
ssS'14pj36HKHd6c72njvGVPWU'
p254
(dp255
g3
S'Jericho Rosales'
p256
sg5
I42
sg6
S'https://open.spotify.com/track/14pj36HKHd6c72njvGVPWU'
p257
sg8
S'Pusong Ligaw'
p258
ssS'3pzjHKrQSvXGHQ98dx18HI'
p259
(dp260
g3
S'Justin Bieber'
p261
sg5
I2
sg6
S'https://open.spotify.com/track/3pzjHKrQSvXGHQ98dx18HI'
p262
sg8
S'What Do You Mean?'
p263
ssS'000xQL6tZNLJzIrtIgxqSl'
p264
(dp265
g3
S'ZAYN'
p266
sg5
I10
sg6
S'https://open.spotify.com/track/000xQL6tZNLJzIrtIgxqSl'
p267
sg8
S'Still Got Time'
p268
ssS'52okn5MNA47tk87PeZJLEL'
p269
(dp270
g3
S'NF'
p271
sg5
I1
sg6
S'https://open.spotify.com/track/52okn5MNA47tk87PeZJLEL'
p272
sg8
S'Let You Down'
p273
ssS'1D3ODoXHBLpdxolZRHWV1j'
p274
(dp275
g3
S'Jonas Blue'
p276
sg5
I34
sg6
S'https://open.spotify.com/track/1D3ODoXHBLpdxolZRHWV1j'
p277
sg8
S'By Your Side'
p278
ssS'1CKd1PnqfYx0H12V9MSaIY'
p279
(dp280
g3
S'Zedd'
p281
sg5
I9
sg6
S'https://open.spotify.com/track/1CKd1PnqfYx0H12V9MSaIY'
p282
sg8
S'Get Low (with Liam Payne)'
p283
ssS'042x9bsUBWW2fJgJ6fUh61'
p284
(dp285
g3
S'DVBBS'
p286
sg5
I13
sg6
S'https://open.spotify.com/track/042x9bsUBWW2fJgJ6fUh61'
p287
sg8
S'Not Going Home'
p288
ssS'22l6ZMCgWB1wfd1GOBe3wm'
p289
(dp290
g3
S'Yeng Constantino'
p291
sg5
I36
sg6
S'https://open.spotify.com/track/22l6ZMCgWB1wfd1GOBe3wm'
p292
sg8
S'Ikaw'
p293
ssS'5CtI0qwDJkDQGwXD1H1cLb'
p294
(dp295
g3
S'Luis Fonsi'
p296
sg5
I25
sg6
S'https://open.spotify.com/track/5CtI0qwDJkDQGwXD1H1cLb'
p297
sg8
S'Despacito - Remix'
p298
ssS'4OjORl39ULsmkJHOPbOOPJ'
p299
(dp300
g3
S'Jona'
p301
sg5
I31
sg6
S'https://open.spotify.com/track/4OjORl39ULsmkJHOPbOOPJ'
p302
sg8
S'You'
p303
ssS'0Nhu3zSYbEz32IYiobV75e'
p304
(dp305
g3
S'Halsey'
p306
sg5
I10
sg6
S'https://open.spotify.com/track/0Nhu3zSYbEz32IYiobV75e'
p307
sg8
S'Now Or Never'
p308
ssS'3DrjZArsPsoqbLzUZZV1Id'
p309
(dp310
g3
S'Taylor Swift'
p311
sg5
I1
sg6
S'https://open.spotify.com/track/3DrjZArsPsoqbLzUZZV1Id'
p312
sg8
S'Back To December'
p313
ssS'2PcbtMoqOlGSzOfyJlkB06'
p314
(dp315
g3
S'Juris'
p316
sg5
I42
sg6
S'https://open.spotify.com/track/2PcbtMoqOlGSzOfyJlkB06'
p317
sg8
S'Your Love - Dolce Amore Teleserye Theme'
p318
ssS'1a5Yu5L18qNxVhXx38njON'
p319
(dp320
g3
S'Alok'
p321
sg5
I11
sg6
S'https://open.spotify.com/track/1a5Yu5L18qNxVhXx38njON'
p322
sg8
S'Hear Me Now'
p323
ssS'1Eck97uRMlprKOOJN9oO1E'
p324
(dp325
g3
S'G-Eazy'
p326
sg5
I29
sg6
S'https://open.spotify.com/track/1Eck97uRMlprKOOJN9oO1E'
p327
sg8
S'Good Life (with G-Eazy & Kehlani)'
p328
ssS'2ekn2ttSfGqwhhate0LSR0'
p329
(dp330
g3
S'Dua Lipa'
p331
sg5
I13
sg6
S'https://open.spotify.com/track/2ekn2ttSfGqwhhate0LSR0'
p332
sg8
S'New Rules'
p333
ssS'1JhRlvSiWkOk8tlUj43ahm'
p334
(dp335
g3
S'Silent Sanctuary'
p336
sg5
I2
sg6
S'https://open.spotify.com/track/1JhRlvSiWkOk8tlUj43ahm'
p337
sg8
S'Malayo Na Tayo'
p338
ssS'1sCxVKWImDZSZKvG0U9B23'
p339
(dp340
g3
S'Selena Gomez'
p341
sg5
I16
sg6
S'https://open.spotify.com/track/1sCxVKWImDZSZKvG0U9B23'
p342
sg8
S'Bad Liar'
p343
ssS'6jmngk8Fwup05JZ6kgXEGX'
p344
(dp345
g3
S'Imagine Dragons'
p346
sg5
I1
sg6
S'https://open.spotify.com/track/6jmngk8Fwup05JZ6kgXEGX'
p347
sg8
S'Walking The Wire'
p348
ssS'2uSLx5uwRIhiA3sJJraNqX'
p349
(dp350
g3
S'Maroon 5'
p351
sg5
I1
sg6
S'https://open.spotify.com/track/2uSLx5uwRIhiA3sJJraNqX'
p352
sg8
S'Help Me Out (with Julia Michaels)'
p353
ssS'3nQtkvFMNkRwxjKVAlGPcG'
p354
(dp355
g3
S'Moonstar88'
p356
sg5
I11
sg6
S'https://open.spotify.com/track/3nQtkvFMNkRwxjKVAlGPcG'
p357
sg8
S'Torete'
p358
ssS'1vrd6UOGamcKNGnSHJQlSt'
p359
(dp360
g3
S'Taylor Swift'
p361
sg5
I2
sg6
S'https://open.spotify.com/track/1vrd6UOGamcKNGnSHJQlSt'
p362
sg8
S'Love Story'
p363
ssS'3TRFq09DUgYj1mug6RRqJW'
p364
(dp365
g3
S'Luke Christopher'
p366
sg5
I23
sg6
S'https://open.spotify.com/track/3TRFq09DUgYj1mug6RRqJW'
p367
sg8
S'Lot to Learn'
p368
ssS'1KeZgPUr54C8iz3FjqzVoz'
p369
(dp370
g3
S'The Chainsmokers'
p371
sg5
I1
sg6
S'https://open.spotify.com/track/1KeZgPUr54C8iz3FjqzVoz'
p372
sg8
S'Young'
p373
ssS'6O6M7pJLABmfBRoGZMu76Y'
p374
(dp375
g3
S'The Chainsmokers'
p376
sg5
I28
sg6
S'https://open.spotify.com/track/6O6M7pJLABmfBRoGZMu76Y'
p377
sg8
S'Roses'
p378
ssS'1rIKgCH4H52lrvDcz50hS8'
p379
(dp380
g3
S'Zara Larsson'
p381
sg5
I5
sg6
S'https://open.spotify.com/track/1rIKgCH4H52lrvDcz50hS8'
p382
sg8
S'Lush Life'
p383
ssS'7vGuf3Y35N4wmASOKLUVVU'
p384
(dp385
g3
S'Marshmello'
p386
sg5
I9
sg6
S'https://open.spotify.com/track/7vGuf3Y35N4wmASOKLUVVU'
p387
sg8
S'Silence'
p388
ssS'7pstxLUhvsJC3M4TxHe2aI'
p389
(dp390
g3
S'Ti\xc3\xabsto'
p391
sg5
I1
sg6
S'https://open.spotify.com/track/7pstxLUhvsJC3M4TxHe2aI'
p392
sg8
S'Carry You Home'
p393
ssS'7129iqBafaphfc3WPCGC0L'
p394
(dp395
g3
S'Lukas Graham'
p396
sg5
I24
sg6
S'https://open.spotify.com/track/7129iqBafaphfc3WPCGC0L'
p397
sg8
S'7 Years'
p398
ssS'57p8CBvPOxrvyCbn6ttl5r'
p399
(dp400
g3
S'Skrillex'
p401
sg5
I8
sg6
S'https://open.spotify.com/track/57p8CBvPOxrvyCbn6ttl5r'
p402
sg8
S'Would You Ever'
p403
ssS'2kMKmb60xVUIWW2Out8ypz'
p404
(dp405
g3
S'LANY'
p406
sg5
I5
sg6
S'https://open.spotify.com/track/2kMKmb60xVUIWW2Out8ypz'
p407
sg8
S'Good Girls'
p408
ssS'0CcQNd8CINkwQfe1RDtGV6'
p409
(dp410
g3
S'Imagine Dragons'
p411
sg5
I26
sg6
S'https://open.spotify.com/track/0CcQNd8CINkwQfe1RDtGV6'
p412
sg8
S'Believer'
p413
ssS'7oolFzHipTMg2nL7shhdz2'
p414
(dp415
g3
S'Ed Sheeran'
p416
sg5
I4
sg6
S'https://open.spotify.com/track/7oolFzHipTMg2nL7shhdz2'
p417
sg8
S'Eraser'
p418
ssS'4Yf5bqU3NK4kNOypcrLYwU'
p419
(dp420
g3
S'Linkin Park'
p421
sg5
I1
sg6
S'https://open.spotify.com/track/4Yf5bqU3NK4kNOypcrLYwU'
p422
sg8
S'Faint'
p423
ssS'2NlmmAjGYrrjAp0MED5rGx'
p424
(dp425
g3
S'Taylor Swift'
p426
sg5
I1
sg6
S'https://open.spotify.com/track/2NlmmAjGYrrjAp0MED5rGx'
p427
sg8
S'Bad Blood'
p428
ssS'4ub59HeXqdYApJtkJqnvXE'
p429
(dp430
g3
S'Erik Santos'
p431
sg5
I21
sg6
S'https://open.spotify.com/track/4ub59HeXqdYApJtkJqnvXE'
p432
sg8
S"I'll Never Go"
p433
ssS'4aUf4lzQ1di5JajZ4a9FuI'
p434
(dp435
g3
S'Moira Dela Torre'
p436
sg5
I6
sg6
S'https://open.spotify.com/track/4aUf4lzQ1di5JajZ4a9FuI'
p437
sg8
S'Torete - From Love You to the Stars And Back'
p438
ssS'5ygDXis42ncn6kYG14lEVG'
p439
(dp440
g3
S'Pinkfong'
p441
sg5
I2
sg6
S'https://open.spotify.com/track/5ygDXis42ncn6kYG14lEVG'
p442
sg8
S'Baby Shark'
p443
ssS'7BKLCZ1jbUBVqRi2FVlTVw'
p444
(dp445
g3
S'The Chainsmokers'
p446
sg5
I42
sg6
S'https://open.spotify.com/track/7BKLCZ1jbUBVqRi2FVlTVw'
p447
sg8
S'Closer'
p448
ssS'6ObpR8ek44tvWefQRcSo8K'
p449
(dp450
g3
S'Bruno Mars'
p451
sg5
I8
sg6
S'https://open.spotify.com/track/6ObpR8ek44tvWefQRcSo8K'
p452
sg8
S'Calling All My Lovelies'
p453
ssS'1WtpRQUvbyZAoEchymInA9'
p454
(dp455
g3
S'Moira Dela Torre'
p456
sg5
I1
sg6
S'https://open.spotify.com/track/1WtpRQUvbyZAoEchymInA9'
p457
sg8
S'Sundo - From The Good Son'
p458
ssS'6wV12xIUb8oFY7lBy4KuQe'
p459
(dp460
g3
S'Aaron Carter'
p461
sg5
I9
sg6
S'https://open.spotify.com/track/6wV12xIUb8oFY7lBy4KuQe'
p462
sg8
S'Sooner Or Later'
p463
ssS'7q8jJ1XZEliBakZSUMFde5'
p464
(dp465
g3
S'Cheat Codes'
p466
sg5
I19
sg6
S'https://open.spotify.com/track/7q8jJ1XZEliBakZSUMFde5'
p467
sg8
S'Stay With You'
p468
ssS'2eMwDehkIC1j68U6FA3Eiq'
p469
(dp470
g3
S'Lil Uzi Vert'
p471
sg5
I15
sg6
S'https://open.spotify.com/track/2eMwDehkIC1j68U6FA3Eiq'
p472
sg8
S'XO TOUR Llif3'
p473
ssS'6875MeXyCW0wLyT72Eetmo'
p474
(dp475
g3
S'Hailee Steinfeld'
p476
sg5
I7
sg6
S'https://open.spotify.com/track/6875MeXyCW0wLyT72Eetmo'
p477
sg8
S'Starving'
p478
ssS'39V6cEoNFwDFRJEOKyj4OR'
p479
(dp480
g3
S'Julie Anne San Jose'
p481
sg5
I42
sg6
S'https://open.spotify.com/track/39V6cEoNFwDFRJEOKyj4OR'
p482
sg8
S'Let Me Be the One'
p483
ssS'7nD9nN3jord9wWcfW3Gkcm'
p484
(dp485
g3
S'Fifth Harmony'
p486
sg5
I1
sg6
S'https://open.spotify.com/track/7nD9nN3jord9wWcfW3Gkcm'
p487
sg8
S'All In My Head (Flex)'
p488
ssS'6mICuAdrwEjh6Y6lroV2Kg'
p489
(dp490
g3
S'Shakira'
p491
sg5
I6
sg6
S'https://open.spotify.com/track/6mICuAdrwEjh6Y6lroV2Kg'
p492
sg8
S'Chantaje'
p493
ssS'5V7mTIcXVU9k2JNu0mE6vy'
p494
(dp495
g3
S'Secondhand Serenade'
p496
sg5
I1
sg6
S'https://open.spotify.com/track/5V7mTIcXVU9k2JNu0mE6vy'
p497
sg8
S'Fall for You (Acoustic)'
p498
ssS'7gHs73wELdeycvS48JfIos'
p499
(dp500
g3
S'Alan Walker'
p501
sg5
I10
sg6
S'https://open.spotify.com/track/7gHs73wELdeycvS48JfIos'
p502
sg8
S'Faded'
p503
ssS'1Zyd6zQnC6XIIzmg3hP7Ot'
p504
(dp505
g3
S'BLACKPINK'
p506
sg5
I2
sg6
S'https://open.spotify.com/track/1Zyd6zQnC6XIIzmg3hP7Ot'
p507
sg8
S"As If It's Your Last"
p508
ssS'3lBRNqXjPp2j3JMTCXDTNO'
p509
(dp510
g3
S'Beyonc\xc3\xa9'
p511
sg5
I3
sg6
S'https://open.spotify.com/track/3lBRNqXjPp2j3JMTCXDTNO'
p512
sg8
S'Best Thing I Never Had'
p513
ssS'00lNx0OcTJrS3MKHcB80HY'
p514
(dp515
g3
S'Jax Jones'
p516
sg5
I6
sg6
S'https://open.spotify.com/track/00lNx0OcTJrS3MKHcB80HY'
p517
sg8
S"You Don't Know Me - Radio Edit"
p518
ssS'2s76aKBWKShlwPC4xTtEEE'
p519
(dp520
g3
S'State of Sound'
p521
sg5
I5
sg6
S'https://open.spotify.com/track/2s76aKBWKShlwPC4xTtEEE'
p522
sg8
S'Wake Up Where You Are'
p523
ssS'2SYa5Lx1uoCvyDIW4oee9b'
p524
(dp525
g3
S'BTS'
p526
sg5
I3
sg6
S'https://open.spotify.com/track/2SYa5Lx1uoCvyDIW4oee9b'
p527
sg8
S'MIC Drop'
p528
ssS'2EGpIoqoqqJLE0MoowpxhS'
p529
(dp530
g3
S'James Reid'
p531
sg5
I7
sg6
S'https://open.spotify.com/track/2EGpIoqoqqJLE0MoowpxhS'
p532
sg8
S'On Top'
p533
ssS'6t2ubAB4iSYOuIpRAOGd4t'
p534
(dp535
g3
S'Flo Rida'
p536
sg5
I13
sg6
S'https://open.spotify.com/track/6t2ubAB4iSYOuIpRAOGd4t'
p537
sg8
S'Cake'
p538
ssS'4nDfc6F2uVcc6wdG7kBzWO'
p539
(dp540
g3
S'Nick Jonas'
p541
sg5
I1
sg6
S'https://open.spotify.com/track/4nDfc6F2uVcc6wdG7kBzWO'
p542
sg8
S'Bom Bidi Bom - From Fifty Shades Darker (Original Motion Picture Soundtrack)'
p543
ssS'0dj1CtyRxZ4bnIT4Q20jNT'
p544
(dp545
g3
S'The Chainsmokers'
p546
sg5
I1
sg6
S'https://open.spotify.com/track/0dj1CtyRxZ4bnIT4Q20jNT'
p547
sg8
S'Wake Up Alone'
p548
ssS'0fg8CqpjdojMyXLNzM2PaJ'
p549
(dp550
g3
S'Major Lazer'
p551
sg5
I15
sg6
S'https://open.spotify.com/track/0fg8CqpjdojMyXLNzM2PaJ'
p552
sg8
S'Run Up (feat. PARTYNEXTDOOR & Nicki Minaj)'
p553
ssS'135ggzbjOogZ75IQ0LQi8r'
p554
(dp555
g3
S'Eraserheads'
p556
sg5
I32
sg6
S'https://open.spotify.com/track/135ggzbjOogZ75IQ0LQi8r'
p557
sg8
S'Ang Huling El Bimbo'
p558
ssS'6Qyc6fS4DsZjB2mRW9DsQs'
p559
(dp560
g3
S'The Goo Goo Dolls'
p561
sg5
I42
sg6
S'https://open.spotify.com/track/6Qyc6fS4DsZjB2mRW9DsQs'
p562
sg8
S'Iris'
p563
ssS'0WOvSEVpUGkNufX0w0M06F'
p564
(dp565
g3
S'LANY'
p566
sg5
I4
sg6
S'https://open.spotify.com/track/0WOvSEVpUGkNufX0w0M06F'
p567
sg8
S'13'
p568
ssS'0pzEVarX9S2ZFYZFhefZhU'
p569
(dp570
g3
S'Nina'
p571
sg5
I2
sg6
S'https://open.spotify.com/track/0pzEVarX9S2ZFYZFhefZhU'
p572
sg8
S'Foolish Heart'
p573
ssS'7GX5flRQZVHRAGd6B4TmDO'
p574
(dp575
g3
S'Lil Uzi Vert'
p576
sg5
I7
sg6
S'https://open.spotify.com/track/7GX5flRQZVHRAGd6B4TmDO'
p577
sg8
S'XO TOUR Llif3'
p578
ssS'3BwR5psKNxcyqWoc80eOuq'
p579
(dp580
g3
S'LANY'
p581
sg5
I4
sg6
S'https://open.spotify.com/track/3BwR5psKNxcyqWoc80eOuq'
p582
sg8
S'ILYSB'
p583
ssS'4F7A0DXBrmUAkp32uenhZt'
p584
(dp585
g3
S'The Weeknd'
p586
sg5
I1
sg6
S'https://open.spotify.com/track/4F7A0DXBrmUAkp32uenhZt'
p587
sg8
S'Party Monster'
p588
ssS'5kRPPEWFJIMox5qIkQkiz5'
p589
(dp590
g3
S'Harry Styles'
p591
sg5
I1
sg6
S'https://open.spotify.com/track/5kRPPEWFJIMox5qIkQkiz5'
p592
sg8
S'Sweet Creature'
p593
ssS'0CokSRCu5hZgPxcZBaEzVE'
p594
(dp595
g3
S'Macklemore'
p596
sg5
I3
sg6
S'https://open.spotify.com/track/0CokSRCu5hZgPxcZBaEzVE'
p597
sg8
S'Glorious (feat. Skylar Grey)'
p598
ssS'4nMlau89VAjmV7agkl7OY3'
p599
(dp600
g3
S'Andy Grammer'
p601
sg5
I42
sg6
S'https://open.spotify.com/track/4nMlau89VAjmV7agkl7OY3'
p602
sg8
S'Fresh Eyes'
p603
ssS'75ZvA4QfFiZvzhj2xkaWAh'
p604
(dp605
g3
S'Post Malone'
p606
sg5
I2
sg6
S'https://open.spotify.com/track/75ZvA4QfFiZvzhj2xkaWAh'
p607
sg8
S'I Fall Apart'
p608
ssS'0DdC92EziGIEN6j7kTCKQX'
p609
(dp610
g3
S'Up Dharma Down'
p611
sg5
I1
sg6
S'https://open.spotify.com/track/0DdC92EziGIEN6j7kTCKQX'
p612
sg8
S'Unti-Unti'
p613
ssS'4kflIGfjdZJW4ot2ioixTB'
p614
(dp615
g3
S'Adele'
p616
sg5
I1
sg6
S'https://open.spotify.com/track/4kflIGfjdZJW4ot2ioixTB'
p617
sg8
S'Someone Like You'
p618
ssS'7sW3f7PqDV7BQ7qqeVBJIA'
p619
(dp620
g3
S'Moonstar88'
p621
sg5
I42
sg6
S'https://open.spotify.com/track/7sW3f7PqDV7BQ7qqeVBJIA'
p622
sg8
S'Migraine'
p623
ssS'7hDc8b7IXETo14hHIHdnhd'
p624
(dp625
g3
S'Drake'
p626
sg5
I18
sg6
S'https://open.spotify.com/track/7hDc8b7IXETo14hHIHdnhd'
p627
sg8
S'Passionfruit'
p628
ssS'3RiPr603aXAoi4GHyXx0uy'
p629
(dp630
g3
S'Coldplay'
p631
sg5
I2
sg6
S'https://open.spotify.com/track/3RiPr603aXAoi4GHyXx0uy'
p632
sg8
S'Hymn For The Weekend'
p633
ssS'2LTlO3NuNVN70lp2ZbVswF'
p634
(dp635
g3
S'Kendrick Lamar'
p636
sg5
I1
sg6
S'https://open.spotify.com/track/2LTlO3NuNVN70lp2ZbVswF'
p637
sg8
S'FEEL.'
p638
ssS'5ULRlgiSPSKTaJN1vU9yso'
p639
(dp640
g3
S'Ed Sheeran'
p641
sg5
I6
sg6
S'https://open.spotify.com/track/5ULRlgiSPSKTaJN1vU9yso'
p642
sg8
S'Shape of You - Acoustic'
p643
ssS'6M21eWbEw74XDdoQsNIinq'
p644
(dp645
g3
S'Moira Dela Torre'
p646
sg5
I42
sg6
S'https://open.spotify.com/track/6M21eWbEw74XDdoQsNIinq'
p647
sg8
S'Malaya (Camp Sawi Original Motion Picture Soundtrack)'
p648
ssS'0XLOf9LhyazPX9Ld8jPiUq'
p649
(dp650
g3
S'Selena Gomez'
p651
sg5
I8
sg6
S'https://open.spotify.com/track/0XLOf9LhyazPX9Ld8jPiUq'
p652
sg8
S'Fetish (feat. Gucci Mane)'
p653
ssS'0kN8xEmgMW9mh7UmDYHlJP'
p654
(dp655
g3
S'Bruno Mars'
p656
sg5
I42
sg6
S'https://open.spotify.com/track/0kN8xEmgMW9mh7UmDYHlJP'
p657
sg8
S'Versace On The Floor'
p658
ssS'1yxgsra98r3qAtxqiGZPiX'
p659
(dp660
g3
S'Travis Scott'
p661
sg5
I8
sg6
S'https://open.spotify.com/track/1yxgsra98r3qAtxqiGZPiX'
p662
sg8
S'Butterfly Effect'
p663
ssS'3xXBsjrbG1xQIm1xv1cKOt'
p664
(dp665
g3
S'Linkin Park'
p666
sg5
I1
sg6
S'https://open.spotify.com/track/3xXBsjrbG1xQIm1xv1cKOt'
p667
sg8
S'One More Light'
p668
ssS'3A7qX2QjDlPnazUsRk5y0M'
p669
(dp670
g3
S'David Guetta'
p671
sg5
I17
sg6
S'https://open.spotify.com/track/3A7qX2QjDlPnazUsRk5y0M'
p672
sg8
S'2U (feat. Justin Bieber)'
p673
ssS'6A8dnC0xkiuWN4BshmTB2I'
p674
(dp675
g3
S'A R I Z O N A'
p676
sg5
I10
sg6
S'https://open.spotify.com/track/6A8dnC0xkiuWN4BshmTB2I'
p677
sg8
S'Oceans Away'
p678
ssS'442j8VxaB60dWf9cBFuX5w'
p679
(dp680
g3
S'Ariana Grande'
p681
sg5
I42
sg6
S'https://open.spotify.com/track/442j8VxaB60dWf9cBFuX5w'
p682
sg8
S'Almost Is Never Enough'
p683
ssS'26h6qDR3KtieqIWgnveqmC'
p684
(dp685
g3
S'Nathan Sykes'
p686
sg5
I9
sg6
S'https://open.spotify.com/track/26h6qDR3KtieqIWgnveqmC'
p687
sg8
S'Over And Over Again'
p688
ssS'2OALaHcDdKkjYEpAr0Qzab'
p689
(dp690
g3
S'Avicii'
p691
sg5
I9
sg6
S'https://open.spotify.com/track/2OALaHcDdKkjYEpAr0Qzab'
p692
sg8
S'Lonely Together (feat. Rita Ora)'
p693
ssS'56lBX2WHqfGuoeZxZvUnVj'
p694
(dp695
g3
S'Imagine Dragons'
p696
sg5
I3
sg6
S'https://open.spotify.com/track/56lBX2WHqfGuoeZxZvUnVj'
p697
sg8
S'Thunder'
p698
ssS'2PkQeKapTNUjwpKLf8aJlq'
p699
(dp700
g3
S'Stephen Speaks'
p701
sg5
I28
sg6
S'https://open.spotify.com/track/2PkQeKapTNUjwpKLf8aJlq'
p702
sg8
S'Out of My League'
p703
ssS'5qmXgeIDa1lXB07pgAVlNM'
p704
(dp705
g3
S'The Pussycat Dolls'
p706
sg5
I42
sg6
S'https://open.spotify.com/track/5qmXgeIDa1lXB07pgAVlNM'
p707
sg8
S'Stickwitu'
p708
ssS'4IWAyPf1KMq7JCyGeCjTeH'
p709
(dp710
g3
S'Imagine Dragons'
p711
sg5
I3
sg6
S'https://open.spotify.com/track/4IWAyPf1KMq7JCyGeCjTeH'
p712
sg8
S'Whatever It Takes'
p713
ssS'1AJQ97yAt6xfeF7nQaE1t8'
p714
(dp715
g3
S'Imagine Dragons'
p716
sg5
I1
sg6
S'https://open.spotify.com/track/1AJQ97yAt6xfeF7nQaE1t8'
p717
sg8
S'Walking The Wire'
p718
ssS'0ZExP2I5Ej92PsnG4G1jVG'
p719
(dp720
g3
S'Julia Michaels'
p721
sg5
I2
sg6
S'https://open.spotify.com/track/0ZExP2I5Ej92PsnG4G1jVG'
p722
sg8
S'Uh Huh'
p723
ssS'3Q3myFA7q4Op95DOpHplaY'
p724
(dp725
g3
S'blackbear'
p726
sg5
I3
sg6
S'https://open.spotify.com/track/3Q3myFA7q4Op95DOpHplaY'
p727
sg8
S'do re mi'
p728
ssS'0zFYa7NIpKhmom8zrZx7Ga'
p729
(dp730
g3
S'Kaye Cal'
p731
sg5
I34
sg6
S'https://open.spotify.com/track/0zFYa7NIpKhmom8zrZx7Ga'
p732
sg8
S"Why Can't It Be"
p733
ssS'3XVBdLihbNbxUwZosxcGuJ'
p734
(dp735
g3
S'Alicia Keys'
p736
sg5
I3
sg6
S'https://open.spotify.com/track/3XVBdLihbNbxUwZosxcGuJ'
p737
sg8
S"If I Ain't Got You"
p738
ssS'2XYb0tB6gqXObZqNsAoMYk'
p739
(dp740
g3
S'Yeng Constantino'
p741
sg5
I11
sg6
S'https://open.spotify.com/track/2XYb0tB6gqXObZqNsAoMYk'
p742
sg8
S'Paasa - T.A.N.G.A.'
p743
ssS'0WCEaydwN65cvwaW8aqptF'
p744
(dp745
g3
S'Olivia Holt'
p746
sg5
I18
sg6
S'https://open.spotify.com/track/0WCEaydwN65cvwaW8aqptF'
p747
sg8
S'History'
p748
ssS'3FiE2d325mIOc4YjkSLVJR'
p749
(dp750
g3
S'Ariana Grande'
p751
sg5
I10
sg6
S'https://open.spotify.com/track/3FiE2d325mIOc4YjkSLVJR'
p752
sg8
S'Everyday'
p753
ssS'1Rt8bwO4rqGvgA1UWM1QXx'
p754
(dp755
g3
S'Leanne & Naara'
p756
sg5
I8
sg6
S'https://open.spotify.com/track/1Rt8bwO4rqGvgA1UWM1QXx'
p757
sg8
S'New York And Back'
p758
ssS'0FuTx2s3YH1ppmtiM6l0zI'
p759
(dp760
g3
S'JP Cooper'
p761
sg5
I21
sg6
S'https://open.spotify.com/track/0FuTx2s3YH1ppmtiM6l0zI'
p762
sg8
S'September Song'
p763
ssS'0Zbbxnx4SGGHoIow4PpISP'
p764
(dp765
g3
S'Kygo'
p766
sg5
I3
sg6
S'https://open.spotify.com/track/0Zbbxnx4SGGHoIow4PpISP'
p767
sg8
S'Stargazing'
p768
ssS'1OmcAT5Y8eg5bUPv9qJT4R'
p769
(dp770
g3
S'Post Malone'
p771
sg5
I3
sg6
S'https://open.spotify.com/track/1OmcAT5Y8eg5bUPv9qJT4R'
p772
sg8
S'rockstar'
p773
ssS'5GFDrUTLGJix84sNhjCG0g'
p774
(dp775
g3
S'Amin\xc3\xa9'
p776
sg5
I23
sg6
S'https://open.spotify.com/track/5GFDrUTLGJix84sNhjCG0g'
p777
sg8
S'Caroline'
p778
ssS'0azC730Exh71aQlOt9Zj3y'
p779
(dp780
g3
S'Calvin Harris'
p781
sg5
I19
sg6
S'https://open.spotify.com/track/0azC730Exh71aQlOt9Zj3y'
p782
sg8
S'This Is What You Came For'
p783
ssS'2jyjhRf6DVbMPU5zxagN2h'
p784
(dp785
g3
S'Passenger'
p786
sg5
I37
sg6
S'https://open.spotify.com/track/2jyjhRf6DVbMPU5zxagN2h'
p787
sg8
S'Let Her Go'
p788
ssS'7i2DJ88J7jQ8K7zqFX2fW8'
p789
(dp790
g3
S'Halsey'
p791
sg5
I7
sg6
S'https://open.spotify.com/track/7i2DJ88J7jQ8K7zqFX2fW8'
p792
sg8
S'Now Or Never'
p793
ssS'4UQouEzxPd6xnS1abOFG7D'
p794
(dp795
g3
S'James Reid'
p796
sg5
I3
sg6
S'https://open.spotify.com/track/4UQouEzxPd6xnS1abOFG7D'
p797
sg8
S'Cool Down'
p798
ssS'7vFv0yFGMJW3qVXbAd9BK9'
p799
(dp800
g3
S'John Mayer'
p801
sg5
I41
sg6
S'https://open.spotify.com/track/7vFv0yFGMJW3qVXbAd9BK9'
p802
sg8
S'Your Body Is a Wonderland'
p803
ssS'4izP2KMwrhAdZEtIyp8Z8w'
p804
(dp805
g3
S'Dawin'
p806
sg5
I29
sg6
S'https://open.spotify.com/track/4izP2KMwrhAdZEtIyp8Z8w'
p807
sg8
S'Jumpshot'
p808
ssS'68EMU2RD1ECNeOeJ5qAXCV'
p809
(dp810
g3
S'Charlie Puth'
p811
sg5
I42
sg6
S'https://open.spotify.com/track/68EMU2RD1ECNeOeJ5qAXCV'
p812
sg8
S"We Don't Talk Anymore (feat. Selena Gomez)"
p813
ssS'3b5Li4QKDVBx1x7fQuu54a'
p814
(dp815
g3
S'Alan Walker'
p816
sg5
I21
sg6
S'https://open.spotify.com/track/3b5Li4QKDVBx1x7fQuu54a'
p817
sg8
S'Tired'
p818
ssS'2dqLk7ezV15LEJEwUmEbXB'
p819
(dp820
g3
S'Marian Hill'
p821
sg5
I2
sg6
S'https://open.spotify.com/track/2dqLk7ezV15LEJEwUmEbXB'
p822
sg8
S'Down'
p823
ssS'54i6YAQkZImwWjmzPrQeqd'
p824
(dp825
g3
S'LANY'
p826
sg5
I4
sg6
S'https://open.spotify.com/track/54i6YAQkZImwWjmzPrQeqd'
p827
sg8
S'pink skies'
p828
ssS'04CttTezSnv71USiiG9mIo'
p829
(dp830
g3
S'Hearts & Colors'
p831
sg5
I10
sg6
S'https://open.spotify.com/track/04CttTezSnv71USiiG9mIo'
p832
sg8
S'Lighthouse - Andrelli Remix'
p833
ssS'6vSwxzO2Qf4BinHSXRwZJe'
p834
(dp835
g3
S'Ed Sheeran'
p836
sg5
I2
sg6
S'https://open.spotify.com/track/6vSwxzO2Qf4BinHSXRwZJe'
p837
sg8
S'Tenerife Sea'
p838
ssS'5XiZK7m9PLppgIzJBpw2x5'
p839
(dp840
g3
S'Martin Jensen'
p841
sg5
I3
sg6
S'https://open.spotify.com/track/5XiZK7m9PLppgIzJBpw2x5'
p842
sg8
S'Wait'
p843
ssS'3DXncPQOG4VBw3QHh3S817'
p844
(dp845
g3
S'DJ Khaled'
p846
sg5
I20
sg6
S'https://open.spotify.com/track/3DXncPQOG4VBw3QHh3S817'
p847
sg8
S"I'm the One"
p848
ssS'4VuS959DSpr82t3qBqCrWG'
p849
(dp850
g3
S'Ed Sheeran'
p851
sg5
I19
sg6
S'https://open.spotify.com/track/4VuS959DSpr82t3qBqCrWG'
p852
sg8
S'Supermarket Flowers'
p853
ssS'0rFOs9paloAvEtzwDX1Kmc'
p854
(dp855
g3
S'Colbie Caillat'
p856
sg5
I39
sg6
S'https://open.spotify.com/track/0rFOs9paloAvEtzwDX1Kmc'
p857
sg8
S'Bubbly'
p858
ssS'7bJwvubZZaoGE1AGEfu8Fi'
p859
(dp860
g3
S'Ariana Grande'
p861
sg5
I1
sg6
S'https://open.spotify.com/track/7bJwvubZZaoGE1AGEfu8Fi'
p862
sg8
S'One Last Time'
p863
ssS'2Za1AlJNvksouPPWbXpR2X'
p864
(dp865
g3
S'Macklemore'
p866
sg5
I3
sg6
S'https://open.spotify.com/track/2Za1AlJNvksouPPWbXpR2X'
p867
sg8
S'Good Old Days (feat. Kesha)'
p868
ssS'0Zx8khUcEfCFK2AEoIhC92'
p869
(dp870
g3
S'Snakehips'
p871
sg5
I16
sg6
S'https://open.spotify.com/track/0Zx8khUcEfCFK2AEoIhC92'
p872
sg8
S"Don't Leave"
p873
ssS'7j4IOedQQtMpSHEvyXZsHI'
p874
(dp875
g3
S'LANY'
p876
sg5
I32
sg6
S'https://open.spotify.com/track/7j4IOedQQtMpSHEvyXZsHI'
p877
sg8
S'ILYSB - STRIPPED'
p878
ssS'61WbtB6ujkpNAsAf5LjF4b'
p879
(dp880
g3
S'Katy Perry'
p881
sg5
I4
sg6
S'https://open.spotify.com/track/61WbtB6ujkpNAsAf5LjF4b'
p882
sg8
S'Bon app\xc3\xa9tit'
p883
ssS'6aDYL0klsShJ1NDScruk2G'
p884
(dp885
g3
S'Callalily'
p886
sg5
I1
sg6
S'https://open.spotify.com/track/6aDYL0klsShJ1NDScruk2G'
p887
sg8
S'Stars'
p888
ssS'0YHUITU3w6ws1v8ehT264g'
p889
(dp890
g3
S'Little Mix'
p891
sg5
I29
sg6
S'https://open.spotify.com/track/0YHUITU3w6ws1v8ehT264g'
p892
sg8
S'Shout Out to My Ex'
p893
ssS'3dJj6o9o1fRgrojWjailuz'
p894
(dp895
g3
S'Linkin Park'
p896
sg5
I1
sg6
S'https://open.spotify.com/track/3dJj6o9o1fRgrojWjailuz'
p897
sg8
S'Nobody Can Save Me'
p898
ssS'6y0BUUOjU4TtqoBwoFwcvU'
p899
(dp900
g3
S'Hale'
p901
sg5
I16
sg6
S'https://open.spotify.com/track/6y0BUUOjU4TtqoBwoFwcvU'
p902
sg8
S'Kung Wala Ka'
p903
ssS'5rwq6R0Uq0BngM3rdmCeNg'
p904
(dp905
g3
S'Howie Day'
p906
sg5
I42
sg6
S'https://open.spotify.com/track/5rwq6R0Uq0BngM3rdmCeNg'
p907
sg8
S'Collide - Acoustic Version'
p908
ssS'2XlHu0HcujBCkWMdIAvrqt'
p909
(dp910
g3
S'Drake'
p911
sg5
I3
sg6
S'https://open.spotify.com/track/2XlHu0HcujBCkWMdIAvrqt'
p912
sg8
S'Blem'
p913
ssS'2QWP8NYYplOqEFBYGCcq0S'
p914
(dp915
g3
S'The Script'
p916
sg5
I6
sg6
S'https://open.spotify.com/track/2QWP8NYYplOqEFBYGCcq0S'
p917
sg8
S'Rain'
p918
ssS'6vtOX9riyVzwJxj2SYTuES'
p919
(dp920
g3
S'Katharine McPhee'
p921
sg5
I42
sg6
S'https://open.spotify.com/track/6vtOX9riyVzwJxj2SYTuES'
p922
sg8
S'Terrified'
p923
ssS'2meEAmZCXr2dud0RRYyfZt'
p924
(dp925
g3
S'Sarah Geronimo'
p926
sg5
I20
sg6
S'https://open.spotify.com/track/2meEAmZCXr2dud0RRYyfZt'
p927
sg8
S'Kaibigan Mo'
p928
ssS'5LYQSNHZxEA880URXFHg6h'
p929
(dp930
g3
S'Lana Del Rey'
p931
sg5
I1
sg6
S'https://open.spotify.com/track/5LYQSNHZxEA880URXFHg6h'
p932
sg8
S'Lust for Life (with The Weeknd)'
p933
ssS'5hYTyyh2odQKphUbMqc5gN'
p934
(dp935
g3
S'Alessia Cara'
p936
sg5
I37
sg6
S'https://open.spotify.com/track/5hYTyyh2odQKphUbMqc5gN'
p937
sg8
S"How Far I'll Go - From Moana"
p938
ssS'1mZuPFi2iOM4fcl3hdwOmt'
p939
(dp940
g3
S'Jona'
p941
sg5
I1
sg6
S'https://open.spotify.com/track/1mZuPFi2iOM4fcl3hdwOmt'
p942
sg8
S"I'll Never Love This Way Again"
p943
ssS'1u8c2t2Cy7UBoG4ArRcF5g'
p944
(dp945
g3
S'Taylor Swift'
p946
sg5
I3
sg6
S'https://open.spotify.com/track/1u8c2t2Cy7UBoG4ArRcF5g'
p947
sg8
S'Blank Space'
p948
ssS'72jbDTw1piOOj770jWNeaG'
p949
(dp950
g3
S'The Chainsmokers'
p951
sg5
I38
sg6
S'https://open.spotify.com/track/72jbDTw1piOOj770jWNeaG'
p952
sg8
S'Paris'
p953
ssS'3OpGUlDmRUXh0NkIYWoIlD'
p954
(dp955
g3
S'Parokya Ni Edgar'
p956
sg5
I5
sg6
S'https://open.spotify.com/track/3OpGUlDmRUXh0NkIYWoIlD'
p957
sg8
S'One and Only'
p958
ssS'11EDhDAVDtGPoSar6ootYA'
p959
(dp960
g3
S'Halsey'
p961
sg5
I1
sg6
S'https://open.spotify.com/track/11EDhDAVDtGPoSar6ootYA'
p962
sg8
S'Strangers'
p963
ssS'6FemVsNUb2lzWsDRm14FUJ'
p964
(dp965
g3
S'The Script'
p966
sg5
I7
sg6
S'https://open.spotify.com/track/6FemVsNUb2lzWsDRm14FUJ'
p967
sg8
S'Rain'
p968
ssS'4r7vGTk9HCW7YDorNWoclF'
p969
(dp970
g3
S'Silent Sanctuary'
p971
sg5
I42
sg6
S'https://open.spotify.com/track/4r7vGTk9HCW7YDorNWoclF'
p972
sg8
S'Meron Nang Iba'
p973
ssS'7q85CemkAv4pfW8wM1p9ev'
p974
(dp975
g3
S'Jake Zyrus'
p976
sg5
I2
sg6
S'https://open.spotify.com/track/7q85CemkAv4pfW8wM1p9ev'
p977
sg8
S'Hiling'
p978
ssS'12o6dxWGk29uIAP3OWY0pM'
p979
(dp980
g3
S'Lorde'
p981
sg5
I5
sg6
S'https://open.spotify.com/track/12o6dxWGk29uIAP3OWY0pM'
p982
sg8
S'Homemade Dynamite'
p983
ssS'7yCm5uEZcQ6uzt9E5Py6IR'
p984
(dp985
g3
S'The Vamps'
p986
sg5
I8
sg6
S'https://open.spotify.com/track/7yCm5uEZcQ6uzt9E5Py6IR'
p987
sg8
S'Middle Of The Night'
p988
ssS'7iV733e1KacKrFRaBNxVEf'
p989
(dp990
g3
S'BTS'
p991
sg5
I3
sg6
S'https://open.spotify.com/track/7iV733e1KacKrFRaBNxVEf'
p992
sg8
S'Intro: Serendipity'
p993
ssS'62WcCjrcvRvRCixFFUPFbl'
p994
(dp995
g3
S'Moira Dela Torre'
p996
sg5
I2
sg6
S'https://open.spotify.com/track/62WcCjrcvRvRCixFFUPFbl'
p997
sg8
S'Love Me Instead'
p998
ssS'77lGafvlU68CeHgB2pkHC9'
p999
(dp1000
g3
S'Machine Gun Kelly'
p1001
sg5
I10
sg6
S'https://open.spotify.com/track/77lGafvlU68CeHgB2pkHC9'
p1002
sg8
S'At My Best (feat. Hailee Steinfeld)'
p1003
ssS'0dA2Mk56wEzDgegdC6R17g'
p1004
(dp1005
g3
S'Zedd'
p1006
sg5
I33
sg6
S'https://open.spotify.com/track/0dA2Mk56wEzDgegdC6R17g'
p1007
sg8
S'Stay (with Alessia Cara)'
p1008
ssS'3kGfazcbVvVkuZunzlLgTD'
p1009
(dp1010
g3
S'Sigala'
p1011
sg5
I4
sg6
S'https://open.spotify.com/track/3kGfazcbVvVkuZunzlLgTD'
p1012
sg8
S'Came Here for Love'
p1013
ssS'2kLf4myxQME1Nd0voeKZri'
p1014
(dp1015
g3
S'Mike Perry'
p1016
sg5
I5
sg6
S'https://open.spotify.com/track/2kLf4myxQME1Nd0voeKZri'
p1017
sg8
S'Stay Young'
p1018
ssS'3Ytr1SUCUi6J3L9dRFx5iH'
p1019
(dp1020
g3
S'Major Lazer'
p1021
sg5
I12
sg6
S'https://open.spotify.com/track/3Ytr1SUCUi6J3L9dRFx5iH'
p1022
sg8
S'Know No Better (feat. Quavo)'
p1023
ssS'1sl5tSzfK1JrcQIcA8rYDy'
p1024
(dp1025
g3
S'Grey'
p1026
sg5
I4
sg6
S'https://open.spotify.com/track/1sl5tSzfK1JrcQIcA8rYDy'
p1027
sg8
S'I Miss You'
p1028
ssS'5ZnJsoJGkQ5K15W7Rcr5JO'
p1029
(dp1030
g3
S'Little Mix'
p1031
sg5
I2
sg6
S'https://open.spotify.com/track/5ZnJsoJGkQ5K15W7Rcr5JO'
p1032
sg8
S'No More Sad Songs (feat. Machine Gun Kelly)'
p1033
ssS'7nZmah2llfvLDiUjm0kiyz'
p1034
(dp1035
g3
S'Justin Bieber'
p1036
sg5
I8
sg6
S'https://open.spotify.com/track/7nZmah2llfvLDiUjm0kiyz'
p1037
sg8
S'Friends (with BloodPop\xc2\xae)'
p1038
ssS'6mzF8HvHdVrzJNd8M1uFCS'
p1039
(dp1040
g3
S'Crush'
p1041
sg5
I15
sg6
S'https://open.spotify.com/track/6mzF8HvHdVrzJNd8M1uFCS'
p1042
sg8
S'Beautiful'
p1043
ssS'7zFXmv6vqI4qOt4yGf3jYZ'
p1044
(dp1045
g3
S'Daniel Caesar'
p1046
sg5
I1
sg6
S'https://open.spotify.com/track/7zFXmv6vqI4qOt4yGf3jYZ'
p1047
sg8
S'Get You (feat. Kali Uchis)'
p1048
ssS'53mrVsi49rLHIaKBiSvElG'
p1049
(dp1050
g3
S'blackbear'
p1051
sg5
I1
sg6
S'https://open.spotify.com/track/53mrVsi49rLHIaKBiSvElG'
p1052
sg8
S'do re mi (feat. Gucci Mane)'
p1053
ssS'2do8RHXBj4CxG3n08KHBWZ'
p1054
(dp1055
g3
S'Janine Te\xc3\xb1oso'
p1056
sg5
I2
sg6
S'https://open.spotify.com/track/2do8RHXBj4CxG3n08KHBWZ'
p1057
sg8
S'241 (From the movie 100 Tula Para Kay Stella)'
p1058
ssS'6bMSUhAmaAGTb5RTTuzWE3'
p1059
(dp1060
g3
S'Gloc 9'
p1061
sg5
I17
sg6
S'https://open.spotify.com/track/6bMSUhAmaAGTb5RTTuzWE3'
p1062
sg8
S'Simpleng Tao'
p1063
ssS'0AZjL7QqObm13VxPA078uz'
p1064
(dp1065
g3
S'Thyro'
p1066
sg5
I15
sg6
S'https://open.spotify.com/track/0AZjL7QqObm13VxPA078uz'
p1067
sg8
S'Tag-ulan (Original Soundtrack of Luck At First Sight)'
p1068
ssS'6uFsE1JgZ20EXyU0JQZbUR'
p1069
(dp1070
g3
S'Taylor Swift'
p1071
sg5
I7
sg6
S'https://open.spotify.com/track/6uFsE1JgZ20EXyU0JQZbUR'
p1072
sg8
S'Look What You Made Me Do'
p1073
ssS'7fwXWKdDNI5IutOMc5OKYw'
p1074
(dp1075
g3
S'J Balvin'
p1076
sg5
I2
sg6
S'https://open.spotify.com/track/7fwXWKdDNI5IutOMc5OKYw'
p1077
sg8
S'Mi Gente (feat. Beyonc\xc3\xa9)'
p1078
ssS'7of1slAJIWrXxP8ikAHxje'
p1079
(dp1080
g3
S'James Hersey'
p1081
sg5
I1
sg6
S'https://open.spotify.com/track/7of1slAJIWrXxP8ikAHxje'
p1082
sg8
S'Miss You'
p1083
ssS'5VaLhE67iBHeuPKbyGS2wk'
p1084
(dp1085
g3
S'Mike Perry'
p1086
sg5
I2
sg6
S'https://open.spotify.com/track/5VaLhE67iBHeuPKbyGS2wk'
p1087
sg8
S'Hands'
p1088
ssS'4T2SmVJPtDdugk5j5xV1d5'
p1089
(dp1090
g3
S'Lifehouse'
p1091
sg5
I1
sg6
S'https://open.spotify.com/track/4T2SmVJPtDdugk5j5xV1d5'
p1092
sg8
S'You And Me'
p1093
ssS'2dfHh7ECGxfNqZTQno09Vk'
p1094
(dp1095
g3
S'Ed Sheeran'
p1096
sg5
I7
sg6
S'https://open.spotify.com/track/2dfHh7ECGxfNqZTQno09Vk'
p1097
sg8
S"Hearts Don't Break Around Here"
p1098
ssS'6lanRgr6wXibZr8KgzXxBl'
p1099
(dp1100
g3
S'Christina Perri'
p1101
sg5
I42
sg6
S'https://open.spotify.com/track/6lanRgr6wXibZr8KgzXxBl'
p1102
sg8
S'A Thousand Years'
p1103
ssS'5tz69p7tJuGPeMGwNTxYuV'
p1104
(dp1105
g3
S'Logic'
p1106
sg5
I22
sg6
S'https://open.spotify.com/track/5tz69p7tJuGPeMGwNTxYuV'
p1107
sg8
S'1-800-273-8255'
p1108
ssS'0ffweDHrg4bZqdG4IfGYuo'
p1109
(dp1110
g3
S'BTS'
p1111
sg5
I2
sg6
S'https://open.spotify.com/track/0ffweDHrg4bZqdG4IfGYuo'
p1112
sg8
S'Pied Piper'
p1113
ssS'343YBumqHu19cGoGARUTsd'
p1114
(dp1115
g3
S'Drake'
p1116
sg5
I26
sg6
S'https://open.spotify.com/track/343YBumqHu19cGoGARUTsd'
p1117
sg8
S'Fake Love'
p1118
ssS'5HDPtsnyb3maFmPL8LLUTG'
p1119
(dp1120
g3
S'Ed Sheeran'
p1121
sg5
I8
sg6
S'https://open.spotify.com/track/5HDPtsnyb3maFmPL8LLUTG'
p1122
sg8
S'New Man'
p1123
ssS'6V9kwssTrwkKT72imgowj9'
p1124
(dp1125
g3
S'The Chainsmokers'
p1126
sg5
I1
sg6
S'https://open.spotify.com/track/6V9kwssTrwkKT72imgowj9'
p1127
sg8
S'My Type'
p1128
ssS'6WbADFqMvR8N5u0BvtsWQE'
p1129
(dp1130
g3
S'Avicii'
p1131
sg5
I9
sg6
S'https://open.spotify.com/track/6WbADFqMvR8N5u0BvtsWQE'
p1132
sg8
S'Without You (feat. Sandro Cavazza)'
p1133
ssS'75JFxkI2RXiU7L9VXzMkle'
p1134
(dp1135
g3
S'Coldplay'
p1136
sg5
I42
sg6
S'https://open.spotify.com/track/75JFxkI2RXiU7L9VXzMkle'
p1137
sg8
S'The Scientist'
p1138
ssS'4pdPtRcBmOSQDlJ3Fk945m'
p1139
(dp1140
g3
S'DJ Snake'
p1141
sg5
I36
sg6
S'https://open.spotify.com/track/4pdPtRcBmOSQDlJ3Fk945m'
p1142
sg8
S'Let Me Love You'
p1143
ssS'0lMbuWUpfTWhEmOKxppEau'
p1144
(dp1145
g3
S'Calvin Harris'
p1146
sg5
I9
sg6
S'https://open.spotify.com/track/0lMbuWUpfTWhEmOKxppEau'
p1147
sg8
S'Rollin'
p1148
ssS'5EnYT6F7wEcdege6mDHEfO'
p1149
(dp1150
g3
S'Drake'
p1151
sg5
I4
sg6
S'https://open.spotify.com/track/5EnYT6F7wEcdege6mDHEfO'
p1152
sg8
S'Signs'
p1153
ssS'1OAiWI2oPmglaOiv9fdioU'
p1154
(dp1155
g3
S'Coldplay'
p1156
sg5
I2
sg6
S'https://open.spotify.com/track/1OAiWI2oPmglaOiv9fdioU'
p1157
sg8
S'Hymn For The Weekend - Seeb Remix'
p1158
ssS'6Ll3qUTssdGWMxbwhMud2N'
p1159
(dp1160
g3
S'Nick Jonas'
p1161
sg5
I4
sg6
S'https://open.spotify.com/track/6Ll3qUTssdGWMxbwhMud2N'
p1162
sg8
S'Find You'
p1163
ssS'7LEydI5NfjY6mZfKwYIptZ'
p1164
(dp1165
g3
S'Fifth Harmony'
p1166
sg5
I12
sg6
S'https://open.spotify.com/track/7LEydI5NfjY6mZfKwYIptZ'
p1167
sg8
S'Down'
p1168
ssS'7y9iMe8SOB6z3NoHE2OfXl'
p1169
(dp1170
g3
S'Halsey'
p1171
sg5
I4
sg6
S'https://open.spotify.com/track/7y9iMe8SOB6z3NoHE2OfXl'
p1172
sg8
S'Bad At Love'
p1173
ssS'3K4HG9evC7dg3N0R9cYqk4'
p1174
(dp1175
g3
S'Linkin Park'
p1176
sg5
I1
sg6
S'https://open.spotify.com/track/3K4HG9evC7dg3N0R9cYqk4'
p1177
sg8
S'One Step Closer'
p1178
ssS'1Vej0qeQ3ioKwpI6FUbRv1'
p1179
(dp1180
g3
S'Linkin Park'
p1181
sg5
I1
sg6
S'https://open.spotify.com/track/1Vej0qeQ3ioKwpI6FUbRv1'
p1182
sg8
S'Papercut'
p1183
ssS'2YlZnw2ikdb837oKMKjBkW'
p1184
(dp1185
g3
S'Meghan Trainor'
p1186
sg5
I42
sg6
S'https://open.spotify.com/track/2YlZnw2ikdb837oKMKjBkW'
p1187
sg8
S"Like I'm Gonna Lose You"
p1188
ssS'4iYRa2btalAzPZoSYfROqF'
p1189
(dp1190
g3
S'Kendrick Lamar'
p1191
sg5
I1
sg6
S'https://open.spotify.com/track/4iYRa2btalAzPZoSYfROqF'
p1192
sg8
S'XXX. FEAT. U2.'
p1193
ssS'2jYmK1cb3Uya6FFsocdpzO'
p1194
(dp1195
g3
S'Sabrina Carpenter'
p1196
sg5
I11
sg6
S'https://open.spotify.com/track/2jYmK1cb3Uya6FFsocdpzO'
p1197
sg8
S'Why'
p1198
ssS'0Dljpp52vCmtXi0E94qjfo'
p1199
(dp1200
g3
S'Sarah Geronimo'
p1201
sg5
I42
sg6
S'https://open.spotify.com/track/0Dljpp52vCmtXi0E94qjfo'
p1202
sg8
S'Maybe This Time - From Maybe This Time'
p1203
ssS'0RYXEibxMami3QuT8kn4Iz'
p1204
(dp1205
g3
S'Macklemore'
p1206
sg5
I7
sg6
S'https://open.spotify.com/track/0RYXEibxMami3QuT8kn4Iz'
p1207
sg8
S'Marmalade (feat. Lil Yachty)'
p1208
ssS'72Q0FQQo32KJloivv5xge2'
p1209
(dp1210
g3
S'DJ Khaled'
p1211
sg5
I3
sg6
S'https://open.spotify.com/track/72Q0FQQo32KJloivv5xge2'
p1212
sg8
S"I'm the One"
p1213
ssS'79cuOz3SPQTuFrp8WgftAu'
p1214
(dp1215
g3
S'Shawn Mendes'
p1216
sg5
I25
sg6
S'https://open.spotify.com/track/79cuOz3SPQTuFrp8WgftAu'
p1217
sg8
S"There's Nothing Holdin' Me Back"
p1218
ssS'4c2W3VKsOFoIg2SFaO6DY5'
p1219
(dp1220
g3
S'Rita Ora'
p1221
sg5
I20
sg6
S'https://open.spotify.com/track/4c2W3VKsOFoIg2SFaO6DY5'
p1222
sg8
S'Your Song'
p1223
ssS'5y69gQtK33qxb8a24ACkCy'
p1224
(dp1225
g3
S'Vanessa Carlton'
p1226
sg5
I42
sg6
S'https://open.spotify.com/track/5y69gQtK33qxb8a24ACkCy'
p1227
sg8
S'A Thousand Miles'
p1228
ssS'1HYzRuWjmS9LXCkdVHi25K'
p1229
(dp1230
g3
S'Chanyeol'
p1231
sg5
I18
sg6
S'https://open.spotify.com/track/1HYzRuWjmS9LXCkdVHi25K'
p1232
sg8
S'Stay With Me'
p1233
ssS'4JIo8RztBbELr2gWJ5OGK6'
p1234
(dp1235
g3
S'Little Mix'
p1236
sg5
I42
sg6
S'https://open.spotify.com/track/4JIo8RztBbELr2gWJ5OGK6'
p1237
sg8
S'Secret Love Song'
p1238
ssS'3eR23VReFzcdmS7TYCrhCe'
p1239
(dp1240
g3
S'Kygo'
p1241
sg5
I26
sg6
S'https://open.spotify.com/track/3eR23VReFzcdmS7TYCrhCe'
p1242
sg8
S"It Ain't Me (with Selena Gomez)"
p1243
ssS'2eAZfqOm4EnOF9VvN50Tyc'
p1244
(dp1245
g3
S'Lil Uzi Vert'
p1246
sg5
I2
sg6
S'https://open.spotify.com/track/2eAZfqOm4EnOF9VvN50Tyc'
p1247
sg8
S'The Way Life Goes'
p1248
ssS'0zMzyHAeMvwq5CRstru1Fp'
p1249
(dp1250
g3
S'Ruth B.'
p1251
sg5
I7
sg6
S'https://open.spotify.com/track/0zMzyHAeMvwq5CRstru1Fp'
p1252
sg8
S'Lost Boy'
p1253
ssS'5LXj9Ch3O9ATm1NoHT8GXn'
p1254
(dp1255
g3
S'Coldplay'
p1256
sg5
I1
sg6
S'https://open.spotify.com/track/5LXj9Ch3O9ATm1NoHT8GXn'
p1257
sg8
S'Hypnotised'
p1258
ssS'5bZtRlMBU76vHuDOb1GM5u'
p1259
(dp1260
g3
S'Jonas Blue'
p1261
sg5
I15
sg6
S'https://open.spotify.com/track/5bZtRlMBU76vHuDOb1GM5u'
p1262
sg8
S'Perfect Strangers'
p1263
ssS'67EY6aDoIx8czEPS6a2AaI'
p1264
(dp1265
g3
S'The Script'
p1266
sg5
I42
sg6
S'https://open.spotify.com/track/67EY6aDoIx8czEPS6a2AaI'
p1267
sg8
S"The Man Who Can't Be Moved"
p1268
ssS'1KT0xdIjm7t053xByACrrg'
p1269
(dp1270
g3
S'Ariana Grande'
p1271
sg5
I31
sg6
S'https://open.spotify.com/track/1KT0xdIjm7t053xByACrrg'
p1272
sg8
S'\xe7\xbe\x8e\xe5\xa5\xb3\xe3\x81\xa8\xe9\x87\x8e\xe7\x8d\xa3'
p1273
ssS'6TIU9Ehmi6dMzZK73Ym4yj'
p1274
(dp1275
g3
S'Ed Sheeran'
p1276
sg5
I5
sg6
S'https://open.spotify.com/track/6TIU9Ehmi6dMzZK73Ym4yj'
p1277
sg8
S'Save Myself'
p1278
ssS'1wMALZpuqAy7amQsFBWQ8m'
p1279
(dp1280
g3
S'Adele'
p1281
sg5
I15
sg6
S'https://open.spotify.com/track/1wMALZpuqAy7amQsFBWQ8m'
p1282
sg8
S'All I Ask'
p1283
ssS'5EzitieoPnjyKHAq0gfRMa'
p1284
(dp1285
g3
S'EXO'
p1286
sg5
I5
sg6
S'https://open.spotify.com/track/5EzitieoPnjyKHAq0gfRMa'
p1287
sg8
S'Ko Ko Bop'
p1288
ssS'2tdq0CeAGSfhI2l4Gwkvgx'
p1289
(dp1290
g3
S'BTS'
p1291
sg5
I4
sg6
S'https://open.spotify.com/track/2tdq0CeAGSfhI2l4Gwkvgx'
p1292
sg8
S'Best Of Me'
p1293
ssS'3hRZsdTF5uyGA2uhNqEuhm'
p1294
(dp1295
g3
S'Niall Horan'
p1296
sg5
I4
sg6
S'https://open.spotify.com/track/3hRZsdTF5uyGA2uhNqEuhm'
p1297
sg8
S'Too Much To Ask'
p1298
ssS'1wjzFQodRWrPcQ0AnYnvQ9'
p1299
(dp1300
g3
S'Lauv'
p1301
sg5
I20
sg6
S'https://open.spotify.com/track/1wjzFQodRWrPcQ0AnYnvQ9'
p1302
sg8
S'I Like Me Better'
p1303
ssS'2mfUa8bLs2s5N4VaqJZ4lZ'
p1304
(dp1305
g3
S'Hailee Steinfeld'
p1306
sg5
I24
sg6
S'https://open.spotify.com/track/2mfUa8bLs2s5N4VaqJZ4lZ'
p1307
sg8
S'Most Girls'
p1308
ssS'7BpYWzZwrsljT1eIjb0TqR'
p1309
(dp1310
g3
S'Paramore'
p1311
sg5
I1
sg6
S'https://open.spotify.com/track/7BpYWzZwrsljT1eIjb0TqR'
p1312
sg8
S'Told You So'
p1313
ssS'4aWmUDTfIPGksMNLV2rQP2'
p1314
(dp1315
g3
S'Luis Fonsi'
p1316
sg5
I26
sg6
S'https://open.spotify.com/track/4aWmUDTfIPGksMNLV2rQP2'
p1317
sg8
S'Despacito (Featuring Daddy Yankee)'
p1318
ssS'4LfkoDOt4mhrbo8Ndk37sQ'
p1319
(dp1320
g3
S'Charlie Puth'
p1321
sg5
I25
sg6
S'https://open.spotify.com/track/4LfkoDOt4mhrbo8Ndk37sQ'
p1322
sg8
S'Marvin Gaye (feat. Wale) - Remix'
p1323
ssS'35QZaWQRkmnAVqBF1TLCxQ'
p1324
(dp1325
g3
S'Ed Sheeran'
p1326
sg5
I5
sg6
S'https://open.spotify.com/track/35QZaWQRkmnAVqBF1TLCxQ'
p1327
sg8
S'Nancy Mulligan'
p1328
ssS'60APt5N2NRaKWf5xzJdzyC'
p1329
(dp1330
g3
S'Calvin Harris'
p1331
sg5
I5
sg6
S'https://open.spotify.com/track/60APt5N2NRaKWf5xzJdzyC'
p1332
sg8
S'Heatstroke'
p1333
ssS'25C5CowdsfXld2jJanbiex'
p1334
(dp1335
g3
S'Demi Lovato'
p1336
sg5
I11
sg6
S'https://open.spotify.com/track/25C5CowdsfXld2jJanbiex'
p1337
sg8
S'Sorry Not Sorry'
p1338
ssS'1ejtHfSXQwvaAU7F82FXww'
p1339
(dp1340
g3
S'Adam Levine'
p1341
sg5
I16
sg6
S'https://open.spotify.com/track/1ejtHfSXQwvaAU7F82FXww'
p1342
sg8
S'Lost Stars'
p1343
ssS'2Z8WuEywRWYTKe1NybPQEW'
p1344
(dp1345
g3
S'Twenty One Pilots'
p1346
sg5
I2
sg6
S'https://open.spotify.com/track/2Z8WuEywRWYTKe1NybPQEW'
p1347
sg8
S'Ride'
p1348
ssS'0qUnBLZ8bJqUNEeQgayL9t'
p1349
(dp1350
g3
S'Taylor Swift'
p1351
sg5
I1
sg6
S'https://open.spotify.com/track/0qUnBLZ8bJqUNEeQgayL9t'
p1352
sg8
S'Out Of The Woods'
p1353
ssS'6JV2JOEocMgcZxYSZelKcc'
p1354
(dp1355
g3
S'Justin Timberlake'
p1356
sg5
I38
sg6
S'https://open.spotify.com/track/6JV2JOEocMgcZxYSZelKcc'
p1357
sg8
S"CAN'T STOP THE FEELING! (Original Song from DreamWorks Animation's TROLLS)"
p1358
ssS'3vsNteZn6E5qBSSBO78W7b'
p1359
(dp1360
g3
S'James Blunt'
p1361
sg5
I8
sg6
S'https://open.spotify.com/track/3vsNteZn6E5qBSSBO78W7b'
p1362
sg8
S"You're Beautiful"
p1363
ssS'7aV2mflaASUmGhCErm7kBO'
p1364
(dp1365
g3
S'Nevada'
p1366
sg5
I4
sg6
S'https://open.spotify.com/track/7aV2mflaASUmGhCErm7kBO'
p1367
sg8
S'The Mack'
p1368
ssS'0YyM8aEdbjGfLWPn6fdcn7'
p1369
(dp1370
g3
S'Silent Sanctuary'
p1371
sg5
I42
sg6
S'https://open.spotify.com/track/0YyM8aEdbjGfLWPn6fdcn7'
p1372
sg8
S'Pasensya Ka Na'
p1373
ssS'0bYg9bo50gSsH3LtXe2SQn'
p1374
(dp1375
g3
S'Mariah Carey'
p1376
sg5
I1
sg6
S'https://open.spotify.com/track/0bYg9bo50gSsH3LtXe2SQn'
p1377
sg8
S'All I Want for Christmas Is You'
p1378
ssS'2YMyVYNLmFDD0KGtNkkgFa'
p1379
(dp1380
g3
S'DNCE'
p1381
sg5
I4
sg6
S'https://open.spotify.com/track/2YMyVYNLmFDD0KGtNkkgFa'
p1382
sg8
S'Kissing Strangers'
p1383
ssS'2B2h0JOv0X2lH2CvtciZI6'
p1384
(dp1385
g3
S'Sam Feldt'
p1386
sg5
I3
sg6
S'https://open.spotify.com/track/2B2h0JOv0X2lH2CvtciZI6'
p1387
sg8
S'Fade Away'
p1388
ssS'3rOSwuTsUlJp0Pu0MkN8r8'
p1389
(dp1390
g3
S'Future'
p1391
sg5
I20
sg6
S'https://open.spotify.com/track/3rOSwuTsUlJp0Pu0MkN8r8'
p1392
sg8
S'Mask Off'
p1393
ssS'3ryjLm3oupIjJFGc39naNi'
p1394
(dp1395
g3
S'BTS'
p1396
sg5
I3
sg6
S'https://open.spotify.com/track/3ryjLm3oupIjJFGc39naNi'
p1397
sg8
S'dimple'
p1398
ssS'1qOLh0tI7trd1zdDKxYZTe'
p1399
(dp1400
g3
S'Hailee Steinfeld'
p1401
sg5
I35
sg6
S'https://open.spotify.com/track/1qOLh0tI7trd1zdDKxYZTe'
p1402
sg8
S'Starving'
p1403
ssS'0cqRj7pUJDkTCEsJkx8snD'
p1404
(dp1405
g3
S'Taylor Swift'
p1406
sg5
I1
sg6
S'https://open.spotify.com/track/0cqRj7pUJDkTCEsJkx8snD'
p1407
sg8
S'Shake It Off'
p1408
ssS'3HVr6jTVwBHBa2flM0eURR'
p1409
(dp1410
g3
S'Macklemore'
p1411
sg5
I10
sg6
S'https://open.spotify.com/track/3HVr6jTVwBHBa2flM0eURR'
p1412
sg8
S'Glorious (feat. Skylar Grey)'
p1413
ssS'3V9DfRoS7JfSkuTyNEsCxQ'
p1414
(dp1415
g3
S'Martin Jensen'
p1416
sg5
I4
sg6
S'https://open.spotify.com/track/3V9DfRoS7JfSkuTyNEsCxQ'
p1417
sg8
S'Wait'
p1418
ssS'628A1ThsViFrgjqgRAy4aa'
p1419
(dp1420
g3
S'Abra'
p1421
sg5
I4
sg6
S'https://open.spotify.com/track/628A1ThsViFrgjqgRAy4aa'
p1422
sg8
S'Diwata'
p1423
ssS'1cG0umU5TKStygKsPFZ9pY'
p1424
(dp1425
g3
S'Robin Schulz'
p1426
sg5
I11
sg6
S'https://open.spotify.com/track/1cG0umU5TKStygKsPFZ9pY'
p1427
sg8
S'Shed a Light'
p1428
ssS'6520aj0B4FSKGVuKNsOCOi'
p1429
(dp1430
g3
S'Katy Perry'
p1431
sg5
I11
sg6
S'https://open.spotify.com/track/6520aj0B4FSKGVuKNsOCOi'
p1432
sg8
S'Chained To The Rhythm'
p1433
ssS'4g8lRiznlad8Vy4HR1J3B9'
p1434
(dp1435
g3
S'Juris'
p1436
sg5
I33
sg6
S'https://open.spotify.com/track/4g8lRiznlad8Vy4HR1J3B9'
p1437
sg8
S'A Love To Last A Lifetime'
p1438
ssS'6EpRaXYhGOB3fj4V2uDkMJ'
p1439
(dp1440
g3
S'Liam Payne'
p1441
sg5
I21
sg6
S'https://open.spotify.com/track/6EpRaXYhGOB3fj4V2uDkMJ'
p1442
sg8
S'Strip That Down'
p1443
ssS'39afswHs17v53znQm1gDTY'
p1444
(dp1445
g3
S'Rihanna'
p1446
sg5
I42
sg6
S'https://open.spotify.com/track/39afswHs17v53znQm1gDTY'
p1447
sg8
S'Take A Bow - Main'
p1448
ssS'51PIvodunv6NmX5250zxAh'
p1449
(dp1450
g3
S'Lady Gaga'
p1451
sg5
I26
sg6
S'https://open.spotify.com/track/51PIvodunv6NmX5250zxAh'
p1452
sg8
S'The Cure'
p1453
ssS'2Vsetr5viGzrHDkC222PAT'
p1454
(dp1455
g3
S'Caleb Santos'
p1456
sg5
I2
sg6
S'https://open.spotify.com/track/2Vsetr5viGzrHDkC222PAT'
p1457
sg8
S'I Need You More Today'
p1458
ssS'7iDa6hUg2VgEL1o1HjmfBn'
p1459
(dp1460
g3
S'Bebe Rexha'
p1461
sg5
I4
sg6
S'https://open.spotify.com/track/7iDa6hUg2VgEL1o1HjmfBn'
p1462
sg8
S'Meant to Be (feat. Florida Georgia Line)'
p1463
ssS'6CiuHbascZBxfFqdixSXiW'
p1464
(dp1465
g3
S'MYMP'
p1466
sg5
I42
sg6
S'https://open.spotify.com/track/6CiuHbascZBxfFqdixSXiW'
p1467
sg8
S'Set You Free'
p1468
ssS'6TaqooOXAEcijL6G1AWS2K'
p1469
(dp1470
g3
S'Snakehips'
p1471
sg5
I2
sg6
S'https://open.spotify.com/track/6TaqooOXAEcijL6G1AWS2K'
p1472
sg8
S'All My Friends'
p1473
ssS'5MFzQMkrl1FOOng9tq6R9r'
p1474
(dp1475
g3
S'Maroon 5'
p1476
sg5
I34
sg6
S'https://open.spotify.com/track/5MFzQMkrl1FOOng9tq6R9r'
p1477
sg8
S"Don't Wanna Know"
p1478
ssS'5Z3GHaZ6ec9bsiI5BenrbY'
p1479
(dp1480
g3
S'Khalid'
p1481
sg5
I16
sg6
S'https://open.spotify.com/track/5Z3GHaZ6ec9bsiI5BenrbY'
p1482
sg8
S'Young Dumb & Broke'
p1483
ssS'3FDrI0FLKzrYQiWxPhqV2W'
p1484
(dp1485
g3
S'Calvin Harris'
p1486
sg5
I4
sg6
S'https://open.spotify.com/track/3FDrI0FLKzrYQiWxPhqV2W'
p1487
sg8
S'Rollin'
p1488
ssS'5xYVqJ7ppf4bTbbztvVOYx'
p1489
(dp1490
g3
S'Timeflies'
p1491
sg5
I2
sg6
S'https://open.spotify.com/track/5xYVqJ7ppf4bTbbztvVOYx'
p1492
sg8
S'Raincoat (feat. Shy Martin)'
p1493
ssS'5XMkENs3GfeRza8MfVAhjK'
p1494
(dp1495
g3
S'Bruno Mars'
p1496
sg5
I2
sg6
S'https://open.spotify.com/track/5XMkENs3GfeRza8MfVAhjK'
p1497
sg8
S'Finesse'
p1498
ssS'1WP1r7fuvRqZRnUaTi2I1Q'
p1499
(dp1500
g3
S'Shawn Mendes'
p1501
sg5
I6
sg6
S'https://open.spotify.com/track/1WP1r7fuvRqZRnUaTi2I1Q'
p1502
sg8
S'Stitches'
p1503
ssS'0v9Wz8o0BT8DU38R4ddjeH'
p1504
(dp1505
g3
S'Chance The Rapper'
p1506
sg5
I7
sg6
S'https://open.spotify.com/track/0v9Wz8o0BT8DU38R4ddjeH'
p1507
sg8
S'No Problem (feat. Lil Wayne & 2 Chainz)'
p1508
ssS'6k3b9NQnivP9wUhA7PgbOU'
p1509
(dp1510
g3
S'Daryl Ong'
p1511
sg5
I6
sg6
S'https://open.spotify.com/track/6k3b9NQnivP9wUhA7PgbOU'
p1512
sg8
S'To Love Again'
p1513
ssS'6f6YWK6F4uOXvxnVTg8CoH'
p1514
(dp1515
g3
S'LANY'
p1516
sg5
I1
sg6
S'https://open.spotify.com/track/6f6YWK6F4uOXvxnVTg8CoH'
p1517
sg8
S'Hurts'
p1518
ssS'1mea3bSkSGXuIRvnydlB5b'
p1519
(dp1520
g3
S'Coldplay'
p1521
sg5
I1
sg6
S'https://open.spotify.com/track/1mea3bSkSGXuIRvnydlB5b'
p1522
sg8
S'Viva La Vida'
p1523
ssS'1ipE3bBLWeLkIvxWUaxpSu'
p1524
(dp1525
g3
S'P!nk'
p1526
sg5
I2
sg6
S'https://open.spotify.com/track/1ipE3bBLWeLkIvxWUaxpSu'
p1527
sg8
S'Beautiful Trauma'
p1528
ssS'7zgqtptZvhf8GEmdsM2vp2'
p1529
(dp1530
g3
S'Taylor Swift'
p1531
sg5
I1
sg6
S'https://open.spotify.com/track/7zgqtptZvhf8GEmdsM2vp2'
p1532
sg8
S'...Ready For It?'
p1533
ssS'6f49kbOuQSOsStBpyGvQfA'
p1534
(dp1535
g3
S'Coldplay'
p1536
sg5
I1
sg6
S'https://open.spotify.com/track/6f49kbOuQSOsStBpyGvQfA'
p1537
sg8
S'A Head Full Of Dreams'
p1538
ssS'3S0OXQeoh0w6AY8WQVckRW'
p1539
(dp1540
g3
S'Jason Mraz'
p1541
sg5
I42
sg6
S'https://open.spotify.com/track/3S0OXQeoh0w6AY8WQVckRW'
p1542
sg8
S"I'm Yours"
p1543
ssS'2qLMf6TuEC3ruGJg4SMMN6'
p1544
(dp1545
g3
S'Jason Mraz'
p1546
sg5
I42
sg6
S'https://open.spotify.com/track/2qLMf6TuEC3ruGJg4SMMN6'
p1547
sg8
S'Lucky'
p1548
ssS'6cPyTS0Kk2sc4xQwC93kOg'
p1549
(dp1550
g3
S'The Chainsmokers'
p1551
sg5
I7
sg6
S'https://open.spotify.com/track/6cPyTS0Kk2sc4xQwC93kOg'
p1552
sg8
S'Break Up Every Night'
p1553
ssS'6eUncuJutsFi9BGO1JaBHh'
p1554
(dp1555
g3
S'Jason Derulo'
p1556
sg5
I2
sg6
S'https://open.spotify.com/track/6eUncuJutsFi9BGO1JaBHh'
p1557
sg8
S"If I'm Lucky"
p1558
ssS'7D4rSZoga8hqJqNOVcPde1'
p1559
(dp1560
g3
S'Yeng Constantino'
p1561
sg5
I17
sg6
S'https://open.spotify.com/track/7D4rSZoga8hqJqNOVcPde1'
p1562
sg8
S'If We Fall in Love'
p1563
ssS'0PDUDa38GO8lMxLCRc4lL1'
p1564
(dp1565
g3
S'ZAYN'
p1566
sg5
I5
sg6
S'https://open.spotify.com/track/0PDUDa38GO8lMxLCRc4lL1'
p1567
sg8
S'PILLOWTALK'
p1568
ssS'6PXPSP15Wo3aEPR0KoZprx'
p1569
(dp1570
g3
S'Hugh Grant and Haley Bennett'
p1571
sg5
I1
sg6
S'https://open.spotify.com/track/6PXPSP15Wo3aEPR0KoZprx'
p1572
sg8
S'Way Back Into Love'
p1573
ssS'3pC1ILr9KzmQLMe8Kn5QBG'
p1574
(dp1575
g3
S'DJ Khaled'
p1576
sg5
I1
sg6
S'https://open.spotify.com/track/3pC1ILr9KzmQLMe8Kn5QBG'
p1577
sg8
S'To the Max'
p1578
ssS'4ZgZPrrSLi4sIiFkiahuxq'
p1579
(dp1580
g3
S'James Reid'
p1581
sg5
I25
sg6
S'https://open.spotify.com/track/4ZgZPrrSLi4sIiFkiahuxq'
p1582
sg8
S'Hanap-Hanap'
p1583
ssS'3PCE25CY0e1VMclfDGTXvE'
p1584
(dp1585
g3
S'Daniel Padilla'
p1586
sg5
I13
sg6
S'https://open.spotify.com/track/3PCE25CY0e1VMclfDGTXvE'
p1587
sg8
S'Walang Iba'
p1588
ssS'0dXNQ8dckG4eYfEtq9zcva'
p1589
(dp1590
g3
S'The Vamps'
p1591
sg5
I1
sg6
S'https://open.spotify.com/track/0dXNQ8dckG4eYfEtq9zcva'
p1592
sg8
S'All Night'
p1593
ssS'3VRk65lHSwqd90TAkQqhvB'
p1594
(dp1595
g3
S'Katy Perry'
p1596
sg5
I2
sg6
S'https://open.spotify.com/track/3VRk65lHSwqd90TAkQqhvB'
p1597
sg8
S'Swish Swish'
p1598
ssS'3U7TJUjNz7pgPSfgeGQjsP'
p1599
(dp1600
g3
S'Juris'
p1601
sg5
I3
sg6
S'https://open.spotify.com/track/3U7TJUjNz7pgPSfgeGQjsP'
p1602
sg8
S'Forevermore'
p1603
ssS'3kxfsdsCpFgN412fpnW85Y'
p1604
(dp1605
g3
S'Childish Gambino'
p1606
sg5
I13
sg6
S'https://open.spotify.com/track/3kxfsdsCpFgN412fpnW85Y'
p1607
sg8
S'Redbone'
p1608
ssS'5hTpBe8h35rJ67eAWHQsJx'
p1609
(dp1610
g3
S'Amin\xc3\xa9'
p1611
sg5
I1
sg6
S'https://open.spotify.com/track/5hTpBe8h35rJ67eAWHQsJx'
p1612
sg8
S'Caroline'
p1613
ssS'3qyeNnFY67zX6VmmIbzPsL'
p1614
(dp1615
g3
S'Mike Perry'
p1616
sg5
I4
sg6
S'https://open.spotify.com/track/3qyeNnFY67zX6VmmIbzPsL'
p1617
sg8
S'Body to Body'
p1618
ssS'5QVuf1MpdzFtFoJGwcKosa'
p1619
(dp1620
g3
S'Daryl Ong'
p1621
sg5
I42
sg6
S'https://open.spotify.com/track/5QVuf1MpdzFtFoJGwcKosa'
p1622
sg8
S'Stay - On the Wings of Love Teleserye Theme'
p1623
ssS'1j4kHkkpqZRBwE0A4CN4Yv'
p1624
(dp1625
g3
S'ZAYN'
p1626
sg5
I5
sg6
S'https://open.spotify.com/track/1j4kHkkpqZRBwE0A4CN4Yv'
p1627
sg8
S'Dusk Till Dawn - Radio Edit'
p1628
ssS'3agtg0x11wPvLIWkYR39nZ'
p1629
(dp1630
g3
S'Linkin Park'
p1631
sg5
I1
sg6
S'https://open.spotify.com/track/3agtg0x11wPvLIWkYR39nZ'
p1632
sg8
S'Somewhere I Belong'
p1633
ssS'6BaCraQ9xeLYg4Sb9TBT2X'
p1634
(dp1635
g3
S'Calvin Harris'
p1636
sg5
I1
sg6
S'https://open.spotify.com/track/6BaCraQ9xeLYg4Sb9TBT2X'
p1637
sg8
S'Feels'
p1638
ssS'5KTtIkH3i6sF58N3kyWVnS'
p1639
(dp1640
g3
S'Leanne & Naara'
p1641
sg5
I5
sg6
S'https://open.spotify.com/track/5KTtIkH3i6sF58N3kyWVnS'
p1642
sg8
S'Again'
p1643
ssS'6XmskR1cMfgys1W7dExmgi'
p1644
(dp1645
g3
S'South Border'
p1646
sg5
I42
sg6
S'https://open.spotify.com/track/6XmskR1cMfgys1W7dExmgi'
p1647
sg8
S'With a Smile'
p1648
ssS'7IqUmDJ2GjaOqrzDCXhrV5'
p1649
(dp1650
g3
S'Mayonnaise'
p1651
sg5
I2
sg6
S'https://open.spotify.com/track/7IqUmDJ2GjaOqrzDCXhrV5'
p1652
sg8
S'Ipagpatawad Mo'
p1653
ssS'5q5gzmbBS5yQzos2BvVr1t'
p1654
(dp1655
g3
S'M\xc3\x98'
p1656
sg5
I9
sg6
S'https://open.spotify.com/track/5q5gzmbBS5yQzos2BvVr1t'
p1657
sg8
S'Nights With You'
p1658
ssS'7m9OqQk4RVRkw9JJdeAw96'
p1659
(dp1660
g3
S'XXXTENTACION'
p1661
sg5
I6
sg6
S'https://open.spotify.com/track/7m9OqQk4RVRkw9JJdeAw96'
p1662
sg8
S'Jocelyn Flores'
p1663
ssS'6mORGLOz79w6VsCRLWYYuK'
p1664
(dp1665
g3
S'Lord Huron'
p1666
sg5
I6
sg6
S'https://open.spotify.com/track/6mORGLOz79w6VsCRLWYYuK'
p1667
sg8
S'The Night We Met'
p1668
ssS'5aAx2yezTd8zXrkmtKl66Z'
p1669
(dp1670
g3
S'The Weeknd'
p1671
sg5
I23
sg6
S'https://open.spotify.com/track/5aAx2yezTd8zXrkmtKl66Z'
p1672
sg8
S'Starboy'
p1673
ssS'6e8l2FkkbOVUQO8YDpV5EQ'
p1674
(dp1675
g3
S'LANY'
p1676
sg5
I1
sg6
S'https://open.spotify.com/track/6e8l2FkkbOVUQO8YDpV5EQ'
p1677
sg8
S'13'
p1678
ssS'2BrzlUj1u1CtvaJDGIKpsP'
p1679
(dp1680
g3
S'Noah Cyrus'
p1681
sg5
I11
sg6
S'https://open.spotify.com/track/2BrzlUj1u1CtvaJDGIKpsP'
p1682
sg8
S'Make Me (Cry)'
p1683
ssS'1SJtlNRJDeYHioymcvsqev'
p1684
(dp1685
g3
S'Camila Cabello'
p1686
sg5
I16
sg6
S'https://open.spotify.com/track/1SJtlNRJDeYHioymcvsqev'
p1687
sg8
S'Crying in the Club'
p1688
ssS'0Wv5wuenRLI3BcwgT3HPIP'
p1689
(dp1690
g3
S'DJ Snake'
p1691
sg5
I3
sg6
S'https://open.spotify.com/track/0Wv5wuenRLI3BcwgT3HPIP'
p1692
sg8
S'A Different Way (with Lauv)'
p1693
ssS'04DwTuZ2VBdJCCC5TROn7L'
p1694
(dp1695
g3
S'Martin Garrix'
p1696
sg5
I29
sg6
S'https://open.spotify.com/track/04DwTuZ2VBdJCCC5TROn7L'
p1697
sg8
S'In the Name of Love'
p1698
ssS'0m2orA1i5lLZUOt9XLwSd0'
p1699
(dp1700
g3
S'Fifth Harmony'
p1701
sg5
I2
sg6
S'https://open.spotify.com/track/0m2orA1i5lLZUOt9XLwSd0'
p1702
sg8
S'He Like That'
p1703
ssS'6SULfvvRflfNzfwJlUGcpr'
p1704
(dp1705
g3
S'Dawin'
p1706
sg5
I3
sg6
S'https://open.spotify.com/track/6SULfvvRflfNzfwJlUGcpr'
p1707
sg8
S'Bikini Body'
p1708
ssS'3AJwUDP919kvQ9QcozQPxg'
p1709
(dp1710
g3
S'Coldplay'
p1711
sg5
I21
sg6
S'https://open.spotify.com/track/3AJwUDP919kvQ9QcozQPxg'
p1712
sg8
S'Yellow'
p1713
ssS'6xQs6y6CpDqK9VKCktApEL'
p1714
(dp1715
g3
S'Mark Carpio'
p1716
sg5
I42
sg6
S'https://open.spotify.com/track/6xQs6y6CpDqK9VKCktApEL'
p1717
sg8
S'Hiling'
p1718
ssS'4JAyIDXOqNM6qHuZML01uX'
p1719
(dp1720
g3
g212
sg5
I1
sg6
S'https://open.spotify.com/track/4JAyIDXOqNM6qHuZML01uX'
p1721
sg8
g212
ssS'6VRghJeP6I0w1KxkdWFfIh'
p1722
(dp1723
g3
S'Imagine Dragons'
p1724
sg5
I3
sg6
S'https://open.spotify.com/track/6VRghJeP6I0w1KxkdWFfIh'
p1725
sg8
S'Believer'
p1726
ssS'7LVHVU3tWfcxj5aiPFEW4Q'
p1727
(dp1728
g3
S'Coldplay'
p1729
sg5
I4
sg6
S'https://open.spotify.com/track/7LVHVU3tWfcxj5aiPFEW4Q'
p1730
sg8
S'Fix You'
p1731
ssS'6SznMYPQJHzr3IwsAHLId2'
p1732
(dp1733
g3
S'Ed Sheeran'
p1734
sg5
I4
sg6
S'https://open.spotify.com/track/6SznMYPQJHzr3IwsAHLId2'
p1735
sg8
S'Bibia Be Ye Ye'
p1736
ssS'5jpokUp9ZQhRKhGqT19e52'
p1737
(dp1738
g3
S'James Reid'
p1739
sg5
I2
sg6
S'https://open.spotify.com/track/5jpokUp9ZQhRKhGqT19e52'
p1740
sg8
S'IL2LU'
p1741
ssS'0NiXXAI876aGImAd6rTj8w'
p1742
(dp1743
g3
S'Jonas Blue'
p1744
sg5
I14
sg6
S'https://open.spotify.com/track/0NiXXAI876aGImAd6rTj8w'
p1745
sg8
S'Mama'
p1746
ssS'0mBKv9DkYfQHjdMcw2jdyI'
p1747
(dp1748
g3
S'Bruno Mars'
p1749
sg5
I16
sg6
S'https://open.spotify.com/track/0mBKv9DkYfQHjdMcw2jdyI'
p1750
sg8
S'Chunky'
p1751
ssS'46ixegtxjERQMCutmp09Sa'
p1752
(dp1753
g3
S'KZ Tandingan'
p1754
sg5
I12
sg6
S'https://open.spotify.com/track/46ixegtxjERQMCutmp09Sa'
p1755
sg8
S'Two Less Lonely People in the World (Official Movie Theme Song Of Kita Kita)'
p1756
ssS'1sYSP7gKa5kdKIfhANfori'
p1757
(dp1758
g3
S'MAX'
p1759
sg5
I10
sg6
S'https://open.spotify.com/track/1sYSP7gKa5kdKIfhANfori'
p1760
sg8
S'Lights Down Low'
p1761
ssS'5Ohxk2dO5COHF1krpoPigN'
p1762
(dp1763
g3
S'Harry Styles'
p1764
sg5
I13
sg6
S'https://open.spotify.com/track/5Ohxk2dO5COHF1krpoPigN'
p1765
sg8
S'Sign of the Times'
p1766
ssS'5QpaGzWp0hwB5faV8dkbAz'
p1767
(dp1768
g3
S'The Calling'
p1769
sg5
I42
sg6
S'https://open.spotify.com/track/5QpaGzWp0hwB5faV8dkbAz'
p1770
sg8
S'Wherever You Will Go'
p1771
ssS'7FCfMXYTIiQ9b4hDYs4Iol'
p1772
(dp1773
g3
S'Dua Lipa'
p1774
sg5
I4
sg6
S'https://open.spotify.com/track/7FCfMXYTIiQ9b4hDYs4Iol'
p1775
sg8
S'Be The One'
p1776
ssS'4mxWSdf71VFO52qFeY0fZt'
p1777
(dp1778
g3
S'Maroon 5'
p1779
sg5
I6
sg6
S'https://open.spotify.com/track/4mxWSdf71VFO52qFeY0fZt'
p1780
sg8
S'What Lovers Do (feat. SZA)'
p1781
ssS'1ADjWm8QNhgNV8yCNNgQ1T'
p1782
(dp1783
g3
S'Ariana Grande'
p1784
sg5
I1
sg6
S'https://open.spotify.com/track/1ADjWm8QNhgNV8yCNNgQ1T'
p1785
sg8
S'Santa Tell Me'
p1786
ssS'79yCQrawsilxU56g0UifKQ'
p1787
(dp1788
g3
S'The Company'
p1789
sg5
I25
sg6
S'https://open.spotify.com/track/79yCQrawsilxU56g0UifKQ'
p1790
sg8
S'Akin Ka Na Lang'
p1791
ssS'4Hf7WnR761jpxPr5D46Bcd'
p1792
(dp1793
g3
S'Shawn Mendes'
p1794
sg5
I42
sg6
S'https://open.spotify.com/track/4Hf7WnR761jpxPr5D46Bcd'
p1795
sg8
S'Treat You Better'
p1796
ssS'7sG2bWi2eDtvX9vX8yC1Gn'
p1797
(dp1798
g3
S'The Chainsmokers'
p1799
sg5
I2
sg6
S'https://open.spotify.com/track/7sG2bWi2eDtvX9vX8yC1Gn'
p1800
sg8
S'Inside Out'
p1801
ssS'76cX1GFe7MHAxcfNDOckuS'
p1802
(dp1803
g3
S'Leroy Styles'
p1804
sg5
I10
sg6
S'https://open.spotify.com/track/76cX1GFe7MHAxcfNDOckuS'
p1805
sg8
S'Golden Youth'
p1806
ssS'1vkBeaVW2eUmBtUc2f366k'
p1807
(dp1808
g3
S'Mari\xc3\xa9 Digby'
p1809
sg5
I2
sg6
S'https://open.spotify.com/track/1vkBeaVW2eUmBtUc2f366k'
p1810
sg8
S'Say It Again'
p1811
ssS'3CJvmtWw2bJsudbAC5uCQk'
p1812
(dp1813
g3
S'Selena Gomez'
p1814
sg5
I3
sg6
S'https://open.spotify.com/track/3CJvmtWw2bJsudbAC5uCQk'
p1815
sg8
S'Hands To Myself'
p1816
ssS'6vSforRhuzsA0D0SO9fG1S'
p1817
(dp1818
g3
S'Charlie Puth'
p1819
sg5
I25
sg6
S'https://open.spotify.com/track/6vSforRhuzsA0D0SO9fG1S'
p1820
sg8
S'One Call Away'
p1821
ssS'0B0tYbVp7pDQAqKDhgMeaL'
p1822
(dp1823
g3
S'Bruno Mars'
p1824
sg5
I12
sg6
S'https://open.spotify.com/track/0B0tYbVp7pDQAqKDhgMeaL'
p1825
sg8
S'Too Good To Say Goodbye'
p1826
ssS'69uxyAqqPIsUyTO8txoP2M'
p1827
(dp1828
g3
S'Coldplay'
p1829
sg5
I1
sg6
S'https://open.spotify.com/track/69uxyAqqPIsUyTO8txoP2M'
p1830
sg8
S'Adventure Of A Lifetime'
p1831
ssS'0jdeV5dSB3kUBRqe1xQJbh'
p1832
(dp1833
g3
S'Ryan Cabrera'
p1834
sg5
I42
sg6
S'https://open.spotify.com/track/0jdeV5dSB3kUBRqe1xQJbh'
p1835
sg8
S'True'
p1836
ssS'65MOTX6uSFAnqXl7dlAuId'
p1837
(dp1838
g3
S'Demi Lovato'
p1839
sg5
I1
sg6
S'https://open.spotify.com/track/65MOTX6uSFAnqXl7dlAuId'
p1840
sg8
S'Tell Me You Love Me'
p1841
ssS'1EaKU4dMbesXXd3BrLCtYG'
p1842
(dp1843
g3
S'Kendrick Lamar'
p1844
sg5
I2
sg6
S'https://open.spotify.com/track/1EaKU4dMbesXXd3BrLCtYG'
p1845
sg8
S'ELEMENT.'
p1846
ssS'7xHWNBFm6ObGEQPaUxHuKO'
p1847
(dp1848
g3
S'Sia'
p1849
sg5
I4
sg6
S'https://open.spotify.com/track/7xHWNBFm6ObGEQPaUxHuKO'
p1850
sg8
S'The Greatest'
p1851
ssS'5knuzwU65gJK7IF5yJsuaW'
p1852
(dp1853
g3
S'Clean Bandit'
p1854
sg5
I38
sg6
S'https://open.spotify.com/track/5knuzwU65gJK7IF5yJsuaW'
p1855
sg8
S'Rockabye (feat. Sean Paul & Anne-Marie)'
p1856
ssS'7aF09WaavZAmAWuUeYxlYD'
p1857
(dp1858
g3
S'OneRepublic'
p1859
sg5
I13
sg6
S'https://open.spotify.com/track/7aF09WaavZAmAWuUeYxlYD'
p1860
sg8
S'Rich Love (with Seeb)'
p1861
ssS'5aDpULK8MbJmHl42kR5KNI'
p1862
(dp1863
g3
S'Howie Day'
p1864
sg5
I1
sg6
S'https://open.spotify.com/track/5aDpULK8MbJmHl42kR5KNI'
p1865
sg8
S'Collide'
p1866
ssS'1qoXYfWILyuN0EatImGlma'
p1867
(dp1868
g3
S'Morissette Amon'
p1869
sg5
I41
sg6
S'https://open.spotify.com/track/1qoXYfWILyuN0EatImGlma'
p1870
sg8
S"Nothing's Gonna Stop Us Now - From Crazy Beautiful You"
p1871
ssS'14WWzenpaEgQZlqPq2nk4v'
p1872
(dp1873
g3
S'Rihanna'
p1874
sg5
I3
sg6
S'https://open.spotify.com/track/14WWzenpaEgQZlqPq2nk4v'
p1875
sg8
S'Work'
p1876
ssS'6b8Be6ljOzmkOmFslEb23P'
p1877
(dp1878
g3
S'Bruno Mars'
p1879
sg5
I42
sg6
S'https://open.spotify.com/track/6b8Be6ljOzmkOmFslEb23P'
p1880
sg8
S'24K Magic'
p1881
ssS'6uJwPeBGb3swi85TSr9iIz'
p1882
(dp1883
g3
S'Coldplay'
p1884
sg5
I1
sg6
S'https://open.spotify.com/track/6uJwPeBGb3swi85TSr9iIz'
p1885
sg8
S'Miracles (Someone Special)'
p1886
ssS'2S80c51YXgJQhkhX603fMA'
p1887
(dp1888
g3
S'6cyclemind'
p1889
sg5
I42
sg6
S'https://open.spotify.com/track/2S80c51YXgJQhkhX603fMA'
p1890
sg8
S'Prinsesa'
p1891
ssS'2IMODbij0lZ5CuAjZi0IDE'
p1892
(dp1893
g3
S'Sud'
p1894
sg5
I42
sg6
S'https://open.spotify.com/track/2IMODbij0lZ5CuAjZi0IDE'
p1895
sg8
S'Sila'
p1896
ssS'1qMTqzU9Uy8z7EzzaiwgsD'
p1897
(dp1898
g3
S'Backstreet Boys'
p1899
sg5
I1
sg6
S'https://open.spotify.com/track/1qMTqzU9Uy8z7EzzaiwgsD'
p1900
sg8
S'As Long as You Love Me'
p1901
ssS'6HZILIRieu8S0iqY8kIKhj'
p1902
(dp1903
g3
S'Kendrick Lamar'
p1904
sg5
I14
sg6
S'https://open.spotify.com/track/6HZILIRieu8S0iqY8kIKhj'
p1905
sg8
S'DNA.'
p1906
ssS'4gqMQftUs22F8pOGVn5Acr'
p1907
(dp1908
g3
S'Shawn Hook'
p1909
sg5
I20
sg6
S'https://open.spotify.com/track/4gqMQftUs22F8pOGVn5Acr'
p1910
sg8
S'Reminding Me'
p1911
ssS'7F9vK8hNFMml4GtHsaXui6'
p1912
(dp1913
g3
S'Louis Tomlinson'
p1914
sg5
I12
sg6
S'https://open.spotify.com/track/7F9vK8hNFMml4GtHsaXui6'
p1915
sg8
S'Back to You (feat. Bebe Rexha & Digital Farm Animals)'
p1916
ssS'2EEeOnHehOozLq4aS0n6SL'
p1917
(dp1918
g3
S'KYLE'
p1919
sg5
I22
sg6
S'https://open.spotify.com/track/2EEeOnHehOozLq4aS0n6SL'
p1920
sg8
S'iSpy (feat. Lil Yachty)'
p1921
ssS'3B54sVLJ402zGa6Xm4YGNe'
p1922
(dp1923
g3
S'French Montana'
p1924
sg5
I14
sg6
S'https://open.spotify.com/track/3B54sVLJ402zGa6Xm4YGNe'
p1925
sg8
S'Unforgettable'
p1926
ssS'32DGGj6KlNuBr6WaqRxpxi'
p1927
(dp1928
g3
S'Charlie Puth'
p1929
sg5
I1
sg6
S'https://open.spotify.com/track/32DGGj6KlNuBr6WaqRxpxi'
p1930
sg8
S'How Long'
p1931
ssS'0ug5NqcwcFR2xrfTkc7k8e'
p1932
(dp1933
g3
S'Taylor Swift'
p1934
sg5
I1
sg6
S'https://open.spotify.com/track/0ug5NqcwcFR2xrfTkc7k8e'
p1935
sg8
S'Style'
p1936
ssS'5qfZRNjt2TkHEL12r3sDEU'
p1937
(dp1938
g3
S'Coldplay'
p1939
sg5
I20
sg6
S'https://open.spotify.com/track/5qfZRNjt2TkHEL12r3sDEU'
p1940
sg8
S'Everglow'
p1941
ssS'5qII2n90lVdPDcgXEEVHNy'
p1942
(dp1943
g3
S'Maroon 5'
p1944
sg5
I38
sg6
S'https://open.spotify.com/track/5qII2n90lVdPDcgXEEVHNy'
p1945
sg8
S'Sunday Morning'
p1946
ssS'5bcTCxgc7xVfSaMV3RuVke'
p1947
(dp1948
g3
S'Calvin Harris'
p1949
sg5
I16
sg6
S'https://open.spotify.com/track/5bcTCxgc7xVfSaMV3RuVke'
p1950
sg8
S'Feels'
p1951
ssS'0QsvXIfqM0zZoerQfsI9lm'
p1952
(dp1953
g3
S'The Chainsmokers'
p1954
sg5
I31
sg6
S'https://open.spotify.com/track/0QsvXIfqM0zZoerQfsI9lm'
p1955
sg8
S"Don't Let Me Down"
p1956
ssS'0fioLzGM8ngbD1w6fMmm45'
p1957
(dp1958
g3
S'Sam Smith'
p1959
sg5
I42
sg6
S'https://open.spotify.com/track/0fioLzGM8ngbD1w6fMmm45'
p1960
sg8
S"I'm Not The Only One"
p1961
ssS'4qqArAiTPueDxIp7cf87h7'
p1962
(dp1963
g3
S'M\xc3\x98'
p1964
sg5
I5
sg6
S'https://open.spotify.com/track/4qqArAiTPueDxIp7cf87h7'
p1965
sg8
S'Final Song'
p1966
ssS'5hslUAKq9I9CG2bAulFkHN'
p1967
(dp1968
g3
S'Andy Williams'
p1969
sg5
I1
sg6
S'https://open.spotify.com/track/5hslUAKq9I9CG2bAulFkHN'
p1970
sg8
S"It's the Most Wonderful Time of the Year"
p1971
ssS'2nLtzopw4rPReszdYBJU6h'
p1972
(dp1973
g3
S'Linkin Park'
p1974
sg5
I2
sg6
S'https://open.spotify.com/track/2nLtzopw4rPReszdYBJU6h'
p1975
sg8
S'Numb'
p1976
ssS'6B6aCxSBsECsulzOkJRxGv'
p1977
(dp1978
g3
S'Daniel Bedingfield'
p1979
sg5
I1
sg6
S'https://open.spotify.com/track/6B6aCxSBsECsulzOkJRxGv'
p1980
sg8
S"If You're Not The One"
p1981
ssS'3a1lNhkSLSkpJE4MSHpDu9'
p1982
(dp1983
g3
S'Post Malone'
p1984
sg5
I34
sg6
S'https://open.spotify.com/track/3a1lNhkSLSkpJE4MSHpDu9'
p1985
sg8
S'Congratulations'
p1986
ssS'5zMR44ZH4KVZj4FlhTj3SE'
p1987
(dp1988
g3
S'Callalily'
p1989
sg5
I22
sg6
S'https://open.spotify.com/track/5zMR44ZH4KVZj4FlhTj3SE'
p1990
sg8
S'Magbalik'
p1991
ssS'79NlESqzFSW0hdBWgls4FX'
p1992
(dp1993
g3
S'Kesha'
p1994
sg5
I2
sg6
S'https://open.spotify.com/track/79NlESqzFSW0hdBWgls4FX'
p1995
sg8
S'Praying'
p1996
ssS'0JzwzRDkwZr8s1WRfNgUqA'
p1997
(dp1998
g3
S'Angeline Quinto'
p1999
sg5
I42
sg6
S'https://open.spotify.com/track/0JzwzRDkwZr8s1WRfNgUqA'
p2000
sg8
S'Till I Met You'
p2001
ssS'6bLopGnirdrilrpdVB6Um1'
p2002
(dp2003
g3
S'Sia'
p2004
sg5
I2
sg6
S'https://open.spotify.com/track/6bLopGnirdrilrpdVB6Um1'
p2005
sg8
S'The Greatest'
p2006
ssS'1VvFtp71ibaXiHxurBlXuw'
p2007
(dp2008
g3
S'Freestyle'
p2009
sg5
I42
sg6
S'https://open.spotify.com/track/1VvFtp71ibaXiHxurBlXuw'
p2010
sg8
S'Before I Let You Go'
p2011
ssS'1vvNmPOiUuyCbgWmtc6yfm'
p2012
(dp2013
g3
S'Calvin Harris'
p2014
sg5
I7
sg6
S'https://open.spotify.com/track/1vvNmPOiUuyCbgWmtc6yfm'
p2015
sg8
S'My Way'
p2016
ssS'7DQXiMeLqiQsy1uqHSk0xc'
p2017
(dp2018
g3
S'Shawn Hook'
p2019
sg5
I3
sg6
S'https://open.spotify.com/track/7DQXiMeLqiQsy1uqHSk0xc'
p2020
sg8
S'Reminding Me'
p2021
ssS'1wv76JKLy8fgpIa4n6JuMa'
p2022
(dp2023
g3
S'James Reid'
p2024
sg5
I1
sg6
S'https://open.spotify.com/track/1wv76JKLy8fgpIa4n6JuMa'
p2025
sg8
S'This Time (Original Movie Soundtrack)'
p2026
ssS'5hWHHBX801NeP6jpt9mquW'
p2027
(dp2028
g3
S'Juris'
p2029
sg5
I7
sg6
S'https://open.spotify.com/track/5hWHHBX801NeP6jpt9mquW'
p2030
sg8
S'Friend of Mine'
p2031
ssS'1Sl3njkhhz8nrSPZroDQ82'
p2032
(dp2033
g3
S'Dimitri Vegas & Like Mike'
p2034
sg5
I10
sg6
S'https://open.spotify.com/track/1Sl3njkhhz8nrSPZroDQ82'
p2035
sg8
S'Complicated (feat. Kiiara)'
p2036
ssS'3vOmmLuvEUgGaVuRsCs2QF'
p2037
(dp2038
g3
S'Tori Kelly'
p2039
sg5
I21
sg6
S'https://open.spotify.com/track/3vOmmLuvEUgGaVuRsCs2QF'
p2040
sg8
S'I Was Made For Loving You'
p2041
ssS'57BrRMwf9LrcmuOsyGilwr'
p2042
(dp2043
g3
S'Linkin Park'
p2044
sg5
I1
sg6
S'https://open.spotify.com/track/57BrRMwf9LrcmuOsyGilwr'
p2045
sg8
S'Crawling'
p2046
ssS'0afhq8XCExXpqazXczTSve'
p2047
(dp2048
g3
S'Ed Sheeran'
p2049
sg5
I32
sg6
S'https://open.spotify.com/track/0afhq8XCExXpqazXczTSve'
p2050
sg8
S'Galway Girl'
p2051
ssS'2ZE3DJuizYTad2S4CvRRhK'
p2052
(dp2053
g3
S'Lauv'
p2054
sg5
I1
sg6
S'https://open.spotify.com/track/2ZE3DJuizYTad2S4CvRRhK'
p2055
sg8
S'Easy Love'
p2056
ssS'6C2nrsOlb3jOUGcJAmPrTA'
p2057
(dp2058
g3
S'MYMP'
p2059
sg5
I42
sg6
S'https://open.spotify.com/track/6C2nrsOlb3jOUGcJAmPrTA'
p2060
sg8
S'Tell Me Where It Hurts'
p2061
ssS'2aFiaMXmWsM3Vj72F9ksBl'
p2062
(dp2063
g3
S'DNCE'
p2064
sg5
I7
sg6
S'https://open.spotify.com/track/2aFiaMXmWsM3Vj72F9ksBl'
p2065
sg8
S'Cake By The Ocean'
p2066
ssS'152lZdxL1OR0ZMW6KquMif'
p2067
(dp2068
g3
S'Khalid'
p2069
sg5
I31
sg6
S'https://open.spotify.com/track/152lZdxL1OR0ZMW6KquMif'
p2070
sg8
S'Location'
p2071
ssS'4TZy1wLyHec06pwgFYDh1a'
p2072
(dp2073
g3
S'Shawn Mendes'
p2074
sg5
I13
sg6
S'https://open.spotify.com/track/4TZy1wLyHec06pwgFYDh1a'
p2075
sg8
S'Mercy'
p2076
ssS'4llK75pXNWZz6KAho2Gp16'
p2077
(dp2078
g3
S'Maroon 5'
p2079
sg5
I32
sg6
S'https://open.spotify.com/track/4llK75pXNWZz6KAho2Gp16'
p2080
sg8
S'She Will Be Loved - Radio Mix'
p2081
ssS'4q8PHoRsPUB52LFylX8Ulz'
p2082
(dp2083
g3
S'Axwell /\\ Ingrosso'
p2084
sg5
I7
sg6
S'https://open.spotify.com/track/4q8PHoRsPUB52LFylX8Ulz'
p2085
sg8
S'More Than You Know'
p2086
ssS'4QdovcM8j50QPlyR7tH4xe'
p2087
(dp2088
g3
S'Marc E. Bassy'
p2089
sg5
I10
sg6
S'https://open.spotify.com/track/4QdovcM8j50QPlyR7tH4xe'
p2090
sg8
S'You & Me'
p2091
ssS'3RXkboS74UYzN14xTqzPyY'
p2092
(dp2093
g3
g212
sg5
I1
sg6
S'https://open.spotify.com/track/3RXkboS74UYzN14xTqzPyY'
p2094
sg8
g212
ssS'20H2Hd5AkUcRjB4yL3UQtJ'
p2095
(dp2096
g3
S'Fifth Harmony'
p2097
sg5
I4
sg6
S'https://open.spotify.com/track/20H2Hd5AkUcRjB4yL3UQtJ'
p2098
sg8
S'Down'
p2099
ssS'2btKtacOXuMtC9WjcNRvAA'
p2100
(dp2101
g3
S'LANY'
p2102
sg5
I1
sg6
S'https://open.spotify.com/track/2btKtacOXuMtC9WjcNRvAA'
p2103
sg8
S'ILYSB'
p2104
ssS'10nqz67NQWWa7XPq7ycihi'
p2105
(dp2106
g3
S'Taylor Swift'
p2107
sg5
I1
sg6
S'https://open.spotify.com/track/10nqz67NQWWa7XPq7ycihi'
p2108
sg8
S'Welcome To New York'
p2109
ssS'1FUViuNSldssMIawrOXF2i'
p2110
(dp2111
g3
S'Bebe Rexha'
p2112
sg5
I15
sg6
S'https://open.spotify.com/track/1FUViuNSldssMIawrOXF2i'
p2113
sg8
S'I Got You'
p2114
ssS'2ORrgw8M0ZbrFlm5cpaKCv'
p2115
(dp2116
g3
S'Anna Kendrick'
p2117
sg5
I16
sg6
S'https://open.spotify.com/track/2ORrgw8M0ZbrFlm5cpaKCv'
p2118
sg8
S'True Colors'
p2119
ssS'3cNjgVBKTJ1SvKhunrCdVy'
p2120
(dp2121
g3
S'Joel Adams'
p2122
sg5
I4
sg6
S'https://open.spotify.com/track/3cNjgVBKTJ1SvKhunrCdVy'
p2123
sg8
S"Please Don't Go"
p2124
ssS'6OuV4vfyb8v3vGGGksqyKf'
p2125
(dp2126
g3
S'AJR'
p2127
sg5
I2
sg6
S'https://open.spotify.com/track/6OuV4vfyb8v3vGGGksqyKf'
p2128
sg8
S'Weak'
p2129
ssS'4Q4jmPHwu0wrJvqrld0FQ6'
p2130
(dp2131
g3
S'Zara Larsson'
p2132
sg5
I10
sg6
S'https://open.spotify.com/track/4Q4jmPHwu0wrJvqrld0FQ6'
p2133
sg8
S'I Would Like'
p2134
ssS'6KjbNLbRjuoa8rEq5yNA6H'
p2135
(dp2136
g3
S'The Chainsmokers'
p2137
sg5
I1
sg6
S'https://open.spotify.com/track/6KjbNLbRjuoa8rEq5yNA6H'
p2138
sg8
S'Honest'
p2139
ssS'7DpfL3u92JKKTys5w7jfY7'
p2140
(dp2141
g3
S'Toni Gonzaga'
p2142
sg5
I15
sg6
S'https://open.spotify.com/track/7DpfL3u92JKKTys5w7jfY7'
p2143
sg8
S'Starting over Again'
p2144
ssS'7yyRTcZmCiyzzJlNzGC9Ol'
p2145
(dp2146
g3
S'DRAM'
p2147
sg5
I6
sg6
S'https://open.spotify.com/track/7yyRTcZmCiyzzJlNzGC9Ol'
p2148
sg8
S'Broccoli (feat. Lil Yachty)'
p2149
ssS'1A40ESJJPEEJrqjC9BUO2B'
p2150
(dp2151
g3
S'Freestyle'
p2152
sg5
I42
sg6
S'https://open.spotify.com/track/1A40ESJJPEEJrqjC9BUO2B'
p2153
sg8
S'So Slow'
p2154
ssS'0uqPG793dkDDN7sCUJJIVC'
p2155
(dp2156
g3
S'The Black Eyed Peas'
p2157
sg5
I4
sg6
S'https://open.spotify.com/track/0uqPG793dkDDN7sCUJJIVC'
p2158
sg8
S'Where Is The Love?'
p2159
ssS'5Z6DLYbekZkL8OvH54S4n0'
p2160
(dp2161
g3
S'Boyzone'
p2162
sg5
I42
sg6
S'https://open.spotify.com/track/5Z6DLYbekZkL8OvH54S4n0'
p2163
sg8
S'When You Say Nothing At All'
p2164
ssS'2771LMNxwf62FTAdpJMQfM'
p2165
(dp2166
g3
S'Cardi B'
p2167
sg5
I7
sg6
S'https://open.spotify.com/track/2771LMNxwf62FTAdpJMQfM'
p2168
sg8
S'Bodak Yellow'
p2169
ssS'1a1i2IwXnUN0PjllVEhA4B'
p2170
(dp2171
g3
S'The Script'
p2172
sg5
I42
sg6
S'https://open.spotify.com/track/1a1i2IwXnUN0PjllVEhA4B'
p2173
sg8
S'Breakeven'
p2174
ssS'6PCUP3dWmTjcTtXY02oFdT'
p2175
(dp2176
g3
S'Ed Sheeran'
p2177
sg5
I37
sg6
S'https://open.spotify.com/track/6PCUP3dWmTjcTtXY02oFdT'
p2178
sg8
S'Castle on the Hill'
p2179
ssS'5vqpqBAB8L9NyhLZo0ZKie'
p2180
(dp2181
g3
S'LANY'
p2182
sg5
I1
sg6
S'https://open.spotify.com/track/5vqpqBAB8L9NyhLZo0ZKie'
p2183
sg8
S'current location'
p2184
ssS'5pvVAwQbuFoR7LkcicrKnk'
p2185
(dp2186
g3
S'Vice'
p2187
sg5
I7
sg6
S'https://open.spotify.com/track/5pvVAwQbuFoR7LkcicrKnk'
p2188
sg8
S'Obsession (feat. Jon Bellion)'
p2189
ssS'104buTcnP2AsxqB7U1FIZ4'
p2190
(dp2191
g3
S'Linkin Park'
p2192
sg5
I5
sg6
S'https://open.spotify.com/track/104buTcnP2AsxqB7U1FIZ4'
p2193
sg8
S'Heavy (feat. Kiiara)'
p2194
ssS'7wBrglFVTNCcW6IhdgBkm1'
p2195
(dp2196
g3
S'Coldplay'
p2197
sg5
I1
sg6
S'https://open.spotify.com/track/7wBrglFVTNCcW6IhdgBkm1'
p2198
sg8
S'Paradise'
p2199
ssS'43jBqV3j3Xi1g6wO0bhIMd'
p2200
(dp2201
g3
S'Sage The Gemini'
p2202
sg5
I9
sg6
S'https://open.spotify.com/track/43jBqV3j3Xi1g6wO0bhIMd'
p2203
sg8
S'Now and Later'
p2204
ssS'650OeHTLxZAQmb4aEbGmaA'
p2205
(dp2206
g3
S'Linkin Park'
p2207
sg5
I1
sg6
S'https://open.spotify.com/track/650OeHTLxZAQmb4aEbGmaA'
p2208
sg8
S'Good Goodbye (feat. Pusha T and Stormzy)'
p2209
ssS'1PSBzsahR2AKwLJgx8ehBj'
p2210
(dp2211
g3
S'Machine Gun Kelly'
p2212
sg5
I29
sg6
S'https://open.spotify.com/track/1PSBzsahR2AKwLJgx8ehBj'
p2213
sg8
S'Bad Things (with Camila Cabello)'
p2214
ssS'01YEqVPCm0vqRLA9w43bic'
p2215
(dp2216
g3
S'Michael Pangilinan'
p2217
sg5
I42
sg6
S'https://open.spotify.com/track/01YEqVPCm0vqRLA9w43bic'
p2218
sg8
S'Hanggang Kailan'
p2219
ssS'31MkGwj0SWgZaTvEt5Hgxv'
p2220
(dp2221
g3
S'P!nk'
p2222
sg5
I9
sg6
S'https://open.spotify.com/track/31MkGwj0SWgZaTvEt5Hgxv'
p2223
sg8
S'What About Us'
p2224
ssS'0D8ZpOXVjapLXrjz5VfZSD'
p2225
(dp2226
g3
S'Sam Smith'
p2227
sg5
I1
sg6
S'https://open.spotify.com/track/0D8ZpOXVjapLXrjz5VfZSD'
p2228
sg8
S'Pray'
p2229
ssS'3m660poUr1chesgkkjQM7P'
p2230
(dp2231
g3
S'Demi Lovato'
p2232
sg5
I2
sg6
S'https://open.spotify.com/track/3m660poUr1chesgkkjQM7P'
p2233
sg8
S'Sorry Not Sorry'
p2234
ssS'3SGWp9fJCzgK0WcpcKSQdy'
p2235
(dp2236
g3
S'Stanaj'
p2237
sg5
I9
sg6
S'https://open.spotify.com/track/3SGWp9fJCzgK0WcpcKSQdy'
p2238
sg8
S'Romantic - NOTD Remix'
p2239
ssS'7rPLZ8Krm6CZIbraFUlnWZ'
p2240
(dp2241
g3
S'Adele'
p2242
sg5
I1
sg6
S'https://open.spotify.com/track/7rPLZ8Krm6CZIbraFUlnWZ'
p2243
sg8
S'Make You Feel My Love'
p2244
ssS'6NFKf8vBApSvtzkapYmnVR'
p2245
(dp2246
g3
S'Up Dharma Down'
p2247
sg5
I42
sg6
S'https://open.spotify.com/track/6NFKf8vBApSvtzkapYmnVR'
p2248
sg8
S'Tadhana'
p2249
ssS'1C3wg8sCIPqpNQx0wAL4DC'
p2250
(dp2251
g3
S'Christian Bautista'
p2252
sg5
I33
sg6
S'https://open.spotify.com/track/1C3wg8sCIPqpNQx0wAL4DC'
p2253
sg8
S'The Way You Look At Me'
p2254
ssS'3gfmFoJgmn9LiIj5mV8oSS'
p2255
(dp2256
g3
S'R3HAB'
p2257
sg5
I4
sg6
S'https://open.spotify.com/track/3gfmFoJgmn9LiIj5mV8oSS'
p2258
sg8
S"I Just Can't"
p2259
ssS'3ebXMykcMXOcLeJ9xZ17XH'
p2260
(dp2261
g3
S'Martin Garrix'
p2262
sg5
I33
sg6
S'https://open.spotify.com/track/3ebXMykcMXOcLeJ9xZ17XH'
p2263
sg8
S'Scared to Be Lonely'
p2264
ssS'6fujklziTHa8uoM5OQSfIo'
p2265
(dp2266
g3
S'Rae Sremmurd'
p2267
sg5
I10
sg6
S'https://open.spotify.com/track/6fujklziTHa8uoM5OQSfIo'
p2268
sg8
S'Black Beatles'
p2269
ssS'7KxhSJOYiqCDclXDBNlFSZ'
p2270
(dp2271
g3
S'Selena Gomez'
p2272
sg5
I1
sg6
S'https://open.spotify.com/track/7KxhSJOYiqCDclXDBNlFSZ'
p2273
sg8
S'Kill Em With Kindness'
p2274
ssS'19WjVVgXjdKXfLXoaDPwTM'
p2275
(dp2276
g3
S'Taylor Swift'
p2277
sg5
I5
sg6
S'https://open.spotify.com/track/19WjVVgXjdKXfLXoaDPwTM'
p2278
sg8
S'...Ready For It?'
p2279
ssS'5fVZC9GiM4e8vu99W0Xf6J'
p2280
(dp2281
g3
S'The Fray'
p2282
sg5
I2
sg6
S'https://open.spotify.com/track/5fVZC9GiM4e8vu99W0Xf6J'
p2283
sg8
S'How to Save a Life'
p2284
ssS'3PEgB3fkiojxms35ntsTgs'
p2285
(dp2286
g3
S'Axwell /\\ Ingrosso'
p2287
sg5
I11
sg6
S'https://open.spotify.com/track/3PEgB3fkiojxms35ntsTgs'
p2288
sg8
S'More Than You Know'
p2289
ssS'0B8B8cVRFIG1yznoQe7c9s'
p2290
(dp2291
g3
S'The Chainsmokers'
p2292
sg5
I10
sg6
S'https://open.spotify.com/track/0B8B8cVRFIG1yznoQe7c9s'
p2293
sg8
S'Setting Fires'
p2294
ssS'02WacdrRpm4zlP8H7X6bnQ'
p2295
(dp2296
g3
S'Calum Scott'
p2297
sg5
I3
sg6
S'https://open.spotify.com/track/02WacdrRpm4zlP8H7X6bnQ'
p2298
sg8
S'Dancing On My Own'
p2299
ssS'1mDGDb2fUmUMdqV3tb8VKQ'
p2300
(dp2301
g3
S'Halsey'
p2302
sg5
I1
sg6
S'https://open.spotify.com/track/1mDGDb2fUmUMdqV3tb8VKQ'
p2303
sg8
S'Now Or Never'
p2304
ssS'3njZlgsB9MI6DVTg8wDPsg'
p2305
(dp2306
g3
S'The Script'
p2307
sg5
I1
sg6
S'https://open.spotify.com/track/3njZlgsB9MI6DVTg8wDPsg'
p2308
sg8
S'Rock the World'
p2309
ssS'3mxCsKcdT7SdnsOt8Wyyvs'
p2310
(dp2311
g3
S'Mandy Moore'
p2312
sg5
I14
sg6
S'https://open.spotify.com/track/3mxCsKcdT7SdnsOt8Wyyvs'
p2313
sg8
S"Someday We'll Know"
p2314
ssS'3GCL1PydwsLodcpv0Ll1ch'
p2315
(dp2316
g3
S'Taylor Swift'
p2317
sg5
I1
sg6
S'https://open.spotify.com/track/3GCL1PydwsLodcpv0Ll1ch'
p2318
sg8
S'You Belong With Me'
p2319
ssS'3NdDpSvN911VPGivFlV5d0'
p2320
(dp2321
g3
S'ZAYN'
p2322
sg5
I42
sg6
S'https://open.spotify.com/track/3NdDpSvN911VPGivFlV5d0'
p2323
sg8
S'I Don\xe2\x80\x99t Wanna Live Forever (Fifty Shades Darker) - From Fifty Shades Darker (Original Motion Picture Soundtrack)'
p2324
ssS'6OZh916QF8XNunWaP97WEZ'
p2325
(dp2326
g3
S'Jonas Blue'
p2327
sg5
I6
sg6
S'https://open.spotify.com/track/6OZh916QF8XNunWaP97WEZ'
p2328
sg8
S'Fast Car'
p2329
ssS'2rizacJSyD9S1IQUxUxnsK'
p2330
(dp2331
g3
S'The Chainsmokers'
p2332
sg5
I39
sg6
S'https://open.spotify.com/track/2rizacJSyD9S1IQUxUxnsK'
p2333
sg8
S'All We Know'
p2334
ssS'0tgVpDi06FyKpA1z0VMD4v'
p2335
(dp2336
g3
S'Ed Sheeran'
p2337
sg5
I32
sg6
S'https://open.spotify.com/track/0tgVpDi06FyKpA1z0VMD4v'
p2338
sg8
S'Perfect'
p2339
ssS'0dPBlz8N0veeceejtuvpPz'
p2340
(dp2341
g3
S'LANY'
p2342
sg5
I33
sg6
S'https://open.spotify.com/track/0dPBlz8N0veeceejtuvpPz'
p2343
sg8
S'ILYSB'
p2344
ssS'6cAKeFFYW2aClZSUyvqAEW'
p2345
(dp2346
g3
S'Isaiah'
p2347
sg5
I41
sg6
S'https://open.spotify.com/track/6cAKeFFYW2aClZSUyvqAEW'
p2348
sg8
S"It's Gotta Be You"
p2349
ssS'26hcyzSE154xMZCbFdtInA'
p2350
(dp2351
g3
S'KREAM'
p2352
sg5
I6
sg6
S'https://open.spotify.com/track/26hcyzSE154xMZCbFdtInA'
p2353
sg8
S'Taped Up Heart (feat. Clara Mae)'
p2354
ssS'3zgs1f6Tj0mn29qTXJuhSY'
p2355
(dp2356
g3
S'LANY'
p2357
sg5
I11
sg6
S'https://open.spotify.com/track/3zgs1f6Tj0mn29qTXJuhSY'
p2358
sg8
S'13'
p2359
ssS'34i4yxPrHWquuR4kjiivFO'
p2360
(dp2361
g3
S'V\xc3\x89RIT\xc3\x89'
p2362
sg5
I5
sg6
S'https://open.spotify.com/track/34i4yxPrHWquuR4kjiivFO'
p2363
sg8
S'Somebody Else'
p2364
ssS'2XMTqoHHSH0lvuXrvIEdco'
p2365
(dp2366
g3
S'FRENSHIP'
p2367
sg5
I2
sg6
S'https://open.spotify.com/track/2XMTqoHHSH0lvuXrvIEdco'
p2368
sg8
S'Capsize'
p2369
ssS'2wDjpPW3HZdA9quPPmZAMu'
p2370
(dp2371
g3
S'Cashmere Cat'
p2372
sg5
I9
sg6
S'https://open.spotify.com/track/2wDjpPW3HZdA9quPPmZAMu'
p2373
sg8
S'Trust Nobody (feat. Selena Gomez & Tory Lanez)'
p2374
ssS'7BqBn9nzAq8spo5e7cZ0dJ'
p2375
(dp2376
g3
S'Bruno Mars'
p2377
sg5
I7
sg6
S'https://open.spotify.com/track/7BqBn9nzAq8spo5e7cZ0dJ'
p2378
sg8
S'Just the Way You Are'
p2379
ssS'0hNduWmlWmEmuwEFcYvRu1'
p2380
(dp2381
g3
S'Petit Biscuit'
p2382
sg5
I23
sg6
S'https://open.spotify.com/track/0hNduWmlWmEmuwEFcYvRu1'
p2383
sg8
S'Sunset Lover'
p2384
ssS'1x5sYLZiu9r5E43kMlt9f8'
p2385
(dp2386
g3
S'Clean Bandit'
p2387
sg5
I30
sg6
S'https://open.spotify.com/track/1x5sYLZiu9r5E43kMlt9f8'
p2388
sg8
S'Symphony (feat. Zara Larsson)'
p2389
ssS'2rb5MvYT7ZIxbKW5hfcHx8'
p2390
(dp2391
g3
S'J Balvin'
p2392
sg5
I14
sg6
S'https://open.spotify.com/track/2rb5MvYT7ZIxbKW5hfcHx8'
p2393
sg8
S'Mi Gente'
p2394
ssS'5SE57ljOIUJ1ybL9U6CuBH'
p2395
(dp2396
g3
S'BTS'
p2397
sg5
I4
sg6
S'https://open.spotify.com/track/5SE57ljOIUJ1ybL9U6CuBH'
p2398
sg8
S'DNA'
p2399
ssS'3bVbQvGVIe4n24AzyXovXh'
p2400
(dp2401
g3
g212
sg5
I1
sg6
S'https://open.spotify.com/track/3bVbQvGVIe4n24AzyXovXh'
p2402
sg8
g212
ssS'6SwRhMLwNqEi6alNPVG00n'
p2403
(dp2404
g3
S'Kendrick Lamar'
p2405
sg5
I7
sg6
S'https://open.spotify.com/track/6SwRhMLwNqEi6alNPVG00n'
p2406
sg8
S'LOYALTY. FEAT. RIHANNA.'
p2407
ssS'2HzfRSfCogBSsgW2CckVA2'
p2408
(dp2409
g3
S'Luke Christopher'
p2410
sg5
I1
sg6
S'https://open.spotify.com/track/2HzfRSfCogBSsgW2CckVA2'
p2411
sg8
S'Lot to Learn'
p2412
ssS'5Db9VIdDsN5yu3Eu7CT0i4'
p2413
(dp2414
g3
S'Sam Smith'
p2415
sg5
I4
sg6
S'https://open.spotify.com/track/5Db9VIdDsN5yu3Eu7CT0i4'
p2416
sg8
S'Stay With Me'
p2417
ssS'6mb6lVLNrcUgLnEN8QnDJd'
p2418
(dp2419
g3
S"Auli'i Cravalho"
p2420
sg5
I3
sg6
S'https://open.spotify.com/track/6mb6lVLNrcUgLnEN8QnDJd'
p2421
sg8
S"How Far I'll Go"
p2422
ssS'0FDzzruyVECATHXKHFs9eJ'
p2423
(dp2424
g3
S'Coldplay'
p2425
sg5
I2
sg6
S'https://open.spotify.com/track/0FDzzruyVECATHXKHFs9eJ'
p2426
sg8
S'A Sky Full of Stars'
p2427
ssS'0tKcYR2II1VCQWT79i5NrW'
p2428
(dp2429
g3
S'Imagine Dragons'
p2430
sg5
I21
sg6
S'https://open.spotify.com/track/0tKcYR2II1VCQWT79i5NrW'
p2431
sg8
S'Thunder'
p2432
ssS'6gpcs5eMhJwax4mIfKDYQk'
p2433
(dp2434
g3
S'Calvin Harris'
p2435
sg5
I4
sg6
S'https://open.spotify.com/track/6gpcs5eMhJwax4mIfKDYQk'
p2436
sg8
S'Slide'
p2437
ssS'6DNtNfH8hXkqOX1sjqmI7p'
p2438
(dp2439
g3
S'Major Lazer'
p2440
sg5
I40
sg6
S'https://open.spotify.com/track/6DNtNfH8hXkqOX1sjqmI7p'
p2441
sg8
S'Cold Water (feat. Justin Bieber & M\xc3\x98)'
p2442
ssS'5NNlUMcOEOdoOIwwaWXv0k'
p2443
(dp2444
g3
S'Maroon 5'
p2445
sg5
I18
sg6
S'https://open.spotify.com/track/5NNlUMcOEOdoOIwwaWXv0k'
p2446
sg8
S'Cold'
p2447
ssS'5XQMr19TL7Mfksq9zihbOu'
p2448
(dp2449
g3
S'Chris Brown'
p2450
sg5
I7
sg6
S'https://open.spotify.com/track/5XQMr19TL7Mfksq9zihbOu'
p2451
sg8
S'Questions'
p2452
ssS'1sXUWdKx03aP9Gmzft58rt'
p2453
(dp2454
g3
S'Julia Michaels'
p2455
sg5
I25
sg6
S'https://open.spotify.com/track/1sXUWdKx03aP9Gmzft58rt'
p2456
sg8
S'Issues'
p2457
ssS'1I6pKIyaBp4OebTGLJpCCC'
p2458
(dp2459
g3
S'Bruno Mars'
p2460
sg5
I6
sg6
S'https://open.spotify.com/track/1I6pKIyaBp4OebTGLJpCCC'
p2461
sg8
S'Perm'
p2462
ssS'7IWkJwX9C0J7tHurTD7ViL'
p2463
(dp2464
g3
S'Adele'
p2465
sg5
I3
sg6
S'https://open.spotify.com/track/7IWkJwX9C0J7tHurTD7ViL'
p2466
sg8
S'When We Were Young'
p2467
ssS'57OKulT8zrb9RbEML2dAM5'
p2468
(dp2469
g3
S'James Reid'
p2470
sg5
I10
sg6
S'https://open.spotify.com/track/57OKulT8zrb9RbEML2dAM5'
p2471
sg8
S'Cool Down'
p2472
ssS'6CHpr3pY2MbJ5y1076UDnI'
p2473
(dp2474
g3
S'Hale'
p2475
sg5
I42
sg6
S'https://open.spotify.com/track/6CHpr3pY2MbJ5y1076UDnI'
p2476
sg8
S'The Day You Said Goodnight - Acoustic Version'
p2477
ssS'4BHSjbYylfOH5WAGusDyni'
p2478
(dp2479
g3
S'Kendrick Lamar'
p2480
sg5
I1
sg6
S'https://open.spotify.com/track/4BHSjbYylfOH5WAGusDyni'
p2481
sg8
S'YAH.'
p2482
ssS'4uoumbAMEMaKdtiv763jKz'
p2483
(dp2484
g3
S'Zara Larsson'
p2485
sg5
I9
sg6
S'https://open.spotify.com/track/4uoumbAMEMaKdtiv763jKz'
p2486
sg8
S'TG4M'
p2487
ssS'1louJpMmzEicAn7lzDalPW'
p2488
(dp2489
g3
S'Cheat Codes'
p2490
sg5
I28
sg6
S'https://open.spotify.com/track/1louJpMmzEicAn7lzDalPW'
p2491
sg8
S'No Promises (feat. Demi Lovato)'
p2492
ssS'3T8yMLawoliJaN1hAGFFmv'
p2493
(dp2494
g3
S'Up Dharma Down'
p2495
sg5
I4
sg6
S'https://open.spotify.com/track/3T8yMLawoliJaN1hAGFFmv'
p2496
sg8
S'Sigurado'
p2497
ssS'2pJZ1v8HezrAoZ0Fhzby92'
p2498
(dp2499
g3
S'Ed Sheeran'
p2500
sg5
I12
sg6
S'https://open.spotify.com/track/2pJZ1v8HezrAoZ0Fhzby92'
p2501
sg8
S'What Do I Know?'
p2502
ssS'0KKkJNfGyhkQ5aFogxQAPU'
p2503
(dp2504
g3
S'Bruno Mars'
p2505
sg5
I42
sg6
S'https://open.spotify.com/track/0KKkJNfGyhkQ5aFogxQAPU'
p2506
sg8
S"That's What I Like"
p2507
ssS'0gbBzIqrECJOEPvQJIBFs5'
p2508
(dp2509
g3
S'Lorde'
p2510
sg5
I9
sg6
S'https://open.spotify.com/track/0gbBzIqrECJOEPvQJIBFs5'
p2511
sg8
S'Green Light'
p2512
ssS'7qma5iUVCWjcUDnjbElqIh'
p2513
(dp2514
g3
S'Katy Perry'
p2515
sg5
I1
sg6
S'https://open.spotify.com/track/7qma5iUVCWjcUDnjbElqIh'
p2516
sg8
S'Thinking Of You'
p2517
ssS'3zoYkqS4y2BsGVShPL2nTE'
p2518
(dp2519
g3
S'CNCO'
p2520
sg5
I6
sg6
S'https://open.spotify.com/track/3zoYkqS4y2BsGVShPL2nTE'
p2521
sg8
S'Reggaet\xc3\xb3n Lento (Remix) [CNCO & Little Mix]'
p2522
ssS'0CNjoQozZP0mB9rKVdrKGx'
p2523
(dp2524
g3
S'DNCE'
p2525
sg5
I7
sg6
S'https://open.spotify.com/track/0CNjoQozZP0mB9rKVdrKGx'
p2526
sg8
S'Toothbrush'
p2527
ssS'0MqkYdGBzHx7lnaFvo7doR'
p2528
(dp2529
g3
S'Sitti'
p2530
sg5
I42
sg6
S'https://open.spotify.com/track/0MqkYdGBzHx7lnaFvo7doR'
p2531
sg8
S'Para Sa Akin'
p2532
ssS'37hmZirFpkUcMNlkf5i60r'
p2533
(dp2534
g3
S'Bailey May'
p2535
sg5
I5
sg6
S'https://open.spotify.com/track/37hmZirFpkUcMNlkf5i60r'
p2536
sg8
S'O Pag-ibig'
p2537
ssS'2habSXqcJGExM6JJyskY7O'
p2538
(dp2539
g3
S'Miley Cyrus'
p2540
sg5
I10
sg6
S'https://open.spotify.com/track/2habSXqcJGExM6JJyskY7O'
p2541
sg8
S'Malibu'
p2542
ssS'5Ua3GXyHwiSfpNTMjq6m2z'
p2543
(dp2544
g3
S'Little Mix'
p2545
sg5
I38
sg6
S'https://open.spotify.com/track/5Ua3GXyHwiSfpNTMjq6m2z'
p2546
sg8
S'Touch'
p2547
ssS'6i0V12jOa3mr6uu4WYhUBr'
p2548
(dp2549
g3
S'Twenty One Pilots'
p2550
sg5
I7
sg6
S'https://open.spotify.com/track/6i0V12jOa3mr6uu4WYhUBr'
p2551
sg8
S'Heathens'
p2552
ssS'40UroIGvsMPLPBYwH8rMNA'
p2553
(dp2554
g3
S'Vice'
p2555
sg5
I7
sg6
S'https://open.spotify.com/track/40UroIGvsMPLPBYwH8rMNA'
p2556
sg8
S'Steady 1234 (feat. Jasmine Thompson & Skizzy Mars)'
p2557
ssS'5nA67Y0XX9JipZwYxX7Gl7'
p2558
(dp2559
g3
S'Niall Horan'
p2560
sg5
I4
sg6
S'https://open.spotify.com/track/5nA67Y0XX9JipZwYxX7Gl7'
p2561
sg8
S'This Town'
p2562
ssS'02q0ZnV2L4XByzEvWZJqBC'
p2563
(dp2564
g3
S'BTS'
p2565
sg5
I4
sg6
S'https://open.spotify.com/track/02q0ZnV2L4XByzEvWZJqBC'
p2566
sg8
S'Spring Day'
p2567
ssS'5153LWKMJiMNIRCChGN4Ja'
p2568
(dp2569
g3
S'Mike Perry'
p2570
sg5
I6
sg6
S'https://open.spotify.com/track/5153LWKMJiMNIRCChGN4Ja'
p2571
sg8
S'Hands'
p2572
ssS'6XKm1z5lYIq486iWMLnSFY'
p2573
(dp2574
g3
S'Z'
p2575
sg5
I18
sg6
S'https://open.spotify.com/track/6XKm1z5lYIq486iWMLnSFY'
p2576
sg8
S"Nobody's Better (feat. Fetty Wap)"
p2577
ssS'6fxVffaTuwjgEk5h9QyRjy'
p2578
(dp2579
g3
S'Ed Sheeran'
p2580
sg5
I42
sg6
S'https://open.spotify.com/track/6fxVffaTuwjgEk5h9QyRjy'
p2581
sg8
S'Photograph'
p2582
ssS'0w5Bdu51Ka25Pf3hojsKHh'
p2583
(dp2584
g3
S'Paramore'
p2585
sg5
I5
sg6
S'https://open.spotify.com/track/0w5Bdu51Ka25Pf3hojsKHh'
p2586
sg8
S'Hard Times'
p2587
ssS'2iXBZ32Fz5VDCLeE0JIdX5'
p2588
(dp2589
g3
S'Leona Lewis'
p2590
sg5
I11
sg6
S'https://open.spotify.com/track/2iXBZ32Fz5VDCLeE0JIdX5'
p2591
sg8
S'Better in Time'
p2592
ssS'0Xa7b1Kw7I08dD2k7zZKtV'
p2593
(dp2594
g3
S'Anjulie'
p2595
sg5
I13
sg6
S'https://open.spotify.com/track/0Xa7b1Kw7I08dD2k7zZKtV'
p2596
sg8
S'Where The Love Goes'
p2597
ssS'4Z3qm2aWGTJuJKnv3EWwyD'
p2598
(dp2599
g3
S'Daya'
p2600
sg5
I7
sg6
S'https://open.spotify.com/track/4Z3qm2aWGTJuJKnv3EWwyD'
p2601
sg8
S'Hide Away'
p2602
ssS'1VdZ0vKfR5jneCmWIUAMxK'
p2603
(dp2604
g3
S'Ed Sheeran'
p2605
sg5
I1
sg6
S'https://open.spotify.com/track/1VdZ0vKfR5jneCmWIUAMxK'
p2606
sg8
S'The A Team'
p2607
ssS'4fxHK6mhA9vli9NjpBSbGi'
p2608
(dp2609
g3
S'Kaye Cal'
p2610
sg5
I4
sg6
S'https://open.spotify.com/track/4fxHK6mhA9vli9NjpBSbGi'
p2611
sg8
S'Isang Araw'
p2612
ssS'6nxQdXa1uAL0rY72wPZu89'
p2613
(dp2614
g3
S'John Legend'
p2615
sg5
I10
sg6
S'https://open.spotify.com/track/6nxQdXa1uAL0rY72wPZu89'
p2616
sg8
S'Love Me Now'
p2617
ssS'6kex4EBAj0WHXDKZMEJaaF'
p2618
(dp2619
g3
S'Jason Derulo'
p2620
sg5
I31
sg6
S'https://open.spotify.com/track/6kex4EBAj0WHXDKZMEJaaF'
p2621
sg8
S'Swalla (feat. Nicki Minaj & Ty Dolla $ign)'
p2622
ssS'4SRqDmPxYX0pUb5B5ut2Ri'
p2623
(dp2624
g3
S'Ne-Yo'
p2625
sg5
I42
sg6
S'https://open.spotify.com/track/4SRqDmPxYX0pUb5B5ut2Ri'
p2626
sg8
S'So Sick'
p2627
ssS'1s7voXUxRTw98pmy1J8urv'
p2628
(dp2629
g3
S'Mike Perry'
p2630
sg5
I1
sg6
S'https://open.spotify.com/track/1s7voXUxRTw98pmy1J8urv'
p2631
sg8
S'Hands'
p2632
ssS'3sJHkcxojoJD2Ytbo1yLLF'
p2633
(dp2634
g3
S'Moon Taxi'
p2635
sg5
I1
sg6
S'https://open.spotify.com/track/3sJHkcxojoJD2Ytbo1yLLF'
p2636
sg8
S'Two High'
p2637
ssS'1Slwb6dOYkBlWal1PGtnNg'
p2638
(dp2639
g3
S'Ed Sheeran'
p2640
sg5
I16
sg6
S'https://open.spotify.com/track/1Slwb6dOYkBlWal1PGtnNg'
p2641
sg8
S'Thinking Out Loud'
p2642
ssS'08WPvDEsHvTFuB9w8tC2OS'
p2643
(dp2644
g3
S'Sage The Gemini'
p2645
sg5
I1
sg6
S'https://open.spotify.com/track/08WPvDEsHvTFuB9w8tC2OS'
p2646
sg8
S'Now and Later'
p2647
ssS'4ZJPwET9Jrgpkqi4Vo3Yg8'
p2648
(dp2649
g3
S'Bebe Rexha'
p2650
sg5
I7
sg6
S'https://open.spotify.com/track/4ZJPwET9Jrgpkqi4Vo3Yg8'
p2651
sg8
S'Bad Bitch (feat. Ty Dolla $ign)'
p2652
ssS'6Gn02ZC8juXwQ10Xk7ACXx'
p2653
(dp2654
g3
S'Hoobastank'
p2655
sg5
I2
sg6
S'https://open.spotify.com/track/6Gn02ZC8juXwQ10Xk7ACXx'
p2656
sg8
S'The Reason'
p2657
ssS'2mrZYZGmPFV3QOyYPZ1zsn'
p2658
(dp2659
g3
S'Bruno Mars'
p2660
sg5
I13
sg6
S'https://open.spotify.com/track/2mrZYZGmPFV3QOyYPZ1zsn'
p2661
sg8
S'Straight Up & Down'
p2662
ssS'1gVgkQFOKa8Wc1HYsJtPdH'
p2663
(dp2664
g3
S'Extreme'
p2665
sg5
I42
sg6
S'https://open.spotify.com/track/1gVgkQFOKa8Wc1HYsJtPdH'
p2666
sg8
S'More Than Words'
p2667
ssS'7KXjTSCq5nL1LoYtL7XAwS'
p2668
(dp2669
g3
S'Kendrick Lamar'
p2670
sg5
I28
sg6
S'https://open.spotify.com/track/7KXjTSCq5nL1LoYtL7XAwS'
p2671
sg8
S'HUMBLE.'
p2672
ssS'5OGkKx8jP0A5KSULEc6XYZ'
p2673
(dp2674
g3
S'Colbie Caillat'
p2675
sg5
I27
sg6
S'https://open.spotify.com/track/5OGkKx8jP0A5KSULEc6XYZ'
p2676
sg8
S'Realize'
p2677
ssS'2Ae5awwKvQpTBKQHr1TYCg'
p2678
(dp2679
g3
S'Nause'
p2680
sg5
I3
sg6
S'https://open.spotify.com/track/2Ae5awwKvQpTBKQHr1TYCg'
p2681
sg8
S'Dynamite (feat. Pretty Sister)'
p2682
ssS'1cPfKp9ThNZ1fez9itmUMN'
p2683
(dp2684
g3
S'Emma Watson'
p2685
sg5
I2
sg6
S'https://open.spotify.com/track/1cPfKp9ThNZ1fez9itmUMN'
p2686
sg8
S'Belle'
p2687
ssS'1jYiIOC5d6soxkJP81fxq2'
p2688
(dp2689
g3
S'DJ Khaled'
p2690
sg5
I1
sg6
S'https://open.spotify.com/track/1jYiIOC5d6soxkJP81fxq2'
p2691
sg8
S"I'm the One"
p2692
ssS'1wDfQ3eLZb51M8jCkNwbyx'
p2693
(dp2694
g3
S'Daya'
p2695
sg5
I4
sg6
S'https://open.spotify.com/track/1wDfQ3eLZb51M8jCkNwbyx'
p2696
sg8
S'Words'
p2697
ssS'6Na5uKk5SsqZimk0hAWo8y'
p2698
(dp2699
g3
S'Drake'
p2700
sg5
I2
sg6
S'https://open.spotify.com/track/6Na5uKk5SsqZimk0hAWo8y'
p2701
sg8
S'Signs'
p2702
ssS'0mqJsNkF3MRtBkRhzVskVX'
p2703
(dp2704
g3
S'Krissy'
p2705
sg5
I42
sg6
S'https://open.spotify.com/track/0mqJsNkF3MRtBkRhzVskVX'
p2706
sg8
S"We Can't Be"
p2707
ssS'3jhligm7HycklC8M3CcXnM'
p2708
(dp2709
g3
S'LANY'
p2710
sg5
I9
sg6
S'https://open.spotify.com/track/3jhligm7HycklC8M3CcXnM'
p2711
sg8
S'Good Girls'
p2712
ssS'74ODGXs4byLTRdnKGM4s6E'
p2713
(dp2714
g3
S'LANY'
p2715
sg5
I15
sg6
S'https://open.spotify.com/track/74ODGXs4byLTRdnKGM4s6E'
p2716
sg8
S'Super Far'
p2717
ssS'1MkiRsYBkXbXvdiYvTTiQT'
p2718
(dp2719
g3
S'Nina'
p2720
sg5
I42
sg6
S'https://open.spotify.com/track/1MkiRsYBkXbXvdiYvTTiQT'
p2721
sg8
S'Someday'
p2722
ssS'0n2bvWvMwr0gbjcuTm92eW'
p2723
(dp2724
g3
S'Lana Del Rey'
p2725
sg5
I1
sg6
S'https://open.spotify.com/track/0n2bvWvMwr0gbjcuTm92eW'
p2726
sg8
S'Love'
p2727
ssS'4LSkEJ5P5MV0y3PZqw7guJ'
p2728
(dp2729
g3
S'Cheat Codes'
p2730
sg5
I8
sg6
S'https://open.spotify.com/track/4LSkEJ5P5MV0y3PZqw7guJ'
p2731
sg8
S'Sober'
p2732
ssS'3AsAuGTaDQzavZZThyYlop'
p2733
(dp2734
g3
S'NEIKED'
p2735
sg5
I2
sg6
S'https://open.spotify.com/track/3AsAuGTaDQzavZZThyYlop'
p2736
sg8
S'Sexual'
p2737
ssS'3Lfiu5sZ4M4B6JaKMBc0FU'
p2738
(dp2739
g3
S'Ed Sheeran'
p2740
sg5
I7
sg6
S'https://open.spotify.com/track/3Lfiu5sZ4M4B6JaKMBc0FU'
p2741
sg8
S'Barcelona'
p2742
ssS'2qLUgEnhkYb6yBH0vaYg1y'
p2743
(dp2744
g3
S'The Vamps'
p2745
sg5
I2
sg6
S'https://open.spotify.com/track/2qLUgEnhkYb6yBH0vaYg1y'
p2746
sg8
S'Middle Of The Night'
p2747
ssS'4kfm1uI9QGaoN9qm6CkAMn'
p2748
(dp2749
g3
S'Linkin Park'
p2750
sg5
I1
sg6
S'https://open.spotify.com/track/4kfm1uI9QGaoN9qm6CkAMn'
p2751
sg8
S"What I've Done"
p2752
ssS'69bp2EbF7Q2rqc5N3ylezZ'
p2753
(dp2754
g3
S'Justin Bieber'
p2755
sg5
I5
sg6
S'https://open.spotify.com/track/69bp2EbF7Q2rqc5N3ylezZ'
p2756
sg8
S'Sorry'
p2757
ssS'73sEFRISCOmunToMJtjuPS'
p2758
(dp2759
g3
S'Rihanna'
p2760
sg5
I11
sg6
S'https://open.spotify.com/track/73sEFRISCOmunToMJtjuPS'
p2761
sg8
S'Hate That I Love You'
p2762
ssS'4iLqG9SeJSnt0cSPICSjxv'
p2763
(dp2764
g3
S'Charlie Puth'
p2765
sg5
I25
sg6
S'https://open.spotify.com/track/4iLqG9SeJSnt0cSPICSjxv'
p2766
sg8
S'Attention'
p2767
ssS'4tCtwWceOPWzenK2HAIJSb'
p2768
(dp2769
g3
S'Fifth Harmony'
p2770
sg5
I26
sg6
S'https://open.spotify.com/track/4tCtwWceOPWzenK2HAIJSb'
p2771
sg8
S'Work from Home'
p2772
ssS'6RUKPb4LETWmmr3iAEQktW'
p2773
(dp2774
g3
S'The Chainsmokers'
p2775
sg5
I34
sg6
S'https://open.spotify.com/track/6RUKPb4LETWmmr3iAEQktW'
p2776
sg8
S'Something Just Like This'
p2777
ssS'3FQCJI2t5LTbsRPfYVBSVB'
p2778
(dp2779
g3
S'Linkin Park'
p2780
sg5
I1
sg6
S'https://open.spotify.com/track/3FQCJI2t5LTbsRPfYVBSVB'
p2781
sg8
S'Battle Symphony'
p2782
ssS'0VhgEqMTNZwYL1ARDLLNCX'
p2783
(dp2784
g3
S'James Arthur'
p2785
sg5
I16
sg6
S'https://open.spotify.com/track/0VhgEqMTNZwYL1ARDLLNCX'
p2786
sg8
S'Can I Be Him'
p2787
ssS'2CPqh63wRVscbceKcPxwvv'
p2788
(dp2789
g3
S'Mike Perry'
p2790
sg5
I10
sg6
S'https://open.spotify.com/track/2CPqh63wRVscbceKcPxwvv'
p2791
sg8
S'The Ocean'
p2792
ssS'5abwHwUhywLGNli5NDcEN7'
p2793
(dp2794
g3
S'Thomas Gold'
p2795
sg5
I5
sg6
S'https://open.spotify.com/track/5abwHwUhywLGNli5NDcEN7'
p2796
sg8
S'Magic'
p2797
ssS'0ofbQMrRDsUaVKq2mGLEAb'
p2798
(dp2799
g3
S'Camila Cabello'
p2800
sg5
I10
sg6
S'https://open.spotify.com/track/0ofbQMrRDsUaVKq2mGLEAb'
p2801
sg8
S'Havana'
p2802
ssS'1xznGGDReH1oQq0xzbwXa3'
p2803
(dp2804
g3
S'Drake'
p2805
sg5
I23
sg6
S'https://open.spotify.com/track/1xznGGDReH1oQq0xzbwXa3'
p2806
sg8
S'One Dance'
p2807
ssS'5GXAXm5YOmYT0kL5jHvYBt'
p2808
(dp2809
g3
S'The Weeknd'
p2810
sg5
I23
sg6
S'https://open.spotify.com/track/5GXAXm5YOmYT0kL5jHvYBt'
p2811
sg8
S'I Feel It Coming'
p2812
ssS'6IZvVAP7VPPnsGX6bvgkqg'
p2813
(dp2814
g3
S'Kendrick Lamar'
p2815
sg5
I1
sg6
S'https://open.spotify.com/track/6IZvVAP7VPPnsGX6bvgkqg'
p2816
sg8
S'PRIDE.'
p2817
ssS'4ai7c2BUjNpElhZdZDH7qF'
p2818
(dp2819
g3
S'Inigo Pascual'
p2820
sg5
I38
sg6
S'https://open.spotify.com/track/4ai7c2BUjNpElhZdZDH7qF'
p2821
sg8
S"Dahil Sa'Yo"
p2822
ssS'508hbpTQ7wclT2JDpKBUSV'
p2823
(dp2824
g3
S'Lorde'
p2825
sg5
I1
sg6
S'https://open.spotify.com/track/508hbpTQ7wclT2JDpKBUSV'
p2826
sg8
S'Perfect Places'
p2827
ssS'31L9yLXSj6LpCFupyMV6CR'
p2828
(dp2829
g3
S'Coldplay'
p2830
sg5
I1
sg6
S'https://open.spotify.com/track/31L9yLXSj6LpCFupyMV6CR'
p2831
sg8
S'Up&Up'
p2832
ssS'3l8yQMdniG6Os8gUBNXV57'
p2833
(dp2834
g3
S'BTS'
p2835
sg5
I2
sg6
S'https://open.spotify.com/track/3l8yQMdniG6Os8gUBNXV57'
p2836
sg8
S'Outro: Her'
p2837
ssS'0HMjXBAZmSYOTTi33WpMso'
p2838
(dp2839
g3
S'One Direction'
p2840
sg5
I14
sg6
S'https://open.spotify.com/track/0HMjXBAZmSYOTTi33WpMso'
p2841
sg8
S'History'
p2842
ssS'51ChrwmUPDJvedPQnIU8Ls'
p2843
(dp2844
g3
S'Ed Sheeran'
p2845
sg5
I32
sg6
S'https://open.spotify.com/track/51ChrwmUPDJvedPQnIU8Ls'
p2846
sg8
S'Dive'
p2847
ssS'6jA8HL9i4QGzsj6fjoxp8Y'
p2848
(dp2849
g3
S'Martin Garrix'
p2850
sg5
I20
sg6
S'https://open.spotify.com/track/6jA8HL9i4QGzsj6fjoxp8Y'
p2851
sg8
S'There for You'
p2852
ssS'1CUVN2kn7mW5FjkqXTR2W1'
p2853
(dp2854
g3
S'Jonas Blue'
p2855
sg5
I27
sg6
S'https://open.spotify.com/track/1CUVN2kn7mW5FjkqXTR2W1'
p2856
sg8
S'Perfect Strangers'
p2857
ssS'0SGkqnVQo9KPytSri1H6cF'
p2858
(dp2859
g3
S'Big Sean'
p2860
sg5
I4
sg6
S'https://open.spotify.com/track/0SGkqnVQo9KPytSri1H6cF'
p2861
sg8
S'Bounce Back'
p2862
ssS'0JiVRyTJcJnmlwCZ854K4p'
p2863
(dp2864
g3
S'Alan Walker'
p2865
sg5
I5
sg6
S'https://open.spotify.com/track/0JiVRyTJcJnmlwCZ854K4p'
p2866
sg8
S'Alone'
p2867
ssS'27SdWb2rFzO6GWiYDBTD9j'
p2868
(dp2869
g3
S'Sia'
p2870
sg5
I10
sg6
S'https://open.spotify.com/track/27SdWb2rFzO6GWiYDBTD9j'
p2871
sg8
S'Cheap Thrills'
p2872
ssS'5xhJmd0I15jFcEdqxfCzKk'
p2873
(dp2874
g3
S'The Chainsmokers'
p2875
sg5
I1
sg6
S'https://open.spotify.com/track/5xhJmd0I15jFcEdqxfCzKk'
p2876
sg8
S"It Won't Kill Ya"
p2877
ssS'5dQJKDx0x73seZbwSORa1T'
p2878
(dp2879
g3
S'The Vamps'
p2880
sg5
I10
sg6
S'https://open.spotify.com/track/5dQJKDx0x73seZbwSORa1T'
p2881
sg8
S'Middle Of The Night'
p2882
ssS'6PJ8FF6UR8FZXfEvpHkIVN'
p2883
(dp2884
g3
S'Ed Sheeran'
p2885
sg5
I27
sg6
S'https://open.spotify.com/track/6PJ8FF6UR8FZXfEvpHkIVN'
p2886
sg8
S'How Would You Feel (Paean)'
p2887
ssS'5uCax9HTNlzGybIStD3vDh'
p2888
(dp2889
g3
S'James Arthur'
p2890
sg5
I42
sg6
S'https://open.spotify.com/track/5uCax9HTNlzGybIStD3vDh'
p2891
sg8
S"Say You Won't Let Go"
p2892
ssS'7qiZfU4dY1lWllzX7mPBI3'
p2893
(dp2894
g3
S'Ed Sheeran'
p2895
sg5
I40
sg6
S'https://open.spotify.com/track/7qiZfU4dY1lWllzX7mPBI3'
p2896
sg8
S'Shape of You'
p2897
ssS'0wfbD5rAksdXUzRvMfM3x5'
p2898
(dp2899
g3
S'The Chainsmokers'
p2900
sg5
I15
sg6
S'https://open.spotify.com/track/0wfbD5rAksdXUzRvMfM3x5'
p2901
sg8
S'The One'
p2902
ssS'0q75NwOoFiARAVp4EXU4Bs'
p2903
(dp2904
g3
S'SZA'
p2905
sg5
I4
sg6
S'https://open.spotify.com/track/0q75NwOoFiARAVp4EXU4Bs'
p2906
sg8
S'Love Galore'
p2907
ssS'2fQrGHiQOvpL9UgPvtYy6G'
p2908
(dp2909
g3
S'21 Savage'
p2910
sg5
I3
sg6
S'https://open.spotify.com/track/2fQrGHiQOvpL9UgPvtYy6G'
p2911
sg8
S'Bank Account'
p2912
ssS'1yFiaFeSLpw4nDYTeErRZ6'
p2913
(dp2914
g3
S'Linkin Park'
p2915
sg5
I1
sg6
S'https://open.spotify.com/track/1yFiaFeSLpw4nDYTeErRZ6'
p2916
sg8
S'Leave Out All The Rest'
p2917
ssS'0LGCloCfw3fk1XQh0zbrs1'
p2918
(dp2919
g3
S'Mike Perry'
p2920
sg5
I1
sg6
S'https://open.spotify.com/track/0LGCloCfw3fk1XQh0zbrs1'
p2921
sg8
S'Hands'
p2922
ssS'2ZiNCGDMapQzMtnPRVOKZI'
p2923
(dp2924
g3
S'Sud'
p2925
sg5
I14
sg6
S'https://open.spotify.com/track/2ZiNCGDMapQzMtnPRVOKZI'
p2926
sg8
S'Di Makatulog'
p2927
ssS'7bsnTsbiwOymZWjPF9v6Di'
p2928
(dp2929
g3
S'Macklemore'
p2930
sg5
I2
sg6
S'https://open.spotify.com/track/7bsnTsbiwOymZWjPF9v6Di'
p2931
sg8
S'Marmalade (feat. Lil Yachty)'
p2932
ssS'1F2HXIJrE2Xn81OzT2zZvW'
p2933
(dp2934
g3
S'French Montana'
p2935
sg5
I10
sg6
S'https://open.spotify.com/track/1F2HXIJrE2Xn81OzT2zZvW'
p2936
sg8
S'Unforgettable'
p2937
ssS'6QgjcU0zLnzq5OrUoSZ3OK'
p2938
(dp2939
g3
S'Portugal. The Man'
p2940
sg5
I4
sg6
S'https://open.spotify.com/track/6QgjcU0zLnzq5OrUoSZ3OK'
p2941
sg8
S'Feel It Still'
p2942
ssS'78rIJddV4X0HkNAInEcYde'
p2943
(dp2944
g3
S'Starley'
p2945
sg5
I32
sg6
S'https://open.spotify.com/track/78rIJddV4X0HkNAInEcYde'
p2946
sg8
S'Call On Me - Ryan Riback Extended Remix'
p2947
ssS'0L7loeTIg6akW84aEQZpCT'
p2948
(dp2949
g3
S'Major Lazer'
p2950
sg5
I2
sg6
S'https://open.spotify.com/track/0L7loeTIg6akW84aEQZpCT'
p2951
sg8
S'Light It Up (feat. Nyla & Fuse ODG) - Remix'
p2952
ssS'4Q5yMlwAfAoitqg4r9oZHN'
p2953
(dp2954
g3
S'Cashmere Cat'
p2955
sg5
I9
sg6
S'https://open.spotify.com/track/4Q5yMlwAfAoitqg4r9oZHN'
p2956
sg8
S'Quit (feat. Ariana Grande)'
p2957
ssS'1Bqxj0aH5KewYHKUg1IdrF'
p2958
(dp2959
g3
S'G-Eazy'
p2960
sg5
I10
sg6
S'https://open.spotify.com/track/1Bqxj0aH5KewYHKUg1IdrF'
p2961
sg8
S'Some Kind Of Drug'
p2962
ssS'22BH6K8RlpwNzIINvWS4Jj'
p2963
(dp2964
g3
S'Bebe Rexha'
p2965
sg5
I4
sg6
S'https://open.spotify.com/track/22BH6K8RlpwNzIINvWS4Jj'
p2966
sg8
S'(Not) The One'
p2967
ssS'167NczpNbRF7oWakJaY3Hh'
p2968
(dp2969
g3
S'Niall Horan'
p2970
sg5
I23
sg6
S'https://open.spotify.com/track/167NczpNbRF7oWakJaY3Hh'
p2971
sg8
S'Slow Hands'
p2972
ssS'0or0gNaKAXYYCsOrpvRzAu'
p2973
(dp2974
g3
S'Lorde'
p2975
sg5
I2
sg6
S'https://open.spotify.com/track/0or0gNaKAXYYCsOrpvRzAu'
p2976
sg8
S'Liability'
p2977
ssS'1sTUEdVO85YU8Ymk2jeAls'
p2978
(dp2979
g3
S'MiC LOWRY'
p2980
sg5
I2
sg6
S'https://open.spotify.com/track/1sTUEdVO85YU8Ymk2jeAls'
p2981
sg8
S'Oh Lord'
p2982
ssS'6cREm4bV7V79Yxdilx9HDo'
p2983
(dp2984
g3
S'Timeflies'
p2985
sg5
I3
sg6
S'https://open.spotify.com/track/6cREm4bV7V79Yxdilx9HDo'
p2986
sg8
S'Once In a While'
p2987
ssS'53QF56cjZA9RTuuMZDrSA6'
p2988
(dp2989
g3
S'Jason Mraz'
p2990
sg5
I21
sg6
S'https://open.spotify.com/track/53QF56cjZA9RTuuMZDrSA6'
p2991
sg8
S"I Won't Give Up"
p2992
ssS'7yHEDfrJNd0zWOfXwydNH0'
p2993
(dp2994
g3
S'Ariana Grande'
p2995
sg5
I11
sg6
S'https://open.spotify.com/track/7yHEDfrJNd0zWOfXwydNH0'
p2996
sg8
S'Into You'
p2997
ssS'5kewTQfSwOhwYH2PrJDhEU'
p2998
(dp2999
g3
S'C\xc3\xa9line Dion'
p3000
sg5
I1
sg6
S'https://open.spotify.com/track/5kewTQfSwOhwYH2PrJDhEU'
p3001
sg8
S'Beauty and the Beast - Duet with Peabo Bryson from the Soundtrack Beauty and the Beast'
p3002
ssS'1lntL1cI2UIWlxjL5QiN8g'
p3003
(dp3004
g3
S'Lauv'
p3005
sg5
I36
sg6
S'https://open.spotify.com/track/1lntL1cI2UIWlxjL5QiN8g'
p3006
sg8
S'The Other'
p3007
ssS'0LtVx5vsq9nfpGsWgjUin6'
p3008
(dp3009
g3
S'Ryan Gosling'
p3010
sg5
I2
sg6
S'https://open.spotify.com/track/0LtVx5vsq9nfpGsWgjUin6'
p3011
sg8
S'City Of Stars - From La La Land Soundtrack'
p3012
ssS'4JSDhJVmo2UqdF7nxbyenn'
p3013
(dp3014
g3
S'Hale'
p3015
sg5
I11
sg6
S'https://open.spotify.com/track/4JSDhJVmo2UqdF7nxbyenn'
p3016
sg8
S'Kung Wala Ka'
p3017
ssS'1839RWzPRZCVgvamu4sHSN'
p3018
(dp3019
g3
S'Cash Cash'
p3020
sg5
I13
sg6
S'https://open.spotify.com/track/1839RWzPRZCVgvamu4sHSN'
p3021
sg8
S'All My Love (feat. Conor Maynard)'
p3022
ssS'3gyEt1vswIEbpQqBs18Lha'
p3023
(dp3024
g3
S'Parokya Ni Edgar'
p3025
sg5
I9
sg6
S'https://open.spotify.com/track/3gyEt1vswIEbpQqBs18Lha'
p3026
sg8
S'Harana'
p3027
ssS'6sxTH1KkX0gdAVWLjleobR'
p3028
(dp3029
g3
S'LANY'
p3030
sg5
I1
sg6
S'https://open.spotify.com/track/6sxTH1KkX0gdAVWLjleobR'
p3031
sg8
S'The Breakup'
p3032
ssS'1HwpWwa6bnqqRhK8agG4RS'
p3033
(dp3034
g3
S'Jesse McCartney'
p3035
sg5
I42
sg6
S'https://open.spotify.com/track/1HwpWwa6bnqqRhK8agG4RS'
p3036
sg8
S'Beautiful Soul'
p3037
ssS'7rQ7daaKRFhCz0TgFgAzU2'
p3038
(dp3039
g3
S'Dawin'
p3040
sg5
I19
sg6
S'https://open.spotify.com/track/7rQ7daaKRFhCz0TgFgAzU2'
p3041
sg8
S'Sidekick'
p3042
ssS'11KJSRSgaDxqydKYiD2Jew'
p3043
(dp3044
g3
S'Drake'
p3045
sg5
I2
sg6
S'https://open.spotify.com/track/11KJSRSgaDxqydKYiD2Jew'
p3046
sg8
S'Too Good'
p3047
ssS'4FdQYoWFym37QDQ2GkEHi1'
p3048
(dp3049
g3
S'Michael Pangilinan'
p3050
sg5
I2
sg6
S'https://open.spotify.com/track/4FdQYoWFym37QDQ2GkEHi1'
p3051
sg8
S'It Might Be You - Theme from Everyday I Love You'
p3052
ssS'1yNyoWWWikbLhwIGWjZuDW'
p3053
(dp3054
g3
S'The Vamps'
p3055
sg5
I27
sg6
S'https://open.spotify.com/track/1yNyoWWWikbLhwIGWjZuDW'
p3056
sg8
S'All Night'
p3057
ssS'26AuyrZGzWWiYZPSd3XBIg'
p3058
(dp3059
g3
S'The Chainsmokers'
p3060
sg5
I1
sg6
S'https://open.spotify.com/track/26AuyrZGzWWiYZPSd3XBIg'
p3061
sg8
S'Bloodstream'
p3062
ssS'4vb4mFvYsr2h6enhjJsq9Y'
p3063
(dp3064
g3
S'Adele'
p3065
sg5
I12
sg6
S'https://open.spotify.com/track/4vb4mFvYsr2h6enhjJsq9Y'
p3066
sg8
S'Water Under the Bridge'
p3067
ssS'2kVHAQKVtczchKctctzbtK'
p3068
(dp3069
g3
S'Katy Perry'
p3070
sg5
I5
sg6
S'https://open.spotify.com/track/2kVHAQKVtczchKctctzbtK'
p3071
sg8
S'Swish Swish'
p3072
ssS'17Fd6Yb7mSbinKG8LoWfFl'
p3073
(dp3074
g3
S'Mike Posner'
p3075
sg5
I11
sg6
S'https://open.spotify.com/track/17Fd6Yb7mSbinKG8LoWfFl'
p3076
sg8
S'I Took A Pill In Ibiza - Seeb Remix'
p3077
ssS'7zTx8ePYAmPFQuxP3xlXZn'
p3078
(dp3079
g3
S'San Holo'
p3080
sg5
I8
sg6
S'https://open.spotify.com/track/7zTx8ePYAmPFQuxP3xlXZn'
p3081
sg8
S'Light'
p3082
ssS'29xs643Q96uQLD8f7SxYYw'
p3083
(dp3084
g3
S'Silent Sanctuary'
p3085
sg5
I42
sg6
S'https://open.spotify.com/track/29xs643Q96uQLD8f7SxYYw'
p3086
sg8
S"Sa'yo"
p3087
ssS'7iz4bsfPOrK9wzhXkgUfya'
p3088
(dp3089
g3
S'Katy Perry'
p3090
sg5
I1
sg6
S'https://open.spotify.com/track/7iz4bsfPOrK9wzhXkgUfya'
p3091
sg8
S'Witness'
p3092
ssS'3uB6rxXYjmMEhOVJT763S6'
p3093
(dp3094
g3
S'Matoma'
p3095
sg5
I2
sg6
S'https://open.spotify.com/track/3uB6rxXYjmMEhOVJT763S6'
p3096
sg8
S'Staying Up'
p3097
ssS'3VcVQmMivq2ISfKUmIuvMK'
p3098
(dp3099
g3
S'South Border'
p3100
sg5
I42
sg6
S'https://open.spotify.com/track/3VcVQmMivq2ISfKUmIuvMK'
p3101
sg8
S'Rainbow'
p3102
ssS'5nq1uTNIR1cBR72T87viS0'
p3103
(dp3104
g3
S'BTS'
p3105
sg5
I4
sg6
S'https://open.spotify.com/track/5nq1uTNIR1cBR72T87viS0'
p3106
sg8
S'Go Go'
p3107
ssS'7mldq42yDuxiUNn08nvzHO'
p3108
(dp3109
g3
S'Sam Hunt'
p3110
sg5
I5
sg6
S'https://open.spotify.com/track/7mldq42yDuxiUNn08nvzHO'
p3111
sg8
S'Body Like A Back Road'
p3112
ssS'3hB5DgAiMAQ4DzYbsMq1IT'
p3113
(dp3114
g3
S'Justin Bieber'
p3115
sg5
I42
sg6
S'https://open.spotify.com/track/3hB5DgAiMAQ4DzYbsMq1IT'
p3116
sg8
S'Love Yourself'
p3117
ssS'5jx8tCxiO0uIbo2uNia23K'
p3118
(dp3119
g3
S'Katy Perry'
p3120
sg5
I10
sg6
S'https://open.spotify.com/track/5jx8tCxiO0uIbo2uNia23K'
p3121
sg8
S'The One That Got Away - Acoustic'
p3122
ssS'32OWobmyAz8J2qA8iWekyS'
p3123
(dp3124
g3
S'Justin Bieber'
p3125
sg5
I1
sg6
S'https://open.spotify.com/track/32OWobmyAz8J2qA8iWekyS'
p3126
sg8
S'Mistletoe'
p3127
ssS'6XOYVSmNDjKUNMXooU4s4z'
p3128
(dp3129
g3
S'OneRepublic'
p3130
sg5
I9
sg6
S'https://open.spotify.com/track/6XOYVSmNDjKUNMXooU4s4z'
p3131
sg8
S'No Vacancy'
p3132
ssS'6PGoSes0D9eUDeeAafB2As'
p3133
(dp3134
g3
S'Kendrick Lamar'
p3135
sg5
I6
sg6
S'https://open.spotify.com/track/6PGoSes0D9eUDeeAafB2As'
p3136
sg8
S'LOVE. FEAT. ZACARI.'
p3137
ssS'1lItf5ZXJc1by9SbPeljFd'
p3138
(dp3139
g3
S'Zay Hilfigerrr'
p3140
sg5
I7
sg6
S'https://open.spotify.com/track/1lItf5ZXJc1by9SbPeljFd'
p3141
sg8
S'Juju On That Beat (TZ Anthem)'
p3142
ssS'6MrDG2mrajvQqZBavSJbP6'
p3143
(dp3144
g3
S'Charice'
p3145
sg5
I1
sg6
S'https://open.spotify.com/track/6MrDG2mrajvQqZBavSJbP6'
p3146
sg8
S"Sometimes Love Just Ain't Enough"
p3147
ss.