(dp0
S'0mel2N9Ws9r4yLQn5QE21Y'
p1
(dp2
S'artistName'
p3
S'Sam Smith'
p4
sS'weeksOnChart'
p5
I5
sS'track_href'
p6
S'https://open.spotify.com/track/0mel2N9Ws9r4yLQn5QE21Y'
p7
sS'songName'
p8
S'Too Good At Goodbyes'
p9
ssS'728zbo72kOoYdGR3AhNsyF'
p10
(dp11
g3
S'The xx'
p12
sg5
I3
sg6
S'https://open.spotify.com/track/728zbo72kOoYdGR3AhNsyF'
p13
sg8
S'Say Something Loving'
p14
ssS'13e6f8t7RKXuxZ0JdaaJRG'
p15
(dp16
g3
S'Drake'
p17
sg5
I6
sg6
S'https://open.spotify.com/track/13e6f8t7RKXuxZ0JdaaJRG'
p18
sg8
S'Jorja Interlude'
p19
ssS'0jdny0dhgjUwoIp5GkqEaA'
p20
(dp21
g3
S'Kesha'
p22
sg5
I7
sg6
S'https://open.spotify.com/track/0jdny0dhgjUwoIp5GkqEaA'
p23
sg8
S'Praying'
p24
ssS'60a0Rd6pjrkxjPbaKzXjfq'
p25
(dp26
g3
S'Linkin Park'
p27
sg5
I4
sg6
S'https://open.spotify.com/track/60a0Rd6pjrkxjPbaKzXjfq'
p28
sg8
S'In The End'
p29
ssS'4WiiRw2PHMNQE0ad6y6GdD'
p30
(dp31
g3
S'The 1975'
p32
sg5
I13
sg6
S'https://open.spotify.com/track/4WiiRw2PHMNQE0ad6y6GdD'
p33
sg8
S'Chocolate'
p34
ssS'0prNGof3XqfTvNDxHonvdK'
p35
(dp36
g3
S'Alessia Cara'
p37
sg5
I9
sg6
S'https://open.spotify.com/track/0prNGof3XqfTvNDxHonvdK'
p38
sg8
S'Scars To Your Beautiful'
p39
ssS'5Ih40KFkj3cSzxgisQxBvX'
p40
(dp41
g3
S'Liam Gallagher'
p42
sg5
I1
sg6
S'https://open.spotify.com/track/5Ih40KFkj3cSzxgisQxBvX'
p43
sg8
S"For What It's Worth"
p44
ssS'1pJQAHpD51J7GYaFrrFO9S'
p45
(dp46
g3
S'The Chainsmokers'
p47
sg5
I1
sg6
S'https://open.spotify.com/track/1pJQAHpD51J7GYaFrrFO9S'
p48
sg8
S"Don't Say"
p49
ssS'6HUnnBwYZqcED1eQztxMBN'
p50
(dp51
g3
S'Martin Jensen'
p52
sg5
I40
sg6
S'https://open.spotify.com/track/6HUnnBwYZqcED1eQztxMBN'
p53
sg8
S'Solo Dance'
p54
ssS'6hmhG1b4LEyNuashVvuIAo'
p55
(dp56
g3
S'Zara Larsson'
p57
sg5
I2
sg6
S'https://open.spotify.com/track/6hmhG1b4LEyNuashVvuIAo'
p58
sg8
S'Never Forget You'
p59
ssS'11bD1JtSjlIgKgZG2134DZ'
p60
(dp61
g3
S'Snow Patrol'
p62
sg5
I14
sg6
S'https://open.spotify.com/track/11bD1JtSjlIgKgZG2134DZ'
p63
sg8
S'Chasing Cars'
p64
ssS'3EkWIBCeVr5rwG3IiuT7RZ'
p65
(dp66
g3
S'Giggs'
p67
sg5
I1
sg6
S'https://open.spotify.com/track/3EkWIBCeVr5rwG3IiuT7RZ'
p68
sg8
S'Straight Lifestyle'
p69
ssS'3QWjljChcOMkRDYSzF33Qr'
p70
(dp71
g3
S'Kiiara'
p72
sg5
I1
sg6
S'https://open.spotify.com/track/3QWjljChcOMkRDYSzF33Qr'
p73
sg8
S'Whippin (feat. Felix Snow)'
p74
ssS'7lxZbmtC6SkUc2yXBgDOdO'
p75
(dp76
g3
S'DJ Khaled'
p77
sg5
I1
sg6
S'https://open.spotify.com/track/7lxZbmtC6SkUc2yXBgDOdO'
p78
sg8
S'On Everything'
p79
ssS'0lLdorYw7lVrJydTINhWdI'
p80
(dp81
g3
S'Michael Bubl\xc3\xa9'
p82
sg5
I1
sg6
S'https://open.spotify.com/track/0lLdorYw7lVrJydTINhWdI'
p83
sg8
S"It's Beginning To Look A Lot Like Christmas"
p84
ssS'1OAh8uOEOvTDqkKFsKksCi'
p85
(dp86
g3
S'DJ Khaled'
p87
sg5
I17
sg6
S'https://open.spotify.com/track/1OAh8uOEOvTDqkKFsKksCi'
p88
sg8
S'Wild Thoughts'
p89
ssS'5UCsGZSezdlGA1bY3QMgXG'
p90
(dp91
g3
S'The xx'
p92
sg5
I1
sg6
S'https://open.spotify.com/track/5UCsGZSezdlGA1bY3QMgXG'
p93
sg8
S'Performance'
p94
ssS'6yf3MxEOScNBTYCHOAIiNQ'
p95
(dp96
g3
S'Jax Jones'
p97
sg5
I1
sg6
S'https://open.spotify.com/track/6yf3MxEOScNBTYCHOAIiNQ'
p98
sg8
S'Instruction (feat. Demi Lovato & Stefflon Don)'
p99
ssS'4b4KcovePX8Ke2cLIQTLM0'
p100
(dp101
g3
S'The Vamps'
p102
sg5
I7
sg6
S'https://open.spotify.com/track/4b4KcovePX8Ke2cLIQTLM0'
p103
sg8
S'All Night'
p104
ssS'7wGoVu4Dady5GV0Sv4UIsx'
p105
(dp106
g3
S'Post Malone'
p107
sg5
I1
sg6
S'https://open.spotify.com/track/7wGoVu4Dady5GV0Sv4UIsx'
p108
sg8
S'rockstar'
p109
ssS'7KcGEssn7BnJdTgildK5y0'
p110
(dp111
g3
S'Nicki Minaj'
p112
sg5
I3
sg6
S'https://open.spotify.com/track/7KcGEssn7BnJdTgildK5y0'
p113
sg8
S'No Frauds'
p114
ssS'1CnPYaKxTVb4LWOtiGOm0m'
p115
(dp116
g3
S'Jon Bellion'
p117
sg5
I17
sg6
S'https://open.spotify.com/track/1CnPYaKxTVb4LWOtiGOm0m'
p118
sg8
S'All Time Low'
p119
ssS'4OZEu0Vwq0RB2LAq14v99n'
p120
(dp121
g3
S'DJ Snake'
p122
sg5
I1
sg6
S'https://open.spotify.com/track/4OZEu0Vwq0RB2LAq14v99n'
p123
sg8
S'Middle'
p124
ssS'5Ber68jZ7ytegr2UISEdb7'
p125
(dp126
g3
S'Michael Bubl\xc3\xa9'
p127
sg5
I1
sg6
S'https://open.spotify.com/track/5Ber68jZ7ytegr2UISEdb7'
p128
sg8
S'Santa Claus Is Coming To Town'
p129
ssS'1D6nV9TPfMnWm7UdVsDVfI'
p130
(dp131
g3
S'George Michael'
p132
sg5
I2
sg6
S'https://open.spotify.com/track/1D6nV9TPfMnWm7UdVsDVfI'
p133
sg8
S"Freedom! '90"
p134
ssS'7BHPGtpuuWWsvE7cCaMuEU'
p135
(dp136
g3
S'The Kooks'
p137
sg5
I41
sg6
S'https://open.spotify.com/track/7BHPGtpuuWWsvE7cCaMuEU'
p138
sg8
S'Naive'
p139
ssS'2RJfK2pOvGpnxC255YOy5k'
p140
(dp141
g3
S'Paramore'
p142
sg5
I1
sg6
S'https://open.spotify.com/track/2RJfK2pOvGpnxC255YOy5k'
p143
sg8
S'Rose-Colored Boy'
p144
ssS'5x8W6iNXDCQrHp1DF5j4UW'
p145
(dp146
g3
S'Nicki Minaj'
p147
sg5
I1
sg6
S'https://open.spotify.com/track/5x8W6iNXDCQrHp1DF5j4UW'
p148
sg8
S'Regret In Your Tears'
p149
ssS'3qLwtC9jEWugjkzyZlYgeg'
p150
(dp151
g3
S'The xx'
p152
sg5
I1
sg6
S'https://open.spotify.com/track/3qLwtC9jEWugjkzyZlYgeg'
p153
sg8
S'Test Me'
p154
ssS'2FRnf9qhLbvw8fu4IBXx78'
p155
(dp156
g3
S'Wham!'
p157
sg5
I1
sg6
S'https://open.spotify.com/track/2FRnf9qhLbvw8fu4IBXx78'
p158
sg8
S'Last Christmas'
p159
ssS'7tr2za8SQg2CI8EDgrdtNl'
p160
(dp161
g3
S'Calvin Harris'
p162
sg5
I29
sg6
S'https://open.spotify.com/track/7tr2za8SQg2CI8EDgrdtNl'
p163
sg8
S'Slide'
p164
ssS'0Ie5uiv54KgCr7P4sYDTHl'
p165
(dp166
g3
S'Idina Menzel'
p167
sg5
I1
sg6
S'https://open.spotify.com/track/0Ie5uiv54KgCr7P4sYDTHl'
p168
sg8
S"Baby It's Cold Outside (duet with Michael Bubl\xc3\xa9)"
p169
ssS'0rurOLe6Zi1jl1fbf586vW'
p170
(dp171
g3
S'HAIM'
p172
sg5
I1
sg6
S'https://open.spotify.com/track/0rurOLe6Zi1jl1fbf586vW'
p173
sg8
S"Nothing's Wrong"
p174
ssS'3AgiRs3oxc2dFh0CPUHXJs'
p175
(dp176
g3
S'Cliff Richard'
p177
sg5
I1
sg6
S'https://open.spotify.com/track/3AgiRs3oxc2dFh0CPUHXJs'
p178
sg8
S'Mistletoe and Wine'
p179
ssS'7EGaZUlQ72lBZkIcInlCye'
p180
(dp181
g3
S'Krept & Konan'
p182
sg5
I2
sg6
S'https://open.spotify.com/track/7EGaZUlQ72lBZkIcInlCye'
p183
sg8
S'Wo Wo Wo'
p184
ssS'25khomWgBVamSdKw7hzm3l'
p185
(dp186
g3
S'The Weeknd'
p187
sg5
I1
sg6
S'https://open.spotify.com/track/25khomWgBVamSdKw7hzm3l'
p188
sg8
S'The Hills'
p189
ssS'06FCvd7rrRcF3DdvWH5Isp'
p190
(dp191
g3
S'Kendrick Lamar'
p192
sg5
I4
sg6
S'https://open.spotify.com/track/06FCvd7rrRcF3DdvWH5Isp'
p193
sg8
S'LUST.'
p194
ssS'4pLwZjInHj3SimIyN9SnOz'
p195
(dp196
g3
S'Ariana Grande'
p197
sg5
I35
sg6
S'https://open.spotify.com/track/4pLwZjInHj3SimIyN9SnOz'
p198
sg8
S'Side To Side'
p199
ssS'6C7RJEIUDqKkJRZVWdkfkH'
p200
(dp201
g3
S'Kanye West'
p202
sg5
I40
sg6
S'https://open.spotify.com/track/6C7RJEIUDqKkJRZVWdkfkH'
p203
sg8
S'Stronger'
p204
ssS'5ooilrQAnOJbUjq7IDm8lY'
p205
(dp206
g3
S'James Arthur'
p207
sg5
I12
sg6
S'https://open.spotify.com/track/5ooilrQAnOJbUjq7IDm8lY'
p208
sg8
S'Safe Inside'
p209
ssS'3E2Zh20GDCR9B1EYjfXWyv'
p210
(dp211
g3
S'AJR'
p212
sg5
I16
sg6
S'https://open.spotify.com/track/3E2Zh20GDCR9B1EYjfXWyv'
p213
sg8
S'Weak'
p214
ssS'2Gl0FzuLxflY6nPifJp5Dr'
p215
(dp216
g3
S'Kygo'
p217
sg5
I19
sg6
S'https://open.spotify.com/track/2Gl0FzuLxflY6nPifJp5Dr'
p218
sg8
S'First Time'
p219
ssS'78I628ipFGe8v3d9dbM4Xv'
p220
(dp221
g3
S'Liam Gallagher'
p222
sg5
I1
sg6
S'https://open.spotify.com/track/78I628ipFGe8v3d9dbM4Xv'
p223
sg8
S'I Get By'
p224
ssS'0CcQNd8CINkwQfe1RDtGV6'
p225
(dp226
g3
S'Imagine Dragons'
p227
sg5
I33
sg6
S'https://open.spotify.com/track/0CcQNd8CINkwQfe1RDtGV6'
p228
sg8
S'Believer'
p229
ssS'1KgfeuVn5OlsBEtoEmBa1t'
p230
(dp231
g3
S'Oasis'
p232
sg5
I5
sg6
S'https://open.spotify.com/track/1KgfeuVn5OlsBEtoEmBa1t'
p233
sg8
S'Live Forever'
p234
ssS'4BHzQ9C00ceJxfG16AlNWb'
p235
(dp236
g3
S'Adele'
p237
sg5
I10
sg6
S'https://open.spotify.com/track/4BHzQ9C00ceJxfG16AlNWb'
p238
sg8
S'Send My Love (To Your New Lover)'
p239
ssS'4Km5HrUvYTaSUfiSGPJeQR'
p240
(dp241
g3
S'Migos'
p242
sg5
I33
sg6
S'https://open.spotify.com/track/4Km5HrUvYTaSUfiSGPJeQR'
p243
sg8
S'Bad and Boujee (feat. Lil Uzi Vert)'
p244
ssS'50PWlIBU7PlGGwzgN8TiFJ'
p245
(dp246
g3
S'Lady Gaga'
p247
sg5
I3
sg6
S'https://open.spotify.com/track/50PWlIBU7PlGGwzgN8TiFJ'
p248
sg8
S'Million Reasons'
p249
ssS'1TZO2mDQN2RzcsSIAITAas'
p250
(dp251
g3
S'London Grammar'
p252
sg5
I1
sg6
S'https://open.spotify.com/track/1TZO2mDQN2RzcsSIAITAas'
p253
sg8
S'Big Picture'
p254
ssS'2RttW7RAu5nOAfq6YFvApB'
p255
(dp256
g3
S'Ed Sheeran'
p257
sg5
I32
sg6
S'https://open.spotify.com/track/2RttW7RAu5nOAfq6YFvApB'
p258
sg8
S'Happier'
p259
ssS'6oJDn0g1qyoEozMqRLWZTq'
p260
(dp261
g3
S'J HUS'
p262
sg5
I1
sg6
S'https://open.spotify.com/track/6oJDn0g1qyoEozMqRLWZTq'
p263
sg8
S'Mash Up'
p264
ssS'5LYQSNHZxEA880URXFHg6h'
p265
(dp266
g3
S'Lana Del Rey'
p267
sg5
I4
sg6
S'https://open.spotify.com/track/5LYQSNHZxEA880URXFHg6h'
p268
sg8
S'Lust for Life (with The Weeknd)'
p269
ssS'3EmmCZoqpWOTY1g2GBwJoR'
p270
(dp271
g3
S'Steve Aoki'
p272
sg5
I18
sg6
S'https://open.spotify.com/track/3EmmCZoqpWOTY1g2GBwJoR'
p273
sg8
S'Just Hold On'
p274
ssS'3YQUpKTmtgPJf8u6ooi9KA'
p275
(dp276
g3
S'Elton John'
p277
sg5
I1
sg6
S'https://open.spotify.com/track/3YQUpKTmtgPJf8u6ooi9KA'
p278
sg8
S'Step Into Christmas'
p279
ssS'6u0oHknFYrnUd42A6rvFly'
p280
(dp281
g3
S'Ed Sheeran'
p282
sg5
I4
sg6
S'https://open.spotify.com/track/6u0oHknFYrnUd42A6rvFly'
p283
sg8
S'Sing'
p284
ssS'5zOnoB8FdZudDcPX4O8WqF'
p285
(dp286
g3
S'Sampha'
p287
sg5
I2
sg6
S'https://open.spotify.com/track/5zOnoB8FdZudDcPX4O8WqF'
p288
sg8
S'(No One Knows Me) Like the Piano'
p289
ssS'6MuPXPhS3MtWt9YTrQwqqC'
p290
(dp291
g3
S'Lily Allen'
p292
sg5
I1
sg6
S'https://open.spotify.com/track/6MuPXPhS3MtWt9YTrQwqqC'
p293
sg8
S'Somewhere Only We Know'
p294
ssS'20dP2DaMHIAmwWAbp7peSr'
p295
(dp296
g3
S'Young Thug'
p297
sg5
I6
sg6
S'https://open.spotify.com/track/20dP2DaMHIAmwWAbp7peSr'
p298
sg8
S'pick up the phone'
p299
ssS'08Wc3X7XNSyF8WYBPt2L8E'
p300
(dp301
g3
S'Calvin Harris'
p302
sg5
I1
sg6
S'https://open.spotify.com/track/08Wc3X7XNSyF8WYBPt2L8E'
p303
sg8
S'Holiday'
p304
ssS'54LGxQGf5LPXNGjtzDZ5IE'
p305
(dp306
g3
S'Zara Larsson'
p307
sg5
I7
sg6
S'https://open.spotify.com/track/54LGxQGf5LPXNGjtzDZ5IE'
p308
sg8
S'So Good'
p309
ssS'7py16W5fWYLFFS6BElKAjn'
p310
(dp311
g3
S'Clean Bandit'
p312
sg5
I2
sg6
S'https://open.spotify.com/track/7py16W5fWYLFFS6BElKAjn'
p313
sg8
S'Tears (feat. Louisa Johnson)'
p314
ssS'5dNfHmqgr128gMY2tc5CeJ'
p315
(dp316
g3
S'R. Kelly'
p317
sg5
I42
sg6
S'https://open.spotify.com/track/5dNfHmqgr128gMY2tc5CeJ'
p318
sg8
S'Ignition - Remix'
p319
ssS'1v3bR4v6SruaE8efrTUqqp'
p320
(dp321
g3
S'Dua Lipa'
p322
sg5
I1
sg6
S'https://open.spotify.com/track/1v3bR4v6SruaE8efrTUqqp'
p323
sg8
S'Lost In Your Light (feat. Miguel)'
p324
ssS'4xlrALxuaCf9yZBHJeTSG6'
p325
(dp326
g3
S'Jonas Blue'
p327
sg5
I9
sg6
S'https://open.spotify.com/track/4xlrALxuaCf9yZBHJeTSG6'
p328
sg8
S'Mama'
p329
ssS'6Nle9hKrkL1wQpwNfEkxjh'
p330
(dp331
g3
S'Frank Ocean'
p332
sg5
I5
sg6
S'https://open.spotify.com/track/6Nle9hKrkL1wQpwNfEkxjh'
p333
sg8
S'Chanel'
p334
ssS'4izg6Hydc6XGErWW6nbdsV'
p335
(dp336
g3
S'Imagine Dragons'
p337
sg5
I2
sg6
S'https://open.spotify.com/track/4izg6Hydc6XGErWW6nbdsV'
p338
sg8
S'Whatever It Takes'
p339
ssS'77QtEQXWDswYVx1kwxLMU9'
p340
(dp341
g3
S'Lotto Boyzz'
p342
sg5
I13
sg6
S'https://open.spotify.com/track/77QtEQXWDswYVx1kwxLMU9'
p343
sg8
S'No Don'
p344
ssS'1w5sLDYzYAGI0AkLc6FPlO'
p345
(dp346
g3
S'Bob Marley & The Wailers'
p347
sg5
I1
sg6
S'https://open.spotify.com/track/1w5sLDYzYAGI0AkLc6FPlO'
p348
sg8
S'Is This Love - Remix'
p349
ssS'3pzjHKrQSvXGHQ98dx18HI'
p350
(dp351
g3
S'Justin Bieber'
p352
sg5
I16
sg6
S'https://open.spotify.com/track/3pzjHKrQSvXGHQ98dx18HI'
p353
sg8
S'What Do You Mean?'
p354
ssS'000xQL6tZNLJzIrtIgxqSl'
p355
(dp356
g3
S'ZAYN'
p357
sg5
I29
sg6
S'https://open.spotify.com/track/000xQL6tZNLJzIrtIgxqSl'
p358
sg8
S'Still Got Time'
p359
ssS'2FBUoWkIuQXwayw2RNo5l6'
p360
(dp361
g3
S'Drake'
p362
sg5
I4
sg6
S'https://open.spotify.com/track/2FBUoWkIuQXwayw2RNo5l6'
p363
sg8
S'Hotline Bling'
p364
ssS'7cQMJ0wDqVS5iM0JIvP6Ay'
p365
(dp366
g3
S'Fall Out Boy'
p367
sg5
I3
sg6
S'https://open.spotify.com/track/7cQMJ0wDqVS5iM0JIvP6Ay'
p368
sg8
S'The Last Of The Real Ones'
p369
ssS'1D3ODoXHBLpdxolZRHWV1j'
p370
(dp371
g3
S'Jonas Blue'
p372
sg5
I30
sg6
S'https://open.spotify.com/track/1D3ODoXHBLpdxolZRHWV1j'
p373
sg8
S'By Your Side'
p374
ssS'1CKd1PnqfYx0H12V9MSaIY'
p375
(dp376
g3
S'Zedd'
p377
sg5
I13
sg6
S'https://open.spotify.com/track/1CKd1PnqfYx0H12V9MSaIY'
p378
sg8
S'Get Low (with Liam Payne)'
p379
ssS'0KKkJNfGyhkQ5aFogxQAPU'
p380
(dp381
g3
S'Bruno Mars'
p382
sg5
I35
sg6
S'https://open.spotify.com/track/0KKkJNfGyhkQ5aFogxQAPU'
p383
sg8
S"That's What I Like"
p384
ssS'5Z01UMMf7V1o0MzF86s6WJ'
p385
(dp386
g3
S'Eminem'
p387
sg5
I39
sg6
S'https://open.spotify.com/track/5Z01UMMf7V1o0MzF86s6WJ'
p388
sg8
S'Lose Yourself - Soundtrack Version'
p389
ssS'6e1oZCtCQiGVESDtxgFLTP'
p390
(dp391
g3
S'J HUS'
p392
sg5
I6
sg6
S'https://open.spotify.com/track/6e1oZCtCQiGVESDtxgFLTP'
p393
sg8
S'Common Sense'
p394
ssS'5CtI0qwDJkDQGwXD1H1cLb'
p395
(dp396
g3
S'Luis Fonsi'
p397
sg5
I26
sg6
S'https://open.spotify.com/track/5CtI0qwDJkDQGwXD1H1cLb'
p398
sg8
S'Despacito - Remix'
p399
ssS'7m9OqQk4RVRkw9JJdeAw96'
p400
(dp401
g3
S'XXXTENTACION'
p402
sg5
I7
sg6
S'https://open.spotify.com/track/7m9OqQk4RVRkw9JJdeAw96'
p403
sg8
S'Jocelyn Flores'
p404
ssS'5o4yGlG0PfeVUa6ClIyOxq'
p405
(dp406
g3
S'Charli XCX'
p407
sg5
I11
sg6
S'https://open.spotify.com/track/5o4yGlG0PfeVUa6ClIyOxq'
p408
sg8
S'Boys'
p409
ssS'1N90cV79gbBgO0bOs74Y0t'
p410
(dp411
g3
S'Calvin Harris'
p412
sg5
I3
sg6
S'https://open.spotify.com/track/1N90cV79gbBgO0bOs74Y0t'
p413
sg8
S'Heatstroke'
p414
ssS'0MfVTButkC0WU7aUcIskU6'
p415
(dp416
g3
S'Foo Fighters'
p417
sg5
I1
sg6
S'https://open.spotify.com/track/0MfVTButkC0WU7aUcIskU6'
p418
sg8
S'La Dee Da'
p419
ssS'0Nhu3zSYbEz32IYiobV75e'
p420
(dp421
g3
S'Halsey'
p422
sg5
I10
sg6
S'https://open.spotify.com/track/0Nhu3zSYbEz32IYiobV75e'
p423
sg8
S'Now Or Never'
p424
ssS'5HDPtsnyb3maFmPL8LLUTG'
p425
(dp426
g3
S'Ed Sheeran'
p427
sg5
I29
sg6
S'https://open.spotify.com/track/5HDPtsnyb3maFmPL8LLUTG'
p428
sg8
S'New Man'
p429
ssS'0zCfmceT1YvtZXGbR6Roht'
p430
(dp431
g3
S'La La Land Cast'
p432
sg5
I5
sg6
S'https://open.spotify.com/track/0zCfmceT1YvtZXGbR6Roht'
p433
sg8
S'Another Day Of Sun - From La La Land Soundtrack'
p434
ssS'1a5Yu5L18qNxVhXx38njON'
p435
(dp436
g3
S'Alok'
p437
sg5
I7
sg6
S'https://open.spotify.com/track/1a5Yu5L18qNxVhXx38njON'
p438
sg8
S'Hear Me Now'
p439
ssS'1Eck97uRMlprKOOJN9oO1E'
p440
(dp441
g3
S'G-Eazy'
p442
sg5
I10
sg6
S'https://open.spotify.com/track/1Eck97uRMlprKOOJN9oO1E'
p443
sg8
S'Good Life (with G-Eazy & Kehlani)'
p444
ssS'6U4VqEHy4n5VeiH4pQPL24'
p445
(dp446
g3
S'Dwayne Johnson'
p447
sg5
I9
sg6
S'https://open.spotify.com/track/6U4VqEHy4n5VeiH4pQPL24'
p448
sg8
S"You're Welcome"
p449
ssS'2ekn2ttSfGqwhhate0LSR0'
p450
(dp451
g3
S'Dua Lipa'
p452
sg5
I15
sg6
S'https://open.spotify.com/track/2ekn2ttSfGqwhhate0LSR0'
p453
sg8
S'New Rules'
p454
ssS'3bVbQvGVIe4n24AzyXovXh'
p455
(dp456
g3
S''
p457
sg5
I1
sg6
S'https://open.spotify.com/track/3bVbQvGVIe4n24AzyXovXh'
p458
sg8
g457
ssS'5humEOJehpAwMJEJmb0JJ2'
p459
(dp460
g3
S'Nat King Cole'
p461
sg5
I1
sg6
S'https://open.spotify.com/track/5humEOJehpAwMJEJmb0JJ2'
p462
sg8
S'The Christmas Song (Merry Christmas To You)'
p463
ssS'2dfqS3MRtbLZSZA1IL8xY5'
p464
(dp465
g3
S'Drake'
p466
sg5
I8
sg6
S'https://open.spotify.com/track/2dfqS3MRtbLZSZA1IL8xY5'
p467
sg8
S'Skepta Interlude'
p468
ssS'3otFFNky9Zk4abwMbvBFNl'
p469
(dp470
g3
S'Greg Lake'
p471
sg5
I1
sg6
S'https://open.spotify.com/track/3otFFNky9Zk4abwMbvBFNl'
p472
sg8
S'I Believe in Father Christmas'
p473
ssS'6jmngk8Fwup05JZ6kgXEGX'
p474
(dp475
g3
S'Imagine Dragons'
p476
sg5
I1
sg6
S'https://open.spotify.com/track/6jmngk8Fwup05JZ6kgXEGX'
p477
sg8
S'Walking The Wire'
p478
ssS'3sJHkcxojoJD2Ytbo1yLLF'
p479
(dp480
g3
S'Moon Taxi'
p481
sg5
I8
sg6
S'https://open.spotify.com/track/3sJHkcxojoJD2Ytbo1yLLF'
p482
sg8
S'Two High'
p483
ssS'2uSLx5uwRIhiA3sJJraNqX'
p484
(dp485
g3
S'Maroon 5'
p486
sg5
I1
sg6
S'https://open.spotify.com/track/2uSLx5uwRIhiA3sJJraNqX'
p487
sg8
S'Help Me Out (with Julia Michaels)'
p488
ssS'6eGMMPRVYzpssGgednRvzU'
p489
(dp490
g3
S'Lana Del Rey'
p491
sg5
I1
sg6
S'https://open.spotify.com/track/6eGMMPRVYzpssGgednRvzU'
p492
sg8
S'Cherry'
p493
ssS'0ADG9OgdVTL7fgREP75BrZ'
p494
(dp495
g3
S'Zara Larsson'
p496
sg5
I8
sg6
S'https://open.spotify.com/track/0ADG9OgdVTL7fgREP75BrZ'
p497
sg8
S"Ain't My Fault"
p498
ssS'1vrd6UOGamcKNGnSHJQlSt'
p499
(dp500
g3
S'Taylor Swift'
p501
sg5
I1
sg6
S'https://open.spotify.com/track/1vrd6UOGamcKNGnSHJQlSt'
p502
sg8
S'Love Story'
p503
ssS'0E7IEEODbRcopBn7sGJuor'
p504
(dp505
g3
S'Sub Focus'
p506
sg5
I1
sg6
S'https://open.spotify.com/track/0E7IEEODbRcopBn7sGJuor'
p507
sg8
S'Don\xe2\x80\x99t You Feel It'
p508
ssS'2COVGlcdLKhKVfzv3CKtfW'
p509
(dp510
g3
S'MoStack'
p511
sg5
I3
sg6
S'https://open.spotify.com/track/2COVGlcdLKhKVfzv3CKtfW'
p512
sg8
S'Screw & Brew'
p513
ssS'7vAXN57IQ0sj049wZGIboE'
p514
(dp515
g3
S'Imagine Dragons'
p516
sg5
I1
sg6
S'https://open.spotify.com/track/7vAXN57IQ0sj049wZGIboE'
p517
sg8
S'Rise Up'
p518
ssS'61AaiTZFfwruCncZ7m7CIg'
p519
(dp520
g3
S'Not3s'
p521
sg5
I38
sg6
S'https://open.spotify.com/track/61AaiTZFfwruCncZ7m7CIg'
p522
sg8
S'Addison Lee (Peng Ting Called Maddison)'
p523
ssS'3TRFq09DUgYj1mug6RRqJW'
p524
(dp525
g3
S'Luke Christopher'
p526
sg5
I7
sg6
S'https://open.spotify.com/track/3TRFq09DUgYj1mug6RRqJW'
p527
sg8
S'Lot to Learn'
p528
ssS'1KeZgPUr54C8iz3FjqzVoz'
p529
(dp530
g3
S'The Chainsmokers'
p531
sg5
I1
sg6
S'https://open.spotify.com/track/1KeZgPUr54C8iz3FjqzVoz'
p532
sg8
S'Young'
p533
ssS'6s2wpWPFPAgKg2LXxi1Oee'
p534
(dp535
g3
S'Bruce Springsteen'
p536
sg5
I1
sg6
S'https://open.spotify.com/track/6s2wpWPFPAgKg2LXxi1Oee'
p537
sg8
S"Santa Claus Is Comin' to Town - Single Version"
p538
ssS'6O6M7pJLABmfBRoGZMu76Y'
p539
(dp540
g3
S'The Chainsmokers'
p541
sg5
I1
sg6
S'https://open.spotify.com/track/6O6M7pJLABmfBRoGZMu76Y'
p542
sg8
S'Roses'
p543
ssS'1rIKgCH4H52lrvDcz50hS8'
p544
(dp545
g3
S'Zara Larsson'
p546
sg5
I31
sg6
S'https://open.spotify.com/track/1rIKgCH4H52lrvDcz50hS8'
p547
sg8
S'Lush Life'
p548
ssS'76gUmNLXGQVOsGhfcshkFP'
p549
(dp550
g3
S'Drake'
p551
sg5
I10
sg6
S'https://open.spotify.com/track/76gUmNLXGQVOsGhfcshkFP'
p552
sg8
S'Madiba Riddim'
p553
ssS'7vGuf3Y35N4wmASOKLUVVU'
p554
(dp555
g3
S'Marshmello'
p556
sg5
I9
sg6
S'https://open.spotify.com/track/7vGuf3Y35N4wmASOKLUVVU'
p557
sg8
S'Silence'
p558
ssS'1060gzllf4b0UETAXisR5l'
p559
(dp560
g3
S'Royal Blood'
p561
sg5
I3
sg6
S'https://open.spotify.com/track/1060gzllf4b0UETAXisR5l'
p562
sg8
S'Lights Out'
p563
ssS'3EfugazgSddQvzZpkof5I4'
p564
(dp565
g3
S'Anne-Marie'
p566
sg5
I29
sg6
S'https://open.spotify.com/track/3EfugazgSddQvzZpkof5I4'
p567
sg8
S'Ciao Adios'
p568
ssS'0xPaZrF25ltzvz1a2Pm5DQ'
p569
(dp570
g3
S'Michael Bubl\xc3\xa9'
p571
sg5
I1
sg6
S'https://open.spotify.com/track/0xPaZrF25ltzvz1a2Pm5DQ'
p572
sg8
S'All I Want For Christmas Is You'
p573
ssS'1X2Zd5wKGbY1oKzb8dzJRy'
p574
(dp575
g3
S'Ariana Grande'
p576
sg5
I1
sg6
S'https://open.spotify.com/track/1X2Zd5wKGbY1oKzb8dzJRy'
p577
sg8
S'Break Free'
p578
ssS'3KiktyOxQd2Z0bmnabgRq2'
p579
(dp580
g3
S'Ed Sheeran'
p581
sg5
I6
sg6
S'https://open.spotify.com/track/3KiktyOxQd2Z0bmnabgRq2'
p582
sg8
S"I'm A Mess"
p583
ssS'0qdNzSkWP51sONknELhhiV'
p584
(dp585
g3
S'Bugzy Malone'
p586
sg5
I1
sg6
S'https://open.spotify.com/track/0qdNzSkWP51sONknELhhiV'
p587
sg8
S'Bruce Wayne'
p588
ssS'7iDxZ5Cd0Yg08d4fI5WVtG'
p589
(dp590
g3
S'Calvin Harris'
p591
sg5
I1
sg6
S'https://open.spotify.com/track/7iDxZ5Cd0Yg08d4fI5WVtG'
p592
sg8
S'Skrt On Me'
p593
ssS'6WoyghnMAvDDRbZfFbpwEo'
p594
(dp595
g3
S'Neck Deep'
p596
sg5
I1
sg6
S'https://open.spotify.com/track/6WoyghnMAvDDRbZfFbpwEo'
p597
sg8
S'In Bloom'
p598
ssS'7129iqBafaphfc3WPCGC0L'
p599
(dp600
g3
S'Lukas Graham'
p601
sg5
I17
sg6
S'https://open.spotify.com/track/7129iqBafaphfc3WPCGC0L'
p602
sg8
S'7 Years'
p603
ssS'4WjH9Bzt3kx7z8kl0awxh4'
p604
(dp605
g3
S'Major Lazer'
p606
sg5
I17
sg6
S'https://open.spotify.com/track/4WjH9Bzt3kx7z8kl0awxh4'
p607
sg8
S'Lean On (feat. M\xc3\x98 & DJ Snake)'
p608
ssS'57p8CBvPOxrvyCbn6ttl5r'
p609
(dp610
g3
S'Skrillex'
p611
sg5
I10
sg6
S'https://open.spotify.com/track/57p8CBvPOxrvyCbn6ttl5r'
p612
sg8
S'Would You Ever'
p613
ssS'43jBqV3j3Xi1g6wO0bhIMd'
p614
(dp615
g3
S'Sage The Gemini'
p616
sg5
I15
sg6
S'https://open.spotify.com/track/43jBqV3j3Xi1g6wO0bhIMd'
p617
sg8
S'Now and Later'
p618
ssS'7oolFzHipTMg2nL7shhdz2'
p619
(dp620
g3
S'Ed Sheeran'
p621
sg5
I17
sg6
S'https://open.spotify.com/track/7oolFzHipTMg2nL7shhdz2'
p622
sg8
S'Eraser'
p623
ssS'4Yf5bqU3NK4kNOypcrLYwU'
p624
(dp625
g3
S'Linkin Park'
p626
sg5
I1
sg6
S'https://open.spotify.com/track/4Yf5bqU3NK4kNOypcrLYwU'
p627
sg8
S'Faint'
p628
ssS'3APdHAFpfiHqBYqi85zj6g'
p629
(dp630
g3
S'J HUS'
p631
sg5
I1
sg6
S'https://open.spotify.com/track/3APdHAFpfiHqBYqi85zj6g'
p632
sg8
S'Leave Me'
p633
ssS'4aYEesIDVDyZqg88cmAbnJ'
p634
(dp635
g3
S'The Waitresses'
p636
sg5
I1
sg6
S'https://open.spotify.com/track/4aYEesIDVDyZqg88cmAbnJ'
p637
sg8
S'Christmas Wrapping'
p638
ssS'2pYvd6cHcAIMAM6xMD6nok'
p639
(dp640
g3
S'Bonobo'
p641
sg5
I1
sg6
S'https://open.spotify.com/track/2pYvd6cHcAIMAM6xMD6nok'
p642
sg8
S'Break Apart'
p643
ssS'3B7udSGy2PfgoCniMSb523'
p644
(dp645
g3
S'Ed Sheeran'
p646
sg5
I11
sg6
S'https://open.spotify.com/track/3B7udSGy2PfgoCniMSb523'
p647
sg8
S'I See Fire'
p648
ssS'2FPfeYlrbSBR8PwCU0zaqq'
p649
(dp650
g3
S'Frank Sinatra'
p651
sg5
I1
sg6
S'https://open.spotify.com/track/2FPfeYlrbSBR8PwCU0zaqq'
p652
sg8
S'Have Yourself A Merry Little Christmas - 1999 - Remaster'
p653
ssS'3NdDpSvN911VPGivFlV5d0'
p654
(dp655
g3
S'ZAYN'
p656
sg5
I42
sg6
S'https://open.spotify.com/track/3NdDpSvN911VPGivFlV5d0'
p657
sg8
S'I Don\xe2\x80\x99t Wanna Live Forever (Fifty Shades Darker) - From Fifty Shades Darker (Original Motion Picture Soundtrack)'
p658
ssS'4ioNqWWd8Ivz4bLfrn3bBN'
p659
(dp660
g3
S'Craig David'
p661
sg5
I4
sg6
S'https://open.spotify.com/track/4ioNqWWd8Ivz4bLfrn3bBN'
p662
sg8
S'Heartline'
p663
ssS'2RlgNHKcydI9sayD2Df2xp'
p664
(dp665
g3
S'Electric Light Orchestra'
p666
sg5
I8
sg6
S'https://open.spotify.com/track/2RlgNHKcydI9sayD2Df2xp'
p667
sg8
S'Mr. Blue Sky'
p668
ssS'3Nx6iu7XpzWL1QMPRJKzqL'
p669
(dp670
g3
S'Ella Fitzgerald'
p671
sg5
I1
sg6
S'https://open.spotify.com/track/3Nx6iu7XpzWL1QMPRJKzqL'
p672
sg8
S"Baby It's Cold Outside"
p673
ssS'3gGHAScxUDsJqcAM6ZvjuH'
p674
(dp675
g3
S'John Legend'
p676
sg5
I2
sg6
S'https://open.spotify.com/track/3gGHAScxUDsJqcAM6ZvjuH'
p677
sg8
S'Start A Fire'
p678
ssS'1wC93sZRGcTgKLN2UWRSwW'
p679
(dp680
g3
S'Lorde'
p681
sg5
I2
sg6
S'https://open.spotify.com/track/1wC93sZRGcTgKLN2UWRSwW'
p682
sg8
S'Perfect Places'
p683
ssS'745Dazbwplj1SDZ8SPKHV5'
p684
(dp685
g3
S'Stormzy'
p686
sg5
I3
sg6
S'https://open.spotify.com/track/745Dazbwplj1SDZ8SPKHV5'
p687
sg8
S'Scary'
p688
ssS'0gb1J5UrTpzaU1s3nupgCd'
p689
(dp690
g3
S'Galantis'
p691
sg5
I2
sg6
S'https://open.spotify.com/track/0gb1J5UrTpzaU1s3nupgCd'
p692
sg8
S'No Money'
p693
ssS'53e5O0USYgSCv4md0CXpMY'
p694
(dp695
g3
S'The xx'
p696
sg5
I1
sg6
S'https://open.spotify.com/track/53e5O0USYgSCv4md0CXpMY'
p697
sg8
S'Brave For You'
p698
ssS'1UZOjK1BwmwWU14Erba9CZ'
p699
(dp700
g3
S'Miley Cyrus'
p701
sg5
I2
sg6
S'https://open.spotify.com/track/1UZOjK1BwmwWU14Erba9CZ'
p702
sg8
S'Malibu'
p703
ssS'2eMwDehkIC1j68U6FA3Eiq'
p704
(dp705
g3
S'Lil Uzi Vert'
p706
sg5
I21
sg6
S'https://open.spotify.com/track/2eMwDehkIC1j68U6FA3Eiq'
p707
sg8
S'XO TOUR Llif3'
p708
ssS'5v9N8Rx3QsFvr50cxyQcA3'
p709
(dp710
g3
S'Mura Masa'
p711
sg5
I16
sg6
S'https://open.spotify.com/track/5v9N8Rx3QsFvr50cxyQcA3'
p712
sg8
S'Love$ick'
p713
ssS'7Hz6LLOVxrojLPIHJJ1S0E'
p714
(dp715
g3
S'Sam Smith'
p716
sg5
I1
sg6
S'https://open.spotify.com/track/7Hz6LLOVxrojLPIHJJ1S0E'
p717
sg8
S'Have Yourself A Merry Little Christmas'
p718
ssS'3CRDbSIZ4r5MsZ0YwxuEkn'
p719
(dp720
g3
S'Twenty One Pilots'
p721
sg5
I15
sg6
S'https://open.spotify.com/track/3CRDbSIZ4r5MsZ0YwxuEkn'
p722
sg8
S'Stressed Out'
p723
ssS'0gbBzIqrECJOEPvQJIBFs5'
p724
(dp725
g3
S'Lorde'
p726
sg5
I23
sg6
S'https://open.spotify.com/track/0gbBzIqrECJOEPvQJIBFs5'
p727
sg8
S'Green Light'
p728
ssS'6mICuAdrwEjh6Y6lroV2Kg'
p729
(dp730
g3
S'Shakira'
p731
sg5
I7
sg6
S'https://open.spotify.com/track/6mICuAdrwEjh6Y6lroV2Kg'
p732
sg8
S'Chantaje'
p733
ssS'6F609ICg9Spjrw1epsAnpa'
p734
(dp735
g3
S'Drake'
p736
sg5
I23
sg6
S'https://open.spotify.com/track/6F609ICg9Spjrw1epsAnpa'
p737
sg8
S'Controlla'
p738
ssS'2pnPe4pJtq7689i5ydzvJJ'
p739
(dp740
g3
S'Chuck Berry'
p741
sg5
I1
sg6
S'https://open.spotify.com/track/2pnPe4pJtq7689i5ydzvJJ'
p742
sg8
S'Run Rudolph Run - Single Version'
p743
ssS'1WC5UN1U79gJlxGLYDGIO7'
p744
(dp745
g3
S'Lorde'
p746
sg5
I2
sg6
S'https://open.spotify.com/track/1WC5UN1U79gJlxGLYDGIO7'
p747
sg8
S'Green Light'
p748
ssS'6jrMVRReY24qzCfe1BRrww'
p749
(dp750
g3
S'Two Door Cinema Club'
p751
sg5
I41
sg6
S'https://open.spotify.com/track/6jrMVRReY24qzCfe1BRrww'
p752
sg8
S'What You Know'
p753
ssS'4uoi8whE6HMdnmwPMcb6Ql'
p754
(dp755
g3
S'Bugzy Malone'
p756
sg5
I1
sg6
S'https://open.spotify.com/track/4uoi8whE6HMdnmwPMcb6Ql'
p757
sg8
S'Through The Night (feat. DJ Luck & MC Neat)'
p758
ssS'7gHs73wELdeycvS48JfIos'
p759
(dp760
g3
S'Alan Walker'
p761
sg5
I9
sg6
S'https://open.spotify.com/track/7gHs73wELdeycvS48JfIos'
p762
sg8
S'Faded'
p763
ssS'5Z1EX2sRJk1e8tQofsFnVW'
p764
(dp765
g3
S'Dave'
p766
sg5
I3
sg6
S'https://open.spotify.com/track/5Z1EX2sRJk1e8tQofsFnVW'
p767
sg8
S"100M's"
p768
ssS'3uMB82o0qa7erhiZBW9KQC'
p769
(dp770
g3
S'Stormzy'
p771
sg5
I36
sg6
S'https://open.spotify.com/track/3uMB82o0qa7erhiZBW9KQC'
p772
sg8
S'Big For Your Boots'
p773
ssS'5HSMY2507ameWGqEFhwVS3'
p774
(dp775
g3
S'Nines'
p776
sg5
I1
sg6
S'https://open.spotify.com/track/5HSMY2507ameWGqEFhwVS3'
p777
sg8
S'High Roller'
p778
ssS'5qlSYa5PePLAuAsAFgqVxW'
p779
(dp780
g3
S'Liam Gallagher'
p781
sg5
I1
sg6
S'https://open.spotify.com/track/5qlSYa5PePLAuAsAFgqVxW'
p782
sg8
S'Wall Of Glass'
p783
ssS'00lNx0OcTJrS3MKHcB80HY'
p784
(dp785
g3
S'Jax Jones'
p786
sg5
I36
sg6
S'https://open.spotify.com/track/00lNx0OcTJrS3MKHcB80HY'
p787
sg8
S"You Don't Know Me - Radio Edit"
p788
ssS'0X2bzH8VsjbjyxPAu6GMOc'
p789
(dp790
g3
S'Lou Monte'
p791
sg5
I1
sg6
S'https://open.spotify.com/track/0X2bzH8VsjbjyxPAu6GMOc'
p792
sg8
S'Dominick the Donkey - The Italian Christmas Donkey'
p793
ssS'5gSed1Fd3tdse60Gc0Uuoe'
p794
(dp795
g3
S'Stormzy'
p796
sg5
I13
sg6
S'https://open.spotify.com/track/5gSed1Fd3tdse60Gc0Uuoe'
p797
sg8
S'Cold'
p798
ssS'6Zp0OnaLtS9AjtK1jeC930'
p799
(dp800
g3
S'John Gibbons'
p801
sg5
I7
sg6
S'https://open.spotify.com/track/6Zp0OnaLtS9AjtK1jeC930'
p802
sg8
S'Would I Lie to You'
p803
ssS'6t2ubAB4iSYOuIpRAOGd4t'
p804
(dp805
g3
S'Flo Rida'
p806
sg5
I7
sg6
S'https://open.spotify.com/track/6t2ubAB4iSYOuIpRAOGd4t'
p807
sg8
S'Cake'
p808
ssS'4v2mN4LKR3YMBvp5dxywaA'
p809
(dp810
g3
S'Joe Weller'
p811
sg5
I1
sg6
S'https://open.spotify.com/track/4v2mN4LKR3YMBvp5dxywaA'
p812
sg8
S'Queen & a Double'
p813
ssS'0fg8CqpjdojMyXLNzM2PaJ'
p814
(dp815
g3
S'Major Lazer'
p816
sg5
I24
sg6
S'https://open.spotify.com/track/0fg8CqpjdojMyXLNzM2PaJ'
p817
sg8
S'Run Up (feat. PARTYNEXTDOOR & Nicki Minaj)'
p818
ssS'7n0gblWR0oKWSuOtWb0Nn7'
p819
(dp820
g3
S'Chris & Kem'
p821
sg5
I2
sg6
S'https://open.spotify.com/track/7n0gblWR0oKWSuOtWb0Nn7'
p822
sg8
S'Little Bit Leave It'
p823
ssS'6yL2kTsdVwYnGwPkKGtMd5'
p824
(dp825
g3
S'Ariana Grande'
p826
sg5
I1
sg6
S'https://open.spotify.com/track/6yL2kTsdVwYnGwPkKGtMd5'
p827
sg8
S'Everyday'
p828
ssS'6uFsE1JgZ20EXyU0JQZbUR'
p829
(dp830
g3
S'Taylor Swift'
p831
sg5
I7
sg6
S'https://open.spotify.com/track/6uFsE1JgZ20EXyU0JQZbUR'
p832
sg8
S'Look What You Made Me Do'
p833
ssS'6Qyc6fS4DsZjB2mRW9DsQs'
p834
(dp835
g3
S'The Goo Goo Dolls'
p836
sg5
I1
sg6
S'https://open.spotify.com/track/6Qyc6fS4DsZjB2mRW9DsQs'
p837
sg8
S'Iris'
p838
ssS'5CPqOpKSk0QcJ3dGdaWcRB'
p839
(dp840
g3
S'The xx'
p841
sg5
I6
sg6
S'https://open.spotify.com/track/5CPqOpKSk0QcJ3dGdaWcRB'
p842
sg8
S'On Hold'
p843
ssS'4xBjsLUSjcx2h7PcRikpQp'
p844
(dp845
g3
S'Camila Cabello'
p846
sg5
I5
sg6
S'https://open.spotify.com/track/4xBjsLUSjcx2h7PcRikpQp'
p847
sg8
S'OMG'
p848
ssS'378iszndTZAR4dH8kwsLC6'
p849
(dp850
g3
S'Sia'
p851
sg5
I9
sg6
S'https://open.spotify.com/track/378iszndTZAR4dH8kwsLC6'
p852
sg8
S'Cheap Thrills'
p853
ssS'7GX5flRQZVHRAGd6B4TmDO'
p854
(dp855
g3
S'Lil Uzi Vert'
p856
sg5
I7
sg6
S'https://open.spotify.com/track/7GX5flRQZVHRAGd6B4TmDO'
p857
sg8
S'XO TOUR Llif3'
p858
ssS'3O7p9Itz8PXUoAjD2vmuM6'
p859
(dp860
g3
S'Lana Del Rey'
p861
sg5
I1
sg6
S'https://open.spotify.com/track/3O7p9Itz8PXUoAjD2vmuM6'
p862
sg8
S'Beautiful People Beautiful Problems (feat. Stevie Nicks)'
p863
ssS'4F7A0DXBrmUAkp32uenhZt'
p864
(dp865
g3
S'The Weeknd'
p866
sg5
I15
sg6
S'https://open.spotify.com/track/4F7A0DXBrmUAkp32uenhZt'
p867
sg8
S'Party Monster'
p868
ssS'44PelqgstAM0lb8rHPKfHq'
p869
(dp870
g3
S'Gorillaz'
p871
sg5
I1
sg6
S'https://open.spotify.com/track/44PelqgstAM0lb8rHPKfHq'
p872
sg8
S'Let Me Out (feat. Mavis Staples & Pusha T)'
p873
ssS'5kRPPEWFJIMox5qIkQkiz5'
p874
(dp875
g3
S'Harry Styles'
p876
sg5
I6
sg6
S'https://open.spotify.com/track/5kRPPEWFJIMox5qIkQkiz5'
p877
sg8
S'Sweet Creature'
p878
ssS'0CokSRCu5hZgPxcZBaEzVE'
p879
(dp880
g3
S'Macklemore'
p881
sg5
I3
sg6
S'https://open.spotify.com/track/0CokSRCu5hZgPxcZBaEzVE'
p882
sg8
S'Glorious (feat. Skylar Grey)'
p883
ssS'4BdIxxdtdpxaPk3vXYL47G'
p884
(dp885
g3
S'Alex Ross'
p886
sg5
I9
sg6
S'https://open.spotify.com/track/4BdIxxdtdpxaPk3vXYL47G'
p887
sg8
S'Dreams'
p888
ssS'4nMlau89VAjmV7agkl7OY3'
p889
(dp890
g3
S'Andy Grammer'
p891
sg5
I10
sg6
S'https://open.spotify.com/track/4nMlau89VAjmV7agkl7OY3'
p892
sg8
S'Fresh Eyes'
p893
ssS'2nJujuhYIcdVue7sNeZUq9'
p894
(dp895
g3
S'Bugzy Malone'
p896
sg5
I1
sg6
S'https://open.spotify.com/track/2nJujuhYIcdVue7sNeZUq9'
p897
sg8
S'Bruce Wayne'
p898
ssS'2g2zaYC7BYSu9kUpmu7Tjf'
p899
(dp900
g3
S'Liam Gallagher'
p901
sg5
I1
sg6
S'https://open.spotify.com/track/2g2zaYC7BYSu9kUpmu7Tjf'
p902
sg8
S"I've All I Need"
p903
ssS'4qBejt9FeqLI9blHI1Nq1x'
p904
(dp905
g3
S'Michael Bubl\xc3\xa9'
p906
sg5
I1
sg6
S'https://open.spotify.com/track/4qBejt9FeqLI9blHI1Nq1x'
p907
sg8
S'Jingle Bells (feat. The Puppini Sisters)'
p908
ssS'0pJPdSVti6cTM1Q6xYGmcf'
p909
(dp910
g3
S'Calvin Harris'
p911
sg5
I1
sg6
S'https://open.spotify.com/track/0pJPdSVti6cTM1Q6xYGmcf'
p912
sg8
S'Faking It'
p913
ssS'0g02kBdq3iWI4HNArqEgBe'
p914
(dp915
g3
S'Chris de Burgh'
p916
sg5
I1
sg6
S'https://open.spotify.com/track/0g02kBdq3iWI4HNArqEgBe'
p917
sg8
S'A Spaceman Came Travelling'
p918
ssS'5tSc8s7GhMhaWFdkjNGFF7'
p919
(dp920
g3
S'Stormzy'
p921
sg5
I1
sg6
S'https://open.spotify.com/track/5tSc8s7GhMhaWFdkjNGFF7'
p922
sg8
S'Crazy Titch - Interlude'
p923
ssS'75ZvA4QfFiZvzhj2xkaWAh'
p924
(dp925
g3
S'Post Malone'
p926
sg5
I3
sg6
S'https://open.spotify.com/track/75ZvA4QfFiZvzhj2xkaWAh'
p927
sg8
S'I Fall Apart'
p928
ssS'1sTUEdVO85YU8Ymk2jeAls'
p929
(dp930
g3
S'MiC LOWRY'
p931
sg5
I8
sg6
S'https://open.spotify.com/track/1sTUEdVO85YU8Ymk2jeAls'
p932
sg8
S'Oh Lord'
p933
ssS'3YymcLSyCyyNjLCStcaHys'
p934
(dp935
g3
S'The Darkness'
p936
sg5
I1
sg6
S'https://open.spotify.com/track/3YymcLSyCyyNjLCStcaHys'
p937
sg8
S"Christmas Time (Don't Let The Bells End)"
p938
ssS'48jPP29QyeTorwlkflGast'
p939
(dp940
g3
S'Stormzy'
p941
sg5
I6
sg6
S'https://open.spotify.com/track/48jPP29QyeTorwlkflGast'
p942
sg8
S'Bad Boys (feat. Ghetts and J Hus)'
p943
ssS'7hDc8b7IXETo14hHIHdnhd'
p944
(dp945
g3
S'Drake'
p946
sg5
I30
sg6
S'https://open.spotify.com/track/7hDc8b7IXETo14hHIHdnhd'
p947
sg8
S'Passionfruit'
p948
ssS'04YFRczeeieYRlsrPJ8hjh'
p949
(dp950
g3
S'Duke Dumont'
p951
sg5
I19
sg6
S'https://open.spotify.com/track/04YFRczeeieYRlsrPJ8hjh'
p952
sg8
S'Real Life'
p953
ssS'3RiPr603aXAoi4GHyXx0uy'
p954
(dp955
g3
S'Coldplay'
p956
sg5
I2
sg6
S'https://open.spotify.com/track/3RiPr603aXAoi4GHyXx0uy'
p957
sg8
S'Hymn For The Weekend'
p958
ssS'0tICYNayWWhH9GPeFrfjfD'
p959
(dp960
g3
S'Kungs'
p961
sg5
I34
sg6
S'https://open.spotify.com/track/0tICYNayWWhH9GPeFrfjfD'
p962
sg8
S"This Girl (Kungs Vs. Cookin' On 3 Burners) - Kungs Vs. Cookin' On 3 Burners"
p963
ssS'7Fa5UNizycSms5jP3SQD3F'
p964
(dp965
g3
S'DJ Khaled'
p966
sg5
I1
sg6
S'https://open.spotify.com/track/7Fa5UNizycSms5jP3SQD3F'
p967
sg8
S'Shining'
p968
ssS'2LTlO3NuNVN70lp2ZbVswF'
p969
(dp970
g3
S'Kendrick Lamar'
p971
sg5
I3
sg6
S'https://open.spotify.com/track/2LTlO3NuNVN70lp2ZbVswF'
p972
sg8
S'FEEL.'
p973
ssS'5ULRlgiSPSKTaJN1vU9yso'
p974
(dp975
g3
S'Ed Sheeran'
p976
sg5
I6
sg6
S'https://open.spotify.com/track/5ULRlgiSPSKTaJN1vU9yso'
p977
sg8
S'Shape of You - Acoustic'
p978
ssS'3tRFqxTYOjeTmCiVaGDCsq'
p979
(dp980
g3
S'Ariana Grande'
p981
sg5
I1
sg6
S'https://open.spotify.com/track/3tRFqxTYOjeTmCiVaGDCsq'
p982
sg8
S'Be Alright'
p983
ssS'1mebe3JaPfy8SOTksMKEom'
p984
(dp985
g3
S'Ryan Blyth'
p986
sg5
I5
sg6
S'https://open.spotify.com/track/1mebe3JaPfy8SOTksMKEom'
p987
sg8
S'Show Me (feat. Malisha Bleau)'
p988
ssS'7zgqtptZvhf8GEmdsM2vp2'
p989
(dp990
g3
S'Taylor Swift'
p991
sg5
I1
sg6
S'https://open.spotify.com/track/7zgqtptZvhf8GEmdsM2vp2'
p992
sg8
S'...Ready For It?'
p993
ssS'0XLOf9LhyazPX9Ld8jPiUq'
p994
(dp995
g3
S'Selena Gomez'
p996
sg5
I8
sg6
S'https://open.spotify.com/track/0XLOf9LhyazPX9Ld8jPiUq'
p997
sg8
S'Fetish (feat. Gucci Mane)'
p998
ssS'05Z7jet4VDNVgNQWcYHnrk'
p999
(dp1000
g3
S'Chris Brown'
p1001
sg5
I10
sg6
S'https://open.spotify.com/track/05Z7jet4VDNVgNQWcYHnrk'
p1002
sg8
S'Party'
p1003
ssS'0kN8xEmgMW9mh7UmDYHlJP'
p1004
(dp1005
g3
S'Bruno Mars'
p1006
sg5
I2
sg6
S'https://open.spotify.com/track/0kN8xEmgMW9mh7UmDYHlJP'
p1007
sg8
S'Versace On The Floor'
p1008
ssS'1yxgsra98r3qAtxqiGZPiX'
p1009
(dp1010
g3
S'Travis Scott'
p1011
sg5
I16
sg6
S'https://open.spotify.com/track/1yxgsra98r3qAtxqiGZPiX'
p1012
sg8
S'Butterfly Effect'
p1013
ssS'4WrS6vezaPwOafKJmHqMEU'
p1014
(dp1015
g3
S'Jax Jones'
p1016
sg5
I1
sg6
S'https://open.spotify.com/track/4WrS6vezaPwOafKJmHqMEU'
p1017
sg8
S"You Don't Know Me - Radio Edit"
p1018
ssS'3xXBsjrbG1xQIm1xv1cKOt'
p1019
(dp1020
g3
S'Linkin Park'
p1021
sg5
I1
sg6
S'https://open.spotify.com/track/3xXBsjrbG1xQIm1xv1cKOt'
p1022
sg8
S'One More Light'
p1023
ssS'0uqPG793dkDDN7sCUJJIVC'
p1024
(dp1025
g3
S'The Black Eyed Peas'
p1026
sg5
I10
sg6
S'https://open.spotify.com/track/0uqPG793dkDDN7sCUJJIVC'
p1027
sg8
S'Where Is The Love?'
p1028
ssS'6f5TuB9WtbA1g49A4DcMQ4'
p1029
(dp1030
g3
S'Ariana Grande'
p1031
sg5
I1
sg6
S'https://open.spotify.com/track/6f5TuB9WtbA1g49A4DcMQ4'
p1032
sg8
S'Be Alright'
p1033
ssS'0OwX5aROoW1Iip8FV51Efg'
p1034
(dp1035
g3
S'Anne-Marie'
p1036
sg5
I9
sg6
S'https://open.spotify.com/track/0OwX5aROoW1Iip8FV51Efg'
p1037
sg8
S'Alarm'
p1038
ssS'3nodtPfXcok53E8Uze8gvD'
p1039
(dp1040
g3
S'Snakehips'
p1041
sg5
I11
sg6
S'https://open.spotify.com/track/3nodtPfXcok53E8Uze8gvD'
p1042
sg8
S'Either Way'
p1043
ssS'0RIMrAUyLGBF7zAPdvgE73'
p1044
(dp1045
g3
S'J HUS'
p1046
sg5
I22
sg6
S'https://open.spotify.com/track/0RIMrAUyLGBF7zAPdvgE73'
p1047
sg8
S'Fisherman'
p1048
ssS'2OALaHcDdKkjYEpAr0Qzab'
p1049
(dp1050
g3
S'Avicii'
p1051
sg5
I9
sg6
S'https://open.spotify.com/track/2OALaHcDdKkjYEpAr0Qzab'
p1052
sg8
S'Lonely Together (feat. Rita Ora)'
p1053
ssS'56lBX2WHqfGuoeZxZvUnVj'
p1054
(dp1055
g3
S'Imagine Dragons'
p1056
sg5
I3
sg6
S'https://open.spotify.com/track/56lBX2WHqfGuoeZxZvUnVj'
p1057
sg8
S'Thunder'
p1058
ssS'2h1IPjP471JJRSShTHRUhi'
p1059
(dp1060
g3
S'Ariana Grande'
p1061
sg5
I1
sg6
S'https://open.spotify.com/track/2h1IPjP471JJRSShTHRUhi'
p1062
sg8
S'Dangerous Woman'
p1063
ssS'2W4yTO3qHdqyvbz2UxfIPh'
p1064
(dp1065
g3
S'Gorillaz'
p1066
sg5
I1
sg6
S'https://open.spotify.com/track/2W4yTO3qHdqyvbz2UxfIPh'
p1067
sg8
S'Submission (feat. Danny Brown & Kelela)'
p1068
ssS'5qqabIl2vWzo9ApSC317sa'
p1069
(dp1070
g3
S'Oasis'
p1071
sg5
I41
sg6
S'https://open.spotify.com/track/5qqabIl2vWzo9ApSC317sa'
p1072
sg8
S'Wonderwall - Remastered'
p1073
ssS'2BrzlUj1u1CtvaJDGIKpsP'
p1074
(dp1075
g3
S'Noah Cyrus'
p1076
sg5
I7
sg6
S'https://open.spotify.com/track/2BrzlUj1u1CtvaJDGIKpsP'
p1077
sg8
S'Make Me (Cry)'
p1078
ssS'5JUu0unA8VwhTZ9LkMWUVI'
p1079
(dp1080
g3
S'Drake'
p1081
sg5
I4
sg6
S'https://open.spotify.com/track/5JUu0unA8VwhTZ9LkMWUVI'
p1082
sg8
S'Since Way Back'
p1083
ssS'4IWAyPf1KMq7JCyGeCjTeH'
p1084
(dp1085
g3
S'Imagine Dragons'
p1086
sg5
I5
sg6
S'https://open.spotify.com/track/4IWAyPf1KMq7JCyGeCjTeH'
p1087
sg8
S'Whatever It Takes'
p1088
ssS'0ix3RUQ76mECOKP6LDPy66'
p1089
(dp1090
g3
S'Stormzy'
p1091
sg5
I4
sg6
S'https://open.spotify.com/track/0ix3RUQ76mECOKP6LDPy66'
p1092
sg8
S'First Things First'
p1093
ssS'6Tzacf8BGC7fyPuQIsG49K'
p1094
(dp1095
g3
S'The 1975'
p1096
sg5
I1
sg6
S'https://open.spotify.com/track/6Tzacf8BGC7fyPuQIsG49K'
p1097
sg8
S'By Your Side'
p1098
ssS'7fwXWKdDNI5IutOMc5OKYw'
p1099
(dp1100
g3
S'J Balvin'
p1101
sg5
I2
sg6
S'https://open.spotify.com/track/7fwXWKdDNI5IutOMc5OKYw'
p1102
sg8
S'Mi Gente (feat. Beyonc\xc3\xa9)'
p1103
ssS'7lQ8MOhq6IN2w8EYcFNSUk'
p1104
(dp1105
g3
S'Eminem'
p1106
sg5
I7
sg6
S'https://open.spotify.com/track/7lQ8MOhq6IN2w8EYcFNSUk'
p1107
sg8
S'Without Me'
p1108
ssS'3Fzlg5r1IjhLk2qRw667od'
p1109
(dp1110
g3
S'Toploader'
p1111
sg5
I5
sg6
S'https://open.spotify.com/track/3Fzlg5r1IjhLk2qRw667od'
p1112
sg8
S'Dancing in the Moonlight'
p1113
ssS'3rq5w4bQGigXOfdN30ATJt'
p1114
(dp1115
g3
S'Arctic Monkeys'
p1116
sg5
I41
sg6
S'https://open.spotify.com/track/3rq5w4bQGigXOfdN30ATJt'
p1117
sg8
S'Do I Wanna Know?'
p1118
ssS'3Q3myFA7q4Op95DOpHplaY'
p1119
(dp1120
g3
S'blackbear'
p1121
sg5
I2
sg6
S'https://open.spotify.com/track/3Q3myFA7q4Op95DOpHplaY'
p1122
sg8
S'do re mi'
p1123
ssS'76c0MTUA6LzZSyGuuhG4bp'
p1124
(dp1125
g3
S'Liam Gallagher'
p1126
sg5
I1
sg6
S'https://open.spotify.com/track/76c0MTUA6LzZSyGuuhG4bp'
p1127
sg8
S'You Better Run'
p1128
ssS'1ukSzmXbpTpcQgyHtqXXiL'
p1129
(dp1130
g3
S'Liam Gallagher'
p1131
sg5
I1
sg6
S'https://open.spotify.com/track/1ukSzmXbpTpcQgyHtqXXiL'
p1132
sg8
S'Universal Gleam'
p1133
ssS'7LEydI5NfjY6mZfKwYIptZ'
p1134
(dp1135
g3
S'Fifth Harmony'
p1136
sg5
I12
sg6
S'https://open.spotify.com/track/7LEydI5NfjY6mZfKwYIptZ'
p1137
sg8
S'Down'
p1138
ssS'3FiE2d325mIOc4YjkSLVJR'
p1139
(dp1140
g3
S'Ariana Grande'
p1141
sg5
I9
sg6
S'https://open.spotify.com/track/3FiE2d325mIOc4YjkSLVJR'
p1142
sg8
S'Everyday'
p1143
ssS'3A7qX2QjDlPnazUsRk5y0M'
p1144
(dp1145
g3
S'David Guetta'
p1146
sg5
I17
sg6
S'https://open.spotify.com/track/3A7qX2QjDlPnazUsRk5y0M'
p1147
sg8
S'2U (feat. Justin Bieber)'
p1148
ssS'3cfOd4CMv2snFaKAnMdnvK'
p1149
(dp1150
g3
S'Smash Mouth'
p1151
sg5
I11
sg6
S'https://open.spotify.com/track/3cfOd4CMv2snFaKAnMdnvK'
p1152
sg8
S'All Star'
p1153
ssS'5BOZ4skcMubA0R6RD4zf64'
p1154
(dp1155
g3
S'Tinie Tempah'
p1156
sg5
I20
sg6
S'https://open.spotify.com/track/5BOZ4skcMubA0R6RD4zf64'
p1157
sg8
S'Girls Like (feat. Zara Larsson)'
p1158
ssS'0FuTx2s3YH1ppmtiM6l0zI'
p1159
(dp1160
g3
S'JP Cooper'
p1161
sg5
I41
sg6
S'https://open.spotify.com/track/0FuTx2s3YH1ppmtiM6l0zI'
p1162
sg8
S'September Song'
p1163
ssS'0Zbbxnx4SGGHoIow4PpISP'
p1164
(dp1165
g3
S'Kygo'
p1166
sg5
I3
sg6
S'https://open.spotify.com/track/0Zbbxnx4SGGHoIow4PpISP'
p1167
sg8
S'Stargazing'
p1168
ssS'1OmcAT5Y8eg5bUPv9qJT4R'
p1169
(dp1170
g3
S'Post Malone'
p1171
sg5
I3
sg6
S'https://open.spotify.com/track/1OmcAT5Y8eg5bUPv9qJT4R'
p1172
sg8
S'rockstar'
p1173
ssS'66WPXyhXqMlkM1kZhyEXWK'
p1174
(dp1175
g3
S'Michael Bubl\xc3\xa9'
p1176
sg5
I1
sg6
S'https://open.spotify.com/track/66WPXyhXqMlkM1kZhyEXWK'
p1177
sg8
S'Christmas (Baby Please Come Home)'
p1178
ssS'5GFDrUTLGJix84sNhjCG0g'
p1179
(dp1180
g3
S'Amin\xc3\xa9'
p1181
sg5
I7
sg6
S'https://open.spotify.com/track/5GFDrUTLGJix84sNhjCG0g'
p1182
sg8
S'Caroline'
p1183
ssS'33B2QbtAj8mbDpwvGTOnBt'
p1184
(dp1185
g3
S'The xx'
p1186
sg5
I2
sg6
S'https://open.spotify.com/track/33B2QbtAj8mbDpwvGTOnBt'
p1187
sg8
S'Dangerous'
p1188
ssS'7e8utCy2JlSB8dRHKi49xM'
p1189
(dp1190
g3
S'Arctic Monkeys'
p1191
sg5
I41
sg6
S'https://open.spotify.com/track/7e8utCy2JlSB8dRHKi49xM'
p1192
sg8
S'Fluorescent Adolescent'
p1193
ssS'4mJDfMcT7odIUjWlb2WO4L'
p1194
(dp1195
g3
S'Ed Sheeran'
p1196
sg5
I1
sg6
S'https://open.spotify.com/track/4mJDfMcT7odIUjWlb2WO4L'
p1197
sg8
S'...Baby One More Time - Recorded at Spotify Studios NYC'
p1198
ssS'0m2orA1i5lLZUOt9XLwSd0'
p1199
(dp1200
g3
S'Fifth Harmony'
p1201
sg5
I1
sg6
S'https://open.spotify.com/track/0m2orA1i5lLZUOt9XLwSd0'
p1202
sg8
S'He Like That'
p1203
ssS'2jyjhRf6DVbMPU5zxagN2h'
p1204
(dp1205
g3
S'Passenger'
p1206
sg5
I5
sg6
S'https://open.spotify.com/track/2jyjhRf6DVbMPU5zxagN2h'
p1207
sg8
S'Let Her Go'
p1208
ssS'7i2DJ88J7jQ8K7zqFX2fW8'
p1209
(dp1210
g3
S'Halsey'
p1211
sg5
I4
sg6
S'https://open.spotify.com/track/7i2DJ88J7jQ8K7zqFX2fW8'
p1212
sg8
S'Now Or Never'
p1213
ssS'6DXEZzM4wBa3EOl0NCNSvz'
p1214
(dp1215
g3
S'J HUS'
p1216
sg5
I32
sg6
S'https://open.spotify.com/track/6DXEZzM4wBa3EOl0NCNSvz'
p1217
sg8
S'Did You See'
p1218
ssS'09QDTOldsJkM9ykxdTtAlf'
p1219
(dp1220
g3
S'Hardy Caprio'
p1221
sg5
I14
sg6
S'https://open.spotify.com/track/09QDTOldsJkM9ykxdTtAlf'
p1222
sg8
S'Unsigned'
p1223
ssS'68EMU2RD1ECNeOeJ5qAXCV'
p1224
(dp1225
g3
S'Charlie Puth'
p1226
sg5
I13
sg6
S'https://open.spotify.com/track/68EMU2RD1ECNeOeJ5qAXCV'
p1227
sg8
S"We Don't Talk Anymore (feat. Selena Gomez)"
p1228
ssS'2JCxYaz4o7pSXrT1ZMBWOZ'
p1229
(dp1230
g3
S'Louisa Johnson'
p1231
sg5
I17
sg6
S'https://open.spotify.com/track/2JCxYaz4o7pSXrT1ZMBWOZ'
p1232
sg8
S'Best Behaviour'
p1233
ssS'2m9MaN0JOdAlXdWVi8Wtcc'
p1234
(dp1235
g3
S'Nines'
p1236
sg5
I1
sg6
S'https://open.spotify.com/track/2m9MaN0JOdAlXdWVi8Wtcc'
p1237
sg8
S'Love 2 the Game'
p1238
ssS'7MhomISA7KRK6U7KzeV06v'
p1239
(dp1240
g3
S'Stormzy'
p1241
sg5
I9
sg6
S'https://open.spotify.com/track/7MhomISA7KRK6U7KzeV06v'
p1242
sg8
S'Cigarettes & Cush (feat. Kehlani)'
p1243
ssS'219nY3WjD9ZxpwquMQuksi'
p1244
(dp1245
g3
S'Liam Gallagher'
p1246
sg5
I1
sg6
S'https://open.spotify.com/track/219nY3WjD9ZxpwquMQuksi'
p1247
sg8
S'Come Back To Me'
p1248
ssS'2CJ6CRzuRQd46asE1ucuVD'
p1249
(dp1250
g3
S'Gorillaz'
p1251
sg5
I1
sg6
S'https://open.spotify.com/track/2CJ6CRzuRQd46asE1ucuVD'
p1252
sg8
S'Charger (feat. Grace Jones)'
p1253
ssS'6vSwxzO2Qf4BinHSXRwZJe'
p1254
(dp1255
g3
S'Ed Sheeran'
p1256
sg5
I11
sg6
S'https://open.spotify.com/track/6vSwxzO2Qf4BinHSXRwZJe'
p1257
sg8
S'Tenerife Sea'
p1258
ssS'1cImYkHOQMFE7AZC9aOk4y'
p1259
(dp1260
g3
S'Bobby Helms'
p1261
sg5
I1
sg6
S'https://open.spotify.com/track/1cImYkHOQMFE7AZC9aOk4y'
p1262
sg8
S'Jingle Bell Rock'
p1263
ssS'2q6tgiA9tpb6DMguABwCWE'
p1264
(dp1265
g3
S'John Legend'
p1266
sg5
I1
sg6
S'https://open.spotify.com/track/2q6tgiA9tpb6DMguABwCWE'
p1267
sg8
S'All of Me'
p1268
ssS'1jNOi6m3Hn8nLEeHCp5Msr'
p1269
(dp1270
g3
S'The White Stripes'
p1271
sg5
I41
sg6
S'https://open.spotify.com/track/1jNOi6m3Hn8nLEeHCp5Msr'
p1272
sg8
S'Seven Nation Army'
p1273
ssS'4VuS959DSpr82t3qBqCrWG'
p1274
(dp1275
g3
S'Ed Sheeran'
p1276
sg5
I32
sg6
S'https://open.spotify.com/track/4VuS959DSpr82t3qBqCrWG'
p1277
sg8
S'Supermarket Flowers'
p1278
ssS'7bJwvubZZaoGE1AGEfu8Fi'
p1279
(dp1280
g3
S'Ariana Grande'
p1281
sg5
I21
sg6
S'https://open.spotify.com/track/7bJwvubZZaoGE1AGEfu8Fi'
p1282
sg8
S'One Last Time'
p1283
ssS'2Za1AlJNvksouPPWbXpR2X'
p1284
(dp1285
g3
S'Macklemore'
p1286
sg5
I3
sg6
S'https://open.spotify.com/track/2Za1AlJNvksouPPWbXpR2X'
p1287
sg8
S'Good Old Days (feat. Kesha)'
p1288
ssS'1WOmEg42Mgaz1nRimIMR9C'
p1289
(dp1290
g3
S'Justin Hurwitz'
p1291
sg5
I1
sg6
S'https://open.spotify.com/track/1WOmEg42Mgaz1nRimIMR9C'
p1292
sg8
S'Epilogue - From La La Land Soundtrack'
p1293
ssS'3ZFTkvIE7kyPt6Nu3PEa7V'
p1294
(dp1295
g3
S'Shakira'
p1296
sg5
I1
sg6
S'https://open.spotify.com/track/3ZFTkvIE7kyPt6Nu3PEa7V'
p1297
sg8
S"Hips Don't Lie"
p1298
ssS'7mar4DMFlVi5DwbarqP38M'
p1299
(dp1300
g3
S'Liam Gallagher'
p1301
sg5
I1
sg6
S'https://open.spotify.com/track/7mar4DMFlVi5DwbarqP38M'
p1302
sg8
S'Paper Crown'
p1303
ssS'0Zx8khUcEfCFK2AEoIhC92'
p1304
(dp1305
g3
S'Snakehips'
p1306
sg5
I15
sg6
S'https://open.spotify.com/track/0Zx8khUcEfCFK2AEoIhC92'
p1307
sg8
S"Don't Leave"
p1308
ssS'6t44iU80A0h8WQ7vc4OoRj'
p1309
(dp1310
g3
S'Paramore'
p1311
sg5
I1
sg6
S'https://open.spotify.com/track/6t44iU80A0h8WQ7vc4OoRj'
p1312
sg8
S'Fake Happy'
p1313
ssS'5LABCxgmP7DATATIJXOh6n'
p1314
(dp1315
g3
S'Harry Styles'
p1316
sg5
I2
sg6
S'https://open.spotify.com/track/5LABCxgmP7DATATIJXOh6n'
p1317
sg8
S'Ever Since New York'
p1318
ssS'7Dm3dV3WPNdTgxoNY7YFnc'
p1319
(dp1320
g3
S'Fleetwood Mac'
p1321
sg5
I8
sg6
S'https://open.spotify.com/track/7Dm3dV3WPNdTgxoNY7YFnc'
p1322
sg8
S'The Chain - Remastered'
p1323
ssS'33SNO8AaciGbNaQFkxvPrW'
p1324
(dp1325
g3
S'Harry Styles'
p1326
sg5
I3
sg6
S'https://open.spotify.com/track/33SNO8AaciGbNaQFkxvPrW'
p1327
sg8
S'Kiwi'
p1328
ssS'6n3HGiq4v35D6eFOSwqYuo'
p1329
(dp1330
g3
S'Drake'
p1331
sg5
I10
sg6
S'https://open.spotify.com/track/6n3HGiq4v35D6eFOSwqYuo'
p1332
sg8
S'Teenage Fever'
p1333
ssS'54k4dBuQiAQgX0bIFlKlmT'
p1334
(dp1335
g3
S'J HUS'
p1336
sg5
I1
sg6
S'https://open.spotify.com/track/54k4dBuQiAQgX0bIFlKlmT'
p1337
sg8
S'Sweet Cheeks'
p1338
ssS'61WbtB6ujkpNAsAf5LjF4b'
p1339
(dp1340
g3
S'Katy Perry'
p1341
sg5
I8
sg6
S'https://open.spotify.com/track/61WbtB6ujkpNAsAf5LjF4b'
p1342
sg8
S'Bon app\xc3\xa9tit'
p1343
ssS'2bBMODHVTXGwE2aZYfbgCt'
p1344
(dp1345
g3
S'Gorillaz'
p1346
sg5
I3
sg6
S'https://open.spotify.com/track/2bBMODHVTXGwE2aZYfbgCt'
p1347
sg8
S'Ascension (feat. Vince Staples)'
p1348
ssS'0YHUITU3w6ws1v8ehT264g'
p1349
(dp1350
g3
S'Little Mix'
p1351
sg5
I42
sg6
S'https://open.spotify.com/track/0YHUITU3w6ws1v8ehT264g'
p1352
sg8
S'Shout Out to My Ex'
p1353
ssS'5yuShbu70mtHXY0yLzCQLQ'
p1354
(dp1355
g3
S'Post Malone'
p1356
sg5
I4
sg6
S'https://open.spotify.com/track/5yuShbu70mtHXY0yLzCQLQ'
p1357
sg8
S'Go Flex'
p1358
ssS'3WrG9BpOPQWUus3FjA1Tny'
p1359
(dp1360
g3
S"Destiny's Child"
p1361
sg5
I1
sg6
S'https://open.spotify.com/track/3WrG9BpOPQWUus3FjA1Tny'
p1362
sg8
S'8 Days of Christmas - Live'
p1363
ssS'73aLFMrJu7YX7IMaNlo8Ln'
p1364
(dp1365
g3
S'Stormzy'
p1366
sg5
I3
sg6
S'https://open.spotify.com/track/73aLFMrJu7YX7IMaNlo8Ln'
p1367
sg8
S'100 Bags'
p1368
ssS'32DGGj6KlNuBr6WaqRxpxi'
p1369
(dp1370
g3
S'Charlie Puth'
p1371
sg5
I1
sg6
S'https://open.spotify.com/track/32DGGj6KlNuBr6WaqRxpxi'
p1372
sg8
S'How Long'
p1373
ssS'316r1KLN0bcmpr7TZcMCXT'
p1374
(dp1375
g3
S'The 1975'
p1376
sg5
I21
sg6
S'https://open.spotify.com/track/316r1KLN0bcmpr7TZcMCXT'
p1377
sg8
S'The Sound'
p1378
ssS'1wo3UYTeizJHkwYIuLuBPF'
p1379
(dp1380
g3
S'Oasis'
p1381
sg5
I1
sg6
S'https://open.spotify.com/track/1wo3UYTeizJHkwYIuLuBPF'
p1382
sg8
S'Champagne Supernova - Remastered'
p1383
ssS'5f5r2N4Lp9WoULWPH9zp2W'
p1384
(dp1385
g3
S'Drake'
p1386
sg5
I4
sg6
S'https://open.spotify.com/track/5f5r2N4Lp9WoULWPH9zp2W'
p1387
sg8
S"Can't Have Everything"
p1388
ssS'2QWP8NYYplOqEFBYGCcq0S'
p1389
(dp1390
g3
S'The Script'
p1391
sg5
I6
sg6
S'https://open.spotify.com/track/2QWP8NYYplOqEFBYGCcq0S'
p1392
sg8
S'Rain'
p1393
ssS'3iwZ8hg0q1kTBB5kjg0nO4'
p1394
(dp1395
g3
S'Slade'
p1396
sg5
I1
sg6
S'https://open.spotify.com/track/3iwZ8hg0q1kTBB5kjg0nO4'
p1397
sg8
S'Merry Xmas Everybody'
p1398
ssS'6DwnAl6l63e83dDgIzY8P4'
p1399
(dp1400
g3
S'Michael Bubl\xc3\xa9'
p1401
sg5
I1
sg6
S'https://open.spotify.com/track/6DwnAl6l63e83dDgIzY8P4'
p1402
sg8
S'Santa Baby'
p1403
ssS'5hYTyyh2odQKphUbMqc5gN'
p1404
(dp1405
g3
S'Alessia Cara'
p1406
sg5
I40
sg6
S'https://open.spotify.com/track/5hYTyyh2odQKphUbMqc5gN'
p1407
sg8
S"How Far I'll Go - From Moana"
p1408
ssS'1u8c2t2Cy7UBoG4ArRcF5g'
p1409
(dp1410
g3
S'Taylor Swift'
p1411
sg5
I6
sg6
S'https://open.spotify.com/track/1u8c2t2Cy7UBoG4ArRcF5g'
p1412
sg8
S'Blank Space'
p1413
ssS'72jbDTw1piOOj770jWNeaG'
p1414
(dp1415
g3
S'The Chainsmokers'
p1416
sg5
I34
sg6
S'https://open.spotify.com/track/72jbDTw1piOOj770jWNeaG'
p1417
sg8
S'Paris'
p1418
ssS'0y8Wf6ltWpGCpgqVa21QNX'
p1419
(dp1420
g3
S'Charli XCX'
p1421
sg5
I12
sg6
S'https://open.spotify.com/track/0y8Wf6ltWpGCpgqVa21QNX'
p1422
sg8
S'After The Afterparty (feat. Lil Yachty)'
p1423
ssS'07Ugv4TA7PvQfoqetnmLrS'
p1424
(dp1425
g3
S'Arcade Fire'
p1426
sg5
I1
sg6
S'https://open.spotify.com/track/07Ugv4TA7PvQfoqetnmLrS'
p1427
sg8
S'Everything Now'
p1428
ssS'0XfOi87h82i09rQjWYG0Bm'
p1429
(dp1430
g3
S'Jax Jones'
p1431
sg5
I14
sg6
S'https://open.spotify.com/track/0XfOi87h82i09rQjWYG0Bm'
p1432
sg8
S'Instruction (feat. Demi Lovato & Stefflon Don)'
p1433
ssS'11EDhDAVDtGPoSar6ootYA'
p1434
(dp1435
g3
S'Halsey'
p1436
sg5
I1
sg6
S'https://open.spotify.com/track/11EDhDAVDtGPoSar6ootYA'
p1437
sg8
S'Strangers'
p1438
ssS'6FemVsNUb2lzWsDRm14FUJ'
p1439
(dp1440
g3
S'The Script'
p1441
sg5
I7
sg6
S'https://open.spotify.com/track/6FemVsNUb2lzWsDRm14FUJ'
p1442
sg8
S'Rain'
p1443
ssS'5VKMKe1zwrhEJ6kx8RaJIV'
p1444
(dp1445
g3
S'J HUS'
p1446
sg5
I1
sg6
S'https://open.spotify.com/track/5VKMKe1zwrhEJ6kx8RaJIV'
p1447
sg8
S'Closed Doors'
p1448
ssS'0d28khcov6AiegSCpG5TuT'
p1449
(dp1450
g3
S'Gorillaz'
p1451
sg5
I4
sg6
S'https://open.spotify.com/track/0d28khcov6AiegSCpG5TuT'
p1452
sg8
S'Feel Good Inc'
p1453
ssS'0dodzbwip9PhVqwGsmCUDR'
p1454
(dp1455
g3
S'Take That'
p1456
sg5
I1
sg6
S'https://open.spotify.com/track/0dodzbwip9PhVqwGsmCUDR'
p1457
sg8
S'Giants'
p1458
ssS'12o6dxWGk29uIAP3OWY0pM'
p1459
(dp1460
g3
S'Lorde'
p1461
sg5
I2
sg6
S'https://open.spotify.com/track/12o6dxWGk29uIAP3OWY0pM'
p1462
sg8
S'Homemade Dynamite'
p1463
ssS'28irpKCCK9nn9DZSik2zEx'
p1464
(dp1465
g3
S'Drake'
p1466
sg5
I4
sg6
S'https://open.spotify.com/track/28irpKCCK9nn9DZSik2zEx'
p1467
sg8
S'Glow'
p1468
ssS'6YnzBV7YkaXZNCK3tlnCfg'
p1469
(dp1470
g3
S'Boney M.'
p1471
sg5
I1
sg6
S'https://open.spotify.com/track/6YnzBV7YkaXZNCK3tlnCfg'
p1472
sg8
S"Mary's Boy Child / Oh My Lord"
p1473
ssS'2KvHC9z14GSl4YpkNMX384'
p1474
(dp1475
g3
S'Drake'
p1476
sg5
I8
sg6
S'https://open.spotify.com/track/2KvHC9z14GSl4YpkNMX384'
p1477
sg8
S'Do Not Disturb'
p1478
ssS'2gbCG4Rt9984UZ7Tc0dIFd'
p1479
(dp1480
g3
S'Michael Bubl\xc3\xa9'
p1481
sg5
I1
sg6
S'https://open.spotify.com/track/2gbCG4Rt9984UZ7Tc0dIFd'
p1482
sg8
S'White Christmas (Duet With Shania Twain)'
p1483
ssS'0dA2Mk56wEzDgegdC6R17g'
p1484
(dp1485
g3
S'Zedd'
p1486
sg5
I33
sg6
S'https://open.spotify.com/track/0dA2Mk56wEzDgegdC6R17g'
p1487
sg8
S'Stay (with Alessia Cara)'
p1488
ssS'26AuyrZGzWWiYZPSd3XBIg'
p1489
(dp1490
g3
S'The Chainsmokers'
p1491
sg5
I1
sg6
S'https://open.spotify.com/track/26AuyrZGzWWiYZPSd3XBIg'
p1492
sg8
S'Bloodstream'
p1493
ssS'3kGfazcbVvVkuZunzlLgTD'
p1494
(dp1495
g3
S'Sigala'
p1496
sg5
I18
sg6
S'https://open.spotify.com/track/3kGfazcbVvVkuZunzlLgTD'
p1497
sg8
S'Came Here for Love'
p1498
ssS'2kSKWLX5KaeFSkk34yNcJk'
p1499
(dp1500
g3
S'J HUS'
p1501
sg5
I2
sg6
S'https://open.spotify.com/track/2kSKWLX5KaeFSkk34yNcJk'
p1502
sg8
S'Like Your Style'
p1503
ssS'7gZQfdEQpmwAoPHSbEHzms'
p1504
(dp1505
g3
S'Matoma'
p1506
sg5
I2
sg6
S'https://open.spotify.com/track/7gZQfdEQpmwAoPHSbEHzms'
p1507
sg8
S'False Alarm'
p1508
ssS'2Vf2Pflg5rTWSvSCK4qq4A'
p1509
(dp1510
g3
S'Chris Brown'
p1511
sg5
I18
sg6
S'https://open.spotify.com/track/2Vf2Pflg5rTWSvSCK4qq4A'
p1512
sg8
S'Privacy'
p1513
ssS'08w1hnWW4GhVm61DoVojsY'
p1514
(dp1515
g3
S"Rag'n'Bone Man"
p1516
sg5
I1
sg6
S'https://open.spotify.com/track/08w1hnWW4GhVm61DoVojsY'
p1517
sg8
S'Grace'
p1518
ssS'4QVdnpSO5JGMFOEl6ys4RQ'
p1519
(dp1520
g3
S'Coldplay'
p1521
sg5
I1
sg6
S'https://open.spotify.com/track/4QVdnpSO5JGMFOEl6ys4RQ'
p1522
sg8
S'Christmas Lights - Live From Spotify London'
p1523
ssS'5ZnJsoJGkQ5K15W7Rcr5JO'
p1524
(dp1525
g3
S'Little Mix'
p1526
sg5
I31
sg6
S'https://open.spotify.com/track/5ZnJsoJGkQ5K15W7Rcr5JO'
p1527
sg8
S'No More Sad Songs (feat. Machine Gun Kelly)'
p1528
ssS'7nZmah2llfvLDiUjm0kiyz'
p1529
(dp1530
g3
S'Justin Bieber'
p1531
sg5
I8
sg6
S'https://open.spotify.com/track/7nZmah2llfvLDiUjm0kiyz'
p1532
sg8
S'Friends (with BloodPop\xc2\xae)'
p1533
ssS'7K0IjUT3y2wGxqd6u5DrTs'
p1534
(dp1535
g3
S'WHTKD'
p1536
sg5
I6
sg6
S'https://open.spotify.com/track/7K0IjUT3y2wGxqd6u5DrTs'
p1537
sg8
S'Say To Me'
p1538
ssS'13HVjjWUZFaWilh2QUJKsP'
p1539
(dp1540
g3
S'James Bay'
p1541
sg5
I29
sg6
S'https://open.spotify.com/track/13HVjjWUZFaWilh2QUJKsP'
p1542
sg8
S'Let It Go'
p1543
ssS'0y9uTzK9cNKSAEHnpeRG8C'
p1544
(dp1545
g3
S'Kendrick Lamar'
p1546
sg5
I2
sg6
S'https://open.spotify.com/track/0y9uTzK9cNKSAEHnpeRG8C'
p1547
sg8
S'DUCKWORTH.'
p1548
ssS'3eFJqPe8VUYrABbFjSauuj'
p1549
(dp1550
g3
g457
sg5
I1
sg6
S'https://open.spotify.com/track/3eFJqPe8VUYrABbFjSauuj'
p1551
sg8
g457
ssS'5XJJdNPkwmbUwE79gv0NxK'
p1552
(dp1553
g3
S'Kanye West'
p1554
sg5
I37
sg6
S'https://open.spotify.com/track/5XJJdNPkwmbUwE79gv0NxK'
p1555
sg8
S'Gold Digger'
p1556
ssS'6D0b04NJIKfEMg040WioJQ'
p1557
(dp1558
g3
S'Julia Michaels'
p1559
sg5
I1
sg6
S'https://open.spotify.com/track/6D0b04NJIKfEMg040WioJQ'
p1560
sg8
S'Issues'
p1561
ssS'0UvCh63URrLFcPkKt99hHd'
p1562
(dp1563
g3
S'Oasis'
p1564
sg5
I20
sg6
S'https://open.spotify.com/track/0UvCh63URrLFcPkKt99hHd'
p1565
sg8
S"Don't Look Back in Anger - Remastered"
p1566
ssS'7of1slAJIWrXxP8ikAHxje'
p1567
(dp1568
g3
S'James Hersey'
p1569
sg5
I12
sg6
S'https://open.spotify.com/track/7of1slAJIWrXxP8ikAHxje'
p1570
sg8
S'Miss You'
p1571
ssS'28KYBZXnvRk560ty8mdVIQ'
p1572
(dp1573
g3
S'Foo Fighters'
p1574
sg5
I1
sg6
S'https://open.spotify.com/track/28KYBZXnvRk560ty8mdVIQ'
p1575
sg8
S'Run'
p1576
ssS'2dfHh7ECGxfNqZTQno09Vk'
p1577
(dp1578
g3
S'Ed Sheeran'
p1579
sg5
I13
sg6
S'https://open.spotify.com/track/2dfHh7ECGxfNqZTQno09Vk'
p1580
sg8
S"Hearts Don't Break Around Here"
p1581
ssS'6n8TMVyFKoUmDc4apxceRD'
p1582
(dp1583
g3
S'Linkin Park'
p1584
sg5
I1
sg6
S'https://open.spotify.com/track/6n8TMVyFKoUmDc4apxceRD'
p1585
sg8
S'Breaking The Habit'
p1586
ssS'7gn0MfkV4ZuMkqbPlmhIlx'
p1587
(dp1588
g3
S'alt-J'
p1589
sg5
I1
sg6
S'https://open.spotify.com/track/7gn0MfkV4ZuMkqbPlmhIlx'
p1590
sg8
S'Deadcrush'
p1591
ssS'7GJClzimvMSghjcrKxuf1M'
p1592
(dp1593
g3
S'George Ezra'
p1594
sg5
I3
sg6
S'https://open.spotify.com/track/7GJClzimvMSghjcrKxuf1M'
p1595
sg8
S'Budapest'
p1596
ssS'7l9CE3wmEGOUYw1j4ETjnL'
p1597
(dp1598
g3
S'Gorillaz'
p1599
sg5
I4
sg6
S'https://open.spotify.com/track/7l9CE3wmEGOUYw1j4ETjnL'
p1600
sg8
S'Saturnz Barz (feat. Popcaan)'
p1601
ssS'5fc6rQgAKiLutfUYWQ6QnJ'
p1602
(dp1603
g3
S'Sia'
p1604
sg5
I2
sg6
S'https://open.spotify.com/track/5fc6rQgAKiLutfUYWQ6QnJ'
p1605
sg8
S'Helium - From Fifty Shades Darker (Original Motion Picture Soundtrack)'
p1606
ssS'1wLQwg0mloy3yXjL0jPE0N'
p1607
(dp1608
g3
S'Foo Fighters'
p1609
sg5
I1
sg6
S'https://open.spotify.com/track/1wLQwg0mloy3yXjL0jPE0N'
p1610
sg8
S'Run'
p1611
ssS'343YBumqHu19cGoGARUTsd'
p1612
(dp1613
g3
S'Drake'
p1614
sg5
I41
sg6
S'https://open.spotify.com/track/343YBumqHu19cGoGARUTsd'
p1615
sg8
S'Fake Love'
p1616
ssS'4PXVZqZdzzfqFX39LS52b3'
p1617
(dp1618
g3
S'Kideko'
p1619
sg5
I4
sg6
S'https://open.spotify.com/track/4PXVZqZdzzfqFX39LS52b3'
p1620
sg8
S'Crank It (Woah!) - Radio Edit'
p1621
ssS'4xyNG8vZR3g8FnphVkbjRo'
p1622
(dp1623
g3
S'Lana Del Rey'
p1624
sg5
I1
sg6
S'https://open.spotify.com/track/4xyNG8vZR3g8FnphVkbjRo'
p1625
sg8
S'Love'
p1626
ssS'6V9kwssTrwkKT72imgowj9'
p1627
(dp1628
g3
S'The Chainsmokers'
p1629
sg5
I1
sg6
S'https://open.spotify.com/track/6V9kwssTrwkKT72imgowj9'
p1630
sg8
S'My Type'
p1631
ssS'6pqwDzVocf27DbebP2w7eK'
p1632
(dp1633
g3
S'Nines'
p1634
sg5
I1
sg6
S'https://open.spotify.com/track/6pqwDzVocf27DbebP2w7eK'
p1635
sg8
S'I Wonder'
p1636
ssS'3aLSrx8qhssXrh5yjB6oy9'
p1637
(dp1638
g3
S'Martin Solveig'
p1639
sg5
I3
sg6
S'https://open.spotify.com/track/3aLSrx8qhssXrh5yjB6oy9'
p1640
sg8
S'All Stars'
p1641
ssS'6WbADFqMvR8N5u0BvtsWQE'
p1642
(dp1643
g3
S'Avicii'
p1644
sg5
I9
sg6
S'https://open.spotify.com/track/6WbADFqMvR8N5u0BvtsWQE'
p1645
sg8
S'Without You (feat. Sandro Cavazza)'
p1646
ssS'1vYew137WJ69SFp9oez3xm'
p1647
(dp1648
g3
S'UB40'
p1649
sg5
I1
sg6
S'https://open.spotify.com/track/1vYew137WJ69SFp9oez3xm'
p1650
sg8
S'Red Red Wine - Edit'
p1651
ssS'1DnSNqCQM3LUxqFuXt184Q'
p1652
(dp1653
g3
S'Michael Bubl\xc3\xa9'
p1654
sg5
I1
sg6
S'https://open.spotify.com/track/1DnSNqCQM3LUxqFuXt184Q'
p1655
sg8
S'Have Yourself A Merry Little Christmas'
p1656
ssS'4pdPtRcBmOSQDlJ3Fk945m'
p1657
(dp1658
g3
S'DJ Snake'
p1659
sg5
I30
sg6
S'https://open.spotify.com/track/4pdPtRcBmOSQDlJ3Fk945m'
p1660
sg8
S'Let Me Love You'
p1661
ssS'5EnYT6F7wEcdege6mDHEfO'
p1662
(dp1663
g3
S'Drake'
p1664
sg5
I14
sg6
S'https://open.spotify.com/track/5EnYT6F7wEcdege6mDHEfO'
p1665
sg8
S'Signs'
p1666
ssS'5363UEnFQn18UgsUgkCQT6'
p1667
(dp1668
g3
S'J HUS'
p1669
sg5
I1
sg6
S'https://open.spotify.com/track/5363UEnFQn18UgsUgkCQT6'
p1670
sg8
S'Clartin'
p1671
ssS'2EcQY09CYgJ1qk6H1qZf8h'
p1672
(dp1673
g3
S'Paramore'
p1674
sg5
I1
sg6
S'https://open.spotify.com/track/2EcQY09CYgJ1qk6H1qZf8h'
p1675
sg8
S'26'
p1676
ssS'6ZJh9aWWT8dQK6xHfgxwey'
p1677
(dp1678
g3
S'Aled Jones'
p1679
sg5
I1
sg6
S'https://open.spotify.com/track/6ZJh9aWWT8dQK6xHfgxwey'
p1680
sg8
S'Walking In The Air'
p1681
ssS'4o6BgsqLIBViaGVbx5rbRk'
p1682
(dp1683
g3
S'Daryl Hall & John Oates'
p1684
sg5
I2
sg6
S'https://open.spotify.com/track/4o6BgsqLIBViaGVbx5rbRk'
p1685
sg8
S'You Make My Dreams - Remastered'
p1686
ssS'2Na0z2gfN67Rzf0vp74Wi3'
p1687
(dp1688
g3
S'Drake'
p1689
sg5
I4
sg6
S'https://open.spotify.com/track/2Na0z2gfN67Rzf0vp74Wi3'
p1690
sg8
S'Lose You'
p1691
ssS'5sNESr6pQfIhL3krM8CtZn'
p1692
(dp1693
g3
S'JAY Z'
p1694
sg5
I9
sg6
S'https://open.spotify.com/track/5sNESr6pQfIhL3krM8CtZn'
p1695
sg8
S'Numb / Encore'
p1696
ssS'2RCp9QBnFSxdKe8RD4xF8s'
p1697
(dp1698
g3
S'Gorillaz'
p1699
sg5
I1
sg6
S'https://open.spotify.com/track/2RCp9QBnFSxdKe8RD4xF8s'
p1700
sg8
S'Momentz (feat. De La Soul)'
p1701
ssS'0tV8pOpiNsKqUys0ilUcXz'
p1702
(dp1703
g3
S'Andra Day'
p1704
sg5
I3
sg6
S'https://open.spotify.com/track/0tV8pOpiNsKqUys0ilUcXz'
p1705
sg8
S'Rise Up'
p1706
ssS'7oK9VyNzrYvRFo7nQEYkWN'
p1707
(dp1708
g3
S'The Killers'
p1709
sg5
I42
sg6
S'https://open.spotify.com/track/7oK9VyNzrYvRFo7nQEYkWN'
p1710
sg8
S'Mr. Brightside'
p1711
ssS'4iYRa2btalAzPZoSYfROqF'
p1712
(dp1713
g3
S'Kendrick Lamar'
p1714
sg5
I4
sg6
S'https://open.spotify.com/track/4iYRa2btalAzPZoSYfROqF'
p1715
sg8
S'XXX. FEAT. U2.'
p1716
ssS'0WruOD5fP4RJ1kAn3Pcv3h'
p1717
(dp1718
g3
S'Kasabian'
p1719
sg5
I1
sg6
S'https://open.spotify.com/track/0WruOD5fP4RJ1kAn3Pcv3h'
p1720
sg8
S'Ill Ray (The King)'
p1721
ssS'5OOkp4U9P9oL23maHFHL1h'
p1722
(dp1723
g3
S'Desiigner'
p1724
sg5
I9
sg6
S'https://open.spotify.com/track/5OOkp4U9P9oL23maHFHL1h'
p1725
sg8
S'Panda'
p1726
ssS'3qmvK8QARSPkFTuKeIXSbs'
p1727
(dp1728
g3
S'Linkin Park'
p1729
sg5
I1
sg6
S'https://open.spotify.com/track/3qmvK8QARSPkFTuKeIXSbs'
p1730
sg8
S'Bleed It Out'
p1731
ssS'7y6c07pgjZvtHI9kuMVqk1'
p1732
(dp1733
g3
S'Drake'
p1734
sg5
I11
sg6
S'https://open.spotify.com/track/7y6c07pgjZvtHI9kuMVqk1'
p1735
sg8
S'Get It Together'
p1736
ssS'4ckuS4Nj4FZ7i3Def3Br8W'
p1737
(dp1738
g3
S'Drake'
p1739
sg5
I9
sg6
S'https://open.spotify.com/track/4ckuS4Nj4FZ7i3Def3Br8W'
p1740
sg8
S'Sneakin\xe2\x80\x99'
p1741
ssS'3cFsmM51N5zMAuu1nNY4Tw'
p1742
(dp1743
g3
S'Sean Paul'
p1744
sg5
I31
sg6
S'https://open.spotify.com/track/3cFsmM51N5zMAuu1nNY4Tw'
p1745
sg8
S'No Lie'
p1746
ssS'6YzvFfzQNxAUZWYjDOHo6H'
p1747
(dp1748
g3
S'James Hype'
p1749
sg5
I13
sg6
S'https://open.spotify.com/track/6YzvFfzQNxAUZWYjDOHo6H'
p1750
sg8
S'More Than Friends (feat. Kelli-Leigh)'
p1751
ssS'79cuOz3SPQTuFrp8WgftAu'
p1752
(dp1753
g3
S'Shawn Mendes'
p1754
sg5
I25
sg6
S'https://open.spotify.com/track/79cuOz3SPQTuFrp8WgftAu'
p1755
sg8
S"There's Nothing Holdin' Me Back"
p1756
ssS'4c2W3VKsOFoIg2SFaO6DY5'
p1757
(dp1758
g3
S'Rita Ora'
p1759
sg5
I20
sg6
S'https://open.spotify.com/track/4c2W3VKsOFoIg2SFaO6DY5'
p1760
sg8
S'Your Song'
p1761
ssS'0lmdsH1MIoLsMymnNpd6HU'
p1762
(dp1763
g3
S'Dante Klein'
p1764
sg5
I1
sg6
S'https://open.spotify.com/track/0lmdsH1MIoLsMymnNpd6HU'
p1765
sg8
S'Let Me Hold You (Turn Me On)'
p1766
ssS'4ARPvK8DHLwt4oX65ZAFMw'
p1767
(dp1768
g3
S'XXXTENTACION'
p1769
sg5
I13
sg6
S'https://open.spotify.com/track/4ARPvK8DHLwt4oX65ZAFMw'
p1770
sg8
S'Look At Me!'
p1771
ssS'3ebXMykcMXOcLeJ9xZ17XH'
p1772
(dp1773
g3
S'Martin Garrix'
p1774
sg5
I36
sg6
S'https://open.spotify.com/track/3ebXMykcMXOcLeJ9xZ17XH'
p1775
sg8
S'Scared to Be Lonely'
p1776
ssS'5eY44OoKgZTotXKfypXvXX'
p1777
(dp1778
g3
S'Liam Gallagher'
p1779
sg5
I1
sg6
S'https://open.spotify.com/track/5eY44OoKgZTotXKfypXvXX'
p1780
sg8
S'Chinatown'
p1781
ssS'6ZX2qXkhaueabbzp6vfabS'
p1782
(dp1783
g3
S'ALMA'
p1784
sg5
I3
sg6
S'https://open.spotify.com/track/6ZX2qXkhaueabbzp6vfabS'
p1785
sg8
S'Phases'
p1786
ssS'1ixphys4A3NEXp6MDScfih'
p1787
(dp1788
g3
S'Dua Lipa'
p1789
sg5
I1
sg6
S'https://open.spotify.com/track/1ixphys4A3NEXp6MDScfih'
p1790
sg8
S'Be The One'
p1791
ssS'4JIo8RztBbELr2gWJ5OGK6'
p1792
(dp1793
g3
S'Little Mix'
p1794
sg5
I3
sg6
S'https://open.spotify.com/track/4JIo8RztBbELr2gWJ5OGK6'
p1795
sg8
S'Secret Love Song'
p1796
ssS'4tbXPqRtTqFdf6QEzNl3kT'
p1797
(dp1798
g3
S'AJ Tracey'
p1799
sg5
I1
sg6
S'https://open.spotify.com/track/4tbXPqRtTqFdf6QEzNl3kT'
p1800
sg8
S'Blacked Out'
p1801
ssS'3eR23VReFzcdmS7TYCrhCe'
p1802
(dp1803
g3
S'Kygo'
p1804
sg5
I33
sg6
S'https://open.spotify.com/track/3eR23VReFzcdmS7TYCrhCe'
p1805
sg8
S"It Ain't Me (with Selena Gomez)"
p1806
ssS'2eAZfqOm4EnOF9VvN50Tyc'
p1807
(dp1808
g3
S'Lil Uzi Vert'
p1809
sg5
I7
sg6
S'https://open.spotify.com/track/2eAZfqOm4EnOF9VvN50Tyc'
p1810
sg8
S'The Way Life Goes'
p1811
ssS'2bjwRfXMk4uRgOD9IBYl9h'
p1812
(dp1813
g3
S'Drake'
p1814
sg5
I24
sg6
S'https://open.spotify.com/track/2bjwRfXMk4uRgOD9IBYl9h'
p1815
sg8
S'Portland'
p1816
ssS'6jA8HL9i4QGzsj6fjoxp8Y'
p1817
(dp1818
g3
S'Martin Garrix'
p1819
sg5
I19
sg6
S'https://open.spotify.com/track/6jA8HL9i4QGzsj6fjoxp8Y'
p1820
sg8
S'There for You'
p1821
ssS'37xcWhVKQ99uuiA5Y4yapi'
p1822
(dp1823
g3
S'Little Mix'
p1824
sg5
I14
sg6
S'https://open.spotify.com/track/37xcWhVKQ99uuiA5Y4yapi'
p1825
sg8
S'Oops'
p1826
ssS'5Xc74Dn1ZKH6H8XaVGOHXG'
p1827
(dp1828
g3
S'Disciples'
p1829
sg5
I27
sg6
S'https://open.spotify.com/track/5Xc74Dn1ZKH6H8XaVGOHXG'
p1830
sg8
S'On My Mind'
p1831
ssS'5LXj9Ch3O9ATm1NoHT8GXn'
p1832
(dp1833
g3
S'Coldplay'
p1834
sg5
I1
sg6
S'https://open.spotify.com/track/5LXj9Ch3O9ATm1NoHT8GXn'
p1835
sg8
S'Hypnotised'
p1836
ssS'0gxfdKlRNsUhwb296HvUXA'
p1837
(dp1838
g3
S'Giggs'
p1839
sg5
I1
sg6
S'https://open.spotify.com/track/0gxfdKlRNsUhwb296HvUXA'
p1840
sg8
S'Peligro'
p1841
ssS'5bZtRlMBU76vHuDOb1GM5u'
p1842
(dp1843
g3
S'Jonas Blue'
p1844
sg5
I1
sg6
S'https://open.spotify.com/track/5bZtRlMBU76vHuDOb1GM5u'
p1845
sg8
S'Perfect Strangers'
p1846
ssS'2OWKDTonST8HNko3dBlPPp'
p1847
(dp1848
g3
S'Dua Lipa'
p1849
sg5
I7
sg6
S'https://open.spotify.com/track/2OWKDTonST8HNko3dBlPPp'
p1850
sg8
S'Lost In Your Light (feat. Miguel)'
p1851
ssS'1KT0xdIjm7t053xByACrrg'
p1852
(dp1853
g3
S'Ariana Grande'
p1854
sg5
I3
sg6
S'https://open.spotify.com/track/1KT0xdIjm7t053xByACrrg'
p1855
sg8
S'\xe7\xbe\x8e\xe5\xa5\xb3\xe3\x81\xa8\xe9\x87\x8e\xe7\x8d\xa3'
p1856
ssS'6TIU9Ehmi6dMzZK73Ym4yj'
p1857
(dp1858
g3
S'Ed Sheeran'
p1859
sg5
I11
sg6
S'https://open.spotify.com/track/6TIU9Ehmi6dMzZK73Ym4yj'
p1860
sg8
S'Save Myself'
p1861
ssS'1OxL1FWSEd7QmJoWLRP2NO'
p1862
(dp1863
g3
S'Jorja Smith'
p1864
sg5
I5
sg6
S'https://open.spotify.com/track/1OxL1FWSEd7QmJoWLRP2NO'
p1865
sg8
S'On My Mind (Jorja Smith X Preditah)'
p1866
ssS'7taXf5odg9xCAZERYfyOkS'
p1867
(dp1868
g3
S'Jos\xc3\xa9 Feliciano'
p1869
sg5
I1
sg6
S'https://open.spotify.com/track/7taXf5odg9xCAZERYfyOkS'
p1870
sg8
S'Feliz Navidad'
p1871
ssS'5xoUgPXbMNUmoHU0Enwtwq'
p1872
(dp1873
g3
S'The Kooks'
p1874
sg5
I20
sg6
S'https://open.spotify.com/track/5xoUgPXbMNUmoHU0Enwtwq'
p1875
sg8
S'She Moves In Her Own Way'
p1876
ssS'3hRZsdTF5uyGA2uhNqEuhm'
p1877
(dp1878
g3
S'Niall Horan'
p1879
sg5
I4
sg6
S'https://open.spotify.com/track/3hRZsdTF5uyGA2uhNqEuhm'
p1880
sg8
S'Too Much To Ask'
p1881
ssS'2lDWYLNnfYyXngjz4plpy2'
p1882
(dp1883
g3
S'Emma Stone'
p1884
sg5
I1
sg6
S'https://open.spotify.com/track/2lDWYLNnfYyXngjz4plpy2'
p1885
sg8
S'Audition (The Fools Who Dream) - From La La Land Soundtrack'
p1886
ssS'2mfUa8bLs2s5N4VaqJZ4lZ'
p1887
(dp1888
g3
S'Hailee Steinfeld'
p1889
sg5
I23
sg6
S'https://open.spotify.com/track/2mfUa8bLs2s5N4VaqJZ4lZ'
p1890
sg8
S'Most Girls'
p1891
ssS'7oGZAicScQt96OAW4AruYy'
p1892
(dp1893
g3
S'Jason Derulo'
p1894
sg5
I5
sg6
S'https://open.spotify.com/track/7oGZAicScQt96OAW4AruYy'
p1895
sg8
S'Want to Want Me'
p1896
ssS'4aWmUDTfIPGksMNLV2rQP2'
p1897
(dp1898
g3
S'Luis Fonsi'
p1899
sg5
I33
sg6
S'https://open.spotify.com/track/4aWmUDTfIPGksMNLV2rQP2'
p1900
sg8
S'Despacito (Featuring Daddy Yankee)'
p1901
ssS'58zsLZPvfflaiIbNWoA22O'
p1902
(dp1903
g3
S"Rag'n'Bone Man"
p1904
sg5
I42
sg6
S'https://open.spotify.com/track/58zsLZPvfflaiIbNWoA22O'
p1905
sg8
S'Human'
p1906
ssS'35QZaWQRkmnAVqBF1TLCxQ'
p1907
(dp1908
g3
S'Ed Sheeran'
p1909
sg5
I20
sg6
S'https://open.spotify.com/track/35QZaWQRkmnAVqBF1TLCxQ'
p1910
sg8
S'Nancy Mulligan'
p1911
ssS'60APt5N2NRaKWf5xzJdzyC'
p1912
(dp1913
g3
S'Calvin Harris'
p1914
sg5
I11
sg6
S'https://open.spotify.com/track/60APt5N2NRaKWf5xzJdzyC'
p1915
sg8
S'Heatstroke'
p1916
ssS'25C5CowdsfXld2jJanbiex'
p1917
(dp1918
g3
S'Demi Lovato'
p1919
sg5
I11
sg6
S'https://open.spotify.com/track/25C5CowdsfXld2jJanbiex'
p1920
sg8
S'Sorry Not Sorry'
p1921
ssS'6OJ5jV3ClJbMgyZj6H5hK0'
p1922
(dp1923
g3
S'Giggs'
p1924
sg5
I19
sg6
S'https://open.spotify.com/track/6OJ5jV3ClJbMgyZj6H5hK0'
p1925
sg8
S'Lock Doh'
p1926
ssS'5PmlrsujvBZV4YWlJB4jRk'
p1927
(dp1928
g3
S'Anton Powers'
p1929
sg5
I6
sg6
S'https://open.spotify.com/track/5PmlrsujvBZV4YWlJB4jRk'
p1930
sg8
S'Baby'
p1931
ssS'0azC730Exh71aQlOt9Zj3y'
p1932
(dp1933
g3
S'Calvin Harris'
p1934
sg5
I30
sg6
S'https://open.spotify.com/track/0azC730Exh71aQlOt9Zj3y'
p1935
sg8
S'This Is What You Came For'
p1936
ssS'2Z8WuEywRWYTKe1NybPQEW'
p1937
(dp1938
g3
S'Twenty One Pilots'
p1939
sg5
I9
sg6
S'https://open.spotify.com/track/2Z8WuEywRWYTKe1NybPQEW'
p1940
sg8
S'Ride'
p1941
ssS'0bzssi2eITqFX81J0fKCun'
p1942
(dp1943
g3
S'KSI'
p1944
sg5
I1
sg6
S'https://open.spotify.com/track/0bzssi2eITqFX81J0fKCun'
p1945
sg8
S'Creature'
p1946
ssS'60Ih7J2Q1o9shvMC2OAALu'
p1947
(dp1948
g3
S'The Wombats'
p1949
sg5
I1
sg6
S'https://open.spotify.com/track/60Ih7J2Q1o9shvMC2OAALu'
p1950
sg8
S"Let's Dance To Joy Division"
p1951
ssS'3t1phUY6LrP0Bpd5eNT8Dt'
p1952
(dp1953
g3
S'Olly Murs'
p1954
sg5
I2
sg6
S'https://open.spotify.com/track/3t1phUY6LrP0Bpd5eNT8Dt'
p1955
sg8
S'Years & Years'
p1956
ssS'3mkJigBxWd5DJUsRuwHG3f'
p1957
(dp1958
g3
S'Craig David'
p1959
sg5
I2
sg6
S'https://open.spotify.com/track/3mkJigBxWd5DJUsRuwHG3f'
p1960
sg8
S"Ain't Giving Up"
p1961
ssS'6JV2JOEocMgcZxYSZelKcc'
p1962
(dp1963
g3
S'Justin Timberlake'
p1964
sg5
I38
sg6
S'https://open.spotify.com/track/6JV2JOEocMgcZxYSZelKcc'
p1965
sg8
S"CAN'T STOP THE FEELING! (Original Song from DreamWorks Animation's TROLLS)"
p1966
ssS'05KOgYg8PGeJyyWBPi5ja8'
p1967
(dp1968
g3
S'Drake'
p1969
sg5
I8
sg6
S'https://open.spotify.com/track/05KOgYg8PGeJyyWBPi5ja8'
p1970
sg8
S'Free Smoke'
p1971
ssS'0U6Ga0VWSGq6iEE1AKkgO1'
p1972
(dp1973
g3
S'Fleetwood Mac'
p1974
sg5
I2
sg6
S'https://open.spotify.com/track/0U6Ga0VWSGq6iEE1AKkgO1'
p1975
sg8
S'Everywhere - Remastered'
p1976
ssS'3GVkPk8mqxz0itaAriG1L7'
p1977
(dp1978
g3
S'XXXTENTACION'
p1979
sg5
I7
sg6
S'https://open.spotify.com/track/3GVkPk8mqxz0itaAriG1L7'
p1980
sg8
S'Everybody Dies In Their Nightmares'
p1981
ssS'7aV2mflaASUmGhCErm7kBO'
p1982
(dp1983
g3
S'Nevada'
p1984
sg5
I18
sg6
S'https://open.spotify.com/track/7aV2mflaASUmGhCErm7kBO'
p1985
sg8
S'The Mack'
p1986
ssS'3loNCAyjqpgB9DvKhLMKi9'
p1987
(dp1988
g3
S'Skepta'
p1989
sg5
I4
sg6
S'https://open.spotify.com/track/3loNCAyjqpgB9DvKhLMKi9'
p1990
sg8
S"That's Not Me"
p1991
ssS'6a1hzBiTkgqTsDA0Xgfh9z'
p1992
(dp1993
g3
S'The Jackson 5'
p1994
sg5
I1
sg6
S'https://open.spotify.com/track/6a1hzBiTkgqTsDA0Xgfh9z'
p1995
sg8
S'Santa Claus Is Coming To Town'
p1996
ssS'7nKBxz47S9SD79N086fuhn'
p1997
(dp1998
g3
S'Enrique Iglesias'
p1999
sg5
I8
sg6
S'https://open.spotify.com/track/7nKBxz47S9SD79N086fuhn'
p2000
sg8
S'SUBEME LA RADIO'
p2001
ssS'41onDks2UPbyjer5fMeUWf'
p2002
(dp2003
g3
S'Run\xe2\x80\x93D.M.C.'
p2004
sg5
I1
sg6
S'https://open.spotify.com/track/41onDks2UPbyjer5fMeUWf'
p2005
sg8
S'Christmas in Hollis'
p2006
ssS'2IqJgAu14XDs35mW0j0WFK'
p2007
(dp2008
g3
S'Stormzy'
p2009
sg5
I2
sg6
S'https://open.spotify.com/track/2IqJgAu14XDs35mW0j0WFK'
p2010
sg8
S"Don't Cry For Me (feat. Raleigh Ritchie)"
p2011
ssS'3rOSwuTsUlJp0Pu0MkN8r8'
p2012
(dp2013
g3
S'Future'
p2014
sg5
I34
sg6
S'https://open.spotify.com/track/3rOSwuTsUlJp0Pu0MkN8r8'
p2015
sg8
S'Mask Off'
p2016
ssS'1qOLh0tI7trd1zdDKxYZTe'
p2017
(dp2018
g3
S'Hailee Steinfeld'
p2019
sg5
I35
sg6
S'https://open.spotify.com/track/1qOLh0tI7trd1zdDKxYZTe'
p2020
sg8
S'Starving'
p2021
ssS'0cqRj7pUJDkTCEsJkx8snD'
p2022
(dp2023
g3
S'Taylor Swift'
p2024
sg5
I9
sg6
S'https://open.spotify.com/track/0cqRj7pUJDkTCEsJkx8snD'
p2025
sg8
S'Shake It Off'
p2026
ssS'3nAp4IvdMPPWEH9uuXFFV5'
p2027
(dp2028
g3
S'Kelly Clarkson'
p2029
sg5
I1
sg6
S'https://open.spotify.com/track/3nAp4IvdMPPWEH9uuXFFV5'
p2030
sg8
S'Underneath the Tree'
p2031
ssS'4KaIJ1FWXUoAAnOts1YWjD'
p2032
(dp2033
g3
S'Calvin Harris'
p2034
sg5
I1
sg6
S'https://open.spotify.com/track/4KaIJ1FWXUoAAnOts1YWjD'
p2035
sg8
S'Prayers Up'
p2036
ssS'7inXu0Eaeg02VsM8kHNvzM'
p2037
(dp2038
g3
S'Frank Sinatra'
p2039
sg5
I1
sg6
S'https://open.spotify.com/track/7inXu0Eaeg02VsM8kHNvzM'
p2040
sg8
S'Let It Snow! Let It Snow! Let It Snow!'
p2041
ssS'5eTNdkstwKaNahHf41fJ9u'
p2042
(dp2043
g3
S'Dua Lipa'
p2044
sg5
I1
sg6
S'https://open.spotify.com/track/5eTNdkstwKaNahHf41fJ9u'
p2045
sg8
S'Hotter Than Hell'
p2046
ssS'1cG0umU5TKStygKsPFZ9pY'
p2047
(dp2048
g3
S'Robin Schulz'
p2049
sg5
I22
sg6
S'https://open.spotify.com/track/1cG0umU5TKStygKsPFZ9pY'
p2050
sg8
S'Shed a Light'
p2051
ssS'7xHWNBFm6ObGEQPaUxHuKO'
p2052
(dp2053
g3
S'Sia'
p2054
sg5
I12
sg6
S'https://open.spotify.com/track/7xHWNBFm6ObGEQPaUxHuKO'
p2055
sg8
S'The Greatest'
p2056
ssS'4q8PHoRsPUB52LFylX8Ulz'
p2057
(dp2058
g3
S'Axwell /\\ Ingrosso'
p2059
sg5
I6
sg6
S'https://open.spotify.com/track/4q8PHoRsPUB52LFylX8Ulz'
p2060
sg8
S'More Than You Know'
p2061
ssS'7BKLCZ1jbUBVqRi2FVlTVw'
p2062
(dp2063
g3
S'The Chainsmokers'
p2064
sg5
I42
sg6
S'https://open.spotify.com/track/7BKLCZ1jbUBVqRi2FVlTVw'
p2065
sg8
S'Closer'
p2066
ssS'6EpRaXYhGOB3fj4V2uDkMJ'
p2067
(dp2068
g3
S'Liam Payne'
p2069
sg5
I21
sg6
S'https://open.spotify.com/track/6EpRaXYhGOB3fj4V2uDkMJ'
p2070
sg8
S'Strip That Down'
p2071
ssS'6kig1UFggPUyZBCvXD3Wod'
p2072
(dp2073
g3
S'Metro Boomin'
p2074
sg5
I1
sg6
S'https://open.spotify.com/track/6kig1UFggPUyZBCvXD3Wod'
p2075
sg8
S'No Complaints'
p2076
ssS'3Db8OhBMmNPLv2rHYoP7Wf'
p2077
(dp2078
g3
S'John Gibbons'
p2079
sg5
I19
sg6
S'https://open.spotify.com/track/3Db8OhBMmNPLv2rHYoP7Wf'
p2080
sg8
S'P.Y.T. (Pretty Young Thing)'
p2081
ssS'5Gz1PxujU62sfecQpB0Stm'
p2082
(dp2083
g3
S'Olly Murs'
p2084
sg5
I16
sg6
S'https://open.spotify.com/track/5Gz1PxujU62sfecQpB0Stm'
p2085
sg8
S'Unpredictable'
p2086
ssS'4O4xuKdvJvl7HpFlYGwudS'
p2087
(dp2088
g3
S'The xx'
p2089
sg5
I1
sg6
S'https://open.spotify.com/track/4O4xuKdvJvl7HpFlYGwudS'
p2090
sg8
S'Replica'
p2091
ssS'7h6S1r4NZ18h7m4zs0UPaK'
p2092
(dp2093
g3
S'KSI'
p2094
sg5
I1
sg6
S'https://open.spotify.com/track/7h6S1r4NZ18h7m4zs0UPaK'
p2095
sg8
S'Little Boy'
p2096
ssS'03hqMhmCZiNKMSPmVabPLP'
p2097
(dp2098
g3
S'Lana Del Rey'
p2099
sg5
I1
sg6
S'https://open.spotify.com/track/03hqMhmCZiNKMSPmVabPLP'
p2100
sg8
S'Groupie Love (feat. A$AP Rocky)'
p2101
ssS'4kbj5MwxO1bq9wjT5g9HaA'
p2102
(dp2103
g3
S'WALK THE MOON'
p2104
sg5
I13
sg6
S'https://open.spotify.com/track/4kbj5MwxO1bq9wjT5g9HaA'
p2105
sg8
S'Shut Up and Dance'
p2106
ssS'0utlOiJy2weVl9WTkcEWHy'
p2107
(dp2108
g3
S'J. Cole'
p2109
sg5
I2
sg6
S'https://open.spotify.com/track/0utlOiJy2weVl9WTkcEWHy'
p2110
sg8
S'Neighbors'
p2111
ssS'2uFaJJtFpPDc5Pa95XzTvg'
p2112
(dp2113
g3
S'Dean Martin'
p2114
sg5
I1
sg6
S'https://open.spotify.com/track/2uFaJJtFpPDc5Pa95XzTvg'
p2115
sg8
S'Let It Snow! Let It Snow! Let It Snow!'
p2116
ssS'0AJhcuRl3i1FfPNr88ZScv'
p2117
(dp2118
g3
S'Kasabian'
p2119
sg5
I12
sg6
S'https://open.spotify.com/track/0AJhcuRl3i1FfPNr88ZScv'
p2120
sg8
S"You're In Love With a Psycho"
p2121
ssS'1KqvRRQd3lfM0pAlkGPrgD'
p2122
(dp2123
g3
S'Ed Sheeran'
p2124
sg5
I1
sg6
S'https://open.spotify.com/track/1KqvRRQd3lfM0pAlkGPrgD'
p2125
sg8
S'Shape of You (Major Lazer Remix) [feat. Nyla & Kranium]'
p2126
ssS'5MFzQMkrl1FOOng9tq6R9r'
p2127
(dp2128
g3
S'Maroon 5'
p2129
sg5
I21
sg6
S'https://open.spotify.com/track/5MFzQMkrl1FOOng9tq6R9r'
p2130
sg8
S"Don't Wanna Know"
p2131
ssS'5Z3GHaZ6ec9bsiI5BenrbY'
p2132
(dp2133
g3
S'Khalid'
p2134
sg5
I9
sg6
S'https://open.spotify.com/track/5Z3GHaZ6ec9bsiI5BenrbY'
p2135
sg8
S'Young Dumb & Broke'
p2136
ssS'0mQnLhHH5WwRc5gtnzLtK6'
p2137
(dp2138
g3
S'Christine and the Queens'
p2139
sg5
I1
sg6
S'https://open.spotify.com/track/0mQnLhHH5WwRc5gtnzLtK6'
p2140
sg8
S'Tilted'
p2141
ssS'3FDrI0FLKzrYQiWxPhqV2W'
p2142
(dp2143
g3
S'Calvin Harris'
p2144
sg5
I4
sg6
S'https://open.spotify.com/track/3FDrI0FLKzrYQiWxPhqV2W'
p2145
sg8
S'Rollin'
p2146
ssS'2fGxYYMQbVqgIdaqfz2OwA'
p2147
(dp2148
g3
S'Miley Cyrus'
p2149
sg5
I1
sg6
S'https://open.spotify.com/track/2fGxYYMQbVqgIdaqfz2OwA'
p2150
sg8
S'Younger Now'
p2151
ssS'2h7YGpndYgDucun6CctvW1'
p2152
(dp2153
g3
S'Tom Zanetti'
p2154
sg5
I7
sg6
S'https://open.spotify.com/track/2h7YGpndYgDucun6CctvW1'
p2155
sg8
S'More & More'
p2156
ssS'72OGJT4cL9BQjHTa8h28tz'
p2157
(dp2158
g3
S'Fall Out Boy'
p2159
sg5
I1
sg6
S'https://open.spotify.com/track/72OGJT4cL9BQjHTa8h28tz'
p2160
sg8
S'Young And Menace'
p2161
ssS'2pex1RNUgi1FwVUTMnIQ1x'
p2162
(dp2163
g3
S'OFFAIAH'
p2164
sg5
I5
sg6
S'https://open.spotify.com/track/2pex1RNUgi1FwVUTMnIQ1x'
p2165
sg8
S'Trouble'
p2166
ssS'7FCfMXYTIiQ9b4hDYs4Iol'
p2167
(dp2168
g3
S'Dua Lipa'
p2169
sg5
I37
sg6
S'https://open.spotify.com/track/7FCfMXYTIiQ9b4hDYs4Iol'
p2170
sg8
S'Be The One'
p2171
ssS'6eT7xZZlB2mwyzJ2sUKG6w'
p2172
(dp2173
g3
S'Post Malone'
p2174
sg5
I22
sg6
S'https://open.spotify.com/track/6eT7xZZlB2mwyzJ2sUKG6w'
p2175
sg8
S'White Iverson'
p2176
ssS'1WP1r7fuvRqZRnUaTi2I1Q'
p2177
(dp2178
g3
S'Shawn Mendes'
p2179
sg5
I23
sg6
S'https://open.spotify.com/track/1WP1r7fuvRqZRnUaTi2I1Q'
p2180
sg8
S'Stitches'
p2181
ssS'51PIvodunv6NmX5250zxAh'
p2182
(dp2183
g3
S'Lady Gaga'
p2184
sg5
I13
sg6
S'https://open.spotify.com/track/51PIvodunv6NmX5250zxAh'
p2185
sg8
S'The Cure'
p2186
ssS'32OlwWuMpZ6b0aN2RZOeMS'
p2187
(dp2188
g3
S'Mark Ronson'
p2189
sg5
I1
sg6
S'https://open.spotify.com/track/32OlwWuMpZ6b0aN2RZOeMS'
p2190
sg8
S'Uptown Funk'
p2191
ssS'7hv3kNKnWab3ahaSpuya8c'
p2192
(dp2193
g3
S'Hardy Caprio'
p2194
sg5
I1
sg6
S'https://open.spotify.com/track/7hv3kNKnWab3ahaSpuya8c'
p2195
sg8
S'Super Soaker'
p2196
ssS'0v9Wz8o0BT8DU38R4ddjeH'
p2197
(dp2198
g3
S'Chance The Rapper'
p2199
sg5
I2
sg6
S'https://open.spotify.com/track/0v9Wz8o0BT8DU38R4ddjeH'
p2200
sg8
S'No Problem (feat. Lil Wayne & 2 Chainz)'
p2201
ssS'0IqKeD8ZSP72KbGYyzEcAs'
p2202
(dp2203
g3
S'Hozier'
p2204
sg5
I12
sg6
S'https://open.spotify.com/track/0IqKeD8ZSP72KbGYyzEcAs'
p2205
sg8
S'Take Me To Church'
p2206
ssS'33bURv895AN4FkBvgFo2dx'
p2207
(dp2208
g3
S'Harry Styles'
p2209
sg5
I2
sg6
S'https://open.spotify.com/track/33bURv895AN4FkBvgFo2dx'
p2210
sg8
S'Woman'
p2211
ssS'5QqyRUZeBE04yJxsD1OC0I'
p2212
(dp2213
g3
S'Lana Del Rey'
p2214
sg5
I1
sg6
S'https://open.spotify.com/track/5QqyRUZeBE04yJxsD1OC0I'
p2215
sg8
S'Summer Bummer (feat. A$AP Rocky & Playboi Carti)'
p2216
ssS'2jTujnt0y344ai1rNOywgr'
p2217
(dp2218
g3
S'Drake'
p2219
sg5
I30
sg6
S'https://open.spotify.com/track/2jTujnt0y344ai1rNOywgr'
p2220
sg8
S'KMT'
p2221
ssS'6pVW5LRWgeLaHudxauOTJU'
p2222
(dp2223
g3
S'Daryl Hall & John Oates'
p2224
sg5
I1
sg6
S'https://open.spotify.com/track/6pVW5LRWgeLaHudxauOTJU'
p2225
sg8
S'Jingle Bell Rock from Daryl'
p2226
ssS'3eqhMltljpvMkVNUbAHyQI'
p2227
(dp2228
g3
S'Liam Gallagher'
p2229
sg5
I12
sg6
S'https://open.spotify.com/track/3eqhMltljpvMkVNUbAHyQI'
p2230
sg8
S'Wall Of Glass'
p2231
ssS'3MzDvWYbRMAgkOFu5DhNvh'
p2232
(dp2233
g3
S'James Blunt'
p2234
sg5
I1
sg6
S'https://open.spotify.com/track/3MzDvWYbRMAgkOFu5DhNvh'
p2235
sg8
S'Love Me Better'
p2236
ssS'1mea3bSkSGXuIRvnydlB5b'
p2237
(dp2238
g3
S'Coldplay'
p2239
sg5
I7
sg6
S'https://open.spotify.com/track/1mea3bSkSGXuIRvnydlB5b'
p2240
sg8
S'Viva La Vida'
p2241
ssS'6gBFPUFcJLzWGx4lenP6h2'
p2242
(dp2243
g3
S'Travis Scott'
p2244
sg5
I25
sg6
S'https://open.spotify.com/track/6gBFPUFcJLzWGx4lenP6h2'
p2245
sg8
S'goosebumps'
p2246
ssS'6sDQ4uiWw9OdVrCXFLSlZt'
p2247
(dp2248
g3
S'Eminem'
p2249
sg5
I1
sg6
S'https://open.spotify.com/track/6sDQ4uiWw9OdVrCXFLSlZt'
p2250
sg8
S'Rap God'
p2251
ssS'4STaHtfguDMkWbPEo6Fwcx'
p2252
(dp2253
g3
S'PARTYNEXTDOOR'
p2254
sg5
I1
sg6
S'https://open.spotify.com/track/4STaHtfguDMkWbPEo6Fwcx'
p2255
sg8
S'Not Nice'
p2256
ssS'3UDXkdQquqCEAJdNAsA1wO'
p2257
(dp2258
g3
S'Cash Cash'
p2259
sg5
I3
sg6
S'https://open.spotify.com/track/3UDXkdQquqCEAJdNAsA1wO'
p2260
sg8
S'Millionaire (feat. Nelly)'
p2261
ssS'4BATUkk8UMuiMb6lr5CH5G'
p2262
(dp2263
g3
S'NEIKED'
p2264
sg5
I1
sg6
S'https://open.spotify.com/track/4BATUkk8UMuiMb6lr5CH5G'
p2265
sg8
S'Call Me'
p2266
ssS'1liqdLIh1T4I3qpEOlRZ4k'
p2267
(dp2268
g3
S'Mike Oldfield'
p2269
sg5
I1
sg6
S'https://open.spotify.com/track/1liqdLIh1T4I3qpEOlRZ4k'
p2270
sg8
S'In Dulce Jubilo'
p2271
ssS'7AQim7LbvFVZJE3O8TYgf2'
p2272
(dp2273
g3
S'XXXTENTACION'
p2274
sg5
I6
sg6
S'https://open.spotify.com/track/7AQim7LbvFVZJE3O8TYgf2'
p2275
sg8
S'Fuck Love (feat. Trippie Redd)'
p2276
ssS'7vFoFDWqTX0mHzLfrF1Cfy'
p2277
(dp2278
g3
S'OMI'
p2279
sg5
I21
sg6
S'https://open.spotify.com/track/7vFoFDWqTX0mHzLfrF1Cfy'
p2280
sg8
S'Cheerleader - Felix Jaehn Remix Radio Edit'
p2281
ssS'71GOBk9Dj0NEYNLzLCX4Sq'
p2282
(dp2283
g3
S'Stormzy'
p2284
sg5
I2
sg6
S'https://open.spotify.com/track/71GOBk9Dj0NEYNLzLCX4Sq'
p2285
sg8
S'21 Gun Salute (feat. Wretch 32) - Interlude'
p2286
ssS'6eUncuJutsFi9BGO1JaBHh'
p2287
(dp2288
g3
S'Jason Derulo'
p2289
sg5
I6
sg6
S'https://open.spotify.com/track/6eUncuJutsFi9BGO1JaBHh'
p2290
sg8
S"If I'm Lucky"
p2291
ssS'4gDyoe1FImDlXVt58ssnMf'
p2292
(dp2293
g3
S'Coldplay'
p2294
sg5
I1
sg6
S'https://open.spotify.com/track/4gDyoe1FImDlXVt58ssnMf'
p2295
sg8
S'All I Can Think About Is You'
p2296
ssS'31MkGwj0SWgZaTvEt5Hgxv'
p2297
(dp2298
g3
S'P!nk'
p2299
sg5
I9
sg6
S'https://open.spotify.com/track/31MkGwj0SWgZaTvEt5Hgxv'
p2300
sg8
S'What About Us'
p2301
ssS'0PDUDa38GO8lMxLCRc4lL1'
p2302
(dp2303
g3
S'ZAYN'
p2304
sg5
I14
sg6
S'https://open.spotify.com/track/0PDUDa38GO8lMxLCRc4lL1'
p2305
sg8
S'PILLOWTALK'
p2306
ssS'6z1Xz89avh1KA7d3Ek7DQP'
p2307
(dp2308
g3
S'Oasis'
p2309
sg5
I1
sg6
S'https://open.spotify.com/track/6z1Xz89avh1KA7d3Ek7DQP'
p2310
sg8
S'Half the World Away - Remastered'
p2311
ssS'3pC1ILr9KzmQLMe8Kn5QBG'
p2312
(dp2313
g3
S'DJ Khaled'
p2314
sg5
I2
sg6
S'https://open.spotify.com/track/3pC1ILr9KzmQLMe8Kn5QBG'
p2315
sg8
S'To the Max'
p2316
ssS'3zJw3rugfpVrmBeDDnUYzy'
p2317
(dp2318
g3
S'John Lennon'
p2319
sg5
I1
sg6
S'https://open.spotify.com/track/3zJw3rugfpVrmBeDDnUYzy'
p2320
sg8
S'Happy Xmas (War Is Over) - 2010 Digital Remaster'
p2321
ssS'679470aDzNISdq9GSLUBcu'
p2322
(dp2323
g3
S'KSI'
p2324
sg5
I1
sg6
S'https://open.spotify.com/track/679470aDzNISdq9GSLUBcu'
p2325
sg8
S"Adam's Apple"
p2326
ssS'1e1JKLEDKP7hEQzJfNAgPl'
p2327
(dp2328
g3
S'Playboi Carti'
p2329
sg5
I15
sg6
S'https://open.spotify.com/track/1e1JKLEDKP7hEQzJfNAgPl'
p2330
sg8
S'Magnolia'
p2331
ssS'5q4BpnMrYEFzLO0dYODj6J'
p2332
(dp2333
g3
S'Lorde'
p2334
sg5
I1
sg6
S'https://open.spotify.com/track/5q4BpnMrYEFzLO0dYODj6J'
p2335
sg8
S'The Louvre'
p2336
ssS'3VRk65lHSwqd90TAkQqhvB'
p2337
(dp2338
g3
S'Katy Perry'
p2339
sg5
I2
sg6
S'https://open.spotify.com/track/3VRk65lHSwqd90TAkQqhvB'
p2340
sg8
S'Swish Swish'
p2341
ssS'5eqK0tbzUPo2SoeZsov04s'
p2342
(dp2343
g3
S'21 Savage'
p2344
sg5
I9
sg6
S'https://open.spotify.com/track/5eqK0tbzUPo2SoeZsov04s'
p2345
sg8
S'Bank Account'
p2346
ssS'2MHCiOohBZEQuLgDTPvSzF'
p2347
(dp2348
g3
S'Galantis'
p2349
sg5
I17
sg6
S'https://open.spotify.com/track/2MHCiOohBZEQuLgDTPvSzF'
p2350
sg8
S'Love On Me'
p2351
ssS'0iV9yfj1knFNOSEiuTHZwl'
p2352
(dp2353
g3
S'Christina Aguilera'
p2354
sg5
I1
sg6
S'https://open.spotify.com/track/0iV9yfj1knFNOSEiuTHZwl'
p2355
sg8
S'Have Yourself a Merry Little Christmas'
p2356
ssS'3kxfsdsCpFgN412fpnW85Y'
p2357
(dp2358
g3
S'Childish Gambino'
p2359
sg5
I42
sg6
S'https://open.spotify.com/track/3kxfsdsCpFgN412fpnW85Y'
p2360
sg8
S'Redbone'
p2361
ssS'0vbbhcA6okLzvsy6WSTlLg'
p2362
(dp2363
g3
S'Rudimental'
p2364
sg5
I1
sg6
S'https://open.spotify.com/track/0vbbhcA6okLzvsy6WSTlLg'
p2365
sg8
S'Lay It All On Me (feat. Ed Sheeran)'
p2366
ssS'4sPmO7WMQUAf45kwMOtONw'
p2367
(dp2368
g3
S'Adele'
p2369
sg5
I12
sg6
S'https://open.spotify.com/track/4sPmO7WMQUAf45kwMOtONw'
p2370
sg8
S'Hello'
p2371
ssS'1XCpzvtHjANEBhS9a4xqQ2'
p2372
(dp2373
g3
S'HAIM'
p2374
sg5
I1
sg6
S'https://open.spotify.com/track/1XCpzvtHjANEBhS9a4xqQ2'
p2375
sg8
S'Little of Your Love'
p2376
ssS'3agtg0x11wPvLIWkYR39nZ'
p2377
(dp2378
g3
S'Linkin Park'
p2379
sg5
I1
sg6
S'https://open.spotify.com/track/3agtg0x11wPvLIWkYR39nZ'
p2380
sg8
S'Somewhere I Belong'
p2381
ssS'5p3NP9mQblDsVJLdfNZJ3I'
p2382
(dp2383
g3
S'Kendrick Lamar'
p2384
sg5
I2
sg6
S'https://open.spotify.com/track/5p3NP9mQblDsVJLdfNZJ3I'
p2385
sg8
S'GOD.'
p2386
ssS'6BaCraQ9xeLYg4Sb9TBT2X'
p2387
(dp2388
g3
S'Calvin Harris'
p2389
sg5
I1
sg6
S'https://open.spotify.com/track/6BaCraQ9xeLYg4Sb9TBT2X'
p2390
sg8
S'Feels'
p2391
ssS'7ARveOiD31w2Nq0n5FsSf8'
p2392
(dp2393
g3
S'Lorde'
p2394
sg5
I1
sg6
S'https://open.spotify.com/track/7ARveOiD31w2Nq0n5FsSf8'
p2395
sg8
S'Perfect Places'
p2396
ssS'6875MeXyCW0wLyT72Eetmo'
p2397
(dp2398
g3
S'Hailee Steinfeld'
p2399
sg5
I5
sg6
S'https://open.spotify.com/track/6875MeXyCW0wLyT72Eetmo'
p2400
sg8
S'Starving'
p2401
ssS'3OoZagIW3YK8vjt0ws6NOI'
p2402
(dp2403
g3
S'DJ Khaled'
p2404
sg5
I6
sg6
S'https://open.spotify.com/track/3OoZagIW3YK8vjt0ws6NOI'
p2405
sg8
S'Shining'
p2406
ssS'6gTJaPuj8DT8RjuDJyBgzP'
p2407
(dp2408
g3
S'Ed Sheeran'
p2409
sg5
I12
sg6
S'https://open.spotify.com/track/6gTJaPuj8DT8RjuDJyBgzP'
p2410
sg8
S"Don't"
p2411
ssS'3T7dNA7O8c3Axj5WyDNcH3'
p2412
(dp2413
g3
S'Brenda Lee'
p2414
sg5
I1
sg6
S'https://open.spotify.com/track/3T7dNA7O8c3Axj5WyDNcH3'
p2415
sg8
S"Rockin' Around The Christmas Tree - Single Version"
p2416
ssS'5q5gzmbBS5yQzos2BvVr1t'
p2417
(dp2418
g3
S'M\xc3\x98'
p2419
sg5
I2
sg6
S'https://open.spotify.com/track/5q5gzmbBS5yQzos2BvVr1t'
p2420
sg8
S'Nights With You'
p2421
ssS'3DXncPQOG4VBw3QHh3S817'
p2422
(dp2423
g3
S'DJ Khaled'
p2424
sg5
I20
sg6
S'https://open.spotify.com/track/3DXncPQOG4VBw3QHh3S817'
p2425
sg8
S"I'm the One"
p2426
ssS'4DixkYsZqImKOmjaIaYnCi'
p2427
(dp2428
g3
S'Bugzy Malone'
p2429
sg5
I1
sg6
S'https://open.spotify.com/track/4DixkYsZqImKOmjaIaYnCi'
p2430
sg8
S'King Of The North'
p2431
ssS'5Lbsc65org0b85kNsPkluY'
p2432
(dp2433
g3
S'Harry Styles'
p2434
sg5
I2
sg6
S'https://open.spotify.com/track/5Lbsc65org0b85kNsPkluY'
p2435
sg8
S'Only Angel'
p2436
ssS'0Z9HQ8YvHqdeOjTwsR3cS7'
p2437
(dp2438
g3
S'Moon Taxi'
p2439
sg5
I2
sg6
S'https://open.spotify.com/track/0Z9HQ8YvHqdeOjTwsR3cS7'
p2440
sg8
S'Two High'
p2441
ssS'6MbH1QiphMCPTqVEVC7UYi'
p2442
(dp2443
g3
S'Drake'
p2444
sg5
I4
sg6
S'https://open.spotify.com/track/6MbH1QiphMCPTqVEVC7UYi'
p2445
sg8
S'Nothings Into Somethings'
p2446
ssS'6mORGLOz79w6VsCRLWYYuK'
p2447
(dp2448
g3
S'Lord Huron'
p2449
sg5
I10
sg6
S'https://open.spotify.com/track/6mORGLOz79w6VsCRLWYYuK'
p2450
sg8
S'The Night We Met'
p2451
ssS'5aAx2yezTd8zXrkmtKl66Z'
p2452
(dp2453
g3
S'The Weeknd'
p2454
sg5
I42
sg6
S'https://open.spotify.com/track/5aAx2yezTd8zXrkmtKl66Z'
p2455
sg8
S'Starboy'
p2456
ssS'42NpUvd0I2kdIuMXX4nobE'
p2457
(dp2458
g3
S'Nick Jonas'
p2459
sg5
I1
sg6
S'https://open.spotify.com/track/42NpUvd0I2kdIuMXX4nobE'
p2460
sg8
S'Remember I Told You'
p2461
ssS'3HgmWNk2YBRfh4NSdrCce2'
p2462
(dp2463
g3
S'Matt Terry'
p2464
sg5
I2
sg6
S'https://open.spotify.com/track/3HgmWNk2YBRfh4NSdrCce2'
p2465
sg8
S'When Christmas Comes Around'
p2466
ssS'1SJtlNRJDeYHioymcvsqev'
p2467
(dp2468
g3
S'Camila Cabello'
p2469
sg5
I21
sg6
S'https://open.spotify.com/track/1SJtlNRJDeYHioymcvsqev'
p2470
sg8
S'Crying in the Club'
p2471
ssS'29tzJGvqJPTAFs6LXmsHoA'
p2472
(dp2473
g3
S'Arctic Monkeys'
p2474
sg5
I2
sg6
S'https://open.spotify.com/track/29tzJGvqJPTAFs6LXmsHoA'
p2475
sg8
S'R U Mine?'
p2476
ssS'0Wv5wuenRLI3BcwgT3HPIP'
p2477
(dp2478
g3
S'DJ Snake'
p2479
sg5
I3
sg6
S'https://open.spotify.com/track/0Wv5wuenRLI3BcwgT3HPIP'
p2480
sg8
S'A Different Way (with Lauv)'
p2481
ssS'2mtIz0xSF6GflIwyNbdcqj'
p2482
(dp2483
g3
S'Krept & Konan'
p2484
sg5
I1
sg6
S'https://open.spotify.com/track/2mtIz0xSF6GflIwyNbdcqj'
p2485
sg8
S'For Me'
p2486
ssS'04DwTuZ2VBdJCCC5TROn7L'
p2487
(dp2488
g3
S'Martin Garrix'
p2489
sg5
I20
sg6
S'https://open.spotify.com/track/04DwTuZ2VBdJCCC5TROn7L'
p2490
sg8
S'In the Name of Love'
p2491
ssS'4fzyvSu73BhGvi96p2zwjL'
p2492
(dp2493
g3
S'Coldplay'
p2494
sg5
I1
sg6
S'https://open.spotify.com/track/4fzyvSu73BhGvi96p2zwjL'
p2495
sg8
S'Christmas Lights'
p2496
ssS'7bJ4mu7MHa3rHiNyKjOoSl'
p2497
(dp2498
g3
S'Drake'
p2499
sg5
I5
sg6
S'https://open.spotify.com/track/7bJ4mu7MHa3rHiNyKjOoSl'
p2500
sg8
S'Ice Melts'
p2501
ssS'1sCxVKWImDZSZKvG0U9B23'
p2502
(dp2503
g3
S'Selena Gomez'
p2504
sg5
I17
sg6
S'https://open.spotify.com/track/1sCxVKWImDZSZKvG0U9B23'
p2505
sg8
S'Bad Liar'
p2506
ssS'77hjM9bMmgfTGJXv14UFmi'
p2507
(dp2508
g3
S'Train'
p2509
sg5
I14
sg6
S'https://open.spotify.com/track/77hjM9bMmgfTGJXv14UFmi'
p2510
sg8
S'Play That Song'
p2511
ssS'5kJEUjZUh1xPRUHQc8hEnq'
p2512
(dp2513
g3
S'Yxng Bane'
p2514
sg5
I8
sg6
S'https://open.spotify.com/track/5kJEUjZUh1xPRUHQc8hEnq'
p2515
sg8
S'Rihanna'
p2516
ssS'28qdL1yHti3BSu6AdLzWbg'
p2517
(dp2518
g3
S'J HUS'
p2519
sg5
I3
sg6
S'https://open.spotify.com/track/28qdL1yHti3BSu6AdLzWbg'
p2520
sg8
S'Bouff Daddy'
p2521
ssS'4JAyIDXOqNM6qHuZML01uX'
p2522
(dp2523
g3
g457
sg5
I1
sg6
S'https://open.spotify.com/track/4JAyIDXOqNM6qHuZML01uX'
p2524
sg8
g457
ssS'6VRghJeP6I0w1KxkdWFfIh'
p2525
(dp2526
g3
S'Imagine Dragons'
p2527
sg5
I3
sg6
S'https://open.spotify.com/track/6VRghJeP6I0w1KxkdWFfIh'
p2528
sg8
S'Believer'
p2529
ssS'2LPUvD5DDOO4UYGkWgjI2C'
p2530
(dp2531
g3
S'Stormzy'
p2532
sg5
I27
sg6
S'https://open.spotify.com/track/2LPUvD5DDOO4UYGkWgjI2C'
p2533
sg8
S'Shut Up'
p2534
ssS'7LVHVU3tWfcxj5aiPFEW4Q'
p2535
(dp2536
g3
S'Coldplay'
p2537
sg5
I2
sg6
S'https://open.spotify.com/track/7LVHVU3tWfcxj5aiPFEW4Q'
p2538
sg8
S'Fix You'
p2539
ssS'6SznMYPQJHzr3IwsAHLId2'
p2540
(dp2541
g3
S'Ed Sheeran'
p2542
sg5
I14
sg6
S'https://open.spotify.com/track/6SznMYPQJHzr3IwsAHLId2'
p2543
sg8
S'Bibia Be Ye Ye'
p2544
ssS'19e7nxjjaxsdxJpUe0LYQQ'
p2545
(dp2546
g3
S'Giggs'
p2547
sg5
I1
sg6
S'https://open.spotify.com/track/19e7nxjjaxsdxJpUe0LYQQ'
p2548
sg8
S'Linguo'
p2549
ssS'1ZQnV7ePl8yXoLjPfhWE5L'
p2550
(dp2551
g3
S'MK'
p2552
sg5
I1
sg6
S'https://open.spotify.com/track/1ZQnV7ePl8yXoLjPfhWE5L'
p2553
sg8
S'Piece of Me'
p2554
ssS'2073iu7iptmvmGp6pQ7Uy4'
p2555
(dp2556
g3
S'Wretch 32'
p2557
sg5
I1
sg6
S'https://open.spotify.com/track/2073iu7iptmvmGp6pQ7Uy4'
p2558
sg8
S'Tell Me'
p2559
ssS'0NiXXAI876aGImAd6rTj8w'
p2560
(dp2561
g3
S'Jonas Blue'
p2562
sg5
I14
sg6
S'https://open.spotify.com/track/0NiXXAI876aGImAd6rTj8w'
p2563
sg8
S'Mama'
p2564
ssS'6LBTcaVlmTRiSGXuHkq6BF'
p2565
(dp2566
g3
S'Oh Wonder'
p2567
sg5
I1
sg6
S'https://open.spotify.com/track/6LBTcaVlmTRiSGXuHkq6BF'
p2568
sg8
S'Ultralife'
p2569
ssS'5egqKwgK5r5rvGD1LrtR7J'
p2570
(dp2571
g3
S'Linkin Park'
p2572
sg5
I1
sg6
S'https://open.spotify.com/track/5egqKwgK5r5rvGD1LrtR7J'
p2573
sg8
S'Points Of Authority'
p2574
ssS'6fUdJcLuiealkrWLMPkmzV'
p2575
(dp2576
g3
S'Liam Gallagher'
p2577
sg5
I1
sg6
S'https://open.spotify.com/track/6fUdJcLuiealkrWLMPkmzV'
p2578
sg8
S'Bold'
p2579
ssS'6x4Jfu1lYlgB6lRonjzPaO'
p2580
(dp2581
g3
S'Not3s'
p2582
sg5
I9
sg6
S'https://open.spotify.com/track/6x4Jfu1lYlgB6lRonjzPaO'
p2583
sg8
S'Aladdin'
p2584
ssS'2zYs4BonN2ydkbrRk333SN'
p2585
(dp2586
g3
S'WizKid'
p2587
sg5
I7
sg6
S'https://open.spotify.com/track/2zYs4BonN2ydkbrRk333SN'
p2588
sg8
S'Come Closer'
p2589
ssS'5fX2oPyLCe5mBKqGDbOWqC'
p2590
(dp2591
g3
S'James TW'
p2592
sg5
I9
sg6
S'https://open.spotify.com/track/5fX2oPyLCe5mBKqGDbOWqC'
p2593
sg8
S'When You Love Someone'
p2594
ssS'1w191mxEGK17BcYVbI3HmR'
p2595
(dp2596
g3
S'Black Saint'
p2597
sg5
I3
sg6
S'https://open.spotify.com/track/1w191mxEGK17BcYVbI3HmR'
p2598
sg8
S'Could You Love Me?'
p2599
ssS'4BJ5T8ZZZ3UrPG7k0OVQrp'
p2600
(dp2601
g3
S'Little Mix'
p2602
sg5
I20
sg6
S'https://open.spotify.com/track/4BJ5T8ZZZ3UrPG7k0OVQrp'
p2603
sg8
S'Power (feat. Stormzy)'
p2604
ssS'6J0xeqjdpsUH0W1YBCmD1L'
p2605
(dp2606
g3
S'You Me At Six'
p2607
sg5
I1
sg6
S'https://open.spotify.com/track/6J0xeqjdpsUH0W1YBCmD1L'
p2608
sg8
S'Take on the World'
p2609
ssS'2DrFBNqxtpyvFlG3qMZiya'
p2610
(dp2611
g3
S'Liam Gallagher'
p2612
sg5
I2
sg6
S'https://open.spotify.com/track/2DrFBNqxtpyvFlG3qMZiya'
p2613
sg8
S"For What It's Worth"
p2614
ssS'1n4jwRVXdkK2U34nBDUKKT'
p2615
(dp2616
g3
S'Kendrick Lamar'
p2617
sg5
I2
sg6
S'https://open.spotify.com/track/1n4jwRVXdkK2U34nBDUKKT'
p2618
sg8
S'BLOOD.'
p2619
ssS'72jCZdH0Lhg93z6Z4hBjgj'
p2620
(dp2621
g3
S'Taylor Swift'
p2622
sg5
I1
sg6
S'https://open.spotify.com/track/72jCZdH0Lhg93z6Z4hBjgj'
p2623
sg8
S'I Knew You Were Trouble.'
p2624
ssS'7ynCQo1KpBOyTdTdAnjSLZ'
p2625
(dp2626
g3
S'Sia'
p2627
sg5
I13
sg6
S'https://open.spotify.com/track/7ynCQo1KpBOyTdTdAnjSLZ'
p2628
sg8
S'Move Your Body - Single Mix'
p2629
ssS'5Ohxk2dO5COHF1krpoPigN'
p2630
(dp2631
g3
S'Harry Styles'
p2632
sg5
I26
sg6
S'https://open.spotify.com/track/5Ohxk2dO5COHF1krpoPigN'
p2633
sg8
S'Sign of the Times'
p2634
ssS'6B14wYcEpWhyDvxWRb9Df8'
p2635
(dp2636
g3
S'Michael Bubl\xc3\xa9'
p2637
sg5
I1
sg6
S'https://open.spotify.com/track/6B14wYcEpWhyDvxWRb9Df8'
p2638
sg8
S'Silent Night'
p2639
ssS'2NHSYwGkAvPHzCinY0KwXo'
p2640
(dp2641
g3
S'Ed Sheeran'
p2642
sg5
I21
sg6
S'https://open.spotify.com/track/2NHSYwGkAvPHzCinY0KwXo'
p2643
sg8
S'Shape of You - Stormzy Remix'
p2644
ssS'2VoJe7vkKkigs7C3CGnSXL'
p2645
(dp2646
g3
S'Stefflon Don'
p2647
sg5
I9
sg6
S'https://open.spotify.com/track/2VoJe7vkKkigs7C3CGnSXL'
p2648
sg8
S"Hurtin' Me"
p2649
ssS'6O85MfGECKBqAK2MgSbCaj'
p2650
(dp2651
g3
S'Martin Solveig'
p2652
sg5
I36
sg6
S'https://open.spotify.com/track/6O85MfGECKBqAK2MgSbCaj'
p2653
sg8
S'Places'
p2654
ssS'7Kq16WtEJzdRSNQgdXsn7Y'
p2655
(dp2656
g3
S'Mura Masa'
p2657
sg5
I1
sg6
S'https://open.spotify.com/track/7Kq16WtEJzdRSNQgdXsn7Y'
p2658
sg8
S'Love$ick (feat. A$AP Rocky)'
p2659
ssS'4mxWSdf71VFO52qFeY0fZt'
p2660
(dp2661
g3
S'Maroon 5'
p2662
sg5
I6
sg6
S'https://open.spotify.com/track/4mxWSdf71VFO52qFeY0fZt'
p2663
sg8
S'What Lovers Do (feat. SZA)'
p2664
ssS'1ADjWm8QNhgNV8yCNNgQ1T'
p2665
(dp2666
g3
S'Ariana Grande'
p2667
sg5
I1
sg6
S'https://open.spotify.com/track/1ADjWm8QNhgNV8yCNNgQ1T'
p2668
sg8
S'Santa Tell Me'
p2669
ssS'4Hf7WnR761jpxPr5D46Bcd'
p2670
(dp2671
g3
S'Shawn Mendes'
p2672
sg5
I36
sg6
S'https://open.spotify.com/track/4Hf7WnR761jpxPr5D46Bcd'
p2673
sg8
S'Treat You Better'
p2674
ssS'3DrMEiTE3yu3yyc6xBDEDz'
p2675
(dp2676
g3
S'Stormzy'
p2677
sg5
I6
sg6
S'https://open.spotify.com/track/3DrMEiTE3yu3yyc6xBDEDz'
p2678
sg8
S'Mr Skeng'
p2679
ssS'4mq14Qa6OehdiyZFtHcdCH'
p2680
(dp2681
g3
S'Lana Del Rey'
p2682
sg5
I1
sg6
S'https://open.spotify.com/track/4mq14Qa6OehdiyZFtHcdCH'
p2683
sg8
S'13 Beaches'
p2684
ssS'0dXNQ8dckG4eYfEtq9zcva'
p2685
(dp2686
g3
S'The Vamps'
p2687
sg5
I1
sg6
S'https://open.spotify.com/track/0dXNQ8dckG4eYfEtq9zcva'
p2688
sg8
S'All Night'
p2689
ssS'1Tt4sE4pXi57mTD1GCzsqm'
p2690
(dp2691
g3
S'Rihanna'
p2692
sg5
I10
sg6
S'https://open.spotify.com/track/1Tt4sE4pXi57mTD1GCzsqm'
p2693
sg8
S'Needed Me'
p2694
ssS'6qPI3aH7jpx8dQ6UwQ2dX4'
p2695
(dp2696
g3
S'Gladys Knight & The Pips'
p2697
sg5
I1
sg6
S'https://open.spotify.com/track/6qPI3aH7jpx8dQ6UwQ2dX4'
p2698
sg8
S'When a Child Is Born (Soleado)'
p2699
ssS'16Ah4QqH4mgYVXqfC4mdSd'
p2700
(dp2701
g3
S'Tory Lanez'
p2702
sg5
I6
sg6
S'https://open.spotify.com/track/16Ah4QqH4mgYVXqfC4mdSd'
p2703
sg8
S'LUV'
p2704
ssS'1MksGqIztTT6M9R1ErKVs8'
p2705
(dp2706
g3
S'Big Sean'
p2707
sg5
I2
sg6
S'https://open.spotify.com/track/1MksGqIztTT6M9R1ErKVs8'
p2708
sg8
S'No Favors'
p2709
ssS'1EaKU4dMbesXXd3BrLCtYG'
p2710
(dp2711
g3
S'Kendrick Lamar'
p2712
sg5
I6
sg6
S'https://open.spotify.com/track/1EaKU4dMbesXXd3BrLCtYG'
p2713
sg8
S'ELEMENT.'
p2714
ssS'2Ce5IyMlVRVvN997ZJjJJA'
p2715
(dp2716
g3
S'Future'
p2717
sg5
I13
sg6
S'https://open.spotify.com/track/2Ce5IyMlVRVvN997ZJjJJA'
p2718
sg8
S'Selfish'
p2719
ssS'2qoZNAP3JLyIOtbsPtBjvV'
p2720
(dp2721
g3
S'Stevie Wonder'
p2722
sg5
I1
sg6
S'https://open.spotify.com/track/2qoZNAP3JLyIOtbsPtBjvV'
p2723
sg8
S'What Christmas Means To Me'
p2724
ssS'2fXH2iei02pBaSIdn5X4zJ'
p2725
(dp2726
g3
S'Ryan Gosling'
p2727
sg5
I4
sg6
S'https://open.spotify.com/track/2fXH2iei02pBaSIdn5X4zJ'
p2728
sg8
S'A Lovely Night - From La La Land Soundtrack'
p2729
ssS'2Inz7gGPGgieN0CTw9TOOs'
p2730
(dp2731
g3
S'JP Cooper'
p2732
sg5
I1
sg6
S'https://open.spotify.com/track/2Inz7gGPGgieN0CTw9TOOs'
p2733
sg8
S'September Song'
p2734
ssS'5knuzwU65gJK7IF5yJsuaW'
p2735
(dp2736
g3
S'Clean Bandit'
p2737
sg5
I42
sg6
S'https://open.spotify.com/track/5knuzwU65gJK7IF5yJsuaW'
p2738
sg8
S'Rockabye (feat. Sean Paul & Anne-Marie)'
p2739
ssS'7aF09WaavZAmAWuUeYxlYD'
p2740
(dp2741
g3
S'OneRepublic'
p2742
sg5
I11
sg6
S'https://open.spotify.com/track/7aF09WaavZAmAWuUeYxlYD'
p2743
sg8
S'Rich Love (with Seeb)'
p2744
ssS'2TRgbDqnr0tG5fbDsYOIcc'
p2745
(dp2746
g3
S'Phil Spector'
p2747
sg5
I1
sg6
S'https://open.spotify.com/track/2TRgbDqnr0tG5fbDsYOIcc'
p2748
sg8
S'Here Comes Santa Claus'
p2749
ssS'33OVwHAdsrJELptAp74TqW'
p2750
(dp2751
g3
S'Foo Fighters'
p2752
sg5
I1
sg6
S'https://open.spotify.com/track/33OVwHAdsrJELptAp74TqW'
p2753
sg8
S'Make It Right'
p2754
ssS'14WWzenpaEgQZlqPq2nk4v'
p2755
(dp2756
g3
S'Rihanna'
p2757
sg5
I12
sg6
S'https://open.spotify.com/track/14WWzenpaEgQZlqPq2nk4v'
p2758
sg8
S'Work'
p2759
ssS'4tHqQMWSqmL6YjXwsqthDI'
p2760
(dp2761
g3
S'Mykola Dmytrovych Leontovych'
p2762
sg5
I1
sg6
S'https://open.spotify.com/track/4tHqQMWSqmL6YjXwsqthDI'
p2763
sg8
S'Carol of the Bells'
p2764
ssS'36YCdzT57us0LhDmCYtrNE'
p2765
(dp2766
g3
S'The Weeknd'
p2767
sg5
I2
sg6
S'https://open.spotify.com/track/36YCdzT57us0LhDmCYtrNE'
p2768
sg8
S'Rockin\xe2\x80\x99'
p2769
ssS'6b8Be6ljOzmkOmFslEb23P'
p2770
(dp2771
g3
S'Bruno Mars'
p2772
sg5
I33
sg6
S'https://open.spotify.com/track/6b8Be6ljOzmkOmFslEb23P'
p2773
sg8
S'24K Magic'
p2774
ssS'638s8Qi75q1pXjuH86fJX7'
p2775
(dp2776
g3
S'Yungen'
p2777
sg5
I17
sg6
S'https://open.spotify.com/track/638s8Qi75q1pXjuH86fJX7'
p2778
sg8
S'Bestie'
p2779
ssS'1IF5UcqRO42D12vYwceOY6'
p2780
(dp2781
g3
S'Harry Styles'
p2782
sg5
I2
sg6
S'https://open.spotify.com/track/1IF5UcqRO42D12vYwceOY6'
p2783
sg8
S'From the Dining Table'
p2784
ssS'6Ep6BzIOB9tz3P4sWqiiAB'
p2785
(dp2786
g3
S'Imagine Dragons'
p2787
sg5
I10
sg6
S'https://open.spotify.com/track/6Ep6BzIOB9tz3P4sWqiiAB'
p2788
sg8
S'Radioactive'
p2789
ssS'0bYg9bo50gSsH3LtXe2SQn'
p2790
(dp2791
g3
S'Mariah Carey'
p2792
sg5
I1
sg6
S'https://open.spotify.com/track/0bYg9bo50gSsH3LtXe2SQn'
p2793
sg8
S'All I Want for Christmas Is You'
p2794
ssS'4z1O25cq9g2kuJemmUxc21'
p2795
(dp2796
g3
S'Ed Sheeran'
p2797
sg5
I2
sg6
S'https://open.spotify.com/track/4z1O25cq9g2kuJemmUxc21'
p2798
sg8
S'Small Bump'
p2799
ssS'72kzJl586GwOQrOQ1doSH0'
p2800
(dp2801
g3
S'Bugzy Malone'
p2802
sg5
I4
sg6
S'https://open.spotify.com/track/72kzJl586GwOQrOQ1doSH0'
p2803
sg8
S'Through The Night (feat. DJ Luck & MC Neat)'
p2804
ssS'4so0Wek9Ig1p6CRCHuINwW'
p2805
(dp2806
g3
S'Bing Crosby'
p2807
sg5
I1
sg6
S'https://open.spotify.com/track/4so0Wek9Ig1p6CRCHuINwW'
p2808
sg8
S'White Christmas'
p2809
ssS'4A4A6dwl5DqdqrZaEtKGPR'
p2810
(dp2811
g3
S'Taylor Swift'
p2812
sg5
I1
sg6
S'https://open.spotify.com/track/4A4A6dwl5DqdqrZaEtKGPR'
p2813
sg8
S'Wildest Dreams'
p2814
ssS'4FPrAERfkPKOBKrRoyuxLu'
p2815
(dp2816
g3
S'Michael Bubl\xc3\xa9'
p2817
sg5
I1
sg6
S'https://open.spotify.com/track/4FPrAERfkPKOBKrRoyuxLu'
p2818
sg8
S'Cold December Night'
p2819
ssS'4u9Y4Z9i9VaAbBK7rW1Rha'
p2820
(dp2821
g3
S'Harry Styles'
p2822
sg5
I2
sg6
S'https://open.spotify.com/track/4u9Y4Z9i9VaAbBK7rW1Rha'
p2823
sg8
S'Meet Me in the Hallway'
p2824
ssS'23luOrEVHMfoX0AhfbQuS6'
p2825
(dp2826
g3
S'Kendrick Lamar'
p2827
sg5
I2
sg6
S'https://open.spotify.com/track/23luOrEVHMfoX0AhfbQuS6'
p2828
sg8
S'FEAR.'
p2829
ssS'3odht0E2TNbWDqypdbJVMZ'
p2830
(dp2831
g3
S'Chase & Status'
p2832
sg5
I1
sg6
S'https://open.spotify.com/track/3odht0E2TNbWDqypdbJVMZ'
p2833
sg8
S'All Goes Wrong'
p2834
ssS'0QIgxEydF4mfYc9qraBzqT'
p2835
(dp2836
g3
S'East 17'
p2837
sg5
I1
sg6
S'https://open.spotify.com/track/0QIgxEydF4mfYc9qraBzqT'
p2838
sg8
S'Stay Another Day'
p2839
ssS'5DA77EqppDmCTWGovd4oTP'
p2840
(dp2841
g3
S'Cheat Codes'
p2842
sg5
I4
sg6
S'https://open.spotify.com/track/5DA77EqppDmCTWGovd4oTP'
p2843
sg8
S'Sex'
p2844
ssS'6yvufTNEoh95nPcjjtbWXo'
p2845
(dp2846
g3
S'Liam Gallagher'
p2847
sg5
I1
sg6
S'https://open.spotify.com/track/6yvufTNEoh95nPcjjtbWXo'
p2848
sg8
S"Doesn't Have To Be That Way"
p2849
ssS'4h90qkbnW1Qq6pBhoPvwko'
p2850
(dp2851
g3
S'The Weeknd'
p2852
sg5
I6
sg6
S'https://open.spotify.com/track/4h90qkbnW1Qq6pBhoPvwko'
p2853
sg8
S'Sidewalks'
p2854
ssS'6HZILIRieu8S0iqY8kIKhj'
p2855
(dp2856
g3
S'Kendrick Lamar'
p2857
sg5
I26
sg6
S'https://open.spotify.com/track/6HZILIRieu8S0iqY8kIKhj'
p2858
sg8
S'DNA.'
p2859
ssS'5lqfcJuSvwQDCsiGYDDJFR'
p2860
(dp2861
g3
S'Nines'
p2862
sg5
I1
sg6
S'https://open.spotify.com/track/5lqfcJuSvwQDCsiGYDDJFR'
p2863
sg8
S'Going In'
p2864
ssS'7F9vK8hNFMml4GtHsaXui6'
p2865
(dp2866
g3
S'Louis Tomlinson'
p2867
sg5
I12
sg6
S'https://open.spotify.com/track/7F9vK8hNFMml4GtHsaXui6'
p2868
sg8
S'Back to You (feat. Bebe Rexha & Digital Farm Animals)'
p2869
ssS'0ikz6tENMONtK6qGkOrU3c'
p2870
(dp2871
g3
S'Wham!'
p2872
sg5
I2
sg6
S'https://open.spotify.com/track/0ikz6tENMONtK6qGkOrU3c'
p2873
sg8
S'Wake Me up Before You Go-Go'
p2874
ssS'6SUocL0caib4mLHe8ZrZzi'
p2875
(dp2876
g3
S'Rudimental'
p2877
sg5
I15
sg6
S'https://open.spotify.com/track/6SUocL0caib4mLHe8ZrZzi'
p2878
sg8
S'Sun Comes Up'
p2879
ssS'0B48113ZG9UfkWWt7qD9xX'
p2880
(dp2881
g3
S'Miley Cyrus'
p2882
sg5
I1
sg6
S'https://open.spotify.com/track/0B48113ZG9UfkWWt7qD9xX'
p2883
sg8
S'Younger Now'
p2884
ssS'2EEeOnHehOozLq4aS0n6SL'
p2885
(dp2886
g3
S'KYLE'
p2887
sg5
I35
sg6
S'https://open.spotify.com/track/2EEeOnHehOozLq4aS0n6SL'
p2888
sg8
S'iSpy (feat. Lil Yachty)'
p2889
ssS'3d9JucRI60arArgQXqtfjJ'
p2890
(dp2891
g3
S'Alesso'
p2892
sg5
I1
sg6
S'https://open.spotify.com/track/3d9JucRI60arArgQXqtfjJ'
p2893
sg8
S'Falling'
p2894
ssS'4mU5iXHeLgbR94siF7p1sY'
p2895
(dp2896
g3
S'The Weeknd'
p2897
sg5
I6
sg6
S'https://open.spotify.com/track/4mU5iXHeLgbR94siF7p1sY'
p2898
sg8
S'Six Feet Under'
p2899
ssS'0ug5NqcwcFR2xrfTkc7k8e'
p2900
(dp2901
g3
S'Taylor Swift'
p2902
sg5
I1
sg6
S'https://open.spotify.com/track/0ug5NqcwcFR2xrfTkc7k8e'
p2903
sg8
S'Style'
p2904
ssS'6gpcs5eMhJwax4mIfKDYQk'
p2905
(dp2906
g3
S'Calvin Harris'
p2907
sg5
I4
sg6
S'https://open.spotify.com/track/6gpcs5eMhJwax4mIfKDYQk'
p2908
sg8
S'Slide'
p2909
ssS'5bcTCxgc7xVfSaMV3RuVke'
p2910
(dp2911
g3
S'Calvin Harris'
p2912
sg5
I16
sg6
S'https://open.spotify.com/track/5bcTCxgc7xVfSaMV3RuVke'
p2913
sg8
S'Feels'
p2914
ssS'0QsvXIfqM0zZoerQfsI9lm'
p2915
(dp2916
g3
S'The Chainsmokers'
p2917
sg5
I33
sg6
S'https://open.spotify.com/track/0QsvXIfqM0zZoerQfsI9lm'
p2918
sg8
S"Don't Let Me Down"
p2919
ssS'7w87IxuO7BDcJ3YUqCyMTT'
p2920
(dp2921
g3
S'Foster The People'
p2922
sg5
I40
sg6
S'https://open.spotify.com/track/7w87IxuO7BDcJ3YUqCyMTT'
p2923
sg8
S'Pumped Up Kicks'
p2924
ssS'4RnCPWlBsY7oUDdyruod7Y'
p2925
(dp2926
g3
S'Ed Sheeran'
p2927
sg5
I5
sg6
S'https://open.spotify.com/track/4RnCPWlBsY7oUDdyruod7Y'
p2928
sg8
S'Drunk'
p2929
ssS'0fioLzGM8ngbD1w6fMmm45'
p2930
(dp2931
g3
S'Sam Smith'
p2932
sg5
I1
sg6
S'https://open.spotify.com/track/0fioLzGM8ngbD1w6fMmm45'
p2933
sg8
S"I'm Not The Only One"
p2934
ssS'4qqArAiTPueDxIp7cf87h7'
p2935
(dp2936
g3
S'M\xc3\x98'
p2937
sg5
I4
sg6
S'https://open.spotify.com/track/4qqArAiTPueDxIp7cf87h7'
p2938
sg8
S'Final Song'
p2939
ssS'74ABBu8osxqmuFOAKcWWpG'
p2940
(dp2941
g3
S'Paramore'
p2942
sg5
I1
sg6
S'https://open.spotify.com/track/74ABBu8osxqmuFOAKcWWpG'
p2943
sg8
S'Forgiveness'
p2944
ssS'5hslUAKq9I9CG2bAulFkHN'
p2945
(dp2946
g3
S'Andy Williams'
p2947
sg5
I1
sg6
S'https://open.spotify.com/track/5hslUAKq9I9CG2bAulFkHN'
p2948
sg8
S"It's the Most Wonderful Time of the Year"
p2949
ssS'2nLtzopw4rPReszdYBJU6h'
p2950
(dp2951
g3
S'Linkin Park'
p2952
sg5
I4
sg6
S'https://open.spotify.com/track/2nLtzopw4rPReszdYBJU6h'
p2953
sg8
S'Numb'
p2954
ssS'2PpruBYCo4H7WOBJ7Q2EwM'
p2955
(dp2956
g3
S'OutKast'
p2957
sg5
I2
sg6
S'https://open.spotify.com/track/2PpruBYCo4H7WOBJ7Q2EwM'
p2958
sg8
S'Hey Ya! - Radio Mix / Club Mix'
p2959
ssS'3a1lNhkSLSkpJE4MSHpDu9'
p2960
(dp2961
g3
S'Post Malone'
p2962
sg5
I35
sg6
S'https://open.spotify.com/track/3a1lNhkSLSkpJE4MSHpDu9'
p2963
sg8
S'Congratulations'
p2964
ssS'0dyiHoYbYjYaOEXLpmzQZG'
p2965
(dp2966
g3
S'Lorde'
p2967
sg5
I1
sg6
S'https://open.spotify.com/track/0dyiHoYbYjYaOEXLpmzQZG'
p2968
sg8
S'Supercut'
p2969
ssS'6M0IsaUX4GNyto4niSegfI'
p2970
(dp2971
g3
S'Post Malone'
p2972
sg5
I1
sg6
S'https://open.spotify.com/track/6M0IsaUX4GNyto4niSegfI'
p2973
sg8
S'No Option'
p2974
ssS'5TXDeTFVRVY7Cvt0Dw4vWW'
p2975
(dp2976
g3
S'XXXTENTACION'
p2977
sg5
I2
sg6
S'https://open.spotify.com/track/5TXDeTFVRVY7Cvt0Dw4vWW'
p2978
sg8
S'Revenge'
p2979
ssS'4YLzVD32aMH4qgSsSPtNbl'
p2980
(dp2981
g3
S'Dave'
p2982
sg5
I35
sg6
S'https://open.spotify.com/track/4YLzVD32aMH4qgSsSPtNbl'
p2983
sg8
S'Samantha'
p2984
ssS'0ofbQMrRDsUaVKq2mGLEAb'
p2985
(dp2986
g3
S'Camila Cabello'
p2987
sg5
I10
sg6
S'https://open.spotify.com/track/0ofbQMrRDsUaVKq2mGLEAb'
p2988
sg8
S'Havana'
p2989
ssS'6I6NX6tjGsxFAsIfGzY9lJ'
p2990
(dp2991
g3
S'J. Cole'
p2992
sg5
I11
sg6
S'https://open.spotify.com/track/6I6NX6tjGsxFAsIfGzY9lJ'
p2993
sg8
S'Deja Vu'
p2994
ssS'2oimJserAwzskzt7GTpn1k'
p2995
(dp2996
g3
S'Giggs'
p2997
sg5
I1
sg6
S'https://open.spotify.com/track/2oimJserAwzskzt7GTpn1k'
p2998
sg8
S'The Essence'
p2999
ssS'6bLopGnirdrilrpdVB6Um1'
p3000
(dp3001
g3
S'Sia'
p3002
sg5
I3
sg6
S'https://open.spotify.com/track/6bLopGnirdrilrpdVB6Um1'
p3003
sg8
S'The Greatest'
p3004
ssS'6uJwPeBGb3swi85TSr9iIz'
p3005
(dp3006
g3
S'Coldplay'
p3007
sg5
I1
sg6
S'https://open.spotify.com/track/6uJwPeBGb3swi85TSr9iIz'
p3008
sg8
S'Miracles (Someone Special)'
p3009
ssS'3HVr6jTVwBHBa2flM0eURR'
p3010
(dp3011
g3
S'Macklemore'
p3012
sg5
I9
sg6
S'https://open.spotify.com/track/3HVr6jTVwBHBa2flM0eURR'
p3013
sg8
S'Glorious (feat. Skylar Grey)'
p3014
ssS'6oH2hy85hq65VeOvKbV0sB'
p3015
(dp3016
g3
S'Jessie Ware'
p3017
sg5
I1
sg6
S'https://open.spotify.com/track/6oH2hy85hq65VeOvKbV0sB'
p3018
sg8
S'Alone'
p3019
ssS'2KpCpk6HjXXLb7nnXoXA5O'
p3020
(dp3021
g3
S'JAY Z'
p3022
sg5
I10
sg6
S'https://open.spotify.com/track/2KpCpk6HjXXLb7nnXoXA5O'
p3023
sg8
S'Ni**as In Paris'
p3024
ssS'6tASfEUyB7lE2r6DLzURji'
p3025
(dp3026
g3
S'Wham!'
p3027
sg5
I1
sg6
S'https://open.spotify.com/track/6tASfEUyB7lE2r6DLzURji'
p3028
sg8
S'Club Tropicana'
p3029
ssS'2kVHAQKVtczchKctctzbtK'
p3030
(dp3031
g3
S'Katy Perry'
p3032
sg5
I19
sg6
S'https://open.spotify.com/track/2kVHAQKVtczchKctctzbtK'
p3033
sg8
S'Swish Swish'
p3034
ssS'71O1jD7bF3cdMPvPi186V6'
p3035
(dp3036
g3
S'Mumford & Sons'
p3037
sg5
I9
sg6
S'https://open.spotify.com/track/71O1jD7bF3cdMPvPi186V6'
p3038
sg8
S'I Will Wait'
p3039
ssS'74VYXs1E4G8IN8upYqG4Ek'
p3040
(dp3041
g3
S'Stormzy'
p3042
sg5
I2
sg6
S'https://open.spotify.com/track/74VYXs1E4G8IN8upYqG4Ek'
p3043
sg8
S'Lay Me Bare'
p3044
ssS'0ALIa3fNsBvodOAmekGrZ8'
p3045
(dp3046
g3
S'Giggs'
p3047
sg5
I1
sg6
S'https://open.spotify.com/track/0ALIa3fNsBvodOAmekGrZ8'
p3048
sg8
S"Times Tickin'"
p3049
ssS'57BrRMwf9LrcmuOsyGilwr'
p3050
(dp3051
g3
S'Linkin Park'
p3052
sg5
I1
sg6
S'https://open.spotify.com/track/57BrRMwf9LrcmuOsyGilwr'
p3053
sg8
S'Crawling'
p3054
ssS'0afhq8XCExXpqazXczTSve'
p3055
(dp3056
g3
S'Ed Sheeran'
p3057
sg5
I32
sg6
S'https://open.spotify.com/track/0afhq8XCExXpqazXczTSve'
p3058
sg8
S'Galway Girl'
p3059
ssS'3gbBpTdY8lnQwqxNCcf795'
p3060
(dp3061
g3
S'Bastille'
p3062
sg5
I41
sg6
S'https://open.spotify.com/track/3gbBpTdY8lnQwqxNCcf795'
p3063
sg8
S'Pompeii'
p3064
ssS'2rb5MvYT7ZIxbKW5hfcHx8'
p3065
(dp3066
g3
S'J Balvin'
p3067
sg5
I14
sg6
S'https://open.spotify.com/track/2rb5MvYT7ZIxbKW5hfcHx8'
p3068
sg8
S'Mi Gente'
p3069
ssS'1NDxZ7cFAo481dtYWdrUnR'
p3070
(dp3071
g3
S'Maggie Lindemann'
p3072
sg5
I27
sg6
S'https://open.spotify.com/track/1NDxZ7cFAo481dtYWdrUnR'
p3073
sg8
S'Pretty Girl - Cheat Codes X CADE Remix'
p3074
ssS'2aFiaMXmWsM3Vj72F9ksBl'
p3075
(dp3076
g3
S'DNCE'
p3077
sg5
I33
sg6
S'https://open.spotify.com/track/2aFiaMXmWsM3Vj72F9ksBl'
p3078
sg8
S'Cake By The Ocean'
p3079
ssS'152lZdxL1OR0ZMW6KquMif'
p3080
(dp3081
g3
S'Khalid'
p3082
sg5
I31
sg6
S'https://open.spotify.com/track/152lZdxL1OR0ZMW6KquMif'
p3083
sg8
S'Location'
p3084
ssS'3b0EOvScbZUc0qJx0E1L2z'
p3085
(dp3086
g3
S'The Jackson 5'
p3087
sg5
I1
sg6
S'https://open.spotify.com/track/3b0EOvScbZUc0qJx0E1L2z'
p3088
sg8
S'I Want You Back'
p3089
ssS'4TZy1wLyHec06pwgFYDh1a'
p3090
(dp3091
g3
S'Shawn Mendes'
p3092
sg5
I25
sg6
S'https://open.spotify.com/track/4TZy1wLyHec06pwgFYDh1a'
p3093
sg8
S'Mercy'
p3094
ssS'4EKKrClSZPPmm3RBwT34nz'
p3095
(dp3096
g3
S'Sean Paul'
p3097
sg5
I1
sg6
S'https://open.spotify.com/track/4EKKrClSZPPmm3RBwT34nz'
p3098
sg8
S'Body'
p3099
ssS'3caMfJGFp53NAH2TuigdNj'
p3100
(dp3101
g3
S'Galantis'
p3102
sg5
I2
sg6
S'https://open.spotify.com/track/3caMfJGFp53NAH2TuigdNj'
p3103
sg8
S'Hunter'
p3104
ssS'3RXkboS74UYzN14xTqzPyY'
p3105
(dp3106
g3
g457
sg5
I1
sg6
S'https://open.spotify.com/track/3RXkboS74UYzN14xTqzPyY'
p3107
sg8
g457
ssS'4Q3N4Ct4zCuIHuZ65E3BD4'
p3108
(dp3109
g3
S'Kodak Black'
p3110
sg5
I15
sg6
S'https://open.spotify.com/track/4Q3N4Ct4zCuIHuZ65E3BD4'
p3111
sg8
S'Tunnel Vision'
p3112
ssS'20H2Hd5AkUcRjB4yL3UQtJ'
p3113
(dp3114
g3
S'Fifth Harmony'
p3115
sg5
I3
sg6
S'https://open.spotify.com/track/20H2Hd5AkUcRjB4yL3UQtJ'
p3116
sg8
S'Down'
p3117
ssS'4gnKkcqXovx4T39FVr2q9i'
p3118
(dp3119
g3
S'J HUS'
p3120
sg5
I1
sg6
S'https://open.spotify.com/track/4gnKkcqXovx4T39FVr2q9i'
p3121
sg8
S'Friendly'
p3122
ssS'0HEmnAUT8PHznIAAmVXqFJ'
p3123
(dp3124
g3
S'George Michael'
p3125
sg5
I2
sg6
S'https://open.spotify.com/track/0HEmnAUT8PHznIAAmVXqFJ'
p3126
sg8
S'Faith - Remastered'
p3127
ssS'1FUViuNSldssMIawrOXF2i'
p3128
(dp3129
g3
S'Bebe Rexha'
p3130
sg5
I14
sg6
S'https://open.spotify.com/track/1FUViuNSldssMIawrOXF2i'
p3131
sg8
S'I Got You'
p3132
ssS'2XlHu0HcujBCkWMdIAvrqt'
p3133
(dp3134
g3
S'Drake'
p3135
sg5
I26
sg6
S'https://open.spotify.com/track/2XlHu0HcujBCkWMdIAvrqt'
p3136
sg8
S'Blem'
p3137
ssS'458ESscRcqCVX1xbllEmPn'
p3138
(dp3139
g3
S'NEIKED'
p3140
sg5
I1
sg6
S'https://open.spotify.com/track/458ESscRcqCVX1xbllEmPn'
p3141
sg8
S'Call Me'
p3142
ssS'1lgtuKQkhlOr0LySn892KY'
p3143
(dp3144
g3
S'Liam Gallagher'
p3145
sg5
I1
sg6
S'https://open.spotify.com/track/1lgtuKQkhlOr0LySn892KY'
p3146
sg8
S'Greedy Soul'
p3147
ssS'4Q4jmPHwu0wrJvqrld0FQ6'
p3148
(dp3149
g3
S'Zara Larsson'
p3150
sg5
I29
sg6
S'https://open.spotify.com/track/4Q4jmPHwu0wrJvqrld0FQ6'
p3151
sg8
S'I Would Like'
p3152
ssS'6ctmWJntoQg4n8cZEQqCjA'
p3153
(dp3154
g3
S'Dave'
p3155
sg5
I1
sg6
S'https://open.spotify.com/track/6ctmWJntoQg4n8cZEQqCjA'
p3156
sg8
S'Tequila'
p3157
ssS'6KjbNLbRjuoa8rEq5yNA6H'
p3158
(dp3159
g3
S'The Chainsmokers'
p3160
sg5
I1
sg6
S'https://open.spotify.com/track/6KjbNLbRjuoa8rEq5yNA6H'
p3161
sg8
S'Honest'
p3162
ssS'3K4HG9evC7dg3N0R9cYqk4'
p3163
(dp3164
g3
S'Linkin Park'
p3165
sg5
I1
sg6
S'https://open.spotify.com/track/3K4HG9evC7dg3N0R9cYqk4'
p3166
sg8
S'One Step Closer'
p3167
ssS'5xlS0QkVrSH7ssEbBgBzbM'
p3168
(dp3169
g3
S'The Beach Boys'
p3170
sg5
I1
sg6
S'https://open.spotify.com/track/5xlS0QkVrSH7ssEbBgBzbM'
p3171
sg8
S'Little Saint Nick'
p3172
ssS'7yyRTcZmCiyzzJlNzGC9Ol'
p3173
(dp3174
g3
S'DRAM'
p3175
sg5
I9
sg6
S'https://open.spotify.com/track/7yyRTcZmCiyzzJlNzGC9Ol'
p3176
sg8
S'Broccoli (feat. Lil Yachty)'
p3177
ssS'6JSryEdVJTZq6YBn3wK2sn'
p3178
(dp3179
g3
S'Foo Fighters'
p3180
sg5
I1
sg6
S'https://open.spotify.com/track/6JSryEdVJTZq6YBn3wK2sn'
p3181
sg8
S'Arrows'
p3182
ssS'6dh1aHKIyvpcOHEPWokza3'
p3183
(dp3184
g3
S'Giggs'
p3185
sg5
I6
sg6
S'https://open.spotify.com/track/6dh1aHKIyvpcOHEPWokza3'
p3186
sg8
S'Lock Doh'
p3187
ssS'2CvOqDpQIMw69cCzWqr5yr'
p3188
(dp3189
g3
S'Beyonc\xc3\xa9'
p3190
sg5
I3
sg6
S'https://open.spotify.com/track/2CvOqDpQIMw69cCzWqr5yr'
p3191
sg8
S'Halo'
p3192
ssS'4CRk8QpQ2KNS7N5S2xjEjQ'
p3193
(dp3194
g3
S'Tinie Tempah'
p3195
sg5
I14
sg6
S'https://open.spotify.com/track/4CRk8QpQ2KNS7N5S2xjEjQ'
p3196
sg8
S'Text From Your Ex (feat. Tinashe)'
p3197
ssS'4ricyQVd20UQde1jpXCSuJ'
p3198
(dp3199
g3
S'Tony Bennett'
p3200
sg5
I1
sg6
S'https://open.spotify.com/track/4ricyQVd20UQde1jpXCSuJ'
p3201
sg8
S'Winter Wonderland'
p3202
ssS'2771LMNxwf62FTAdpJMQfM'
p3203
(dp3204
g3
S'Cardi B'
p3205
sg5
I9
sg6
S'https://open.spotify.com/track/2771LMNxwf62FTAdpJMQfM'
p3206
sg8
S'Bodak Yellow'
p3207
ssS'1wjzFQodRWrPcQ0AnYnvQ9'
p3208
(dp3209
g3
S'Lauv'
p3210
sg5
I16
sg6
S'https://open.spotify.com/track/1wjzFQodRWrPcQ0AnYnvQ9'
p3211
sg8
S'I Like Me Better'
p3212
ssS'6IGA5YrFiEr5ANrMqKkR6H'
p3213
(dp3214
g3
S'Bastille'
p3215
sg5
I7
sg6
S'https://open.spotify.com/track/6IGA5YrFiEr5ANrMqKkR6H'
p3216
sg8
S'Good Grief'
p3217
ssS'6PCUP3dWmTjcTtXY02oFdT'
p3218
(dp3219
g3
S'Ed Sheeran'
p3220
sg5
I40
sg6
S'https://open.spotify.com/track/6PCUP3dWmTjcTtXY02oFdT'
p3221
sg8
S'Castle on the Hill'
p3222
ssS'0yOLhQVpava7cJhVDbCvSh'
p3223
(dp3224
g3
S'Nat King Cole'
p3225
sg5
I1
sg6
S'https://open.spotify.com/track/0yOLhQVpava7cJhVDbCvSh'
p3226
sg8
S'Deck The Halls'
p3227
ssS'6b2oQwSGFkzsMtQruIWm2p'
p3228
(dp3229
g3
S'Radiohead'
p3230
sg5
I1
sg6
S'https://open.spotify.com/track/6b2oQwSGFkzsMtQruIWm2p'
p3231
sg8
S'Creep'
p3232
ssS'6SwRhMLwNqEi6alNPVG00n'
p3233
(dp3234
g3
S'Kendrick Lamar'
p3235
sg5
I21
sg6
S'https://open.spotify.com/track/6SwRhMLwNqEi6alNPVG00n'
p3236
sg8
S'LOYALTY. FEAT. RIHANNA.'
p3237
ssS'7hQ0ojbeqicGhw0wdUVeaN'
p3238
(dp3239
g3
S'Gorillaz'
p3240
sg5
I1
sg6
S'https://open.spotify.com/track/7hQ0ojbeqicGhw0wdUVeaN'
p3241
sg8
S'We Got The Power (feat. Jehnny Beth)'
p3242
ssS'0jeJR3LdrC2QJNviq7wjzp'
p3243
(dp3244
g3
S'alt-J'
p3245
sg5
I2
sg6
S'https://open.spotify.com/track/0jeJR3LdrC2QJNviq7wjzp'
p3246
sg8
S'In Cold Blood'
p3247
ssS'6MdqqkQ8sSC0WB4i8PyRuQ'
p3248
(dp3249
g3
S'Blackstreet'
p3250
sg5
I1
sg6
S'https://open.spotify.com/track/6MdqqkQ8sSC0WB4i8PyRuQ'
p3251
sg8
S'No Diggity'
p3252
ssS'5ev0Z2lFzmhjlQCWpRAWiG'
p3253
(dp3254
g3
S'Sigala'
p3255
sg5
I15
sg6
S'https://open.spotify.com/track/5ev0Z2lFzmhjlQCWpRAWiG'
p3256
sg8
S'Only One - Radio Edit'
p3257
ssS'104buTcnP2AsxqB7U1FIZ4'
p3258
(dp3259
g3
S'Linkin Park'
p3260
sg5
I3
sg6
S'https://open.spotify.com/track/104buTcnP2AsxqB7U1FIZ4'
p3261
sg8
S'Heavy (feat. Kiiara)'
p3262
ssS'2H3wWrnO758y0fPH7Ilerg'
p3263
(dp3264
g3
S'XXXTENTACION'
p3265
sg5
I1
sg6
S'https://open.spotify.com/track/2H3wWrnO758y0fPH7Ilerg'
p3266
sg8
S'Depression & Obsession'
p3267
ssS'5Odgb6uCWnL8U3Eb3ijLZj'
p3268
(dp3269
g3
S'M.O'
p3270
sg5
I11
sg6
S'https://open.spotify.com/track/5Odgb6uCWnL8U3Eb3ijLZj'
p3271
sg8
S'Not In Love'
p3272
ssS'6BBfG9FiwJhRVMCd9IYl6c'
p3273
(dp3274
g3
S'dodie'
p3275
sg5
I1
sg6
S'https://open.spotify.com/track/6BBfG9FiwJhRVMCd9IYl6c'
p3276
sg8
S'In The Middle'
p3277
ssS'1mH6tZC6iXIHPI6EixCwxw'
p3278
(dp3279
g3
S'Wizzard'
p3280
sg5
I1
sg6
S'https://open.spotify.com/track/1mH6tZC6iXIHPI6EixCwxw'
p3281
sg8
S'I Wish It Could Be Christmas Everyday'
p3282
ssS'650OeHTLxZAQmb4aEbGmaA'
p3283
(dp3284
g3
S'Linkin Park'
p3285
sg5
I1
sg6
S'https://open.spotify.com/track/650OeHTLxZAQmb4aEbGmaA'
p3286
sg8
S'Good Goodbye (feat. Pusha T and Stormzy)'
p3287
ssS'1PSBzsahR2AKwLJgx8ehBj'
p3288
(dp3289
g3
S'Machine Gun Kelly'
p3290
sg5
I16
sg6
S'https://open.spotify.com/track/1PSBzsahR2AKwLJgx8ehBj'
p3291
sg8
S'Bad Things (with Camila Cabello)'
p3292
ssS'4c9WmjVlQMr0s1IjbYO52Z'
p3293
(dp3294
g3
S'Foals'
p3295
sg5
I8
sg6
S'https://open.spotify.com/track/4c9WmjVlQMr0s1IjbYO52Z'
p3296
sg8
S'My Number'
p3297
ssS'7KOlJ92bu51cltsD9KU5I7'
p3298
(dp3299
g3
S'Migos'
p3300
sg5
I15
sg6
S'https://open.spotify.com/track/7KOlJ92bu51cltsD9KU5I7'
p3301
sg8
S'T-Shirt'
p3302
ssS'0D8ZpOXVjapLXrjz5VfZSD'
p3303
(dp3304
g3
S'Sam Smith'
p3305
sg5
I1
sg6
S'https://open.spotify.com/track/0D8ZpOXVjapLXrjz5VfZSD'
p3306
sg8
S'Pray'
p3307
ssS'3VAvS6hbvz0mjFT1TmLNdd'
p3308
(dp3309
g3
S'Biffy Clyro'
p3310
sg5
I1
sg6
S'https://open.spotify.com/track/3VAvS6hbvz0mjFT1TmLNdd'
p3311
sg8
S'Re-arrange'
p3312
ssS'3m660poUr1chesgkkjQM7P'
p3313
(dp3314
g3
S'Demi Lovato'
p3315
sg5
I2
sg6
S'https://open.spotify.com/track/3m660poUr1chesgkkjQM7P'
p3316
sg8
S'Sorry Not Sorry'
p3317
ssS'5wYLW17fs9JOolzR2W3AmM'
p3318
(dp3319
g3
S'alt-J'
p3320
sg5
I2
sg6
S'https://open.spotify.com/track/5wYLW17fs9JOolzR2W3AmM'
p3321
sg8
S'3WW'
p3322
ssS'7rPLZ8Krm6CZIbraFUlnWZ'
p3323
(dp3324
g3
S'Adele'
p3325
sg5
I1
sg6
S'https://open.spotify.com/track/7rPLZ8Krm6CZIbraFUlnWZ'
p3326
sg8
S'Make You Feel My Love'
p3327
ssS'63gcHyuhAC8G2C0bVQUOJI'
p3328
(dp3329
g3
S'Michael Jackson'
p3330
sg5
I1
sg6
S'https://open.spotify.com/track/63gcHyuhAC8G2C0bVQUOJI'
p3331
sg8
S"Rockin' Robin"
p3332
ssS'4C5ewaZ05vyXM23jFJdwd4'
p3333
(dp3334
g3
S'Halsey'
p3335
sg5
I1
sg6
S'https://open.spotify.com/track/4C5ewaZ05vyXM23jFJdwd4'
p3336
sg8
S'Strangers'
p3337
ssS'661bbtA19xopO3lH0J4Qvr'
p3338
(dp3339
g3
S'The xx'
p3340
sg5
I1
sg6
S'https://open.spotify.com/track/661bbtA19xopO3lH0J4Qvr'
p3341
sg8
S'A Violent Noise'
p3342
ssS'7bPLo5Fv7h15E2fW3g1mVQ'
p3343
(dp3344
g3
S'Dave'
p3345
sg5
I11
sg6
S'https://open.spotify.com/track/7bPLo5Fv7h15E2fW3g1mVQ'
p3346
sg8
S'Wanna Know Remix (feat. Drake)'
p3347
ssS'6fujklziTHa8uoM5OQSfIo'
p3348
(dp3349
g3
S'Rae Sremmurd'
p3350
sg5
I19
sg6
S'https://open.spotify.com/track/6fujklziTHa8uoM5OQSfIo'
p3351
sg8
S'Black Beatles'
p3352
ssS'19WjVVgXjdKXfLXoaDPwTM'
p3353
(dp3354
g3
S'Taylor Swift'
p3355
sg5
I5
sg6
S'https://open.spotify.com/track/19WjVVgXjdKXfLXoaDPwTM'
p3356
sg8
S'...Ready For It?'
p3357
ssS'27PmvZoffODNFW2p7ehZTQ'
p3358
(dp3359
g3
S'Kent Jones'
p3360
sg5
I1
sg6
S'https://open.spotify.com/track/27PmvZoffODNFW2p7ehZTQ'
p3361
sg8
S"Don't Mind"
p3362
ssS'6UjfByV1lDLW0SOVQA4NAi'
p3363
(dp3364
g3
S'Drake'
p3365
sg5
I15
sg6
S'https://open.spotify.com/track/6UjfByV1lDLW0SOVQA4NAi'
p3366
sg8
S'Gyalchester'
p3367
ssS'5fVZC9GiM4e8vu99W0Xf6J'
p3368
(dp3369
g3
S'The Fray'
p3370
sg5
I2
sg6
S'https://open.spotify.com/track/5fVZC9GiM4e8vu99W0Xf6J'
p3371
sg8
S'How to Save a Life'
p3372
ssS'7floNISpH8VF4z4459Qo18'
p3373
(dp3374
g3
S'XXXTENTACION'
p3375
sg5
I2
sg6
S'https://open.spotify.com/track/7floNISpH8VF4z4459Qo18'
p3376
sg8
S'Look At Me!'
p3377
ssS'3PEgB3fkiojxms35ntsTgs'
p3378
(dp3379
g3
S'Axwell /\\ Ingrosso'
p3380
sg5
I11
sg6
S'https://open.spotify.com/track/3PEgB3fkiojxms35ntsTgs'
p3381
sg8
S'More Than You Know'
p3382
ssS'2NlmmAjGYrrjAp0MED5rGx'
p3383
(dp3384
g3
S'Taylor Swift'
p3385
sg5
I1
sg6
S'https://open.spotify.com/track/2NlmmAjGYrrjAp0MED5rGx'
p3386
sg8
S'Bad Blood'
p3387
ssS'6CfrYuD3YRDYdYvH9jNtXY'
p3388
(dp3389
g3
S'Drake'
p3390
sg5
I10
sg6
S'https://open.spotify.com/track/6CfrYuD3YRDYdYvH9jNtXY'
p3391
sg8
S'No Long Talk'
p3392
ssS'0gtSPYz0OHoF7k09Auq1uC'
p3393
(dp3394
g3
S'Dua Lipa'
p3395
sg5
I1
sg6
S'https://open.spotify.com/track/0gtSPYz0OHoF7k09Auq1uC'
p3396
sg8
S"Thinking 'Bout You"
p3397
ssS'7KsZHCfOitA5V9oQYVdltG'
p3398
(dp3399
g3
S'Arcade Fire'
p3400
sg5
I1
sg6
S'https://open.spotify.com/track/7KsZHCfOitA5V9oQYVdltG'
p3401
sg8
S'Everything Now'
p3402
ssS'1Wuwsq0BK4Abd7gRitOhXl'
p3403
(dp3404
g3
S'Diplo'
p3405
sg5
I2
sg6
S'https://open.spotify.com/track/1Wuwsq0BK4Abd7gRitOhXl'
p3406
sg8
S'Be Right There'
p3407
ssS'1xX9Po48ORssfN8MXeBLj9'
p3408
(dp3409
g3
S'5 After Midnight'
p3410
sg5
I8
sg6
S'https://open.spotify.com/track/1xX9Po48ORssfN8MXeBLj9'
p3411
sg8
S'Up In Here'
p3412
ssS'4aiLpwwZw5Ek9KkBMnt6Zu'
p3413
(dp3414
g3
S'Naughty Boy'
p3415
sg5
I17
sg6
S'https://open.spotify.com/track/4aiLpwwZw5Ek9KkBMnt6Zu'
p3416
sg8
S"Should've Been Me"
p3417
ssS'7aiVBCp1ibIWE5GeHkbtxr'
p3418
(dp3419
g3
S'Britney Spears'
p3420
sg5
I1
sg6
S'https://open.spotify.com/track/7aiVBCp1ibIWE5GeHkbtxr'
p3421
sg8
S'My Only Wish (This Year)'
p3422
ssS'0UeYCHOETPfai02uskjJ3x'
p3423
(dp3424
g3
S'Bag Raiders'
p3425
sg5
I4
sg6
S'https://open.spotify.com/track/0UeYCHOETPfai02uskjJ3x'
p3426
sg8
S'Shooting Stars'
p3427
ssS'0B8B8cVRFIG1yznoQe7c9s'
p3428
(dp3429
g3
S'The Chainsmokers'
p3430
sg5
I3
sg6
S'https://open.spotify.com/track/0B8B8cVRFIG1yznoQe7c9s'
p3431
sg8
S'Setting Fires'
p3432
ssS'5ghIJDpPoe3CfHMGu71E6T'
p3433
(dp3434
g3
S'Nirvana'
p3435
sg5
I2
sg6
S'https://open.spotify.com/track/5ghIJDpPoe3CfHMGu71E6T'
p3436
sg8
S'Smells Like Teen Spirit'
p3437
ssS'02WacdrRpm4zlP8H7X6bnQ'
p3438
(dp3439
g3
S'Calum Scott'
p3440
sg5
I19
sg6
S'https://open.spotify.com/track/02WacdrRpm4zlP8H7X6bnQ'
p3441
sg8
S'Dancing On My Own'
p3442
ssS'1mDGDb2fUmUMdqV3tb8VKQ'
p3443
(dp3444
g3
S'Halsey'
p3445
sg5
I1
sg6
S'https://open.spotify.com/track/1mDGDb2fUmUMdqV3tb8VKQ'
p3446
sg8
S'Now Or Never'
p3447
ssS'0Ws8D3EWUDgY962Xftb0h5'
p3448
(dp3449
g3
S'Calvin Harris'
p3450
sg5
I1
sg6
S'https://open.spotify.com/track/0Ws8D3EWUDgY962Xftb0h5'
p3451
sg8
S'Cash Out'
p3452
ssS'7BpYWzZwrsljT1eIjb0TqR'
p3453
(dp3454
g3
S'Paramore'
p3455
sg5
I2
sg6
S'https://open.spotify.com/track/7BpYWzZwrsljT1eIjb0TqR'
p3456
sg8
S'Told You So'
p3457
ssS'5FZxsHWIvUsmSK1IAvm2pp'
p3458
(dp3459
g3
S'Foo Fighters'
p3460
sg5
I1
sg6
S'https://open.spotify.com/track/5FZxsHWIvUsmSK1IAvm2pp'
p3461
sg8
S'Best of You'
p3462
ssS'095XSaT8I2uI6Uldj2QrSl'
p3463
(dp3464
g3
S'Jona Lewie'
p3465
sg5
I1
sg6
S'https://open.spotify.com/track/095XSaT8I2uI6Uldj2QrSl'
p3466
sg8
S'Stop the Cavalry'
p3467
ssS'0A2J5TumCpT4aJVvQHNEQW'
p3468
(dp3469
g3
S'Ed Sheeran'
p3470
sg5
I2
sg6
S'https://open.spotify.com/track/0A2J5TumCpT4aJVvQHNEQW'
p3471
sg8
S'One'
p3472
ssS'6OZh916QF8XNunWaP97WEZ'
p3473
(dp3474
g3
S'Jonas Blue'
p3475
sg5
I8
sg6
S'https://open.spotify.com/track/6OZh916QF8XNunWaP97WEZ'
p3476
sg8
S'Fast Car'
p3477
ssS'2rizacJSyD9S1IQUxUxnsK'
p3478
(dp3479
g3
S'The Chainsmokers'
p3480
sg5
I10
sg6
S'https://open.spotify.com/track/2rizacJSyD9S1IQUxUxnsK'
p3481
sg8
S'All We Know'
p3482
ssS'79NlESqzFSW0hdBWgls4FX'
p3483
(dp3484
g3
S'Kesha'
p3485
sg5
I5
sg6
S'https://open.spotify.com/track/79NlESqzFSW0hdBWgls4FX'
p3486
sg8
S'Praying'
p3487
ssS'0tgVpDi06FyKpA1z0VMD4v'
p3488
(dp3489
g3
S'Ed Sheeran'
p3490
sg5
I32
sg6
S'https://open.spotify.com/track/0tgVpDi06FyKpA1z0VMD4v'
p3491
sg8
S'Perfect'
p3492
ssS'46pF1zFimM582ss1PrMy68'
p3493
(dp3494
g3
S'Darlene Love'
p3495
sg5
I1
sg6
S'https://open.spotify.com/track/46pF1zFimM582ss1PrMy68'
p3496
sg8
S'Christmas (Baby Please Come Home)'
p3497
ssS'69uxyAqqPIsUyTO8txoP2M'
p3498
(dp3499
g3
S'Coldplay'
p3500
sg5
I10
sg6
S'https://open.spotify.com/track/69uxyAqqPIsUyTO8txoP2M'
p3501
sg8
S'Adventure Of A Lifetime'
p3502
ssS'5hc71nKsUgtwQ3z52KEKQk'
p3503
(dp3504
g3
S'The 1975'
p3505
sg5
I6
sg6
S'https://open.spotify.com/track/5hc71nKsUgtwQ3z52KEKQk'
p3506
sg8
S'Somebody Else'
p3507
ssS'1onfcprzpSGh2LqrBh17AA'
p3508
(dp3509
g3
S'The xx'
p3510
sg5
I1
sg6
S'https://open.spotify.com/track/1onfcprzpSGh2LqrBh17AA'
p3511
sg8
S'Lips'
p3512
ssS'5XQMr19TL7Mfksq9zihbOu'
p3513
(dp3514
g3
S'Chris Brown'
p3515
sg5
I8
sg6
S'https://open.spotify.com/track/5XQMr19TL7Mfksq9zihbOu'
p3516
sg8
S'Questions'
p3517
ssS'2wDjpPW3HZdA9quPPmZAMu'
p3518
(dp3519
g3
S'Cashmere Cat'
p3520
sg5
I7
sg6
S'https://open.spotify.com/track/2wDjpPW3HZdA9quPPmZAMu'
p3521
sg8
S'Trust Nobody (feat. Selena Gomez & Tory Lanez)'
p3522
ssS'1hvpDAxZPKjKztOc72sv06'
p3523
(dp3524
g3
S'Band Aid'
p3525
sg5
I1
sg6
S'https://open.spotify.com/track/1hvpDAxZPKjKztOc72sv06'
p3526
sg8
S"Do They Know It's Christmas? - 1984 Version"
p3527
ssS'72Q0FQQo32KJloivv5xge2'
p3528
(dp3529
g3
S'DJ Khaled'
p3530
sg5
I3
sg6
S'https://open.spotify.com/track/72Q0FQQo32KJloivv5xge2'
p3531
sg8
S"I'm the One"
p3532
ssS'3lkYS3iMpWMVpaJ0yJAFrJ'
p3533
(dp3534
g3
S'The Jackson 5'
p3535
sg5
I1
sg6
S'https://open.spotify.com/track/3lkYS3iMpWMVpaJ0yJAFrJ'
p3536
sg8
S'I Saw Mommy Kissing Santa Claus'
p3537
ssS'0or0gNaKAXYYCsOrpvRzAu'
p3538
(dp3539
g3
S'Lorde'
p3540
sg5
I2
sg6
S'https://open.spotify.com/track/0or0gNaKAXYYCsOrpvRzAu'
p3541
sg8
S'Liability'
p3542
ssS'0hNduWmlWmEmuwEFcYvRu1'
p3543
(dp3544
g3
S'Petit Biscuit'
p3545
sg5
I6
sg6
S'https://open.spotify.com/track/0hNduWmlWmEmuwEFcYvRu1'
p3546
sg8
S'Sunset Lover'
p3547
ssS'1HrMWH5GUdK6Yi94rbANJA'
p3548
(dp3549
g3
S'CamelPhat'
p3550
sg5
I6
sg6
S'https://open.spotify.com/track/1HrMWH5GUdK6Yi94rbANJA'
p3551
sg8
S'Cola - Radio Edit'
p3552
ssS'1x5sYLZiu9r5E43kMlt9f8'
p3553
(dp3554
g3
S'Clean Bandit'
p3555
sg5
I30
sg6
S'https://open.spotify.com/track/1x5sYLZiu9r5E43kMlt9f8'
p3556
sg8
S'Symphony (feat. Zara Larsson)'
p3557
ssS'37F0uwRSrdzkBiuj0D5UHI'
p3558
(dp3559
g3
S'The Weeknd'
p3560
sg5
I9
sg6
S'https://open.spotify.com/track/37F0uwRSrdzkBiuj0D5UHI'
p3561
sg8
S'Reminder'
p3562
ssS'6IeK3Ap5m3HabwJxgI6eSE'
p3563
(dp3564
g3
S'Perry Como'
p3565
sg5
I1
sg6
S'https://open.spotify.com/track/6IeK3Ap5m3HabwJxgI6eSE'
p3566
sg8
S"It's Beginning to Look a Lot Like Christmas"
p3567
ssS'140ZXTyy731tJdisnQ5ulm'
p3568
(dp3569
g3
S'Enrique Iglesias'
p3570
sg5
I10
sg6
S'https://open.spotify.com/track/140ZXTyy731tJdisnQ5ulm'
p3571
sg8
S'SUBEME LA RADIO REMIX'
p3572
ssS'5PQiNAGdQACI7PGvZyBH2q'
p3573
(dp3574
g3
S'Liam Gallagher'
p3575
sg5
I1
sg6
S'https://open.spotify.com/track/5PQiNAGdQACI7PGvZyBH2q'
p3576
sg8
S'Chinatown'
p3577
ssS'2X8GwyuNBiOJKLCLNaefOT'
p3578
(dp3579
g3
S'Anne-Marie'
p3580
sg5
I3
sg6
S'https://open.spotify.com/track/2X8GwyuNBiOJKLCLNaefOT'
p3581
sg8
S'Heavy'
p3582
ssS'5SE57ljOIUJ1ybL9U6CuBH'
p3583
(dp3584
g3
S'BTS'
p3585
sg5
I1
sg6
S'https://open.spotify.com/track/5SE57ljOIUJ1ybL9U6CuBH'
p3586
sg8
S'DNA'
p3587
ssS'6fTsxhIosAU6zXTAhSaemI'
p3588
(dp3589
g3
S'ALMA'
p3590
sg5
I25
sg6
S'https://open.spotify.com/track/6fTsxhIosAU6zXTAhSaemI'
p3591
sg8
S'Chasing Highs'
p3592
ssS'6520aj0B4FSKGVuKNsOCOi'
p3593
(dp3594
g3
S'Katy Perry'
p3595
sg5
I21
sg6
S'https://open.spotify.com/track/6520aj0B4FSKGVuKNsOCOi'
p3596
sg8
S'Chained To The Rhythm'
p3597
ssS'6Hiw9Q3qc8ZdC3lwIim5ZY'
p3598
(dp3599
g3
S'Lotto Boyzz'
p3600
sg5
I2
sg6
S'https://open.spotify.com/track/6Hiw9Q3qc8ZdC3lwIim5ZY'
p3601
sg8
S'No Don'
p3602
ssS'2eAAEa8pxKF7My0EO4rFgR'
p3603
(dp3604
g3
S'Dua Lipa'
p3605
sg5
I23
sg6
S'https://open.spotify.com/track/2eAAEa8pxKF7My0EO4rFgR'
p3606
sg8
S'Blow Your Mind (Mwah)'
p3607
ssS'6mb6lVLNrcUgLnEN8QnDJd'
p3608
(dp3609
g3
S"Auli'i Cravalho"
p3610
sg5
I11
sg6
S'https://open.spotify.com/track/6mb6lVLNrcUgLnEN8QnDJd'
p3611
sg8
S"How Far I'll Go"
p3612
ssS'0tKcYR2II1VCQWT79i5NrW'
p3613
(dp3614
g3
S'Imagine Dragons'
p3615
sg5
I21
sg6
S'https://open.spotify.com/track/0tKcYR2II1VCQWT79i5NrW'
p3616
sg8
S'Thunder'
p3617
ssS'4kflIGfjdZJW4ot2ioixTB'
p3618
(dp3619
g3
S'Adele'
p3620
sg5
I6
sg6
S'https://open.spotify.com/track/4kflIGfjdZJW4ot2ioixTB'
p3621
sg8
S'Someone Like You'
p3622
ssS'5tuPatWvMTHgX74CAOqKm9'
p3623
(dp3624
g3
S'J HUS'
p3625
sg5
I2
sg6
S'https://open.spotify.com/track/5tuPatWvMTHgX74CAOqKm9'
p3626
sg8
S'Plottin'
p3627
ssS'6DNtNfH8hXkqOX1sjqmI7p'
p3628
(dp3629
g3
S'Major Lazer'
p3630
sg5
I36
sg6
S'https://open.spotify.com/track/6DNtNfH8hXkqOX1sjqmI7p'
p3631
sg8
S'Cold Water (feat. Justin Bieber & M\xc3\x98)'
p3632
ssS'2ytH5wDuqhgLTiDVYioteq'
p3633
(dp3634
g3
S'Jax Jones'
p3635
sg5
I2
sg6
S'https://open.spotify.com/track/2ytH5wDuqhgLTiDVYioteq'
p3636
sg8
S'Instruction'
p3637
ssS'5NNlUMcOEOdoOIwwaWXv0k'
p3638
(dp3639
g3
S'Maroon 5'
p3640
sg5
I15
sg6
S'https://open.spotify.com/track/5NNlUMcOEOdoOIwwaWXv0k'
p3641
sg8
S'Cold'
p3642
ssS'4Kln4sYiZzemzfdbLXW00G'
p3643
(dp3644
g3
S'Jax Jones'
p3645
sg5
I9
sg6
S'https://open.spotify.com/track/4Kln4sYiZzemzfdbLXW00G'
p3646
sg8
S'House Work'
p3647
ssS'1sXUWdKx03aP9Gmzft58rt'
p3648
(dp3649
g3
S'Julia Michaels'
p3650
sg5
I27
sg6
S'https://open.spotify.com/track/1sXUWdKx03aP9Gmzft58rt'
p3651
sg8
S'Issues'
p3652
ssS'2tUBqZG2AbRi7Q0BIrVrEj'
p3653
(dp3654
g3
S'Whitney Houston'
p3655
sg5
I1
sg6
S'https://open.spotify.com/track/2tUBqZG2AbRi7Q0BIrVrEj'
p3656
sg8
S'I Wanna Dance with Somebody (Who Loves Me)'
p3657
ssS'3QiAAp20rPC3dcAtKtMaqQ'
p3658
(dp3659
g3
S'Elvis Presley'
p3660
sg5
I1
sg6
S'https://open.spotify.com/track/3QiAAp20rPC3dcAtKtMaqQ'
p3661
sg8
S'Blue Christmas'
p3662
ssS'7IWkJwX9C0J7tHurTD7ViL'
p3663
(dp3664
g3
S'Adele'
p3665
sg5
I9
sg6
S'https://open.spotify.com/track/7IWkJwX9C0J7tHurTD7ViL'
p3666
sg8
S'When We Were Young'
p3667
ssS'1zayuwd1YLZsYDArkruHdL'
p3668
(dp3669
g3
S'Kendrick Lamar'
p3670
sg5
I3
sg6
S'https://open.spotify.com/track/1zayuwd1YLZsYDArkruHdL'
p3671
sg8
S'The Heart Part 4'
p3672
ssS'4L7Y2OAPiY2I2GndZjAs5K'
p3673
(dp3674
g3
S'Lana Del Rey'
p3675
sg5
I1
sg6
S'https://open.spotify.com/track/4L7Y2OAPiY2I2GndZjAs5K'
p3676
sg8
S'Lust For Life (with The Weeknd)'
p3677
ssS'14oOKFGuXu8DqvOe1W8vao'
p3678
(dp3679
g3
S'Katy Perry'
p3680
sg5
I2
sg6
S'https://open.spotify.com/track/14oOKFGuXu8DqvOe1W8vao'
p3681
sg8
S'Bon App\xc3\xa9tit'
p3682
ssS'4BHSjbYylfOH5WAGusDyni'
p3683
(dp3684
g3
S'Kendrick Lamar'
p3685
sg5
I4
sg6
S'https://open.spotify.com/track/4BHSjbYylfOH5WAGusDyni'
p3686
sg8
S'YAH.'
p3687
ssS'3ZOEytgrvLwQaqXreDs2Jx'
p3688
(dp3689
g3
S'Red Hot Chili Peppers'
p3690
sg5
I31
sg6
S'https://open.spotify.com/track/3ZOEytgrvLwQaqXreDs2Jx'
p3691
sg8
S"Can't Stop"
p3692
ssS'1louJpMmzEicAn7lzDalPW'
p3693
(dp3694
g3
S'Cheat Codes'
p3695
sg5
I28
sg6
S'https://open.spotify.com/track/1louJpMmzEicAn7lzDalPW'
p3696
sg8
S'No Promises (feat. Demi Lovato)'
p3697
ssS'2ISl1zekPsc26sUQpVt8UB'
p3698
(dp3699
g3
S"Shakin' Stevens"
p3700
sg5
I1
sg6
S'https://open.spotify.com/track/2ISl1zekPsc26sUQpVt8UB'
p3701
sg8
S'Merry Christmas Everyone - Remastered'
p3702
ssS'2pJZ1v8HezrAoZ0Fhzby92'
p3703
(dp3704
g3
S'Ed Sheeran'
p3705
sg5
I32
sg6
S'https://open.spotify.com/track/2pJZ1v8HezrAoZ0Fhzby92'
p3706
sg8
S'What Do I Know?'
p3707
ssS'6y2Kaz9QI01XBKJ8mTb7Pf'
p3708
(dp3709
g3
S"Rag'n'Bone Man"
p3710
sg5
I33
sg6
S'https://open.spotify.com/track/6y2Kaz9QI01XBKJ8mTb7Pf'
p3711
sg8
S'Skin'
p3712
ssS'20js7QbHkIuzrgecUTPfl7'
p3713
(dp3714
g3
S'Louisa Johnson'
p3715
sg5
I8
sg6
S'https://open.spotify.com/track/20js7QbHkIuzrgecUTPfl7'
p3716
sg8
S'So Good'
p3717
ssS'2mNbgyi0gori4b1rFSPgIb'
p3718
(dp3719
g3
S'Lorde'
p3720
sg5
I1
sg6
S'https://open.spotify.com/track/2mNbgyi0gori4b1rFSPgIb'
p3721
sg8
S'Sober'
p3722
ssS'3zoYkqS4y2BsGVShPL2nTE'
p3723
(dp3724
g3
S'CNCO'
p3725
sg5
I8
sg6
S'https://open.spotify.com/track/3zoYkqS4y2BsGVShPL2nTE'
p3726
sg8
S'Reggaet\xc3\xb3n Lento (Remix) [CNCO & Little Mix]'
p3727
ssS'3B54sVLJ402zGa6Xm4YGNe'
p3728
(dp3729
g3
S'French Montana'
p3730
sg5
I14
sg6
S'https://open.spotify.com/track/3B54sVLJ402zGa6Xm4YGNe'
p3731
sg8
S'Unforgettable'
p3732
ssS'43ZyHQITOjhciSUUNPVRHc'
p3733
(dp3734
g3
S'Lil Pump'
p3735
sg5
I1
sg6
S'https://open.spotify.com/track/43ZyHQITOjhciSUUNPVRHc'
p3736
sg8
S'Gucci Gang'
p3737
ssS'1eUtJDWBFWobniOx9JwX96'
p3738
(dp3739
g3
S'AJ Tracey'
p3740
sg5
I1
sg6
S'https://open.spotify.com/track/1eUtJDWBFWobniOx9JwX96'
p3741
sg8
S'Quarterback (Secure The Bag!)'
p3742
ssS'2habSXqcJGExM6JJyskY7O'
p3743
(dp3744
g3
S'Miley Cyrus'
p3745
sg5
I20
sg6
S'https://open.spotify.com/track/2habSXqcJGExM6JJyskY7O'
p3746
sg8
S'Malibu'
p3747
ssS'5Ua3GXyHwiSfpNTMjq6m2z'
p3748
(dp3749
g3
S'Little Mix'
p3750
sg5
I42
sg6
S'https://open.spotify.com/track/5Ua3GXyHwiSfpNTMjq6m2z'
p3751
sg8
S'Touch'
p3752
ssS'6i0V12jOa3mr6uu4WYhUBr'
p3753
(dp3754
g3
S'Twenty One Pilots'
p3755
sg5
I18
sg6
S'https://open.spotify.com/track/6i0V12jOa3mr6uu4WYhUBr'
p3756
sg8
S'Heathens'
p3757
ssS'7eGpQgpepXm1MJ80Zhoipv'
p3758
(dp3759
g3
S'George Ezra'
p3760
sg5
I6
sg6
S'https://open.spotify.com/track/7eGpQgpepXm1MJ80Zhoipv'
p3761
sg8
S"Don't Matter Now"
p3762
ssS'3ZeszLrkylVDyAFS9MLajv'
p3763
(dp3764
g3
S'Olly Murs'
p3765
sg5
I1
sg6
S'https://open.spotify.com/track/3ZeszLrkylVDyAFS9MLajv'
p3766
sg8
S"You Don't Know Love"
p3767
ssS'6ooluO7DiEhI1zmK94nRCM'
p3768
(dp3769
g3
S'Franz Ferdinand'
p3770
sg5
I9
sg6
S'https://open.spotify.com/track/6ooluO7DiEhI1zmK94nRCM'
p3771
sg8
S'Take Me Out'
p3772
ssS'40UroIGvsMPLPBYwH8rMNA'
p3773
(dp3774
g3
S'Vice'
p3775
sg5
I1
sg6
S'https://open.spotify.com/track/40UroIGvsMPLPBYwH8rMNA'
p3776
sg8
S'Steady 1234 (feat. Jasmine Thompson & Skizzy Mars)'
p3777
ssS'5nA67Y0XX9JipZwYxX7Gl7'
p3778
(dp3779
g3
S'Niall Horan'
p3780
sg5
I3
sg6
S'https://open.spotify.com/track/5nA67Y0XX9JipZwYxX7Gl7'
p3781
sg8
S'This Town'
p3782
ssS'06BD7TeUR6mYbF6cWyzvZt'
p3783
(dp3784
g3
S'Mabel'
p3785
sg5
I11
sg6
S'https://open.spotify.com/track/06BD7TeUR6mYbF6cWyzvZt'
p3786
sg8
S'Finders Keepers'
p3787
ssS'0SuG9kyzGRpDqrCWtgD6Lq'
p3788
(dp3789
g3
S'Ed Sheeran'
p3790
sg5
I5
sg6
S'https://open.spotify.com/track/0SuG9kyzGRpDqrCWtgD6Lq'
p3791
sg8
S'Give Me Love'
p3792
ssS'1bCmvezFg5MRcENzCGG1Cy'
p3793
(dp3794
g3
S'The Fratellis'
p3795
sg5
I2
sg6
S'https://open.spotify.com/track/1bCmvezFg5MRcENzCGG1Cy'
p3796
sg8
S'Chelsea Dagger'
p3797
ssS'4tX7Nt68zEeb0Lt32ngQR0'
p3798
(dp3799
g3
S'Kato'
p3800
sg5
I12
sg6
S'https://open.spotify.com/track/4tX7Nt68zEeb0Lt32ngQR0'
p3801
sg8
S'Show You Love'
p3802
ssS'7wiESxCGoUkRdgZF2JOLZu'
p3803
(dp3804
g3
S'Phil Spector'
p3805
sg5
I1
sg6
S'https://open.spotify.com/track/7wiESxCGoUkRdgZF2JOLZu'
p3806
sg8
S'Sleigh Ride'
p3807
ssS'6fxVffaTuwjgEk5h9QyRjy'
p3808
(dp3809
g3
S'Ed Sheeran'
p3810
sg5
I41
sg6
S'https://open.spotify.com/track/6fxVffaTuwjgEk5h9QyRjy'
p3811
sg8
S'Photograph'
p3812
ssS'4xX7OsX8XTGWJgRxNNIaFT'
p3813
(dp3814
g3
S'Tom Zanetti'
p3815
sg5
I37
sg6
S'https://open.spotify.com/track/4xX7OsX8XTGWJgRxNNIaFT'
p3816
sg8
S'You Want Me'
p3817
ssS'7MSYSOobsombc1mbDWFxtD'
p3818
(dp3819
g3
S'Donny Hathaway'
p3820
sg5
I1
sg6
S'https://open.spotify.com/track/7MSYSOobsombc1mbDWFxtD'
p3821
sg8
S'This Christmas'
p3822
ssS'1tp1xMJ1uaOktksskS0Fzs'
p3823
(dp3824
g3
S'Gucci Mane'
p3825
sg5
I2
sg6
S'https://open.spotify.com/track/1tp1xMJ1uaOktksskS0Fzs'
p3826
sg8
S'Curve (feat. The Weeknd)'
p3827
ssS'1VdZ0vKfR5jneCmWIUAMxK'
p3828
(dp3829
g3
S'Ed Sheeran'
p3830
sg5
I11
sg6
S'https://open.spotify.com/track/1VdZ0vKfR5jneCmWIUAMxK'
p3831
sg8
S'The A Team'
p3832
ssS'1wur1SW656paPv7EyTqWu4'
p3833
(dp3834
g3
S'C\xc3\xa9line Dion'
p3835
sg5
I1
sg6
S'https://open.spotify.com/track/1wur1SW656paPv7EyTqWu4'
p3836
sg8
S'Happy Xmas (War Is Over)'
p3837
ssS'7xE4vKvjqUTtHyJ9zi0k1q'
p3838
(dp3839
g3
S'Emma Stone'
p3840
sg5
I4
sg6
S'https://open.spotify.com/track/7xE4vKvjqUTtHyJ9zi0k1q'
p3841
sg8
S'Someone In The Crowd - From La La Land Soundtrack'
p3842
ssS'6nxQdXa1uAL0rY72wPZu89'
p3843
(dp3844
g3
S'John Legend'
p3845
sg5
I17
sg6
S'https://open.spotify.com/track/6nxQdXa1uAL0rY72wPZu89'
p3846
sg8
S'Love Me Now'
p3847
ssS'6kex4EBAj0WHXDKZMEJaaF'
p3848
(dp3849
g3
S'Jason Derulo'
p3850
sg5
I33
sg6
S'https://open.spotify.com/track/6kex4EBAj0WHXDKZMEJaaF'
p3851
sg8
S'Swalla (feat. Nicki Minaj & Ty Dolla $ign)'
p3852
ssS'2SBr3MK1sdMs8IxdRcN6qz'
p3853
(dp3854
g3
S'Kylie Minogue'
p3855
sg5
I1
sg6
S'https://open.spotify.com/track/2SBr3MK1sdMs8IxdRcN6qz'
p3856
sg8
S'Santa Baby'
p3857
ssS'0qdWB1TrrnVBTPsqJ5JL19'
p3858
(dp3859
g3
S'Liam Gallagher'
p3860
sg5
I1
sg6
S'https://open.spotify.com/track/0qdWB1TrrnVBTPsqJ5JL19'
p3861
sg8
S"When I'm In Need"
p3862
ssS'6XGddj522FQRHXEhBtjiJu'
p3863
(dp3864
g3
S'Gorillaz'
p3865
sg5
I1
sg6
S'https://open.spotify.com/track/6XGddj522FQRHXEhBtjiJu'
p3866
sg8
S'Strobelite (feat. Peven Everett)'
p3867
ssS'1zv2P1cwzIu997ujUYVxZA'
p3868
(dp3869
g3
S'The Killers'
p3870
sg5
I1
sg6
S'https://open.spotify.com/track/1zv2P1cwzIu997ujUYVxZA'
p3871
sg8
S'The Man'
p3872
ssS'5b1b7JZWJj4Lg2PizgvbY0'
p3873
(dp3874
g3
S'Bugzy Malone'
p3875
sg5
I8
sg6
S'https://open.spotify.com/track/5b1b7JZWJj4Lg2PizgvbY0'
p3876
sg8
S'Memory Lane (feat. Tom Grennan)'
p3877
ssS'54h8xHewdRPnYzmbEHBhOO'
p3878
(dp3879
g3
S'Imagine Dragons'
p3880
sg5
I1
sg6
S'https://open.spotify.com/track/54h8xHewdRPnYzmbEHBhOO'
p3881
sg8
S'I\xe2\x80\x99ll Make It Up To You'
p3882
ssS'7yq4Qj7cqayVTp3FF9CWbm'
p3883
(dp3884
g3
S'Vance Joy'
p3885
sg5
I24
sg6
S'https://open.spotify.com/track/7yq4Qj7cqayVTp3FF9CWbm'
p3886
sg8
S'Riptide'
p3887
ssS'1Slwb6dOYkBlWal1PGtnNg'
p3888
(dp3889
g3
S'Ed Sheeran'
p3890
sg5
I41
sg6
S'https://open.spotify.com/track/1Slwb6dOYkBlWal1PGtnNg'
p3891
sg8
S'Thinking Out Loud'
p3892
ssS'08WPvDEsHvTFuB9w8tC2OS'
p3893
(dp3894
g3
S'Sage The Gemini'
p3895
sg5
I1
sg6
S'https://open.spotify.com/track/08WPvDEsHvTFuB9w8tC2OS'
p3896
sg8
S'Now and Later'
p3897
ssS'3IV8xIrnjv7TdJY6KUmdrD'
p3898
(dp3899
g3
S'John Denver'
p3900
sg5
I1
sg6
S'https://open.spotify.com/track/3IV8xIrnjv7TdJY6KUmdrD'
p3901
sg8
S'Rudolph the Red Nosed Reindeer'
p3902
ssS'5lXcSvHRVjQJ3LB2rLKQog'
p3903
(dp3904
g3
S'Stevie Wonder'
p3905
sg5
I8
sg6
S'https://open.spotify.com/track/5lXcSvHRVjQJ3LB2rLKQog'
p3906
sg8
S'Superstition - Single Version'
p3907
ssS'4ZJPwET9Jrgpkqi4Vo3Yg8'
p3908
(dp3909
g3
S'Bebe Rexha'
p3910
sg5
I5
sg6
S'https://open.spotify.com/track/4ZJPwET9Jrgpkqi4Vo3Yg8'
p3911
sg8
S'Bad Bitch (feat. Ty Dolla $ign)'
p3912
ssS'27GmP9AWRs744SzKcpJsTZ'
p3913
(dp3914
g3
S'Drake'
p3915
sg5
I13
sg6
S'https://open.spotify.com/track/27GmP9AWRs744SzKcpJsTZ'
p3916
sg8
S'Jumpman'
p3917
ssS'1Dp7JGFNjvg8Nk0CtMCcnr'
p3918
(dp3919
g3
S'Lorde'
p3920
sg5
I1
sg6
S'https://open.spotify.com/track/1Dp7JGFNjvg8Nk0CtMCcnr'
p3921
sg8
S'Hard Feelings/Loveless'
p3922
ssS'0Fv5N0cHBsl4bzCbollCAS'
p3923
(dp3924
g3
S'Big Sean'
p3925
sg5
I1
sg6
S'https://open.spotify.com/track/0Fv5N0cHBsl4bzCbollCAS'
p3926
sg8
S'Moves'
p3927
ssS'7KXjTSCq5nL1LoYtL7XAwS'
p3928
(dp3929
g3
S'Kendrick Lamar'
p3930
sg5
I28
sg6
S'https://open.spotify.com/track/7KXjTSCq5nL1LoYtL7XAwS'
p3931
sg8
S'HUMBLE.'
p3932
ssS'6tjituizSxwSmBB5vtgHZE'
p3933
(dp3934
g3
S'Michael Bubl\xc3\xa9'
p3935
sg5
I1
sg6
S'https://open.spotify.com/track/6tjituizSxwSmBB5vtgHZE'
p3936
sg8
S'Holly Jolly Christmas'
p3937
ssS'1jYiIOC5d6soxkJP81fxq2'
p3938
(dp3939
g3
S'DJ Khaled'
p3940
sg5
I1
sg6
S'https://open.spotify.com/track/1jYiIOC5d6soxkJP81fxq2'
p3941
sg8
S"I'm the One"
p3942
ssS'6Na5uKk5SsqZimk0hAWo8y'
p3943
(dp3944
g3
S'Drake'
p3945
sg5
I2
sg6
S'https://open.spotify.com/track/6Na5uKk5SsqZimk0hAWo8y'
p3946
sg8
S'Signs'
p3947
ssS'4gavOCQdZ2g86gkvi17FM7'
p3948
(dp3949
g3
S'Paul McCartney'
p3950
sg5
I1
sg6
S'https://open.spotify.com/track/4gavOCQdZ2g86gkvi17FM7'
p3951
sg8
S'Wonderful Christmastime - Remastered 2011 / Edited Version'
p3952
ssS'0leIhGny91OrU4mjcshsjI'
p3953
(dp3954
g3
S'Mud'
p3955
sg5
I1
sg6
S'https://open.spotify.com/track/0leIhGny91OrU4mjcshsjI'
p3956
sg8
S'Lonely This Christmas'
p3957
ssS'5wTM2Bm8phDwHAuOsfBwhU'
p3958
(dp3959
g3
S'Pretenders'
p3960
sg5
I1
sg6
S'https://open.spotify.com/track/5wTM2Bm8phDwHAuOsfBwhU'
p3961
sg8
S'2000 Miles - 2007 Remastered Version'
p3962
ssS'0JpxNq2SYwPt2uSqdcSvyQ'
p3963
(dp3964
g3
S'Scouting For Girls'
p3965
sg5
I28
sg6
S'https://open.spotify.com/track/0JpxNq2SYwPt2uSqdcSvyQ'
p3966
sg8
S"She's So Lovely"
p3967
ssS'0n2bvWvMwr0gbjcuTm92eW'
p3968
(dp3969
g3
S'Lana Del Rey'
p3970
sg5
I9
sg6
S'https://open.spotify.com/track/0n2bvWvMwr0gbjcuTm92eW'
p3971
sg8
S'Love'
p3972
ssS'2nUJvBO87SkxCViQsLc9Zr'
p3973
(dp3974
g3
S'Big Shaq'
p3975
sg5
I3
sg6
S'https://open.spotify.com/track/2nUJvBO87SkxCViQsLc9Zr'
p3976
sg8
S"Man's Not Hot"
p3977
ssS'3AsAuGTaDQzavZZThyYlop'
p3978
(dp3979
g3
S'NEIKED'
p3980
sg5
I42
sg6
S'https://open.spotify.com/track/3AsAuGTaDQzavZZThyYlop'
p3981
sg8
S'Sexual'
p3982
ssS'3Lfiu5sZ4M4B6JaKMBc0FU'
p3983
(dp3984
g3
S'Ed Sheeran'
p3985
sg5
I28
sg6
S'https://open.spotify.com/track/3Lfiu5sZ4M4B6JaKMBc0FU'
p3986
sg8
S'Barcelona'
p3987
ssS'2qLUgEnhkYb6yBH0vaYg1y'
p3988
(dp3989
g3
S'The Vamps'
p3990
sg5
I1
sg6
S'https://open.spotify.com/track/2qLUgEnhkYb6yBH0vaYg1y'
p3991
sg8
S'Middle Of The Night'
p3992
ssS'4kfm1uI9QGaoN9qm6CkAMn'
p3993
(dp3994
g3
S'Linkin Park'
p3995
sg5
I2
sg6
S'https://open.spotify.com/track/4kfm1uI9QGaoN9qm6CkAMn'
p3996
sg8
S"What I've Done"
p3997
ssS'69bp2EbF7Q2rqc5N3ylezZ'
p3998
(dp3999
g3
S'Justin Bieber'
p4000
sg5
I38
sg6
S'https://open.spotify.com/track/69bp2EbF7Q2rqc5N3ylezZ'
p4001
sg8
S'Sorry'
p4002
ssS'17jXCEmvvo2pRiQ8hETEAA'
p4003
(dp4004
g3
S'Giggs'
p4005
sg5
I1
sg6
S'https://open.spotify.com/track/17jXCEmvvo2pRiQ8hETEAA'
p4006
sg8
S'Ultimate Gangsta'
p4007
ssS'6u9RqxALwkjJ1ukB1y8vuP'
p4008
(dp4009
g3
S'Florence + The Machine'
p4010
sg5
I13
sg6
S'https://open.spotify.com/track/6u9RqxALwkjJ1ukB1y8vuP'
p4011
sg8
S"You've Got The Love"
p4012
ssS'08QmhAybC6VHeG8gah84qA'
p4013
(dp4014
g3
S'NEIKED'
p4015
sg5
I13
sg6
S'https://open.spotify.com/track/08QmhAybC6VHeG8gah84qA'
p4016
sg8
S'Call Me'
p4017
ssS'7n5m8nDAnyXo81tr4B3Bcw'
p4018
(dp4019
g3
S'The Ronettes'
p4020
sg5
I1
sg6
S'https://open.spotify.com/track/7n5m8nDAnyXo81tr4B3Bcw'
p4021
sg8
S'Frosty the Snowman'
p4022
ssS'4iLqG9SeJSnt0cSPICSjxv'
p4023
(dp4024
g3
S'Charlie Puth'
p4025
sg5
I25
sg6
S'https://open.spotify.com/track/4iLqG9SeJSnt0cSPICSjxv'
p4026
sg8
S'Attention'
p4027
ssS'15dnkAHcHC0vrIUlbiPiqU'
p4028
(dp4029
g3
S'Imagine Dragons'
p4030
sg5
I1
sg6
S'https://open.spotify.com/track/15dnkAHcHC0vrIUlbiPiqU'
p4031
sg8
S'I Don\xe2\x80\x99t Know Why'
p4032
ssS'6RUKPb4LETWmmr3iAEQktW'
p4033
(dp4034
g3
S'The Chainsmokers'
p4035
sg5
I34
sg6
S'https://open.spotify.com/track/6RUKPb4LETWmmr3iAEQktW'
p4036
sg8
S'Something Just Like This'
p4037
ssS'3FQCJI2t5LTbsRPfYVBSVB'
p4038
(dp4039
g3
S'Linkin Park'
p4040
sg5
I1
sg6
S'https://open.spotify.com/track/3FQCJI2t5LTbsRPfYVBSVB'
p4041
sg8
S'Battle Symphony'
p4042
ssS'7M16mAuWuFA5rC9HvkXaGx'
p4043
(dp4044
g3
S'Jax Jones'
p4045
sg5
I5
sg6
S'https://open.spotify.com/track/7M16mAuWuFA5rC9HvkXaGx'
p4046
sg8
S"You Don't Know Me - Radio Edit"
p4047
ssS'3mRcWCyteY2133a7xVMrYw'
p4048
(dp4049
g3
S'Future'
p4050
sg5
I3
sg6
S'https://open.spotify.com/track/3mRcWCyteY2133a7xVMrYw'
p4051
sg8
S'Comin Out Strong'
p4052
ssS'4uoumbAMEMaKdtiv763jKz'
p4053
(dp4054
g3
S'Zara Larsson'
p4055
sg5
I2
sg6
S'https://open.spotify.com/track/4uoumbAMEMaKdtiv763jKz'
p4056
sg8
S'TG4M'
p4057
ssS'0VhgEqMTNZwYL1ARDLLNCX'
p4058
(dp4059
g3
S'James Arthur'
p4060
sg5
I22
sg6
S'https://open.spotify.com/track/0VhgEqMTNZwYL1ARDLLNCX'
p4061
sg8
S'Can I Be Him'
p4062
ssS'2fkeWbM6iqTw7oGHTYm2lw'
p4063
(dp4064
g3
S'Drake'
p4065
sg5
I7
sg6
S'https://open.spotify.com/track/2fkeWbM6iqTw7oGHTYm2lw'
p4066
sg8
S'4422'
p4067
ssS'6pyIRpxFSGo6iYIwRtj4xG'
p4068
(dp4069
g3
S'Mel Torm\xc3\xa9'
p4070
sg5
I1
sg6
S'https://open.spotify.com/track/6pyIRpxFSGo6iYIwRtj4xG'
p4071
sg8
S'The Christmas Song (Chestnuts Roasting On an Open Fire)'
p4072
ssS'3VTNVsTTu05dmTsVFrmGpK'
p4073
(dp4074
g3
S'The Pogues'
p4075
sg5
I1
sg6
S'https://open.spotify.com/track/3VTNVsTTu05dmTsVFrmGpK'
p4076
sg8
S'Fairytale of New York (feat. Kirsty MacColl)'
p4077
ssS'4vv1KjUzPwrtDbozizSfQc'
p4078
(dp4079
g3
S'DJ Khaled'
p4080
sg5
I1
sg6
S'https://open.spotify.com/track/4vv1KjUzPwrtDbozizSfQc'
p4081
sg8
S"Don't Quit"
p4082
ssS'1xznGGDReH1oQq0xzbwXa3'
p4083
(dp4084
g3
S'Drake'
p4085
sg5
I42
sg6
S'https://open.spotify.com/track/1xznGGDReH1oQq0xzbwXa3'
p4086
sg8
S'One Dance'
p4087
ssS'5GXAXm5YOmYT0kL5jHvYBt'
p4088
(dp4089
g3
S'The Weeknd'
p4090
sg5
I35
sg6
S'https://open.spotify.com/track/5GXAXm5YOmYT0kL5jHvYBt'
p4091
sg8
S'I Feel It Coming'
p4092
ssS'5mxTOMM0NiRud8VdBxbA2o'
p4093
(dp4094
g3
S'Ed Sheeran'
p4095
sg5
I6
sg6
S'https://open.spotify.com/track/5mxTOMM0NiRud8VdBxbA2o'
p4096
sg8
S'Bloodstream'
p4097
ssS'6IZvVAP7VPPnsGX6bvgkqg'
p4098
(dp4099
g3
S'Kendrick Lamar'
p4100
sg5
I3
sg6
S'https://open.spotify.com/track/6IZvVAP7VPPnsGX6bvgkqg'
p4101
sg8
S'PRIDE.'
p4102
ssS'0lMbuWUpfTWhEmOKxppEau'
p4103
(dp4104
g3
S'Calvin Harris'
p4105
sg5
I10
sg6
S'https://open.spotify.com/track/0lMbuWUpfTWhEmOKxppEau'
p4106
sg8
S'Rollin'
p4107
ssS'3Ytr1SUCUi6J3L9dRFx5iH'
p4108
(dp4109
g3
S'Major Lazer'
p4110
sg5
I19
sg6
S'https://open.spotify.com/track/3Ytr1SUCUi6J3L9dRFx5iH'
p4111
sg8
S'Know No Better (feat. Quavo)'
p4112
ssS'508hbpTQ7wclT2JDpKBUSV'
p4113
(dp4114
g3
S'Lorde'
p4115
sg5
I1
sg6
S'https://open.spotify.com/track/508hbpTQ7wclT2JDpKBUSV'
p4116
sg8
S'Perfect Places'
p4117
ssS'1KtVVUM6OkpyOsbVfbMybX'
p4118
(dp4119
g3
S'Jess Glynne'
p4120
sg5
I4
sg6
S'https://open.spotify.com/track/1KtVVUM6OkpyOsbVfbMybX'
p4121
sg8
S"Don't Be So Hard On Yourself"
p4122
ssS'4sQMalN597HdggTu196aL0'
p4123
(dp4124
g3
S'Flume'
p4125
sg5
I1
sg6
S'https://open.spotify.com/track/4sQMalN597HdggTu196aL0'
p4126
sg8
S'Say It (feat. Tove Lo)'
p4127
ssS'1Vej0qeQ3ioKwpI6FUbRv1'
p4128
(dp4129
g3
S'Linkin Park'
p4130
sg5
I1
sg6
S'https://open.spotify.com/track/1Vej0qeQ3ioKwpI6FUbRv1'
p4131
sg8
S'Papercut'
p4132
ssS'51ChrwmUPDJvedPQnIU8Ls'
p4133
(dp4134
g3
S'Ed Sheeran'
p4135
sg5
I30
sg6
S'https://open.spotify.com/track/51ChrwmUPDJvedPQnIU8Ls'
p4136
sg8
S'Dive'
p4137
ssS'4B1rpPmQXwj78wk6aIGwwU'
p4138
(dp4139
g3
S'Harry Styles'
p4140
sg5
I2
sg6
S'https://open.spotify.com/track/4B1rpPmQXwj78wk6aIGwwU'
p4141
sg8
S'Two Ghosts'
p4142
ssS'2R7858bg0GHuBBxjTyOL7N'
p4143
(dp4144
g3
S'George Michael'
p4145
sg5
I2
sg6
S'https://open.spotify.com/track/2R7858bg0GHuBBxjTyOL7N'
p4146
sg8
S'Careless Whisper'
p4147
ssS'0Y4RbufVwP3svcNeTdpoaN'
p4148
(dp4149
g3
S'Giggs'
p4150
sg5
I1
sg6
S'https://open.spotify.com/track/0Y4RbufVwP3svcNeTdpoaN'
p4151
sg8
S'Gangstas & Dancers'
p4152
ssS'1CUVN2kn7mW5FjkqXTR2W1'
p4153
(dp4154
g3
S'Jonas Blue'
p4155
sg5
I18
sg6
S'https://open.spotify.com/track/1CUVN2kn7mW5FjkqXTR2W1'
p4156
sg8
S'Perfect Strangers'
p4157
ssS'1vVNlXi8gf8tZ7OhnEs4VE'
p4158
(dp4159
g3
S'French Montana'
p4160
sg5
I3
sg6
S'https://open.spotify.com/track/1vVNlXi8gf8tZ7OhnEs4VE'
p4161
sg8
S'A Lie'
p4162
ssS'0SGkqnVQo9KPytSri1H6cF'
p4163
(dp4164
g3
S'Big Sean'
p4165
sg5
I21
sg6
S'https://open.spotify.com/track/0SGkqnVQo9KPytSri1H6cF'
p4166
sg8
S'Bounce Back'
p4167
ssS'0Tel1fmuCxEFV6wBLXsEdk'
p4168
(dp4169
g3
S'Ed Sheeran'
p4170
sg5
I3
sg6
S'https://open.spotify.com/track/0Tel1fmuCxEFV6wBLXsEdk'
p4171
sg8
S'Kiss Me'
p4172
ssS'0JiVRyTJcJnmlwCZ854K4p'
p4173
(dp4174
g3
S'Alan Walker'
p4175
sg5
I4
sg6
S'https://open.spotify.com/track/0JiVRyTJcJnmlwCZ854K4p'
p4176
sg8
S'Alone'
p4177
ssS'044qU7kwVZaDwzWnRsmVVL'
p4178
(dp4179
g3
S'The xx'
p4180
sg5
I1
sg6
S'https://open.spotify.com/track/044qU7kwVZaDwzWnRsmVVL'
p4181
sg8
S'I Dare You'
p4182
ssS'27SdWb2rFzO6GWiYDBTD9j'
p4183
(dp4184
g3
S'Sia'
p4185
sg5
I9
sg6
S'https://open.spotify.com/track/27SdWb2rFzO6GWiYDBTD9j'
p4186
sg8
S'Cheap Thrills'
p4187
ssS'3vgNmjuRDnGLxUFGCLkwpm'
p4188
(dp4189
g3
S'David Guetta'
p4190
sg5
I4
sg6
S'https://open.spotify.com/track/3vgNmjuRDnGLxUFGCLkwpm'
p4191
sg8
S'Light My Body Up (feat. Nicki Minaj & Lil Wayne)'
p4192
ssS'5xhJmd0I15jFcEdqxfCzKk'
p4193
(dp4194
g3
S'The Chainsmokers'
p4195
sg5
I1
sg6
S'https://open.spotify.com/track/5xhJmd0I15jFcEdqxfCzKk'
p4196
sg8
S"It Won't Kill Ya"
p4197
ssS'5dQJKDx0x73seZbwSORa1T'
p4198
(dp4199
g3
S'The Vamps'
p4200
sg5
I5
sg6
S'https://open.spotify.com/track/5dQJKDx0x73seZbwSORa1T'
p4201
sg8
S'Middle Of The Night'
p4202
ssS'6PJ8FF6UR8FZXfEvpHkIVN'
p4203
(dp4204
g3
S'Ed Sheeran'
p4205
sg5
I23
sg6
S'https://open.spotify.com/track/6PJ8FF6UR8FZXfEvpHkIVN'
p4206
sg8
S'How Would You Feel (Paean)'
p4207
ssS'2mOtx6P21hecOcPoVuZbzF'
p4208
(dp4209
g3
S'Luther Vandross'
p4210
sg5
I1
sg6
S'https://open.spotify.com/track/2mOtx6P21hecOcPoVuZbzF'
p4211
sg8
S'Please Come Home for Christmas'
p4212
ssS'1j4kHkkpqZRBwE0A4CN4Yv'
p4213
(dp4214
g3
S'ZAYN'
p4215
sg5
I5
sg6
S'https://open.spotify.com/track/1j4kHkkpqZRBwE0A4CN4Yv'
p4216
sg8
S'Dusk Till Dawn - Radio Edit'
p4217
ssS'2Pn76oik9rWyoBShTSNY9Q'
p4218
(dp4219
g3
S'Lana Del Rey'
p4220
sg5
I1
sg6
S'https://open.spotify.com/track/2Pn76oik9rWyoBShTSNY9Q'
p4221
sg8
S'White Mustang'
p4222
ssS'3kdMzXOcrDIdSWLdONHNK5'
p4223
(dp4224
g3
S'Foo Fighters'
p4225
sg5
I2
sg6
S'https://open.spotify.com/track/3kdMzXOcrDIdSWLdONHNK5'
p4226
sg8
S'The Sky Is A Neighborhood'
p4227
ssS'5ndfVSDyPq90jaIUhNPeby'
p4228
(dp4229
g3
S'Katy Perry'
p4230
sg5
I2
sg6
S'https://open.spotify.com/track/5ndfVSDyPq90jaIUhNPeby'
p4231
sg8
S'Chained To The Rhythm'
p4232
ssS'5uCax9HTNlzGybIStD3vDh'
p4233
(dp4234
g3
S'James Arthur'
p4235
sg5
I42
sg6
S'https://open.spotify.com/track/5uCax9HTNlzGybIStD3vDh'
p4236
sg8
S"Say You Won't Let Go"
p4237
ssS'7qiZfU4dY1lWllzX7mPBI3'
p4238
(dp4239
g3
S'Ed Sheeran'
p4240
sg5
I40
sg6
S'https://open.spotify.com/track/7qiZfU4dY1lWllzX7mPBI3'
p4241
sg8
S'Shape of You'
p4242
ssS'6LOCAhFzZiavHcLJucLuDy'
p4243
(dp4244
g3
S'DJ Khaled'
p4245
sg5
I1
sg6
S'https://open.spotify.com/track/6LOCAhFzZiavHcLJucLuDy'
p4246
sg8
S"Don't Quit"
p4247
ssS'53Pgsvu3qSYO2aXt5J2vcL'
p4248
(dp4249
g3
S'Ed Sheeran'
p4250
sg5
I4
sg6
S'https://open.spotify.com/track/53Pgsvu3qSYO2aXt5J2vcL'
p4251
sg8
S'Lego House'
p4252
ssS'0wfbD5rAksdXUzRvMfM3x5'
p4253
(dp4254
g3
S'The Chainsmokers'
p4255
sg5
I9
sg6
S'https://open.spotify.com/track/0wfbD5rAksdXUzRvMfM3x5'
p4256
sg8
S'The One'
p4257
ssS'2vKVaAoTG6ag83gW3RHwIn'
p4258
(dp4259
g3
S'J HUS'
p4260
sg5
I17
sg6
S'https://open.spotify.com/track/2vKVaAoTG6ag83gW3RHwIn'
p4261
sg8
S'Spirit'
p4262
ssS'0q75NwOoFiARAVp4EXU4Bs'
p4263
(dp4264
g3
S'SZA'
p4265
sg5
I2
sg6
S'https://open.spotify.com/track/0q75NwOoFiARAVp4EXU4Bs'
p4266
sg8
S'Love Galore'
p4267
ssS'2fQrGHiQOvpL9UgPvtYy6G'
p4268
(dp4269
g3
S'21 Savage'
p4270
sg5
I3
sg6
S'https://open.spotify.com/track/2fQrGHiQOvpL9UgPvtYy6G'
p4271
sg8
S'Bank Account'
p4272
ssS'2wXhdaTnmkkFSOidKfnOxA'
p4273
(dp4274
g3
S'HAIM'
p4275
sg5
I2
sg6
S'https://open.spotify.com/track/2wXhdaTnmkkFSOidKfnOxA'
p4276
sg8
S'Want You Back'
p4277
ssS'6DB2KOEwHnjkgEnBt5SdeJ'
p4278
(dp4279
g3
S'Future'
p4280
sg5
I3
sg6
S'https://open.spotify.com/track/6DB2KOEwHnjkgEnBt5SdeJ'
p4281
sg8
S'Mask Off - Remix'
p4282
ssS'1F2HXIJrE2Xn81OzT2zZvW'
p4283
(dp4284
g3
S'French Montana'
p4285
sg5
I13
sg6
S'https://open.spotify.com/track/1F2HXIJrE2Xn81OzT2zZvW'
p4286
sg8
S'Unforgettable'
p4287
ssS'6QgjcU0zLnzq5OrUoSZ3OK'
p4288
(dp4289
g3
S'Portugal. The Man'
p4290
sg5
I11
sg6
S'https://open.spotify.com/track/6QgjcU0zLnzq5OrUoSZ3OK'
p4291
sg8
S'Feel It Still'
p4292
ssS'7jltqRIyxLXBDNZ1QlmnBp'
p4293
(dp4294
g3
S'Ryan Gosling'
p4295
sg5
I3
sg6
S'https://open.spotify.com/track/7jltqRIyxLXBDNZ1QlmnBp'
p4296
sg8
S'City Of Stars - From La La Land Soundtrack/Pier'
p4297
ssS'2f9LSU0aBW04w6KL26DW8r'
p4298
(dp4299
g3
S'WizKid'
p4300
sg5
I14
sg6
S'https://open.spotify.com/track/2f9LSU0aBW04w6KL26DW8r'
p4301
sg8
S'Come Closer'
p4302
ssS'78rIJddV4X0HkNAInEcYde'
p4303
(dp4304
g3
S'Starley'
p4305
sg5
I38
sg6
S'https://open.spotify.com/track/78rIJddV4X0HkNAInEcYde'
p4306
sg8
S'Call On Me - Ryan Riback Extended Remix'
p4307
ssS'0L7loeTIg6akW84aEQZpCT'
p4308
(dp4309
g3
S'Major Lazer'
p4310
sg5
I19
sg6
S'https://open.spotify.com/track/0L7loeTIg6akW84aEQZpCT'
p4311
sg8
S'Light It Up (feat. Nyla & Fuse ODG) - Remix'
p4312
ssS'5GG3knKdxKWrNboRijxeKF'
p4313
(dp4314
g3
S'Bryson Tiller'
p4315
sg5
I20
sg6
S'https://open.spotify.com/track/5GG3knKdxKWrNboRijxeKF'
p4316
sg8
S'Run Me Dry'
p4317
ssS'4Q5yMlwAfAoitqg4r9oZHN'
p4318
(dp4319
g3
S'Cashmere Cat'
p4320
sg5
I7
sg6
S'https://open.spotify.com/track/4Q5yMlwAfAoitqg4r9oZHN'
p4321
sg8
S'Quit (feat. Ariana Grande)'
p4322
ssS'1vvNmPOiUuyCbgWmtc6yfm'
p4323
(dp4324
g3
S'Calvin Harris'
p4325
sg5
I17
sg6
S'https://open.spotify.com/track/1vvNmPOiUuyCbgWmtc6yfm'
p4326
sg8
S'My Way'
p4327
ssS'1KGi9sZVMeszgZOWivFpxs'
p4328
(dp4329
g3
S'TLC'
p4330
sg5
I21
sg6
S'https://open.spotify.com/track/1KGi9sZVMeszgZOWivFpxs'
p4331
sg8
S'No Scrubs'
p4332
ssS'5oWSIIJyMb0xAtAUcGJmy1'
p4333
(dp4334
g3
S"Rag'n'Bone Man"
p4335
sg5
I1
sg6
S'https://open.spotify.com/track/5oWSIIJyMb0xAtAUcGJmy1'
p4336
sg8
S'As You Are'
p4337
ssS'2Wr970IfovsSGnfkE08iMF'
p4338
(dp4339
g3
S'Sigma'
p4340
sg5
I7
sg6
S'https://open.spotify.com/track/2Wr970IfovsSGnfkE08iMF'
p4341
sg8
S'Find Me'
p4342
ssS'167NczpNbRF7oWakJaY3Hh'
p4343
(dp4344
g3
S'Niall Horan'
p4345
sg5
I23
sg6
S'https://open.spotify.com/track/167NczpNbRF7oWakJaY3Hh'
p4346
sg8
S'Slow Hands'
p4347
ssS'3dMHFZsBzy45jpIHR7l8AJ'
p4348
(dp4349
g3
S'Stormzy'
p4350
sg5
I3
sg6
S'https://open.spotify.com/track/3dMHFZsBzy45jpIHR7l8AJ'
p4351
sg8
S'Return Of The Rucksack'
p4352
ssS'0fH86zQcE2CmATQju6WpXv'
p4353
(dp4354
g3
S'Kris Kross Amsterdam'
p4355
sg5
I9
sg6
S'https://open.spotify.com/track/0fH86zQcE2CmATQju6WpXv'
p4356
sg8
S'Are You Sure? (feat. Ty Dolla $ign)'
p4357
ssS'1YLJVmuzeM2YSUkCCaTNUB'
p4358
(dp4359
g3
S'Florence + The Machine'
p4360
sg5
I6
sg6
S'https://open.spotify.com/track/1YLJVmuzeM2YSUkCCaTNUB'
p4361
sg8
S'Dog Days Are Over'
p4362
ssS'19a3JfW8BQwqHWUMbcqSx8'
p4363
(dp4364
g3
S'Kanye West'
p4365
sg5
I4
sg6
S'https://open.spotify.com/track/19a3JfW8BQwqHWUMbcqSx8'
p4366
sg8
S'Famous'
p4367
ssS'1DGYmHLYkwyCmvDEL3ctti'
p4368
(dp4369
g3
S'Dido'
p4370
sg5
I1
sg6
S'https://open.spotify.com/track/1DGYmHLYkwyCmvDEL3ctti'
p4371
sg8
S'Christmas Day'
p4372
ssS'0xl1w2q4VLojeXp4JfazPL'
p4373
(dp4374
g3
S'Drake'
p4375
sg5
I6
sg6
S'https://open.spotify.com/track/0xl1w2q4VLojeXp4JfazPL'
p4376
sg8
S'Sacrifices'
p4377
ssS'2C0KFbb4v9CNWR5c9jWcKC'
p4378
(dp4379
g3
S'Gorillaz'
p4380
sg5
I2
sg6
S'https://open.spotify.com/track/2C0KFbb4v9CNWR5c9jWcKC'
p4381
sg8
S'Andromeda (feat. DRAM)'
p4382
ssS'1R17cgUv6HeQFa78dzqb7s'
p4383
(dp4384
g3
S'Justin Hurwitz'
p4385
sg5
I3
sg6
S'https://open.spotify.com/track/1R17cgUv6HeQFa78dzqb7s'
p4386
sg8
S'Mia & Sebastian\xe2\x80\x99s Theme - From La La Land Soundtrack'
p4387
ssS'3OG5wVO27N3HtdtxPLpPFt'
p4388
(dp4389
g3
S'Foo Fighters'
p4390
sg5
I1
sg6
S'https://open.spotify.com/track/3OG5wVO27N3HtdtxPLpPFt'
p4391
sg8
S'T-Shirt'
p4392
ssS'7yHEDfrJNd0zWOfXwydNH0'
p4393
(dp4394
g3
S'Ariana Grande'
p4395
sg5
I27
sg6
S'https://open.spotify.com/track/7yHEDfrJNd0zWOfXwydNH0'
p4396
sg8
S'Into You'
p4397
ssS'15DwFznkBJir7AK9PyMyRR'
p4398
(dp4399
g3
S'MK'
p4400
sg5
I4
sg6
S'https://open.spotify.com/track/15DwFznkBJir7AK9PyMyRR'
p4401
sg8
S'17'
p4402
ssS'0qRqqYYFI5syoWTt1gdCVQ'
p4403
(dp4404
g3
S'MIST'
p4405
sg5
I1
sg6
S'https://open.spotify.com/track/0qRqqYYFI5syoWTt1gdCVQ'
p4406
sg8
S'Hot Property'
p4407
ssS'2nAAFnHiXRdWhsqoeqhhnr'
p4408
(dp4409
g3
S'London Grammar'
p4410
sg5
I4
sg6
S'https://open.spotify.com/track/2nAAFnHiXRdWhsqoeqhhnr'
p4411
sg8
S'Rooting For You'
p4412
ssS'0LtVx5vsq9nfpGsWgjUin6'
p4413
(dp4414
g3
S'Ryan Gosling'
p4415
sg5
I7
sg6
S'https://open.spotify.com/track/0LtVx5vsq9nfpGsWgjUin6'
p4416
sg8
S'City Of Stars - From La La Land Soundtrack'
p4417
ssS'1839RWzPRZCVgvamu4sHSN'
p4418
(dp4419
g3
S'Cash Cash'
p4420
sg5
I9
sg6
S'https://open.spotify.com/track/1839RWzPRZCVgvamu4sHSN'
p4421
sg8
S'All My Love (feat. Conor Maynard)'
p4422
ssS'5Db9VIdDsN5yu3Eu7CT0i4'
p4423
(dp4424
g3
S'Sam Smith'
p4425
sg5
I7
sg6
S'https://open.spotify.com/track/5Db9VIdDsN5yu3Eu7CT0i4'
p4426
sg8
S'Stay With Me'
p4427
ssS'11KJSRSgaDxqydKYiD2Jew'
p4428
(dp4429
g3
S'Drake'
p4430
sg5
I21
sg6
S'https://open.spotify.com/track/11KJSRSgaDxqydKYiD2Jew'
p4431
sg8
S'Too Good'
p4432
ssS'2ACOWPLUe4A4KuQ5ioD2od'
p4433
(dp4434
g3
S'Fifth Harmony'
p4435
sg5
I9
sg6
S'https://open.spotify.com/track/2ACOWPLUe4A4KuQ5ioD2od'
p4436
sg8
S"That's My Girl"
p4437
ssS'7pYFPMeK0TnaTGdS6qOtEr'
p4438
(dp4439
g3
S'Stargate'
p4440
sg5
I1
sg6
S'https://open.spotify.com/track/7pYFPMeK0TnaTGdS6qOtEr'
p4441
sg8
S'Waterfall'
p4442
ssS'6kh2EgNMbO3P3HoxLEUSNX'
p4443
(dp4444
g3
S'Ralph Felix'
p4445
sg5
I3
sg6
S'https://open.spotify.com/track/6kh2EgNMbO3P3HoxLEUSNX'
p4446
sg8
S'The Heat (I Wanna Dance With Somebody)'
p4447
ssS'1yNyoWWWikbLhwIGWjZuDW'
p4448
(dp4449
g3
S'The Vamps'
p4450
sg5
I27
sg6
S'https://open.spotify.com/track/1yNyoWWWikbLhwIGWjZuDW'
p4451
sg8
S'All Night'
p4452
ssS'1CireMJYXN8Rw4u1HG5GFZ'
p4453
(dp4454
g3
S'Skepta'
p4455
sg5
I2
sg6
S'https://open.spotify.com/track/1CireMJYXN8Rw4u1HG5GFZ'
p4456
sg8
S'Shutdown'
p4457
ssS'3lUxLfIScfTUkkPqLfiZ5g'
p4458
(dp4459
g3
S'J HUS'
p4460
sg5
I1
sg6
S'https://open.spotify.com/track/3lUxLfIScfTUkkPqLfiZ5g'
p4461
sg8
S'Good Time'
p4462
ssS'3Dwq1oiOFys6Sxr5SslmXw'
p4463
(dp4464
g3
S'Harry Styles'
p4465
sg5
I2
sg6
S'https://open.spotify.com/track/3Dwq1oiOFys6Sxr5SslmXw'
p4466
sg8
S'Carolina'
p4467
ssS'4vb4mFvYsr2h6enhjJsq9Y'
p4468
(dp4469
g3
S'Adele'
p4470
sg5
I21
sg6
S'https://open.spotify.com/track/4vb4mFvYsr2h6enhjJsq9Y'
p4471
sg8
S'Water Under the Bridge'
p4472
ssS'6cPyTS0Kk2sc4xQwC93kOg'
p4473
(dp4474
g3
S'The Chainsmokers'
p4475
sg5
I2
sg6
S'https://open.spotify.com/track/6cPyTS0Kk2sc4xQwC93kOg'
p4476
sg8
S'Break Up Every Night'
p4477
ssS'0w5Bdu51Ka25Pf3hojsKHh'
p4478
(dp4479
g3
S'Paramore'
p4480
sg5
I12
sg6
S'https://open.spotify.com/track/0w5Bdu51Ka25Pf3hojsKHh'
p4481
sg8
S'Hard Times'
p4482
ssS'17Fd6Yb7mSbinKG8LoWfFl'
p4483
(dp4484
g3
S'Mike Posner'
p4485
sg5
I36
sg6
S'https://open.spotify.com/track/17Fd6Yb7mSbinKG8LoWfFl'
p4486
sg8
S'I Took A Pill In Ibiza - Seeb Remix'
p4487
ssS'5y9VR6oWTFjtprI6Zia6aB'
p4488
(dp4489
g3
S'Artists for Grenfell'
p4490
sg5
I5
sg6
S'https://open.spotify.com/track/5y9VR6oWTFjtprI6Zia6aB'
p4491
sg8
S'Bridge Over Troubled Water'
p4492
ssS'4SO6Wonm24FAHzttG1lIeJ'
p4493
(dp4494
g3
S'HAIM'
p4495
sg5
I1
sg6
S'https://open.spotify.com/track/4SO6Wonm24FAHzttG1lIeJ'
p4496
sg8
S'Want You Back'
p4497
ssS'4tCtwWceOPWzenK2HAIJSb'
p4498
(dp4499
g3
S'Fifth Harmony'
p4500
sg5
I25
sg6
S'https://open.spotify.com/track/4tCtwWceOPWzenK2HAIJSb'
p4501
sg8
S'Work from Home'
p4502
ssS'1LbwMX3159t6QxG3u7DRWe'
p4503
(dp4504
g3
S'Royal Blood'
p4505
sg5
I1
sg6
S'https://open.spotify.com/track/1LbwMX3159t6QxG3u7DRWe'
p4506
sg8
S'I Only Lie When I Love You'
p4507
ssS'3JZw087wBZr8XSGGsSHDgm'
p4508
(dp4509
g3
S'Giggs'
p4510
sg5
I1
sg6
S'https://open.spotify.com/track/3JZw087wBZr8XSGGsSHDgm'
p4511
sg8
S'Gully Niggaz'
p4512
ssS'7pZhSqnQq6dQA5Hc9xxl9I'
p4513
(dp4514
g3
S'Not3s'
p4515
sg5
I8
sg6
S'https://open.spotify.com/track/7pZhSqnQq6dQA5Hc9xxl9I'
p4516
sg8
S'Aladdin'
p4517
ssS'4GXMWFus2XoMuPqP5gdgld'
p4518
(dp4519
g3
S'Stormzy'
p4520
sg5
I3
sg6
S'https://open.spotify.com/track/4GXMWFus2XoMuPqP5gdgld'
p4521
sg8
S'Velvet / Jenny Francis - Interlude'
p4522
ssS'3hB5DgAiMAQ4DzYbsMq1IT'
p4523
(dp4524
g3
S'Justin Bieber'
p4525
sg5
I40
sg6
S'https://open.spotify.com/track/3hB5DgAiMAQ4DzYbsMq1IT'
p4526
sg8
S'Love Yourself'
p4527
ssS'1foCxQtxBweJtZmdxhEHVO'
p4528
(dp4529
g3
S'Eartha Kitt'
p4530
sg5
I1
sg6
S'https://open.spotify.com/track/1foCxQtxBweJtZmdxhEHVO'
p4531
sg8
S'Santa Baby'
p4532
ssS'32OWobmyAz8J2qA8iWekyS'
p4533
(dp4534
g3
S'Justin Bieber'
p4535
sg5
I1
sg6
S'https://open.spotify.com/track/32OWobmyAz8J2qA8iWekyS'
p4536
sg8
S'Mistletoe'
p4537
ssS'6XOYVSmNDjKUNMXooU4s4z'
p4538
(dp4539
g3
S'OneRepublic'
p4540
sg5
I4
sg6
S'https://open.spotify.com/track/6XOYVSmNDjKUNMXooU4s4z'
p4541
sg8
S'No Vacancy'
p4542
ssS'78pn8k7RogKo2oxl0DyX6d'
p4543
(dp4544
g3
S'Leona Lewis'
p4545
sg5
I1
sg6
S'https://open.spotify.com/track/78pn8k7RogKo2oxl0DyX6d'
p4546
sg8
S'One More Sleep'
p4547
ssS'60xaS8mYBKUW4VQQ666N0T'
p4548
(dp4549
g3
S'Chance The Rapper'
p4550
sg5
I10
sg6
S'https://open.spotify.com/track/60xaS8mYBKUW4VQQ666N0T'
p4551
sg8
S'All Night (feat. Knox Fortune)'
p4552
ssS'3bidbhpOYeV4knp8AIu8Xn'
p4553
(dp4554
g3
S'Macklemore & Ryan Lewis'
p4555
sg5
I23
sg6
S'https://open.spotify.com/track/3bidbhpOYeV4knp8AIu8Xn'
p4556
sg8
S"Can't Hold Us - feat. Ray Dalton"
p4557
ssS'0xG0SHshCStMEyNbNC5d4k'
p4558
(dp4559
g3
S'Julia Michaels'
p4560
sg5
I9
sg6
S'https://open.spotify.com/track/0xG0SHshCStMEyNbNC5d4k'
p4561
sg8
S'Issues'
p4562
ssS'6PGoSes0D9eUDeeAafB2As'
p4563
(dp4564
g3
S'Kendrick Lamar'
p4565
sg5
I8
sg6
S'https://open.spotify.com/track/6PGoSes0D9eUDeeAafB2As'
p4566
sg8
S'LOVE. FEAT. ZACARI.'
p4567
ssS'1lItf5ZXJc1by9SbPeljFd'
p4568
(dp4569
g3
S'Zay Hilfigerrr'
p4570
sg5
I3
sg6
S'https://open.spotify.com/track/1lItf5ZXJc1by9SbPeljFd'
p4571
sg8
S'Juju On That Beat (TZ Anthem)'
p4572
ssS'5tz69p7tJuGPeMGwNTxYuV'
p4573
(dp4574
g3
S'Logic'
p4575
sg5
I20
sg6
S'https://open.spotify.com/track/5tz69p7tJuGPeMGwNTxYuV'
p4576
sg8
S'1-800-273-8255'
p4577
ss.