(dp0
S'1IcvGWkPGfNmArtSrpkSoz'
p1
(dp2
S'artistName'
p3
S'Capo'
p4
sS'weeksOnChart'
p5
I7
sS'track_href'
p6
S'https://open.spotify.com/track/1IcvGWkPGfNmArtSrpkSoz'
p7
sS'songName'
p8
S'Mainhattan City Gang'
p9
ssS'728zbo72kOoYdGR3AhNsyF'
p10
(dp11
g3
S'The xx'
p12
sg5
I1
sg6
S'https://open.spotify.com/track/728zbo72kOoYdGR3AhNsyF'
p13
sg8
S'Say Something Loving'
p14
ssS'7z9Ze7S4jm9q8gUQGQVsHt'
p15
(dp16
g3
S'Capital Bra'
p17
sg5
I2
sg6
S'https://open.spotify.com/track/7z9Ze7S4jm9q8gUQGQVsHt'
p18
sg8
S'Was 2 hol 10'
p19
ssS'0jdny0dhgjUwoIp5GkqEaA'
p20
(dp21
g3
S'Kesha'
p22
sg5
I3
sg6
S'https://open.spotify.com/track/0jdny0dhgjUwoIp5GkqEaA'
p23
sg8
S'Praying'
p24
ssS'4GyG53nBdaEvSEn9o8roA2'
p25
(dp26
g3
S'Glasperlenspiel'
p27
sg5
I1
sg6
S'https://open.spotify.com/track/4GyG53nBdaEvSEn9o8roA2'
p28
sg8
S'Geiles Leben - Madizin Single Mix'
p29
ssS'3S2kxneiC4nGxEWGs1S2D5'
p30
(dp31
g3
S'SpongeBOZZ'
p32
sg5
I2
sg6
S'https://open.spotify.com/track/3S2kxneiC4nGxEWGs1S2D5'
p33
sg8
S'Started from the Bottom'
p34
ssS'606LAaqFjPyfpzZHOVE8Kz'
p35
(dp36
g3
S'Capo'
p37
sg5
I1
sg6
S'https://open.spotify.com/track/606LAaqFjPyfpzZHOVE8Kz'
p38
sg8
S'Standort (feat. Tommy) - Bonustrack'
p39
ssS'0prNGof3XqfTvNDxHonvdK'
p40
(dp41
g3
S'Alessia Cara'
p42
sg5
I22
sg6
S'https://open.spotify.com/track/0prNGof3XqfTvNDxHonvdK'
p43
sg8
S'Scars To Your Beautiful'
p44
ssS'5CXjevTAQIYO1Z0yyiOOno'
p45
(dp46
g3
S'Beginner'
p47
sg5
I29
sg6
S'https://open.spotify.com/track/5CXjevTAQIYO1Z0yyiOOno'
p48
sg8
S'Ahnma'
p49
ssS'1pJQAHpD51J7GYaFrrFO9S'
p50
(dp51
g3
S'The Chainsmokers'
p52
sg5
I1
sg6
S'https://open.spotify.com/track/1pJQAHpD51J7GYaFrrFO9S'
p53
sg8
S"Don't Say"
p54
ssS'6HUnnBwYZqcED1eQztxMBN'
p55
(dp56
g3
S'Martin Jensen'
p57
sg5
I42
sg6
S'https://open.spotify.com/track/6HUnnBwYZqcED1eQztxMBN'
p58
sg8
S'Solo Dance'
p59
ssS'0RYXEibxMami3QuT8kn4Iz'
p60
(dp61
g3
S'Macklemore'
p62
sg5
I5
sg6
S'https://open.spotify.com/track/0RYXEibxMami3QuT8kn4Iz'
p63
sg8
S'Marmalade (feat. Lil Yachty)'
p64
ssS'5L56aF7d720ZaytO5UMEtb'
p65
(dp66
g3
S'187 Strassenbande'
p67
sg5
I1
sg6
S'https://open.spotify.com/track/5L56aF7d720ZaytO5UMEtb'
p68
sg8
S'Mit den Jungz'
p69
ssS'6LOCAhFzZiavHcLJucLuDy'
p70
(dp71
g3
S'DJ Khaled'
p72
sg5
I1
sg6
S'https://open.spotify.com/track/6LOCAhFzZiavHcLJucLuDy'
p73
sg8
S"Don't Quit"
p74
ssS'3QWjljChcOMkRDYSzF33Qr'
p75
(dp76
g3
S'Kiiara'
p77
sg5
I18
sg6
S'https://open.spotify.com/track/3QWjljChcOMkRDYSzF33Qr'
p78
sg8
S'Whippin (feat. Felix Snow)'
p79
ssS'0Uo2hBHCRCusSD3AOi82El'
p80
(dp81
g3
S'SpongeBOZZ'
p82
sg5
I1
sg6
S'https://open.spotify.com/track/0Uo2hBHCRCusSD3AOi82El'
p83
sg8
S'Centurion Card'
p84
ssS'0lLdorYw7lVrJydTINhWdI'
p85
(dp86
g3
S'Michael Bubl\xc3\xa9'
p87
sg5
I1
sg6
S'https://open.spotify.com/track/0lLdorYw7lVrJydTINhWdI'
p88
sg8
S"It's Beginning To Look A Lot Like Christmas"
p89
ssS'1OAh8uOEOvTDqkKFsKksCi'
p90
(dp91
g3
S'DJ Khaled'
p92
sg5
I17
sg6
S'https://open.spotify.com/track/1OAh8uOEOvTDqkKFsKksCi'
p93
sg8
S'Wild Thoughts'
p94
ssS'2aksifNn5ph8igDOkPBA02'
p95
(dp96
g3
S'Rihanna'
p97
sg5
I18
sg6
S'https://open.spotify.com/track/2aksifNn5ph8igDOkPBA02'
p98
sg8
S'Love On The Brain'
p99
ssS'6yf3MxEOScNBTYCHOAIiNQ'
p100
(dp101
g3
S'Jax Jones'
p102
sg5
I1
sg6
S'https://open.spotify.com/track/6yf3MxEOScNBTYCHOAIiNQ'
p103
sg8
S'Instruction (feat. Demi Lovato & Stefflon Don)'
p104
ssS'4b4KcovePX8Ke2cLIQTLM0'
p105
(dp106
g3
S'The Vamps'
p107
sg5
I3
sg6
S'https://open.spotify.com/track/4b4KcovePX8Ke2cLIQTLM0'
p108
sg8
S'All Night'
p109
ssS'2yJXqBEeO6n6PFV2vb80OA'
p110
(dp111
g3
S'Kontra K'
p112
sg5
I1
sg6
S'https://open.spotify.com/track/2yJXqBEeO6n6PFV2vb80OA'
p113
sg8
S'Kreis (feat. Bausa)'
p114
ssS'0CGFNKxoTUE4VIRHvqOQ11'
p115
(dp116
g3
S'Nimo'
p117
sg5
I2
sg6
S'https://open.spotify.com/track/0CGFNKxoTUE4VIRHvqOQ11'
p118
sg8
S'Michelangelo'
p119
ssS'0V9cosR5jWa4fr2koARmhD'
p120
(dp121
g3
S'ItaloBrothers'
p122
sg5
I5
sg6
S'https://open.spotify.com/track/0V9cosR5jWa4fr2koARmhD'
p123
sg8
S'Summer Air'
p124
ssS'7KcGEssn7BnJdTgildK5y0'
p125
(dp126
g3
S'Nicki Minaj'
p127
sg5
I1
sg6
S'https://open.spotify.com/track/7KcGEssn7BnJdTgildK5y0'
p128
sg8
S'No Frauds'
p129
ssS'1CnPYaKxTVb4LWOtiGOm0m'
p130
(dp131
g3
S'Jon Bellion'
p132
sg5
I34
sg6
S'https://open.spotify.com/track/1CnPYaKxTVb4LWOtiGOm0m'
p133
sg8
S'All Time Low'
p134
ssS'6jWw1CNK1lQ3gBbmV1slg4'
p135
(dp136
g3
S'Zuna'
p137
sg5
I1
sg6
S'https://open.spotify.com/track/6jWw1CNK1lQ3gBbmV1slg4'
p138
sg8
S'Cazal - Remix'
p139
ssS'0HKRKjQkOzZ4QoCvCXWyUy'
p140
(dp141
g3
S'Die Schwarzw\xc3\xa4lder Kirschtorten'
p142
sg5
I1
sg6
S'https://open.spotify.com/track/0HKRKjQkOzZ4QoCvCXWyUy'
p143
sg8
S'Gl\xc3\xbcck gehabt'
p144
ssS'78caEl4OqEJtKkuF1q164K'
p145
(dp146
g3
S'Cro'
p147
sg5
I2
sg6
S'https://open.spotify.com/track/78caEl4OqEJtKkuF1q164K'
p148
sg8
S'noch da'
p149
ssS'2cos0GoAP0LnQMoW9Goe2c'
p150
(dp151
g3
S'Mert'
p152
sg5
I1
sg6
S'https://open.spotify.com/track/2cos0GoAP0LnQMoW9Goe2c'
p153
sg8
S'Sie reden'
p154
ssS'152lZdxL1OR0ZMW6KquMif'
p155
(dp156
g3
S'Khalid'
p157
sg5
I19
sg6
S'https://open.spotify.com/track/152lZdxL1OR0ZMW6KquMif'
p158
sg8
S'Location'
p159
ssS'3oTNeTXw2gk2y6iLUrYPO9'
p160
(dp161
g3
S'Cro'
p162
sg5
I2
sg6
S'https://open.spotify.com/track/3oTNeTXw2gk2y6iLUrYPO9'
p163
sg8
S'tru'
p164
ssS'5MJP0TRQebWaV6KrXuwyfv'
p165
(dp166
g3
S'Band Aid 30'
p167
sg5
I1
sg6
S'https://open.spotify.com/track/5MJP0TRQebWaV6KrXuwyfv'
p168
sg8
S"Do They Know It's Christmas? - 2014"
p169
ssS'011NtiyI7P4xlIQHar3p9h'
p170
(dp171
g3
S'TJ_beastboy'
p172
sg5
I1
sg6
S'https://open.spotify.com/track/011NtiyI7P4xlIQHar3p9h'
p173
sg8
S'Modus'
p174
ssS'6hvtmAy3BrCyknp6hl8Eh9'
p175
(dp176
g3
S'Kontra K'
p177
sg5
I2
sg6
S'https://open.spotify.com/track/6hvtmAy3BrCyknp6hl8Eh9'
p178
sg8
S'2 Seelen'
p179
ssS'6c0I7CfL9ziGZN8yYkLppP'
p180
(dp181
g3
S'Linkin Park'
p182
sg5
I1
sg6
S'https://open.spotify.com/track/6c0I7CfL9ziGZN8yYkLppP'
p183
sg8
S'Sharp Edges'
p184
ssS'2FRnf9qhLbvw8fu4IBXx78'
p185
(dp186
g3
S'Wham!'
p187
sg5
I1
sg6
S'https://open.spotify.com/track/2FRnf9qhLbvw8fu4IBXx78'
p188
sg8
S'Last Christmas'
p189
ssS'7tr2za8SQg2CI8EDgrdtNl'
p190
(dp191
g3
S'Calvin Harris'
p192
sg5
I21
sg6
S'https://open.spotify.com/track/7tr2za8SQg2CI8EDgrdtNl'
p193
sg8
S'Slide'
p194
ssS'14OLkF8PnpsE7z9zt7FMu1'
p195
(dp196
g3
S'Maxwell'
p197
sg5
I15
sg6
S'https://open.spotify.com/track/14OLkF8PnpsE7z9zt7FMu1'
p198
sg8
S'Spielplatz'
p199
ssS'5iYe4mt1bf1KVzVM8EY6y8'
p200
(dp201
g3
S'Alligatoah'
p202
sg5
I3
sg6
S'https://open.spotify.com/track/5iYe4mt1bf1KVzVM8EY6y8'
p203
sg8
S'Du bist sch\xc3\xb6n'
p204
ssS'3AgiRs3oxc2dFh0CPUHXJs'
p205
(dp206
g3
S'Cliff Richard'
p207
sg5
I1
sg6
S'https://open.spotify.com/track/3AgiRs3oxc2dFh0CPUHXJs'
p208
sg8
S'Mistletoe and Wine'
p209
ssS'5jxMrs7HxSxUuB2oRy4Esh'
p210
(dp211
g3
S'Azad'
p212
sg5
I1
sg6
S'https://open.spotify.com/track/5jxMrs7HxSxUuB2oRy4Esh'
p213
sg8
S'Nach vorn'
p214
ssS'6eBA8O9zVo1IO1xywNY2Gi'
p215
(dp216
g3
S'Kurdo'
p217
sg5
I1
sg6
S'https://open.spotify.com/track/6eBA8O9zVo1IO1xywNY2Gi'
p218
sg8
S'Mike Tyson - Bonustrack'
p219
ssS'4mtSXHHBvbl6CKfLKEStWy'
p220
(dp221
g3
S'Trettmann'
p222
sg5
I2
sg6
S'https://open.spotify.com/track/4mtSXHHBvbl6CKfLKEStWy'
p223
sg8
S'Billie Holiday'
p224
ssS'7eINNUMHd6YAPldsUlCz9q'
p225
(dp226
g3
S'257ers'
p227
sg5
I12
sg6
S'https://open.spotify.com/track/7eINNUMHd6YAPldsUlCz9q'
p228
sg8
S'Holz'
p229
ssS'4pLwZjInHj3SimIyN9SnOz'
p230
(dp231
g3
S'Ariana Grande'
p232
sg5
I15
sg6
S'https://open.spotify.com/track/4pLwZjInHj3SimIyN9SnOz'
p233
sg8
S'Side To Side'
p234
ssS'6C7RJEIUDqKkJRZVWdkfkH'
p235
(dp236
g3
S'Kanye West'
p237
sg5
I6
sg6
S'https://open.spotify.com/track/6C7RJEIUDqKkJRZVWdkfkH'
p238
sg8
S'Stronger'
p239
ssS'6jgmmtRaR1s5WpV6zHFYyo'
p240
(dp241
g3
S'RAF Camora'
p242
sg5
I2
sg6
S'https://open.spotify.com/track/6jgmmtRaR1s5WpV6zHFYyo'
p243
sg8
S'Teflon'
p244
ssS'3E2Zh20GDCR9B1EYjfXWyv'
p245
(dp246
g3
S'AJR'
p247
sg5
I39
sg6
S'https://open.spotify.com/track/3E2Zh20GDCR9B1EYjfXWyv'
p248
sg8
S'Weak'
p249
ssS'2Gl0FzuLxflY6nPifJp5Dr'
p250
(dp251
g3
S'Kygo'
p252
sg5
I22
sg6
S'https://open.spotify.com/track/2Gl0FzuLxflY6nPifJp5Dr'
p253
sg8
S'First Time'
p254
ssS'4M3xIXqnGGmiXkcNTi3HGw'
p255
(dp256
g3
S'Maxwell'
p257
sg5
I1
sg6
S'https://open.spotify.com/track/4M3xIXqnGGmiXkcNTi3HGw'
p258
sg8
S'1ne Million'
p259
ssS'4UAq2nfDd4RIn7KEypPV8o'
p260
(dp261
g3
S'Ufo361'
p262
sg5
I1
sg6
S'https://open.spotify.com/track/4UAq2nfDd4RIn7KEypPV8o'
p263
sg8
S'Gott sei dank'
p264
ssS'3rJiFJImuDB1FvC1RXdth6'
p265
(dp266
g3
S'Kollegah'
p267
sg5
I5
sg6
S'https://open.spotify.com/track/3rJiFJImuDB1FvC1RXdth6'
p268
sg8
S'Legacy'
p269
ssS'3nFM3j0EqV4hSExGRJRblL'
p270
(dp271
g3
S'Metrickz'
p272
sg5
I4
sg6
S'https://open.spotify.com/track/3nFM3j0EqV4hSExGRJRblL'
p273
sg8
S'WEIHRAUCH'
p274
ssS'1KvyBpAxgllKW7bQb0GYCR'
p275
(dp276
g3
S'Linkin Park'
p277
sg5
I1
sg6
S'https://open.spotify.com/track/1KvyBpAxgllKW7bQb0GYCR'
p278
sg8
S'Halfway Right'
p279
ssS'4OovpIvpP2qoNFk9xw84iC'
p280
(dp281
g3
S'Kraftklub'
p282
sg5
I1
sg6
S'https://open.spotify.com/track/4OovpIvpP2qoNFk9xw84iC'
p283
sg8
S'Hausverbot (Chrom & Schwarz)'
p284
ssS'4vbJFkIF8TFCOwqZRI5C2Q'
p285
(dp286
g3
S'Bushido'
p287
sg5
I3
sg6
S'https://open.spotify.com/track/4vbJFkIF8TFCOwqZRI5C2Q'
p288
sg8
S'CCNDNA'
p289
ssS'4Km5HrUvYTaSUfiSGPJeQR'
p290
(dp291
g3
S'Migos'
p292
sg5
I22
sg6
S'https://open.spotify.com/track/4Km5HrUvYTaSUfiSGPJeQR'
p293
sg8
S'Bad and Boujee (feat. Lil Uzi Vert)'
p294
ssS'2RttW7RAu5nOAfq6YFvApB'
p295
(dp296
g3
S'Ed Sheeran'
p297
sg5
I12
sg6
S'https://open.spotify.com/track/2RttW7RAu5nOAfq6YFvApB'
p298
sg8
S'Happier'
p299
ssS'26haJjtanhamtf25RXH0MO'
p300
(dp301
g3
S'Martin Solveig'
p302
sg5
I1
sg6
S'https://open.spotify.com/track/26haJjtanhamtf25RXH0MO'
p303
sg8
S'All Stars'
p304
ssS'5LYQSNHZxEA880URXFHg6h'
p305
(dp306
g3
S'Lana Del Rey'
p307
sg5
I2
sg6
S'https://open.spotify.com/track/5LYQSNHZxEA880URXFHg6h'
p308
sg8
S'Lust for Life (with The Weeknd)'
p309
ssS'3EmmCZoqpWOTY1g2GBwJoR'
p310
(dp311
g3
S'Steve Aoki'
p312
sg5
I24
sg6
S'https://open.spotify.com/track/3EmmCZoqpWOTY1g2GBwJoR'
p313
sg8
S'Just Hold On'
p314
ssS'3Htz83JjUVxDnhQ8MPknnt'
p315
(dp316
g3
S'Neele Ternes'
p317
sg5
I1
sg6
S'https://open.spotify.com/track/3Htz83JjUVxDnhQ8MPknnt'
p318
sg8
S'Dad - #heimkommen'
p319
ssS'63JtyRFsZqi6Rf61T48YRJ'
p320
(dp321
g3
S'Capital Bra'
p322
sg5
I13
sg6
S'https://open.spotify.com/track/63JtyRFsZqi6Rf61T48YRJ'
p323
sg8
S'Nur noch Gucci'
p324
ssS'2XqwsCjZVGd0UqiEk64vVW'
p325
(dp326
g3
S'KC Rebell'
p327
sg5
I1
sg6
S'https://open.spotify.com/track/2XqwsCjZVGd0UqiEk64vVW'
p328
sg8
S'Leer'
p329
ssS'3Ex4kKTk1Xz09olihl9E2w'
p330
(dp331
g3
S'KC Rebell'
p332
sg5
I3
sg6
S'https://open.spotify.com/track/3Ex4kKTk1Xz09olihl9E2w'
p333
sg8
S'Ich brauch Dich'
p334
ssS'2oW8pBaoHKnG2zf7auryUH'
p335
(dp336
g3
S'Azet'
p337
sg5
I16
sg6
S'https://open.spotify.com/track/2oW8pBaoHKnG2zf7auryUH'
p338
sg8
S'Fast Life'
p339
ssS'0aIhlYp18RtshhAwIHwxKw'
p340
(dp341
g3
S'Majoe'
p342
sg5
I5
sg6
S'https://open.spotify.com/track/0aIhlYp18RtshhAwIHwxKw'
p343
sg8
S'Silberner Ferrari (feat. Farid Bang)'
p344
ssS'3823DOqLpaYkxDiBrjznTp'
p345
(dp346
g3
S'RAF Camora'
p347
sg5
I2
sg6
S'https://open.spotify.com/track/3823DOqLpaYkxDiBrjznTp'
p348
sg8
S'Money'
p349
ssS'0P7CwiO5v0qVCKqYPrc8q2'
p350
(dp351
g3
S'DAT ADAM'
p352
sg5
I1
sg6
S'https://open.spotify.com/track/0P7CwiO5v0qVCKqYPrc8q2'
p353
sg8
S'xD'
p354
ssS'5eqK0tbzUPo2SoeZsov04s'
p355
(dp356
g3
S'21 Savage'
p357
sg5
I8
sg6
S'https://open.spotify.com/track/5eqK0tbzUPo2SoeZsov04s'
p358
sg8
S'Bank Account'
p359
ssS'0z0islLRHRDnx4Cy7Zu3Ru'
p360
(dp361
g3
S'RAF Camora'
p362
sg5
I2
sg6
S'https://open.spotify.com/track/0z0islLRHRDnx4Cy7Zu3Ru'
p363
sg8
S'Luft'
p364
ssS'54LGxQGf5LPXNGjtzDZ5IE'
p365
(dp366
g3
S'Zara Larsson'
p367
sg5
I2
sg6
S'https://open.spotify.com/track/54LGxQGf5LPXNGjtzDZ5IE'
p368
sg8
S'So Good'
p369
ssS'7nEWnNn1mz68ufoHwSWzDi'
p370
(dp371
g3
S'Savas'
p372
sg5
I1
sg6
S'https://open.spotify.com/track/7nEWnNn1mz68ufoHwSWzDi'
p373
sg8
S'Haste nich gesehen'
p374
ssS'4iYRa2btalAzPZoSYfROqF'
p375
(dp376
g3
S'Kendrick Lamar'
p377
sg5
I2
sg6
S'https://open.spotify.com/track/4iYRa2btalAzPZoSYfROqF'
p378
sg8
S'XXX. FEAT. U2.'
p379
ssS'58ob6KTG1rNOgEV5Yize47'
p380
(dp381
g3
S'Estikay'
p382
sg5
I1
sg6
S'https://open.spotify.com/track/58ob6KTG1rNOgEV5Yize47'
p383
sg8
S'Die Jungs dabei'
p384
ssS'3BJ8kqcOF5fk2uTzoCmXme'
p385
(dp386
g3
S'Capital Bra'
p387
sg5
I1
sg6
S'https://open.spotify.com/track/3BJ8kqcOF5fk2uTzoCmXme'
p388
sg8
S'Mama bitte wein nicht'
p389
ssS'1w7VLLyAq8ZTMHU0niW5mU'
p390
(dp391
g3
S'Beginner'
p392
sg5
I7
sg6
S'https://open.spotify.com/track/1w7VLLyAq8ZTMHU0niW5mU'
p393
sg8
S'Meine Posse'
p394
ssS'00vk0sEfb6mr2ehwSw0Uhn'
p395
(dp396
g3
S'Imany'
p397
sg5
I14
sg6
S'https://open.spotify.com/track/00vk0sEfb6mr2ehwSw0Uhn'
p398
sg8
S"Don't Be So Shy - Filatov & Karas Remix"
p399
ssS'4w5lLpNddC9X05bBxddqFT'
p400
(dp401
g3
S'187 Strassenbande'
p402
sg5
I6
sg6
S'https://open.spotify.com/track/4w5lLpNddC9X05bBxddqFT'
p403
sg8
S'Ballermann'
p404
ssS'3DtkCLCnmm8TvoqyzJc8Du'
p405
(dp406
g3
S'Nimo'
p407
sg5
I1
sg6
S'https://open.spotify.com/track/3DtkCLCnmm8TvoqyzJc8Du'
p408
sg8
S'Rettung naht'
p409
ssS'1bovaccI49Bqbu6TfU8zbL'
p410
(dp411
g3
S'RAF Camora'
p412
sg5
I3
sg6
S'https://open.spotify.com/track/1bovaccI49Bqbu6TfU8zbL'
p413
sg8
S'Augenblick'
p414
ssS'3KIojVo2dIYpClKTlAiLjA'
p415
(dp416
g3
S'Zuna'
p417
sg5
I2
sg6
S'https://open.spotify.com/track/3KIojVo2dIYpClKTlAiLjA'
p418
sg8
S'Czech Republic'
p419
ssS'7L673Cv2lzQJkG4eyqjG0Q'
p420
(dp421
g3
S'Hurts'
p422
sg5
I1
sg6
S'https://open.spotify.com/track/7L673Cv2lzQJkG4eyqjG0Q'
p423
sg8
S"All I Want for Christmas Is New Year's Day"
p424
ssS'29yq92zXs0dDb9gelBCSjc'
p425
(dp426
g3
S'Capital Bra'
p427
sg5
I2
sg6
S'https://open.spotify.com/track/29yq92zXs0dDb9gelBCSjc'
p428
sg8
S'Wie alles begann'
p429
ssS'1hy6kKvsPbv7VTcllCuATC'
p430
(dp431
g3
S'Meghan Trainor'
p432
sg5
I1
sg6
S'https://open.spotify.com/track/1hy6kKvsPbv7VTcllCuATC'
p433
sg8
S"I'll Be Home"
p434
ssS'0dZrSYAOc9PNkzT6uqCjb2'
p435
(dp436
g3
S'Capo'
p437
sg5
I1
sg6
S'https://open.spotify.com/track/0dZrSYAOc9PNkzT6uqCjb2'
p438
sg8
S'Genauso wie immer'
p439
ssS'07KbI05QnjX8IbDBDRySxR'
p440
(dp441
g3
S'Marteria'
p442
sg5
I15
sg6
S'https://open.spotify.com/track/07KbI05QnjX8IbDBDRySxR'
p443
sg8
S'Aliens'
p444
ssS'6bi86Zwk21G2n3bn7we0s8'
p445
(dp446
g3
S'Savas'
p447
sg5
I1
sg6
S'https://open.spotify.com/track/6bi86Zwk21G2n3bn7we0s8'
p448
sg8
S'Meine Pflicht'
p449
ssS'1D3ODoXHBLpdxolZRHWV1j'
p450
(dp451
g3
S'Jonas Blue'
p452
sg5
I17
sg6
S'https://open.spotify.com/track/1D3ODoXHBLpdxolZRHWV1j'
p453
sg8
S'By Your Side'
p454
ssS'0iyrGs4yXc2lWQCqCgCx0C'
p455
(dp456
g3
S'The Drifters'
p457
sg5
I1
sg6
S'https://open.spotify.com/track/0iyrGs4yXc2lWQCqCgCx0C'
p458
sg8
S'White Christmas'
p459
ssS'6ZyLo7sln0QFP7YXqgXCU8'
p460
(dp461
g3
S'Nimo'
p462
sg5
I17
sg6
S'https://open.spotify.com/track/6ZyLo7sln0QFP7YXqgXCU8'
p463
sg8
S'Wie Falco'
p464
ssS'5c4tB0saSkNHX5CyDosuF7'
p465
(dp466
g3
S'Burak Yeter'
p467
sg5
I2
sg6
S'https://open.spotify.com/track/5c4tB0saSkNHX5CyDosuF7'
p468
sg8
S'Tuesday'
p469
ssS'0KKkJNfGyhkQ5aFogxQAPU'
p470
(dp471
g3
S'Bruno Mars'
p472
sg5
I27
sg6
S'https://open.spotify.com/track/0KKkJNfGyhkQ5aFogxQAPU'
p473
sg8
S"That's What I Like"
p474
ssS'1bA2ZK7CFxEMnyn1dWP2jp'
p475
(dp476
g3
S'Bakermat'
p477
sg5
I3
sg6
S'https://open.spotify.com/track/1bA2ZK7CFxEMnyn1dWP2jp'
p478
sg8
S'Baby'
p479
ssS'042x9bsUBWW2fJgJ6fUh61'
p480
(dp481
g3
S'DVBBS'
p482
sg5
I6
sg6
S'https://open.spotify.com/track/042x9bsUBWW2fJgJ6fUh61'
p483
sg8
S'Not Going Home'
p484
ssS'5UCsGZSezdlGA1bY3QMgXG'
p485
(dp486
g3
S'The xx'
p487
sg5
I1
sg6
S'https://open.spotify.com/track/5UCsGZSezdlGA1bY3QMgXG'
p488
sg8
S'Performance'
p489
ssS'6yxQYuItvkkjEDGvORwzeD'
p490
(dp491
g3
S'Stereoact'
p492
sg5
I7
sg6
S'https://open.spotify.com/track/6yxQYuItvkkjEDGvORwzeD'
p493
sg8
S'Nummer Eins'
p494
ssS'7bsnTsbiwOymZWjPF9v6Di'
p495
(dp496
g3
S'Macklemore'
p497
sg5
I1
sg6
S'https://open.spotify.com/track/7bsnTsbiwOymZWjPF9v6Di'
p498
sg8
S'Marmalade (feat. Lil Yachty)'
p499
ssS'0mel2N9Ws9r4yLQn5QE21Y'
p500
(dp501
g3
S'Sam Smith'
p502
sg5
I5
sg6
S'https://open.spotify.com/track/0mel2N9Ws9r4yLQn5QE21Y'
p503
sg8
S'Too Good At Goodbyes'
p504
ssS'4OcGetM9sJWVgjC0Vdk35e'
p505
(dp506
g3
S'KALIM'
p507
sg5
I1
sg6
S'https://open.spotify.com/track/4OcGetM9sJWVgjC0Vdk35e'
p508
sg8
S'6LITA'
p509
ssS'0NyOeqzqjVM9j7IuWp2oJ6'
p510
(dp511
g3
S'Gryffin'
p512
sg5
I3
sg6
S'https://open.spotify.com/track/0NyOeqzqjVM9j7IuWp2oJ6'
p513
sg8
S'Feel Good (feat. Daya)'
p514
ssS'1NEzXSTn4GqgCaHKWOAeyU'
p515
(dp516
g3
S'Majoe'
p517
sg5
I1
sg6
S'https://open.spotify.com/track/1NEzXSTn4GqgCaHKWOAeyU'
p518
sg8
S'Auge des Tigers'
p519
ssS'3mRcWCyteY2133a7xVMrYw'
p520
(dp521
g3
S'Future'
p522
sg5
I1
sg6
S'https://open.spotify.com/track/3mRcWCyteY2133a7xVMrYw'
p523
sg8
S'Comin Out Strong'
p524
ssS'0xG0SHshCStMEyNbNC5d4k'
p525
(dp526
g3
S'Julia Michaels'
p527
sg5
I5
sg6
S'https://open.spotify.com/track/0xG0SHshCStMEyNbNC5d4k'
p528
sg8
S'Issues'
p529
ssS'3zJw3rugfpVrmBeDDnUYzy'
p530
(dp531
g3
S'John Lennon'
p532
sg5
I1
sg6
S'https://open.spotify.com/track/3zJw3rugfpVrmBeDDnUYzy'
p533
sg8
S'Happy Xmas (War Is Over) - 2010 Digital Remaster'
p534
ssS'4uZoLmUmRryc2h7l1TNOie'
p535
(dp536
g3
S'Capital Bra'
p537
sg5
I1
sg6
S'https://open.spotify.com/track/4uZoLmUmRryc2h7l1TNOie'
p538
sg8
S'Albtraum'
p539
ssS'1a5Yu5L18qNxVhXx38njON'
p540
(dp541
g3
S'Alok'
p542
sg5
I20
sg6
S'https://open.spotify.com/track/1a5Yu5L18qNxVhXx38njON'
p543
sg8
S'Hear Me Now'
p544
ssS'7wGoVu4Dady5GV0Sv4UIsx'
p545
(dp546
g3
S'Post Malone'
p547
sg5
I1
sg6
S'https://open.spotify.com/track/7wGoVu4Dady5GV0Sv4UIsx'
p548
sg8
S'rockstar'
p549
ssS'1Eck97uRMlprKOOJN9oO1E'
p550
(dp551
g3
S'G-Eazy'
p552
sg5
I21
sg6
S'https://open.spotify.com/track/1Eck97uRMlprKOOJN9oO1E'
p553
sg8
S'Good Life (with G-Eazy & Kehlani)'
p554
ssS'2AEfcKvSCL9rIVfHq7yuW5'
p555
(dp556
g3
S'Kontra K'
p557
sg5
I1
sg6
S'https://open.spotify.com/track/2AEfcKvSCL9rIVfHq7yuW5'
p558
sg8
S'Einfach'
p559
ssS'2ekn2ttSfGqwhhate0LSR0'
p560
(dp561
g3
S'Dua Lipa'
p562
sg5
I12
sg6
S'https://open.spotify.com/track/2ekn2ttSfGqwhhate0LSR0'
p563
sg8
S'New Rules'
p564
ssS'0y1QJc3SJVPKJ1OvFmFqe6'
p565
(dp566
g3
S'Kaleo'
p567
sg5
I25
sg6
S'https://open.spotify.com/track/0y1QJc3SJVPKJ1OvFmFqe6'
p568
sg8
S'Way Down We Go'
p569
ssS'2dfqS3MRtbLZSZA1IL8xY5'
p570
(dp571
g3
S'Drake'
p572
sg5
I1
sg6
S'https://open.spotify.com/track/2dfqS3MRtbLZSZA1IL8xY5'
p573
sg8
S'Skepta Interlude'
p574
ssS'1sCxVKWImDZSZKvG0U9B23'
p575
(dp576
g3
S'Selena Gomez'
p577
sg5
I12
sg6
S'https://open.spotify.com/track/1sCxVKWImDZSZKvG0U9B23'
p578
sg8
S'Bad Liar'
p579
ssS'6jmngk8Fwup05JZ6kgXEGX'
p580
(dp581
g3
S'Imagine Dragons'
p582
sg5
I1
sg6
S'https://open.spotify.com/track/6jmngk8Fwup05JZ6kgXEGX'
p583
sg8
S'Walking The Wire'
p584
ssS'0fIHZ5zjqKVdjzfGayHAHg'
p585
(dp586
g3
S'Ufo361'
p587
sg5
I4
sg6
S'https://open.spotify.com/track/0fIHZ5zjqKVdjzfGayHAHg'
p588
sg8
S'James Dean'
p589
ssS'6V9kwssTrwkKT72imgowj9'
p590
(dp591
g3
S'The Chainsmokers'
p592
sg5
I1
sg6
S'https://open.spotify.com/track/6V9kwssTrwkKT72imgowj9'
p593
sg8
S'My Type'
p594
ssS'0ADG9OgdVTL7fgREP75BrZ'
p595
(dp596
g3
S'Zara Larsson'
p597
sg5
I9
sg6
S'https://open.spotify.com/track/0ADG9OgdVTL7fgREP75BrZ'
p598
sg8
S"Ain't My Fault"
p599
ssS'6JltcNxVQ1xl0LT6NTXjb3'
p600
(dp601
g3
S'RAF Camora'
p602
sg5
I4
sg6
S'https://open.spotify.com/track/6JltcNxVQ1xl0LT6NTXjb3'
p603
sg8
S'Entertainment'
p604
ssS'0oq3HqazmZgAjs4UTCqeTz'
p605
(dp606
g3
S'Gzuz'
p607
sg5
I3
sg6
S'https://open.spotify.com/track/0oq3HqazmZgAjs4UTCqeTz'
p608
sg8
S'CL500'
p609
ssS'7G7xvFVMNFpCo3c3CF6km8'
p610
(dp611
g3
S'Capo'
p612
sg5
I13
sg6
S'https://open.spotify.com/track/7G7xvFVMNFpCo3c3CF6km8'
p613
sg8
S'Alles auf Rot'
p614
ssS'1yrB9jNM6UrvSYqWNjN1iQ'
p615
(dp616
g3
S'Kraftklub'
p617
sg5
I1
sg6
S'https://open.spotify.com/track/1yrB9jNM6UrvSYqWNjN1iQ'
p618
sg8
S'Venus'
p619
ssS'2pXySkZUGu0rdLH1bAvSLS'
p620
(dp621
g3
S'RAF Camora'
p622
sg5
I1
sg6
S'https://open.spotify.com/track/2pXySkZUGu0rdLH1bAvSLS'
p623
sg8
S'Primo'
p624
ssS'7qkQWOefihh3sQNb5vO93e'
p625
(dp626
g3
S'Kraftklub'
p627
sg5
I2
sg6
S'https://open.spotify.com/track/7qkQWOefihh3sQNb5vO93e'
p628
sg8
S'Fenster'
p629
ssS'7vAXN57IQ0sj049wZGIboE'
p630
(dp631
g3
S'Imagine Dragons'
p632
sg5
I1
sg6
S'https://open.spotify.com/track/7vAXN57IQ0sj049wZGIboE'
p633
sg8
S'Rise Up'
p634
ssS'4hiUYb2nb6NlfTP9CD38Pe'
p635
(dp636
g3
S'Ti\xc3\xabsto'
p637
sg5
I1
sg6
S'https://open.spotify.com/track/4hiUYb2nb6NlfTP9CD38Pe'
p638
sg8
S'On My Way'
p639
ssS'3TRFq09DUgYj1mug6RRqJW'
p640
(dp641
g3
S'Luke Christopher'
p642
sg5
I28
sg6
S'https://open.spotify.com/track/3TRFq09DUgYj1mug6RRqJW'
p643
sg8
S'Lot to Learn'
p644
ssS'6s2wpWPFPAgKg2LXxi1Oee'
p645
(dp646
g3
S'Bruce Springsteen'
p647
sg5
I1
sg6
S'https://open.spotify.com/track/6s2wpWPFPAgKg2LXxi1Oee'
p648
sg8
S"Santa Claus Is Comin' to Town - Single Version"
p649
ssS'6O6M7pJLABmfBRoGZMu76Y'
p650
(dp651
g3
S'The Chainsmokers'
p652
sg5
I1
sg6
S'https://open.spotify.com/track/6O6M7pJLABmfBRoGZMu76Y'
p653
sg8
S'Roses'
p654
ssS'1rIKgCH4H52lrvDcz50hS8'
p655
(dp656
g3
S'Zara Larsson'
p657
sg5
I4
sg6
S'https://open.spotify.com/track/1rIKgCH4H52lrvDcz50hS8'
p658
sg8
S'Lush Life'
p659
ssS'01dCuK62A6QZ8L9ONTyMVo'
p660
(dp661
g3
S'Bonez MC'
p662
sg5
I7
sg6
S'https://open.spotify.com/track/01dCuK62A6QZ8L9ONTyMVo'
p663
sg8
S'Lebenslauf'
p664
ssS'76gUmNLXGQVOsGhfcshkFP'
p665
(dp666
g3
S'Drake'
p667
sg5
I2
sg6
S'https://open.spotify.com/track/76gUmNLXGQVOsGhfcshkFP'
p668
sg8
S'Madiba Riddim'
p669
ssS'7ckGvAoSg8oq85I8owLVSZ'
p670
(dp671
g3
S'Bonez MC'
p672
sg5
I6
sg6
S'https://open.spotify.com/track/7ckGvAoSg8oq85I8owLVSZ'
p673
sg8
S'Ruhe nach dem Sturm'
p674
ssS'6gBFPUFcJLzWGx4lenP6h2'
p675
(dp676
g3
S'Travis Scott'
p677
sg5
I7
sg6
S'https://open.spotify.com/track/6gBFPUFcJLzWGx4lenP6h2'
p678
sg8
S'goosebumps'
p679
ssS'3EfugazgSddQvzZpkof5I4'
p680
(dp681
g3
S'Anne-Marie'
p682
sg5
I26
sg6
S'https://open.spotify.com/track/3EfugazgSddQvzZpkof5I4'
p683
sg8
S'Ciao Adios'
p684
ssS'4WrS6vezaPwOafKJmHqMEU'
p685
(dp686
g3
S'Jax Jones'
p687
sg5
I1
sg6
S'https://open.spotify.com/track/4WrS6vezaPwOafKJmHqMEU'
p688
sg8
S"You Don't Know Me - Radio Edit"
p689
ssS'70r8dhKyITz4kzvU5SRa0m'
p690
(dp691
g3
S'Eno'
p692
sg5
I1
sg6
S'https://open.spotify.com/track/70r8dhKyITz4kzvU5SRa0m'
p693
sg8
S'Million'
p694
ssS'3xZAsF5FS5WgT4UDFXYJxx'
p695
(dp696
g3
S'Capital Bra'
p697
sg5
I2
sg6
S'https://open.spotify.com/track/3xZAsF5FS5WgT4UDFXYJxx'
p698
sg8
S'Na Na Na'
p699
ssS'1K1S6LwZc4BNvyoHGV9rAX'
p700
(dp701
g3
S'SpongeBOZZ'
p702
sg5
I1
sg6
S'https://open.spotify.com/track/1K1S6LwZc4BNvyoHGV9rAX'
p703
sg8
S'Rolex o. Handschelle'
p704
ssS'7129iqBafaphfc3WPCGC0L'
p705
(dp706
g3
S'Lukas Graham'
p707
sg5
I6
sg6
S'https://open.spotify.com/track/7129iqBafaphfc3WPCGC0L'
p708
sg8
S'7 Years'
p709
ssS'4WjH9Bzt3kx7z8kl0awxh4'
p710
(dp711
g3
S'Major Lazer'
p712
sg5
I1
sg6
S'https://open.spotify.com/track/4WjH9Bzt3kx7z8kl0awxh4'
p713
sg8
S'Lean On (feat. M\xc3\x98 & DJ Snake)'
p714
ssS'57p8CBvPOxrvyCbn6ttl5r'
p715
(dp716
g3
S'Skrillex'
p717
sg5
I11
sg6
S'https://open.spotify.com/track/57p8CBvPOxrvyCbn6ttl5r'
p718
sg8
S'Would You Ever'
p719
ssS'39S7yxVerin9vMLPsNqHZw'
p720
(dp721
g3
S'Savas'
p722
sg5
I1
sg6
S'https://open.spotify.com/track/39S7yxVerin9vMLPsNqHZw'
p723
sg8
S'Neue Welt'
p724
ssS'0CcQNd8CINkwQfe1RDtGV6'
p725
(dp726
g3
S'Imagine Dragons'
p727
sg5
I33
sg6
S'https://open.spotify.com/track/0CcQNd8CINkwQfe1RDtGV6'
p728
sg8
S'Believer'
p729
ssS'7oolFzHipTMg2nL7shhdz2'
p730
(dp731
g3
S'Ed Sheeran'
p732
sg5
I6
sg6
S'https://open.spotify.com/track/7oolFzHipTMg2nL7shhdz2'
p733
sg8
S'Eraser'
p734
ssS'4Bt3LBECwwPDNMjVKzcChv'
p735
(dp736
g3
S'SDP'
p737
sg5
I1
sg6
S'https://open.spotify.com/track/4Bt3LBECwwPDNMjVKzcChv'
p738
sg8
S'Zeit verschwenden'
p739
ssS'4Yf5bqU3NK4kNOypcrLYwU'
p740
(dp741
g3
S'Linkin Park'
p742
sg5
I1
sg6
S'https://open.spotify.com/track/4Yf5bqU3NK4kNOypcrLYwU'
p743
sg8
S'Faint'
p744
ssS'3W3vuTYWb5k8yNgrnYWJuf'
p745
(dp746
g3
S'Zuna'
p747
sg5
I17
sg6
S'https://open.spotify.com/track/3W3vuTYWb5k8yNgrnYWJuf'
p748
sg8
S'Baby'
p749
ssS'3B7udSGy2PfgoCniMSb523'
p750
(dp751
g3
S'Ed Sheeran'
p752
sg5
I10
sg6
S'https://open.spotify.com/track/3B7udSGy2PfgoCniMSb523'
p753
sg8
S'I See Fire'
p754
ssS'1EK5Z3jnZh1nHXPUXpaLhK'
p755
(dp756
g3
S'Kate Winslet'
p757
sg5
I1
sg6
S'https://open.spotify.com/track/1EK5Z3jnZh1nHXPUXpaLhK'
p758
sg8
S'What If'
p759
ssS'3NdDpSvN911VPGivFlV5d0'
p760
(dp761
g3
S'ZAYN'
p762
sg5
I40
sg6
S'https://open.spotify.com/track/3NdDpSvN911VPGivFlV5d0'
p763
sg8
S'I Don\xe2\x80\x99t Wanna Live Forever (Fifty Shades Darker) - From Fifty Shades Darker (Original Motion Picture Soundtrack)'
p764
ssS'45OfR7ugJMgbFDuNOVpIq3'
p765
(dp766
g3
S'Matoma'
p767
sg5
I1
sg6
S'https://open.spotify.com/track/45OfR7ugJMgbFDuNOVpIq3'
p768
sg8
S'Party On The West Coast (feat. Snoop Dogg)'
p769
ssS'6qA8rvvkzR3z38X3FoeX32'
p770
(dp771
g3
S'Mert'
p772
sg5
I3
sg6
S'https://open.spotify.com/track/6qA8rvvkzR3z38X3FoeX32'
p773
sg8
S'Liebe hei\xc3\x9ft'
p774
ssS'37F0uwRSrdzkBiuj0D5UHI'
p775
(dp776
g3
S'The Weeknd'
p777
sg5
I1
sg6
S'https://open.spotify.com/track/37F0uwRSrdzkBiuj0D5UHI'
p778
sg8
S'Reminder'
p779
ssS'1Y2xhmffUWAMHdbtJAoo8p'
p780
(dp781
g3
S'Trettmann'
p782
sg5
I2
sg6
S'https://open.spotify.com/track/1Y2xhmffUWAMHdbtJAoo8p'
p783
sg8
S'Grauer Beton'
p784
ssS'1wC93sZRGcTgKLN2UWRSwW'
p785
(dp786
g3
S'Lorde'
p787
sg5
I1
sg6
S'https://open.spotify.com/track/1wC93sZRGcTgKLN2UWRSwW'
p788
sg8
S'Perfect Places'
p789
ssS'5WNyFshX1L7f9PDvtBLl78'
p790
(dp791
g3
S'Capo'
p792
sg5
I8
sg6
S'https://open.spotify.com/track/5WNyFshX1L7f9PDvtBLl78'
p793
sg8
S'Mainhattan City Gang'
p794
ssS'0gb1J5UrTpzaU1s3nupgCd'
p795
(dp796
g3
S'Galantis'
p797
sg5
I7
sg6
S'https://open.spotify.com/track/0gb1J5UrTpzaU1s3nupgCd'
p798
sg8
S'No Money'
p799
ssS'6uNFvdRGAtUuVIP6IOMlRs'
p800
(dp801
g3
S'Naaz'
p802
sg5
I4
sg6
S'https://open.spotify.com/track/6uNFvdRGAtUuVIP6IOMlRs'
p803
sg8
S'Words'
p804
ssS'1UZOjK1BwmwWU14Erba9CZ'
p805
(dp806
g3
S'Miley Cyrus'
p807
sg5
I1
sg6
S'https://open.spotify.com/track/1UZOjK1BwmwWU14Erba9CZ'
p808
sg8
S'Malibu'
p809
ssS'1iTKkkgXj8kJkGdjGGBFqL'
p810
(dp811
g3
S'Fake Pictures'
p812
sg5
I30
sg6
S'https://open.spotify.com/track/1iTKkkgXj8kJkGdjGGBFqL'
p813
sg8
S'Two Princes - Radio Mix'
p814
ssS'3PAI7PCFpBfTOPnGRisqWq'
p815
(dp816
g3
S'Marteria'
p817
sg5
I1
sg6
S'https://open.spotify.com/track/3PAI7PCFpBfTOPnGRisqWq'
p818
sg8
S'Blue Marlin'
p819
ssS'6rQxI9E91vFj8oO9Fnct27'
p820
(dp821
g3
S'Kurdo'
p822
sg5
I4
sg6
S'https://open.spotify.com/track/6rQxI9E91vFj8oO9Fnct27'
p823
sg8
S'Desert Eagle'
p824
ssS'2KklXplRtxMsBYo474Es0w'
p825
(dp826
g3
S'Ofenbach'
p827
sg5
I23
sg6
S'https://open.spotify.com/track/2KklXplRtxMsBYo474Es0w'
p828
sg8
S'Be Mine'
p829
ssS'6Na5uKk5SsqZimk0hAWo8y'
p830
(dp831
g3
S'Drake'
p832
sg5
I2
sg6
S'https://open.spotify.com/track/6Na5uKk5SsqZimk0hAWo8y'
p833
sg8
S'Signs'
p834
ssS'5v9N8Rx3QsFvr50cxyQcA3'
p835
(dp836
g3
S'Mura Masa'
p837
sg5
I21
sg6
S'https://open.spotify.com/track/5v9N8Rx3QsFvr50cxyQcA3'
p838
sg8
S'Love$ick'
p839
ssS'7Hz6LLOVxrojLPIHJJ1S0E'
p840
(dp841
g3
S'Sam Smith'
p842
sg5
I1
sg6
S'https://open.spotify.com/track/7Hz6LLOVxrojLPIHJJ1S0E'
p843
sg8
S'Have Yourself A Merry Little Christmas'
p844
ssS'3CRDbSIZ4r5MsZ0YwxuEkn'
p845
(dp846
g3
S'Twenty One Pilots'
p847
sg5
I17
sg6
S'https://open.spotify.com/track/3CRDbSIZ4r5MsZ0YwxuEkn'
p848
sg8
S'Stressed Out'
p849
ssS'0gbBzIqrECJOEPvQJIBFs5'
p850
(dp851
g3
S'Lorde'
p852
sg5
I15
sg6
S'https://open.spotify.com/track/0gbBzIqrECJOEPvQJIBFs5'
p853
sg8
S'Green Light'
p854
ssS'7y5chiQbuvviOYUfUmOPqo'
p855
(dp856
g3
S'RAF Camora'
p857
sg5
I7
sg6
S'https://open.spotify.com/track/7y5chiQbuvviOYUfUmOPqo'
p858
sg8
S'Primo'
p859
ssS'6hphlRTcnTJI8dUbJtN3Q2'
p860
(dp861
g3
S'RIN'
p862
sg5
I3
sg6
S'https://open.spotify.com/track/6hphlRTcnTJI8dUbJtN3Q2'
p863
sg8
S'Blackout'
p864
ssS'6mICuAdrwEjh6Y6lroV2Kg'
p865
(dp866
g3
S'Shakira'
p867
sg5
I30
sg6
S'https://open.spotify.com/track/6mICuAdrwEjh6Y6lroV2Kg'
p868
sg8
S'Chantaje'
p869
ssS'1dAazGFelwADy9weYTniuB'
p870
(dp871
g3
S'Maxwell'
p872
sg5
I8
sg6
S'https://open.spotify.com/track/1dAazGFelwADy9weYTniuB'
p873
sg8
S'100k'
p874
ssS'791yvyS64nKiOFtFxRPaqD'
p875
(dp876
g3
S'Prinz Pi'
p877
sg5
I3
sg6
S'https://open.spotify.com/track/791yvyS64nKiOFtFxRPaqD'
p878
sg8
S'Letzte Liebe'
p879
ssS'7tmIQWlTP3lqZbJkOJ1T0f'
p880
(dp881
g3
S'Marteria'
p882
sg5
I1
sg6
S'https://open.spotify.com/track/7tmIQWlTP3lqZbJkOJ1T0f'
p883
sg8
S'Gro\xc3\x9fe Br\xc3\xbcder'
p884
ssS'7Is0OPWVcN8DdZpcNuClcy'
p885
(dp886
g3
S'Mahmut Orhan'
p887
sg5
I15
sg6
S'https://open.spotify.com/track/7Is0OPWVcN8DdZpcNuClcy'
p888
sg8
S'Feel - Radio Edit'
p889
ssS'6F609ICg9Spjrw1epsAnpa'
p890
(dp891
g3
S'Drake'
p892
sg5
I2
sg6
S'https://open.spotify.com/track/6F609ICg9Spjrw1epsAnpa'
p893
sg8
S'Controlla'
p894
ssS'11DDWc2hxWltUcKbYLG3CP'
p895
(dp896
g3
S'187 Strassenbande'
p897
sg5
I4
sg6
S'https://open.spotify.com/track/11DDWc2hxWltUcKbYLG3CP'
p898
sg8
S'International'
p899
ssS'1dD3FPQw7qLdlPh1g1ZKRS'
p900
(dp901
g3
S'Capital Bra'
p902
sg5
I8
sg6
S'https://open.spotify.com/track/1dD3FPQw7qLdlPh1g1ZKRS'
p903
sg8
S'Ghetto Massari'
p904
ssS'1WC5UN1U79gJlxGLYDGIO7'
p905
(dp906
g3
S'Lorde'
p907
sg5
I2
sg6
S'https://open.spotify.com/track/1WC5UN1U79gJlxGLYDGIO7'
p908
sg8
S'Green Light'
p909
ssS'7BWfZLcOLA3M78dbvU7Kig'
p910
(dp911
g3
S'Bushido'
p912
sg5
I2
sg6
S'https://open.spotify.com/track/7BWfZLcOLA3M78dbvU7Kig'
p913
sg8
S'Switch Stance'
p914
ssS'7gHs73wELdeycvS48JfIos'
p915
(dp916
g3
S'Alan Walker'
p917
sg5
I22
sg6
S'https://open.spotify.com/track/7gHs73wELdeycvS48JfIos'
p918
sg8
S'Faded'
p919
ssS'63CPMdu83Du2Y4x0AMxjg1'
p920
(dp921
g3
S'SpongeBOZZ'
p922
sg5
I1
sg6
S'https://open.spotify.com/track/63CPMdu83Du2Y4x0AMxjg1'
p923
sg8
S'Rhythm Is a Gangster'
p924
ssS'0w6O1J8NjXRgD2uWOIBBqT'
p925
(dp926
g3
S'Zuna'
p927
sg5
I16
sg6
S'https://open.spotify.com/track/0w6O1J8NjXRgD2uWOIBBqT'
p928
sg8
S'Cazal'
p929
ssS'12BTlaSwSGkH1bdgfwiv0l'
p930
(dp931
g3
S'Frankie Goes To Hollywood'
p932
sg5
I1
sg6
S'https://open.spotify.com/track/12BTlaSwSGkH1bdgfwiv0l'
p933
sg8
S'The Power of Love'
p934
ssS'6DYQQ1PND7pE9H10tf6js3'
p935
(dp936
g3
S'Metrickz'
p937
sg5
I1
sg6
S'https://open.spotify.com/track/6DYQQ1PND7pE9H10tf6js3'
p938
sg8
S'FOOTPRINTS'
p939
ssS'3e0mpxrpVrWj27EpEzs6ZV'
p940
(dp941
g3
S'Casper'
p942
sg5
I2
sg6
S'https://open.spotify.com/track/3e0mpxrpVrWj27EpEzs6ZV'
p943
sg8
S'Alles ist erleuchtet'
p944
ssS'00lNx0OcTJrS3MKHcB80HY'
p945
(dp946
g3
S'Jax Jones'
p947
sg5
I30
sg6
S'https://open.spotify.com/track/00lNx0OcTJrS3MKHcB80HY'
p948
sg8
S"You Don't Know Me - Radio Edit"
p949
ssS'2s76aKBWKShlwPC4xTtEEE'
p950
(dp951
g3
S'State of Sound'
p952
sg5
I1
sg6
S'https://open.spotify.com/track/2s76aKBWKShlwPC4xTtEEE'
p953
sg8
S'Wake Up Where You Are'
p954
ssS'3wSsfgSBG9IupP2rZTGkJY'
p955
(dp956
g3
S'Ufo361'
p957
sg5
I3
sg6
S'https://open.spotify.com/track/3wSsfgSBG9IupP2rZTGkJY'
p958
sg8
S'Luzifer'
p959
ssS'7HeXXrqr5WMYK6VaMNmvk7'
p960
(dp961
g3
S'Kontra K'
p962
sg5
I4
sg6
S'https://open.spotify.com/track/7HeXXrqr5WMYK6VaMNmvk7'
p963
sg8
S'Gute Nacht'
p964
ssS'1f3flfdU4VDM2OBDD2FMia'
p965
(dp966
g3
S'Alle Farben'
p967
sg5
I27
sg6
S'https://open.spotify.com/track/1f3flfdU4VDM2OBDD2FMia'
p968
sg8
S'Little Hollywood'
p969
ssS'2zjEMw9kkROEbAxIXk6Ivp'
p970
(dp971
g3
S'Linkin Park'
p972
sg5
I1
sg6
S'https://open.spotify.com/track/2zjEMw9kkROEbAxIXk6Ivp'
p973
sg8
S'Shadow Of The Day'
p974
ssS'6t2ubAB4iSYOuIpRAOGd4t'
p975
(dp976
g3
S'Flo Rida'
p977
sg5
I27
sg6
S'https://open.spotify.com/track/6t2ubAB4iSYOuIpRAOGd4t'
p978
sg8
S'Cake'
p979
ssS'4nDfc6F2uVcc6wdG7kBzWO'
p980
(dp981
g3
S'Nick Jonas'
p982
sg5
I4
sg6
S'https://open.spotify.com/track/4nDfc6F2uVcc6wdG7kBzWO'
p983
sg8
S'Bom Bidi Bom - From Fifty Shades Darker (Original Motion Picture Soundtrack)'
p984
ssS'7swthrCHKzd6Oik7eRtdsn'
p985
(dp986
g3
S'Kontra K'
p987
sg5
I1
sg6
S'https://open.spotify.com/track/7swthrCHKzd6Oik7eRtdsn'
p988
sg8
S'Wie du'
p989
ssS'0fg8CqpjdojMyXLNzM2PaJ'
p990
(dp991
g3
S'Major Lazer'
p992
sg5
I24
sg6
S'https://open.spotify.com/track/0fg8CqpjdojMyXLNzM2PaJ'
p993
sg8
S'Run Up (feat. PARTYNEXTDOOR & Nicki Minaj)'
p994
ssS'03MejMhKBHTeuvgiBTDUhL'
p995
(dp996
g3
S'Nimo'
p997
sg5
I1
sg6
S'https://open.spotify.com/track/03MejMhKBHTeuvgiBTDUhL'
p998
sg8
S'Heute mit mir'
p999
ssS'3umS4y3uQDkqekNjVpiRUs'
p1000
(dp1001
g3
S'Nicky Jam'
p1002
sg5
I13
sg6
S'https://open.spotify.com/track/3umS4y3uQDkqekNjVpiRUs'
p1003
sg8
S'El Amante'
p1004
ssS'7mdlZsVJD6HcPuwS3k7e68'
p1005
(dp1006
g3
S'Zuna'
p1007
sg5
I34
sg6
S'https://open.spotify.com/track/7mdlZsVJD6HcPuwS3k7e68'
p1008
sg8
S'Wieso?'
p1009
ssS'6uFsE1JgZ20EXyU0JQZbUR'
p1010
(dp1011
g3
S'Taylor Swift'
p1012
sg5
I7
sg6
S'https://open.spotify.com/track/6uFsE1JgZ20EXyU0JQZbUR'
p1013
sg8
S'Look What You Made Me Do'
p1014
ssS'5X5yoMWOcb7H0QZQfVZWqT'
p1015
(dp1016
g3
S'RAF Camora'
p1017
sg5
I1
sg6
S'https://open.spotify.com/track/5X5yoMWOcb7H0QZQfVZWqT'
p1018
sg8
S'In meiner Wolke'
p1019
ssS'5CPqOpKSk0QcJ3dGdaWcRB'
p1020
(dp1021
g3
S'The xx'
p1022
sg5
I2
sg6
S'https://open.spotify.com/track/5CPqOpKSk0QcJ3dGdaWcRB'
p1023
sg8
S'On Hold'
p1024
ssS'0L87MffumRNWrY2SNUFcvs'
p1025
(dp1026
g3
S'Milky Chance'
p1027
sg5
I18
sg6
S'https://open.spotify.com/track/0L87MffumRNWrY2SNUFcvs'
p1028
sg8
S'Cocoon'
p1029
ssS'4xBjsLUSjcx2h7PcRikpQp'
p1030
(dp1031
g3
S'Camila Cabello'
p1032
sg5
I1
sg6
S'https://open.spotify.com/track/4xBjsLUSjcx2h7PcRikpQp'
p1033
sg8
S'OMG'
p1034
ssS'49giQYEBwvO6qopcz7NJYn'
p1035
(dp1036
g3
S'Bausa'
p1037
sg5
I1
sg6
S'https://open.spotify.com/track/49giQYEBwvO6qopcz7NJYn'
p1038
sg8
S'Stripperin'
p1039
ssS'7GX5flRQZVHRAGd6B4TmDO'
p1040
(dp1041
g3
S'Lil Uzi Vert'
p1042
sg5
I7
sg6
S'https://open.spotify.com/track/7GX5flRQZVHRAGd6B4TmDO'
p1043
sg8
S'XO TOUR Llif3'
p1044
ssS'2a9yoHHUk5dRdq5GU8KvU2'
p1045
(dp1046
g3
S'Kollegah'
p1047
sg5
I3
sg6
S'https://open.spotify.com/track/2a9yoHHUk5dRdq5GU8KvU2'
p1048
sg8
S'American Express (feat. Farid Bang)'
p1049
ssS'3a0lTKu4ls7IsemVo8pvH5'
p1050
(dp1051
g3
S'RAF Camora'
p1052
sg5
I4
sg6
S'https://open.spotify.com/track/3a0lTKu4ls7IsemVo8pvH5'
p1053
sg8
S'Anthrazit'
p1054
ssS'4F7A0DXBrmUAkp32uenhZt'
p1055
(dp1056
g3
S'The Weeknd'
p1057
sg5
I12
sg6
S'https://open.spotify.com/track/4F7A0DXBrmUAkp32uenhZt'
p1058
sg8
S'Party Monster'
p1059
ssS'5hIR7SX1fSrr5evIAPDY5o'
p1060
(dp1061
g3
S'Lost Frequencies'
p1062
sg5
I8
sg6
S'https://open.spotify.com/track/5hIR7SX1fSrr5evIAPDY5o'
p1063
sg8
S'What Is Love 2016'
p1064
ssS'6vFR3EXsCZ8JurXwzlM8z7'
p1065
(dp1066
g3
S'Mert'
p1067
sg5
I7
sg6
S'https://open.spotify.com/track/6vFR3EXsCZ8JurXwzlM8z7'
p1068
sg8
S'Groupie'
p1069
ssS'0CokSRCu5hZgPxcZBaEzVE'
p1070
(dp1071
g3
S'Macklemore'
p1072
sg5
I3
sg6
S'https://open.spotify.com/track/0CokSRCu5hZgPxcZBaEzVE'
p1073
sg8
S'Glorious (feat. Skylar Grey)'
p1074
ssS'3sgGmPQD2J6aQduN36RDBO'
p1075
(dp1076
g3
S'Zuna'
p1077
sg5
I31
sg6
S'https://open.spotify.com/track/3sgGmPQD2J6aQduN36RDBO'
p1078
sg8
S'Nummer 1'
p1079
ssS'4nMlau89VAjmV7agkl7OY3'
p1080
(dp1081
g3
S'Andy Grammer'
p1082
sg5
I9
sg6
S'https://open.spotify.com/track/4nMlau89VAjmV7agkl7OY3'
p1083
sg8
S'Fresh Eyes'
p1084
ssS'4bHxXJnNRSMfc8z2lEIMRQ'
p1085
(dp1086
g3
S'KC Rebell'
p1087
sg5
I1
sg6
S'https://open.spotify.com/track/4bHxXJnNRSMfc8z2lEIMRQ'
p1088
sg8
S'Focus (feat. Hamza)'
p1089
ssS'3cIcZ9nBKNdDjyWVDoU1I6'
p1090
(dp1091
g3
S'Casper'
p1092
sg5
I2
sg6
S'https://open.spotify.com/track/3cIcZ9nBKNdDjyWVDoU1I6'
p1093
sg8
S'Keine Angst'
p1094
ssS'7dLyQvIUXCAIdk0ZiatE3y'
p1095
(dp1096
g3
S'Savas'
p1097
sg5
I2
sg6
S'https://open.spotify.com/track/7dLyQvIUXCAIdk0ZiatE3y'
p1098
sg8
S'Normale Leute'
p1099
ssS'75ZvA4QfFiZvzhj2xkaWAh'
p1100
(dp1101
g3
S'Post Malone'
p1102
sg5
I1
sg6
S'https://open.spotify.com/track/75ZvA4QfFiZvzhj2xkaWAh'
p1103
sg8
S'I Fall Apart'
p1104
ssS'5T8zcAE83vyffJ9JUzkZYx'
p1105
(dp1106
g3
S'Kay One'
p1107
sg5
I5
sg6
S'https://open.spotify.com/track/5T8zcAE83vyffJ9JUzkZYx'
p1108
sg8
S'Louis Louis'
p1109
ssS'1nTgtGpUoKpA97ZbgZPiZR'
p1110
(dp1111
g3
S'Charlie Cunningham'
p1112
sg5
I1
sg6
S'https://open.spotify.com/track/1nTgtGpUoKpA97ZbgZPiZR'
p1113
sg8
S'Minimum'
p1114
ssS'7BKLCZ1jbUBVqRi2FVlTVw'
p1115
(dp1116
g3
S'The Chainsmokers'
p1117
sg5
I36
sg6
S'https://open.spotify.com/track/7BKLCZ1jbUBVqRi2FVlTVw'
p1118
sg8
S'Closer'
p1119
ssS'7cfslWRjkI0WLbvkWmJdxb'
p1120
(dp1121
g3
S'KC Rebell'
p1122
sg5
I1
sg6
S'https://open.spotify.com/track/7cfslWRjkI0WLbvkWmJdxb'
p1123
sg8
S'So vieles noch vor - Bonustrack'
p1124
ssS'2TUcc3b5gFgq7oaRJfrVZd'
p1125
(dp1126
g3
S'187 Strassenbande'
p1127
sg5
I6
sg6
S'https://open.spotify.com/track/2TUcc3b5gFgq7oaRJfrVZd'
p1128
sg8
S'24/7'
p1129
ssS'7hDc8b7IXETo14hHIHdnhd'
p1130
(dp1131
g3
S'Drake'
p1132
sg5
I18
sg6
S'https://open.spotify.com/track/7hDc8b7IXETo14hHIHdnhd'
p1133
sg8
S'Passionfruit'
p1134
ssS'7nLE6jvwDdBlalOJRq6PBd'
p1135
(dp1136
g3
S'Capo'
p1137
sg5
I1
sg6
S'https://open.spotify.com/track/7nLE6jvwDdBlalOJRq6PBd'
p1138
sg8
S'Mond'
p1139
ssS'75o7z16lEhLQFk1B9GkbHG'
p1140
(dp1141
g3
S'Bushido'
p1142
sg5
I4
sg6
S'https://open.spotify.com/track/75o7z16lEhLQFk1B9GkbHG'
p1143
sg8
S'Black Friday'
p1144
ssS'0tICYNayWWhH9GPeFrfjfD'
p1145
(dp1146
g3
S'Kungs'
p1147
sg5
I20
sg6
S'https://open.spotify.com/track/0tICYNayWWhH9GPeFrfjfD'
p1148
sg8
S"This Girl (Kungs Vs. Cookin' On 3 Burners) - Kungs Vs. Cookin' On 3 Burners"
p1149
ssS'4BtGQ89Xgmf9NmnFD9RBRc'
p1150
(dp1151
g3
S'Capo'
p1152
sg5
I14
sg6
S'https://open.spotify.com/track/4BtGQ89Xgmf9NmnFD9RBRc'
p1153
sg8
S'Komm wir chillen (feat. Yonii & Bausa) - Bonustrack'
p1154
ssS'2LTlO3NuNVN70lp2ZbVswF'
p1155
(dp1156
g3
S'Kendrick Lamar'
p1157
sg5
I2
sg6
S'https://open.spotify.com/track/2LTlO3NuNVN70lp2ZbVswF'
p1158
sg8
S'FEEL.'
p1159
ssS'3JGE1pWIf4Z6JqjIz6f1F4'
p1160
(dp1161
g3
S'Casper'
p1162
sg5
I1
sg6
S'https://open.spotify.com/track/3JGE1pWIf4Z6JqjIz6f1F4'
p1163
sg8
S'Deborah'
p1164
ssS'2QQJG7R6sCCvZbCT5ZaG8a'
p1165
(dp1166
g3
S'TJ_beastboy'
p1167
sg5
I1
sg6
S'https://open.spotify.com/track/2QQJG7R6sCCvZbCT5ZaG8a'
p1168
sg8
S'9Leben'
p1169
ssS'1eVRnmGhDPATPxz6kqWuCP'
p1170
(dp1171
g3
S'Julia Michaels'
p1172
sg5
I2
sg6
S'https://open.spotify.com/track/1eVRnmGhDPATPxz6kqWuCP'
p1173
sg8
S'Uh Huh'
p1174
ssS'4nxvRweTK5ZZhbH3G7PuEn'
p1175
(dp1176
g3
S'RHODES'
p1177
sg5
I16
sg6
S'https://open.spotify.com/track/4nxvRweTK5ZZhbH3G7PuEn'
p1178
sg8
S'Your Soul (Holding On)'
p1179
ssS'7zgqtptZvhf8GEmdsM2vp2'
p1180
(dp1181
g3
S'Taylor Swift'
p1182
sg5
I1
sg6
S'https://open.spotify.com/track/7zgqtptZvhf8GEmdsM2vp2'
p1183
sg8
S'...Ready For It?'
p1184
ssS'65Q2mv3UlVi9eO70OpsmSe'
p1185
(dp1186
g3
S'Burl Ives'
p1187
sg5
I1
sg6
S'https://open.spotify.com/track/65Q2mv3UlVi9eO70OpsmSe'
p1188
sg8
S'A Holly Jolly Christmas - Single Version'
p1189
ssS'0XLOf9LhyazPX9Ld8jPiUq'
p1190
(dp1191
g3
S'Selena Gomez'
p1192
sg5
I9
sg6
S'https://open.spotify.com/track/0XLOf9LhyazPX9Ld8jPiUq'
p1193
sg8
S'Fetish (feat. Gucci Mane)'
p1194
ssS'2KtJAodiRCK7YUrI8dbnk4'
p1195
(dp1196
g3
S'AK Ausserkontrolle'
p1197
sg5
I1
sg6
S'https://open.spotify.com/track/2KtJAodiRCK7YUrI8dbnk4'
p1198
sg8
S'Lieber Gott'
p1199
ssS'5kRPPEWFJIMox5qIkQkiz5'
p1200
(dp1201
g3
S'Harry Styles'
p1202
sg5
I1
sg6
S'https://open.spotify.com/track/5kRPPEWFJIMox5qIkQkiz5'
p1203
sg8
S'Sweet Creature'
p1204
ssS'0ugwgq04vVhkJDIOGr2X6R'
p1205
(dp1206
g3
S'Marteria'
p1207
sg5
I15
sg6
S'https://open.spotify.com/track/0ugwgq04vVhkJDIOGr2X6R'
p1208
sg8
S'Das Geld muss weg'
p1209
ssS'5m9kKKdZckx60Acxnmszdn'
p1210
(dp1211
g3
S'Cro'
p1212
sg5
I1
sg6
S'https://open.spotify.com/track/5m9kKKdZckx60Acxnmszdn'
p1213
sg8
S'forrest gump'
p1214
ssS'550rQQCGkrTzvp4SfpOPzx'
p1215
(dp1216
g3
S'Pentatonix'
p1217
sg5
I2
sg6
S'https://open.spotify.com/track/550rQQCGkrTzvp4SfpOPzx'
p1218
sg8
S'Hallelujah'
p1219
ssS'3xXBsjrbG1xQIm1xv1cKOt'
p1220
(dp1221
g3
S'Linkin Park'
p1222
sg5
I3
sg6
S'https://open.spotify.com/track/3xXBsjrbG1xQIm1xv1cKOt'
p1223
sg8
S'One More Light'
p1224
ssS'0t4v7Q4yzb9SOQohayL33W'
p1225
(dp1226
g3
S'Bonez MC'
p1227
sg5
I36
sg6
S'https://open.spotify.com/track/0t4v7Q4yzb9SOQohayL33W'
p1228
sg8
S'Palmen aus Gold'
p1229
ssS'3A7qX2QjDlPnazUsRk5y0M'
p1230
(dp1231
g3
S'David Guetta'
p1232
sg5
I17
sg6
S'https://open.spotify.com/track/3A7qX2QjDlPnazUsRk5y0M'
p1233
sg8
S'2U (feat. Justin Bieber)'
p1234
ssS'0OwX5aROoW1Iip8FV51Efg'
p1235
(dp1236
g3
S'Anne-Marie'
p1237
sg5
I12
sg6
S'https://open.spotify.com/track/0OwX5aROoW1Iip8FV51Efg'
p1238
sg8
S'Alarm'
p1239
ssS'6A8dnC0xkiuWN4BshmTB2I'
p1240
(dp1241
g3
S'A R I Z O N A'
p1242
sg5
I13
sg6
S'https://open.spotify.com/track/6A8dnC0xkiuWN4BshmTB2I'
p1243
sg8
S'Oceans Away'
p1244
ssS'5iwJ9wwJES8PUVblgaf1Pb'
p1245
(dp1246
g3
S'RIN'
p1247
sg5
I1
sg6
S'https://open.spotify.com/track/5iwJ9wwJES8PUVblgaf1Pb'
p1248
sg8
S'Dizzee Rascal Type Beat'
p1249
ssS'2OALaHcDdKkjYEpAr0Qzab'
p1250
(dp1251
g3
S'Avicii'
p1252
sg5
I9
sg6
S'https://open.spotify.com/track/2OALaHcDdKkjYEpAr0Qzab'
p1253
sg8
S'Lonely Together (feat. Rita Ora)'
p1254
ssS'56lBX2WHqfGuoeZxZvUnVj'
p1255
(dp1256
g3
S'Imagine Dragons'
p1257
sg5
I3
sg6
S'https://open.spotify.com/track/56lBX2WHqfGuoeZxZvUnVj'
p1258
sg8
S'Thunder'
p1259
ssS'0XfOi87h82i09rQjWYG0Bm'
p1260
(dp1261
g3
S'Jax Jones'
p1262
sg5
I10
sg6
S'https://open.spotify.com/track/0XfOi87h82i09rQjWYG0Bm'
p1263
sg8
S'Instruction (feat. Demi Lovato & Stefflon Don)'
p1264
ssS'2DLG3LOPVDw0fP53tWGfm2'
p1265
(dp1266
g3
S'Cro'
p1267
sg5
I2
sg6
S'https://open.spotify.com/track/2DLG3LOPVDw0fP53tWGfm2'
p1268
sg8
S'Baum'
p1269
ssS'5qqabIl2vWzo9ApSC317sa'
p1270
(dp1271
g3
S'Oasis'
p1272
sg5
I15
sg6
S'https://open.spotify.com/track/5qqabIl2vWzo9ApSC317sa'
p1273
sg8
S'Wonderwall - Remastered'
p1274
ssS'28irpKCCK9nn9DZSik2zEx'
p1275
(dp1276
g3
S'Drake'
p1277
sg5
I1
sg6
S'https://open.spotify.com/track/28irpKCCK9nn9DZSik2zEx'
p1278
sg8
S'Glow'
p1279
ssS'5JUu0unA8VwhTZ9LkMWUVI'
p1280
(dp1281
g3
S'Drake'
p1282
sg5
I1
sg6
S'https://open.spotify.com/track/5JUu0unA8VwhTZ9LkMWUVI'
p1283
sg8
S'Since Way Back'
p1284
ssS'16nn9U3bhRfDgOxK1rp3WC'
p1285
(dp1286
g3
S'Maxwell'
p1287
sg5
I6
sg6
S'https://open.spotify.com/track/16nn9U3bhRfDgOxK1rp3WC'
p1288
sg8
S'Stress mit mir'
p1289
ssS'1kFJTEnAvJ70S5mXplUAFR'
p1290
(dp1291
g3
S'Jane X\xc3\x98'
p1292
sg5
I10
sg6
S'https://open.spotify.com/track/1kFJTEnAvJ70S5mXplUAFR'
p1293
sg8
S'Love Me'
p1294
ssS'3AzgkY49sI8s6lNoFmHkmG'
p1295
(dp1296
g3
S'Kraftklub'
p1297
sg5
I1
sg6
S'https://open.spotify.com/track/3AzgkY49sI8s6lNoFmHkmG'
p1298
sg8
S'Am Ende'
p1299
ssS'7lQ8MOhq6IN2w8EYcFNSUk'
p1300
(dp1301
g3
S'Eminem'
p1302
sg5
I9
sg6
S'https://open.spotify.com/track/7lQ8MOhq6IN2w8EYcFNSUk'
p1303
sg8
S'Without Me'
p1304
ssS'19j4zJpumhQ2v0FottwCdD'
p1305
(dp1306
g3
S'Bushido'
p1307
sg5
I7
sg6
S'https://open.spotify.com/track/19j4zJpumhQ2v0FottwCdD'
p1308
sg8
S'Sodom und Gomorrha'
p1309
ssS'2qOMpFfLZ0agDTouBxUDCb'
p1310
(dp1311
g3
S'Stereoact'
p1312
sg5
I2
sg6
S'https://open.spotify.com/track/2qOMpFfLZ0agDTouBxUDCb'
p1313
sg8
S'Die Immer Lacht - Radio 2016 Mix'
p1314
ssS'3HUV7iNGXCCZfdznDTpaz4'
p1315
(dp1316
g3
S'RAF Camora'
p1317
sg5
I2
sg6
S'https://open.spotify.com/track/3HUV7iNGXCCZfdznDTpaz4'
p1318
sg8
S'Donna Imma'
p1319
ssS'0WCEaydwN65cvwaW8aqptF'
p1320
(dp1321
g3
S'Olivia Holt'
p1322
sg5
I21
sg6
S'https://open.spotify.com/track/0WCEaydwN65cvwaW8aqptF'
p1323
sg8
S'History'
p1324
ssS'0hnErtVKN1JyvfBNfpWDpO'
p1325
(dp1326
g3
S'Bryan Adams'
p1327
sg5
I1
sg6
S'https://open.spotify.com/track/0hnErtVKN1JyvfBNfpWDpO'
p1328
sg8
S'Christmas Time'
p1329
ssS'5LhrVAtfslBvpyuKoo5yxA'
p1330
(dp1331
g3
S'KC Rebell'
p1332
sg5
I4
sg6
S'https://open.spotify.com/track/5LhrVAtfslBvpyuKoo5yxA'
p1333
sg8
S'Maximum'
p1334
ssS'4FwI6qsU9xOCULmk8RdHrt'
p1335
(dp1336
g3
S'SpongeBOZZ'
p1337
sg5
I1
sg6
S'https://open.spotify.com/track/4FwI6qsU9xOCULmk8RdHrt'
p1338
sg8
S'Machinegunflows'
p1339
ssS'2cWGXHNww5shxR3gr0gcAA'
p1340
(dp1341
g3
S'Kraftklub'
p1342
sg5
I1
sg6
S'https://open.spotify.com/track/2cWGXHNww5shxR3gr0gcAA'
p1343
sg8
S'Band mit dem K'
p1344
ssS'5BOZ4skcMubA0R6RD4zf64'
p1345
(dp1346
g3
S'Tinie Tempah'
p1347
sg5
I1
sg6
S'https://open.spotify.com/track/5BOZ4skcMubA0R6RD4zf64'
p1348
sg8
S'Girls Like (feat. Zara Larsson)'
p1349
ssS'0FuTx2s3YH1ppmtiM6l0zI'
p1350
(dp1351
g3
S'JP Cooper'
p1352
sg5
I28
sg6
S'https://open.spotify.com/track/0FuTx2s3YH1ppmtiM6l0zI'
p1353
sg8
S'September Song'
p1354
ssS'2FV6EzOFuyjuXv9PtsRpb5'
p1355
(dp1356
g3
S'Capital Bra'
p1357
sg5
I2
sg6
S'https://open.spotify.com/track/2FV6EzOFuyjuXv9PtsRpb5'
p1358
sg8
S'Alle meine Jungs'
p1359
ssS'0Zbbxnx4SGGHoIow4PpISP'
p1360
(dp1361
g3
S'Kygo'
p1362
sg5
I3
sg6
S'https://open.spotify.com/track/0Zbbxnx4SGGHoIow4PpISP'
p1363
sg8
S'Stargazing'
p1364
ssS'0SvD6EdetxVtXei2JhkV4B'
p1365
(dp1366
g3
S'Melanie Thornton'
p1367
sg5
I1
sg6
S'https://open.spotify.com/track/0SvD6EdetxVtXei2JhkV4B'
p1368
sg8
S'Wonderful Dream (Holidays Are Coming) - Radio Version'
p1369
ssS'5GFDrUTLGJix84sNhjCG0g'
p1370
(dp1371
g3
S'Amin\xc3\xa9'
p1372
sg5
I5
sg6
S'https://open.spotify.com/track/5GFDrUTLGJix84sNhjCG0g'
p1373
sg8
S'Caroline'
p1374
ssS'33B2QbtAj8mbDpwvGTOnBt'
p1375
(dp1376
g3
S'The xx'
p1377
sg5
I1
sg6
S'https://open.spotify.com/track/33B2QbtAj8mbDpwvGTOnBt'
p1378
sg8
S'Dangerous'
p1379
ssS'6PCUP3dWmTjcTtXY02oFdT'
p1380
(dp1381
g3
S'Ed Sheeran'
p1382
sg5
I35
sg6
S'https://open.spotify.com/track/6PCUP3dWmTjcTtXY02oFdT'
p1383
sg8
S'Castle on the Hill'
p1384
ssS'17FpUh6WRFjTiO2I4lmPlN'
p1385
(dp1386
g3
S'Metrickz'
p1387
sg5
I1
sg6
S'https://open.spotify.com/track/17FpUh6WRFjTiO2I4lmPlN'
p1388
sg8
S'FOOTPRINTS'
p1389
ssS'0vnXv1pYL1OjY4sOCWOmXH'
p1390
(dp1391
g3
S'Trettmann'
p1392
sg5
I2
sg6
S'https://open.spotify.com/track/0vnXv1pYL1OjY4sOCWOmXH'
p1393
sg8
S'Nur noch einen'
p1394
ssS'0cAuqPI1R8RlFsXXWWO039'
p1395
(dp1396
g3
S'Kungs'
p1397
sg5
I1
sg6
S'https://open.spotify.com/track/0cAuqPI1R8RlFsXXWWO039'
p1398
sg8
S"Don't You Know - Radio Edit"
p1399
ssS'6a9vKVMFfNBi741DVSit3H'
p1400
(dp1401
g3
S'Felix Jaehn'
p1402
sg5
I10
sg6
S'https://open.spotify.com/track/6a9vKVMFfNBi741DVSit3H'
p1403
sg8
S'Feel Good'
p1404
ssS'7i2DJ88J7jQ8K7zqFX2fW8'
p1405
(dp1406
g3
S'Halsey'
p1407
sg5
I7
sg6
S'https://open.spotify.com/track/7i2DJ88J7jQ8K7zqFX2fW8'
p1408
sg8
S'Now Or Never'
p1409
ssS'1yxgsra98r3qAtxqiGZPiX'
p1410
(dp1411
g3
S'Travis Scott'
p1412
sg5
I16
sg6
S'https://open.spotify.com/track/1yxgsra98r3qAtxqiGZPiX'
p1413
sg8
S'Butterfly Effect'
p1414
ssS'5afFUK7AbTSbMS3RFfMD0c'
p1415
(dp1416
g3
S'Kontra K'
p1417
sg5
I1
sg6
S'https://open.spotify.com/track/5afFUK7AbTSbMS3RFfMD0c'
p1418
sg8
S'Ratten'
p1419
ssS'5q5gzmbBS5yQzos2BvVr1t'
p1420
(dp1421
g3
S'M\xc3\x98'
p1422
sg5
I3
sg6
S'https://open.spotify.com/track/5q5gzmbBS5yQzos2BvVr1t'
p1423
sg8
S'Nights With You'
p1424
ssS'715uqcez2DeFYNecXSoXDm'
p1425
(dp1426
g3
S'Capo'
p1427
sg5
I5
sg6
S'https://open.spotify.com/track/715uqcez2DeFYNecXSoXDm'
p1428
sg8
S'Lambo Diablo GT (feat. Nimo)'
p1429
ssS'5sNESr6pQfIhL3krM8CtZn'
p1430
(dp1431
g3
S'JAY Z'
p1432
sg5
I5
sg6
S'https://open.spotify.com/track/5sNESr6pQfIhL3krM8CtZn'
p1433
sg8
S'Numb / Encore'
p1434
ssS'2fkPVFB4cip85rPhOVi0C0'
p1435
(dp1436
g3
S'Lionel Richie'
p1437
sg5
I1
sg6
S'https://open.spotify.com/track/2fkPVFB4cip85rPhOVi0C0'
p1438
sg8
S'Joy To The World'
p1439
ssS'68EMU2RD1ECNeOeJ5qAXCV'
p1440
(dp1441
g3
S'Charlie Puth'
p1442
sg5
I5
sg6
S'https://open.spotify.com/track/68EMU2RD1ECNeOeJ5qAXCV'
p1443
sg8
S"We Don't Talk Anymore (feat. Selena Gomez)"
p1444
ssS'0xl1w2q4VLojeXp4JfazPL'
p1445
(dp1446
g3
S'Drake'
p1447
sg5
I1
sg6
S'https://open.spotify.com/track/0xl1w2q4VLojeXp4JfazPL'
p1448
sg8
S'Sacrifices'
p1449
ssS'3b5Li4QKDVBx1x7fQuu54a'
p1450
(dp1451
g3
S'Alan Walker'
p1452
sg5
I20
sg6
S'https://open.spotify.com/track/3b5Li4QKDVBx1x7fQuu54a'
p1453
sg8
S'Tired'
p1454
ssS'2dqLk7ezV15LEJEwUmEbXB'
p1455
(dp1456
g3
S'Marian Hill'
p1457
sg5
I11
sg6
S'https://open.spotify.com/track/2dqLk7ezV15LEJEwUmEbXB'
p1458
sg8
S'Down'
p1459
ssS'1R8eM53yWnjsfiWktgObe7'
p1460
(dp1461
g3
S'Micar'
p1462
sg5
I22
sg6
S'https://open.spotify.com/track/1R8eM53yWnjsfiWktgObe7'
p1463
sg8
S'Burden Down'
p1464
ssS'0HBdrRjDE1t56e2sTquhxl'
p1465
(dp1466
g3
S'Marteria'
p1467
sg5
I1
sg6
S'https://open.spotify.com/track/0HBdrRjDE1t56e2sTquhxl'
p1468
sg8
S'Roswell'
p1469
ssS'1j4kHkkpqZRBwE0A4CN4Yv'
p1470
(dp1471
g3
S'ZAYN'
p1472
sg5
I5
sg6
S'https://open.spotify.com/track/1j4kHkkpqZRBwE0A4CN4Yv'
p1473
sg8
S'Dusk Till Dawn - Radio Edit'
p1474
ssS'5XiZK7m9PLppgIzJBpw2x5'
p1475
(dp1476
g3
S'Martin Jensen'
p1477
sg5
I1
sg6
S'https://open.spotify.com/track/5XiZK7m9PLppgIzJBpw2x5'
p1478
sg8
S'Wait'
p1479
ssS'1cImYkHOQMFE7AZC9aOk4y'
p1480
(dp1481
g3
S'Bobby Helms'
p1482
sg5
I1
sg6
S'https://open.spotify.com/track/1cImYkHOQMFE7AZC9aOk4y'
p1483
sg8
S'Jingle Bell Rock'
p1484
ssS'6MbH1QiphMCPTqVEVC7UYi'
p1485
(dp1486
g3
S'Drake'
p1487
sg5
I1
sg6
S'https://open.spotify.com/track/6MbH1QiphMCPTqVEVC7UYi'
p1488
sg8
S'Nothings Into Somethings'
p1489
ssS'06mDx5gBSdL4lvjBz7MQgJ'
p1490
(dp1491
g3
S'Ufo361'
p1492
sg5
I1
sg6
S'https://open.spotify.com/track/06mDx5gBSdL4lvjBz7MQgJ'
p1493
sg8
S'Ich will nicht sterben'
p1494
ssS'4VuS959DSpr82t3qBqCrWG'
p1495
(dp1496
g3
S'Ed Sheeran'
p1497
sg5
I8
sg6
S'https://open.spotify.com/track/4VuS959DSpr82t3qBqCrWG'
p1498
sg8
S'Supermarket Flowers'
p1499
ssS'05aYPqscr6UPjgU3ha3vzD'
p1500
(dp1501
g3
S'Gentleman'
p1502
sg5
I16
sg6
S'https://open.spotify.com/track/05aYPqscr6UPjgU3ha3vzD'
p1503
sg8
S'Ovaload'
p1504
ssS'2DGa7iaidT5s0qnINlwMjJ'
p1505
(dp1506
g3
S'Alan Walker'
p1507
sg5
I4
sg6
S'https://open.spotify.com/track/2DGa7iaidT5s0qnINlwMjJ'
p1508
sg8
S'The Spectre'
p1509
ssS'6hB5hpMGCIriSNCH0d2zHY'
p1510
(dp1511
g3
S'KC Rebell'
p1512
sg5
I2
sg6
S'https://open.spotify.com/track/6hB5hpMGCIriSNCH0d2zHY'
p1513
sg8
S'Nicht jetzt'
p1514
ssS'1ssmjAYSU5PbmsjLq5yrNH'
p1515
(dp1516
g3
S'Sia'
p1517
sg5
I18
sg6
S'https://open.spotify.com/track/1ssmjAYSU5PbmsjLq5yrNH'
p1518
sg8
S'Never Give Up'
p1519
ssS'34isqXjbTstbYwl2MfdzDq'
p1520
(dp1521
g3
S'Linkin Park'
p1522
sg5
I1
sg6
S'https://open.spotify.com/track/34isqXjbTstbYwl2MfdzDq'
p1523
sg8
S'Sorry for Now'
p1524
ssS'0Zx8khUcEfCFK2AEoIhC92'
p1525
(dp1526
g3
S'Snakehips'
p1527
sg5
I15
sg6
S'https://open.spotify.com/track/0Zx8khUcEfCFK2AEoIhC92'
p1528
sg8
S"Don't Leave"
p1529
ssS'14SZQ3k55sfzGLuv9WZ4Xe'
p1530
(dp1531
g3
S'Max Giesinger'
p1532
sg5
I1
sg6
S'https://open.spotify.com/track/14SZQ3k55sfzGLuv9WZ4Xe'
p1533
sg8
S'80 Millionen'
p1534
ssS'5peJfpkLPMilv44VqUa2AS'
p1535
(dp1536
g3
S'SXTN'
p1537
sg5
I5
sg6
S'https://open.spotify.com/track/5peJfpkLPMilv44VqUa2AS'
p1538
sg8
S'Bongzimmer'
p1539
ssS'2opHCc3qNPHIaHPKQmOYIl'
p1540
(dp1541
g3
S'Sarah Connor'
p1542
sg5
I1
sg6
S'https://open.spotify.com/track/2opHCc3qNPHIaHPKQmOYIl'
p1543
sg8
S'The Best Side Of Life'
p1544
ssS'7McVnXcGdaVAzjKpN1BWPb'
p1545
(dp1546
g3
S'Miami Yacine'
p1547
sg5
I13
sg6
S'https://open.spotify.com/track/7McVnXcGdaVAzjKpN1BWPb'
p1548
sg8
S'Bon Voyage'
p1549
ssS'4LAWlXLfXGgLBVsEJasi3m'
p1550
(dp1551
g3
S'Metrickz'
p1552
sg5
I2
sg6
S'https://open.spotify.com/track/4LAWlXLfXGgLBVsEJasi3m'
p1553
sg8
S'WEIHRAUCH'
p1554
ssS'4bPWDXpN6MlTZBedxega3X'
p1555
(dp1556
g3
S'Alice Merton'
p1557
sg5
I26
sg6
S'https://open.spotify.com/track/4bPWDXpN6MlTZBedxega3X'
p1558
sg8
S'No Roots'
p1559
ssS'1r1fPuhj9H4VdXr7OK6FL5'
p1560
(dp1561
g3
S'Linkin Park'
p1562
sg5
I1
sg6
S'https://open.spotify.com/track/1r1fPuhj9H4VdXr7OK6FL5'
p1563
sg8
S'CASTLE OF GLASS'
p1564
ssS'3Wi5z5ASy33TNpuO0WCcRA'
p1565
(dp1566
g3
S'RIN'
p1567
sg5
I1
sg6
S'https://open.spotify.com/track/3Wi5z5ASy33TNpuO0WCcRA'
p1568
sg8
S'Ich will dass du mich brauchst'
p1569
ssS'6n3HGiq4v35D6eFOSwqYuo'
p1570
(dp1571
g3
S'Drake'
p1572
sg5
I2
sg6
S'https://open.spotify.com/track/6n3HGiq4v35D6eFOSwqYuo'
p1573
sg8
S'Teenage Fever'
p1574
ssS'61WbtB6ujkpNAsAf5LjF4b'
p1575
(dp1576
g3
S'Katy Perry'
p1577
sg5
I12
sg6
S'https://open.spotify.com/track/61WbtB6ujkpNAsAf5LjF4b'
p1578
sg8
S'Bon app\xc3\xa9tit'
p1579
ssS'0YHUITU3w6ws1v8ehT264g'
p1580
(dp1581
g3
S'Little Mix'
p1582
sg5
I4
sg6
S'https://open.spotify.com/track/0YHUITU3w6ws1v8ehT264g'
p1583
sg8
S'Shout Out to My Ex'
p1584
ssS'40q2gLHiAqU7EO5pkhPTE9'
p1585
(dp1586
g3
S'AK Ausserkontrolle'
p1587
sg5
I1
sg6
S'https://open.spotify.com/track/40q2gLHiAqU7EO5pkhPTE9'
p1588
sg8
S'Fick die Hoe'
p1589
ssS'2saOA3KAWOpAOwPke2Csa1'
p1590
(dp1591
g3
S'KALIM'
p1592
sg5
I1
sg6
S'https://open.spotify.com/track/2saOA3KAWOpAOwPke2Csa1'
p1593
sg8
S'Loco'
p1594
ssS'3dJj6o9o1fRgrojWjailuz'
p1595
(dp1596
g3
S'Linkin Park'
p1597
sg5
I2
sg6
S'https://open.spotify.com/track/3dJj6o9o1fRgrojWjailuz'
p1598
sg8
S'Nobody Can Save Me'
p1599
ssS'3bVbQvGVIe4n24AzyXovXh'
p1600
(dp1601
g3
S''
p1602
sg5
I1
sg6
S'https://open.spotify.com/track/3bVbQvGVIe4n24AzyXovXh'
p1603
sg8
g1602
ssS'36XNdtXaPIAfhOiyKIPpWl'
p1604
(dp1605
g3
S'Veysel'
p1606
sg5
I6
sg6
S'https://open.spotify.com/track/36XNdtXaPIAfhOiyKIPpWl'
p1607
sg8
S'Kleiner Cabr\xc3\xb3n'
p1608
ssS'2NWZiXyRdKEolP8QrjBGmp'
p1609
(dp1610
g3
S'RAF Camora'
p1611
sg5
I7
sg6
S'https://open.spotify.com/track/2NWZiXyRdKEolP8QrjBGmp'
p1612
sg8
S'Andere Liga'
p1613
ssS'5tf1VVWniHgryyumXyJM7w'
p1614
(dp1615
g3
S'Robin Schulz'
p1616
sg5
I1
sg6
S'https://open.spotify.com/track/5tf1VVWniHgryyumXyJM7w'
p1617
sg8
S'Sugar (feat. Francesco Yates)'
p1618
ssS'7aF09WaavZAmAWuUeYxlYD'
p1619
(dp1620
g3
S'OneRepublic'
p1621
sg5
I13
sg6
S'https://open.spotify.com/track/7aF09WaavZAmAWuUeYxlYD'
p1622
sg8
S'Rich Love (with Seeb)'
p1623
ssS'0RE7AgMKdpcvRkK7EhNoBs'
p1624
(dp1625
g3
S'Kontra K'
p1626
sg5
I22
sg6
S'https://open.spotify.com/track/0RE7AgMKdpcvRkK7EhNoBs'
p1627
sg8
S'Diamanten'
p1628
ssS'2XlHu0HcujBCkWMdIAvrqt'
p1629
(dp1630
g3
S'Drake'
p1631
sg5
I5
sg6
S'https://open.spotify.com/track/2XlHu0HcujBCkWMdIAvrqt'
p1632
sg8
S'Blem'
p1633
ssS'5f5r2N4Lp9WoULWPH9zp2W'
p1634
(dp1635
g3
S'Drake'
p1636
sg5
I1
sg6
S'https://open.spotify.com/track/5f5r2N4Lp9WoULWPH9zp2W'
p1637
sg8
S"Can't Have Everything"
p1638
ssS'4riWElAB3gcltV7vrfHcOJ'
p1639
(dp1640
g3
S'RIN'
p1641
sg5
I2
sg6
S'https://open.spotify.com/track/4riWElAB3gcltV7vrfHcOJ'
p1642
sg8
S'Gamma'
p1643
ssS'4NrwzWgZfNHb7dpNrEEQqX'
p1644
(dp1645
g3
S'RAF Camora'
p1646
sg5
I7
sg6
S'https://open.spotify.com/track/4NrwzWgZfNHb7dpNrEEQqX'
p1647
sg8
S'Alles probiert'
p1648
ssS'3rCPonx0IgR5LvIuMfS1h2'
p1649
(dp1650
g3
S'Bushido'
p1651
sg5
I2
sg6
S'https://open.spotify.com/track/3rCPonx0IgR5LvIuMfS1h2'
p1652
sg8
S'So Lange'
p1653
ssS'3iwZ8hg0q1kTBB5kjg0nO4'
p1654
(dp1655
g3
S'Slade'
p1656
sg5
I1
sg6
S'https://open.spotify.com/track/3iwZ8hg0q1kTBB5kjg0nO4'
p1657
sg8
S'Merry Xmas Everybody'
p1658
ssS'7nAfXgeHfDO50upcOjJOaq'
p1659
(dp1660
g3
S'Linkin Park'
p1661
sg5
I2
sg6
S'https://open.spotify.com/track/7nAfXgeHfDO50upcOjJOaq'
p1662
sg8
S'Talking to Myself'
p1663
ssS'5hYTyyh2odQKphUbMqc5gN'
p1664
(dp1665
g3
S'Alessia Cara'
p1666
sg5
I18
sg6
S'https://open.spotify.com/track/5hYTyyh2odQKphUbMqc5gN'
p1667
sg8
S"How Far I'll Go - From Moana"
p1668
ssS'6mw02h3qbWmuq2bJCRjRAe'
p1669
(dp1670
g3
S'187 Strassenbande'
p1671
sg5
I13
sg6
S'https://open.spotify.com/track/6mw02h3qbWmuq2bJCRjRAe'
p1672
sg8
S'Million\xc3\xa4r'
p1673
ssS'2IDDQFHRf9iH35jeL89uNs'
p1674
(dp1675
g3
S'Alle Farben'
p1676
sg5
I5
sg6
S'https://open.spotify.com/track/2IDDQFHRf9iH35jeL89uNs'
p1677
sg8
S'Please Tell Rosie'
p1678
ssS'1sBhJGPUKrdRycgKxve70v'
p1679
(dp1680
g3
S'Felix Jaehn'
p1681
sg5
I22
sg6
S'https://open.spotify.com/track/1sBhJGPUKrdRycgKxve70v'
p1682
sg8
S'Hot2Touch'
p1683
ssS'72jbDTw1piOOj770jWNeaG'
p1684
(dp1685
g3
S'The Chainsmokers'
p1686
sg5
I38
sg6
S'https://open.spotify.com/track/72jbDTw1piOOj770jWNeaG'
p1687
sg8
S'Paris'
p1688
ssS'3YQUpKTmtgPJf8u6ooi9KA'
p1689
(dp1690
g3
S'Elton John'
p1691
sg5
I1
sg6
S'https://open.spotify.com/track/3YQUpKTmtgPJf8u6ooi9KA'
p1692
sg8
S'Step Into Christmas'
p1693
ssS'7hCJgEQQqOlQrWQ9iOZ495'
p1694
(dp1695
g3
S'187 Strassenbande'
p1696
sg5
I10
sg6
S'https://open.spotify.com/track/7hCJgEQQqOlQrWQ9iOZ495'
p1697
sg8
S'100er Batzen'
p1698
ssS'1ZF37wWOA9d4WF2lihWdXB'
p1699
(dp1700
g3
S'Nimo'
p1701
sg5
I1
sg6
S'https://open.spotify.com/track/1ZF37wWOA9d4WF2lihWdXB'
p1702
sg8
S'Nutte hier bin ich'
p1703
ssS'6kJPUppONlxXdf86H85eKv'
p1704
(dp1705
g3
S'Mortel'
p1706
sg5
I1
sg6
S'https://open.spotify.com/track/6kJPUppONlxXdf86H85eKv'
p1707
sg8
S'Nie mehr Broke'
p1708
ssS'2mFBsP6v2rd2FMWYxPJ2Qc'
p1709
(dp1710
g3
S'Prinz Pi'
p1711
sg5
I1
sg6
S'https://open.spotify.com/track/2mFBsP6v2rd2FMWYxPJ2Qc'
p1712
sg8
S'F\xc3\xbcr immer und immer'
p1713
ssS'1UXyQicTgZI4PT4zflpodi'
p1714
(dp1715
g3
S'Wincent Weiss'
p1716
sg5
I6
sg6
S'https://open.spotify.com/track/1UXyQicTgZI4PT4zflpodi'
p1717
sg8
S'Musik sein'
p1718
ssS'2xGbYbIzqSbe3s7uxcgzcw'
p1719
(dp1720
g3
S'Mert'
p1721
sg5
I1
sg6
S'https://open.spotify.com/track/2xGbYbIzqSbe3s7uxcgzcw'
p1722
sg8
S'Danke Baba'
p1723
ssS'2rb5MvYT7ZIxbKW5hfcHx8'
p1724
(dp1725
g3
S'J Balvin'
p1726
sg5
I15
sg6
S'https://open.spotify.com/track/2rb5MvYT7ZIxbKW5hfcHx8'
p1727
sg8
S'Mi Gente'
p1728
ssS'3BDJQNagxTyHWKNvcHtsin'
p1729
(dp1730
g3
S'Mert'
p1731
sg5
I3
sg6
S'https://open.spotify.com/track/3BDJQNagxTyHWKNvcHtsin'
p1732
sg8
S'Asozial'
p1733
ssS'2sWOUbbdQ4S1qMkrgfjBVU'
p1734
(dp1735
g3
S'Fler'
p1736
sg5
I2
sg6
S'https://open.spotify.com/track/2sWOUbbdQ4S1qMkrgfjBVU'
p1737
sg8
S'Hype'
p1738
ssS'6Zosz8w6CmdGMZM6p4JlbQ'
p1739
(dp1740
g3
S'Danny Ocean'
p1741
sg5
I2
sg6
S'https://open.spotify.com/track/6Zosz8w6CmdGMZM6p4JlbQ'
p1742
sg8
S'Me Reh\xc3\xbaso'
p1743
ssS'0lmdsH1MIoLsMymnNpd6HU'
p1744
(dp1745
g3
S'Dante Klein'
p1746
sg5
I9
sg6
S'https://open.spotify.com/track/0lmdsH1MIoLsMymnNpd6HU'
p1747
sg8
S'Let Me Hold You (Turn Me On)'
p1748
ssS'6YnzBV7YkaXZNCK3tlnCfg'
p1749
(dp1750
g3
S'Boney M.'
p1751
sg5
I1
sg6
S'https://open.spotify.com/track/6YnzBV7YkaXZNCK3tlnCfg'
p1752
sg8
S"Mary's Boy Child / Oh My Lord"
p1753
ssS'7g4ZuevZdAZh4EDrJG1S4X'
p1754
(dp1755
g3
S'Bonez MC'
p1756
sg5
I2
sg6
S'https://open.spotify.com/track/7g4ZuevZdAZh4EDrJG1S4X'
p1757
sg8
S'Ciao Ciao'
p1758
ssS'2KvHC9z14GSl4YpkNMX384'
p1759
(dp1760
g3
S'Drake'
p1761
sg5
I1
sg6
S'https://open.spotify.com/track/2KvHC9z14GSl4YpkNMX384'
p1762
sg8
S'Do Not Disturb'
p1763
ssS'2gbCG4Rt9984UZ7Tc0dIFd'
p1764
(dp1765
g3
S'Michael Bubl\xc3\xa9'
p1766
sg5
I1
sg6
S'https://open.spotify.com/track/2gbCG4Rt9984UZ7Tc0dIFd'
p1767
sg8
S'White Christmas (Duet With Shania Twain)'
p1768
ssS'1mH6tZC6iXIHPI6EixCwxw'
p1769
(dp1770
g3
S'Wizzard'
p1771
sg5
I1
sg6
S'https://open.spotify.com/track/1mH6tZC6iXIHPI6EixCwxw'
p1772
sg8
S'I Wish It Could Be Christmas Everyday'
p1773
ssS'77lGafvlU68CeHgB2pkHC9'
p1774
(dp1775
g3
S'Machine Gun Kelly'
p1776
sg5
I5
sg6
S'https://open.spotify.com/track/77lGafvlU68CeHgB2pkHC9'
p1777
sg8
S'At My Best (feat. Hailee Steinfeld)'
p1778
ssS'0dA2Mk56wEzDgegdC6R17g'
p1779
(dp1780
g3
S'Zedd'
p1781
sg5
I32
sg6
S'https://open.spotify.com/track/0dA2Mk56wEzDgegdC6R17g'
p1782
sg8
S'Stay (with Alessia Cara)'
p1783
ssS'5zQgXYRkfq79wNzTW5uFMG'
p1784
(dp1785
g3
S'SpongeBOZZ'
p1786
sg5
I1
sg6
S'https://open.spotify.com/track/5zQgXYRkfq79wNzTW5uFMG'
p1787
sg8
S'Yellow Bar Mitzvah'
p1788
ssS'3kGfazcbVvVkuZunzlLgTD'
p1789
(dp1790
g3
S'Sigala'
p1791
sg5
I18
sg6
S'https://open.spotify.com/track/3kGfazcbVvVkuZunzlLgTD'
p1792
sg8
S'Came Here for Love'
p1793
ssS'2JU8tyAK0FO17PoJyxMzsq'
p1794
(dp1795
g3
S'Capital Bra'
p1796
sg5
I2
sg6
S'https://open.spotify.com/track/2JU8tyAK0FO17PoJyxMzsq'
p1797
sg8
S'Nix zu reden'
p1798
ssS'7gZQfdEQpmwAoPHSbEHzms'
p1799
(dp1800
g3
S'Matoma'
p1801
sg5
I1
sg6
S'https://open.spotify.com/track/7gZQfdEQpmwAoPHSbEHzms'
p1802
sg8
S'False Alarm'
p1803
ssS'3Ytr1SUCUi6J3L9dRFx5iH'
p1804
(dp1805
g3
S'Major Lazer'
p1806
sg5
I19
sg6
S'https://open.spotify.com/track/3Ytr1SUCUi6J3L9dRFx5iH'
p1807
sg8
S'Know No Better (feat. Quavo)'
p1808
ssS'6XFoohFV6lU0J6n0g8VfdZ'
p1809
(dp1810
g3
S'Capital Bra'
p1811
sg5
I4
sg6
S'https://open.spotify.com/track/6XFoohFV6lU0J6n0g8VfdZ'
p1812
sg8
S'KUKU SLS'
p1813
ssS'1qfM92o8OuFfWouqqfUBF8'
p1814
(dp1815
g3
S'Trettmann'
p1816
sg5
I2
sg6
S'https://open.spotify.com/track/1qfM92o8OuFfWouqqfUBF8'
p1817
sg8
S'Kn\xc3\xb6cheltief'
p1818
ssS'6v6xHeuMLbCuddN0ETrGhs'
p1819
(dp1820
g3
S'Bonez MC'
p1821
sg5
I41
sg6
S'https://open.spotify.com/track/6v6xHeuMLbCuddN0ETrGhs'
p1822
sg8
S'M\xc3\xb6rder'
p1823
ssS'2wpHrEs8EYljXF4BOpBfZ5'
p1824
(dp1825
g3
S'Bushido'
p1826
sg5
I2
sg6
S'https://open.spotify.com/track/2wpHrEs8EYljXF4BOpBfZ5'
p1827
sg8
S'Geschlossene Gesellschaft'
p1828
ssS'35GSwxl4LYtOATVIXqmAPA'
p1829
(dp1830
g3
S'187 Strassenbande'
p1831
sg5
I7
sg6
S'https://open.spotify.com/track/35GSwxl4LYtOATVIXqmAPA'
p1832
sg8
S'L\xc3\xa4cheln'
p1833
ssS'1iPTSLcoezNpFMaXK29EsG'
p1834
(dp1835
g3
S'Ufo361'
p1836
sg5
I23
sg6
S'https://open.spotify.com/track/1iPTSLcoezNpFMaXK29EsG'
p1837
sg8
S'Der Pate'
p1838
ssS'2t3vthwMfC0YCuEUOOYrW0'
p1839
(dp1840
g3
S'Ufo361'
p1841
sg5
I1
sg6
S'https://open.spotify.com/track/2t3vthwMfC0YCuEUOOYrW0'
p1842
sg8
S'Heute bezahl ich'
p1843
ssS'7nZmah2llfvLDiUjm0kiyz'
p1844
(dp1845
g3
S'Justin Bieber'
p1846
sg5
I8
sg6
S'https://open.spotify.com/track/7nZmah2llfvLDiUjm0kiyz'
p1847
sg8
S'Friends (with BloodPop\xc2\xae)'
p1848
ssS'0y9uTzK9cNKSAEHnpeRG8C'
p1849
(dp1850
g3
S'Kendrick Lamar'
p1851
sg5
I1
sg6
S'https://open.spotify.com/track/0y9uTzK9cNKSAEHnpeRG8C'
p1852
sg8
S'DUCKWORTH.'
p1853
ssS'75clRtmtXSkZsPm6SjjQ5j'
p1854
(dp1855
g3
S'Frank Sinatra'
p1856
sg5
I1
sg6
S'https://open.spotify.com/track/75clRtmtXSkZsPm6SjjQ5j'
p1857
sg8
S"Santa Claus Is Comin' to Town"
p1858
ssS'3heSzLa3mZqkbgor1vTDQU'
p1859
(dp1860
g3
S'Cro'
p1861
sg5
I1
sg6
S'https://open.spotify.com/track/3heSzLa3mZqkbgor1vTDQU'
p1862
sg8
S'paperdreams'
p1863
ssS'1gZiMepNOEJyGS6VkegGrn'
p1864
(dp1865
g3
S'Bushido'
p1866
sg5
I2
sg6
S'https://open.spotify.com/track/1gZiMepNOEJyGS6VkegGrn'
p1867
sg8
S'Fallout'
p1868
ssS'6D0b04NJIKfEMg040WioJQ'
p1869
(dp1870
g3
S'Julia Michaels'
p1871
sg5
I1
sg6
S'https://open.spotify.com/track/6D0b04NJIKfEMg040WioJQ'
p1872
sg8
S'Issues'
p1873
ssS'0ZExP2I5Ej92PsnG4G1jVG'
p1874
(dp1875
g3
S'Julia Michaels'
p1876
sg5
I2
sg6
S'https://open.spotify.com/track/0ZExP2I5Ej92PsnG4G1jVG'
p1877
sg8
S'Uh Huh'
p1878
ssS'7of1slAJIWrXxP8ikAHxje'
p1879
(dp1880
g3
S'James Hersey'
p1881
sg5
I10
sg6
S'https://open.spotify.com/track/7of1slAJIWrXxP8ikAHxje'
p1882
sg8
S'Miss You'
p1883
ssS'0owOFov4xvXoXQUDhq0YCL'
p1884
(dp1885
g3
S'KC Rebell'
p1886
sg5
I1
sg6
S'https://open.spotify.com/track/0owOFov4xvXoXQUDhq0YCL'
p1887
sg8
S'Magnum - Bonustrack'
p1888
ssS'2dfHh7ECGxfNqZTQno09Vk'
p1889
(dp1890
g3
S'Ed Sheeran'
p1891
sg5
I5
sg6
S'https://open.spotify.com/track/2dfHh7ECGxfNqZTQno09Vk'
p1892
sg8
S"Hearts Don't Break Around Here"
p1893
ssS'6n8TMVyFKoUmDc4apxceRD'
p1894
(dp1895
g3
S'Linkin Park'
p1896
sg5
I1
sg6
S'https://open.spotify.com/track/6n8TMVyFKoUmDc4apxceRD'
p1897
sg8
S'Breaking The Habit'
p1898
ssS'6uCGAyoYFg9WeqEBkjKMwa'
p1899
(dp1900
g3
S'KALIM'
p1901
sg5
I1
sg6
S'https://open.spotify.com/track/6uCGAyoYFg9WeqEBkjKMwa'
p1902
sg8
S'Tresi'
p1903
ssS'27lm3yIbCVK72Sxzg2bC2q'
p1904
(dp1905
g3
S'PA Sports'
p1906
sg5
I1
sg6
S'https://open.spotify.com/track/27lm3yIbCVK72Sxzg2bC2q'
p1907
sg8
S'HSHC'
p1908
ssS'6oh6njZqTXlIkHDC2tjvWi'
p1909
(dp1910
g3
S'Cro'
p1911
sg5
I3
sg6
S'https://open.spotify.com/track/6oh6njZqTXlIkHDC2tjvWi'
p1912
sg8
S'todas'
p1913
ssS'2r7kaAuM7HX75w8XmihoYd'
p1914
(dp1915
g3
S'Capital Bra'
p1916
sg5
I1
sg6
S'https://open.spotify.com/track/2r7kaAuM7HX75w8XmihoYd'
p1917
sg8
S'Ich mach alles kaputt'
p1918
ssS'1BUi9x7vl6q20HA2J0aiyU'
p1919
(dp1920
g3
S'Kurdo'
p1921
sg5
I1
sg6
S'https://open.spotify.com/track/1BUi9x7vl6q20HA2J0aiyU'
p1922
sg8
S'Rolling Stone'
p1923
ssS'65zxRgDkq3Udy1X4ikkx8b'
p1924
(dp1925
g3
S'Prinz Pi'
p1926
sg5
I2
sg6
S'https://open.spotify.com/track/65zxRgDkq3Udy1X4ikkx8b'
p1927
sg8
S'Hellrot'
p1928
ssS'5fnEHEsfQCtyH78Dgiecxo'
p1929
(dp1930
g3
S'Trailerpark'
p1931
sg5
I1
sg6
S'https://open.spotify.com/track/5fnEHEsfQCtyH78Dgiecxo'
p1932
sg8
S'Armut treibt Jugendliche in die Popmusik'
p1933
ssS'5DunkTHxwszBIlEdBeyU6q'
p1934
(dp1935
g3
S'Topic'
p1936
sg5
I11
sg6
S'https://open.spotify.com/track/5DunkTHxwszBIlEdBeyU6q'
p1937
sg8
S'Break My Habits'
p1938
ssS'5tz69p7tJuGPeMGwNTxYuV'
p1939
(dp1940
g3
S'Logic'
p1941
sg5
I19
sg6
S'https://open.spotify.com/track/5tz69p7tJuGPeMGwNTxYuV'
p1942
sg8
S'1-800-273-8255'
p1943
ssS'5fc6rQgAKiLutfUYWQ6QnJ'
p1944
(dp1945
g3
S'Sia'
p1946
sg5
I5
sg6
S'https://open.spotify.com/track/5fc6rQgAKiLutfUYWQ6QnJ'
p1947
sg8
S'Helium - From Fifty Shades Darker (Original Motion Picture Soundtrack)'
p1948
ssS'0NiXXAI876aGImAd6rTj8w'
p1949
(dp1950
g3
S'Jonas Blue'
p1951
sg5
I14
sg6
S'https://open.spotify.com/track/0NiXXAI876aGImAd6rTj8w'
p1952
sg8
S'Mama'
p1953
ssS'343YBumqHu19cGoGARUTsd'
p1954
(dp1955
g3
S'Drake'
p1956
sg5
I20
sg6
S'https://open.spotify.com/track/343YBumqHu19cGoGARUTsd'
p1957
sg8
S'Fake Love'
p1958
ssS'5HDPtsnyb3maFmPL8LLUTG'
p1959
(dp1960
g3
S'Ed Sheeran'
p1961
sg5
I8
sg6
S'https://open.spotify.com/track/5HDPtsnyb3maFmPL8LLUTG'
p1962
sg8
S'New Man'
p1963
ssS'3D3Tkk0d9UmECpH5Fprmuv'
p1964
(dp1965
g3
S'SRTW'
p1966
sg5
I11
sg6
S'https://open.spotify.com/track/3D3Tkk0d9UmECpH5Fprmuv'
p1967
sg8
S'Whispering Still (feat. Charity Children) - Little Rose Remix'
p1968
ssS'5MQnMbyLe8aviuxO4Wwh3L'
p1969
(dp1970
g3
S'John Legend'
p1971
sg5
I1
sg6
S'https://open.spotify.com/track/5MQnMbyLe8aviuxO4Wwh3L'
p1972
sg8
S'Under the Stars'
p1973
ssS'5wRPVa6hCNtRm3Qay2K7RW'
p1974
(dp1975
g3
S'Luciano'
p1976
sg5
I12
sg6
S'https://open.spotify.com/track/5wRPVa6hCNtRm3Qay2K7RW'
p1977
sg8
S'Jagen die Mio - Bonus Track'
p1978
ssS'3aLSrx8qhssXrh5yjB6oy9'
p1979
(dp1980
g3
S'Martin Solveig'
p1981
sg5
I12
sg6
S'https://open.spotify.com/track/3aLSrx8qhssXrh5yjB6oy9'
p1982
sg8
S'All Stars'
p1983
ssS'0Mr3MYHrxsKjtq11pemBpu'
p1984
(dp1985
g3
S'Majoe'
p1986
sg5
I2
sg6
S'https://open.spotify.com/track/0Mr3MYHrxsKjtq11pemBpu'
p1987
sg8
S'Narben (feat. MoTrip)'
p1988
ssS'6F0fXw4G0dqRWJnvWPZM67'
p1989
(dp1990
g3
S'Kollegah'
p1991
sg5
I3
sg6
S'https://open.spotify.com/track/6F0fXw4G0dqRWJnvWPZM67'
p1992
sg8
S"Zieh' den Rucksack aus"
p1993
ssS'4pdPtRcBmOSQDlJ3Fk945m'
p1994
(dp1995
g3
S'DJ Snake'
p1996
sg5
I24
sg6
S'https://open.spotify.com/track/4pdPtRcBmOSQDlJ3Fk945m'
p1997
sg8
S'Let Me Love You'
p1998
ssS'5EnYT6F7wEcdege6mDHEfO'
p1999
(dp2000
g3
S'Drake'
p2001
sg5
I8
sg6
S'https://open.spotify.com/track/5EnYT6F7wEcdege6mDHEfO'
p2002
sg8
S'Signs'
p2003
ssS'3C0XXgpDgN4UMqC5rATVyO'
p2004
(dp2005
g3
S'Capital Bra'
p2006
sg5
I2
sg6
S'https://open.spotify.com/track/3C0XXgpDgN4UMqC5rATVyO'
p2007
sg8
S'Richtung Para'
p2008
ssS'1OAiWI2oPmglaOiv9fdioU'
p2009
(dp2010
g3
S'Coldplay'
p2011
sg5
I5
sg6
S'https://open.spotify.com/track/1OAiWI2oPmglaOiv9fdioU'
p2012
sg8
S'Hymn For The Weekend - Seeb Remix'
p2013
ssS'6pdd0UgFVtEBEUPsH4Iz94'
p2014
(dp2015
g3
S'Mert'
p2016
sg5
I1
sg6
S'https://open.spotify.com/track/6pdd0UgFVtEBEUPsH4Iz94'
p2017
sg8
S'Das ist KiK'
p2018
ssS'2wClcS0uXRVwUhuZBIVpQp'
p2019
(dp2020
g3
S'LX'
p2021
sg5
I3
sg6
S'https://open.spotify.com/track/2wClcS0uXRVwUhuZBIVpQp'
p2022
sg8
S'Wieder vereint'
p2023
ssS'7LEydI5NfjY6mZfKwYIptZ'
p2024
(dp2025
g3
S'Fifth Harmony'
p2026
sg5
I1
sg6
S'https://open.spotify.com/track/7LEydI5NfjY6mZfKwYIptZ'
p2027
sg8
S'Down'
p2028
ssS'5QbV0bUKHj33EySKPw9wOH'
p2029
(dp2030
g3
S'PA Sports'
p2031
sg5
I3
sg6
S'https://open.spotify.com/track/5QbV0bUKHj33EySKPw9wOH'
p2032
sg8
S'HSHC'
p2033
ssS'2Na0z2gfN67Rzf0vp74Wi3'
p2034
(dp2035
g3
S'Drake'
p2036
sg5
I1
sg6
S'https://open.spotify.com/track/2Na0z2gfN67Rzf0vp74Wi3'
p2037
sg8
S'Lose You'
p2038
ssS'5qeL0fWg4IDLZNUjVu53f2'
p2039
(dp2040
g3
S'filous'
p2041
sg5
I1
sg6
S'https://open.spotify.com/track/5qeL0fWg4IDLZNUjVu53f2'
p2042
sg8
S'Feel Good Inc.'
p2043
ssS'3OSjGvo7Cv04JTfZaXnZaL'
p2044
(dp2045
g3
S'SXTN'
p2046
sg5
I11
sg6
S'https://open.spotify.com/track/3OSjGvo7Cv04JTfZaXnZaL'
p2047
sg8
S'Fotzen im Club'
p2048
ssS'4IT5Mf72LNjw7rzY1jZ1IV'
p2049
(dp2050
g3
S'Hanybal'
p2051
sg5
I10
sg6
S'https://open.spotify.com/track/4IT5Mf72LNjw7rzY1jZ1IV'
p2052
sg8
S'Vanilla Sky'
p2053
ssS'7s0Qu88sgiKcMlO6c62juQ'
p2054
(dp2055
g3
S'Savas'
p2056
sg5
I1
sg6
S'https://open.spotify.com/track/7s0Qu88sgiKcMlO6c62juQ'
p2057
sg8
S'Hall Of Fame'
p2058
ssS'63LvjNBXrndYyaL83C5nwZ'
p2059
(dp2060
g3
S'Savas'
p2061
sg5
I1
sg6
S'https://open.spotify.com/track/63LvjNBXrndYyaL83C5nwZ'
p2062
sg8
S'Wenn ich oben bin'
p2063
ssS'5OOkp4U9P9oL23maHFHL1h'
p2064
(dp2065
g3
S'Desiigner'
p2066
sg5
I22
sg6
S'https://open.spotify.com/track/5OOkp4U9P9oL23maHFHL1h'
p2067
sg8
S'Panda'
p2068
ssS'2KMJ5CoxY4ECG9TZyNWmpv'
p2069
(dp2070
g3
S'Robin Schulz'
p2071
sg5
I4
sg6
S'https://open.spotify.com/track/2KMJ5CoxY4ECG9TZyNWmpv'
p2072
sg8
S'Heatwave (feat. Akon)'
p2073
ssS'7anBA0IdgFaN3Pbyk2tog0'
p2074
(dp2075
g3
S'Alice Merton'
p2076
sg5
I10
sg6
S'https://open.spotify.com/track/7anBA0IdgFaN3Pbyk2tog0'
p2077
sg8
S'No Roots'
p2078
ssS'3qmvK8QARSPkFTuKeIXSbs'
p2079
(dp2080
g3
S'Linkin Park'
p2081
sg5
I1
sg6
S'https://open.spotify.com/track/3qmvK8QARSPkFTuKeIXSbs'
p2082
sg8
S'Bleed It Out'
p2083
ssS'7y6c07pgjZvtHI9kuMVqk1'
p2084
(dp2085
g3
S'Drake'
p2086
sg5
I3
sg6
S'https://open.spotify.com/track/7y6c07pgjZvtHI9kuMVqk1'
p2087
sg8
S'Get It Together'
p2088
ssS'4xlrALxuaCf9yZBHJeTSG6'
p2089
(dp2090
g3
S'Jonas Blue'
p2091
sg5
I9
sg6
S'https://open.spotify.com/track/4xlrALxuaCf9yZBHJeTSG6'
p2092
sg8
S'Mama'
p2093
ssS'0UD507pTePjxhtnpTOWmKX'
p2094
(dp2095
g3
S'Kontra K'
p2096
sg5
I15
sg6
S'https://open.spotify.com/track/0UD507pTePjxhtnpTOWmKX'
p2097
sg8
S'Plem Plem (feat. Raf Camora & Bonez MC)'
p2098
ssS'3up1uPuvL5vkfJ6aOeSRtD'
p2099
(dp2100
g3
S'Ma\xc3\xaetre Gims'
p2101
sg5
I33
sg6
S'https://open.spotify.com/track/3up1uPuvL5vkfJ6aOeSRtD'
p2102
sg8
S'Loin - Pilule Violette'
p2103
ssS'2nvUC76Xju4HuqIFXeiCyI'
p2104
(dp2105
g3
S'Kollegah'
p2106
sg5
I2
sg6
S'https://open.spotify.com/track/2nvUC76Xju4HuqIFXeiCyI'
p2107
sg8
S'Sturmmaske Auf [Intro]'
p2108
ssS'2i3WO0WkrlnrA1I4GdUmxh'
p2109
(dp2110
g3
S'Robin Schulz'
p2111
sg5
I2
sg6
S'https://open.spotify.com/track/2i3WO0WkrlnrA1I4GdUmxh'
p2112
sg8
S"I Believe I'm Fine"
p2113
ssS'79cuOz3SPQTuFrp8WgftAu'
p2114
(dp2115
g3
S'Shawn Mendes'
p2116
sg5
I25
sg6
S'https://open.spotify.com/track/79cuOz3SPQTuFrp8WgftAu'
p2117
sg8
S"There's Nothing Holdin' Me Back"
p2118
ssS'4c2W3VKsOFoIg2SFaO6DY5'
p2119
(dp2120
g3
S'Rita Ora'
p2121
sg5
I20
sg6
S'https://open.spotify.com/track/4c2W3VKsOFoIg2SFaO6DY5'
p2122
sg8
S'Your Song'
p2123
ssS'7sU6BDmS1qwb78OpUMARPb'
p2124
(dp2125
g3
S'Hitimpulse'
p2126
sg5
I10
sg6
S'https://open.spotify.com/track/7sU6BDmS1qwb78OpUMARPb'
p2127
sg8
S"I'm in Love with the Coco"
p2128
ssS'1uGERQ2DVv7j9WSsWzOHVp'
p2129
(dp2130
g3
S'RAF Camora'
p2131
sg5
I7
sg6
S'https://open.spotify.com/track/1uGERQ2DVv7j9WSsWzOHVp'
p2132
sg8
S'Kontrollieren'
p2133
ssS'6ZX2qXkhaueabbzp6vfabS'
p2134
(dp2135
g3
S'ALMA'
p2136
sg5
I1
sg6
S'https://open.spotify.com/track/6ZX2qXkhaueabbzp6vfabS'
p2137
sg8
S'Phases'
p2138
ssS'5WJBABuzrSRSVYnw3j7dqR'
p2139
(dp2140
g3
S'Capital Bra'
p2141
sg5
I2
sg6
S'https://open.spotify.com/track/5WJBABuzrSRSVYnw3j7dqR'
p2142
sg8
S'KUKU SLS'
p2143
ssS'42oCYFMvMVyfqPTWi49I8v'
p2144
(dp2145
g3
S'Azad'
p2146
sg5
I3
sg6
S'https://open.spotify.com/track/42oCYFMvMVyfqPTWi49I8v'
p2147
sg8
S'Conor McGregor'
p2148
ssS'7fUWZUNj5qbEuoL6K9947g'
p2149
(dp2150
g3
S'Nimo'
p2151
sg5
I18
sg6
S'https://open.spotify.com/track/7fUWZUNj5qbEuoL6K9947g'
p2152
sg8
S'Heute mit mir'
p2153
ssS'3eR23VReFzcdmS7TYCrhCe'
p2154
(dp2155
g3
S'Kygo'
p2156
sg5
I33
sg6
S'https://open.spotify.com/track/3eR23VReFzcdmS7TYCrhCe'
p2157
sg8
S"It Ain't Me (with Selena Gomez)"
p2158
ssS'1bPEq4wPpBQXc7iPjeInig'
p2159
(dp2160
g3
S'Fler'
p2161
sg5
I1
sg6
S'https://open.spotify.com/track/1bPEq4wPpBQXc7iPjeInig'
p2162
sg8
S'Paradies'
p2163
ssS'7bTOo2cEsj7HqColBVPkm1'
p2164
(dp2165
g3
S'Cro'
p2166
sg5
I1
sg6
S'https://open.spotify.com/track/7bTOo2cEsj7HqColBVPkm1'
p2167
sg8
S'baum'
p2168
ssS'2KHbPYI22yWIOgWUsApYIS'
p2169
(dp2170
g3
S'Miami Yacine'
p2171
sg5
I42
sg6
S'https://open.spotify.com/track/2KHbPYI22yWIOgWUsApYIS'
p2172
sg8
S'Kokaina'
p2173
ssS'0zMzyHAeMvwq5CRstru1Fp'
p2174
(dp2175
g3
S'Ruth B.'
p2176
sg5
I3
sg6
S'https://open.spotify.com/track/0zMzyHAeMvwq5CRstru1Fp'
p2177
sg8
S'Lost Boy'
p2178
ssS'4xuVfUXkHe1YZZZWNICGcV'
p2179
(dp2180
g3
S'Kontra K'
p2181
sg5
I3
sg6
S'https://open.spotify.com/track/4xuVfUXkHe1YZZZWNICGcV'
p2182
sg8
S'Erfolg ist kein Gl\xc3\xbcck'
p2183
ssS'4v4ZuW2tjSyyci2BcE5bTp'
p2184
(dp2185
g3
S'Capital Bra'
p2186
sg5
I2
sg6
S'https://open.spotify.com/track/4v4ZuW2tjSyyci2BcE5bTp'
p2187
sg8
S'Ol\xc3\xa9 Ol\xc3\xa9'
p2188
ssS'19WjVVgXjdKXfLXoaDPwTM'
p2189
(dp2190
g3
S'Taylor Swift'
p2191
sg5
I5
sg6
S'https://open.spotify.com/track/19WjVVgXjdKXfLXoaDPwTM'
p2192
sg8
S'...Ready For It?'
p2193
ssS'1kOq5WUS8KYID3pJXpnX7k'
p2194
(dp2195
g3
S'Kraftklub'
p2196
sg5
I2
sg6
S'https://open.spotify.com/track/1kOq5WUS8KYID3pJXpnX7k'
p2197
sg8
S'Chemie Chemie Ya'
p2198
ssS'06SlruQYZCozqCdlar8Y2g'
p2199
(dp2200
g3
S'Cro'
p2201
sg5
I4
sg6
S'https://open.spotify.com/track/06SlruQYZCozqCdlar8Y2g'
p2202
sg8
S'tru'
p2203
ssS'1eMbgZ0XqwzdmqsBmBGOM5'
p2204
(dp2205
g3
S'KC Rebell'
p2206
sg5
I2
sg6
S'https://open.spotify.com/track/1eMbgZ0XqwzdmqsBmBGOM5'
p2207
sg8
S'Du musst mir geben'
p2208
ssS'73R9IJbuSGVrH5k5XM63gv'
p2209
(dp2210
g3
S'SpongeBOZZ'
p2211
sg5
I1
sg6
S'https://open.spotify.com/track/73R9IJbuSGVrH5k5XM63gv'
p2212
sg8
S'A.C.A.B. II'
p2213
ssS'1fcIMSHfedfVp1saA88FRj'
p2214
(dp2215
g3
S'TJ_beastboy'
p2216
sg5
I1
sg6
S'https://open.spotify.com/track/1fcIMSHfedfVp1saA88FRj'
p2217
sg8
S'Good Morning'
p2218
ssS'7neLRiDEffSr5kl0wYU7Xw'
p2219
(dp2220
g3
S'Marteria'
p2221
sg5
I13
sg6
S'https://open.spotify.com/track/7neLRiDEffSr5kl0wYU7Xw'
p2222
sg8
S'El Presidente'
p2223
ssS'5bZtRlMBU76vHuDOb1GM5u'
p2224
(dp2225
g3
S'Jonas Blue'
p2226
sg5
I1
sg6
S'https://open.spotify.com/track/5bZtRlMBU76vHuDOb1GM5u'
p2227
sg8
S'Perfect Strangers'
p2228
ssS'63SGQVGRElERHTuljbqCsD'
p2229
(dp2230
g3
S'187 Strassenbande'
p2231
sg5
I4
sg6
S'https://open.spotify.com/track/63SGQVGRElERHTuljbqCsD'
p2232
sg8
S'Mit Absicht'
p2233
ssS'0GR2HhZteEmmcLf02bLXid'
p2234
(dp2235
g3
S'Marteria'
p2236
sg5
I1
sg6
S'https://open.spotify.com/track/0GR2HhZteEmmcLf02bLXid'
p2237
sg8
S'Links'
p2238
ssS'7taXf5odg9xCAZERYfyOkS'
p2239
(dp2240
g3
S'Jos\xc3\xa9 Feliciano'
p2241
sg5
I1
sg6
S'https://open.spotify.com/track/7taXf5odg9xCAZERYfyOkS'
p2242
sg8
S'Feliz Navidad'
p2243
ssS'0PnctHaHNXS61dCBN04Ljb'
p2244
(dp2245
g3
S'SXTN'
p2246
sg5
I1
sg6
S'https://open.spotify.com/track/0PnctHaHNXS61dCBN04Ljb'
p2247
sg8
S'Von Party zu Party'
p2248
ssS'1OmcAT5Y8eg5bUPv9qJT4R'
p2249
(dp2250
g3
S'Post Malone'
p2251
sg5
I3
sg6
S'https://open.spotify.com/track/1OmcAT5Y8eg5bUPv9qJT4R'
p2252
sg8
S'rockstar'
p2253
ssS'3hRZsdTF5uyGA2uhNqEuhm'
p2254
(dp2255
g3
S'Niall Horan'
p2256
sg5
I4
sg6
S'https://open.spotify.com/track/3hRZsdTF5uyGA2uhNqEuhm'
p2257
sg8
S'Too Much To Ask'
p2258
ssS'4pqCienGuMIbOdsHaOpf7V'
p2259
(dp2260
g3
S'Capital Bra'
p2261
sg5
I2
sg6
S'https://open.spotify.com/track/4pqCienGuMIbOdsHaOpf7V'
p2262
sg8
S'Das Leben ist so'
p2263
ssS'2mfUa8bLs2s5N4VaqJZ4lZ'
p2264
(dp2265
g3
S'Hailee Steinfeld'
p2266
sg5
I18
sg6
S'https://open.spotify.com/track/2mfUa8bLs2s5N4VaqJZ4lZ'
p2267
sg8
S'Most Girls'
p2268
ssS'7HR5qYGKtzopXoN0CdMirL'
p2269
(dp2270
g3
S'Veysel'
p2271
sg5
I4
sg6
S'https://open.spotify.com/track/7HR5qYGKtzopXoN0CdMirL'
p2272
sg8
S'Yakuza'
p2273
ssS'4aWmUDTfIPGksMNLV2rQP2'
p2274
(dp2275
g3
S'Luis Fonsi'
p2276
sg5
I38
sg6
S'https://open.spotify.com/track/4aWmUDTfIPGksMNLV2rQP2'
p2277
sg8
S'Despacito (Featuring Daddy Yankee)'
p2278
ssS'58zsLZPvfflaiIbNWoA22O'
p2279
(dp2280
g3
S"Rag'n'Bone Man"
p2281
sg5
I24
sg6
S'https://open.spotify.com/track/58zsLZPvfflaiIbNWoA22O'
p2282
sg8
S'Human'
p2283
ssS'1vza0Eqjzqw0jJfOGRwg1c'
p2284
(dp2285
g3
S'Gzuz'
p2286
sg5
I6
sg6
S'https://open.spotify.com/track/1vza0Eqjzqw0jJfOGRwg1c'
p2287
sg8
S'Meine Sprache'
p2288
ssS'5dKyZWlgjWw1oJgLa4GCZD'
p2289
(dp2290
g3
S'Tove Lo'
p2291
sg5
I3
sg6
S'https://open.spotify.com/track/5dKyZWlgjWw1oJgLa4GCZD'
p2292
sg8
S'Cool Girl'
p2293
ssS'60APt5N2NRaKWf5xzJdzyC'
p2294
(dp2295
g3
S'Calvin Harris'
p2296
sg5
I2
sg6
S'https://open.spotify.com/track/60APt5N2NRaKWf5xzJdzyC'
p2297
sg8
S'Heatstroke'
p2298
ssS'25C5CowdsfXld2jJanbiex'
p2299
(dp2300
g3
S'Demi Lovato'
p2301
sg5
I11
sg6
S'https://open.spotify.com/track/25C5CowdsfXld2jJanbiex'
p2302
sg8
S'Sorry Not Sorry'
p2303
ssS'7MFl1XcwOrMIlZ3R4MzREK'
p2304
(dp2305
g3
S'Chris Rea'
p2306
sg5
I1
sg6
S'https://open.spotify.com/track/7MFl1XcwOrMIlZ3R4MzREK'
p2307
sg8
S'Driving Home For Christmas'
p2308
ssS'7istTRCq9OK5cEC8sPAc50'
p2309
(dp2310
g3
S'Bonez MC'
p2311
sg5
I41
sg6
S'https://open.spotify.com/track/7istTRCq9OK5cEC8sPAc50'
p2312
sg8
S'An ihnen vorbei'
p2313
ssS'0azC730Exh71aQlOt9Zj3y'
p2314
(dp2315
g3
S'Calvin Harris'
p2316
sg5
I5
sg6
S'https://open.spotify.com/track/0azC730Exh71aQlOt9Zj3y'
p2317
sg8
S'This Is What You Came For'
p2318
ssS'2Z8WuEywRWYTKe1NybPQEW'
p2319
(dp2320
g3
S'Twenty One Pilots'
p2321
sg5
I12
sg6
S'https://open.spotify.com/track/2Z8WuEywRWYTKe1NybPQEW'
p2322
sg8
S'Ride'
p2323
ssS'000xQL6tZNLJzIrtIgxqSl'
p2324
(dp2325
g3
S'ZAYN'
p2326
sg5
I8
sg6
S'https://open.spotify.com/track/000xQL6tZNLJzIrtIgxqSl'
p2327
sg8
S'Still Got Time'
p2328
ssS'2n7zISWD4izoHXWcXeCoZf'
p2329
(dp2330
g3
S'Fler'
p2331
sg5
I1
sg6
S'https://open.spotify.com/track/2n7zISWD4izoHXWcXeCoZf'
p2332
sg8
S'Slowmotion'
p2333
ssS'2nYpbaLykC2cjU8Yt5KF1v'
p2334
(dp2335
g3
S'Mark Forster'
p2336
sg5
I36
sg6
S'https://open.spotify.com/track/2nYpbaLykC2cjU8Yt5KF1v'
p2337
sg8
S'Ch\xc3\xb6re'
p2338
ssS'52okn5MNA47tk87PeZJLEL'
p2339
(dp2340
g3
S'NF'
p2341
sg5
I1
sg6
S'https://open.spotify.com/track/52okn5MNA47tk87PeZJLEL'
p2342
sg8
S'Let You Down'
p2343
ssS'3k2CdmzY58wamdEdIxWPTz'
p2344
(dp2345
g3
S'Nimo'
p2346
sg5
I3
sg6
S'https://open.spotify.com/track/3k2CdmzY58wamdEdIxWPTz'
p2347
sg8
S"Let's Go Amina"
p2348
ssS'6Z0XvbeGzalpzS7qcAK5mX'
p2349
(dp2350
g3
S'KC Rebell'
p2351
sg5
I1
sg6
S'https://open.spotify.com/track/6Z0XvbeGzalpzS7qcAK5mX'
p2352
sg8
S'Outta Control (feat. Hamza)'
p2353
ssS'6JV2JOEocMgcZxYSZelKcc'
p2354
(dp2355
g3
S'Justin Timberlake'
p2356
sg5
I15
sg6
S'https://open.spotify.com/track/6JV2JOEocMgcZxYSZelKcc'
p2357
sg8
S"CAN'T STOP THE FEELING! (Original Song from DreamWorks Animation's TROLLS)"
p2358
ssS'05KOgYg8PGeJyyWBPi5ja8'
p2359
(dp2360
g3
S'Drake'
p2361
sg5
I2
sg6
S'https://open.spotify.com/track/05KOgYg8PGeJyyWBPi5ja8'
p2362
sg8
S'Free Smoke'
p2363
ssS'6De0lHrwBfPfrhorm9q1Xl'
p2364
(dp2365
g3
S'Danny Ocean'
p2366
sg5
I22
sg6
S'https://open.spotify.com/track/6De0lHrwBfPfrhorm9q1Xl'
p2367
sg8
S'Me Reh\xc3\xbaso'
p2368
ssS'6nQb88rB1jDfJVJtyMICR0'
p2369
(dp2370
g3
S'Majoe'
p2371
sg5
I1
sg6
S'https://open.spotify.com/track/6nQb88rB1jDfJVJtyMICR0'
p2372
sg8
S'Ich will mehr (feat. Kollegah) - Bonustrack'
p2373
ssS'7aV2mflaASUmGhCErm7kBO'
p2374
(dp2375
g3
S'Nevada'
p2376
sg5
I18
sg6
S'https://open.spotify.com/track/7aV2mflaASUmGhCErm7kBO'
p2377
sg8
S'The Mack'
p2378
ssS'62kNjXARWUncZVwjfrGDXL'
p2379
(dp2380
g3
S'Miami Yacine'
p2381
sg5
I3
sg6
S'https://open.spotify.com/track/62kNjXARWUncZVwjfrGDXL'
p2382
sg8
S'Montpellier'
p2383
ssS'0bYg9bo50gSsH3LtXe2SQn'
p2384
(dp2385
g3
S'Mariah Carey'
p2386
sg5
I1
sg6
S'https://open.spotify.com/track/0bYg9bo50gSsH3LtXe2SQn'
p2387
sg8
S'All I Want for Christmas Is You'
p2388
ssS'2LMOr7R6bEaYuKXagcrmy7'
p2389
(dp2390
g3
S'Ufo361'
p2391
sg5
I1
sg6
S'https://open.spotify.com/track/2LMOr7R6bEaYuKXagcrmy7'
p2392
sg8
S'Du wei\xc3\x9ft wo ich wohn'
p2393
ssS'3pGtlDRr7v8zqbp4dVMriL'
p2394
(dp2395
g3
S'Bushido'
p2396
sg5
I1
sg6
S'https://open.spotify.com/track/3pGtlDRr7v8zqbp4dVMriL'
p2397
sg8
S'Theorie und Praxis'
p2398
ssS'1CKd1PnqfYx0H12V9MSaIY'
p2399
(dp2400
g3
S'Zedd'
p2401
sg5
I8
sg6
S'https://open.spotify.com/track/1CKd1PnqfYx0H12V9MSaIY'
p2402
sg8
S'Get Low (with Liam Payne)'
p2403
ssS'3rOSwuTsUlJp0Pu0MkN8r8'
p2404
(dp2405
g3
S'Future'
p2406
sg5
I34
sg6
S'https://open.spotify.com/track/3rOSwuTsUlJp0Pu0MkN8r8'
p2407
sg8
S'Mask Off'
p2408
ssS'5m4rKNB8wf2Q4oMupdmXFQ'
p2409
(dp2410
g3
S'KALIM'
p2411
sg5
I3
sg6
S'https://open.spotify.com/track/5m4rKNB8wf2Q4oMupdmXFQ'
p2412
sg8
S'38'
p2413
ssS'0hz4N3VVMKNkXZjF8MIJUG'
p2414
(dp2415
g3
S'Zuna'
p2416
sg5
I2
sg6
S'https://open.spotify.com/track/0hz4N3VVMKNkXZjF8MIJUG'
p2417
sg8
S'Viertel'
p2418
ssS'5c96y4JoyxOFlmLdEqQzGI'
p2419
(dp2420
g3
S'RIN'
p2421
sg5
I1
sg6
S'https://open.spotify.com/track/5c96y4JoyxOFlmLdEqQzGI'
p2422
sg8
S'Sag mir wenn du high bist'
p2423
ssS'1qOLh0tI7trd1zdDKxYZTe'
p2424
(dp2425
g3
S'Hailee Steinfeld'
p2426
sg5
I24
sg6
S'https://open.spotify.com/track/1qOLh0tI7trd1zdDKxYZTe'
p2427
sg8
S'Starving'
p2428
ssS'3nAp4IvdMPPWEH9uuXFFV5'
p2429
(dp2430
g3
S'Kelly Clarkson'
p2431
sg5
I1
sg6
S'https://open.spotify.com/track/3nAp4IvdMPPWEH9uuXFFV5'
p2432
sg8
S'Underneath the Tree'
p2433
ssS'3HVr6jTVwBHBa2flM0eURR'
p2434
(dp2435
g3
S'Macklemore'
p2436
sg5
I14
sg6
S'https://open.spotify.com/track/3HVr6jTVwBHBa2flM0eURR'
p2437
sg8
S'Glorious (feat. Skylar Grey)'
p2438
ssS'7inXu0Eaeg02VsM8kHNvzM'
p2439
(dp2440
g3
S'Frank Sinatra'
p2441
sg5
I1
sg6
S'https://open.spotify.com/track/7inXu0Eaeg02VsM8kHNvzM'
p2442
sg8
S'Let It Snow! Let It Snow! Let It Snow!'
p2443
ssS'0JiVRyTJcJnmlwCZ854K4p'
p2444
(dp2445
g3
S'Alan Walker'
p2446
sg5
I29
sg6
S'https://open.spotify.com/track/0JiVRyTJcJnmlwCZ854K4p'
p2447
sg8
S'Alone'
p2448
ssS'1cG0umU5TKStygKsPFZ9pY'
p2449
(dp2450
g3
S'Robin Schulz'
p2451
sg5
I35
sg6
S'https://open.spotify.com/track/1cG0umU5TKStygKsPFZ9pY'
p2452
sg8
S'Shed a Light'
p2453
ssS'7xHWNBFm6ObGEQPaUxHuKO'
p2454
(dp2455
g3
S'Sia'
p2456
sg5
I8
sg6
S'https://open.spotify.com/track/7xHWNBFm6ObGEQPaUxHuKO'
p2457
sg8
S'The Greatest'
p2458
ssS'3caMfJGFp53NAH2TuigdNj'
p2459
(dp2460
g3
S'Galantis'
p2461
sg5
I19
sg6
S'https://open.spotify.com/track/3caMfJGFp53NAH2TuigdNj'
p2462
sg8
S'Hunter'
p2463
ssS'4CmgZ1nRyMD9in8URnPycY'
p2464
(dp2465
g3
S'Casper'
p2466
sg5
I1
sg6
S'https://open.spotify.com/track/4CmgZ1nRyMD9in8URnPycY'
p2467
sg8
S'Meine K\xc3\xbcndigung'
p2468
ssS'6EpRaXYhGOB3fj4V2uDkMJ'
p2469
(dp2470
g3
S'Liam Payne'
p2471
sg5
I21
sg6
S'https://open.spotify.com/track/6EpRaXYhGOB3fj4V2uDkMJ'
p2472
sg8
S'Strip That Down'
p2473
ssS'5NafFxaLg9Ep21oTHBw7Zq'
p2474
(dp2475
g3
S'ALMA'
p2476
sg5
I13
sg6
S'https://open.spotify.com/track/5NafFxaLg9Ep21oTHBw7Zq'
p2477
sg8
S'Dye My Hair'
p2478
ssS'3Db8OhBMmNPLv2rHYoP7Wf'
p2479
(dp2480
g3
S'John Gibbons'
p2481
sg5
I1
sg6
S'https://open.spotify.com/track/3Db8OhBMmNPLv2rHYoP7Wf'
p2482
sg8
S'P.Y.T. (Pretty Young Thing)'
p2483
ssS'1wjzFQodRWrPcQ0AnYnvQ9'
p2484
(dp2485
g3
S'Lauv'
p2486
sg5
I17
sg6
S'https://open.spotify.com/track/1wjzFQodRWrPcQ0AnYnvQ9'
p2487
sg8
S'I Like Me Better'
p2488
ssS'4O4xuKdvJvl7HpFlYGwudS'
p2489
(dp2490
g3
S'The xx'
p2491
sg5
I1
sg6
S'https://open.spotify.com/track/4O4xuKdvJvl7HpFlYGwudS'
p2492
sg8
S'Replica'
p2493
ssS'4PdJSsESm34djLfBde9Pr2'
p2494
(dp2495
g3
S'David Guetta'
p2496
sg5
I20
sg6
S'https://open.spotify.com/track/4PdJSsESm34djLfBde9Pr2'
p2497
sg8
S'Would I Lie To You - Radio Edit'
p2498
ssS'1eXBgeGq201kzyCqszf6CJ'
p2499
(dp2500
g3
S'Soufian'
p2501
sg5
I1
sg6
S'https://open.spotify.com/track/1eXBgeGq201kzyCqszf6CJ'
p2502
sg8
S'Wer ist die 1 (feat. Capo)'
p2503
ssS'7abpmGpF7PGep2rDU68GBR'
p2504
(dp2505
g3
S'Burak Yeter'
p2506
sg5
I35
sg6
S'https://open.spotify.com/track/7abpmGpF7PGep2rDU68GBR'
p2507
sg8
S'Tuesday'
p2508
ssS'6HxFJbQahRd5rWQ752D710'
p2509
(dp2510
g3
S'Capo'
p2511
sg5
I15
sg6
S'https://open.spotify.com/track/6HxFJbQahRd5rWQ752D710'
p2512
sg8
S'Lambo Diablo GT (feat. Nimo)'
p2513
ssS'5fzDpw2ecK1KghidsBVM4q'
p2514
(dp2515
g3
S'187 Strassenbande'
p2516
sg5
I6
sg6
S'https://open.spotify.com/track/5fzDpw2ecK1KghidsBVM4q'
p2517
sg8
S'30er Zone'
p2518
ssS'5Qht2aUJcCjRuhrlHvvKt2'
p2519
(dp2520
g3
S'Lorenz B\xc3\xbcffel'
p2521
sg5
I3
sg6
S'https://open.spotify.com/track/5Qht2aUJcCjRuhrlHvvKt2'
p2522
sg8
S'Johnny D\xc3\xa4pp'
p2523
ssS'39qlqpwVzRkQP6WsILfIB5'
p2524
(dp2525
g3
S'KC Rebell'
p2526
sg5
I20
sg6
S'https://open.spotify.com/track/39qlqpwVzRkQP6WsILfIB5'
p2527
sg8
S'Murcielago'
p2528
ssS'767AsV1cQwmOU4PJG96MzO'
p2529
(dp2530
g3
S'Martin Solveig'
p2531
sg5
I4
sg6
S'https://open.spotify.com/track/767AsV1cQwmOU4PJG96MzO'
p2532
sg8
S'Do It Right'
p2533
ssS'5Z01UMMf7V1o0MzF86s6WJ'
p2534
(dp2535
g3
S'Eminem'
p2536
sg5
I39
sg6
S'https://open.spotify.com/track/5Z01UMMf7V1o0MzF86s6WJ'
p2537
sg8
S'Lose Yourself - Soundtrack Version'
p2538
ssS'1KqvRRQd3lfM0pAlkGPrgD'
p2539
(dp2540
g3
S'Ed Sheeran'
p2541
sg5
I1
sg6
S'https://open.spotify.com/track/1KqvRRQd3lfM0pAlkGPrgD'
p2542
sg8
S'Shape of You (Major Lazer Remix) [feat. Nyla & Kranium]'
p2543
ssS'2XMTqoHHSH0lvuXrvIEdco'
p2544
(dp2545
g3
S'FRENSHIP'
p2546
sg5
I12
sg6
S'https://open.spotify.com/track/2XMTqoHHSH0lvuXrvIEdco'
p2547
sg8
S'Capsize'
p2548
ssS'5MFzQMkrl1FOOng9tq6R9r'
p2549
(dp2550
g3
S'Maroon 5'
p2551
sg5
I12
sg6
S'https://open.spotify.com/track/5MFzQMkrl1FOOng9tq6R9r'
p2552
sg8
S"Don't Wanna Know"
p2553
ssS'5Z3GHaZ6ec9bsiI5BenrbY'
p2554
(dp2555
g3
S'Khalid'
p2556
sg5
I8
sg6
S'https://open.spotify.com/track/5Z3GHaZ6ec9bsiI5BenrbY'
p2557
sg8
S'Young Dumb & Broke'
p2558
ssS'1Rl40PsX4mh9xVOeGHq86B'
p2559
(dp2560
g3
S'Whethan'
p2561
sg5
I9
sg6
S'https://open.spotify.com/track/1Rl40PsX4mh9xVOeGHq86B'
p2562
sg8
S'Savage (feat. Flux Pavilion & MAX)'
p2563
ssS'3FDrI0FLKzrYQiWxPhqV2W'
p2564
(dp2565
g3
S'Calvin Harris'
p2566
sg5
I4
sg6
S'https://open.spotify.com/track/3FDrI0FLKzrYQiWxPhqV2W'
p2567
sg8
S'Rollin'
p2568
ssS'1FgmP7AOTcn7MGYmImj0kn'
p2569
(dp2570
g3
S'Macklemore'
p2571
sg5
I1
sg6
S'https://open.spotify.com/track/1FgmP7AOTcn7MGYmImj0kn'
p2572
sg8
S"Ain't Gonna Die Tonight (feat. Eric Nally)"
p2573
ssS'7gcKoI9KokClK9ZUjNFgZa'
p2574
(dp2575
g3
S'Rolf Zuckowski'
p2576
sg5
I1
sg6
S'https://open.spotify.com/track/7gcKoI9KokClK9ZUjNFgZa'
p2577
sg8
S'In der Weihnachtsb\xc3\xa4ckerei'
p2578
ssS'4ZqYgipWXTGXBXF6FvOhwC'
p2579
(dp2580
g3
S'Bushido'
p2581
sg5
I6
sg6
S'https://open.spotify.com/track/4ZqYgipWXTGXBXF6FvOhwC'
p2582
sg8
S'Moonwalk'
p2583
ssS'6O3MwxCWykOYhMGTKNYeXv'
p2584
(dp2585
g3
S'Majoe'
p2586
sg5
I2
sg6
S'https://open.spotify.com/track/6O3MwxCWykOYhMGTKNYeXv'
p2587
sg8
S'Stresserblick 2 (feat. Kurdo)'
p2588
ssS'4i9ZRPZbz683dAMVSU4zlm'
p2589
(dp2590
g3
S'Bonez MC'
p2591
sg5
I26
sg6
S'https://open.spotify.com/track/4i9ZRPZbz683dAMVSU4zlm'
p2592
sg8
S'Atramis'
p2593
ssS'5CtI0qwDJkDQGwXD1H1cLb'
p2594
(dp2595
g3
S'Luis Fonsi'
p2596
sg5
I26
sg6
S'https://open.spotify.com/track/5CtI0qwDJkDQGwXD1H1cLb'
p2597
sg8
S'Despacito - Remix'
p2598
ssS'1WP1r7fuvRqZRnUaTi2I1Q'
p2599
(dp2600
g3
S'Shawn Mendes'
p2601
sg5
I5
sg6
S'https://open.spotify.com/track/1WP1r7fuvRqZRnUaTi2I1Q'
p2602
sg8
S'Stitches'
p2603
ssS'6r4dRb9m9OIlj3VTrWPMuX'
p2604
(dp2605
g3
S'Kurdo'
p2606
sg5
I1
sg6
S'https://open.spotify.com/track/6r4dRb9m9OIlj3VTrWPMuX'
p2607
sg8
S'Maserati'
p2608
ssS'51PIvodunv6NmX5250zxAh'
p2609
(dp2610
g3
S'Lady Gaga'
p2611
sg5
I13
sg6
S'https://open.spotify.com/track/51PIvodunv6NmX5250zxAh'
p2612
sg8
S'The Cure'
p2613
ssS'3eFJqPe8VUYrABbFjSauuj'
p2614
(dp2615
g3
g1602
sg5
I1
sg6
S'https://open.spotify.com/track/3eFJqPe8VUYrABbFjSauuj'
p2616
sg8
g1602
ssS'1SeZs505JPVuppxhPulyug'
p2617
(dp2618
g3
S'Zuna'
p2619
sg5
I1
sg6
S'https://open.spotify.com/track/1SeZs505JPVuppxhPulyug'
p2620
sg8
S'Lhamdela'
p2621
ssS'5vsfidTTEEpYICg7ag2Nk6'
p2622
(dp2623
g3
S'Savas'
p2624
sg5
I1
sg6
S'https://open.spotify.com/track/5vsfidTTEEpYICg7ag2Nk6'
p2625
sg8
S'Haie'
p2626
ssS'1jYiIOC5d6soxkJP81fxq2'
p2627
(dp2628
g3
S'DJ Khaled'
p2629
sg5
I1
sg6
S'https://open.spotify.com/track/1jYiIOC5d6soxkJP81fxq2'
p2630
sg8
S"I'm the One"
p2631
ssS'0InjGAVVEsp38MnkRNDy8v'
p2632
(dp2633
g3
S'Gary Washington'
p2634
sg5
I1
sg6
S'https://open.spotify.com/track/0InjGAVVEsp38MnkRNDy8v'
p2635
sg8
S'Wolkenkratzer'
p2636
ssS'5XL8t0sfvBdwdH7RrHQMtv'
p2637
(dp2638
g3
S'Capital Bra'
p2639
sg5
I1
sg6
S'https://open.spotify.com/track/5XL8t0sfvBdwdH7RrHQMtv'
p2640
sg8
S'Intro'
p2641
ssS'0eZBeB2xFIS65jQHerispi'
p2642
(dp2643
g3
S'Disturbed'
p2644
sg5
I16
sg6
S'https://open.spotify.com/track/0eZBeB2xFIS65jQHerispi'
p2645
sg8
S'The Sound Of Silence'
p2646
ssS'7hWwNF1UM1LgWsjnPtQzgT'
p2647
(dp2648
g3
S'Casper'
p2649
sg5
I1
sg6
S'https://open.spotify.com/track/7hWwNF1UM1LgWsjnPtQzgT'
p2650
sg8
S'Morgellon'
p2651
ssS'3VvaEIA0GKihbcWxWDfN33'
p2652
(dp2653
g3
S'Capital Bra'
p2654
sg5
I2
sg6
S'https://open.spotify.com/track/3VvaEIA0GKihbcWxWDfN33'
p2655
sg8
S'Ghetto Massari'
p2656
ssS'2jTujnt0y344ai1rNOywgr'
p2657
(dp2658
g3
S'Drake'
p2659
sg5
I1
sg6
S'https://open.spotify.com/track/2jTujnt0y344ai1rNOywgr'
p2660
sg8
S'KMT'
p2661
ssS'6pVW5LRWgeLaHudxauOTJU'
p2662
(dp2663
g3
S'Daryl Hall & John Oates'
p2664
sg5
I1
sg6
S'https://open.spotify.com/track/6pVW5LRWgeLaHudxauOTJU'
p2665
sg8
S'Jingle Bell Rock from Daryl'
p2666
ssS'5IGMvoiWGZISxUMF7Dk3jC'
p2667
(dp2668
g3
S'Zuna'
p2669
sg5
I2
sg6
S'https://open.spotify.com/track/5IGMvoiWGZISxUMF7Dk3jC'
p2670
sg8
S'KMN'
p2671
ssS'0h4FK0CnlZ3oJnZ6quEk1P'
p2672
(dp2673
g3
S'Seeb'
p2674
sg5
I3
sg6
S'https://open.spotify.com/track/0h4FK0CnlZ3oJnZ6quEk1P'
p2675
sg8
S'What Do You Love'
p2676
ssS'261JjqZxHunllvuzHlVzvS'
p2677
(dp2678
g3
S'Lena'
p2679
sg5
I9
sg6
S'https://open.spotify.com/track/261JjqZxHunllvuzHlVzvS'
p2680
sg8
S'Lost In You'
p2681
ssS'0N6AZnQlHXMBjRkoJHE7hy'
p2682
(dp2683
g3
S'Majoe'
p2684
sg5
I2
sg6
S'https://open.spotify.com/track/0N6AZnQlHXMBjRkoJHE7hy'
p2685
sg8
S'Aus Hatern werden Fans'
p2686
ssS'4h6UIDvGWTYZvu4BLf2GpO'
p2687
(dp2688
g3
S'SXTN'
p2689
sg5
I20
sg6
S'https://open.spotify.com/track/4h6UIDvGWTYZvu4BLf2GpO'
p2690
sg8
S'Von Party zu Party'
p2691
ssS'6qCsTRYKBTzde2oBsFq5fP'
p2692
(dp2693
g3
S'RAF Camora'
p2694
sg5
I3
sg6
S'https://open.spotify.com/track/6qCsTRYKBTzde2oBsFq5fP'
p2695
sg8
S'Vienna'
p2696
ssS'463oFGElXVcP8ueC72zvMj'
p2697
(dp2698
g3
S"Lil' Kleine"
p2699
sg5
I12
sg6
S'https://open.spotify.com/track/463oFGElXVcP8ueC72zvMj'
p2700
sg8
S'Stoff und Schnaps'
p2701
ssS'7nhYUvJs6zPXK6jBhYqcY4'
p2702
(dp2703
g3
S'Zuna'
p2704
sg5
I4
sg6
S'https://open.spotify.com/track/7nhYUvJs6zPXK6jBhYqcY4'
p2705
sg8
S'Mele 7'
p2706
ssS'7AQim7LbvFVZJE3O8TYgf2'
p2707
(dp2708
g3
S'XXXTENTACION'
p2709
sg5
I2
sg6
S'https://open.spotify.com/track/7AQim7LbvFVZJE3O8TYgf2'
p2710
sg8
S'Fuck Love (feat. Trippie Redd)'
p2711
ssS'4fhVodXZARPX0oTuQh8V9l'
p2712
(dp2713
g3
S'Astrid S'
p2714
sg5
I2
sg6
S'https://open.spotify.com/track/4fhVodXZARPX0oTuQh8V9l'
p2715
sg8
S'Breathe'
p2716
ssS'4iPjyH29Cw0PFQ7bR81fHf'
p2717
(dp2718
g3
S'187 Strassenbande'
p2719
sg5
I5
sg6
S'https://open.spotify.com/track/4iPjyH29Cw0PFQ7bR81fHf'
p2720
sg8
S'Zeit ist Geld'
p2721
ssS'3J3JcR6Akadd7R42qoqdhy'
p2722
(dp2723
g3
S'Maxwell'
p2724
sg5
I2
sg6
S'https://open.spotify.com/track/3J3JcR6Akadd7R42qoqdhy'
p2725
sg8
S'Es Rollt'
p2726
ssS'4gZOWIMzQnn8H2ENrs7UsW'
p2727
(dp2728
g3
S'Axwell /\\ Ingrosso'
p2729
sg5
I5
sg6
S'https://open.spotify.com/track/4gZOWIMzQnn8H2ENrs7UsW'
p2730
sg8
S'I Love You'
p2731
ssS'0Nhu3zSYbEz32IYiobV75e'
p2732
(dp2733
g3
S'Halsey'
p2734
sg5
I10
sg6
S'https://open.spotify.com/track/0Nhu3zSYbEz32IYiobV75e'
p2735
sg8
S'Now Or Never'
p2736
ssS'5ysL31dJXdNK1OCI5Hlqe7'
p2737
(dp2738
g3
S'Welshly Arms'
p2739
sg5
I5
sg6
S'https://open.spotify.com/track/5ysL31dJXdNK1OCI5Hlqe7'
p2740
sg8
S'Legendary'
p2741
ssS'6eUncuJutsFi9BGO1JaBHh'
p2742
(dp2743
g3
S'Jason Derulo'
p2744
sg5
I6
sg6
S'https://open.spotify.com/track/6eUncuJutsFi9BGO1JaBHh'
p2745
sg8
S"If I'm Lucky"
p2746
ssS'4vHTCgx5Y9TZaWUjIyuLvo'
p2747
(dp2748
g3
S'Capital Bra'
p2749
sg5
I2
sg6
S'https://open.spotify.com/track/4vHTCgx5Y9TZaWUjIyuLvo'
p2750
sg8
S'Paff Paff weiter 2'
p2751
ssS'2MRa7smgGyELfGEpmw1ILu'
p2752
(dp2753
g3
S'Kurdo'
p2754
sg5
I1
sg6
S'https://open.spotify.com/track/2MRa7smgGyELfGEpmw1ILu'
p2755
sg8
S'Stalin'
p2756
ssS'7qiZfU4dY1lWllzX7mPBI3'
p2757
(dp2758
g3
S'Ed Sheeran'
p2759
sg5
I40
sg6
S'https://open.spotify.com/track/7qiZfU4dY1lWllzX7mPBI3'
p2760
sg8
S'Shape of You'
p2761
ssS'0PR4YJoca5hi2AqIVWRvvr'
p2762
(dp2763
g3
S'Savas'
p2764
sg5
I1
sg6
S'https://open.spotify.com/track/0PR4YJoca5hi2AqIVWRvvr'
p2765
sg8
S'Alles noch beim Alten'
p2766
ssS'60a0Rd6pjrkxjPbaKzXjfq'
p2767
(dp2768
g3
S'Linkin Park'
p2769
sg5
I13
sg6
S'https://open.spotify.com/track/60a0Rd6pjrkxjPbaKzXjfq'
p2770
sg8
S'In The End'
p2771
ssS'73v7Skxgpt5tmqexLpRXdo'
p2772
(dp2773
g3
S'DCVDNS'
p2774
sg5
I1
sg6
S'https://open.spotify.com/track/73v7Skxgpt5tmqexLpRXdo'
p2775
sg8
S'Neuer alter Savas'
p2776
ssS'3pC1ILr9KzmQLMe8Kn5QBG'
p2777
(dp2778
g3
S'DJ Khaled'
p2779
sg5
I1
sg6
S'https://open.spotify.com/track/3pC1ILr9KzmQLMe8Kn5QBG'
p2780
sg8
S'To the Max'
p2781
ssS'424hXQ2DfVV6lv8HGmLhvz'
p2782
(dp2783
g3
S'257ers'
p2784
sg5
I1
sg6
S'https://open.spotify.com/track/424hXQ2DfVV6lv8HGmLhvz'
p2785
sg8
S'Holz - Weihnachtslied'
p2786
ssS'5atzkSaRuwgXiPDRi9qyKz'
p2787
(dp2788
g3
S'SpongeBOZZ'
p2789
sg5
I1
sg6
S'https://open.spotify.com/track/5atzkSaRuwgXiPDRi9qyKz'
p2790
sg8
S'La Familia'
p2791
ssS'1QzmdyU1N47jAj0ao5IvlW'
p2792
(dp2793
g3
S'Adel Tawil'
p2794
sg5
I25
sg6
S'https://open.spotify.com/track/1QzmdyU1N47jAj0ao5IvlW'
p2795
sg8
S'Ist da jemand'
p2796
ssS'35QZaWQRkmnAVqBF1TLCxQ'
p2797
(dp2798
g3
S'Ed Sheeran'
p2799
sg5
I7
sg6
S'https://open.spotify.com/track/35QZaWQRkmnAVqBF1TLCxQ'
p2800
sg8
S'Nancy Mulligan'
p2801
ssS'5hz9DEkahyWoTs3rxJOTtw'
p2802
(dp2803
g3
S'Felix Jaehn'
p2804
sg5
I24
sg6
S'https://open.spotify.com/track/5hz9DEkahyWoTs3rxJOTtw'
p2805
sg8
S'Bonfire'
p2806
ssS'3sr3vqiXLSDIMd2XUDsHoK'
p2807
(dp2808
g3
S'Luciano'
p2809
sg5
I11
sg6
S'https://open.spotify.com/track/3sr3vqiXLSDIMd2XUDsHoK'
p2810
sg8
S'Hawaii'
p2811
ssS'0dXNQ8dckG4eYfEtq9zcva'
p2812
(dp2813
g3
S'The Vamps'
p2814
sg5
I1
sg6
S'https://open.spotify.com/track/0dXNQ8dckG4eYfEtq9zcva'
p2815
sg8
S'All Night'
p2816
ssS'3VRk65lHSwqd90TAkQqhvB'
p2817
(dp2818
g3
S'Katy Perry'
p2819
sg5
I2
sg6
S'https://open.spotify.com/track/3VRk65lHSwqd90TAkQqhvB'
p2820
sg8
S'Swish Swish'
p2821
ssS'2vgnrzhcjqzcybm97RvAg6'
p2822
(dp2823
g3
S'SpongeBOZZ'
p2824
sg5
I1
sg6
S'https://open.spotify.com/track/2vgnrzhcjqzcybm97RvAg6'
p2825
sg8
S'Bluff Millimet'
p2826
ssS'2MHCiOohBZEQuLgDTPvSzF'
p2827
(dp2828
g3
S'Galantis'
p2829
sg5
I23
sg6
S'https://open.spotify.com/track/2MHCiOohBZEQuLgDTPvSzF'
p2830
sg8
S'Love On Me'
p2831
ssS'7cufww06qM0dH2rpkch4fi'
p2832
(dp2833
g3
S'Ali Bumaye'
p2834
sg5
I40
sg6
S'https://open.spotify.com/track/7cufww06qM0dH2rpkch4fi'
p2835
sg8
S'Sex ohne Grund'
p2836
ssS'0A8IMotj3TpnWDlaUxlmq5'
p2837
(dp2838
g3
S'Casper'
p2839
sg5
I1
sg6
S'https://open.spotify.com/track/0A8IMotj3TpnWDlaUxlmq5'
p2840
sg8
S'Lang lebe der Tod'
p2841
ssS'2JkKkRQNXVLRq7MompyXeQ'
p2842
(dp2843
g3
S'Capital Bra'
p2844
sg5
I1
sg6
S'https://open.spotify.com/track/2JkKkRQNXVLRq7MompyXeQ'
p2845
sg8
S'Geld machen'
p2846
ssS'20VvQEE7Fxuh7iXZszIQNp'
p2847
(dp2848
g3
S'Trettmann'
p2849
sg5
I5
sg6
S'https://open.spotify.com/track/20VvQEE7Fxuh7iXZszIQNp'
p2850
sg8
S'Grauer Beton'
p2851
ssS'3kxfsdsCpFgN412fpnW85Y'
p2852
(dp2853
g3
S'Childish Gambino'
p2854
sg5
I10
sg6
S'https://open.spotify.com/track/3kxfsdsCpFgN412fpnW85Y'
p2855
sg8
S'Redbone'
p2856
ssS'0hURJYjOhE6NL72qaeQ9PK'
p2857
(dp2858
g3
S'Mert'
p2859
sg5
I3
sg6
S'https://open.spotify.com/track/0hURJYjOhE6NL72qaeQ9PK'
p2860
sg8
S'Ajajaj'
p2861
ssS'1NPAfzVZZH4lVEXNVfCjsb'
p2862
(dp2863
g3
S'RIN'
p2864
sg5
I4
sg6
S'https://open.spotify.com/track/1NPAfzVZZH4lVEXNVfCjsb'
p2865
sg8
S'Nightlife'
p2866
ssS'4D5Ew9tEw8AAahXfC47v35'
p2867
(dp2868
g3
S'Kianush'
p2869
sg5
I4
sg6
S'https://open.spotify.com/track/4D5Ew9tEw8AAahXfC47v35'
p2870
sg8
S'H\xc3\xbctte im Wald (feat. PA Sports)'
p2871
ssS'7itaMzdYaSVjrXNOaLaIUh'
p2872
(dp2873
g3
S'KC Rebell'
p2874
sg5
I1
sg6
S'https://open.spotify.com/track/7itaMzdYaSVjrXNOaLaIUh'
p2875
sg8
S'Ist es das was Ihr wollt (Intro)'
p2876
ssS'4Ja7xcFhiJpEEB8LR4yO1y'
p2877
(dp2878
g3
S'Kollegah'
p2879
sg5
I1
sg6
S'https://open.spotify.com/track/4Ja7xcFhiJpEEB8LR4yO1y'
p2880
sg8
S'Dynamit'
p2881
ssS'14h9CWRQnN56sU090MnyNs'
p2882
(dp2883
g3
S'Ufo361'
p2884
sg5
I1
sg6
S'https://open.spotify.com/track/14h9CWRQnN56sU090MnyNs'
p2885
sg8
S'Kein Anlass'
p2886
ssS'3agtg0x11wPvLIWkYR39nZ'
p2887
(dp2888
g3
S'Linkin Park'
p2889
sg5
I1
sg6
S'https://open.spotify.com/track/3agtg0x11wPvLIWkYR39nZ'
p2890
sg8
S'Somewhere I Belong'
p2891
ssS'5p3NP9mQblDsVJLdfNZJ3I'
p2892
(dp2893
g3
S'Kendrick Lamar'
p2894
sg5
I1
sg6
S'https://open.spotify.com/track/5p3NP9mQblDsVJLdfNZJ3I'
p2895
sg8
S'GOD.'
p2896
ssS'6BaCraQ9xeLYg4Sb9TBT2X'
p2897
(dp2898
g3
S'Calvin Harris'
p2899
sg5
I1
sg6
S'https://open.spotify.com/track/6BaCraQ9xeLYg4Sb9TBT2X'
p2900
sg8
S'Feels'
p2901
ssS'4qxF5FinJmAoeipd1DLOJ2'
p2902
(dp2903
g3
S'Nimo'
p2904
sg5
I3
sg6
S'https://open.spotify.com/track/4qxF5FinJmAoeipd1DLOJ2'
p2905
sg8
S'Hype'
p2906
ssS'7ARveOiD31w2Nq0n5FsSf8'
p2907
(dp2908
g3
S'Lorde'
p2909
sg5
I1
sg6
S'https://open.spotify.com/track/7ARveOiD31w2Nq0n5FsSf8'
p2910
sg8
S'Perfect Places'
p2911
ssS'5sXH5is49Lxo6zQCksCKfe'
p2912
(dp2913
g3
S'Kurdo'
p2914
sg5
I2
sg6
S'https://open.spotify.com/track/5sXH5is49Lxo6zQCksCKfe'
p2915
sg8
S'Nachtaktiv'
p2916
ssS'1f0KCTo151gsceJeGMv3vK'
p2917
(dp2918
g3
S'Maxwell'
p2919
sg5
I5
sg6
S'https://open.spotify.com/track/1f0KCTo151gsceJeGMv3vK'
p2920
sg8
S'Gaspedal'
p2921
ssS'6Knv6wdA0luoMUuuoYi2i1'
p2922
(dp2923
g3
S'Flo Rida'
p2924
sg5
I1
sg6
S'https://open.spotify.com/track/6Knv6wdA0luoMUuuoYi2i1'
p2925
sg8
S'My House'
p2926
ssS'1ncj2QHNL1uhPCd3cdrD8n'
p2927
(dp2928
g3
S'Cro'
p2929
sg5
I1
sg6
S'https://open.spotify.com/track/1ncj2QHNL1uhPCd3cdrD8n'
p2930
sg8
S'kapitel 1'
p2931
ssS'3rdpzWxciTQxTup4DMFJM7'
p2932
(dp2933
g3
S'Maxwell'
p2934
sg5
I1
sg6
S'https://open.spotify.com/track/3rdpzWxciTQxTup4DMFJM7'
p2935
sg8
S'Hakuna Matata 2'
p2936
ssS'4WkcGT6VQndAd1rtRa8f8t'
p2937
(dp2938
g3
S'Maxwell'
p2939
sg5
I1
sg6
S'https://open.spotify.com/track/4WkcGT6VQndAd1rtRa8f8t'
p2940
sg8
S'Neben der Spur'
p2941
ssS'1QGj4FP9nmxnBsbc17oKHE'
p2942
(dp2943
g3
S'Sido'
p2944
sg5
I5
sg6
S'https://open.spotify.com/track/1QGj4FP9nmxnBsbc17oKHE'
p2945
sg8
S'Masafaka'
p2946
ssS'5QN61DH3eHopa0IBarwr6B'
p2947
(dp2948
g3
S'Kollegah'
p2949
sg5
I3
sg6
S'https://open.spotify.com/track/5QN61DH3eHopa0IBarwr6B'
p2950
sg8
S'Kaiseraura'
p2951
ssS'4hKWUzhQWsOkgT6LnDEASe'
p2952
(dp2953
g3
S'Bausa'
p2954
sg5
I2
sg6
S'https://open.spotify.com/track/4hKWUzhQWsOkgT6LnDEASe'
p2955
sg8
S'Was du Liebe nennst'
p2956
ssS'2WJ8HV2cH44KtNlIWdGcwh'
p2957
(dp2958
g3
S'Zuna'
p2959
sg5
I2
sg6
S'https://open.spotify.com/track/2WJ8HV2cH44KtNlIWdGcwh'
p2960
sg8
S'Dale'
p2961
ssS'7m9OqQk4RVRkw9JJdeAw96'
p2962
(dp2963
g3
S'XXXTENTACION'
p2964
sg5
I7
sg6
S'https://open.spotify.com/track/7m9OqQk4RVRkw9JJdeAw96'
p2965
sg8
S'Jocelyn Flores'
p2966
ssS'1qzLOrkZDPDvH8WlDnJrVr'
p2967
(dp2968
g3
S'Savas'
p2969
sg5
I1
sg6
S'https://open.spotify.com/track/1qzLOrkZDPDvH8WlDnJrVr'
p2970
sg8
S'Keene Probleme'
p2971
ssS'6mORGLOz79w6VsCRLWYYuK'
p2972
(dp2973
g3
S'Lord Huron'
p2974
sg5
I8
sg6
S'https://open.spotify.com/track/6mORGLOz79w6VsCRLWYYuK'
p2975
sg8
S'The Night We Met'
p2976
ssS'2fQrGHiQOvpL9UgPvtYy6G'
p2977
(dp2978
g3
S'21 Savage'
p2979
sg5
I3
sg6
S'https://open.spotify.com/track/2fQrGHiQOvpL9UgPvtYy6G'
p2980
sg8
S'Bank Account'
p2981
ssS'5aAx2yezTd8zXrkmtKl66Z'
p2982
(dp2983
g3
S'The Weeknd'
p2984
sg5
I27
sg6
S'https://open.spotify.com/track/5aAx2yezTd8zXrkmtKl66Z'
p2985
sg8
S'Starboy'
p2986
ssS'2BrzlUj1u1CtvaJDGIKpsP'
p2987
(dp2988
g3
S'Noah Cyrus'
p2989
sg5
I9
sg6
S'https://open.spotify.com/track/2BrzlUj1u1CtvaJDGIKpsP'
p2990
sg8
S'Make Me (Cry)'
p2991
ssS'1SJtlNRJDeYHioymcvsqev'
p2992
(dp2993
g3
S'Camila Cabello'
p2994
sg5
I21
sg6
S'https://open.spotify.com/track/1SJtlNRJDeYHioymcvsqev'
p2995
sg8
S'Crying in the Club'
p2996
ssS'0Wv5wuenRLI3BcwgT3HPIP'
p2997
(dp2998
g3
S'DJ Snake'
p2999
sg5
I3
sg6
S'https://open.spotify.com/track/0Wv5wuenRLI3BcwgT3HPIP'
p3000
sg8
S'A Different Way (with Lauv)'
p3001
ssS'04DwTuZ2VBdJCCC5TROn7L'
p3002
(dp3003
g3
S'Martin Garrix'
p3004
sg5
I18
sg6
S'https://open.spotify.com/track/04DwTuZ2VBdJCCC5TROn7L'
p3005
sg8
S'In the Name of Love'
p3006
ssS'4fzyvSu73BhGvi96p2zwjL'
p3007
(dp3008
g3
S'Coldplay'
p3009
sg5
I1
sg6
S'https://open.spotify.com/track/4fzyvSu73BhGvi96p2zwjL'
p3010
sg8
S'Christmas Lights'
p3011
ssS'7bJ4mu7MHa3rHiNyKjOoSl'
p3012
(dp3013
g3
S'Drake'
p3014
sg5
I1
sg6
S'https://open.spotify.com/track/7bJ4mu7MHa3rHiNyKjOoSl'
p3015
sg8
S'Ice Melts'
p3016
ssS'0pSBuHjILhNEo55xK1zrRt'
p3017
(dp3018
g3
S'Ayo & Teo'
p3019
sg5
I2
sg6
S'https://open.spotify.com/track/0pSBuHjILhNEo55xK1zrRt'
p3020
sg8
S'Rolex'
p3021
ssS'2bjwRfXMk4uRgOD9IBYl9h'
p3022
(dp3023
g3
S'Drake'
p3024
sg5
I8
sg6
S'https://open.spotify.com/track/2bjwRfXMk4uRgOD9IBYl9h'
p3025
sg8
S'Portland'
p3026
ssS'76gwG061wqdatYhicO2hG4'
p3027
(dp3028
g3
S'Alle Farben'
p3029
sg5
I31
sg6
S'https://open.spotify.com/track/76gwG061wqdatYhicO2hG4'
p3030
sg8
S'Bad Ideas'
p3031
ssS'2GIK8DmzMAPdZTNXLGW7v3'
p3032
(dp3033
g3
S'Zuna'
p3034
sg5
I2
sg6
S'https://open.spotify.com/track/2GIK8DmzMAPdZTNXLGW7v3'
p3035
sg8
S'Volles Magazin'
p3036
ssS'2LF5SHRseTG4GeE4N3rgXc'
p3037
(dp3038
g3
S'Kraftklub'
p3039
sg5
I2
sg6
S'https://open.spotify.com/track/2LF5SHRseTG4GeE4N3rgXc'
p3040
sg8
S'Sklave'
p3041
ssS'4JAyIDXOqNM6qHuZML01uX'
p3042
(dp3043
g3
g1602
sg5
I1
sg6
S'https://open.spotify.com/track/4JAyIDXOqNM6qHuZML01uX'
p3044
sg8
g1602
ssS'6P5NQwfFIjhEUl8reqff8R'
p3045
(dp3046
g3
S'AK Ausserkontrolle'
p3047
sg5
I2
sg6
S'https://open.spotify.com/track/6P5NQwfFIjhEUl8reqff8R'
p3048
sg8
S'A.S.S.N.'
p3049
ssS'6VRghJeP6I0w1KxkdWFfIh'
p3050
(dp3051
g3
S'Imagine Dragons'
p3052
sg5
I3
sg6
S'https://open.spotify.com/track/6VRghJeP6I0w1KxkdWFfIh'
p3053
sg8
S'Believer'
p3054
ssS'6SznMYPQJHzr3IwsAHLId2'
p3055
(dp3056
g3
S'Ed Sheeran'
p3057
sg5
I5
sg6
S'https://open.spotify.com/track/6SznMYPQJHzr3IwsAHLId2'
p3058
sg8
S'Bibia Be Ye Ye'
p3059
ssS'5JSp2VRn86bVldslj2iAxC'
p3060
(dp3061
g3
S'Marteria'
p3062
sg5
I1
sg6
S'https://open.spotify.com/track/5JSp2VRn86bVldslj2iAxC'
p3063
sg8
S'Elfenbein'
p3064
ssS'67Igkn3LegGXD5Xe0yjJVM'
p3065
(dp3066
g3
S'Capital Bra'
p3067
sg5
I15
sg6
S'https://open.spotify.com/track/67Igkn3LegGXD5Xe0yjJVM'
p3068
sg8
S'Es geht ums Gesch\xc3\xa4ft'
p3069
ssS'6hVbpa81G9mr087FRHTJGO'
p3070
(dp3071
g3
S'KALIM'
p3072
sg5
I1
sg6
S'https://open.spotify.com/track/6hVbpa81G9mr087FRHTJGO'
p3073
sg8
S'Bis um 4'
p3074
ssS'3g62kHCCbNwhEKYywx5Xwz'
p3075
(dp3076
g3
S'Alligatoah'
p3077
sg5
I1
sg6
S'https://open.spotify.com/track/3g62kHCCbNwhEKYywx5Xwz'
p3078
sg8
S'Willst du'
p3079
ssS'6I8R2dillIEsMrBm6IZqxv'
p3080
(dp3081
g3
S'SDP'
p3082
sg5
I18
sg6
S'https://open.spotify.com/track/6I8R2dillIEsMrBm6IZqxv'
p3083
sg8
S'So sch\xc3\xb6n kaputt'
p3084
ssS'2ZblF7TnUfCVRPWWgBeEhe'
p3085
(dp3086
g3
S'Nico Santos'
p3087
sg5
I12
sg6
S'https://open.spotify.com/track/2ZblF7TnUfCVRPWWgBeEhe'
p3088
sg8
S'Goodbye To Love'
p3089
ssS'0h0DsdS7Fpzq1dTopmPNpb'
p3090
(dp3091
g3
S'Capital Bra'
p3092
sg5
I2
sg6
S'https://open.spotify.com/track/0h0DsdS7Fpzq1dTopmPNpb'
p3093
sg8
S'Wie alles begann'
p3094
ssS'3ao4Ryi1vd6oFez6Er9jyZ'
p3095
(dp3096
g3
S'SpongeBOZZ'
p3097
sg5
I1
sg6
S'https://open.spotify.com/track/3ao4Ryi1vd6oFez6Er9jyZ'
p3098
sg8
S'Hype Is Real'
p3099
ssS'2H6dHxAxGq5oQ9EiinNpXT'
p3100
(dp3101
g3
S'The Strumbellas'
p3102
sg5
I1
sg6
S'https://open.spotify.com/track/2H6dHxAxGq5oQ9EiinNpXT'
p3103
sg8
S'Spirits'
p3104
ssS'5emXZceF16G9VhA2A7AZa0'
p3105
(dp3106
g3
S'Manuellsen'
p3107
sg5
I1
sg6
S'https://open.spotify.com/track/5emXZceF16G9VhA2A7AZa0'
p3108
sg8
S'Endgegner'
p3109
ssS'6FESbqDsYjUXIRdIxgE4qJ'
p3110
(dp3111
g3
S'Yung Hurn'
p3112
sg5
I4
sg6
S'https://open.spotify.com/track/6FESbqDsYjUXIRdIxgE4qJ'
p3113
sg8
S'Ok Cool'
p3114
ssS'7tn10Jd89xlp0PrIwIkkZh'
p3115
(dp3116
g3
S'Nimo'
p3117
sg5
I1
sg6
S'https://open.spotify.com/track/7tn10Jd89xlp0PrIwIkkZh'
p3118
sg8
S'Is so'
p3119
ssS'2YAC36CjJXhp8CuANNe4O7'
p3120
(dp3121
g3
S'Celo & Abdi'
p3122
sg5
I2
sg6
S'https://open.spotify.com/track/2YAC36CjJXhp8CuANNe4O7'
p3123
sg8
S'Rill\xc3\xa9'
p3124
ssS'2z7IrWdtG3Rx3xA3Zq2yFK'
p3125
(dp3126
g3
S'Zuna'
p3127
sg5
I26
sg6
S'https://open.spotify.com/track/2z7IrWdtG3Rx3xA3Zq2yFK'
p3128
sg8
S'Kartell (feat. Azet & Nash)'
p3129
ssS'0eBEo8ckRAmUEdrbmgpevQ'
p3130
(dp3131
g3
S'Mark Forster'
p3132
sg5
I1
sg6
S'https://open.spotify.com/track/0eBEo8ckRAmUEdrbmgpevQ'
p3133
sg8
S'Kogong'
p3134
ssS'21u9cFskfSRdv6tBFZEtuK'
p3135
(dp3136
g3
S'KC Rebell'
p3137
sg5
I6
sg6
S'https://open.spotify.com/track/21u9cFskfSRdv6tBFZEtuK'
p3138
sg8
S'Outta Control (feat. Hamza)'
p3139
ssS'5cDKDGN7ZfAVxacfpLh2dL'
p3140
(dp3141
g3
S'Mike Singer'
p3142
sg5
I2
sg6
S'https://open.spotify.com/track/5cDKDGN7ZfAVxacfpLh2dL'
p3143
sg8
S'Deja Vu'
p3144
ssS'36qA0yKr7uNfQDFledNkiN'
p3145
(dp3146
g3
S'AnnenMayKantereit'
p3147
sg5
I1
sg6
S'https://open.spotify.com/track/36qA0yKr7uNfQDFledNkiN'
p3148
sg8
S'Barfu\xc3\x9f am Klavier'
p3149
ssS'2IdY82WE2m2xKw4pYxtbpm'
p3150
(dp3151
g3
S'Trettmann'
p3152
sg5
I2
sg6
S'https://open.spotify.com/track/2IdY82WE2m2xKw4pYxtbpm'
p3153
sg8
S'Fast Forward'
p3154
ssS'6vfP0J7WLSSEFJl8551gID'
p3155
(dp3156
g3
S'Maxwell'
p3157
sg5
I1
sg6
S'https://open.spotify.com/track/6vfP0J7WLSSEFJl8551gID'
p3158
sg8
S'Intro'
p3159
ssS'0pGdmGx8l6OkT3FGgudLUr'
p3160
(dp3161
g3
S'Hugh Martin'
p3162
sg5
I1
sg6
S'https://open.spotify.com/track/0pGdmGx8l6OkT3FGgudLUr'
p3163
sg8
S'Have Yourself a Merry Little Christmas - Voice'
p3164
ssS'1n4jwRVXdkK2U34nBDUKKT'
p3165
(dp3166
g3
S'Kendrick Lamar'
p3167
sg5
I1
sg6
S'https://open.spotify.com/track/1n4jwRVXdkK2U34nBDUKKT'
p3168
sg8
S'BLOOD.'
p3169
ssS'7oVEtyuv9NBmnytsCIsY5I'
p3170
(dp3171
g3
S'Linkin Park'
p3172
sg5
I1
sg6
S'https://open.spotify.com/track/7oVEtyuv9NBmnytsCIsY5I'
p3173
sg8
S'BURN IT DOWN'
p3174
ssS'5Ohxk2dO5COHF1krpoPigN'
p3175
(dp3176
g3
S'Harry Styles'
p3177
sg5
I21
sg6
S'https://open.spotify.com/track/5Ohxk2dO5COHF1krpoPigN'
p3178
sg8
S'Sign of the Times'
p3179
ssS'6YnbHb1yTtzcDgaRn5XgkZ'
p3180
(dp3181
g3
S'Ufo361'
p3182
sg5
I1
sg6
S'https://open.spotify.com/track/6YnbHb1yTtzcDgaRn5XgkZ'
p3183
sg8
S'Wer'
p3184
ssS'7uKSil5r7uHexnM9lukPTc'
p3185
(dp3186
g3
S'Macklemore'
p3187
sg5
I1
sg6
S'https://open.spotify.com/track/7uKSil5r7uHexnM9lukPTc'
p3188
sg8
S'Willy Wonka (feat. Offset)'
p3189
ssS'45wMiGOfoVf8V3USDtqwMn'
p3190
(dp3191
g3
S'Nimo'
p3192
sg5
I3
sg6
S'https://open.spotify.com/track/45wMiGOfoVf8V3USDtqwMn'
p3193
sg8
S'Hoodi'
p3194
ssS'3vk4LWzeNjKD3HIha7yxs3'
p3195
(dp3196
g3
S'Capital Bra'
p3197
sg5
I1
sg6
S'https://open.spotify.com/track/3vk4LWzeNjKD3HIha7yxs3'
p3198
sg8
S'Zieh zieh zieh'
p3199
ssS'6O85MfGECKBqAK2MgSbCaj'
p3200
(dp3201
g3
S'Martin Solveig'
p3202
sg5
I19
sg6
S'https://open.spotify.com/track/6O85MfGECKBqAK2MgSbCaj'
p3203
sg8
S'Places'
p3204
ssS'1wW6izAT1QSWPeVUn6UyBX'
p3205
(dp3206
g3
S'Karel Svoboda'
p3207
sg5
I1
sg6
S'https://open.spotify.com/track/1wW6izAT1QSWPeVUn6UyBX'
p3208
sg8
S'Drei Haseln\xc3\xbcsse f\xc3\xbcr Aschenbr\xc3\xb6del: Einleitung'
p3209
ssS'4mxWSdf71VFO52qFeY0fZt'
p3210
(dp3211
g3
S'Maroon 5'
p3212
sg5
I6
sg6
S'https://open.spotify.com/track/4mxWSdf71VFO52qFeY0fZt'
p3213
sg8
S'What Lovers Do (feat. SZA)'
p3214
ssS'1ADjWm8QNhgNV8yCNNgQ1T'
p3215
(dp3216
g3
S'Ariana Grande'
p3217
sg5
I1
sg6
S'https://open.spotify.com/track/1ADjWm8QNhgNV8yCNNgQ1T'
p3218
sg8
S'Santa Tell Me'
p3219
ssS'1KGey3jF7EMxwbG1KofMz2'
p3220
(dp3221
g3
S'Capital Bra'
p3222
sg5
I2
sg6
S'https://open.spotify.com/track/1KGey3jF7EMxwbG1KofMz2'
p3223
sg8
S'Wer hoch fliegt f\xc3\xa4llt tief'
p3224
ssS'4Hf7WnR761jpxPr5D46Bcd'
p3225
(dp3226
g3
S'Shawn Mendes'
p3227
sg5
I31
sg6
S'https://open.spotify.com/track/4Hf7WnR761jpxPr5D46Bcd'
p3228
sg8
S'Treat You Better'
p3229
ssS'3mSKpnCdwjdf3a9T7O5jyJ'
p3230
(dp3231
g3
S'Marteria'
p3232
sg5
I1
sg6
S'https://open.spotify.com/track/3mSKpnCdwjdf3a9T7O5jyJ'
p3233
sg8
S'Cadillac'
p3234
ssS'6zd31HpApjec1ldpS1E4Xu'
p3235
(dp3236
g3
S'Maxwell'
p3237
sg5
I1
sg6
S'https://open.spotify.com/track/6zd31HpApjec1ldpS1E4Xu'
p3238
sg8
S'Gangzeichen'
p3239
ssS'62jhFviTBtnm1Bzigve3dj'
p3240
(dp3241
g3
S'Helene Fischer'
p3242
sg5
I19
sg6
S'https://open.spotify.com/track/62jhFviTBtnm1Bzigve3dj'
p3243
sg8
S'Herzbeben'
p3244
ssS'0RCSckg7PFBBfwG73ydbOG'
p3245
(dp3246
g3
S'KC Rebell'
p3247
sg5
I23
sg6
S'https://open.spotify.com/track/0RCSckg7PFBBfwG73ydbOG'
p3248
sg8
S'Nicht jetzt'
p3249
ssS'7nRcltSQrEnBmVPJQCrzmV'
p3250
(dp3251
g3
S'Luciano'
p3252
sg5
I7
sg6
S'https://open.spotify.com/track/7nRcltSQrEnBmVPJQCrzmV'
p3253
sg8
S'Gauner in Lacoste'
p3254
ssS'6LxJNhtLZOcjTc3hNUNzlO'
p3255
(dp3256
g3
S'Savas'
p3257
sg5
I2
sg6
S'https://open.spotify.com/track/6LxJNhtLZOcjTc3hNUNzlO'
p3258
sg8
S'Neue Welt'
p3259
ssS'0vQvHqqROk1GNV94iz1Bx6'
p3260
(dp3261
g3
S'Capital Bra'
p3262
sg5
I2
sg6
S'https://open.spotify.com/track/0vQvHqqROk1GNV94iz1Bx6'
p3263
sg8
S'Mademoiselle'
p3264
ssS'0BSlu63OZFzb7TSs7w335U'
p3265
(dp3266
g3
S'SpongeBOZZ'
p3267
sg5
I1
sg6
S'https://open.spotify.com/track/0BSlu63OZFzb7TSs7w335U'
p3268
sg8
S'Zlatan Ibrahimovic'
p3269
ssS'5FnRT97hnqXEK8rTA6FJzy'
p3270
(dp3271
g3
S'Laruzo'
p3272
sg5
I9
sg6
S'https://open.spotify.com/track/5FnRT97hnqXEK8rTA6FJzy'
p3273
sg8
S'247'
p3274
ssS'0s3SdO33gNXbUT1wkVSdJj'
p3275
(dp3276
g3
S'Bushido'
p3277
sg5
I1
sg6
S'https://open.spotify.com/track/0s3SdO33gNXbUT1wkVSdJj'
p3278
sg8
S'Angst'
p3279
ssS'1MksGqIztTT6M9R1ErKVs8'
p3280
(dp3281
g3
S'Big Sean'
p3282
sg5
I2
sg6
S'https://open.spotify.com/track/1MksGqIztTT6M9R1ErKVs8'
p3283
sg8
S'No Favors'
p3284
ssS'1EaKU4dMbesXXd3BrLCtYG'
p3285
(dp3286
g3
S'Kendrick Lamar'
p3287
sg5
I4
sg6
S'https://open.spotify.com/track/1EaKU4dMbesXXd3BrLCtYG'
p3288
sg8
S'ELEMENT.'
p3289
ssS'2Ce5IyMlVRVvN997ZJjJJA'
p3290
(dp3291
g3
S'Future'
p3292
sg5
I13
sg6
S'https://open.spotify.com/track/2Ce5IyMlVRVvN997ZJjJJA'
p3293
sg8
S'Selfish'
p3294
ssS'3aDYo34VzVf2i8aJyJk0ca'
p3295
(dp3296
g3
S'187 Strassenbande'
p3297
sg5
I13
sg6
S'https://open.spotify.com/track/3aDYo34VzVf2i8aJyJk0ca'
p3298
sg8
S'Mit den Jungz'
p3299
ssS'5knuzwU65gJK7IF5yJsuaW'
p3300
(dp3301
g3
S'Clean Bandit'
p3302
sg5
I36
sg6
S'https://open.spotify.com/track/5knuzwU65gJK7IF5yJsuaW'
p3303
sg8
S'Rockabye (feat. Sean Paul & Anne-Marie)'
p3304
ssS'6a5gFSYrNgcwOfFAxfebpj'
p3305
(dp3306
g3
S'Kollegah'
p3307
sg5
I3
sg6
S'https://open.spotify.com/track/6a5gFSYrNgcwOfFAxfebpj'
p3308
sg8
S'24 Karat (feat. Ali As & Seyed) - Remix'
p3309
ssS'3bWAqKDWg6u1davspr5IkS'
p3310
(dp3311
g3
S'Robin Schulz'
p3312
sg5
I21
sg6
S'https://open.spotify.com/track/3bWAqKDWg6u1davspr5IkS'
p3313
sg8
S'OK'
p3314
ssS'2dxNtS3X78Omx0V5D9DaES'
p3315
(dp3316
g3
S'Ufo361'
p3317
sg5
I2
sg6
S'https://open.spotify.com/track/2dxNtS3X78Omx0V5D9DaES'
p3318
sg8
S'1000 Bitches'
p3319
ssS'5MuiT0D2jhWwWJyx3W9gsk'
p3320
(dp3321
g3
S'SpongeBOZZ'
p3322
sg5
I2
sg6
S'https://open.spotify.com/track/5MuiT0D2jhWwWJyx3W9gsk'
p3323
sg8
S'Yellow Bar Mitzvah'
p3324
ssS'4ZvS3wPyuNaiHefG9bJsBX'
p3325
(dp3326
g3
S'RAF Camora'
p3327
sg5
I7
sg6
S'https://open.spotify.com/track/4ZvS3wPyuNaiHefG9bJsBX'
p3328
sg8
S'Roots'
p3329
ssS'6nBcD1J3L7qrgaEknTKNhv'
p3330
(dp3331
g3
S'Maxwell'
p3332
sg5
I1
sg6
S'https://open.spotify.com/track/6nBcD1J3L7qrgaEknTKNhv'
p3333
sg8
S'Action'
p3334
ssS'14WWzenpaEgQZlqPq2nk4v'
p3335
(dp3336
g3
S'Rihanna'
p3337
sg5
I2
sg6
S'https://open.spotify.com/track/14WWzenpaEgQZlqPq2nk4v'
p3338
sg8
S'Work'
p3339
ssS'4tHqQMWSqmL6YjXwsqthDI'
p3340
(dp3341
g3
S'Mykola Dmytrovych Leontovych'
p3342
sg5
I1
sg6
S'https://open.spotify.com/track/4tHqQMWSqmL6YjXwsqthDI'
p3343
sg8
S'Carol of the Bells'
p3344
ssS'3FTKzJI05mtKBIouwQcEpZ'
p3345
(dp3346
g3
S'Philipp Poisel'
p3347
sg5
I5
sg6
S'https://open.spotify.com/track/3FTKzJI05mtKBIouwQcEpZ'
p3348
sg8
S'Erkl\xc3\xa4re mir die Liebe'
p3349
ssS'5cV34hcKf632Ry0avUxx5k'
p3350
(dp3351
g3
S'RIN'
p3352
sg5
I6
sg6
S'https://open.spotify.com/track/5cV34hcKf632Ry0avUxx5k'
p3353
sg8
S'Bros'
p3354
ssS'7vnEuDZTbPRu5ThYoMv7G0'
p3355
(dp3356
g3
S'Kay One'
p3357
sg5
I16
sg6
S'https://open.spotify.com/track/7vnEuDZTbPRu5ThYoMv7G0'
p3358
sg8
S'Louis Louis'
p3359
ssS'6b8Be6ljOzmkOmFslEb23P'
p3360
(dp3361
g3
S'Bruno Mars'
p3362
sg5
I13
sg6
S'https://open.spotify.com/track/6b8Be6ljOzmkOmFslEb23P'
p3363
sg8
S'24K Magic'
p3364
ssS'6zxFyURXhsMwwkLQGZbzBw'
p3365
(dp3366
g3
S'Capital Bra'
p3367
sg5
I2
sg6
S'https://open.spotify.com/track/6zxFyURXhsMwwkLQGZbzBw'
p3368
sg8
S'Nur noch Gucci'
p3369
ssS'34eBseo3rsXhiIWEUcw4ys'
p3370
(dp3371
g3
S'AK Ausserkontrolle'
p3372
sg5
I23
sg6
S'https://open.spotify.com/track/34eBseo3rsXhiIWEUcw4ys'
p3373
sg8
S'Jim Beam & Voddi'
p3374
ssS'58Zi0DQnmSWRHRNLyupnmU'
p3375
(dp3376
g3
S'Capo'
p3377
sg5
I1
sg6
S'https://open.spotify.com/track/58Zi0DQnmSWRHRNLyupnmU'
p3378
sg8
S'Lange N\xc3\xa4chte in FFM'
p3379
ssS'3xLJfPdE8ovTZ0Helln3eV'
p3380
(dp3381
g3
S'Capital Bra'
p3382
sg5
I4
sg6
S'https://open.spotify.com/track/3xLJfPdE8ovTZ0Helln3eV'
p3383
sg8
S'Kuku187'
p3384
ssS'4so0Wek9Ig1p6CRCHuINwW'
p3385
(dp3386
g3
S'Bing Crosby'
p3387
sg5
I1
sg6
S'https://open.spotify.com/track/4so0Wek9Ig1p6CRCHuINwW'
p3388
sg8
S'White Christmas'
p3389
ssS'4ZVopOP1QK5OqfW3UE7wft'
p3390
(dp3391
g3
S'Capital Bra'
p3392
sg5
I8
sg6
S'https://open.spotify.com/track/4ZVopOP1QK5OqfW3UE7wft'
p3393
sg8
S"Ala'ba'ba"
p3394
ssS'5fpujciVjGBhnR2XFx06E7'
p3395
(dp3396
g3
S'Kurdo'
p3397
sg5
I29
sg6
S'https://open.spotify.com/track/5fpujciVjGBhnR2XFx06E7'
p3398
sg8
S'Ya Salam'
p3399
ssS'29CoYNq5Jn9v0xkmOGGT0s'
p3400
(dp3401
g3
S'Kurdo'
p3402
sg5
I2
sg6
S'https://open.spotify.com/track/29CoYNq5Jn9v0xkmOGGT0s'
p3403
sg8
S'Desert Eagle'
p3404
ssS'23luOrEVHMfoX0AhfbQuS6'
p3405
(dp3406
g3
S'Kendrick Lamar'
p3407
sg5
I1
sg6
S'https://open.spotify.com/track/23luOrEVHMfoX0AhfbQuS6'
p3408
sg8
S'FEAR.'
p3409
ssS'07TAUihsoCBnLWWXuZYUyw'
p3410
(dp3411
g3
S'Mark Forster'
p3412
sg5
I22
sg6
S'https://open.spotify.com/track/07TAUihsoCBnLWWXuZYUyw'
p3413
sg8
S'Sowieso - Radio Version'
p3414
ssS'5DA77EqppDmCTWGovd4oTP'
p3415
(dp3416
g3
S'Cheat Codes'
p3417
sg5
I21
sg6
S'https://open.spotify.com/track/5DA77EqppDmCTWGovd4oTP'
p3418
sg8
S'Sex'
p3419
ssS'5OHOykHs3Ct2pgbqod8uMD'
p3420
(dp3421
g3
S'Kay One'
p3422
sg5
I5
sg6
S'https://open.spotify.com/track/5OHOykHs3Ct2pgbqod8uMD'
p3423
sg8
S'Senorita'
p3424
ssS'1eyrmeiDpdTkOmA839nPVQ'
p3425
(dp3426
g3
S'Robin Schulz'
p3427
sg5
I1
sg6
S'https://open.spotify.com/track/1eyrmeiDpdTkOmA839nPVQ'
p3428
sg8
S'Shed a Light'
p3429
ssS'7ni9L7ymaFjS2X6DlbIpgu'
p3430
(dp3431
g3
S'SpongeBOZZ'
p3432
sg5
I1
sg6
S'https://open.spotify.com/track/7ni9L7ymaFjS2X6DlbIpgu'
p3433
sg8
S'Now We Here'
p3434
ssS'06FCvd7rrRcF3DdvWH5Isp'
p3435
(dp3436
g3
S'Kendrick Lamar'
p3437
sg5
I2
sg6
S'https://open.spotify.com/track/06FCvd7rrRcF3DdvWH5Isp'
p3438
sg8
S'LUST.'
p3439
ssS'4IWAyPf1KMq7JCyGeCjTeH'
p3440
(dp3441
g3
S'Imagine Dragons'
p3442
sg5
I8
sg6
S'https://open.spotify.com/track/4IWAyPf1KMq7JCyGeCjTeH'
p3443
sg8
S'Whatever It Takes'
p3444
ssS'6HZILIRieu8S0iqY8kIKhj'
p3445
(dp3446
g3
S'Kendrick Lamar'
p3447
sg5
I14
sg6
S'https://open.spotify.com/track/6HZILIRieu8S0iqY8kIKhj'
p3448
sg8
S'DNA.'
p3449
ssS'4gqMQftUs22F8pOGVn5Acr'
p3450
(dp3451
g3
S'Shawn Hook'
p3452
sg5
I8
sg6
S'https://open.spotify.com/track/4gqMQftUs22F8pOGVn5Acr'
p3453
sg8
S'Reminding Me'
p3454
ssS'7F9vK8hNFMml4GtHsaXui6'
p3455
(dp3456
g3
S'Louis Tomlinson'
p3457
sg5
I12
sg6
S'https://open.spotify.com/track/7F9vK8hNFMml4GtHsaXui6'
p3458
sg8
S'Back to You (feat. Bebe Rexha & Digital Farm Animals)'
p3459
ssS'11Fo4dAH31K7UZHGqCkCmE'
p3460
(dp3461
g3
S'Axwell /\\ Ingrosso'
p3462
sg5
I20
sg6
S'https://open.spotify.com/track/11Fo4dAH31K7UZHGqCkCmE'
p3463
sg8
S'I Love You'
p3464
ssS'03JMjrsnUgeZNJ5yUJgWbL'
p3465
(dp3466
g3
S'Nash'
p3467
sg5
I9
sg6
S'https://open.spotify.com/track/03JMjrsnUgeZNJ5yUJgWbL'
p3468
sg8
S'Grande'
p3469
ssS'3E1lL9W2bpPTKUsVbgcao8'
p3470
(dp3471
g3
S'187 Strassenbande'
p3472
sg5
I1
sg6
S'https://open.spotify.com/track/3E1lL9W2bpPTKUsVbgcao8'
p3473
sg8
S'Sampler 4 Snippet'
p3474
ssS'1wtSGWYO6JDMzpRauuQC96'
p3475
(dp3476
g3
S'SpongeBOZZ'
p3477
sg5
I1
sg6
S'https://open.spotify.com/track/1wtSGWYO6JDMzpRauuQC96'
p3478
sg8
S'Apocalyptic Infinity'
p3479
ssS'0B48113ZG9UfkWWt7qD9xX'
p3480
(dp3481
g3
S'Miley Cyrus'
p3482
sg5
I1
sg6
S'https://open.spotify.com/track/0B48113ZG9UfkWWt7qD9xX'
p3483
sg8
S'Younger Now'
p3484
ssS'0KlOfCE4H3eldPqsKVLK3Z'
p3485
(dp3486
g3
S'Kollegah'
p3487
sg5
I5
sg6
S'https://open.spotify.com/track/0KlOfCE4H3eldPqsKVLK3Z'
p3488
sg8
S'Nero'
p3489
ssS'3B54sVLJ402zGa6Xm4YGNe'
p3490
(dp3491
g3
S'French Montana'
p3492
sg5
I14
sg6
S'https://open.spotify.com/track/3B54sVLJ402zGa6Xm4YGNe'
p3493
sg8
S'Unforgettable'
p3494
ssS'32DGGj6KlNuBr6WaqRxpxi'
p3495
(dp3496
g3
S'Charlie Puth'
p3497
sg5
I1
sg6
S'https://open.spotify.com/track/32DGGj6KlNuBr6WaqRxpxi'
p3498
sg8
S'How Long'
p3499
ssS'6gpcs5eMhJwax4mIfKDYQk'
p3500
(dp3501
g3
S'Calvin Harris'
p3502
sg5
I4
sg6
S'https://open.spotify.com/track/6gpcs5eMhJwax4mIfKDYQk'
p3503
sg8
S'Slide'
p3504
ssS'5bcTCxgc7xVfSaMV3RuVke'
p3505
(dp3506
g3
S'Calvin Harris'
p3507
sg5
I16
sg6
S'https://open.spotify.com/track/5bcTCxgc7xVfSaMV3RuVke'
p3508
sg8
S'Feels'
p3509
ssS'0QsvXIfqM0zZoerQfsI9lm'
p3510
(dp3511
g3
S'The Chainsmokers'
p3512
sg5
I35
sg6
S'https://open.spotify.com/track/0QsvXIfqM0zZoerQfsI9lm'
p3513
sg8
S"Don't Let Me Down"
p3514
ssS'2YJiphD96INAmMzRHc0UdK'
p3515
(dp3516
g3
S'Veysel'
p3517
sg5
I10
sg6
S'https://open.spotify.com/track/2YJiphD96INAmMzRHc0UdK'
p3518
sg8
S'Bargeld'
p3519
ssS'0dOCEL0ljhxMEfXR8g7cRG'
p3520
(dp3521
g3
S'SDP'
p3522
sg5
I1
sg6
S'https://open.spotify.com/track/0dOCEL0ljhxMEfXR8g7cRG'
p3523
sg8
S'Echte Freunde'
p3524
ssS'7pJ4iEOOwUEzO3m9Hh3Ojr'
p3525
(dp3526
g3
S'Jasmine Thompson'
p3527
sg5
I2
sg6
S'https://open.spotify.com/track/7pJ4iEOOwUEzO3m9Hh3Ojr'
p3528
sg8
S'Old Friends - Jonas Blue Remix'
p3529
ssS'0fHZirprNSLEc1OLs1OiwL'
p3530
(dp3531
g3
S'Milky Chance'
p3532
sg5
I1
sg6
S'https://open.spotify.com/track/0fHZirprNSLEc1OLs1OiwL'
p3533
sg8
S'Blossom'
p3534
ssS'4qqArAiTPueDxIp7cf87h7'
p3535
(dp3536
g3
S'M\xc3\x98'
p3537
sg5
I11
sg6
S'https://open.spotify.com/track/4qqArAiTPueDxIp7cf87h7'
p3538
sg8
S'Final Song'
p3539
ssS'3R1jfrFsFvXRkXc10cea6l'
p3540
(dp3541
g3
S'Bushido'
p3542
sg5
I2
sg6
S'https://open.spotify.com/track/3R1jfrFsFvXRkXc10cea6l'
p3543
sg8
S'Gehen wir rein'
p3544
ssS'5hslUAKq9I9CG2bAulFkHN'
p3545
(dp3546
g3
S'Andy Williams'
p3547
sg5
I1
sg6
S'https://open.spotify.com/track/5hslUAKq9I9CG2bAulFkHN'
p3548
sg8
S"It's the Most Wonderful Time of the Year"
p3549
ssS'2nLtzopw4rPReszdYBJU6h'
p3550
(dp3551
g3
S'Linkin Park'
p3552
sg5
I12
sg6
S'https://open.spotify.com/track/2nLtzopw4rPReszdYBJU6h'
p3553
sg8
S'Numb'
p3554
ssS'4U9arGcc4ATa7shChhLQP0'
p3555
(dp3556
g3
S'Thirty Seconds To Mars'
p3557
sg5
I5
sg6
S'https://open.spotify.com/track/4U9arGcc4ATa7shChhLQP0'
p3558
sg8
S'Walk On Water'
p3559
ssS'3a1lNhkSLSkpJE4MSHpDu9'
p3560
(dp3561
g3
S'Post Malone'
p3562
sg5
I34
sg6
S'https://open.spotify.com/track/3a1lNhkSLSkpJE4MSHpDu9'
p3563
sg8
S'Congratulations'
p3564
ssS'5Rw35kLemvSdxXmpQveQ7B'
p3565
(dp3566
g3
S'Trettmann'
p3567
sg5
I3
sg6
S'https://open.spotify.com/track/5Rw35kLemvSdxXmpQveQ7B'
p3568
sg8
S'GottSeiDank'
p3569
ssS'11XTlCxrHcMOsnnaVUQnFj'
p3570
(dp3571
g3
S'Veysel'
p3572
sg5
I2
sg6
S'https://open.spotify.com/track/11XTlCxrHcMOsnnaVUQnFj'
p3573
sg8
S'Bam Bam'
p3574
ssS'1auiCkMdXKfIin0EsWFGYJ'
p3575
(dp3576
g3
S'Majoe'
p3577
sg5
I1
sg6
S'https://open.spotify.com/track/1auiCkMdXKfIin0EsWFGYJ'
p3578
sg8
S'Lass uns gehen (feat. KC Rebell)'
p3579
ssS'6yr8GiTHWvFfi4o6Q5ebdT'
p3580
(dp3581
g3
S'Eminem'
p3582
sg5
I32
sg6
S'https://open.spotify.com/track/6yr8GiTHWvFfi4o6Q5ebdT'
p3583
sg8
S"'Till I Collapse"
p3584
ssS'6xLba3W4mpyzI2TaI9UkTi'
p3585
(dp3586
g3
S'Capo'
p3587
sg5
I1
sg6
S'https://open.spotify.com/track/6xLba3W4mpyzI2TaI9UkTi'
p3588
sg8
S'Pagare Para Money (feat. Haftbefehl)'
p3589
ssS'2PcREcTtGiNTUCM4g2Qg4Z'
p3590
(dp3591
g3
S'RIN'
p3592
sg5
I17
sg6
S'https://open.spotify.com/track/2PcREcTtGiNTUCM4g2Qg4Z'
p3593
sg8
S'Bros'
p3594
ssS'5amWhhuMPipfRYq3eLJNyF'
p3595
(dp3596
g3
S'Amanda'
p3597
sg5
I20
sg6
S'https://open.spotify.com/track/5amWhhuMPipfRYq3eLJNyF'
p3598
sg8
S'Blau'
p3599
ssS'2fkeWbM6iqTw7oGHTYm2lw'
p3600
(dp3601
g3
S'Drake'
p3602
sg5
I2
sg6
S'https://open.spotify.com/track/2fkeWbM6iqTw7oGHTYm2lw'
p3603
sg8
S'4422'
p3604
ssS'0ofbQMrRDsUaVKq2mGLEAb'
p3605
(dp3606
g3
S'Camila Cabello'
p3607
sg5
I9
sg6
S'https://open.spotify.com/track/0ofbQMrRDsUaVKq2mGLEAb'
p3608
sg8
S'Havana'
p3609
ssS'7vGuf3Y35N4wmASOKLUVVU'
p3610
(dp3611
g3
S'Marshmello'
p3612
sg5
I9
sg6
S'https://open.spotify.com/track/7vGuf3Y35N4wmASOKLUVVU'
p3613
sg8
S'Silence'
p3614
ssS'3EB28IRRCjgvEpeOkdixlA'
p3615
(dp3616
g3
S'Bushido'
p3617
sg5
I16
sg6
S'https://open.spotify.com/track/3EB28IRRCjgvEpeOkdixlA'
p3618
sg8
S'Papa'
p3619
ssS'7zja6rwquGA6vzLolzKrda'
p3620
(dp3621
g3
S'Andreas Gabalier'
p3622
sg5
I10
sg6
S'https://open.spotify.com/track/7zja6rwquGA6vzLolzKrda'
p3623
sg8
S'Hulapalu'
p3624
ssS'6bLopGnirdrilrpdVB6Um1'
p3625
(dp3626
g3
S'Sia'
p3627
sg5
I6
sg6
S'https://open.spotify.com/track/6bLopGnirdrilrpdVB6Um1'
p3628
sg8
S'The Greatest'
p3629
ssS'0Sg4VL2zkgb3EzJWbZJoXx'
p3630
(dp3631
g3
S'Fler'
p3632
sg5
I1
sg6
S'https://open.spotify.com/track/0Sg4VL2zkgb3EzJWbZJoXx'
p3633
sg8
S'Predigt'
p3634
ssS'2ugvCLxbsJdwWWNPc9Js8V'
p3635
(dp3636
g3
S'Casper'
p3637
sg5
I1
sg6
S'https://open.spotify.com/track/2ugvCLxbsJdwWWNPc9Js8V'
p3638
sg8
S'Sirenen - Full Version'
p3639
ssS'1EPtSITu19y0DQvbIvs6Jz'
p3640
(dp3641
g3
S'Capital Bra'
p3642
sg5
I2
sg6
S'https://open.spotify.com/track/1EPtSITu19y0DQvbIvs6Jz'
p3643
sg8
S'Zweistellige Haftstrafen'
p3644
ssS'31MkGwj0SWgZaTvEt5Hgxv'
p3645
(dp3646
g3
S'P!nk'
p3647
sg5
I9
sg6
S'https://open.spotify.com/track/31MkGwj0SWgZaTvEt5Hgxv'
p3648
sg8
S'What About Us'
p3649
ssS'6iTVIAqZpHmCK9jrpDyDVo'
p3650
(dp3651
g3
S'Kungs'
p3652
sg5
I1
sg6
S'https://open.spotify.com/track/6iTVIAqZpHmCK9jrpDyDVo'
p3653
sg8
S'I Feel So Bad'
p3654
ssS'0N0eGcSmFD0C09G9zaTkF2'
p3655
(dp3656
g3
S'Maxwell'
p3657
sg5
I1
sg6
S'https://open.spotify.com/track/0N0eGcSmFD0C09G9zaTkF2'
p3658
sg8
S'1 Joint'
p3659
ssS'1vvNmPOiUuyCbgWmtc6yfm'
p3660
(dp3661
g3
S'Calvin Harris'
p3662
sg5
I17
sg6
S'https://open.spotify.com/track/1vvNmPOiUuyCbgWmtc6yfm'
p3663
sg8
S'My Way'
p3664
ssS'4v6P25AxtnhbDuybZpzRG8'
p3665
(dp3666
g3
S'Marteria'
p3667
sg5
I2
sg6
S'https://open.spotify.com/track/4v6P25AxtnhbDuybZpzRG8'
p3668
sg8
S'Tauchstation'
p3669
ssS'3DXncPQOG4VBw3QHh3S817'
p3670
(dp3671
g3
S'DJ Khaled'
p3672
sg5
I20
sg6
S'https://open.spotify.com/track/3DXncPQOG4VBw3QHh3S817'
p3673
sg8
S"I'm the One"
p3674
ssS'3V9DfRoS7JfSkuTyNEsCxQ'
p3675
(dp3676
g3
S'Martin Jensen'
p3677
sg5
I1
sg6
S'https://open.spotify.com/track/3V9DfRoS7JfSkuTyNEsCxQ'
p3678
sg8
S'Wait'
p3679
ssS'60IkVf7UfQXmt5CwkpcX8a'
p3680
(dp3681
g3
S'Linkin Park'
p3682
sg5
I1
sg6
S'https://open.spotify.com/track/60IkVf7UfQXmt5CwkpcX8a'
p3683
sg8
S'From The Inside'
p3684
ssS'1Sl3njkhhz8nrSPZroDQ82'
p3685
(dp3686
g3
S'Dimitri Vegas & Like Mike'
p3687
sg5
I11
sg6
S'https://open.spotify.com/track/1Sl3njkhhz8nrSPZroDQ82'
p3688
sg8
S'Complicated (feat. Kiiara)'
p3689
ssS'6z9IdfByHSdQp0RbNZCMVU'
p3690
(dp3691
g3
S'Luciano'
p3692
sg5
I1
sg6
S'https://open.spotify.com/track/6z9IdfByHSdQp0RbNZCMVU'
p3693
sg8
S'Anders nicht so wie du'
p3694
ssS'1jIYa5TXpdoIrRTygK8w56'
p3695
(dp3696
g3
S'Capo'
p3697
sg5
I1
sg6
S'https://open.spotify.com/track/1jIYa5TXpdoIrRTygK8w56'
p3698
sg8
S'Matador (feat. Tommy)'
p3699
ssS'0afhq8XCExXpqazXczTSve'
p3700
(dp3701
g3
S'Ed Sheeran'
p3702
sg5
I32
sg6
S'https://open.spotify.com/track/0afhq8XCExXpqazXczTSve'
p3703
sg8
S'Galway Girl'
p3704
ssS'09OojFvtrM9YRzRjnXqJjA'
p3705
(dp3706
g3
S'Brenda Lee'
p3707
sg5
I1
sg6
S'https://open.spotify.com/track/09OojFvtrM9YRzRjnXqJjA'
p3708
sg8
S"Rockin' Around The Christmas Tree - Rerecorded Version"
p3709
ssS'679C7xG3Mm7zGRwyhskqKW'
p3710
(dp3711
g3
S'KC Rebell'
p3712
sg5
I2
sg6
S'https://open.spotify.com/track/679C7xG3Mm7zGRwyhskqKW'
p3713
sg8
S'Kafa Bir Milyon'
p3714
ssS'6SIToQ3DgnTIzXAyM4amnh'
p3715
(dp3716
g3
S'Bonez MC'
p3717
sg5
I2
sg6
S'https://open.spotify.com/track/6SIToQ3DgnTIzXAyM4amnh'
p3718
sg8
S'Verr\xc3\xa4ter'
p3719
ssS'1NDxZ7cFAo481dtYWdrUnR'
p3720
(dp3721
g3
S'Maggie Lindemann'
p3722
sg5
I27
sg6
S'https://open.spotify.com/track/1NDxZ7cFAo481dtYWdrUnR'
p3723
sg8
S'Pretty Girl - Cheat Codes X CADE Remix'
p3724
ssS'2aFiaMXmWsM3Vj72F9ksBl'
p3725
(dp3726
g3
S'DNCE'
p3727
sg5
I2
sg6
S'https://open.spotify.com/track/2aFiaMXmWsM3Vj72F9ksBl'
p3728
sg8
S'Cake By The Ocean'
p3729
ssS'2F8FwWixFwZhdfMOh3ZYLt'
p3730
(dp3731
g3
S'Miami Yacine'
p3732
sg5
I2
sg6
S'https://open.spotify.com/track/2F8FwWixFwZhdfMOh3ZYLt'
p3733
sg8
S'Daytona'
p3734
ssS'5TKIutymE7YA4mTcLa9eAQ'
p3735
(dp3736
g3
S'Ufo361'
p3737
sg5
I16
sg6
S'https://open.spotify.com/track/5TKIutymE7YA4mTcLa9eAQ'
p3738
sg8
S'F\xc3\xbcr die Gang'
p3739
ssS'27XVTa9Eb2nO6lhhY5SbTl'
p3740
(dp3741
g3
S'Trettmann'
p3742
sg5
I8
sg6
S'https://open.spotify.com/track/27XVTa9Eb2nO6lhhY5SbTl'
p3743
sg8
S'Kn\xc3\xb6cheltief'
p3744
ssS'4TZy1wLyHec06pwgFYDh1a'
p3745
(dp3746
g3
S'Shawn Mendes'
p3747
sg5
I21
sg6
S'https://open.spotify.com/track/4TZy1wLyHec06pwgFYDh1a'
p3748
sg8
S'Mercy'
p3749
ssS'1tpOGO1kyzH5Zhj045IAN7'
p3750
(dp3751
g3
S'KALIM'
p3752
sg5
I3
sg6
S'https://open.spotify.com/track/1tpOGO1kyzH5Zhj045IAN7'
p3753
sg8
S'38'
p3754
ssS'1HxvdVlvQH5NUPi1wsq5L1'
p3755
(dp3756
g3
S'Welshly Arms'
p3757
sg5
I21
sg6
S'https://open.spotify.com/track/1HxvdVlvQH5NUPi1wsq5L1'
p3758
sg8
S'Legendary'
p3759
ssS'4q8PHoRsPUB52LFylX8Ulz'
p3760
(dp3761
g3
S'Axwell /\\ Ingrosso'
p3762
sg5
I9
sg6
S'https://open.spotify.com/track/4q8PHoRsPUB52LFylX8Ulz'
p3763
sg8
S'More Than You Know'
p3764
ssS'24QLjRdXiJdhuzzaXg9mqK'
p3765
(dp3766
g3
S'Azet'
p3767
sg5
I16
sg6
S'https://open.spotify.com/track/24QLjRdXiJdhuzzaXg9mqK'
p3768
sg8
S'Patte flie\xc3\x9ft'
p3769
ssS'6rwCkGBh7CV6pcdxZKbcsG'
p3770
(dp3771
g3
S'KC Rebell'
p3772
sg5
I29
sg6
S'https://open.spotify.com/track/6rwCkGBh7CV6pcdxZKbcsG'
p3773
sg8
S'iPhone 17 (feat. Mo\xc3\xa9)'
p3774
ssS'4Q3N4Ct4zCuIHuZ65E3BD4'
p3775
(dp3776
g3
S'Kodak Black'
p3777
sg5
I2
sg6
S'https://open.spotify.com/track/4Q3N4Ct4zCuIHuZ65E3BD4'
p3778
sg8
S'Tunnel Vision'
p3779
ssS'05Mp2UJulSttxQ4E6hQPH3'
p3780
(dp3781
g3
S'Bonez MC'
p3782
sg5
I42
sg6
S'https://open.spotify.com/track/05Mp2UJulSttxQ4E6hQPH3'
p3783
sg8
S'Ohne mein Team'
p3784
ssS'1Syhm4vkn6n2DYuFnyI60s'
p3785
(dp3786
g3
S'Ufo361'
p3787
sg5
I14
sg6
S'https://open.spotify.com/track/1Syhm4vkn6n2DYuFnyI60s'
p3788
sg8
S'Schei\xc3\x9f auf eure Party'
p3789
ssS'1FUViuNSldssMIawrOXF2i'
p3790
(dp3791
g3
S'Bebe Rexha'
p3792
sg5
I16
sg6
S'https://open.spotify.com/track/1FUViuNSldssMIawrOXF2i'
p3793
sg8
S'I Got You'
p3794
ssS'4lharVQjYNhByFR8dSHkMA'
p3795
(dp3796
g3
S'Bakermat'
p3797
sg5
I12
sg6
S'https://open.spotify.com/track/4lharVQjYNhByFR8dSHkMA'
p3798
sg8
S"Don't Want You Back"
p3799
ssS'5eek2X5459T1HoYJk2CKXv'
p3800
(dp3801
g3
S'Papa Roach'
p3802
sg5
I14
sg6
S'https://open.spotify.com/track/5eek2X5459T1HoYJk2CKXv'
p3803
sg8
S'Last Resort'
p3804
ssS'1mEboo42f3Pt5BSPCtogYr'
p3805
(dp3806
g3
S'Bonez MC'
p3807
sg5
I5
sg6
S'https://open.spotify.com/track/1mEboo42f3Pt5BSPCtogYr'
p3808
sg8
S'Attackieren'
p3809
ssS'0HlGKH64XBzPBMI9jeuzZM'
p3810
(dp3811
g3
S'Regi'
p3812
sg5
I16
sg6
S'https://open.spotify.com/track/0HlGKH64XBzPBMI9jeuzZM'
p3813
sg8
S'Should Have Been There'
p3814
ssS'6OuV4vfyb8v3vGGGksqyKf'
p3815
(dp3816
g3
S'AJR'
p3817
sg5
I2
sg6
S'https://open.spotify.com/track/6OuV4vfyb8v3vGGGksqyKf'
p3818
sg8
S'Weak'
p3819
ssS'0iLepQZplKG7yHcftpPNo1'
p3820
(dp3821
g3
S'Casper'
p3822
sg5
I1
sg6
S'https://open.spotify.com/track/0iLepQZplKG7yHcftpPNo1'
p3823
sg8
S'Wo die wilden Maden graben'
p3824
ssS'542Xd5qDeLBvgXZXhfW7LE'
p3825
(dp3826
g3
S'Vice'
p3827
sg5
I1
sg6
S'https://open.spotify.com/track/542Xd5qDeLBvgXZXhfW7LE'
p3828
sg8
S'Obsession (feat. Jon Bellion)'
p3829
ssS'4Q4jmPHwu0wrJvqrld0FQ6'
p3830
(dp3831
g3
S'Zara Larsson'
p3832
sg5
I14
sg6
S'https://open.spotify.com/track/4Q4jmPHwu0wrJvqrld0FQ6'
p3833
sg8
S'I Would Like'
p3834
ssS'1Bmk3YPQdN6ZF2mkg1p6ji'
p3835
(dp3836
g3
S'Die drei ???'
p3837
sg5
I2
sg6
S'https://open.spotify.com/track/1Bmk3YPQdN6ZF2mkg1p6ji'
p3838
sg8
S'182 - Im Haus des Henkers - Teil 01'
p3839
ssS'6rQSrBHf7HlZjtcMZ4S4bO'
p3840
(dp3841
g3
S'J Balvin'
p3842
sg5
I1
sg6
S'https://open.spotify.com/track/6rQSrBHf7HlZjtcMZ4S4bO'
p3843
sg8
S'Safari'
p3844
ssS'0QjewL57d6QobAvn1JoQd9'
p3845
(dp3846
g3
S'Trailerpark'
p3847
sg5
I16
sg6
S'https://open.spotify.com/track/0QjewL57d6QobAvn1JoQd9'
p3848
sg8
S'Bleib in der Schule'
p3849
ssS'0QjDsAtLPHcD391U6VtxdH'
p3850
(dp3851
g3
S'Die Toten Hosen'
p3852
sg5
I3
sg6
S'https://open.spotify.com/track/0QjDsAtLPHcD391U6VtxdH'
p3853
sg8
S'Unter den Wolken'
p3854
ssS'3Dqe6DACBnXsMlYuOZkPyB'
p3855
(dp3856
g3
S'Bushido'
p3857
sg5
I1
sg6
S'https://open.spotify.com/track/3Dqe6DACBnXsMlYuOZkPyB'
p3858
sg8
S'Ground Zero'
p3859
ssS'7xSv8lIdJtGMMgsMm2qk94'
p3860
(dp3861
g3
S'RIN'
p3862
sg5
I3
sg6
S'https://open.spotify.com/track/7xSv8lIdJtGMMgsMm2qk94'
p3863
sg8
S'Doverstreet'
p3864
ssS'7yyRTcZmCiyzzJlNzGC9Ol'
p3865
(dp3866
g3
S'DRAM'
p3867
sg5
I6
sg6
S'https://open.spotify.com/track/7yyRTcZmCiyzzJlNzGC9Ol'
p3868
sg8
S'Broccoli (feat. Lil Yachty)'
p3869
ssS'0L9lXMXddmoBbBUeF7A9An'
p3870
(dp3871
g3
S'Gavin James'
p3872
sg5
I1
sg6
S'https://open.spotify.com/track/0L9lXMXddmoBbBUeF7A9An'
p3873
sg8
S'Nervous (The Ooh Song) - Mark McCabe Remix'
p3874
ssS'3vcHPShfJAFP3TtAAsTHsV'
p3875
(dp3876
g3
S'Sunstroke Project'
p3877
sg5
I5
sg6
S'https://open.spotify.com/track/3vcHPShfJAFP3TtAAsTHsV'
p3878
sg8
S'Hey Mamma - Radio Edit'
p3879
ssS'4CGkQ2Vl5pW7SGWaan6R2p'
p3880
(dp3881
g3
S'Luciano'
p3882
sg5
I29
sg6
S'https://open.spotify.com/track/4CGkQ2Vl5pW7SGWaan6R2p'
p3883
sg8
S'J\xc3\xa4ger'
p3884
ssS'3zgZC7oLVaBA9OkHpqxKY7'
p3885
(dp3886
g3
S'Mert'
p3887
sg5
I9
sg6
S'https://open.spotify.com/track/3zgZC7oLVaBA9OkHpqxKY7'
p3888
sg8
S'Boxerschnitt'
p3889
ssS'2VRNYpYmE2ToZQYgiUl4Hc'
p3890
(dp3891
g3
S'Backstreet Boys'
p3892
sg5
I1
sg6
S'https://open.spotify.com/track/2VRNYpYmE2ToZQYgiUl4Hc'
p3893
sg8
S'Christmas Time'
p3894
ssS'2Fjz5ZC5BvFdCqcnTZ3ilH'
p3895
(dp3896
g3
S'Alan Walker'
p3897
sg5
I5
sg6
S'https://open.spotify.com/track/2Fjz5ZC5BvFdCqcnTZ3ilH'
p3898
sg8
S'Sing Me to Sleep'
p3899
ssS'2mgEaXikIdfbdonkQ6AY6D'
p3900
(dp3901
g3
S'Kianush'
p3902
sg5
I10
sg6
S'https://open.spotify.com/track/2mgEaXikIdfbdonkQ6AY6D'
p3903
sg8
S'Chill mal dein Leben (feat. Moe Phoenix)'
p3904
ssS'0KzUyonAz3qE6UE9tDL4tV'
p3905
(dp3906
g3
S'Kurdo'
p3907
sg5
I1
sg6
S'https://open.spotify.com/track/0KzUyonAz3qE6UE9tDL4tV'
p3908
sg8
S'Rolling Stone'
p3909
ssS'2771LMNxwf62FTAdpJMQfM'
p3910
(dp3911
g3
S'Cardi B'
p3912
sg5
I7
sg6
S'https://open.spotify.com/track/2771LMNxwf62FTAdpJMQfM'
p3913
sg8
S'Bodak Yellow'
p3914
ssS'3SdZWZ653w62Ah37iDo831'
p3915
(dp3916
g3
S'Bibi H.'
p3917
sg5
I2
sg6
S'https://open.spotify.com/track/3SdZWZ653w62Ah37iDo831'
p3918
sg8
S'How It Is (Wap Bap...)'
p3919
ssS'1onfcprzpSGh2LqrBh17AA'
p3920
(dp3921
g3
S'The xx'
p3922
sg5
I1
sg6
S'https://open.spotify.com/track/1onfcprzpSGh2LqrBh17AA'
p3923
sg8
S'Lips'
p3924
ssS'5mDi8FkNbOzi0oShXATOAx'
p3925
(dp3926
g3
S'RIN'
p3927
sg5
I1
sg6
S'https://open.spotify.com/track/5mDi8FkNbOzi0oShXATOAx'
p3928
sg8
S'Colette'
p3929
ssS'4kf3rP8DvxHMK3dVTAS9ip'
p3930
(dp3931
g3
S'Bushido'
p3932
sg5
I3
sg6
S'https://open.spotify.com/track/4kf3rP8DvxHMK3dVTAS9ip'
p3933
sg8
S'Oma Lise'
p3934
ssS'1DLOUgkOuBQ86na4LfYJGd'
p3935
(dp3936
g3
S'Capital Bra'
p3937
sg5
I2
sg6
S'https://open.spotify.com/track/1DLOUgkOuBQ86na4LfYJGd'
p3938
sg8
S'Bra macht die AK'
p3939
ssS'1A4y0eCgwxgII0iRCt6oEk'
p3940
(dp3941
g3
S'Jim Pandzko'
p3942
sg5
I1
sg6
S'https://open.spotify.com/track/1A4y0eCgwxgII0iRCt6oEk'
p3943
sg8
S'Menschen Leben Tanzen Welt'
p3944
ssS'5pvVAwQbuFoR7LkcicrKnk'
p3945
(dp3946
g3
S'Vice'
p3947
sg5
I4
sg6
S'https://open.spotify.com/track/5pvVAwQbuFoR7LkcicrKnk'
p3948
sg8
S'Obsession (feat. Jon Bellion)'
p3949
ssS'7lKmH1EiElnQdYdWPFnySe'
p3950
(dp3951
g3
S'Mert'
p3952
sg5
I1
sg6
S'https://open.spotify.com/track/7lKmH1EiElnQdYdWPFnySe'
p3953
sg8
S'Ausl\xc3\xa4nder 2'
p3954
ssS'5ev0Z2lFzmhjlQCWpRAWiG'
p3955
(dp3956
g3
S'Sigala'
p3957
sg5
I3
sg6
S'https://open.spotify.com/track/5ev0Z2lFzmhjlQCWpRAWiG'
p3958
sg8
S'Only One - Radio Edit'
p3959
ssS'104buTcnP2AsxqB7U1FIZ4'
p3960
(dp3961
g3
S'Linkin Park'
p3962
sg5
I31
sg6
S'https://open.spotify.com/track/104buTcnP2AsxqB7U1FIZ4'
p3963
sg8
S'Heavy (feat. Kiiara)'
p3964
ssS'3hyhi3QDTz0w2w0vGHESkJ'
p3965
(dp3966
g3
S'Kraftklub'
p3967
sg5
I1
sg6
S'https://open.spotify.com/track/3hyhi3QDTz0w2w0vGHESkJ'
p3968
sg8
S'Leben ruinieren'
p3969
ssS'7kCEiaplcEUidN0FJeT9XV'
p3970
(dp3971
g3
S'Ufo361'
p3972
sg5
I1
sg6
S'https://open.spotify.com/track/7kCEiaplcEUidN0FJeT9XV'
p3973
sg8
S'Traum'
p3974
ssS'6kaTpmTsLM36bNwm3ZyE3h'
p3975
(dp3976
g3
S'Maxwell'
p3977
sg5
I1
sg6
S'https://open.spotify.com/track/6kaTpmTsLM36bNwm3ZyE3h'
p3978
sg8
S'Fressen und Gefressen werden'
p3979
ssS'43jBqV3j3Xi1g6wO0bhIMd'
p3980
(dp3981
g3
S'Sage The Gemini'
p3982
sg5
I23
sg6
S'https://open.spotify.com/track/43jBqV3j3Xi1g6wO0bhIMd'
p3983
sg8
S'Now and Later'
p3984
ssS'650OeHTLxZAQmb4aEbGmaA'
p3985
(dp3986
g3
S'Linkin Park'
p3987
sg5
I3
sg6
S'https://open.spotify.com/track/650OeHTLxZAQmb4aEbGmaA'
p3988
sg8
S'Good Goodbye (feat. Pusha T and Stormzy)'
p3989
ssS'1PSBzsahR2AKwLJgx8ehBj'
p3990
(dp3991
g3
S'Machine Gun Kelly'
p3992
sg5
I12
sg6
S'https://open.spotify.com/track/1PSBzsahR2AKwLJgx8ehBj'
p3993
sg8
S'Bad Things (with Camila Cabello)'
p3994
ssS'53mrVsi49rLHIaKBiSvElG'
p3995
(dp3996
g3
S'blackbear'
p3997
sg5
I1
sg6
S'https://open.spotify.com/track/53mrVsi49rLHIaKBiSvElG'
p3998
sg8
S'do re mi (feat. Gucci Mane)'
p3999
ssS'7KOlJ92bu51cltsD9KU5I7'
p4000
(dp4001
g3
S'Migos'
p4002
sg5
I5
sg6
S'https://open.spotify.com/track/7KOlJ92bu51cltsD9KU5I7'
p4003
sg8
S'T-Shirt'
p4004
ssS'0D8ZpOXVjapLXrjz5VfZSD'
p4005
(dp4006
g3
S'Sam Smith'
p4007
sg5
I1
sg6
S'https://open.spotify.com/track/0D8ZpOXVjapLXrjz5VfZSD'
p4008
sg8
S'Pray'
p4009
ssS'5caMCe2gq8y72GVUEQEonQ'
p4010
(dp4011
g3
S'Cro'
p4012
sg5
I14
sg6
S'https://open.spotify.com/track/5caMCe2gq8y72GVUEQEonQ'
p4013
sg8
S'Unendlichkeit'
p4014
ssS'1My0Hfu5dTCbYisBk9ZRGr'
p4015
(dp4016
g3
S'Galantis'
p4017
sg5
I4
sg6
S'https://open.spotify.com/track/1My0Hfu5dTCbYisBk9ZRGr'
p4018
sg8
S'Hunter'
p4019
ssS'3m660poUr1chesgkkjQM7P'
p4020
(dp4021
g3
S'Demi Lovato'
p4022
sg5
I2
sg6
S'https://open.spotify.com/track/3m660poUr1chesgkkjQM7P'
p4023
sg8
S'Sorry Not Sorry'
p4024
ssS'3SGWp9fJCzgK0WcpcKSQdy'
p4025
(dp4026
g3
S'Stanaj'
p4027
sg5
I8
sg6
S'https://open.spotify.com/track/3SGWp9fJCzgK0WcpcKSQdy'
p4028
sg8
S'Romantic - NOTD Remix'
p4029
ssS'3K4HG9evC7dg3N0R9cYqk4'
p4030
(dp4031
g3
S'Linkin Park'
p4032
sg5
I1
sg6
S'https://open.spotify.com/track/3K4HG9evC7dg3N0R9cYqk4'
p4033
sg8
S'One Step Closer'
p4034
ssS'1Vej0qeQ3ioKwpI6FUbRv1'
p4035
(dp4036
g3
S'Linkin Park'
p4037
sg5
I1
sg6
S'https://open.spotify.com/track/1Vej0qeQ3ioKwpI6FUbRv1'
p4038
sg8
S'Papercut'
p4039
ssS'661bbtA19xopO3lH0J4Qvr'
p4040
(dp4041
g3
S'The xx'
p4042
sg5
I1
sg6
S'https://open.spotify.com/track/661bbtA19xopO3lH0J4Qvr'
p4043
sg8
S'A Violent Noise'
p4044
ssS'3ebXMykcMXOcLeJ9xZ17XH'
p4045
(dp4046
g3
S'Martin Garrix'
p4047
sg5
I37
sg6
S'https://open.spotify.com/track/3ebXMykcMXOcLeJ9xZ17XH'
p4048
sg8
S'Scared to Be Lonely'
p4049
ssS'7vuZGOA24pLl6JrEAIvitZ'
p4050
(dp4051
g3
S'RIN'
p4052
sg5
I3
sg6
S'https://open.spotify.com/track/7vuZGOA24pLl6JrEAIvitZ'
p4053
sg8
S'Monica Bellucci'
p4054
ssS'6fujklziTHa8uoM5OQSfIo'
p4055
(dp4056
g3
S'Rae Sremmurd'
p4057
sg5
I18
sg6
S'https://open.spotify.com/track/6fujklziTHa8uoM5OQSfIo'
p4058
sg8
S'Black Beatles'
p4059
ssS'1DFIyhRxaDAbZxTMN0BSBu'
p4060
(dp4061
g3
S'Amanda'
p4062
sg5
I3
sg6
S'https://open.spotify.com/track/1DFIyhRxaDAbZxTMN0BSBu'
p4063
sg8
S'Blau'
p4064
ssS'6bTAKxX1oLUvKOOh85i4DW'
p4065
(dp4066
g3
S'KC Rebell'
p4067
sg5
I1
sg6
S'https://open.spotify.com/track/6bTAKxX1oLUvKOOh85i4DW'
p4068
sg8
S'Kontrolle verloren - Bonustrack'
p4069
ssS'5E1IQbUZxY7gyrNlwiEr7T'
p4070
(dp4071
g3
S'Kollegah'
p4072
sg5
I3
sg6
S'https://open.spotify.com/track/5E1IQbUZxY7gyrNlwiEr7T'
p4073
sg8
S'Pharao'
p4074
ssS'1vYLKyzU47iF8UWTU5C1CQ'
p4075
(dp4076
g3
S'KC Rebell'
p4077
sg5
I10
sg6
S'https://open.spotify.com/track/1vYLKyzU47iF8UWTU5C1CQ'
p4078
sg8
S'Voll mein Ding (feat. Adel Tawil)'
p4079
ssS'6UjfByV1lDLW0SOVQA4NAi'
p4080
(dp4081
g3
S'Drake'
p4082
sg5
I3
sg6
S'https://open.spotify.com/track/6UjfByV1lDLW0SOVQA4NAi'
p4083
sg8
S'Gyalchester'
p4084
ssS'607TgBgbTvP8CTgIHN0R6q'
p4085
(dp4086
g3
S'Ufo361'
p4087
sg5
I17
sg6
S'https://open.spotify.com/track/607TgBgbTvP8CTgIHN0R6q'
p4088
sg8
S'Nice Girl 2.0'
p4089
ssS'3cvbeLKHVG3EYibxcCLVYB'
p4090
(dp4091
g3
S'Savas'
p4092
sg5
I1
sg6
S'https://open.spotify.com/track/3cvbeLKHVG3EYibxcCLVYB'
p4093
sg8
S'Unterschied'
p4094
ssS'3PEgB3fkiojxms35ntsTgs'
p4095
(dp4096
g3
S'Axwell /\\ Ingrosso'
p4097
sg5
I11
sg6
S'https://open.spotify.com/track/3PEgB3fkiojxms35ntsTgs'
p4098
sg8
S'More Than You Know'
p4099
ssS'1DTw1NsSVV9G2F8BMdVX6U'
p4100
(dp4101
g3
S'Anstandslos & Durchgeknallt'
p4102
sg5
I2
sg6
S'https://open.spotify.com/track/1DTw1NsSVV9G2F8BMdVX6U'
p4103
sg8
S'Ohne Dich - Radio Version'
p4104
ssS'0ekFioHmdtwcITYOYXavl6'
p4105
(dp4106
g3
S'Yung Hurn'
p4107
sg5
I4
sg6
S'https://open.spotify.com/track/0ekFioHmdtwcITYOYXavl6'
p4108
sg8
S'Bianco - Prod. Lex Lugner'
p4109
ssS'05X6aMCQR09E6smUmw9qms'
p4110
(dp4111
g3
S'Queen'
p4112
sg5
I1
sg6
S'https://open.spotify.com/track/05X6aMCQR09E6smUmw9qms'
p4113
sg8
S"Thank God It's Christmas - Non-Album Single"
p4114
ssS'0Z4AOIqWrH3pNwHGScZFuJ'
p4115
(dp4116
g3
S'Kollegah'
p4117
sg5
I8
sg6
S'https://open.spotify.com/track/0Z4AOIqWrH3pNwHGScZFuJ'
p4118
sg8
S'Einer von Millionen (feat. Motrip)'
p4119
ssS'2KonJAzGk5q5SqzbvUOSzS'
p4120
(dp4121
g3
S'Emily Roberts'
p4122
sg5
I1
sg6
S'https://open.spotify.com/track/2KonJAzGk5q5SqzbvUOSzS'
p4123
sg8
S'#santaclara'
p4124
ssS'1s0yEjjEBv9ANRJiBRRVm8'
p4125
(dp4126
g3
S'Nimo'
p4127
sg5
I5
sg6
S'https://open.spotify.com/track/1s0yEjjEBv9ANRJiBRRVm8'
p4128
sg8
S'Michelangelo'
p4129
ssS'3NwZZSfJMceF6voaxIWEoV'
p4130
(dp4131
g3
S'Mert'
p4132
sg5
I14
sg6
S'https://open.spotify.com/track/3NwZZSfJMceF6voaxIWEoV'
p4133
sg8
S'Ajajaj'
p4134
ssS'1QzjtS7kXYGPUQF1lbcX1f'
p4135
(dp4136
g3
S'Zuna'
p4137
sg5
I2
sg6
S'https://open.spotify.com/track/1QzjtS7kXYGPUQF1lbcX1f'
p4138
sg8
S'Ghetto'
p4139
ssS'7aiVBCp1ibIWE5GeHkbtxr'
p4140
(dp4141
g3
S'Britney Spears'
p4142
sg5
I1
sg6
S'https://open.spotify.com/track/7aiVBCp1ibIWE5GeHkbtxr'
p4143
sg8
S'My Only Wish (This Year)'
p4144
ssS'5cchJci8fb4K0b0i66s5pA'
p4145
(dp4146
g3
S'Azzi Memo'
p4147
sg5
I1
sg6
S'https://open.spotify.com/track/5cchJci8fb4K0b0i66s5pA'
p4148
sg8
S'Mufasa'
p4149
ssS'5ShUhlNH4o5FUFXTdM1ZFq'
p4150
(dp4151
g3
S'Kontra K'
p4152
sg5
I1
sg6
S'https://open.spotify.com/track/5ShUhlNH4o5FUFXTdM1ZFq'
p4153
sg8
S'H\xc3\xa4nde weg (feat. Rico)'
p4154
ssS'0UeYCHOETPfai02uskjJ3x'
p4155
(dp4156
g3
S'Bag Raiders'
p4157
sg5
I11
sg6
S'https://open.spotify.com/track/0UeYCHOETPfai02uskjJ3x'
p4158
sg8
S'Shooting Stars'
p4159
ssS'7Lgpic8BsBJR4jFrr9abbz'
p4160
(dp4161
g3
S'Robin Schulz'
p4162
sg5
I3
sg6
S'https://open.spotify.com/track/7Lgpic8BsBJR4jFrr9abbz'
p4163
sg8
S"I Believe I'm Fine"
p4164
ssS'0B8B8cVRFIG1yznoQe7c9s'
p4165
(dp4166
g3
S'The Chainsmokers'
p4167
sg5
I3
sg6
S'https://open.spotify.com/track/0B8B8cVRFIG1yznoQe7c9s'
p4168
sg8
S'Setting Fires'
p4169
ssS'3nmWV4qvKl7rPdX99SyQem'
p4170
(dp4171
g3
S'Lions Head'
p4172
sg5
I1
sg6
S'https://open.spotify.com/track/3nmWV4qvKl7rPdX99SyQem'
p4173
sg8
S'See You'
p4174
ssS'5hNbpjMYatgqiDa7nonhsl'
p4175
(dp4176
g3
S'KC Rebell'
p4177
sg5
I2
sg6
S'https://open.spotify.com/track/5hNbpjMYatgqiDa7nonhsl'
p4178
sg8
S'Tabasco'
p4179
ssS'02WacdrRpm4zlP8H7X6bnQ'
p4180
(dp4181
g3
S'Calum Scott'
p4182
sg5
I11
sg6
S'https://open.spotify.com/track/02WacdrRpm4zlP8H7X6bnQ'
p4183
sg8
S'Dancing On My Own'
p4184
ssS'1mDGDb2fUmUMdqV3tb8VKQ'
p4185
(dp4186
g3
S'Halsey'
p4187
sg5
I1
sg6
S'https://open.spotify.com/track/1mDGDb2fUmUMdqV3tb8VKQ'
p4188
sg8
S'Now Or Never'
p4189
ssS'3qaYuV5XZAwiOvGE91HhwS'
p4190
(dp4191
g3
S'Mike Perry'
p4192
sg5
I6
sg6
S'https://open.spotify.com/track/3qaYuV5XZAwiOvGE91HhwS'
p4193
sg8
S'Inside the Lines'
p4194
ssS'1eeMYjuph7DQ1WOkMH7YA3'
p4195
(dp4196
g3
S'Lost Frequencies'
p4197
sg5
I1
sg6
S'https://open.spotify.com/track/1eeMYjuph7DQ1WOkMH7YA3'
p4198
sg8
S'Here with You'
p4199
ssS'095XSaT8I2uI6Uldj2QrSl'
p4200
(dp4201
g3
S'Jona Lewie'
p4202
sg5
I1
sg6
S'https://open.spotify.com/track/095XSaT8I2uI6Uldj2QrSl'
p4203
sg8
S'Stop the Cavalry'
p4204
ssS'0gzxcbzVIufQDGmxOhy1ZN'
p4205
(dp4206
g3
S'Trettmann'
p4207
sg5
I2
sg6
S'https://open.spotify.com/track/0gzxcbzVIufQDGmxOhy1ZN'
p4208
sg8
S'Dumplin & Callaloo'
p4209
ssS'6OZh916QF8XNunWaP97WEZ'
p4210
(dp4211
g3
S'Jonas Blue'
p4212
sg5
I6
sg6
S'https://open.spotify.com/track/6OZh916QF8XNunWaP97WEZ'
p4213
sg8
S'Fast Car'
p4214
ssS'2rizacJSyD9S1IQUxUxnsK'
p4215
(dp4216
g3
S'The Chainsmokers'
p4217
sg5
I10
sg6
S'https://open.spotify.com/track/2rizacJSyD9S1IQUxUxnsK'
p4218
sg8
S'All We Know'
p4219
ssS'6u17eFFrfGHH4f7AfwKy7J'
p4220
(dp4221
g3
S'KC Rebell'
p4222
sg5
I5
sg6
S'https://open.spotify.com/track/6u17eFFrfGHH4f7AfwKy7J'
p4223
sg8
S'Tabasco'
p4224
ssS'79NlESqzFSW0hdBWgls4FX'
p4225
(dp4226
g3
S'Kesha'
p4227
sg5
I5
sg6
S'https://open.spotify.com/track/79NlESqzFSW0hdBWgls4FX'
p4228
sg8
S'Praying'
p4229
ssS'0tgVpDi06FyKpA1z0VMD4v'
p4230
(dp4231
g3
S'Ed Sheeran'
p4232
sg5
I15
sg6
S'https://open.spotify.com/track/0tgVpDi06FyKpA1z0VMD4v'
p4233
sg8
S'Perfect'
p4234
ssS'46pF1zFimM582ss1PrMy68'
p4235
(dp4236
g3
S'Darlene Love'
p4237
sg5
I1
sg6
S'https://open.spotify.com/track/46pF1zFimM582ss1PrMy68'
p4238
sg8
S'Christmas (Baby Please Come Home)'
p4239
ssS'5nD55MtxZ3QdhNUWkPofEt'
p4240
(dp4241
g3
S'Casper'
p4242
sg5
I3
sg6
S'https://open.spotify.com/track/5nD55MtxZ3QdhNUWkPofEt'
p4243
sg8
S'Keine Angst'
p4244
ssS'2Vdub5mY4lad7w64bFPUez'
p4245
(dp4246
g3
S'Pitbull'
p4247
sg5
I8
sg6
S'https://open.spotify.com/track/2Vdub5mY4lad7w64bFPUez'
p4248
sg8
S'Hey Ma (with Pitbull & J Balvin feat. Camila Cabello) - Spanish Version'
p4249
ssS'3GPI7hYiqD6enLRobhkBm8'
p4250
(dp4251
g3
S'ItaloBrothers'
p4252
sg5
I10
sg6
S'https://open.spotify.com/track/3GPI7hYiqD6enLRobhkBm8'
p4253
sg8
S'Summer Air'
p4254
ssS'6cAKeFFYW2aClZSUyvqAEW'
p4255
(dp4256
g3
S'Isaiah'
p4257
sg5
I9
sg6
S'https://open.spotify.com/track/6cAKeFFYW2aClZSUyvqAEW'
p4258
sg8
S"It's Gotta Be You"
p4259
ssS'26hcyzSE154xMZCbFdtInA'
p4260
(dp4261
g3
S'KREAM'
p4262
sg5
I3
sg6
S'https://open.spotify.com/track/26hcyzSE154xMZCbFdtInA'
p4263
sg8
S'Taped Up Heart (feat. Clara Mae)'
p4264
ssS'0xCXcq4y44uHJtJ7zZDF3d'
p4265
(dp4266
g3
S'Bilderbuch'
p4267
sg5
I4
sg6
S'https://open.spotify.com/track/0xCXcq4y44uHJtJ7zZDF3d'
p4268
sg8
S'Bungalow'
p4269
ssS'6SpE8A5auqnlmVcMQ4ekYK'
p4270
(dp4271
g3
S'257ers'
p4272
sg5
I14
sg6
S'https://open.spotify.com/track/6SpE8A5auqnlmVcMQ4ekYK'
p4273
sg8
S'Holland'
p4274
ssS'64R0yuB8XXHxWQ9PIBF83s'
p4275
(dp4276
g3
S'Nimo'
p4277
sg5
I1
sg6
S'https://open.spotify.com/track/64R0yuB8XXHxWQ9PIBF83s'
p4278
sg8
S'Warum hasst ihr mich'
p4279
ssS'6yVKwbw0piZ5lj2l5GT548'
p4280
(dp4281
g3
S'Azzi Memo'
p4282
sg5
I4
sg6
S'https://open.spotify.com/track/6yVKwbw0piZ5lj2l5GT548'
p4283
sg8
S'AMG'
p4284
ssS'0t2myRMEMCi2SRyg5TEFLp'
p4285
(dp4286
g3
S'Mura Masa'
p4287
sg5
I1
sg6
S'https://open.spotify.com/track/0t2myRMEMCi2SRyg5TEFLp'
p4288
sg8
S'Love$ick'
p4289
ssS'5y2qTBdWUFNgSPOygSWOMe'
p4290
(dp4291
g3
S'Adel Tawil'
p4292
sg5
I17
sg6
S'https://open.spotify.com/track/5y2qTBdWUFNgSPOygSWOMe'
p4293
sg8
S'Bis hier und noch weiter'
p4294
ssS'2wDjpPW3HZdA9quPPmZAMu'
p4295
(dp4296
g3
S'Cashmere Cat'
p4297
sg5
I3
sg6
S'https://open.spotify.com/track/2wDjpPW3HZdA9quPPmZAMu'
p4298
sg8
S'Trust Nobody (feat. Selena Gomez & Tory Lanez)'
p4299
ssS'2LAudGqtk1ci9zTJD3Sq9B'
p4300
(dp4301
g3
S'Celo & Abdi'
p4302
sg5
I6
sg6
S'https://open.spotify.com/track/2LAudGqtk1ci9zTJD3Sq9B'
p4303
sg8
S"Rhythm n' Flouz"
p4304
ssS'1hvpDAxZPKjKztOc72sv06'
p4305
(dp4306
g3
S'Band Aid'
p4307
sg5
I1
sg6
S'https://open.spotify.com/track/1hvpDAxZPKjKztOc72sv06'
p4308
sg8
S"Do They Know It's Christmas? - 1984 Version"
p4309
ssS'72Q0FQQo32KJloivv5xge2'
p4310
(dp4311
g3
S'DJ Khaled'
p4312
sg5
I3
sg6
S'https://open.spotify.com/track/72Q0FQQo32KJloivv5xge2'
p4313
sg8
S"I'm the One"
p4314
ssS'0WcpJc0w9ENQh4LULJPGIX'
p4315
(dp4316
g3
S'Ufo361'
p4317
sg5
I4
sg6
S'https://open.spotify.com/track/0WcpJc0w9ENQh4LULJPGIX'
p4318
sg8
S'Migos'
p4319
ssS'0hNduWmlWmEmuwEFcYvRu1'
p4320
(dp4321
g3
S'Petit Biscuit'
p4322
sg5
I21
sg6
S'https://open.spotify.com/track/0hNduWmlWmEmuwEFcYvRu1'
p4323
sg8
S'Sunset Lover'
p4324
ssS'5kTXpnvBrdGjILUejNdCPT'
p4325
(dp4326
g3
S'Ufo361'
p4327
sg5
I1
sg6
S'https://open.spotify.com/track/5kTXpnvBrdGjILUejNdCPT'
p4328
sg8
S'Wann wenn nicht jetzt'
p4329
ssS'1x5sYLZiu9r5E43kMlt9f8'
p4330
(dp4331
g3
S'Clean Bandit'
p4332
sg5
I30
sg6
S'https://open.spotify.com/track/1x5sYLZiu9r5E43kMlt9f8'
p4333
sg8
S'Symphony (feat. Zara Larsson)'
p4334
ssS'2hgzdQdnfWwtdpZbhZlV72'
p4335
(dp4336
g3
S'Jennifer Lopez'
p4337
sg5
I6
sg6
S'https://open.spotify.com/track/2hgzdQdnfWwtdpZbhZlV72'
p4338
sg8
S"Ain't Your Mama"
p4339
ssS'6IeK3Ap5m3HabwJxgI6eSE'
p4340
(dp4341
g3
S'Perry Como'
p4342
sg5
I1
sg6
S'https://open.spotify.com/track/6IeK3Ap5m3HabwJxgI6eSE'
p4343
sg8
S"It's Beginning to Look a Lot Like Christmas"
p4344
ssS'3DtSEQk9ffHw87Ayfk8KXQ'
p4345
(dp4346
g3
S'Jazn'
p4347
sg5
I8
sg6
S'https://open.spotify.com/track/3DtSEQk9ffHw87Ayfk8KXQ'
p4348
sg8
S'Bombay'
p4349
ssS'3EUJk6XeNpTgXwGQgYqwm9'
p4350
(dp4351
g3
S'Ufo361'
p4352
sg5
I3
sg6
S'https://open.spotify.com/track/3EUJk6XeNpTgXwGQgYqwm9'
p4353
sg8
S'Mister T'
p4354
ssS'3nkAsKaILW1fTG200Kfyth'
p4355
(dp4356
g3
S'Capital Bra'
p4357
sg5
I1
sg6
S'https://open.spotify.com/track/3nkAsKaILW1fTG200Kfyth'
p4358
sg8
S'Intro'
p4359
ssS'6fTsxhIosAU6zXTAhSaemI'
p4360
(dp4361
g3
S'ALMA'
p4362
sg5
I23
sg6
S'https://open.spotify.com/track/6fTsxhIosAU6zXTAhSaemI'
p4363
sg8
S'Chasing Highs'
p4364
ssS'6520aj0B4FSKGVuKNsOCOi'
p4365
(dp4366
g3
S'Katy Perry'
p4367
sg5
I17
sg6
S'https://open.spotify.com/track/6520aj0B4FSKGVuKNsOCOi'
p4368
sg8
S'Chained To The Rhythm'
p4369
ssS'6SwRhMLwNqEi6alNPVG00n'
p4370
(dp4371
g3
S'Kendrick Lamar'
p4372
sg5
I5
sg6
S'https://open.spotify.com/track/6SwRhMLwNqEi6alNPVG00n'
p4373
sg8
S'LOYALTY. FEAT. RIHANNA.'
p4374
ssS'7jwrzVooEMG1LcH2hFMIm4'
p4375
(dp4376
g3
S'Bonez MC'
p4377
sg5
I9
sg6
S'https://open.spotify.com/track/7jwrzVooEMG1LcH2hFMIm4'
p4378
sg8
S'Glaub mir'
p4379
ssS'4bCoM0XTnht30tIkdUHotS'
p4380
(dp4381
g3
S'Fler'
p4382
sg5
I1
sg6
S'https://open.spotify.com/track/4bCoM0XTnht30tIkdUHotS'
p4383
sg8
S'Standing'
p4384
ssS'2HzfRSfCogBSsgW2CckVA2'
p4385
(dp4386
g3
S'Luke Christopher'
p4387
sg5
I1
sg6
S'https://open.spotify.com/track/2HzfRSfCogBSsgW2CckVA2'
p4388
sg8
S'Lot to Learn'
p4389
ssS'0tKcYR2II1VCQWT79i5NrW'
p4390
(dp4391
g3
S'Imagine Dragons'
p4392
sg5
I21
sg6
S'https://open.spotify.com/track/0tKcYR2II1VCQWT79i5NrW'
p4393
sg8
S'Thunder'
p4394
ssS'2MxsoqrvownXSb8YtOOeYA'
p4395
(dp4396
g3
S'Lena'
p4397
sg5
I4
sg6
S'https://open.spotify.com/track/2MxsoqrvownXSb8YtOOeYA'
p4398
sg8
S"If I Wasn't Your Daughter - Acoustic Version"
p4399
ssS'1Uw6bBeFHmd3BVoXV4w9NO'
p4400
(dp4401
g3
S'Mert'
p4402
sg5
I1
sg6
S'https://open.spotify.com/track/1Uw6bBeFHmd3BVoXV4w9NO'
p4403
sg8
S'Boxerschnitt'
p4404
ssS'6DNtNfH8hXkqOX1sjqmI7p'
p4405
(dp4406
g3
S'Major Lazer'
p4407
sg5
I22
sg6
S'https://open.spotify.com/track/6DNtNfH8hXkqOX1sjqmI7p'
p4408
sg8
S'Cold Water (feat. Justin Bieber & M\xc3\x98)'
p4409
ssS'2ytH5wDuqhgLTiDVYioteq'
p4410
(dp4411
g3
S'Jax Jones'
p4412
sg5
I2
sg6
S'https://open.spotify.com/track/2ytH5wDuqhgLTiDVYioteq'
p4413
sg8
S'Instruction'
p4414
ssS'5NNlUMcOEOdoOIwwaWXv0k'
p4415
(dp4416
g3
S'Maroon 5'
p4417
sg5
I16
sg6
S'https://open.spotify.com/track/5NNlUMcOEOdoOIwwaWXv0k'
p4418
sg8
S'Cold'
p4419
ssS'78mNkiUBAwHqjT0QOeEqqg'
p4420
(dp4421
g3
S'A R I Z O N A'
p4422
sg5
I4
sg6
S'https://open.spotify.com/track/78mNkiUBAwHqjT0QOeEqqg'
p4423
sg8
S'Oceans Away - Sam Feldt Remix'
p4424
ssS'5XQMr19TL7Mfksq9zihbOu'
p4425
(dp4426
g3
S'Chris Brown'
p4427
sg5
I8
sg6
S'https://open.spotify.com/track/5XQMr19TL7Mfksq9zihbOu'
p4428
sg8
S'Questions'
p4429
ssS'1sXUWdKx03aP9Gmzft58rt'
p4430
(dp4431
g3
S'Julia Michaels'
p4432
sg5
I27
sg6
S'https://open.spotify.com/track/1sXUWdKx03aP9Gmzft58rt'
p4433
sg8
S'Issues'
p4434
ssS'369SOcTvxnm9DWYIzoNzal'
p4435
(dp4436
g3
S'Bonez MC'
p4437
sg5
I26
sg6
S'https://open.spotify.com/track/369SOcTvxnm9DWYIzoNzal'
p4438
sg8
S'Skandale'
p4439
ssS'1v4OhNexUiv3Mq6s7tcKbw'
p4440
(dp4441
g3
S'187 Strassenbande'
p4442
sg5
I6
sg6
S'https://open.spotify.com/track/1v4OhNexUiv3Mq6s7tcKbw'
p4443
sg8
S'Meine Message'
p4444
ssS'7j56HrjR9cGzvekvZY3Faz'
p4445
(dp4446
g3
S'Fitz and The Tantrums'
p4447
sg5
I12
sg6
S'https://open.spotify.com/track/7j56HrjR9cGzvekvZY3Faz'
p4448
sg8
S'HandClap'
p4449
ssS'4FwwXRuwzJcpmfCR8ltO9b'
p4450
(dp4451
g3
S'Trettmann'
p4452
sg5
I2
sg6
S'https://open.spotify.com/track/4FwwXRuwzJcpmfCR8ltO9b'
p4453
sg8
S'Gottseidank'
p4454
ssS'2qYDKlveGVHIh6GZXTCBZh'
p4455
(dp4456
g3
S'RIN'
p4457
sg5
I3
sg6
S'https://open.spotify.com/track/2qYDKlveGVHIh6GZXTCBZh'
p4458
sg8
S'Bass'
p4459
ssS'1zayuwd1YLZsYDArkruHdL'
p4460
(dp4461
g3
S'Kendrick Lamar'
p4462
sg5
I1
sg6
S'https://open.spotify.com/track/1zayuwd1YLZsYDArkruHdL'
p4463
sg8
S'The Heart Part 4'
p4464
ssS'0Vy7fWzknPBpNTwJkGc7Sm'
p4465
(dp4466
g3
S'187 Strassenbande'
p4467
sg5
I11
sg6
S'https://open.spotify.com/track/0Vy7fWzknPBpNTwJkGc7Sm'
p4468
sg8
S'High Life'
p4469
ssS'14oOKFGuXu8DqvOe1W8vao'
p4470
(dp4471
g3
S'Katy Perry'
p4472
sg5
I2
sg6
S'https://open.spotify.com/track/14oOKFGuXu8DqvOe1W8vao'
p4473
sg8
S'Bon App\xc3\xa9tit'
p4474
ssS'4BHSjbYylfOH5WAGusDyni'
p4475
(dp4476
g3
S'Kendrick Lamar'
p4477
sg5
I2
sg6
S'https://open.spotify.com/track/4BHSjbYylfOH5WAGusDyni'
p4478
sg8
S'YAH.'
p4479
ssS'3LMzA1b0EPZOs9kLvF77HE'
p4480
(dp4481
g3
S'Bausa'
p4482
sg5
I1
sg6
S'https://open.spotify.com/track/3LMzA1b0EPZOs9kLvF77HE'
p4483
sg8
S'Baron'
p4484
ssS'6mzTuMlbCgEtoCitsszlqP'
p4485
(dp4486
g3
S'Avicii'
p4487
sg5
I5
sg6
S'https://open.spotify.com/track/6mzTuMlbCgEtoCitsszlqP'
p4488
sg8
S'What Would I Change It To (feat. AlunaGeorge)'
p4489
ssS'1louJpMmzEicAn7lzDalPW'
p4490
(dp4491
g3
S'Cheat Codes'
p4492
sg5
I28
sg6
S'https://open.spotify.com/track/1louJpMmzEicAn7lzDalPW'
p4493
sg8
S'No Promises (feat. Demi Lovato)'
p4494
ssS'2ISl1zekPsc26sUQpVt8UB'
p4495
(dp4496
g3
S"Shakin' Stevens"
p4497
sg5
I1
sg6
S'https://open.spotify.com/track/2ISl1zekPsc26sUQpVt8UB'
p4498
sg8
S'Merry Christmas Everyone - Remastered'
p4499
ssS'2pJZ1v8HezrAoZ0Fhzby92'
p4500
(dp4501
g3
S'Ed Sheeran'
p4502
sg5
I8
sg6
S'https://open.spotify.com/track/2pJZ1v8HezrAoZ0Fhzby92'
p4503
sg8
S'What Do I Know?'
p4504
ssS'6y2Kaz9QI01XBKJ8mTb7Pf'
p4505
(dp4506
g3
S"Rag'n'Bone Man"
p4507
sg5
I23
sg6
S'https://open.spotify.com/track/6y2Kaz9QI01XBKJ8mTb7Pf'
p4508
sg8
S'Skin'
p4509
ssS'42HI1CnQ4meVfZCTSwZK0n'
p4510
(dp4511
g3
S'187 Strassenbande'
p4512
sg5
I11
sg6
S'https://open.spotify.com/track/42HI1CnQ4meVfZCTSwZK0n'
p4513
sg8
S'Sitzheizung'
p4514
ssS'5yKfZwcuSoEkOemLJX6hEm'
p4515
(dp4516
g3
S'Max Giesinger'
p4517
sg5
I12
sg6
S'https://open.spotify.com/track/5yKfZwcuSoEkOemLJX6hEm'
p4518
sg8
S'Wenn sie tanzt'
p4519
ssS'3kXqUXnukwkpsxhW8emNC0'
p4520
(dp4521
g3
S'Blanche'
p4522
sg5
I1
sg6
S'https://open.spotify.com/track/3kXqUXnukwkpsxhW8emNC0'
p4523
sg8
S'City Lights'
p4524
ssS'3zoYkqS4y2BsGVShPL2nTE'
p4525
(dp4526
g3
S'CNCO'
p4527
sg5
I5
sg6
S'https://open.spotify.com/track/3zoYkqS4y2BsGVShPL2nTE'
p4528
sg8
S'Reggaet\xc3\xb3n Lento (Remix) [CNCO & Little Mix]'
p4529
ssS'43ZyHQITOjhciSUUNPVRHc'
p4530
(dp4531
g3
S'Lil Pump'
p4532
sg5
I1
sg6
S'https://open.spotify.com/track/43ZyHQITOjhciSUUNPVRHc'
p4533
sg8
S'Gucci Gang'
p4534
ssS'3oUZXcz9WLNO71yHAumFbH'
p4535
(dp4536
g3
S'Dimitri Vegas & Like Mike'
p4537
sg5
I21
sg6
S'https://open.spotify.com/track/3oUZXcz9WLNO71yHAumFbH'
p4538
sg8
S'Hey Baby'
p4539
ssS'5P93NHHhkNEKhYo0ba8Er5'
p4540
(dp4541
g3
S'SpongeBOZZ'
p4542
sg5
I1
sg6
S'https://open.spotify.com/track/5P93NHHhkNEKhYo0ba8Er5'
p4543
sg8
S'Wory w Sakone'
p4544
ssS'3ZIAgHmolpOrVkR2JXCg2d'
p4545
(dp4546
g3
S'Azad'
p4547
sg5
I1
sg6
S'https://open.spotify.com/track/3ZIAgHmolpOrVkR2JXCg2d'
p4548
sg8
S'Eigener Bozz'
p4549
ssS'7K8Xd9u1MV6j4NVF8nIhg7'
p4550
(dp4551
g3
S'KALIM'
p4552
sg5
I3
sg6
S'https://open.spotify.com/track/7K8Xd9u1MV6j4NVF8nIhg7'
p4553
sg8
S'Tresi'
p4554
ssS'1SkeK7yhwSkCUkbAG9604j'
p4555
(dp4556
g3
S'Dardan'
p4557
sg5
I4
sg6
S'https://open.spotify.com/track/1SkeK7yhwSkCUkbAG9604j'
p4558
sg8
S'Telefon'
p4559
ssS'2habSXqcJGExM6JJyskY7O'
p4560
(dp4561
g3
S'Miley Cyrus'
p4562
sg5
I18
sg6
S'https://open.spotify.com/track/2habSXqcJGExM6JJyskY7O'
p4563
sg8
S'Malibu'
p4564
ssS'5Ua3GXyHwiSfpNTMjq6m2z'
p4565
(dp4566
g3
S'Little Mix'
p4567
sg5
I19
sg6
S'https://open.spotify.com/track/5Ua3GXyHwiSfpNTMjq6m2z'
p4568
sg8
S'Touch'
p4569
ssS'6i0V12jOa3mr6uu4WYhUBr'
p4570
(dp4571
g3
S'Twenty One Pilots'
p4572
sg5
I22
sg6
S'https://open.spotify.com/track/6i0V12jOa3mr6uu4WYhUBr'
p4573
sg8
S'Heathens'
p4574
ssS'2rqWlD3bkh9f88VVy8KjHk'
p4575
(dp4576
g3
S'Capo'
p4577
sg5
I1
sg6
S'https://open.spotify.com/track/2rqWlD3bkh9f88VVy8KjHk'
p4578
sg8
S'Totentanz'
p4579
ssS'3KqcNHqGOkezPpc9Ujlbhl'
p4580
(dp4581
g3
S'Nimo'
p4582
sg5
I1
sg6
S'https://open.spotify.com/track/3KqcNHqGOkezPpc9Ujlbhl'
p4583
sg8
S'Irgendwann'
p4584
ssS'40UroIGvsMPLPBYwH8rMNA'
p4585
(dp4586
g3
S'Vice'
p4587
sg5
I22
sg6
S'https://open.spotify.com/track/40UroIGvsMPLPBYwH8rMNA'
p4588
sg8
S'Steady 1234 (feat. Jasmine Thompson & Skizzy Mars)'
p4589
ssS'6TIU9Ehmi6dMzZK73Ym4yj'
p4590
(dp4591
g3
S'Ed Sheeran'
p4592
sg5
I4
sg6
S'https://open.spotify.com/track/6TIU9Ehmi6dMzZK73Ym4yj'
p4593
sg8
S'Save Myself'
p4594
ssS'2eMwDehkIC1j68U6FA3Eiq'
p4595
(dp4596
g3
S'Lil Uzi Vert'
p4597
sg5
I20
sg6
S'https://open.spotify.com/track/2eMwDehkIC1j68U6FA3Eiq'
p4598
sg8
S'XO TOUR Llif3'
p4599
ssS'2DhbETtRYPOrPG5fogi36z'
p4600
(dp4601
g3
S'Kraftklub'
p4602
sg5
I1
sg6
S'https://open.spotify.com/track/2DhbETtRYPOrPG5fogi36z'
p4603
sg8
S'Fan von Dir'
p4604
ssS'1OZckfI4Mcx6ZG9gaasb47'
p4605
(dp4606
g3
S'Kraftklub'
p4607
sg5
I5
sg6
S'https://open.spotify.com/track/1OZckfI4Mcx6ZG9gaasb47'
p4608
sg8
S'Dein Lied'
p4609
ssS'1Udy17gjGeZPNdmmcLjl7L'
p4610
(dp4611
g3
S'Tom Odell'
p4612
sg5
I1
sg6
S'https://open.spotify.com/track/1Udy17gjGeZPNdmmcLjl7L'
p4613
sg8
S'Real Love'
p4614
ssS'2hUdqoyo3V6rx41kZ8LzOY'
p4615
(dp4616
g3
S'RIN'
p4617
sg5
I2
sg6
S'https://open.spotify.com/track/2hUdqoyo3V6rx41kZ8LzOY'
p4618
sg8
S'Aretha Franklin Freestyle'
p4619
ssS'4tX7Nt68zEeb0Lt32ngQR0'
p4620
(dp4621
g3
S'Kato'
p4622
sg5
I13
sg6
S'https://open.spotify.com/track/4tX7Nt68zEeb0Lt32ngQR0'
p4623
sg8
S'Show You Love'
p4624
ssS'7wiESxCGoUkRdgZF2JOLZu'
p4625
(dp4626
g3
S'Phil Spector'
p4627
sg5
I1
sg6
S'https://open.spotify.com/track/7wiESxCGoUkRdgZF2JOLZu'
p4628
sg8
S'Sleigh Ride'
p4629
ssS'6qTod2A9yWiGhqmJgHHwMz'
p4630
(dp4631
g3
S'RAF Camora'
p4632
sg5
I2
sg6
S'https://open.spotify.com/track/6qTod2A9yWiGhqmJgHHwMz'
p4633
sg8
S'Niemals'
p4634
ssS'3TfKkdaIhNyaGiEHJFBtNr'
p4635
(dp4636
g3
S'KC Rebell'
p4637
sg5
I2
sg6
S'https://open.spotify.com/track/3TfKkdaIhNyaGiEHJFBtNr'
p4638
sg8
S'Pics wie ein Fan'
p4639
ssS'6fxVffaTuwjgEk5h9QyRjy'
p4640
(dp4641
g3
S'Ed Sheeran'
p4642
sg5
I10
sg6
S'https://open.spotify.com/track/6fxVffaTuwjgEk5h9QyRjy'
p4643
sg8
S'Photograph'
p4644
ssS'0w5Bdu51Ka25Pf3hojsKHh'
p4645
(dp4646
g3
S'Paramore'
p4647
sg5
I1
sg6
S'https://open.spotify.com/track/0w5Bdu51Ka25Pf3hojsKHh'
p4648
sg8
S'Hard Times'
p4649
ssS'14n1MtBK2qgyvijlcnO8ER'
p4650
(dp4651
g3
S'RIN'
p4652
sg5
I1
sg6
S'https://open.spotify.com/track/14n1MtBK2qgyvijlcnO8ER'
p4653
sg8
S'Intro / Liebe'
p4654
ssS'0qYTZCo5Bwh1nsUFGZP3zn'
p4655
(dp4656
g3
S'Maluma'
p4657
sg5
I17
sg6
S'https://open.spotify.com/track/0qYTZCo5Bwh1nsUFGZP3zn'
p4658
sg8
S'Felices los 4'
p4659
ssS'1VdZ0vKfR5jneCmWIUAMxK'
p4660
(dp4661
g3
S'Ed Sheeran'
p4662
sg5
I1
sg6
S'https://open.spotify.com/track/1VdZ0vKfR5jneCmWIUAMxK'
p4663
sg8
S'The A Team'
p4664
ssS'5n57fE1pkZbayT1DD1h3yg'
p4665
(dp4666
g3
S'Ufo361'
p4667
sg5
I1
sg6
S'https://open.spotify.com/track/5n57fE1pkZbayT1DD1h3yg'
p4668
sg8
S'110'
p4669
ssS'13e6f8t7RKXuxZ0JdaaJRG'
p4670
(dp4671
g3
S'Drake'
p4672
sg5
I2
sg6
S'https://open.spotify.com/track/13e6f8t7RKXuxZ0JdaaJRG'
p4673
sg8
S'Jorja Interlude'
p4674
ssS'6nxQdXa1uAL0rY72wPZu89'
p4675
(dp4676
g3
S'John Legend'
p4677
sg5
I15
sg6
S'https://open.spotify.com/track/6nxQdXa1uAL0rY72wPZu89'
p4678
sg8
S'Love Me Now'
p4679
ssS'7yLypiPQQt7SPG7I26mq2l'
p4680
(dp4681
g3
S'Maxwell'
p4682
sg5
I1
sg6
S'https://open.spotify.com/track/7yLypiPQQt7SPG7I26mq2l'
p4683
sg8
S'Stadion Voll'
p4684
ssS'6kex4EBAj0WHXDKZMEJaaF'
p4685
(dp4686
g3
S'Jason Derulo'
p4687
sg5
I33
sg6
S'https://open.spotify.com/track/6kex4EBAj0WHXDKZMEJaaF'
p4688
sg8
S'Swalla (feat. Nicki Minaj & Ty Dolla $ign)'
p4689
ssS'2SBr3MK1sdMs8IxdRcN6qz'
p4690
(dp4691
g3
S'Kylie Minogue'
p4692
sg5
I1
sg6
S'https://open.spotify.com/track/2SBr3MK1sdMs8IxdRcN6qz'
p4693
sg8
S'Santa Baby'
p4694
ssS'17Fol0EIxmCYz3Q1uax4DV'
p4695
(dp4696
g3
S'RAF Camora'
p4697
sg5
I1
sg6
S'https://open.spotify.com/track/17Fol0EIxmCYz3Q1uax4DV'
p4698
sg8
S'Was jetzt'
p4699
ssS'0AuhdBr6C98i37znwH4e69'
p4700
(dp4701
g3
S'RIN'
p4702
sg5
I6
sg6
S'https://open.spotify.com/track/0AuhdBr6C98i37znwH4e69'
p4703
sg8
S'Blackout'
p4704
ssS'5GPfIFxXgGtX0GenuJhYOZ'
p4705
(dp4706
g3
S'Bushido'
p4707
sg5
I6
sg6
S'https://open.spotify.com/track/5GPfIFxXgGtX0GenuJhYOZ'
p4708
sg8
S'Echte Berliner'
p4709
ssS'10JBIfvldDR2TnT5sphGc2'
p4710
(dp4711
g3
S'Train'
p4712
sg5
I1
sg6
S'https://open.spotify.com/track/10JBIfvldDR2TnT5sphGc2'
p4713
sg8
S'Shake up Christmas'
p4714
ssS'6OocN63GLU7NF0wHdewhID'
p4715
(dp4716
g3
S'Linkin Park'
p4717
sg5
I2
sg6
S'https://open.spotify.com/track/6OocN63GLU7NF0wHdewhID'
p4718
sg8
S'Invisible'
p4719
ssS'1Slwb6dOYkBlWal1PGtnNg'
p4720
(dp4721
g3
S'Ed Sheeran'
p4722
sg5
I9
sg6
S'https://open.spotify.com/track/1Slwb6dOYkBlWal1PGtnNg'
p4723
sg8
S'Thinking Out Loud'
p4724
ssS'12ip0ceCeszDTDFxDY1AXJ'
p4725
(dp4726
g3
S'Avicii'
p4727
sg5
I4
sg6
S'https://open.spotify.com/track/12ip0ceCeszDTDFxDY1AXJ'
p4728
sg8
S'You Be Love (feat. Billy Raffoul)'
p4729
ssS'08WPvDEsHvTFuB9w8tC2OS'
p4730
(dp4731
g3
S'Sage The Gemini'
p4732
sg5
I1
sg6
S'https://open.spotify.com/track/08WPvDEsHvTFuB9w8tC2OS'
p4733
sg8
S'Now and Later'
p4734
ssS'68iAusaBHPveuApLPDxamN'
p4735
(dp4736
g3
S'Zuna'
p4737
sg5
I12
sg6
S'https://open.spotify.com/track/68iAusaBHPveuApLPDxamN'
p4738
sg8
S'Real Madrid'
p4739
ssS'1j0WhqRdlsxnHzzvZkuw8b'
p4740
(dp4741
g3
S'Marteria'
p4742
sg5
I1
sg6
S'https://open.spotify.com/track/1j0WhqRdlsxnHzzvZkuw8b'
p4743
sg8
S'Skyline mit zwei T\xc3\xbcrmen'
p4744
ssS'57fDcLa203GnDF9OYJd6mV'
p4745
(dp4746
g3
S'Natasha Bedingfield'
p4747
sg5
I1
sg6
S'https://open.spotify.com/track/57fDcLa203GnDF9OYJd6mV'
p4748
sg8
S'Shake up Christmas 2011 (Official Coca-Cola Christmas Song)'
p4749
ssS'0ZYfcwG9svvyHxX6Zggld8'
p4750
(dp4751
g3
S'SDP'
p4752
sg5
I1
sg6
S'https://open.spotify.com/track/0ZYfcwG9svvyHxX6Zggld8'
p4753
sg8
S'Ja ja aka. LMAA'
p4754
ssS'5VbveN25v2Y2FZqGMbavSx'
p4755
(dp4756
g3
S'Savas'
p4757
sg5
I2
sg6
S'https://open.spotify.com/track/5VbveN25v2Y2FZqGMbavSx'
p4758
sg8
S'Jedes Wort ist Gold wert'
p4759
ssS'59TZtCXoVMHe9JZKfS5uY5'
p4760
(dp4761
g3
S'SpongeBOZZ'
p4762
sg5
I2
sg6
S'https://open.spotify.com/track/59TZtCXoVMHe9JZKfS5uY5'
p4763
sg8
S'A.C.A.B. II'
p4764
ssS'64OZv7nYfdkUYF1FVzZWsY'
p4765
(dp4766
g3
S'Antilopen Gang'
p4767
sg5
I4
sg6
S'https://open.spotify.com/track/64OZv7nYfdkUYF1FVzZWsY'
p4768
sg8
S'Pizza'
p4769
ssS'0Fv5N0cHBsl4bzCbollCAS'
p4770
(dp4771
g3
S'Big Sean'
p4772
sg5
I1
sg6
S'https://open.spotify.com/track/0Fv5N0cHBsl4bzCbollCAS'
p4773
sg8
S'Moves'
p4774
ssS'7KXjTSCq5nL1LoYtL7XAwS'
p4775
(dp4776
g3
S'Kendrick Lamar'
p4777
sg5
I28
sg6
S'https://open.spotify.com/track/7KXjTSCq5nL1LoYtL7XAwS'
p4778
sg8
S'HUMBLE.'
p4779
ssS'1LwFt2rNUrthqc3xLVCYf6'
p4780
(dp4781
g3
S'Helene Fischer'
p4782
sg5
I2
sg6
S'https://open.spotify.com/track/1LwFt2rNUrthqc3xLVCYf6'
p4783
sg8
S'Nur mit Dir'
p4784
ssS'3H25ywsvlV0ZT2XSpSU7wk'
p4785
(dp4786
g3
S'RAF Camora'
p4787
sg5
I18
sg6
S'https://open.spotify.com/track/3H25ywsvlV0ZT2XSpSU7wk'
p4788
sg8
S'Kontrollieren'
p4789
ssS'2Ae5awwKvQpTBKQHr1TYCg'
p4790
(dp4791
g3
S'Nause'
p4792
sg5
I15
sg6
S'https://open.spotify.com/track/2Ae5awwKvQpTBKQHr1TYCg'
p4793
sg8
S'Dynamite (feat. Pretty Sister)'
p4794
ssS'28CWzJEydS0er9hU3TEYyJ'
p4795
(dp4796
g3
S'Eric Saade'
p4797
sg5
I7
sg6
S'https://open.spotify.com/track/28CWzJEydS0er9hU3TEYyJ'
p4798
sg8
S'Wide Awake - Red Mix'
p4799
ssS'6zuUWT2b1cFs9NMVHuDLdY'
p4800
(dp4801
g3
S'Marteria'
p4802
sg5
I5
sg6
S'https://open.spotify.com/track/6zuUWT2b1cFs9NMVHuDLdY'
p4803
sg8
S'Scotty beam mich hoch'
p4804
ssS'2Za1AlJNvksouPPWbXpR2X'
p4805
(dp4806
g3
S'Macklemore'
p4807
sg5
I3
sg6
S'https://open.spotify.com/track/2Za1AlJNvksouPPWbXpR2X'
p4808
sg8
S'Good Old Days (feat. Kesha)'
p4809
ssS'7bT5tDmeOqa3e7EegiXfQr'
p4810
(dp4811
g3
S'187 Strassenbande'
p4812
sg5
I5
sg6
S'https://open.spotify.com/track/7bT5tDmeOqa3e7EegiXfQr'
p4813
sg8
S'Intro'
p4814
ssS'5KSzv6Ho2Xw1k61SpM3l5n'
p4815
(dp4816
g3
S'Die Toten Hosen'
p4817
sg5
I9
sg6
S'https://open.spotify.com/track/5KSzv6Ho2Xw1k61SpM3l5n'
p4818
sg8
S'Wannsee'
p4819
ssS'4gavOCQdZ2g86gkvi17FM7'
p4820
(dp4821
g3
S'Paul McCartney'
p4822
sg5
I1
sg6
S'https://open.spotify.com/track/4gavOCQdZ2g86gkvi17FM7'
p4823
sg8
S'Wonderful Christmastime - Remastered 2011 / Edited Version'
p4824
ssS'51WUacrCkukxCgym463uNN'
p4825
(dp4826
g3
S'Gest\xc3\xb6rt aber GeiL'
p4827
sg5
I12
sg6
S'https://open.spotify.com/track/51WUacrCkukxCgym463uNN'
p4828
sg8
S'Wohin willst du'
p4829
ssS'0p6ZRPPmXONaxaqWVdBZmD'
p4830
(dp4831
g3
S'KC Rebell'
p4832
sg5
I2
sg6
S'https://open.spotify.com/track/0p6ZRPPmXONaxaqWVdBZmD'
p4833
sg8
S'Murcielago'
p4834
ssS'0n2bvWvMwr0gbjcuTm92eW'
p4835
(dp4836
g3
S'Lana Del Rey'
p4837
sg5
I3
sg6
S'https://open.spotify.com/track/0n2bvWvMwr0gbjcuTm92eW'
p4838
sg8
S'Love'
p4839
ssS'3RXkboS74UYzN14xTqzPyY'
p4840
(dp4841
g3
g1602
sg5
I1
sg6
S'https://open.spotify.com/track/3RXkboS74UYzN14xTqzPyY'
p4842
sg8
g1602
ssS'2Xqwc88RkTu9Ybwn6oS7Ea'
p4843
(dp4844
g3
S'RIN'
p4845
sg5
I6
sg6
S'https://open.spotify.com/track/2Xqwc88RkTu9Ybwn6oS7Ea'
p4846
sg8
S'Doverstreet'
p4847
ssS'3AsAuGTaDQzavZZThyYlop'
p4848
(dp4849
g3
S'NEIKED'
p4850
sg5
I10
sg6
S'https://open.spotify.com/track/3AsAuGTaDQzavZZThyYlop'
p4851
sg8
S'Sexual'
p4852
ssS'3Lfiu5sZ4M4B6JaKMBc0FU'
p4853
(dp4854
g3
S'Ed Sheeran'
p4855
sg5
I7
sg6
S'https://open.spotify.com/track/3Lfiu5sZ4M4B6JaKMBc0FU'
p4856
sg8
S'Barcelona'
p4857
ssS'4bkmWR5DTpzTHOL5OF8Rsj'
p4858
(dp4859
g3
S'Kontra K'
p4860
sg5
I1
sg6
S'https://open.spotify.com/track/4bkmWR5DTpzTHOL5OF8Rsj'
p4861
sg8
S'Power'
p4862
ssS'4kfm1uI9QGaoN9qm6CkAMn'
p4863
(dp4864
g3
S'Linkin Park'
p4865
sg5
I4
sg6
S'https://open.spotify.com/track/4kfm1uI9QGaoN9qm6CkAMn'
p4866
sg8
S"What I've Done"
p4867
ssS'69bp2EbF7Q2rqc5N3ylezZ'
p4868
(dp4869
g3
S'Justin Bieber'
p4870
sg5
I9
sg6
S'https://open.spotify.com/track/69bp2EbF7Q2rqc5N3ylezZ'
p4871
sg8
S'Sorry'
p4872
ssS'4Omo1tlmDVINPwiliqjzZb'
p4873
(dp4874
g3
S'Ali As'
p4875
sg5
I5
sg6
S'https://open.spotify.com/track/4Omo1tlmDVINPwiliqjzZb'
p4876
sg8
S'Von den fernen Bergen (feat. SXTN)'
p4877
ssS'0bZcstGSV52WWUR8WkrW5p'
p4878
(dp4879
g3
S'Mark Forster'
p4880
sg5
I1
sg6
S'https://open.spotify.com/track/0bZcstGSV52WWUR8WkrW5p'
p4881
sg8
S'Wir sind gro\xc3\x9f'
p4882
ssS'04CttTezSnv71USiiG9mIo'
p4883
(dp4884
g3
S'Hearts & Colors'
p4885
sg5
I7
sg6
S'https://open.spotify.com/track/04CttTezSnv71USiiG9mIo'
p4886
sg8
S'Lighthouse - Andrelli Remix'
p4887
ssS'4iLqG9SeJSnt0cSPICSjxv'
p4888
(dp4889
g3
S'Charlie Puth'
p4890
sg5
I25
sg6
S'https://open.spotify.com/track/4iLqG9SeJSnt0cSPICSjxv'
p4891
sg8
S'Attention'
p4892
ssS'210azEodQSJ48zZrgxHsu8'
p4893
(dp4894
g3
S'187 Strassenbande'
p4895
sg5
I6
sg6
S'https://open.spotify.com/track/210azEodQSJ48zZrgxHsu8'
p4896
sg8
S'Was ist passiert?!'
p4897
ssS'15dnkAHcHC0vrIUlbiPiqU'
p4898
(dp4899
g3
S'Imagine Dragons'
p4900
sg5
I1
sg6
S'https://open.spotify.com/track/15dnkAHcHC0vrIUlbiPiqU'
p4901
sg8
S'I Don\xe2\x80\x99t Know Why'
p4902
ssS'6RUKPb4LETWmmr3iAEQktW'
p4903
(dp4904
g3
S'The Chainsmokers'
p4905
sg5
I33
sg6
S'https://open.spotify.com/track/6RUKPb4LETWmmr3iAEQktW'
p4906
sg8
S'Something Just Like This'
p4907
ssS'3FQCJI2t5LTbsRPfYVBSVB'
p4908
(dp4909
g3
S'Linkin Park'
p4910
sg5
I4
sg6
S'https://open.spotify.com/track/3FQCJI2t5LTbsRPfYVBSVB'
p4911
sg8
S'Battle Symphony'
p4912
ssS'7M16mAuWuFA5rC9HvkXaGx'
p4913
(dp4914
g3
S'Jax Jones'
p4915
sg5
I5
sg6
S'https://open.spotify.com/track/7M16mAuWuFA5rC9HvkXaGx'
p4916
sg8
S"You Don't Know Me - Radio Edit"
p4917
ssS'3N08HLCSwOHhMQKJGIZ7rE'
p4918
(dp4919
g3
S'Izzy Bizu'
p4920
sg5
I1
sg6
S'https://open.spotify.com/track/3N08HLCSwOHhMQKJGIZ7rE'
p4921
sg8
S'Talking to You'
p4922
ssS'6TNdGavTbSQShhIs0ms0BG'
p4923
(dp4924
g3
S'Cro'
p4925
sg5
I1
sg6
S'https://open.spotify.com/track/6TNdGavTbSQShhIs0ms0BG'
p4926
sg8
S'fake you.'
p4927
ssS'0q4W0w4YtKeEBttnpbqjpN'
p4928
(dp4929
g3
S'Ufo361'
p4930
sg5
I1
sg6
S'https://open.spotify.com/track/0q4W0w4YtKeEBttnpbqjpN'
p4931
sg8
S'Gin des Lebens'
p4932
ssS'2CPqh63wRVscbceKcPxwvv'
p4933
(dp4934
g3
S'Mike Perry'
p4935
sg5
I32
sg6
S'https://open.spotify.com/track/2CPqh63wRVscbceKcPxwvv'
p4936
sg8
S'The Ocean'
p4937
ssS'25leEEaz1gIpp7o21Fqyjo'
p4938
(dp4939
g3
S'Gene Autry'
p4940
sg5
I1
sg6
S'https://open.spotify.com/track/25leEEaz1gIpp7o21Fqyjo'
p4941
sg8
S'Here Comes Santa Claus (Right Down Santa Claus Lane)'
p4942
ssS'25qiaiBRyMFOktyaeQSMon'
p4943
(dp4944
g3
S'Nimo'
p4945
sg5
I23
sg6
S'https://open.spotify.com/track/25qiaiBRyMFOktyaeQSMon'
p4946
sg8
S'LFR'
p4947
ssS'5toMpskhrnl8ByNg0zlB5F'
p4948
(dp4949
g3
S'Wincent Weiss'
p4950
sg5
I27
sg6
S'https://open.spotify.com/track/5toMpskhrnl8ByNg0zlB5F'
p4951
sg8
S'Feuerwerk'
p4952
ssS'5BSmC9VNKBAo6DlVtS6MA8'
p4953
(dp4954
g3
S'Savas'
p4955
sg5
I1
sg6
S'https://open.spotify.com/track/5BSmC9VNKBAo6DlVtS6MA8'
p4956
sg8
S'Leben geben'
p4957
ssS'1Ycw5cHiyPM836PZdKw6vS'
p4958
(dp4959
g3
S'Kontra K'
p4960
sg5
I1
sg6
S'https://open.spotify.com/track/1Ycw5cHiyPM836PZdKw6vS'
p4961
sg8
S'Instinkt'
p4962
ssS'4HM0B8l3YyPSddwDBv2VVQ'
p4963
(dp4964
g3
S'SpongeBOZZ'
p4965
sg5
I1
sg6
S'https://open.spotify.com/track/4HM0B8l3YyPSddwDBv2VVQ'
p4966
sg8
S'Moonrocks'
p4967
ssS'1xznGGDReH1oQq0xzbwXa3'
p4968
(dp4969
g3
S'Drake'
p4970
sg5
I39
sg6
S'https://open.spotify.com/track/1xznGGDReH1oQq0xzbwXa3'
p4971
sg8
S'One Dance'
p4972
ssS'5GXAXm5YOmYT0kL5jHvYBt'
p4973
(dp4974
g3
S'The Weeknd'
p4975
sg5
I23
sg6
S'https://open.spotify.com/track/5GXAXm5YOmYT0kL5jHvYBt'
p4976
sg8
S'I Feel It Coming'
p4977
ssS'46qCFvbRmCK5QPpMNM8Alo'
p4978
(dp4979
g3
S'Mosh36'
p4980
sg5
I3
sg6
S'https://open.spotify.com/track/46qCFvbRmCK5QPpMNM8Alo'
p4981
sg8
S'Check ich nicht'
p4982
ssS'6IZvVAP7VPPnsGX6bvgkqg'
p4983
(dp4984
g3
S'Kendrick Lamar'
p4985
sg5
I2
sg6
S'https://open.spotify.com/track/6IZvVAP7VPPnsGX6bvgkqg'
p4986
sg8
S'PRIDE.'
p4987
ssS'0lMbuWUpfTWhEmOKxppEau'
p4988
(dp4989
g3
S'Calvin Harris'
p4990
sg5
I6
sg6
S'https://open.spotify.com/track/0lMbuWUpfTWhEmOKxppEau'
p4991
sg8
S'Rollin'
p4992
ssS'3h4HDzL7ha4eYalx9Eknyj'
p4993
(dp4994
g3
S'Gest\xc3\xb6rt aber GeiL'
p4995
sg5
I7
sg6
S'https://open.spotify.com/track/3h4HDzL7ha4eYalx9Eknyj'
p4996
sg8
S'Wohin willst du'
p4997
ssS'3cFsmM51N5zMAuu1nNY4Tw'
p4998
(dp4999
g3
S'Sean Paul'
p5000
sg5
I28
sg6
S'https://open.spotify.com/track/3cFsmM51N5zMAuu1nNY4Tw'
p5001
sg8
S'No Lie'
p5002
ssS'51ChrwmUPDJvedPQnIU8Ls'
p5003
(dp5004
g3
S'Ed Sheeran'
p5005
sg5
I8
sg6
S'https://open.spotify.com/track/51ChrwmUPDJvedPQnIU8Ls'
p5006
sg8
S'Dive'
p5007
ssS'6jA8HL9i4QGzsj6fjoxp8Y'
p5008
(dp5009
g3
S'Martin Garrix'
p5010
sg5
I20
sg6
S'https://open.spotify.com/track/6jA8HL9i4QGzsj6fjoxp8Y'
p5011
sg8
S'There for You'
p5012
ssS'7kOgMK63girYyYwLCo5aiW'
p5013
(dp5014
g3
S'Sultan + Shepard '
p5015
sg5
I1
sg6
S'https://open.spotify.com/track/7kOgMK63girYyYwLCo5aiW'
p5016
sg8
S'Almost Home'
p5017
ssS'2PxZiMTSDHIuFLiuF14Qgf'
p5018
(dp5019
g3
S'Bushido'
p5020
sg5
I11
sg6
S'https://open.spotify.com/track/2PxZiMTSDHIuFLiuF14Qgf'
p5021
sg8
S'Gehen wir rein'
p5022
ssS'1CUVN2kn7mW5FjkqXTR2W1'
p5023
(dp5024
g3
S'Jonas Blue'
p5025
sg5
I6
sg6
S'https://open.spotify.com/track/1CUVN2kn7mW5FjkqXTR2W1'
p5026
sg8
S'Perfect Strangers'
p5027
ssS'1vVNlXi8gf8tZ7OhnEs4VE'
p5028
(dp5029
g3
S'French Montana'
p5030
sg5
I1
sg6
S'https://open.spotify.com/track/1vVNlXi8gf8tZ7OhnEs4VE'
p5031
sg8
S'A Lie'
p5032
ssS'0SGkqnVQo9KPytSri1H6cF'
p5033
(dp5034
g3
S'Big Sean'
p5035
sg5
I14
sg6
S'https://open.spotify.com/track/0SGkqnVQo9KPytSri1H6cF'
p5036
sg8
S'Bounce Back'
p5037
ssS'1Ld0mRpHXYXzIi95T064bM'
p5038
(dp5039
g3
S'RAF Camora'
p5040
sg5
I1
sg6
S'https://open.spotify.com/track/1Ld0mRpHXYXzIi95T064bM'
p5041
sg8
S'Andere Liga'
p5042
ssS'6SUocL0caib4mLHe8ZrZzi'
p5043
(dp5044
g3
S'Rudimental'
p5045
sg5
I6
sg6
S'https://open.spotify.com/track/6SUocL0caib4mLHe8ZrZzi'
p5046
sg8
S'Sun Comes Up'
p5047
ssS'7nKBxz47S9SD79N086fuhn'
p5048
(dp5049
g3
S'Enrique Iglesias'
p5050
sg5
I32
sg6
S'https://open.spotify.com/track/7nKBxz47S9SD79N086fuhn'
p5051
sg8
S'SUBEME LA RADIO'
p5052
ssS'27SdWb2rFzO6GWiYDBTD9j'
p5053
(dp5054
g3
S'Sia'
p5055
sg5
I22
sg6
S'https://open.spotify.com/track/27SdWb2rFzO6GWiYDBTD9j'
p5056
sg8
S'Cheap Thrills'
p5057
ssS'26H7SNTmq9QjiCQ0qpB6qm'
p5058
(dp5059
g3
S'KC Rebell'
p5060
sg5
I2
sg6
S'https://open.spotify.com/track/26H7SNTmq9QjiCQ0qpB6qm'
p5061
sg8
S'Paper'
p5062
ssS'3vgNmjuRDnGLxUFGCLkwpm'
p5063
(dp5064
g3
S'David Guetta'
p5065
sg5
I4
sg6
S'https://open.spotify.com/track/3vgNmjuRDnGLxUFGCLkwpm'
p5066
sg8
S'Light My Body Up (feat. Nicki Minaj & Lil Wayne)'
p5067
ssS'5xhJmd0I15jFcEdqxfCzKk'
p5068
(dp5069
g3
S'The Chainsmokers'
p5070
sg5
I1
sg6
S'https://open.spotify.com/track/5xhJmd0I15jFcEdqxfCzKk'
p5071
sg8
S"It Won't Kill Ya"
p5072
ssS'6PJ8FF6UR8FZXfEvpHkIVN'
p5073
(dp5074
g3
S'Ed Sheeran'
p5075
sg5
I8
sg6
S'https://open.spotify.com/track/6PJ8FF6UR8FZXfEvpHkIVN'
p5076
sg8
S'How Would You Feel (Paean)'
p5077
ssS'4m0TDIJ02cmpZcqQ62GBCv'
p5078
(dp5079
g3
S'Michael Patrick Kelly'
p5080
sg5
I3
sg6
S'https://open.spotify.com/track/4m0TDIJ02cmpZcqQ62GBCv'
p5081
sg8
S'iD'
p5082
ssS'6LUOMjoORvAkdhBYvESO46'
p5083
(dp5084
g3
S'Sia'
p5085
sg5
I9
sg6
S'https://open.spotify.com/track/6LUOMjoORvAkdhBYvESO46'
p5086
sg8
S'Move Your Body - Alan Walker Remix'
p5087
ssS'3nbtUeypf5UJvxBNA9KCJD'
p5088
(dp5089
g3
S'Kontra K'
p5090
sg5
I6
sg6
S'https://open.spotify.com/track/3nbtUeypf5UJvxBNA9KCJD'
p5091
sg8
S'Gift (feat. BTNG & AK Ausser Kontrolle)'
p5092
ssS'38mwJAySCI0sxFWJvN3KbC'
p5093
(dp5094
g3
S'Miami Yacine'
p5095
sg5
I5
sg6
S'https://open.spotify.com/track/38mwJAySCI0sxFWJvN3KbC'
p5096
sg8
S'Gro\xc3\x9fstadtdschungel'
p5097
ssS'20uKv8uFihEw4GSzJZ4PtS'
p5098
(dp5099
g3
S'RIN'
p5100
sg5
I1
sg6
S'https://open.spotify.com/track/20uKv8uFihEw4GSzJZ4PtS'
p5101
sg8
S'Vagabundo'
p5102
ssS'5ndfVSDyPq90jaIUhNPeby'
p5103
(dp5104
g3
S'Katy Perry'
p5105
sg5
I2
sg6
S'https://open.spotify.com/track/5ndfVSDyPq90jaIUhNPeby'
p5106
sg8
S'Chained To The Rhythm'
p5107
ssS'06ANtmRZox7qLpkmPwMrwE'
p5108
(dp5109
g3
S'Luciano'
p5110
sg5
I2
sg6
S'https://open.spotify.com/track/06ANtmRZox7qLpkmPwMrwE'
p5111
sg8
S'Flex'
p5112
ssS'5uCax9HTNlzGybIStD3vDh'
p5113
(dp5114
g3
S'James Arthur'
p5115
sg5
I31
sg6
S'https://open.spotify.com/track/5uCax9HTNlzGybIStD3vDh'
p5116
sg8
S"Say You Won't Let Go"
p5117
ssS'1WVnR5tOzd9oMVEAkBvPxH'
p5118
(dp5119
g3
S'Bonez MC'
p5120
sg5
I1
sg6
S'https://open.spotify.com/track/1WVnR5tOzd9oMVEAkBvPxH'
p5121
sg8
S'Erblindet'
p5122
ssS'70f0ToGXTEtLKFSwHMbHoC'
p5123
(dp5124
g3
S'Eagles'
p5125
sg5
I1
sg6
S'https://open.spotify.com/track/70f0ToGXTEtLKFSwHMbHoC'
p5126
sg8
S'Please Come Home For Christmas - Bonus Track'
p5127
ssS'7qJVGbGjDDXEgirD3JwaQP'
p5128
(dp5129
g3
S'RAF Camora'
p5130
sg5
I1
sg6
S'https://open.spotify.com/track/7qJVGbGjDDXEgirD3JwaQP'
p5131
sg8
S'In meiner Wolke'
p5132
ssS'3nCcFA1iiehndgGSddMiV2'
p5133
(dp5134
g3
S'Tom Petty and the Heartbreakers'
p5135
sg5
I1
sg6
S'https://open.spotify.com/track/3nCcFA1iiehndgGSddMiV2'
p5136
sg8
S'Christmas All Over Again'
p5137
ssS'0mtvyPJfM3BNGInoOGZKPN'
p5138
(dp5139
g3
S'Capital Bra'
p5140
sg5
I2
sg6
S'https://open.spotify.com/track/0mtvyPJfM3BNGInoOGZKPN'
p5141
sg8
S'300 Grad'
p5142
ssS'0wfbD5rAksdXUzRvMfM3x5'
p5143
(dp5144
g3
S'The Chainsmokers'
p5145
sg5
I8
sg6
S'https://open.spotify.com/track/0wfbD5rAksdXUzRvMfM3x5'
p5146
sg8
S'The One'
p5147
ssS'6FbYPPtXevIuixOQrrMEYN'
p5148
(dp5149
g3
S'Mert'
p5150
sg5
I1
sg6
S'https://open.spotify.com/track/6FbYPPtXevIuixOQrrMEYN'
p5151
sg8
S'Groupie'
p5152
ssS'2EEeOnHehOozLq4aS0n6SL'
p5153
(dp5154
g3
S'KYLE'
p5155
sg5
I18
sg6
S'https://open.spotify.com/track/2EEeOnHehOozLq4aS0n6SL'
p5156
sg8
S'iSpy (feat. Lil Yachty)'
p5157
ssS'0lQRATnAHfiULVw36bIpDJ'
p5158
(dp5159
g3
S'Cro'
p5160
sg5
I1
sg6
S'https://open.spotify.com/track/0lQRATnAHfiULVw36bIpDJ'
p5161
sg8
S'computiful'
p5162
ssS'1yFiaFeSLpw4nDYTeErRZ6'
p5163
(dp5164
g3
S'Linkin Park'
p5165
sg5
I1
sg6
S'https://open.spotify.com/track/1yFiaFeSLpw4nDYTeErRZ6'
p5166
sg8
S'Leave Out All The Rest'
p5167
ssS'11pNf8SA2U3PXzLca8BFt6'
p5168
(dp5169
g3
S'Lost Frequencies'
p5170
sg5
I1
sg6
S'https://open.spotify.com/track/11pNf8SA2U3PXzLca8BFt6'
p5171
sg8
S'All Or Nothing'
p5172
ssS'7fwXWKdDNI5IutOMc5OKYw'
p5173
(dp5174
g3
S'J Balvin'
p5175
sg5
I2
sg6
S'https://open.spotify.com/track/7fwXWKdDNI5IutOMc5OKYw'
p5176
sg8
S'Mi Gente (feat. Beyonc\xc3\xa9)'
p5177
ssS'7FrKF5zbULxmsWD0eSoSbX'
p5178
(dp5179
g3
S'Casper'
p5180
sg5
I1
sg6
S'https://open.spotify.com/track/7FrKF5zbULxmsWD0eSoSbX'
p5181
sg8
S'Sirenen - Full Version'
p5182
ssS'3BCMPKOdAoXpvDXxiVCwKG'
p5183
(dp5184
g3
S'Mert'
p5185
sg5
I1
sg6
S'https://open.spotify.com/track/3BCMPKOdAoXpvDXxiVCwKG'
p5186
sg8
S'Like geile Bitches'
p5187
ssS'6ME3MgyTvEF082QdPuJFbK'
p5188
(dp5189
g3
S'Maxwell'
p5190
sg5
I3
sg6
S'https://open.spotify.com/track/6ME3MgyTvEF082QdPuJFbK'
p5191
sg8
S'Hakuna Matata'
p5192
ssS'2eAZfqOm4EnOF9VvN50Tyc'
p5193
(dp5194
g3
S'Lil Uzi Vert'
p5195
sg5
I1
sg6
S'https://open.spotify.com/track/2eAZfqOm4EnOF9VvN50Tyc'
p5196
sg8
S'The Way Life Goes'
p5197
ssS'1F2HXIJrE2Xn81OzT2zZvW'
p5198
(dp5199
g3
S'French Montana'
p5200
sg5
I13
sg6
S'https://open.spotify.com/track/1F2HXIJrE2Xn81OzT2zZvW'
p5201
sg8
S'Unforgettable'
p5202
ssS'6QgjcU0zLnzq5OrUoSZ3OK'
p5203
(dp5204
g3
S'Portugal. The Man'
p5205
sg5
I9
sg6
S'https://open.spotify.com/track/6QgjcU0zLnzq5OrUoSZ3OK'
p5206
sg8
S'Feel It Still'
p5207
ssS'3KbCjPkewCmJt09FYtyVK5'
p5208
(dp5209
g3
S'Gzuz'
p5210
sg5
I29
sg6
S'https://open.spotify.com/track/3KbCjPkewCmJt09FYtyVK5'
p5211
sg8
S'10 Jahre'
p5212
ssS'78rIJddV4X0HkNAInEcYde'
p5213
(dp5214
g3
S'Starley'
p5215
sg5
I42
sg6
S'https://open.spotify.com/track/78rIJddV4X0HkNAInEcYde'
p5216
sg8
S'Call On Me - Ryan Riback Extended Remix'
p5217
ssS'0L7loeTIg6akW84aEQZpCT'
p5218
(dp5219
g3
S'Major Lazer'
p5220
sg5
I21
sg6
S'https://open.spotify.com/track/0L7loeTIg6akW84aEQZpCT'
p5221
sg8
S'Light It Up (feat. Nyla & Fuse ODG) - Remix'
p5222
ssS'1BRdeyNaPcblzeqaBum5TS'
p5223
(dp5224
g3
S'PA Sports'
p5225
sg5
I16
sg6
S'https://open.spotify.com/track/1BRdeyNaPcblzeqaBum5TS'
p5226
sg8
S'Sie will'
p5227
ssS'4Q5yMlwAfAoitqg4r9oZHN'
p5228
(dp5229
g3
S'Cashmere Cat'
p5230
sg5
I4
sg6
S'https://open.spotify.com/track/4Q5yMlwAfAoitqg4r9oZHN'
p5231
sg8
S'Quit (feat. Ariana Grande)'
p5232
ssS'3A2a0y5rcJWhm1GJq04tuV'
p5233
(dp5234
g3
S'Capital Bra'
p5235
sg5
I2
sg6
S'https://open.spotify.com/track/3A2a0y5rcJWhm1GJq04tuV'
p5236
sg8
S'Die Echten'
p5237
ssS'1Bqxj0aH5KewYHKUg1IdrF'
p5238
(dp5239
g3
S'G-Eazy'
p5240
sg5
I1
sg6
S'https://open.spotify.com/track/1Bqxj0aH5KewYHKUg1IdrF'
p5241
sg8
S'Some Kind Of Drug'
p5242
ssS'5ZHii46hUSor1kacWUhHQT'
p5243
(dp5244
g3
S'Cro'
p5245
sg5
I1
sg6
S'https://open.spotify.com/track/5ZHii46hUSor1kacWUhHQT'
p5246
sg8
S'hi'
p5247
ssS'3qlF4ENgFTbAbPZfFF9lxt'
p5248
(dp5249
g3
S'Yvonne Catterfeld'
p5250
sg5
I7
sg6
S'https://open.spotify.com/track/3qlF4ENgFTbAbPZfFF9lxt'
p5251
sg8
S'Irgendwas (feat. Bengio)'
p5252
ssS'1LzguIGcb1qtA1Kw9pfwAP'
p5253
(dp5254
g3
S'Alice Merton'
p5255
sg5
I1
sg6
S'https://open.spotify.com/track/1LzguIGcb1qtA1Kw9pfwAP'
p5256
sg8
S'No Roots'
p5257
ssS'1HgK7BQsq5397JH2xzH3dn'
p5258
(dp5259
g3
S'Bushido'
p5260
sg5
I2
sg6
S'https://open.spotify.com/track/1HgK7BQsq5397JH2xzH3dn'
p5261
sg8
S'Sodom und Gomorrha'
p5262
ssS'167NczpNbRF7oWakJaY3Hh'
p5263
(dp5264
g3
S'Niall Horan'
p5265
sg5
I21
sg6
S'https://open.spotify.com/track/167NczpNbRF7oWakJaY3Hh'
p5266
sg8
S'Slow Hands'
p5267
ssS'00xBJ1IJSkErFWuuHxLPoP'
p5268
(dp5269
g3
S'Cro'
p5270
sg5
I5
sg6
S'https://open.spotify.com/track/00xBJ1IJSkErFWuuHxLPoP'
p5271
sg8
S'unendlichkeit - Main Edit'
p5272
ssS'7DQXiMeLqiQsy1uqHSk0xc'
p5273
(dp5274
g3
S'Shawn Hook'
p5275
sg5
I3
sg6
S'https://open.spotify.com/track/7DQXiMeLqiQsy1uqHSk0xc'
p5276
sg8
S'Reminding Me'
p5277
ssS'6dYidXIBbgJ66Ildu9Ime0'
p5278
(dp5279
g3
S'Cro'
p5280
sg5
I1
sg6
S'https://open.spotify.com/track/6dYidXIBbgJ66Ildu9Ime0'
p5281
sg8
S'fkngrt'
p5282
ssS'5dENcQGTiP77Re7LvaIMTT'
p5283
(dp5284
g3
S'Savas'
p5285
sg5
I2
sg6
S'https://open.spotify.com/track/5dENcQGTiP77Re7LvaIMTT'
p5286
sg8
S'Royal Bunker'
p5287
ssS'0CNx6gPB5UXE2sZGa5CUjl'
p5288
(dp5289
g3
S'Ufo361'
p5290
sg5
I1
sg6
S'https://open.spotify.com/track/0CNx6gPB5UXE2sZGa5CUjl'
p5291
sg8
S'Geh mir aus dem Weg'
p5292
ssS'4ebyxcj1PnmLXRFFpWegGY'
p5293
(dp5294
g3
S'Zuna'
p5295
sg5
I3
sg6
S'https://open.spotify.com/track/4ebyxcj1PnmLXRFFpWegGY'
p5296
sg8
S'Guck Mama'
p5297
ssS'3ruUVcomUKxPlX8srBfMua'
p5298
(dp5299
g3
S'187 Strassenbande'
p5300
sg5
I5
sg6
S'https://open.spotify.com/track/3ruUVcomUKxPlX8srBfMua'
p5301
sg8
S'10 Dinger'
p5302
ssS'0MhAmNC40AUHdpHSq04wsT'
p5303
(dp5304
g3
S'Majoe'
p5305
sg5
I7
sg6
S'https://open.spotify.com/track/0MhAmNC40AUHdpHSq04wsT'
p5306
sg8
S'Sidechick'
p5307
ssS'2gFYrhAsBGU9DUzOiCy16l'
p5308
(dp5309
g3
S'Nimo'
p5310
sg5
I2
sg6
S'https://open.spotify.com/track/2gFYrhAsBGU9DUzOiCy16l'
p5311
sg8
S'LFR'
p5312
ssS'70NqBF3w8WSv05KAD2Vz0F'
p5313
(dp5314
g3
S'Maxwell'
p5315
sg5
I4
sg6
S'https://open.spotify.com/track/70NqBF3w8WSv05KAD2Vz0F'
p5316
sg8
S'Diese Beiden'
p5317
ssS'3gppA9cIA46C4nomcRq1NF'
p5318
(dp5319
g3
S'Dardan'
p5320
sg5
I5
sg6
S'https://open.spotify.com/track/3gppA9cIA46C4nomcRq1NF'
p5321
sg8
S'Mister Dardy'
p5322
ssS'6CfrYuD3YRDYdYvH9jNtXY'
p5323
(dp5324
g3
S'Drake'
p5325
sg5
I2
sg6
S'https://open.spotify.com/track/6CfrYuD3YRDYdYvH9jNtXY'
p5326
sg8
S'No Long Talk'
p5327
ssS'1lntL1cI2UIWlxjL5QiN8g'
p5328
(dp5329
g3
S'Lauv'
p5330
sg5
I7
sg6
S'https://open.spotify.com/track/1lntL1cI2UIWlxjL5QiN8g'
p5331
sg8
S'The Other'
p5332
ssS'2nAAFnHiXRdWhsqoeqhhnr'
p5333
(dp5334
g3
S'London Grammar'
p5335
sg5
I1
sg6
S'https://open.spotify.com/track/2nAAFnHiXRdWhsqoeqhhnr'
p5336
sg8
S'Rooting For You'
p5337
ssS'1KiA2qmRxsedA1mKPceIov'
p5338
(dp5339
g3
S'Bonez MC'
p5340
sg5
I11
sg6
S'https://open.spotify.com/track/1KiA2qmRxsedA1mKPceIov'
p5341
sg8
S'Gro\xc3\x9fes Kaliber'
p5342
ssS'1839RWzPRZCVgvamu4sHSN'
p5343
(dp5344
g3
S'Cash Cash'
p5345
sg5
I4
sg6
S'https://open.spotify.com/track/1839RWzPRZCVgvamu4sHSN'
p5346
sg8
S'All My Love (feat. Conor Maynard)'
p5347
ssS'7goWEGd9EpIKR6nuE1BOgW'
p5348
(dp5349
g3
S'Savas'
p5350
sg5
I1
sg6
S'https://open.spotify.com/track/7goWEGd9EpIKR6nuE1BOgW'
p5351
sg8
S'Normale Leute'
p5352
ssS'5hwzUBmny610l7YQPH9sdb'
p5353
(dp5354
g3
S'KC Rebell'
p5355
sg5
I1
sg6
S'https://open.spotify.com/track/5hwzUBmny610l7YQPH9sdb'
p5356
sg8
S'Wo ich hin will (Outro)'
p5357
ssS'6wHRm1KR8pzVDPdmR6Qovj'
p5358
(dp5359
g3
S'Bonez MC'
p5360
sg5
I42
sg6
S'https://open.spotify.com/track/6wHRm1KR8pzVDPdmR6Qovj'
p5361
sg8
S'Palmen aus Plastik'
p5362
ssS'5J9P2JiLn9VR5C8c2YAEPi'
p5363
(dp5364
g3
S'Savas'
p5365
sg5
I6
sg6
S'https://open.spotify.com/track/5J9P2JiLn9VR5C8c2YAEPi'
p5366
sg8
S'Royal Bunker'
p5367
ssS'11KJSRSgaDxqydKYiD2Jew'
p5368
(dp5369
g3
S'Drake'
p5370
sg5
I8
sg6
S'https://open.spotify.com/track/11KJSRSgaDxqydKYiD2Jew'
p5371
sg8
S'Too Good'
p5372
ssS'7pYFPMeK0TnaTGdS6qOtEr'
p5373
(dp5374
g3
S'Stargate'
p5375
sg5
I6
sg6
S'https://open.spotify.com/track/7pYFPMeK0TnaTGdS6qOtEr'
p5376
sg8
S'Waterfall'
p5377
ssS'7nN5Dzp2RY2OOOWlPzGfyQ'
p5378
(dp5379
g3
S'Capo'
p5380
sg5
I1
sg6
S'https://open.spotify.com/track/7nN5Dzp2RY2OOOWlPzGfyQ'
p5381
sg8
S'Napoli'
p5382
ssS'1yNyoWWWikbLhwIGWjZuDW'
p5383
(dp5384
g3
S'The Vamps'
p5385
sg5
I27
sg6
S'https://open.spotify.com/track/1yNyoWWWikbLhwIGWjZuDW'
p5386
sg8
S'All Night'
p5387
ssS'26AuyrZGzWWiYZPSd3XBIg'
p5388
(dp5389
g3
S'The Chainsmokers'
p5390
sg5
I1
sg6
S'https://open.spotify.com/track/26AuyrZGzWWiYZPSd3XBIg'
p5391
sg8
S'Bloodstream'
p5392
ssS'18BLXBMkoDHVxJaSXDt9v3'
p5393
(dp5394
g3
S'Savas'
p5395
sg5
I1
sg6
S'https://open.spotify.com/track/18BLXBMkoDHVxJaSXDt9v3'
p5396
sg8
S'Freund/Feind'
p5397
ssS'7FpW9V6XATqH6z7jhqQjlp'
p5398
(dp5399
g3
S'Capital Bra'
p5400
sg5
I7
sg6
S'https://open.spotify.com/track/7FpW9V6XATqH6z7jhqQjlp'
p5401
sg8
S'Ol\xc3\xa9 Ol\xc3\xa9'
p5402
ssS'7ByFwzXO3G2CgLejzv3d1q'
p5403
(dp5404
g3
S'RIN'
p5405
sg5
I1
sg6
S'https://open.spotify.com/track/7ByFwzXO3G2CgLejzv3d1q'
p5406
sg8
S'Arr\xc3\xaat\xc3\xa9 - Skit'
p5407
ssS'57BrRMwf9LrcmuOsyGilwr'
p5408
(dp5409
g3
S'Linkin Park'
p5410
sg5
I1
sg6
S'https://open.spotify.com/track/57BrRMwf9LrcmuOsyGilwr'
p5411
sg8
S'Crawling'
p5412
ssS'4vb4mFvYsr2h6enhjJsq9Y'
p5413
(dp5414
g3
S'Adele'
p5415
sg5
I11
sg6
S'https://open.spotify.com/track/4vb4mFvYsr2h6enhjJsq9Y'
p5416
sg8
S'Water Under the Bridge'
p5417
ssS'6cPyTS0Kk2sc4xQwC93kOg'
p5418
(dp5419
g3
S'The Chainsmokers'
p5420
sg5
I1
sg6
S'https://open.spotify.com/track/6cPyTS0Kk2sc4xQwC93kOg'
p5421
sg8
S'Break Up Every Night'
p5422
ssS'61JOmMKpKfmkN5IAKZPTRY'
p5423
(dp5424
g3
S'Mert'
p5425
sg5
I1
sg6
S'https://open.spotify.com/track/61JOmMKpKfmkN5IAKZPTRY'
p5426
sg8
S'Liebe hei\xc3\x9ft'
p5427
ssS'2kVHAQKVtczchKctctzbtK'
p5428
(dp5429
g3
S'Katy Perry'
p5430
sg5
I13
sg6
S'https://open.spotify.com/track/2kVHAQKVtczchKctctzbtK'
p5431
sg8
S'Swish Swish'
p5432
ssS'17Fd6Yb7mSbinKG8LoWfFl'
p5433
(dp5434
g3
S'Mike Posner'
p5435
sg5
I20
sg6
S'https://open.spotify.com/track/17Fd6Yb7mSbinKG8LoWfFl'
p5436
sg8
S'I Took A Pill In Ibiza - Seeb Remix'
p5437
ssS'7zTx8ePYAmPFQuxP3xlXZn'
p5438
(dp5439
g3
S'San Holo'
p5440
sg5
I6
sg6
S'https://open.spotify.com/track/7zTx8ePYAmPFQuxP3xlXZn'
p5441
sg8
S'Light'
p5442
ssS'4wNoRqV13QFo0ioevVaP1W'
p5443
(dp5444
g3
S'Capital Bra'
p5445
sg5
I2
sg6
S'https://open.spotify.com/track/4wNoRqV13QFo0ioevVaP1W'
p5446
sg8
S'BMW Alpina'
p5447
ssS'4tCtwWceOPWzenK2HAIJSb'
p5448
(dp5449
g3
S'Fifth Harmony'
p5450
sg5
I14
sg6
S'https://open.spotify.com/track/4tCtwWceOPWzenK2HAIJSb'
p5451
sg8
S'Work from Home'
p5452
ssS'6WbADFqMvR8N5u0BvtsWQE'
p5453
(dp5454
g3
S'Avicii'
p5455
sg5
I9
sg6
S'https://open.spotify.com/track/6WbADFqMvR8N5u0BvtsWQE'
p5456
sg8
S'Without You (feat. Sandro Cavazza)'
p5457
ssS'7d2QNWdojil8IXENPnAgTv'
p5458
(dp5459
g3
S'RAF Camora'
p5460
sg5
I5
sg6
S'https://open.spotify.com/track/7d2QNWdojil8IXENPnAgTv'
p5461
sg8
S'Alles probiert'
p5462
ssS'3TZ3MiMILR5wrQbbWiFUwI'
p5463
(dp5464
g3
S'A R I Z O N A'
p5465
sg5
I15
sg6
S'https://open.spotify.com/track/3TZ3MiMILR5wrQbbWiFUwI'
p5466
sg8
S'I Was Wrong - Robin Schulz Remix'
p5467
ssS'6PGoSes0D9eUDeeAafB2As'
p5468
(dp5469
g3
S'Kendrick Lamar'
p5470
sg5
I5
sg6
S'https://open.spotify.com/track/6PGoSes0D9eUDeeAafB2As'
p5471
sg8
S'LOVE. FEAT. ZACARI.'
p5472
ssS'1DmTjPulewJKFW2xbhYNJE'
p5473
(dp5474
g3
S'Casper'
p5475
sg5
I1
sg6
S'https://open.spotify.com/track/1DmTjPulewJKFW2xbhYNJE'
p5476
sg8
S'Lass sie gehen'
p5477
ssS'3hB5DgAiMAQ4DzYbsMq1IT'
p5478
(dp5479
g3
S'Justin Bieber'
p5480
sg5
I10
sg6
S'https://open.spotify.com/track/3hB5DgAiMAQ4DzYbsMq1IT'
p5481
sg8
S'Love Yourself'
p5482
ssS'1foCxQtxBweJtZmdxhEHVO'
p5483
(dp5484
g3
S'Eartha Kitt'
p5485
sg5
I1
sg6
S'https://open.spotify.com/track/1foCxQtxBweJtZmdxhEHVO'
p5486
sg8
S'Santa Baby'
p5487
ssS'5UfqW3E0rt8umTM91HeHU7'
p5488
(dp5489
g3
S'Eno'
p5490
sg5
I6
sg6
S'https://open.spotify.com/track/5UfqW3E0rt8umTM91HeHU7'
p5491
sg8
S'Massari'
p5492
ssS'6hjck7ERXicpsW51UkdHCA'
p5493
(dp5494
g3
S'Maxwell'
p5495
sg5
I40
sg6
S'https://open.spotify.com/track/6hjck7ERXicpsW51UkdHCA'
p5496
sg8
S'Safari'
p5497
ssS'6XOYVSmNDjKUNMXooU4s4z'
p5498
(dp5499
g3
S'OneRepublic'
p5500
sg5
I24
sg6
S'https://open.spotify.com/track/6XOYVSmNDjKUNMXooU4s4z'
p5501
sg8
S'No Vacancy'
p5502
ssS'1oc4kHthIpfa2jQnIL33GE'
p5503
(dp5504
g3
S'OneRepublic'
p5505
sg5
I6
sg6
S'https://open.spotify.com/track/1oc4kHthIpfa2jQnIL33GE'
p5506
sg8
S"Let's Hurt Tonight"
p5507
ssS'06ieFuGkwHCOFP2cmOBmgb'
p5508
(dp5509
g3
S'RIN'
p5510
sg5
I6
sg6
S'https://open.spotify.com/track/06ieFuGkwHCOFP2cmOBmgb'
p5511
sg8
S'Monica Bellucci'
p5512
ssS'66qE55Bj3Ap0M45VRTWq1I'
p5513
(dp5514
g3
S'Kontra K'
p5515
sg5
I1
sg6
S'https://open.spotify.com/track/66qE55Bj3Ap0M45VRTWq1I'
p5516
sg8
S'Mosaik (feat. Rico)'
p5517
ssS'3bidbhpOYeV4knp8AIu8Xn'
p5518
(dp5519
g3
S'Macklemore & Ryan Lewis'
p5520
sg5
I4
sg6
S'https://open.spotify.com/track/3bidbhpOYeV4knp8AIu8Xn'
p5521
sg8
S"Can't Hold Us - feat. Ray Dalton"
p5522
ssS'3my1RfvOhuSan7Ml1ZIVze'
p5523
(dp5524
g3
S'Bushido'
p5525
sg5
I2
sg6
S'https://open.spotify.com/track/3my1RfvOhuSan7Ml1ZIVze'
p5526
sg8
S'Papa'
p5527
ssS'5nm2zzI4IUPdyVhTZ5QvmR'
p5528
(dp5529
g3
S'Zuna'
p5530
sg5
I9
sg6
S'https://open.spotify.com/track/5nm2zzI4IUPdyVhTZ5QvmR'
p5531
sg8
S'Original'
p5532
ssS'6hyQOWD7kUVEJTjIHtJXdM'
p5533
(dp5534
g3
S'Kontra K'
p5535
sg5
I26
sg6
S'https://open.spotify.com/track/6hyQOWD7kUVEJTjIHtJXdM'
p5536
sg8
S'Mehr als ein Job'
p5537
ssS'1PUAtAZlCOZAlCMxsW5EDk'
p5538
(dp5539
g3
S'Maxwell'
p5540
sg5
I1
sg6
S'https://open.spotify.com/track/1PUAtAZlCOZAlCMxsW5EDk'
p5541
sg8
S'Nix war Geplant'
p5542
ssS'1lItf5ZXJc1by9SbPeljFd'
p5543
(dp5544
g3
S'Zay Hilfigerrr'
p5545
sg5
I7
sg6
S'https://open.spotify.com/track/1lItf5ZXJc1by9SbPeljFd'
p5546
sg8
S'Juju On That Beat (TZ Anthem)'
p5547
ssS'10GrKSNtr0tTIscYFt32V4'
p5548
(dp5549
g3
S'Nimo'
p5550
sg5
I2
sg6
S'https://open.spotify.com/track/10GrKSNtr0tTIscYFt32V4'
p5551
sg8
S'Veni Vidi Siktim'
p5552
ssS'46A4bx39GWGQj50pnybabM'
p5553
(dp5554
g3
S'Azzi Memo'
p5555
sg5
I19
sg6
S'https://open.spotify.com/track/46A4bx39GWGQj50pnybabM'
p5556
sg8
S'Heb ab'
p5557
ssS'5LiNVqzl7PIIBBrKbCtMvn'
p5558
(dp5559
g3
S'KC Rebell'
p5560
sg5
I2
sg6
S'https://open.spotify.com/track/5LiNVqzl7PIIBBrKbCtMvn'
p5561
sg8
S'Salut'
p5562
ss.