(dp0
S'46jLy47W8rkf8rEX04gMKB'
p1
(dp2
S'artistName'
p3
S'OneRepublic'
p4
sS'weeksOnChart'
p5
I11
sS'track_href'
p6
S'https://open.spotify.com/track/46jLy47W8rkf8rEX04gMKB'
p7
sS'songName'
p8
S'Wherever I Go'
p9
ssS'0mel2N9Ws9r4yLQn5QE21Y'
p10
(dp11
g3
S'Sam Smith'
p12
sg5
I5
sg6
S'https://open.spotify.com/track/0mel2N9Ws9r4yLQn5QE21Y'
p13
sg8
S'Too Good At Goodbyes'
p14
ssS'728zbo72kOoYdGR3AhNsyF'
p15
(dp16
g3
S'The xx'
p17
sg5
I1
sg6
S'https://open.spotify.com/track/728zbo72kOoYdGR3AhNsyF'
p18
sg8
S'Say Something Loving'
p19
ssS'13e6f8t7RKXuxZ0JdaaJRG'
p20
(dp21
g3
S'Drake'
p22
sg5
I1
sg6
S'https://open.spotify.com/track/13e6f8t7RKXuxZ0JdaaJRG'
p23
sg8
S'Jorja Interlude'
p24
ssS'4XaVGXF1KVcXBvxN5ovVxM'
p25
(dp26
g3
S'Claudio Cap\xc3\xa9o'
p27
sg5
I8
sg6
S'https://open.spotify.com/track/4XaVGXF1KVcXBvxN5ovVxM'
p28
sg8
S'Un homme debout'
p29
ssS'6uFsE1JgZ20EXyU0JQZbUR'
p30
(dp31
g3
S'Taylor Swift'
p32
sg5
I7
sg6
S'https://open.spotify.com/track/6uFsE1JgZ20EXyU0JQZbUR'
p33
sg8
S'Look What You Made Me Do'
p34
ssS'2F818Thavp4lVejnTaSCVh'
p35
(dp36
g3
S'Sofiane'
p37
sg5
I1
sg6
S'https://open.spotify.com/track/2F818Thavp4lVejnTaSCVh'
p38
sg8
S'\xc3\x87a bicrave la mort'
p39
ssS'0prNGof3XqfTvNDxHonvdK'
p40
(dp41
g3
S'Alessia Cara'
p42
sg5
I6
sg6
S'https://open.spotify.com/track/0prNGof3XqfTvNDxHonvdK'
p43
sg8
S'Scars To Your Beautiful'
p44
ssS'7DIFgt59SxjNITfr0c4Hym'
p45
(dp46
g3
S"Rim'K"
p47
sg5
I4
sg6
S'https://open.spotify.com/track/7DIFgt59SxjNITfr0c4Hym'
p48
sg8
S'500 \xe2\x82\xac'
p49
ssS'6HUnnBwYZqcED1eQztxMBN'
p50
(dp51
g3
S'Martin Jensen'
p52
sg5
I36
sg6
S'https://open.spotify.com/track/6HUnnBwYZqcED1eQztxMBN'
p53
sg8
S'Solo Dance'
p54
ssS'4YXvIqGemSbgBtHP5AOWvJ'
p55
(dp56
g3
S'Jul'
p57
sg5
I3
sg6
S'https://open.spotify.com/track/4YXvIqGemSbgBtHP5AOWvJ'
p58
sg8
S'Dr\xc3\xb4le de dame'
p59
ssS'085C7WQ5RsTGaVyzrtYYaM'
p60
(dp61
g3
S'Niro'
p62
sg5
I1
sg6
S'https://open.spotify.com/track/085C7WQ5RsTGaVyzrtYYaM'
p63
sg8
S'Contact'
p64
ssS'0lLdorYw7lVrJydTINhWdI'
p65
(dp66
g3
S'Michael Bubl\xc3\xa9'
p67
sg5
I1
sg6
S'https://open.spotify.com/track/0lLdorYw7lVrJydTINhWdI'
p68
sg8
S"It's Beginning To Look A Lot Like Christmas"
p69
ssS'0v9yrgq9lNv5RJ3NPkCxmg'
p70
(dp71
g3
S'MHD'
p72
sg5
I17
sg6
S'https://open.spotify.com/track/0v9yrgq9lNv5RJ3NPkCxmg'
p73
sg8
S'A Kele Nta'
p74
ssS'2aksifNn5ph8igDOkPBA02'
p75
(dp76
g3
S'Rihanna'
p77
sg5
I12
sg6
S'https://open.spotify.com/track/2aksifNn5ph8igDOkPBA02'
p78
sg8
S'Love On The Brain'
p79
ssS'7wGoVu4Dady5GV0Sv4UIsx'
p80
(dp81
g3
S'Post Malone'
p82
sg5
I1
sg6
S'https://open.spotify.com/track/7wGoVu4Dady5GV0Sv4UIsx'
p83
sg8
S'rockstar'
p84
ssS'2cg2JYHCXSRuVywWVTEZze'
p85
(dp86
g3
S'Hornet La Frappe'
p87
sg5
I1
sg6
S'https://open.spotify.com/track/2cg2JYHCXSRuVywWVTEZze'
p88
sg8
S'Double h'
p89
ssS'1V0qFd4CbtbEYbZumhMXCc'
p90
(dp91
g3
S'Jul'
p92
sg5
I1
sg6
S'https://open.spotify.com/track/1V0qFd4CbtbEYbZumhMXCc'
p93
sg8
S'Beely'
p94
ssS'3DlYKaVvoeuQ4bw4ro8AeX'
p95
(dp96
g3
S'Alonzo'
p97
sg5
I2
sg6
S'https://open.spotify.com/track/3DlYKaVvoeuQ4bw4ro8AeX'
p98
sg8
S'Jalousie'
p99
ssS'0fBxgiQe76HZFFqN2FUUpw'
p100
(dp101
g3
S'Damso'
p102
sg5
I17
sg6
S'https://open.spotify.com/track/0fBxgiQe76HZFFqN2FUUpw'
p103
sg8
S'\xce\x97. Gova'
p104
ssS'0xH4qR6s5TqdzMKRkloBnh'
p105
(dp106
g3
S'Nekfeu'
p107
sg5
I12
sg6
S'https://open.spotify.com/track/0xH4qR6s5TqdzMKRkloBnh'
p108
sg8
S'Le regard des gens'
p109
ssS'39qeQou5OR7ZL7KoJYqTJi'
p110
(dp111
g3
S'Alonzo'
p112
sg5
I2
sg6
S'https://open.spotify.com/track/39qeQou5OR7ZL7KoJYqTJi'
p113
sg8
S'Elvira'
p114
ssS'6gLkunWShYxvE8p7AGXbw3'
p115
(dp116
g3
S'Jul'
p117
sg5
I3
sg6
S'https://open.spotify.com/track/6gLkunWShYxvE8p7AGXbw3'
p118
sg8
S'Je suis rest\xc3\xa9 le m\xc3\xaame'
p119
ssS'4eAavD2RXNur3pnEul99pE'
p120
(dp121
g3
S'Naps'
p122
sg5
I1
sg6
S'https://open.spotify.com/track/4eAavD2RXNur3pnEul99pE'
p123
sg8
S'LV'
p124
ssS'2bqexboOK1opJI8vjq3ISh'
p125
(dp126
g3
S'Jul'
p127
sg5
I6
sg6
S'https://open.spotify.com/track/2bqexboOK1opJI8vjq3ISh'
p128
sg8
S'Beely'
p129
ssS'1gI6FedOWXQ7aSj4FfEiGK'
p130
(dp131
g3
S'Niska'
p132
sg5
I3
sg6
S'https://open.spotify.com/track/1gI6FedOWXQ7aSj4FfEiGK'
p133
sg8
S'Medell\xc3\xadn'
p134
ssS'3tCV6RDhWQrpKvnhap5cRx'
p135
(dp136
g3
S'Fally Ipupa'
p137
sg5
I1
sg6
S'https://open.spotify.com/track/3tCV6RDhWQrpKvnhap5cRx'
p138
sg8
S'Kiname (feat. Booba)'
p139
ssS'4GdqEjpWvPiFeBlMkXLMGj'
p140
(dp141
g3
S'Bigflo & Oli'
p142
sg5
I1
sg6
S'https://open.spotify.com/track/4GdqEjpWvPiFeBlMkXLMGj'
p143
sg8
S'La vraie vie'
p144
ssS'2FRnf9qhLbvw8fu4IBXx78'
p145
(dp146
g3
S'Wham!'
p147
sg5
I1
sg6
S'https://open.spotify.com/track/2FRnf9qhLbvw8fu4IBXx78'
p148
sg8
S'Last Christmas'
p149
ssS'7tr2za8SQg2CI8EDgrdtNl'
p150
(dp151
g3
S'Calvin Harris'
p152
sg5
I25
sg6
S'https://open.spotify.com/track/7tr2za8SQg2CI8EDgrdtNl'
p153
sg8
S'Slide'
p154
ssS'4E5h59QIoN0vhfeEPMFTZw'
p155
(dp156
g3
S'Bigflo & Oli'
p157
sg5
I1
sg6
S'https://open.spotify.com/track/4E5h59QIoN0vhfeEPMFTZw'
p158
sg8
S'Alors alors'
p159
ssS'4Hg1iEa7zg4Z0l2oxpARIL'
p160
(dp161
g3
S'Naps'
p162
sg5
I17
sg6
S'https://open.spotify.com/track/4Hg1iEa7zg4Z0l2oxpARIL'
p163
sg8
S'Ciao'
p164
ssS'1oWXu2IFAtyiWroX3vlgaY'
p165
(dp166
g3
S'Deen Burbigo'
p167
sg5
I1
sg6
S'https://open.spotify.com/track/1oWXu2IFAtyiWroX3vlgaY'
p168
sg8
S'Pas une autre'
p169
ssS'06FCvd7rrRcF3DdvWH5Isp'
p170
(dp171
g3
S'Kendrick Lamar'
p172
sg5
I2
sg6
S'https://open.spotify.com/track/06FCvd7rrRcF3DdvWH5Isp'
p173
sg8
S'LUST.'
p174
ssS'4pLwZjInHj3SimIyN9SnOz'
p175
(dp176
g3
S'Ariana Grande'
p177
sg5
I9
sg6
S'https://open.spotify.com/track/4pLwZjInHj3SimIyN9SnOz'
p178
sg8
S'Side To Side'
p179
ssS'46BsSUWalcIeq0wISIVCga'
p180
(dp181
g3
S'Hornet La Frappe'
p182
sg5
I2
sg6
S'https://open.spotify.com/track/46BsSUWalcIeq0wISIVCga'
p183
sg8
S'2 fois plus'
p184
ssS'4qknM1pQz53QOyfDVTjcM9'
p185
(dp186
g3
S'Shakira'
p187
sg5
I11
sg6
S'https://open.spotify.com/track/4qknM1pQz53QOyfDVTjcM9'
p188
sg8
S'Me Enamor\xc3\xa9'
p189
ssS'3E2Zh20GDCR9B1EYjfXWyv'
p190
(dp191
g3
S'AJR'
p192
sg5
I8
sg6
S'https://open.spotify.com/track/3E2Zh20GDCR9B1EYjfXWyv'
p193
sg8
S'Weak'
p194
ssS'0olqWCbKeAJQooXRoRjTCS'
p195
(dp196
g3
S'Vald'
p197
sg5
I1
sg6
S'https://open.spotify.com/track/0olqWCbKeAJQooXRoRjTCS'
p198
sg8
S'Libellule'
p199
ssS'0xl1w2q4VLojeXp4JfazPL'
p200
(dp201
g3
S'Drake'
p202
sg5
I1
sg6
S'https://open.spotify.com/track/0xl1w2q4VLojeXp4JfazPL'
p203
sg8
S'Sacrifices'
p204
ssS'3ENoWN2ftV0ngsVwsT05Tb'
p205
(dp206
g3
S'Hornet La Frappe'
p207
sg5
I2
sg6
S'https://open.spotify.com/track/3ENoWN2ftV0ngsVwsT05Tb'
p208
sg8
S'Terrain glissant (feat. Kalash Criminel)'
p209
ssS'7fNF0bB2H6fkA8ut8NRpjX'
p210
(dp211
g3
S'Sneazzy'
p212
sg5
I1
sg6
S'https://open.spotify.com/track/7fNF0bB2H6fkA8ut8NRpjX'
p213
sg8
S'Pull Up'
p214
ssS'3SD7hc30MJdcSadQgHUBWl'
p215
(dp216
g3
S'Jaded'
p217
sg5
I2
sg6
S'https://open.spotify.com/track/3SD7hc30MJdcSadQgHUBWl'
p218
sg8
S'In the Morning'
p219
ssS'32AgFOMXZQtUICDf6gedY6'
p220
(dp221
g3
S'Sadek'
p222
sg5
I4
sg6
S'https://open.spotify.com/track/32AgFOMXZQtUICDf6gedY6'
p223
sg8
S'Napoli'
p224
ssS'4Km5HrUvYTaSUfiSGPJeQR'
p225
(dp226
g3
S'Migos'
p227
sg5
I25
sg6
S'https://open.spotify.com/track/4Km5HrUvYTaSUfiSGPJeQR'
p228
sg8
S'Bad and Boujee (feat. Lil Uzi Vert)'
p229
ssS'6fowps7eXfuZUjSfrp2AlQ'
p230
(dp231
g3
S'Niska'
p232
sg5
I3
sg6
S'https://open.spotify.com/track/6fowps7eXfuZUjSfrp2AlQ'
p233
sg8
S"Twerk dans l'binks"
p234
ssS'2RttW7RAu5nOAfq6YFvApB'
p235
(dp236
g3
S'Ed Sheeran'
p237
sg5
I9
sg6
S'https://open.spotify.com/track/2RttW7RAu5nOAfq6YFvApB'
p238
sg8
S'Happier'
p239
ssS'26haJjtanhamtf25RXH0MO'
p240
(dp241
g3
S'Martin Solveig'
p242
sg5
I1
sg6
S'https://open.spotify.com/track/26haJjtanhamtf25RXH0MO'
p243
sg8
S'All Stars'
p244
ssS'0z18wqbjuXTxzaNm4oegU2'
p245
(dp246
g3
S'Lacrim'
p247
sg5
I28
sg6
S'https://open.spotify.com/track/0z18wqbjuXTxzaNm4oegU2'
p248
sg8
S'Oh bah oui'
p249
ssS'3EmmCZoqpWOTY1g2GBwJoR'
p250
(dp251
g3
S'Steve Aoki'
p252
sg5
I18
sg6
S'https://open.spotify.com/track/3EmmCZoqpWOTY1g2GBwJoR'
p253
sg8
S'Just Hold On'
p254
ssS'2Ce5IyMlVRVvN997ZJjJJA'
p255
(dp256
g3
S'Future'
p257
sg5
I13
sg6
S'https://open.spotify.com/track/2Ce5IyMlVRVvN997ZJjJJA'
p258
sg8
S'Selfish'
p259
ssS'3WR4pU96KUOlAOTgYCefdH'
p260
(dp261
g3
S'Bengous'
p262
sg5
I1
sg6
S'https://open.spotify.com/track/3WR4pU96KUOlAOTgYCefdH'
p263
sg8
S'Ti\xc3\xa9 la famille !'
p264
ssS'63qapUS8yLKz0tb0eOgOTF'
p265
(dp266
g3
S'Lo\xc3\xafc Nottet'
p267
sg5
I25
sg6
S'https://open.spotify.com/track/63qapUS8yLKz0tb0eOgOTF'
p268
sg8
S'Million Eyes'
p269
ssS'5vZW3QAWw2PY5323r7yI0Z'
p270
(dp271
g3
S'Jul'
p272
sg5
I3
sg6
S'https://open.spotify.com/track/5vZW3QAWw2PY5323r7yI0Z'
p273
sg8
S'Sao\xc3\xbbl\xc3\xa9'
p274
ssS'4I2Z1gxRN4f55EmMwhzKxK'
p275
(dp276
g3
S'Benash'
p277
sg5
I17
sg6
S'https://open.spotify.com/track/4I2Z1gxRN4f55EmMwhzKxK'
p278
sg8
S'Ivre'
p279
ssS'4hhjo5UwwsRGmC9GET4NLZ'
p280
(dp281
g3
S'Alonzo'
p282
sg5
I2
sg6
S'https://open.spotify.com/track/4hhjo5UwwsRGmC9GET4NLZ'
p283
sg8
S'G\xc3\xa9n\xc3\xa9ration X-Or'
p284
ssS'3LVYyIwOw16nmkzvLK7mAF'
p285
(dp286
g3
S'Mister V'
p287
sg5
I3
sg6
S'https://open.spotify.com/track/3LVYyIwOw16nmkzvLK7mAF'
p288
sg8
S'Gville'
p289
ssS'60rndNMhEUgIR3G1uhlDwg'
p290
(dp291
g3
S'Niska'
p292
sg5
I3
sg6
S'https://open.spotify.com/track/60rndNMhEUgIR3G1uhlDwg'
p293
sg8
S'La wewer'
p294
ssS'20dP2DaMHIAmwWAbp7peSr'
p295
(dp296
g3
S'Young Thug'
p297
sg5
I2
sg6
S'https://open.spotify.com/track/20dP2DaMHIAmwWAbp7peSr'
p298
sg8
S'pick up the phone'
p299
ssS'3BMcY4M9KsjoQk3FiNU7Er'
p300
(dp301
g3
S'Fakear'
p302
sg5
I3
sg6
S'https://open.spotify.com/track/3BMcY4M9KsjoQk3FiNU7Er'
p303
sg8
S'Silver'
p304
ssS'2KFtR068hGRpPFUs1msN4y'
p305
(dp306
g3
S'Vald'
p307
sg5
I3
sg6
S'https://open.spotify.com/track/2KFtR068hGRpPFUs1msN4y'
p308
sg8
S"Je t'aime"
p309
ssS'2PdPY7ugCRGX9TERhhEtPW'
p310
(dp311
g3
S'Sofiane'
p312
sg5
I2
sg6
S'https://open.spotify.com/track/2PdPY7ugCRGX9TERhhEtPW'
p313
sg8
S'Bakhaw'
p314
ssS'4xlrALxuaCf9yZBHJeTSG6'
p315
(dp316
g3
S'Jonas Blue'
p317
sg5
I6
sg6
S'https://open.spotify.com/track/4xlrALxuaCf9yZBHJeTSG6'
p318
sg8
S'Mama'
p319
ssS'3xbPIl1dqCSbymBpBrNl73'
p320
(dp321
g3
S'Hornet La Frappe'
p322
sg5
I2
sg6
S'https://open.spotify.com/track/3xbPIl1dqCSbymBpBrNl73'
p323
sg8
S'Maghr\xc3\xa9bin'
p324
ssS'1hVEHazr1EDumcrGlEU5XF'
p325
(dp326
g3
S'Nekfeu'
p327
sg5
I8
sg6
S'https://open.spotify.com/track/1hVEHazr1EDumcrGlEU5XF'
p328
sg8
S'Besoin de sens'
p329
ssS'00vk0sEfb6mr2ehwSw0Uhn'
p330
(dp331
g3
S'Imany'
p332
sg5
I1
sg6
S'https://open.spotify.com/track/00vk0sEfb6mr2ehwSw0Uhn'
p333
sg8
S"Don't Be So Shy - Filatov & Karas Remix"
p334
ssS'3dKPTLq7kjYoXp62aP8MVE'
p335
(dp336
g3
S'Djadja & Dinaz'
p337
sg5
I5
sg6
S'https://open.spotify.com/track/3dKPTLq7kjYoXp62aP8MVE'
p338
sg8
S'Tenue de motard 4'
p339
ssS'2DgbGKxExW9p3ZmsBDOXBg'
p340
(dp341
g3
S'Lartiste'
p342
sg5
I10
sg6
S'https://open.spotify.com/track/2DgbGKxExW9p3ZmsBDOXBg'
p343
sg8
S'Pardonner'
p344
ssS'5DiTHFfOcltcn9dpgiirzi'
p345
(dp346
g3
S'Bigflo & Oli'
p347
sg5
I1
sg6
S'https://open.spotify.com/track/5DiTHFfOcltcn9dpgiirzi'
p348
sg8
S'Sac \xc3\xa0 dos'
p349
ssS'1oXiNxPogfnfVMiqGdr2Pv'
p350
(dp351
g3
S'Jul'
p352
sg5
I7
sg6
S'https://open.spotify.com/track/1oXiNxPogfnfVMiqGdr2Pv'
p353
sg8
S'Cagoul\xc3\xa9'
p354
ssS'000xQL6tZNLJzIrtIgxqSl'
p355
(dp356
g3
S'ZAYN'
p357
sg5
I3
sg6
S'https://open.spotify.com/track/000xQL6tZNLJzIrtIgxqSl'
p358
sg8
S'Still Got Time'
p359
ssS'1z46SEKKfe33covso73FGQ'
p360
(dp361
g3
S'Niro'
p362
sg5
I1
sg6
S'https://open.spotify.com/track/1z46SEKKfe33covso73FGQ'
p363
sg8
S'Sans regrets'
p364
ssS'1D3ODoXHBLpdxolZRHWV1j'
p365
(dp366
g3
S'Jonas Blue'
p367
sg5
I16
sg6
S'https://open.spotify.com/track/1D3ODoXHBLpdxolZRHWV1j'
p368
sg8
S'By Your Side'
p369
ssS'1YHk0MpczUTbuMFYSSfNFK'
p370
(dp371
g3
S'SCH'
p372
sg5
I2
sg6
S'https://open.spotify.com/track/1YHk0MpczUTbuMFYSSfNFK'
p373
sg8
S'Temps mort'
p374
ssS'5c4tB0saSkNHX5CyDosuF7'
p375
(dp376
g3
S'Burak Yeter'
p377
sg5
I2
sg6
S'https://open.spotify.com/track/5c4tB0saSkNHX5CyDosuF7'
p378
sg8
S'Tuesday'
p379
ssS'0KKkJNfGyhkQ5aFogxQAPU'
p380
(dp381
g3
S'Bruno Mars'
p382
sg5
I26
sg6
S'https://open.spotify.com/track/0KKkJNfGyhkQ5aFogxQAPU'
p383
sg8
S"That's What I Like"
p384
ssS'584FSBgVVOd1lO9fsdA35k'
p385
(dp386
g3
S'MMZ'
p387
sg5
I10
sg6
S'https://open.spotify.com/track/584FSBgVVOd1lO9fsdA35k'
p388
sg8
S'Ma bulle'
p389
ssS'2pJBdcNLUkEOk2EkA5FEEa'
p390
(dp391
g3
S'Vald'
p392
sg5
I3
sg6
S'https://open.spotify.com/track/2pJBdcNLUkEOk2EkA5FEEa'
p393
sg8
S"Si j'arr\xc3\xaatais"
p394
ssS'3Y9l5dKsuaipDSnPsHzogk'
p395
(dp396
g3
S'Nekfeu'
p397
sg5
I6
sg6
S'https://open.spotify.com/track/3Y9l5dKsuaipDSnPsHzogk'
p398
sg8
S'Vinyle'
p399
ssS'5CtI0qwDJkDQGwXD1H1cLb'
p400
(dp401
g3
S'Luis Fonsi'
p402
sg5
I26
sg6
S'https://open.spotify.com/track/5CtI0qwDJkDQGwXD1H1cLb'
p403
sg8
S'Despacito - Remix'
p404
ssS'4izg6Hydc6XGErWW6nbdsV'
p405
(dp406
g3
S'Imagine Dragons'
p407
sg5
I3
sg6
S'https://open.spotify.com/track/4izg6Hydc6XGErWW6nbdsV'
p408
sg8
S'Whatever It Takes'
p409
ssS'783vFwxaUzpGYAOEcGok9w'
p410
(dp411
g3
S'Jul'
p412
sg5
I21
sg6
S'https://open.spotify.com/track/783vFwxaUzpGYAOEcGok9w'
p413
sg8
S"Elle et l'autre"
p414
ssS'1v1xEVIe3FWvFKalzBtKNO'
p415
(dp416
g3
S'SCH'
p417
sg5
I2
sg6
S'https://open.spotify.com/track/1v1xEVIe3FWvFKalzBtKNO'
p418
sg8
S'Allez leur dire'
p419
ssS'0Nhu3zSYbEz32IYiobV75e'
p420
(dp421
g3
S'Halsey'
p422
sg5
I5
sg6
S'https://open.spotify.com/track/0Nhu3zSYbEz32IYiobV75e'
p423
sg8
S'Now Or Never'
p424
ssS'4nNqcuufJv09PS4AM5RcO4'
p425
(dp426
g3
S'Mister V'
p427
sg5
I3
sg6
S'https://open.spotify.com/track/4nNqcuufJv09PS4AM5RcO4'
p428
sg8
S'Th\xc3\xa9rapie'
p429
ssS'0zCfmceT1YvtZXGbR6Roht'
p430
(dp431
g3
S'La La Land Cast'
p432
sg5
I7
sg6
S'https://open.spotify.com/track/0zCfmceT1YvtZXGbR6Roht'
p433
sg8
S'Another Day Of Sun - From La La Land Soundtrack'
p434
ssS'1a5Yu5L18qNxVhXx38njON'
p435
(dp436
g3
S'Alok'
p437
sg5
I30
sg6
S'https://open.spotify.com/track/1a5Yu5L18qNxVhXx38njON'
p438
sg8
S'Hear Me Now'
p439
ssS'1Eck97uRMlprKOOJN9oO1E'
p440
(dp441
g3
S'G-Eazy'
p442
sg5
I16
sg6
S'https://open.spotify.com/track/1Eck97uRMlprKOOJN9oO1E'
p443
sg8
S'Good Life (with G-Eazy & Kehlani)'
p444
ssS'6FK7DCwcQWWWG9VAT6ZGvz'
p445
(dp446
g3
S'Boostee'
p447
sg5
I26
sg6
S'https://open.spotify.com/track/6FK7DCwcQWWWG9VAT6ZGvz'
p448
sg8
S'Pop Corn'
p449
ssS'0y1QJc3SJVPKJ1OvFmFqe6'
p450
(dp451
g3
S'Kaleo'
p452
sg5
I27
sg6
S'https://open.spotify.com/track/0y1QJc3SJVPKJ1OvFmFqe6'
p453
sg8
S'Way Down We Go'
p454
ssS'2dfqS3MRtbLZSZA1IL8xY5'
p455
(dp456
g3
S'Drake'
p457
sg5
I1
sg6
S'https://open.spotify.com/track/2dfqS3MRtbLZSZA1IL8xY5'
p458
sg8
S'Skepta Interlude'
p459
ssS'1sCxVKWImDZSZKvG0U9B23'
p460
(dp461
g3
S'Selena Gomez'
p462
sg5
I12
sg6
S'https://open.spotify.com/track/1sCxVKWImDZSZKvG0U9B23'
p463
sg8
S'Bad Liar'
p464
ssS'6jmngk8Fwup05JZ6kgXEGX'
p465
(dp466
g3
S'Imagine Dragons'
p467
sg5
I1
sg6
S'https://open.spotify.com/track/6jmngk8Fwup05JZ6kgXEGX'
p468
sg8
S'Walking The Wire'
p469
ssS'3p15ez0wD7UMS5pdMlVNMQ'
p470
(dp471
g3
S'Bigflo & Oli'
p472
sg5
I1
sg6
S'https://open.spotify.com/track/3p15ez0wD7UMS5pdMlVNMQ'
p473
sg8
S'R\xc3\xa9pondez-moi'
p474
ssS'5cHDsgGQ9KyHbRkMsOVjZN'
p475
(dp476
g3
S'Naza'
p477
sg5
I2
sg6
S'https://open.spotify.com/track/5cHDsgGQ9KyHbRkMsOVjZN'
p478
sg8
S'\xc3\x80 gogo'
p479
ssS'0JeQXP1wCcSp4PNqtUCeYd'
p480
(dp481
g3
S'Sofiane'
p482
sg5
I2
sg6
S'https://open.spotify.com/track/0JeQXP1wCcSp4PNqtUCeYd'
p483
sg8
S'Fais le mouv'
p484
ssS'6QfPyKRfSQBb3ccajHioEm'
p485
(dp486
g3
S"L'Alg\xc3\xa9rino"
p487
sg5
I19
sg6
S'https://open.spotify.com/track/6QfPyKRfSQBb3ccajHioEm'
p488
sg8
S'Les menottes (Tching Tchang Tchong)'
p489
ssS'0eG7DhBJ01VoalsawSq7Pe'
p490
(dp491
g3
S'Sofiane'
p492
sg5
I3
sg6
S'https://open.spotify.com/track/0eG7DhBJ01VoalsawSq7Pe'
p493
sg8
S'Un boulot s\xc3\xa9rieux'
p494
ssS'1OYlOIc7UdRBe1daHclsRU'
p495
(dp496
g3
S'Bigflo & Oli'
p497
sg5
I15
sg6
S'https://open.spotify.com/track/1OYlOIc7UdRBe1daHclsRU'
p498
sg8
S'Personne'
p499
ssS'7BCZh8tgdw8HuUsvqlNBDR'
p500
(dp501
g3
S'Bigflo & Oli'
p502
sg5
I16
sg6
S'https://open.spotify.com/track/7BCZh8tgdw8HuUsvqlNBDR'
p503
sg8
S'Alors alors'
p504
ssS'3VdDQkNCQKPAL4nZlFKWlN'
p505
(dp506
g3
S'Benash'
p507
sg5
I32
sg6
S'https://open.spotify.com/track/3VdDQkNCQKPAL4nZlFKWlN'
p508
sg8
S'Ghetto'
p509
ssS'7xyyjOyiYVJCT3CmJl7HwW'
p510
(dp511
g3
S'Nekfeu'
p512
sg5
I4
sg6
S'https://open.spotify.com/track/7xyyjOyiYVJCT3CmJl7HwW'
p513
sg8
S'Ma dope'
p514
ssS'1rIKgCH4H52lrvDcz50hS8'
p515
(dp516
g3
S'Zara Larsson'
p517
sg5
I15
sg6
S'https://open.spotify.com/track/1rIKgCH4H52lrvDcz50hS8'
p518
sg8
S'Lush Life'
p519
ssS'76gUmNLXGQVOsGhfcshkFP'
p520
(dp521
g3
S'Drake'
p522
sg5
I2
sg6
S'https://open.spotify.com/track/76gUmNLXGQVOsGhfcshkFP'
p523
sg8
S'Madiba Riddim'
p524
ssS'33D0gcO0I4AOeQR2TNyI0Q'
p525
(dp526
g3
S'Jul'
p527
sg5
I2
sg6
S'https://open.spotify.com/track/33D0gcO0I4AOeQR2TNyI0Q'
p528
sg8
S'\xc3\x80 la cit\xc3\xa9'
p529
ssS'5Qi8m2oYaWVMn9DPREHwg7'
p530
(dp531
g3
S'Vald'
p532
sg5
I1
sg6
S'https://open.spotify.com/track/5Qi8m2oYaWVMn9DPREHwg7'
p533
sg8
S'Lezarman'
p534
ssS'6NOBQsQ2TsAK8ieuFEB0O6'
p535
(dp536
g3
S'Lacrim'
p537
sg5
I19
sg6
S'https://open.spotify.com/track/6NOBQsQ2TsAK8ieuFEB0O6'
p538
sg8
S'Tra\xc3\xaetres'
p539
ssS'4hkaPHXpf0QyuEuitgvWMI'
p540
(dp541
g3
S'Lacrim'
p542
sg5
I4
sg6
S'https://open.spotify.com/track/4hkaPHXpf0QyuEuitgvWMI'
p543
sg8
S'Laisse-les'
p544
ssS'3EfugazgSddQvzZpkof5I4'
p545
(dp546
g3
S'Anne-Marie'
p547
sg5
I4
sg6
S'https://open.spotify.com/track/3EfugazgSddQvzZpkof5I4'
p548
sg8
S'Ciao Adios'
p549
ssS'4WrS6vezaPwOafKJmHqMEU'
p550
(dp551
g3
S'Jax Jones'
p552
sg5
I1
sg6
S'https://open.spotify.com/track/4WrS6vezaPwOafKJmHqMEU'
p553
sg8
S"You Don't Know Me - Radio Edit"
p554
ssS'4Vg5DX38XeHrWXcE22DMNg'
p555
(dp556
g3
S'Sneazzy'
p557
sg5
I2
sg6
S'https://open.spotify.com/track/4Vg5DX38XeHrWXcE22DMNg'
p558
sg8
S'Ouais mec - Remix'
p559
ssS'4OZEu0Vwq0RB2LAq14v99n'
p560
(dp561
g3
S'DJ Snake'
p562
sg5
I2
sg6
S'https://open.spotify.com/track/4OZEu0Vwq0RB2LAq14v99n'
p563
sg8
S'Middle'
p564
ssS'5aGgUjJN0WTk5ntN8KIpHr'
p565
(dp566
g3
S'Sadek'
p567
sg5
I1
sg6
S'https://open.spotify.com/track/5aGgUjJN0WTk5ntN8KIpHr'
p568
sg8
S'Bender'
p569
ssS'1A3qfWiRfw0q5o549PsWI4'
p570
(dp571
g3
S'Djadja & Dinaz'
p572
sg5
I4
sg6
S'https://open.spotify.com/track/1A3qfWiRfw0q5o549PsWI4'
p573
sg8
S'Seuls'
p574
ssS'7129iqBafaphfc3WPCGC0L'
p575
(dp576
g3
S'Lukas Graham'
p577
sg5
I2
sg6
S'https://open.spotify.com/track/7129iqBafaphfc3WPCGC0L'
p578
sg8
S'7 Years'
p579
ssS'4WjH9Bzt3kx7z8kl0awxh4'
p580
(dp581
g3
S'Major Lazer'
p582
sg5
I23
sg6
S'https://open.spotify.com/track/4WjH9Bzt3kx7z8kl0awxh4'
p583
sg8
S'Lean On (feat. M\xc3\x98 & DJ Snake)'
p584
ssS'5YIbA6i8pPUnl6CDpVDa63'
p585
(dp586
g3
S'Dadju'
p587
sg5
I19
sg6
S'https://open.spotify.com/track/5YIbA6i8pPUnl6CDpVDa63'
p588
sg8
S'Reine'
p589
ssS'43jBqV3j3Xi1g6wO0bhIMd'
p590
(dp591
g3
S'Sage The Gemini'
p592
sg5
I14
sg6
S'https://open.spotify.com/track/43jBqV3j3Xi1g6wO0bhIMd'
p593
sg8
S'Now and Later'
p594
ssS'31J8vqtOHXRJ8rtWwQKLw3'
p595
(dp596
g3
S'Booba'
p597
sg5
I12
sg6
S'https://open.spotify.com/track/31J8vqtOHXRJ8rtWwQKLw3'
p598
sg8
S'92i veyron'
p599
ssS'6ymKsfbFtQ12mmPJxPAamb'
p600
(dp601
g3
S'SCH'
p602
sg5
I13
sg6
S'https://open.spotify.com/track/6ymKsfbFtQ12mmPJxPAamb'
p603
sg8
S'Poup\xc3\xa9e russe'
p604
ssS'4S6mzEdM0c3QqQ0NFFm1aF'
p605
(dp606
g3
S'SIYYU'
p607
sg5
I2
sg6
S'https://open.spotify.com/track/4S6mzEdM0c3QqQ0NFFm1aF'
p608
sg8
S'Stop Us - Radio Edit'
p609
ssS'4WUbYhJVQST876O0p93SnI'
p610
(dp611
g3
S'Bigflo & Oli'
p612
sg5
I2
sg6
S'https://open.spotify.com/track/4WUbYhJVQST876O0p93SnI'
p613
sg8
S'Trop tard'
p614
ssS'1wxBP4KwMN2UyMJc6S0GJn'
p615
(dp616
g3
S'Naza'
p617
sg5
I7
sg6
S'https://open.spotify.com/track/1wxBP4KwMN2UyMJc6S0GJn'
p618
sg8
S'A Gogo'
p619
ssS'6J4VvZ3pIit9KgFtUDniwm'
p620
(dp621
g3
S'Nekfeu'
p622
sg5
I12
sg6
S'https://open.spotify.com/track/6J4VvZ3pIit9KgFtUDniwm'
p623
sg8
S'Nekketsu'
p624
ssS'0YNT9xdxyw6FW6jynbMJnT'
p625
(dp626
g3
S'Djadja & Dinaz'
p627
sg5
I4
sg6
S'https://open.spotify.com/track/0YNT9xdxyw6FW6jynbMJnT'
p628
sg8
S'En vrai'
p629
ssS'1xGAcy4F06Cp5m7AebsEBV'
p630
(dp631
g3
S'Sneazzy'
p632
sg5
I1
sg6
S'https://open.spotify.com/track/1xGAcy4F06Cp5m7AebsEBV'
p633
sg8
S'30040'
p634
ssS'2D5HeB7Arf6IwCQCdoPBqE'
p635
(dp636
g3
S'Dosseh'
p637
sg5
I2
sg6
S'https://open.spotify.com/track/2D5HeB7Arf6IwCQCdoPBqE'
p638
sg8
S'25 d\xc3\xa9cembre'
p639
ssS'0ban5QRXUveaKtQPGuaoQ9'
p640
(dp641
g3
S'Kaaris'
p642
sg5
I31
sg6
S'https://open.spotify.com/track/0ban5QRXUveaKtQPGuaoQ9'
p643
sg8
S'Tchoin'
p644
ssS'6SIBuEtE0UX6YtndMuWjnX'
p645
(dp646
g3
S'Sofiane'
p647
sg5
I1
sg6
S'https://open.spotify.com/track/6SIBuEtE0UX6YtndMuWjnX'
p648
sg8
S"Bois d'argent"
p649
ssS'3jmcH98bqXQ97Kr53Lf9wh'
p650
(dp651
g3
S'Hayce Lemsi'
p652
sg5
I1
sg6
S'https://open.spotify.com/track/3jmcH98bqXQ97Kr53Lf9wh'
p653
sg8
S"C'est termin\xc3\xa9"
p654
ssS'0gb1J5UrTpzaU1s3nupgCd'
p655
(dp656
g3
S'Galantis'
p657
sg5
I2
sg6
S'https://open.spotify.com/track/0gb1J5UrTpzaU1s3nupgCd'
p658
sg8
S'No Money'
p659
ssS'2bXZOEsrwG5jTyULfSWFXT'
p660
(dp661
g3
S'Sofiane'
p662
sg5
I1
sg6
S'https://open.spotify.com/track/2bXZOEsrwG5jTyULfSWFXT'
p663
sg8
S'Le bruit des blocks'
p664
ssS'3v62aB4lMn6roGgG8Qbz5z'
p665
(dp666
g3
S'Siboy'
p667
sg5
I1
sg6
S'https://open.spotify.com/track/3v62aB4lMn6roGgG8Qbz5z'
p668
sg8
S'BQC'
p669
ssS'3nnxxoByJdFYR0TYHghqli'
p670
(dp671
g3
S'Ash Kidd'
p672
sg5
I2
sg6
S'https://open.spotify.com/track/3nnxxoByJdFYR0TYHghqli'
p673
sg8
S'Lolita'
p674
ssS'3ltgJH3QyXssSktzngCsHM'
p675
(dp676
g3
S'DTF'
p677
sg5
I3
sg6
S'https://open.spotify.com/track/3ltgJH3QyXssSktzngCsHM'
p678
sg8
S'Comme un fou'
p679
ssS'2eMwDehkIC1j68U6FA3Eiq'
p680
(dp681
g3
S'Lil Uzi Vert'
p682
sg5
I18
sg6
S'https://open.spotify.com/track/2eMwDehkIC1j68U6FA3Eiq'
p683
sg8
S'XO TOUR Llif3'
p684
ssS'3ACvYZqgoP36dURFeovOR8'
p685
(dp686
g3
S'Booba'
p687
sg5
I14
sg6
S'https://open.spotify.com/track/3ACvYZqgoP36dURFeovOR8'
p688
sg8
S'Nougat'
p689
ssS'2om7S1vVngM5vDO6tLufdj'
p690
(dp691
g3
S'Lacrim'
p692
sg5
I6
sg6
S'https://open.spotify.com/track/2om7S1vVngM5vDO6tLufdj'
p693
sg8
S'20 bouteilles'
p694
ssS'73QGBWARE8X8sx2gO22oEF'
p695
(dp696
g3
S'Niro'
p697
sg5
I1
sg6
S'https://open.spotify.com/track/73QGBWARE8X8sx2gO22oEF'
p698
sg8
S'Blas\xc3\xa9'
p699
ssS'2KklXplRtxMsBYo474Es0w'
p700
(dp701
g3
S'Ofenbach'
p702
sg5
I39
sg6
S'https://open.spotify.com/track/2KklXplRtxMsBYo474Es0w'
p703
sg8
S'Be Mine'
p704
ssS'4HvYhaXDmmAW6ZmPcgPZca'
p705
(dp706
g3
S'Damso'
p707
sg5
I24
sg6
S'https://open.spotify.com/track/4HvYhaXDmmAW6ZmPcgPZca'
p708
sg8
S'B. #QuedusaalVie'
p709
ssS'3aLSrx8qhssXrh5yjB6oy9'
p710
(dp711
g3
S'Martin Solveig'
p712
sg5
I13
sg6
S'https://open.spotify.com/track/3aLSrx8qhssXrh5yjB6oy9'
p713
sg8
S'All Stars'
p714
ssS'3CRDbSIZ4r5MsZ0YwxuEkn'
p715
(dp716
g3
S'Twenty One Pilots'
p717
sg5
I10
sg6
S'https://open.spotify.com/track/3CRDbSIZ4r5MsZ0YwxuEkn'
p718
sg8
S'Stressed Out'
p719
ssS'7oNsrG4PApB9DlpciKN5DL'
p720
(dp721
g3
S'Vald'
p722
sg5
I2
sg6
S'https://open.spotify.com/track/7oNsrG4PApB9DlpciKN5DL'
p723
sg8
S'L.D.S'
p724
ssS'6mICuAdrwEjh6Y6lroV2Kg'
p725
(dp726
g3
S'Shakira'
p727
sg5
I36
sg6
S'https://open.spotify.com/track/6mICuAdrwEjh6Y6lroV2Kg'
p728
sg8
S'Chantaje'
p729
ssS'1p9uW64G3nNcO9bow0OaCF'
p730
(dp731
g3
S'Mc Solaar'
p732
sg5
I1
sg6
S'https://open.spotify.com/track/1p9uW64G3nNcO9bow0OaCF'
p733
sg8
S'Sonotone'
p734
ssS'2pnPe4pJtq7689i5ydzvJJ'
p735
(dp736
g3
S'Chuck Berry'
p737
sg5
I1
sg6
S'https://open.spotify.com/track/2pnPe4pJtq7689i5ydzvJJ'
p738
sg8
S'Run Rudolph Run - Single Version'
p739
ssS'1WC5UN1U79gJlxGLYDGIO7'
p740
(dp741
g3
S'Lorde'
p742
sg5
I1
sg6
S'https://open.spotify.com/track/1WC5UN1U79gJlxGLYDGIO7'
p743
sg8
S'Green Light'
p744
ssS'6WgQjBNpjnEJbOKAa0OMpY'
p745
(dp746
g3
S'PNL'
p747
sg5
I12
sg6
S'https://open.spotify.com/track/6WgQjBNpjnEJbOKAa0OMpY'
p748
sg8
S'Luz de Luna'
p749
ssS'2KkD7TsSOHyG8sXdhLkTf8'
p750
(dp751
g3
S'SCH'
p752
sg5
I21
sg6
S'https://open.spotify.com/track/2KkD7TsSOHyG8sXdhLkTf8'
p753
sg8
S'MAC 11'
p754
ssS'7gHs73wELdeycvS48JfIos'
p755
(dp756
g3
S'Alan Walker'
p757
sg5
I2
sg6
S'https://open.spotify.com/track/7gHs73wELdeycvS48JfIos'
p758
sg8
S'Faded'
p759
ssS'7q3GmHqkqe8ZYNpXAVnBNy'
p760
(dp761
g3
S'Sneazzy'
p762
sg5
I4
sg6
S'https://open.spotify.com/track/7q3GmHqkqe8ZYNpXAVnBNy'
p763
sg8
S'N17'
p764
ssS'7sDshqjhKiysLt5gcXYoLo'
p765
(dp766
g3
S'Bigflo & Oli'
p767
sg5
I10
sg6
S'https://open.spotify.com/track/7sDshqjhKiysLt5gcXYoLo'
p768
sg8
S'Dommage'
p769
ssS'1VMzUdvcXd31PVidLStoX8'
p770
(dp771
g3
S'Jul'
p772
sg5
I1
sg6
S'https://open.spotify.com/track/1VMzUdvcXd31PVidLStoX8'
p773
sg8
S'Comment te dire'
p774
ssS'3UJVVnKnkwPUBJOdpH8GB1'
p775
(dp776
g3
S'Lacrim'
p777
sg5
I4
sg6
S'https://open.spotify.com/track/3UJVVnKnkwPUBJOdpH8GB1'
p778
sg8
S'\xc3\x87a paie pas'
p779
ssS'00lNx0OcTJrS3MKHcB80HY'
p780
(dp781
g3
S'Jax Jones'
p782
sg5
I24
sg6
S'https://open.spotify.com/track/00lNx0OcTJrS3MKHcB80HY'
p783
sg8
S"You Don't Know Me - Radio Edit"
p784
ssS'4yH268AmzuUE8dwtaJYWcz'
p785
(dp786
g3
S'Kalash Criminel'
p787
sg5
I1
sg6
S'https://open.spotify.com/track/4yH268AmzuUE8dwtaJYWcz'
p788
sg8
S'Nada'
p789
ssS'5XhSe6CaVGrQhEw5YlSPCN'
p790
(dp791
g3
S'Jul'
p792
sg5
I1
sg6
S'https://open.spotify.com/track/5XhSe6CaVGrQhEw5YlSPCN'
p793
sg8
S'La zone'
p794
ssS'0Jl9rd0LX2xrZFPEpRYWAT'
p795
(dp796
g3
S'Naza'
p797
sg5
I2
sg6
S'https://open.spotify.com/track/0Jl9rd0LX2xrZFPEpRYWAT'
p798
sg8
S'MMM'
p799
ssS'4nDfc6F2uVcc6wdG7kBzWO'
p800
(dp801
g3
S'Nick Jonas'
p802
sg5
I2
sg6
S'https://open.spotify.com/track/4nDfc6F2uVcc6wdG7kBzWO'
p803
sg8
S'Bom Bidi Bom - From Fifty Shades Darker (Original Motion Picture Soundtrack)'
p804
ssS'2SYzK3AXKXPk4bh3hWrmQb'
p805
(dp806
g3
S'Hayce Lemsi'
p807
sg5
I1
sg6
S'https://open.spotify.com/track/2SYzK3AXKXPk4bh3hWrmQb'
p808
sg8
S'Week-end'
p809
ssS'0fg8CqpjdojMyXLNzM2PaJ'
p810
(dp811
g3
S'Major Lazer'
p812
sg5
I24
sg6
S'https://open.spotify.com/track/0fg8CqpjdojMyXLNzM2PaJ'
p813
sg8
S'Run Up (feat. PARTYNEXTDOOR & Nicki Minaj)'
p814
ssS'7syABtsvHvD3nO7OG91Ani'
p815
(dp816
g3
S'Sofiane'
p817
sg5
I34
sg6
S'https://open.spotify.com/track/7syABtsvHvD3nO7OG91Ani'
p818
sg8
S"Tout l'monde s'en fout"
p819
ssS'57cqTftDWbUEPhGXbDigZu'
p820
(dp821
g3
S'Niska'
p822
sg5
I3
sg6
S'https://open.spotify.com/track/57cqTftDWbUEPhGXbDigZu'
p823
sg8
S'Snapchat'
p824
ssS'2wrZjqv0XwQ6OfaEsgw88X'
p825
(dp826
g3
S'Vald'
p827
sg5
I2
sg6
S'https://open.spotify.com/track/2wrZjqv0XwQ6OfaEsgw88X'
p828
sg8
S'Eurotrap'
p829
ssS'2G574s0WXP3OQikhX9Gbq6'
p830
(dp831
g3
S'Djadja & Dinaz'
p832
sg5
I2
sg6
S'https://open.spotify.com/track/2G574s0WXP3OQikhX9Gbq6'
p833
sg8
S"Je m'isole"
p834
ssS'52CccjQSCEzwh6TG36OBRK'
p835
(dp836
g3
S'Ma\xc3\xaetre Gims'
p837
sg5
I4
sg6
S'https://open.spotify.com/track/52CccjQSCEzwh6TG36OBRK'
p838
sg8
S'Marabout'
p839
ssS'5CPqOpKSk0QcJ3dGdaWcRB'
p840
(dp841
g3
S'The xx'
p842
sg5
I1
sg6
S'https://open.spotify.com/track/5CPqOpKSk0QcJ3dGdaWcRB'
p843
sg8
S'On Hold'
p844
ssS'1fwAe62bOqiiTq6JwxIyiH'
p845
(dp846
g3
S'SCH'
p847
sg5
I2
sg6
S'https://open.spotify.com/track/1fwAe62bOqiiTq6JwxIyiH'
p848
sg8
S'Day Date'
p849
ssS'24ZqZGoiSeKBYHf10Awj23'
p850
(dp851
g3
S'Vald'
p852
sg5
I15
sg6
S'https://open.spotify.com/track/24ZqZGoiSeKBYHf10Awj23'
p853
sg8
S'Ma meilleure amie'
p854
ssS'1tPUkmsXMDTSdlzCY09yqO'
p855
(dp856
g3
S'Jul'
p857
sg5
I1
sg6
S'https://open.spotify.com/track/1tPUkmsXMDTSdlzCY09yqO'
p858
sg8
S'Lacrizeotiek'
p859
ssS'6QjYpCYTLhpm7MIr7g62tp'
p860
(dp861
g3
S'Columbine'
p862
sg5
I2
sg6
S'https://open.spotify.com/track/6QjYpCYTLhpm7MIr7g62tp'
p863
sg8
S'Temps \xc3\xa9lectrique'
p864
ssS'7GX5flRQZVHRAGd6B4TmDO'
p865
(dp866
g3
S'Lil Uzi Vert'
p867
sg5
I7
sg6
S'https://open.spotify.com/track/7GX5flRQZVHRAGd6B4TmDO'
p868
sg8
S'XO TOUR Llif3'
p869
ssS'5lYncaeq1TmmLvgVglKeq8'
p870
(dp871
g3
S'Hooss'
p872
sg5
I1
sg6
S'https://open.spotify.com/track/5lYncaeq1TmmLvgVglKeq8'
p873
sg8
S'Trop fier'
p874
ssS'4F7A0DXBrmUAkp32uenhZt'
p875
(dp876
g3
S'The Weeknd'
p877
sg5
I1
sg6
S'https://open.spotify.com/track/4F7A0DXBrmUAkp32uenhZt'
p878
sg8
S'Party Monster'
p879
ssS'74uwCAsygJyUBgy09Oi2Fq'
p880
(dp881
g3
S'Lacrim'
p882
sg5
I4
sg6
S'https://open.spotify.com/track/74uwCAsygJyUBgy09Oi2Fq'
p883
sg8
S'Cohiba'
p884
ssS'6NihZMHV5S2w0GdHDSbD7I'
p885
(dp886
g3
S'Alonzo'
p887
sg5
I1
sg6
S'https://open.spotify.com/track/6NihZMHV5S2w0GdHDSbD7I'
p888
sg8
S'Ma famille'
p889
ssS'0CokSRCu5hZgPxcZBaEzVE'
p890
(dp891
g3
S'Macklemore'
p892
sg5
I3
sg6
S'https://open.spotify.com/track/0CokSRCu5hZgPxcZBaEzVE'
p893
sg8
S'Glorious (feat. Skylar Grey)'
p894
ssS'3ksnrZfyto1Ill9E3oDHnh'
p895
(dp896
g3
S'Sofiane'
p897
sg5
I8
sg6
S'https://open.spotify.com/track/3ksnrZfyto1Ill9E3oDHnh'
p898
sg8
S'Marion Mar\xc3\xa9chal'
p899
ssS'2GP3ncrLU8jeyrnLTi9uZ1'
p900
(dp901
g3
S"Keen' V"
p902
sg5
I5
sg6
S'https://open.spotify.com/track/2GP3ncrLU8jeyrnLTi9uZ1'
p903
sg8
S'Elle a'
p904
ssS'69CNBc8diXF0AYfd0fdP6W'
p905
(dp906
g3
S'Hayce Lemsi'
p907
sg5
I1
sg6
S'https://open.spotify.com/track/69CNBc8diXF0AYfd0fdP6W'
p908
sg8
S'Les pieds devant le D'
p909
ssS'38jNFTKjHkV54GdHrDIfv7'
p910
(dp911
g3
S'Sadek'
p912
sg5
I1
sg6
S'https://open.spotify.com/track/38jNFTKjHkV54GdHrDIfv7'
p913
sg8
S'\xc3\x87a va aller'
p914
ssS'7fRn8P0siyE2Xy4VNPWZAx'
p915
(dp916
g3
S'Sofiane'
p917
sg5
I1
sg6
S'https://open.spotify.com/track/7fRn8P0siyE2Xy4VNPWZAx'
p918
sg8
S'Dis-leur'
p919
ssS'7BKLCZ1jbUBVqRi2FVlTVw'
p920
(dp921
g3
S'The Chainsmokers'
p922
sg5
I20
sg6
S'https://open.spotify.com/track/7BKLCZ1jbUBVqRi2FVlTVw'
p923
sg8
S'Closer'
p924
ssS'2XFRVLYfKMK3BmcynvdYt7'
p925
(dp926
g3
S'Naza'
p927
sg5
I1
sg6
S'https://open.spotify.com/track/2XFRVLYfKMK3BmcynvdYt7'
p928
sg8
S'Va chercher - Interlude'
p929
ssS'2hg9CrPl2xXw10gVEsdGQu'
p930
(dp931
g3
S'Jul'
p932
sg5
I3
sg6
S'https://open.spotify.com/track/2hg9CrPl2xXw10gVEsdGQu'
p933
sg8
S"J'ai dit..."
p934
ssS'48HzeAouyKADHTE4xu5ehu'
p935
(dp936
g3
S'Kalash'
p937
sg5
I1
sg6
S'https://open.spotify.com/track/48HzeAouyKADHTE4xu5ehu'
p938
sg8
S'Friendzone'
p939
ssS'6HViP4DVYa8gQtxLndmhwu'
p940
(dp941
g3
S'M\xc3\xb8me'
p942
sg5
I39
sg6
S'https://open.spotify.com/track/6HViP4DVYa8gQtxLndmhwu'
p943
sg8
S'Aloha'
p944
ssS'7hDc8b7IXETo14hHIHdnhd'
p945
(dp946
g3
S'Drake'
p947
sg5
I23
sg6
S'https://open.spotify.com/track/7hDc8b7IXETo14hHIHdnhd'
p948
sg8
S'Passionfruit'
p949
ssS'1W1uzwzodIbtvASQk2Rpjw'
p950
(dp951
g3
S'Benash'
p952
sg5
I3
sg6
S'https://open.spotify.com/track/1W1uzwzodIbtvASQk2Rpjw'
p953
sg8
S'Coco'
p954
ssS'3RiPr603aXAoi4GHyXx0uy'
p955
(dp956
g3
S'Coldplay'
p957
sg5
I2
sg6
S'https://open.spotify.com/track/3RiPr603aXAoi4GHyXx0uy'
p958
sg8
S'Hymn For The Weekend'
p959
ssS'7jCgPNvhv49ndkJWrV6lEh'
p960
(dp961
g3
S'Vald'
p962
sg5
I1
sg6
S'https://open.spotify.com/track/7jCgPNvhv49ndkJWrV6lEh'
p963
sg8
S'Blanc'
p964
ssS'0tICYNayWWhH9GPeFrfjfD'
p965
(dp966
g3
S'Kungs'
p967
sg5
I35
sg6
S'https://open.spotify.com/track/0tICYNayWWhH9GPeFrfjfD'
p968
sg8
S"This Girl (Kungs Vs. Cookin' On 3 Burners) - Kungs Vs. Cookin' On 3 Burners"
p969
ssS'3yHdlt7YQI9ItRTZU8HbgL'
p970
(dp971
g3
S'Timal'
p972
sg5
I12
sg6
S'https://open.spotify.com/track/3yHdlt7YQI9ItRTZU8HbgL'
p973
sg8
S'Vatos'
p974
ssS'3Lfiu5sZ4M4B6JaKMBc0FU'
p975
(dp976
g3
S'Ed Sheeran'
p977
sg5
I2
sg6
S'https://open.spotify.com/track/3Lfiu5sZ4M4B6JaKMBc0FU'
p978
sg8
S'Barcelona'
p979
ssS'2LTlO3NuNVN70lp2ZbVswF'
p980
(dp981
g3
S'Kendrick Lamar'
p982
sg5
I2
sg6
S'https://open.spotify.com/track/2LTlO3NuNVN70lp2ZbVswF'
p983
sg8
S'FEEL.'
p984
ssS'7A3rNO7cmVKM3boOmIBwtj'
p985
(dp986
g3
S'S.Pri Noir'
p987
sg5
I17
sg6
S'https://open.spotify.com/track/7A3rNO7cmVKM3boOmIBwtj'
p988
sg8
S'Highlander'
p989
ssS'6NnZqdCvxAR8xJF5rS4kxS'
p990
(dp991
g3
S'Bigflo & Oli'
p992
sg5
I1
sg6
S'https://open.spotify.com/track/6NnZqdCvxAR8xJF5rS4kxS'
p993
sg8
S'Salope !'
p994
ssS'6y2Kaz9QI01XBKJ8mTb7Pf'
p995
(dp996
g3
S"Rag'n'Bone Man"
p997
sg5
I30
sg6
S'https://open.spotify.com/track/6y2Kaz9QI01XBKJ8mTb7Pf'
p998
sg8
S'Skin'
p999
ssS'5jGuAvPX3Ufo55DIZlCaHq'
p1000
(dp1001
g3
S'Nekfeu'
p1002
sg5
I17
sg6
S'https://open.spotify.com/track/5jGuAvPX3Ufo55DIZlCaHq'
p1003
sg8
S'R\xc3\xa9alit\xc3\xa9 augment\xc3\xa9e'
p1004
ssS'0u6HzAVFUBiKslzPF9G9vd'
p1005
(dp1006
g3
S'Ninho'
p1007
sg5
I33
sg6
S'https://open.spotify.com/track/0u6HzAVFUBiKslzPF9G9vd'
p1008
sg8
S"Dis-moi que tu m'aimes"
p1009
ssS'6we4APMY8dZ2JPkkNWqnWZ'
p1010
(dp1011
g3
S'KeBlack'
p1012
sg5
I11
sg6
S'https://open.spotify.com/track/6we4APMY8dZ2JPkkNWqnWZ'
p1013
sg8
S'Premier \xc3\xa9tage'
p1014
ssS'0XLOf9LhyazPX9Ld8jPiUq'
p1015
(dp1016
g3
S'Selena Gomez'
p1017
sg5
I9
sg6
S'https://open.spotify.com/track/0XLOf9LhyazPX9Ld8jPiUq'
p1018
sg8
S'Fetish (feat. Gucci Mane)'
p1019
ssS'09oOQuMX93fFX8YVSs9fph'
p1020
(dp1021
g3
S'Sofiane'
p1022
sg5
I3
sg6
S'https://open.spotify.com/track/09oOQuMX93fFX8YVSs9fph'
p1023
sg8
S'Ma\xc3\xaetre Ruben'
p1024
ssS'2eAAEa8pxKF7My0EO4rFgR'
p1025
(dp1026
g3
S'Dua Lipa'
p1027
sg5
I1
sg6
S'https://open.spotify.com/track/2eAAEa8pxKF7My0EO4rFgR'
p1028
sg8
S'Blow Your Mind (Mwah)'
p1029
ssS'1yxgsra98r3qAtxqiGZPiX'
p1030
(dp1031
g3
S'Travis Scott'
p1032
sg5
I10
sg6
S'https://open.spotify.com/track/1yxgsra98r3qAtxqiGZPiX'
p1033
sg8
S'Butterfly Effect'
p1034
ssS'2Gzty1Qq6pFPaE6g8NAB3L'
p1035
(dp1036
g3
S'Jul'
p1037
sg5
I3
sg6
S'https://open.spotify.com/track/2Gzty1Qq6pFPaE6g8NAB3L'
p1038
sg8
S'Imagine'
p1039
ssS'2771LMNxwf62FTAdpJMQfM'
p1040
(dp1041
g3
S'Cardi B'
p1042
sg5
I4
sg6
S'https://open.spotify.com/track/2771LMNxwf62FTAdpJMQfM'
p1043
sg8
S'Bodak Yellow'
p1044
ssS'3A7qX2QjDlPnazUsRk5y0M'
p1045
(dp1046
g3
S'David Guetta'
p1047
sg5
I17
sg6
S'https://open.spotify.com/track/3A7qX2QjDlPnazUsRk5y0M'
p1048
sg8
S'2U (feat. Justin Bieber)'
p1049
ssS'7B9TO9Syt0JoFJIQAqtTYJ'
p1050
(dp1051
g3
S'RIDSA'
p1052
sg5
I6
sg6
S'https://open.spotify.com/track/7B9TO9Syt0JoFJIQAqtTYJ'
p1053
sg8
S'Avancer'
p1054
ssS'6A8dnC0xkiuWN4BshmTB2I'
p1055
(dp1056
g3
S'A R I Z O N A'
p1057
sg5
I19
sg6
S'https://open.spotify.com/track/6A8dnC0xkiuWN4BshmTB2I'
p1058
sg8
S'Oceans Away'
p1059
ssS'5ZXmCqIzh9cRaMMfdtHuyZ'
p1060
(dp1061
g3
S'Andrelli'
p1062
sg5
I6
sg6
S'https://open.spotify.com/track/5ZXmCqIzh9cRaMMfdtHuyZ'
p1063
sg8
S'Old Man'
p1064
ssS'04DysC7XwYiKJqYwGM8mkU'
p1065
(dp1066
g3
S'Tess'
p1067
sg5
I21
sg6
S'https://open.spotify.com/track/04DysC7XwYiKJqYwGM8mkU'
p1068
sg8
S'Love Gun - Radio Edit'
p1069
ssS'4fwtP5khM1iEoa6BP1QQsX'
p1070
(dp1071
g3
S'Lartiste'
p1072
sg5
I36
sg6
S'https://open.spotify.com/track/4fwtP5khM1iEoa6BP1QQsX'
p1073
sg8
S'Chocolat (feat. Awa)'
p1074
ssS'56lBX2WHqfGuoeZxZvUnVj'
p1075
(dp1076
g3
S'Imagine Dragons'
p1077
sg5
I3
sg6
S'https://open.spotify.com/track/56lBX2WHqfGuoeZxZvUnVj'
p1078
sg8
S'Thunder'
p1079
ssS'7tnDhHMCHWjwIsbVg7ex9S'
p1080
(dp1081
g3
S'Aya Nakamura'
p1082
sg5
I2
sg6
S'https://open.spotify.com/track/7tnDhHMCHWjwIsbVg7ex9S'
p1083
sg8
S'Oumou Sangar\xc3\xa9'
p1084
ssS'4BDusg7K06bNp5LnaKsWS4'
p1085
(dp1086
g3
S'Hooss'
p1087
sg5
I1
sg6
S'https://open.spotify.com/track/4BDusg7K06bNp5LnaKsWS4'
p1088
sg8
S'Un dernier \xc3\xa9pisode'
p1089
ssS'28irpKCCK9nn9DZSik2zEx'
p1090
(dp1091
g3
S'Drake'
p1092
sg5
I1
sg6
S'https://open.spotify.com/track/28irpKCCK9nn9DZSik2zEx'
p1093
sg8
S'Glow'
p1094
ssS'5JUu0unA8VwhTZ9LkMWUVI'
p1095
(dp1096
g3
S'Drake'
p1097
sg5
I1
sg6
S'https://open.spotify.com/track/5JUu0unA8VwhTZ9LkMWUVI'
p1098
sg8
S'Since Way Back'
p1099
ssS'4IWAyPf1KMq7JCyGeCjTeH'
p1100
(dp1101
g3
S'Imagine Dragons'
p1102
sg5
I5
sg6
S'https://open.spotify.com/track/4IWAyPf1KMq7JCyGeCjTeH'
p1103
sg8
S'Whatever It Takes'
p1104
ssS'46P2kfhXGdwp3OJvl3INXu'
p1105
(dp1106
g3
S'Still Fresh'
p1107
sg5
I12
sg6
S'https://open.spotify.com/track/46P2kfhXGdwp3OJvl3INXu'
p1108
sg8
S'Mon ami'
p1109
ssS'0e5IvZmQgPNHXJOWSRsz5z'
p1110
(dp1111
g3
S'DTF'
p1112
sg5
I1
sg6
S'https://open.spotify.com/track/0e5IvZmQgPNHXJOWSRsz5z'
p1113
sg8
S'All\xc3\xb4 le monde'
p1114
ssS'7l4ND7ih4BMHTa2S65cD8T'
p1115
(dp1116
g3
S'Columbine'
p1117
sg5
I2
sg6
S'https://open.spotify.com/track/7l4ND7ih4BMHTa2S65cD8T'
p1118
sg8
S'R\xc3\xa9mi'
p1119
ssS'0mbT71B8hMCbdKEf3Q1kh8'
p1120
(dp1121
g3
S'Vianney'
p1122
sg5
I17
sg6
S'https://open.spotify.com/track/0mbT71B8hMCbdKEf3Q1kh8'
p1123
sg8
S'Moi aimer Toi'
p1124
ssS'54yeXzsomwfb8BGOLsDfyo'
p1125
(dp1126
g3
S'Niro'
p1127
sg5
I9
sg6
S'https://open.spotify.com/track/54yeXzsomwfb8BGOLsDfyo'
p1128
sg8
S'Printemps blanc'
p1129
ssS'1aHSfe1kTvXVztx8wztJ11'
p1130
(dp1131
g3
S'Bigflo & Oli'
p1132
sg5
I1
sg6
S'https://open.spotify.com/track/1aHSfe1kTvXVztx8wztJ11'
p1133
sg8
S'Personne'
p1134
ssS'7ytDxdzzU0OlLcA56APYUE'
p1135
(dp1136
g3
S'Timal'
p1137
sg5
I3
sg6
S'https://open.spotify.com/track/7ytDxdzzU0OlLcA56APYUE'
p1138
sg8
S'La 6'
p1139
ssS'2pA1oug5Xo7BLEkWSAsO0X'
p1140
(dp1141
g3
S'Sofiane'
p1142
sg5
I6
sg6
S'https://open.spotify.com/track/2pA1oug5Xo7BLEkWSAsO0X'
p1143
sg8
S'Le cercle'
p1144
ssS'6YZdkObH88npeKrrkb8Ggf'
p1145
(dp1146
g3
S'Enrique Iglesias'
p1147
sg5
I1
sg6
S'https://open.spotify.com/track/6YZdkObH88npeKrrkb8Ggf'
p1148
sg8
S'DUELE EL CORAZON'
p1149
ssS'4xyyC9MONeIkqOW67C38kw'
p1150
(dp1151
g3
S'Nekfeu'
p1152
sg5
I11
sg6
S'https://open.spotify.com/track/4xyyC9MONeIkqOW67C38kw'
p1153
sg8
S'Princesse'
p1154
ssS'1uaAq8pSghvpVxlrOrgdeO'
p1155
(dp1156
g3
S'Lomepal'
p1157
sg5
I16
sg6
S'https://open.spotify.com/track/1uaAq8pSghvpVxlrOrgdeO'
p1158
sg8
S'Yeux disent'
p1159
ssS'1b0loCDMFC8WqvUtmELtYm'
p1160
(dp1161
g3
S'Alonzo'
p1162
sg5
I8
sg6
S'https://open.spotify.com/track/1b0loCDMFC8WqvUtmELtYm'
p1163
sg8
S'J\xe2\x80\x99\xc3\xa9cris'
p1164
ssS'1Ylz8QTIwBUbO20z8VJyop'
p1165
(dp1166
g3
S'Naza'
p1167
sg5
I11
sg6
S'https://open.spotify.com/track/1Ylz8QTIwBUbO20z8VJyop'
p1168
sg8
S'MMM'
p1169
ssS'6ADBipUwQIzKBHJaAeh2uK'
p1170
(dp1171
g3
S'Sofiane'
p1172
sg5
I2
sg6
S'https://open.spotify.com/track/6ADBipUwQIzKBHJaAeh2uK'
p1173
sg8
S'Bandit salet\xc3\xa9'
p1174
ssS'0Wv5wuenRLI3BcwgT3HPIP'
p1175
(dp1176
g3
S'DJ Snake'
p1177
sg5
I1
sg6
S'https://open.spotify.com/track/0Wv5wuenRLI3BcwgT3HPIP'
p1178
sg8
S'A Different Way (with Lauv)'
p1179
ssS'2bjwRfXMk4uRgOD9IBYl9h'
p1180
(dp1181
g3
S'Drake'
p1182
sg5
I8
sg6
S'https://open.spotify.com/track/2bjwRfXMk4uRgOD9IBYl9h'
p1183
sg8
S'Portland'
p1184
ssS'0FuTx2s3YH1ppmtiM6l0zI'
p1185
(dp1186
g3
S'JP Cooper'
p1187
sg5
I32
sg6
S'https://open.spotify.com/track/0FuTx2s3YH1ppmtiM6l0zI'
p1188
sg8
S'September Song'
p1189
ssS'0Zbbxnx4SGGHoIow4PpISP'
p1190
(dp1191
g3
S'Kygo'
p1192
sg5
I2
sg6
S'https://open.spotify.com/track/0Zbbxnx4SGGHoIow4PpISP'
p1193
sg8
S'Stargazing'
p1194
ssS'2E681kTbT2vG47YqQJSQgw'
p1195
(dp1196
g3
S'Jul'
p1197
sg5
I8
sg6
S'https://open.spotify.com/track/2E681kTbT2vG47YqQJSQgw'
p1198
sg8
S"C'est le son de la gratte"
p1199
ssS'33B2QbtAj8mbDpwvGTOnBt'
p1200
(dp1201
g3
S'The xx'
p1202
sg5
I1
sg6
S'https://open.spotify.com/track/33B2QbtAj8mbDpwvGTOnBt'
p1203
sg8
S'Dangerous'
p1204
ssS'0azC730Exh71aQlOt9Zj3y'
p1205
(dp1206
g3
S'Calvin Harris'
p1207
sg5
I5
sg6
S'https://open.spotify.com/track/0azC730Exh71aQlOt9Zj3y'
p1208
sg8
S'This Is What You Came For'
p1209
ssS'2Gl0FzuLxflY6nPifJp5Dr'
p1210
(dp1211
g3
S'Kygo'
p1212
sg5
I21
sg6
S'https://open.spotify.com/track/2Gl0FzuLxflY6nPifJp5Dr'
p1213
sg8
S'First Time'
p1214
ssS'3YzGMvmhNXzeIAI6GwXkQT'
p1215
(dp1216
g3
S'Hamza'
p1217
sg5
I1
sg6
S'https://open.spotify.com/track/3YzGMvmhNXzeIAI6GwXkQT'
p1218
sg8
S'Vibes'
p1219
ssS'7i2DJ88J7jQ8K7zqFX2fW8'
p1220
(dp1221
g3
S'Halsey'
p1222
sg5
I2
sg6
S'https://open.spotify.com/track/7i2DJ88J7jQ8K7zqFX2fW8'
p1223
sg8
S'Now Or Never'
p1224
ssS'0IrzlAmB2W08MZynOctOhI'
p1225
(dp1226
g3
S'Ninho'
p1227
sg5
I5
sg6
S'https://open.spotify.com/track/0IrzlAmB2W08MZynOctOhI'
p1228
sg8
S'HLM ou Palace'
p1229
ssS'3p4bezMTUHn0u1D8C1uJrz'
p1230
(dp1231
g3
S'Ninho'
p1232
sg5
I5
sg6
S'https://open.spotify.com/track/3p4bezMTUHn0u1D8C1uJrz'
p1233
sg8
S'Chino'
p1234
ssS'78DktVruMrKYyv6rjdKDMM'
p1235
(dp1236
g3
S'Ninho'
p1237
sg5
I5
sg6
S'https://open.spotify.com/track/78DktVruMrKYyv6rjdKDMM'
p1238
sg8
S"Elle m'a eu"
p1239
ssS'5sNESr6pQfIhL3krM8CtZn'
p1240
(dp1241
g3
S'JAY Z'
p1242
sg5
I1
sg6
S'https://open.spotify.com/track/5sNESr6pQfIhL3krM8CtZn'
p1243
sg8
S'Numb / Encore'
p1244
ssS'0wHnH26dEP4HLFTgC1rFM0'
p1245
(dp1246
g3
S'Siboy'
p1247
sg5
I5
sg6
S'https://open.spotify.com/track/0wHnH26dEP4HLFTgC1rFM0'
p1248
sg8
S'Mula'
p1249
ssS'68EMU2RD1ECNeOeJ5qAXCV'
p1250
(dp1251
g3
S'Charlie Puth'
p1252
sg5
I7
sg6
S'https://open.spotify.com/track/68EMU2RD1ECNeOeJ5qAXCV'
p1253
sg8
S"We Don't Talk Anymore (feat. Selena Gomez)"
p1254
ssS'1Hh7lmgMPztFdclycpru3u'
p1255
(dp1256
g3
S'Damso'
p1257
sg5
I1
sg6
S'https://open.spotify.com/track/1Hh7lmgMPztFdclycpru3u'
p1258
sg8
S'P\xc3\xa9riscope'
p1259
ssS'127LVxx0WkxbCcZqp2LAEY'
p1260
(dp1261
g3
S'Jul'
p1262
sg5
I5
sg6
S'https://open.spotify.com/track/127LVxx0WkxbCcZqp2LAEY'
p1263
sg8
S'Mon bijou'
p1264
ssS'4zUK2F46GuIjAA0mmlTKJh'
p1265
(dp1266
g3
S'SCH'
p1267
sg5
I2
sg6
S'https://open.spotify.com/track/4zUK2F46GuIjAA0mmlTKJh'
p1268
sg8
S'Ca va'
p1269
ssS'04CttTezSnv71USiiG9mIo'
p1270
(dp1271
g3
S'Hearts & Colors'
p1272
sg5
I4
sg6
S'https://open.spotify.com/track/04CttTezSnv71USiiG9mIo'
p1273
sg8
S'Lighthouse - Andrelli Remix'
p1274
ssS'15WefT50EMUmlyvHYF3g9E'
p1275
(dp1276
g3
S'KeBlack'
p1277
sg5
I1
sg6
S'https://open.spotify.com/track/15WefT50EMUmlyvHYF3g9E'
p1278
sg8
S'Walou'
p1279
ssS'1j4kHkkpqZRBwE0A4CN4Yv'
p1280
(dp1281
g3
S'ZAYN'
p1282
sg5
I5
sg6
S'https://open.spotify.com/track/1j4kHkkpqZRBwE0A4CN4Yv'
p1283
sg8
S'Dusk Till Dawn - Radio Edit'
p1284
ssS'6TmLzC7dbkrWnh0bWXSpyq'
p1285
(dp1286
g3
S'4Keus Gang'
p1287
sg5
I2
sg6
S'https://open.spotify.com/track/6TmLzC7dbkrWnh0bWXSpyq'
p1288
sg8
S"O'KCLH"
p1289
ssS'1MgULrPuG7Jnrtonwx3nYT'
p1290
(dp1291
g3
S'Niro'
p1292
sg5
I1
sg6
S'https://open.spotify.com/track/1MgULrPuG7Jnrtonwx3nYT'
p1293
sg8
S'Oxymore'
p1294
ssS'0ndln0GEXxhuwj3sVzFqXO'
p1295
(dp1296
g3
S'Joyce Jonathan'
p1297
sg5
I5
sg6
S'https://open.spotify.com/track/0ndln0GEXxhuwj3sVzFqXO'
p1298
sg8
S"Les filles d'aujourd'hui"
p1299
ssS'2mFVt6vCOcR71lw3kY2UZB'
p1300
(dp1301
g3
S'Major Lazer'
p1302
sg5
I3
sg6
S'https://open.spotify.com/track/2mFVt6vCOcR71lw3kY2UZB'
p1303
sg8
S'Believer'
p1304
ssS'3v5HQspaJPr793AQnko3zR'
p1305
(dp1306
g3
S'Vald'
p1307
sg5
I1
sg6
S'https://open.spotify.com/track/3v5HQspaJPr793AQnko3zR'
p1308
sg8
S'Dernier verre'
p1309
ssS'4VuS959DSpr82t3qBqCrWG'
p1310
(dp1311
g3
S'Ed Sheeran'
p1312
sg5
I2
sg6
S'https://open.spotify.com/track/4VuS959DSpr82t3qBqCrWG'
p1313
sg8
S'Supermarket Flowers'
p1314
ssS'0v2VrMs9NIBtn54MKuDN7x'
p1315
(dp1316
g3
S'DTF'
p1317
sg5
I1
sg6
S'https://open.spotify.com/track/0v2VrMs9NIBtn54MKuDN7x'
p1318
sg8
S'La Vida'
p1319
ssS'3MXqRQSTzoLGxEFsssuJat'
p1320
(dp1321
g3
S'Hooss'
p1322
sg5
I1
sg6
S'https://open.spotify.com/track/3MXqRQSTzoLGxEFsssuJat'
p1323
sg8
S'\xc3\x80 50'
p1324
ssS'18ZQtwHl6ni4lZyocy6Ohr'
p1325
(dp1326
g3
S'Djadja & Dinaz'
p1327
sg5
I3
sg6
S'https://open.spotify.com/track/18ZQtwHl6ni4lZyocy6Ohr'
p1328
sg8
S'Avant'
p1329
ssS'1WOmEg42Mgaz1nRimIMR9C'
p1330
(dp1331
g3
S'Justin Hurwitz'
p1332
sg5
I1
sg6
S'https://open.spotify.com/track/1WOmEg42Mgaz1nRimIMR9C'
p1333
sg8
S'Epilogue - From La La Land Soundtrack'
p1334
ssS'0XAWxj1BLg9TPV7ToWecz7'
p1335
(dp1336
g3
S'DTF'
p1337
sg5
I1
sg6
S'https://open.spotify.com/track/0XAWxj1BLg9TPV7ToWecz7'
p1338
sg8
S'Le ciel est la limite'
p1339
ssS'1ssmjAYSU5PbmsjLq5yrNH'
p1340
(dp1341
g3
S'Sia'
p1342
sg5
I19
sg6
S'https://open.spotify.com/track/1ssmjAYSU5PbmsjLq5yrNH'
p1343
sg8
S'Never Give Up'
p1344
ssS'0Zx8khUcEfCFK2AEoIhC92'
p1345
(dp1346
g3
S'Snakehips'
p1347
sg5
I7
sg6
S'https://open.spotify.com/track/0Zx8khUcEfCFK2AEoIhC92'
p1348
sg8
S"Don't Leave"
p1349
ssS'1jCnQf9BhMMnIvq8ETzFry'
p1350
(dp1351
g3
S'Medine'
p1352
sg5
I12
sg6
S'https://open.spotify.com/track/1jCnQf9BhMMnIvq8ETzFry'
p1353
sg8
S'Grand Paris'
p1354
ssS'4kfm1uI9QGaoN9qm6CkAMn'
p1355
(dp1356
g3
S'Linkin Park'
p1357
sg5
I1
sg6
S'https://open.spotify.com/track/4kfm1uI9QGaoN9qm6CkAMn'
p1358
sg8
S"What I've Done"
p1359
ssS'5NzJgXBqfU78RFnjmv99xr'
p1360
(dp1361
g3
S'Sadek'
p1362
sg5
I2
sg6
S'https://open.spotify.com/track/5NzJgXBqfU78RFnjmv99xr'
p1363
sg8
S'Maladie'
p1364
ssS'2UZW9WOPXdxw9YMG1bebS8'
p1365
(dp1366
g3
S'Damso'
p1367
sg5
I24
sg6
S'https://open.spotify.com/track/2UZW9WOPXdxw9YMG1bebS8'
p1368
sg8
S'\xce\x98. Macarena'
p1369
ssS'6t0YWXFvlbx0Blh7FuyCje'
p1370
(dp1371
g3
S'Naps'
p1372
sg5
I4
sg6
S'https://open.spotify.com/track/6t0YWXFvlbx0Blh7FuyCje'
p1373
sg8
S"Elle t'a piqu\xc3\xa9"
p1374
ssS'1mmOcSVsxfbXm72XkvwEhK'
p1375
(dp1376
g3
S'PNL'
p1377
sg5
I1
sg6
S'https://open.spotify.com/track/1mmOcSVsxfbXm72XkvwEhK'
p1378
sg8
S'Oh lala'
p1379
ssS'6n3HGiq4v35D6eFOSwqYuo'
p1380
(dp1381
g3
S'Drake'
p1382
sg5
I2
sg6
S'https://open.spotify.com/track/6n3HGiq4v35D6eFOSwqYuo'
p1383
sg8
S'Teenage Fever'
p1384
ssS'5IFsFwlVkt6uzlAVkOOKk3'
p1385
(dp1386
g3
S'Ella Fitzgerald'
p1387
sg5
I1
sg6
S'https://open.spotify.com/track/5IFsFwlVkt6uzlAVkOOKk3'
p1388
sg8
S'Let It Snow! Let It Snow! Let It Snow!'
p1389
ssS'61WbtB6ujkpNAsAf5LjF4b'
p1390
(dp1391
g3
S'Katy Perry'
p1392
sg5
I14
sg6
S'https://open.spotify.com/track/61WbtB6ujkpNAsAf5LjF4b'
p1393
sg8
S'Bon app\xc3\xa9tit'
p1394
ssS'4IUHilW22vLDSWvVArQ7gZ'
p1395
(dp1396
g3
S'Walid Sevran'
p1397
sg5
I5
sg6
S'https://open.spotify.com/track/4IUHilW22vLDSWvVArQ7gZ'
p1398
sg8
S'La cour des grands'
p1399
ssS'2ixB59eXNIH8qyEMP15IOj'
p1400
(dp1401
g3
S'DJ Hamida'
p1402
sg5
I10
sg6
S'https://open.spotify.com/track/2ixB59eXNIH8qyEMP15IOj'
p1403
sg8
S"C'est une frappe"
p1404
ssS'4aKRNoUVhMMA5uNPWW5zAW'
p1405
(dp1406
g3
S'AM'
p1407
sg5
I2
sg6
S'https://open.spotify.com/track/4aKRNoUVhMMA5uNPWW5zAW'
p1408
sg8
S'Histoire de'
p1409
ssS'4wIeccnwvGmERG3NJG8nQA'
p1410
(dp1411
g3
S'Sneazzy'
p1412
sg5
I1
sg6
S'https://open.spotify.com/track/4wIeccnwvGmERG3NJG8nQA'
p1413
sg8
S'S\xc3\xa9rieux'
p1414
ssS'5UOGzIMvxXyRZIWBbqDcpU'
p1415
(dp1416
g3
S'PNL'
p1417
sg5
I40
sg6
S'https://open.spotify.com/track/5UOGzIMvxXyRZIWBbqDcpU'
p1418
sg8
S'DA'
p1419
ssS'5tf1VVWniHgryyumXyJM7w'
p1420
(dp1421
g3
S'Robin Schulz'
p1422
sg5
I1
sg6
S'https://open.spotify.com/track/5tf1VVWniHgryyumXyJM7w'
p1423
sg8
S'Sugar (feat. Francesco Yates)'
p1424
ssS'3JhBk8gpfAITpJJG9GbJSw'
p1425
(dp1426
g3
S'Jul'
p1427
sg5
I1
sg6
S'https://open.spotify.com/track/3JhBk8gpfAITpJJG9GbJSw'
p1428
sg8
S"Peu m'importe"
p1429
ssS'00cbRAOr6wTPE9WBMejhiM'
p1430
(dp1431
g3
S'Mister V'
p1432
sg5
I18
sg6
S'https://open.spotify.com/track/00cbRAOr6wTPE9WBMejhiM'
p1433
sg8
S'Space Jam'
p1434
ssS'2XlHu0HcujBCkWMdIAvrqt'
p1435
(dp1436
g3
S'Drake'
p1437
sg5
I4
sg6
S'https://open.spotify.com/track/2XlHu0HcujBCkWMdIAvrqt'
p1438
sg8
S'Blem'
p1439
ssS'42z3DqNB88hUKzbTQxklxR'
p1440
(dp1441
g3
S'Indochine'
p1442
sg5
I1
sg6
S'https://open.spotify.com/track/42z3DqNB88hUKzbTQxklxR'
p1443
sg8
S'La vie est belle'
p1444
ssS'72Q0FQQo32KJloivv5xge2'
p1445
(dp1446
g3
S'DJ Khaled'
p1447
sg5
I3
sg6
S'https://open.spotify.com/track/72Q0FQQo32KJloivv5xge2'
p1448
sg8
S"I'm the One"
p1449
ssS'5f5r2N4Lp9WoULWPH9zp2W'
p1450
(dp1451
g3
S'Drake'
p1452
sg5
I1
sg6
S'https://open.spotify.com/track/5f5r2N4Lp9WoULWPH9zp2W'
p1453
sg8
S"Can't Have Everything"
p1454
ssS'4JAyIDXOqNM6qHuZML01uX'
p1455
(dp1456
g3
S''
p1457
sg5
I1
sg6
S'https://open.spotify.com/track/4JAyIDXOqNM6qHuZML01uX'
p1458
sg8
g1457
ssS'2OALaHcDdKkjYEpAr0Qzab'
p1459
(dp1460
g3
S'Avicii'
p1461
sg5
I8
sg6
S'https://open.spotify.com/track/2OALaHcDdKkjYEpAr0Qzab'
p1462
sg8
S'Lonely Together (feat. Rita Ora)'
p1463
ssS'5LYQSNHZxEA880URXFHg6h'
p1464
(dp1465
g3
S'Lana Del Rey'
p1466
sg5
I1
sg6
S'https://open.spotify.com/track/5LYQSNHZxEA880URXFHg6h'
p1467
sg8
S'Lust for Life (with The Weeknd)'
p1468
ssS'1QH6Irlx3h57TyLjJmNufU'
p1469
(dp1470
g3
S'Ninho'
p1471
sg5
I5
sg6
S'https://open.spotify.com/track/1QH6Irlx3h57TyLjJmNufU'
p1472
sg8
S'Ce soir (feat. Alonzo)'
p1473
ssS'5hYTyyh2odQKphUbMqc5gN'
p1474
(dp1475
g3
S'Alessia Cara'
p1476
sg5
I2
sg6
S'https://open.spotify.com/track/5hYTyyh2odQKphUbMqc5gN'
p1477
sg8
S"How Far I'll Go - From Moana"
p1478
ssS'7F9TAFG94JGeILTKRvn3dy'
p1479
(dp1480
g3
S'Niro'
p1481
sg5
I1
sg6
S'https://open.spotify.com/track/7F9TAFG94JGeILTKRvn3dy'
p1482
sg8
S'Rasta Rocket'
p1483
ssS'7gXWIxX7rUtKGNtRkot8p3'
p1484
(dp1485
g3
S'RIDSA'
p1486
sg5
I16
sg6
S'https://open.spotify.com/track/7gXWIxX7rUtKGNtRkot8p3'
p1487
sg8
S'Mamamia'
p1488
ssS'72jbDTw1piOOj770jWNeaG'
p1489
(dp1490
g3
S'The Chainsmokers'
p1491
sg5
I21
sg6
S'https://open.spotify.com/track/72jbDTw1piOOj770jWNeaG'
p1492
sg8
S'Paris'
p1493
ssS'12REd1n8PeiHHWOh066tpr'
p1494
(dp1495
g3
S'Flume'
p1496
sg5
I2
sg6
S'https://open.spotify.com/track/12REd1n8PeiHHWOh066tpr'
p1497
sg8
S'Never Be Like You'
p1498
ssS'1bPAaKRZSoBWBeeT0idULo'
p1499
(dp1500
g3
S'Hornet La Frappe'
p1501
sg5
I2
sg6
S'https://open.spotify.com/track/1bPAaKRZSoBWBeeT0idULo'
p1502
sg8
S'Gramme 2 peuf'
p1503
ssS'69eH18SnGxcVSFuQJCBGBY'
p1504
(dp1505
g3
S'Nekfeu'
p1506
sg5
I7
sg6
S'https://open.spotify.com/track/69eH18SnGxcVSFuQJCBGBY'
p1507
sg8
S'Programm\xc3\xa9'
p1508
ssS'3rVdgiUH9aKWqPwKDFJRAT'
p1509
(dp1510
g3
S'Joke'
p1511
sg5
I1
sg6
S'https://open.spotify.com/track/3rVdgiUH9aKWqPwKDFJRAT'
p1512
sg8
S'Playa Pt. II'
p1513
ssS'6Zosz8w6CmdGMZM6p4JlbQ'
p1514
(dp1515
g3
S'Danny Ocean'
p1516
sg5
I1
sg6
S'https://open.spotify.com/track/6Zosz8w6CmdGMZM6p4JlbQ'
p1517
sg8
S'Me Reh\xc3\xbaso'
p1518
ssS'5s3SBzT4zEYEITfzMoAyPm'
p1519
(dp1520
g3
S'Shay'
p1521
sg5
I14
sg6
S'https://open.spotify.com/track/5s3SBzT4zEYEITfzMoAyPm'
p1522
sg8
S'Thibaut Courtois'
p1523
ssS'6flVMwes9WcpCyNGTTVJ2j'
p1524
(dp1525
g3
S'DJ Sem'
p1526
sg5
I1
sg6
S'https://open.spotify.com/track/6flVMwes9WcpCyNGTTVJ2j'
p1527
sg8
S'Mi Coraz\xc3\xb3n'
p1528
ssS'2KvHC9z14GSl4YpkNMX384'
p1529
(dp1530
g3
S'Drake'
p1531
sg5
I1
sg6
S'https://open.spotify.com/track/2KvHC9z14GSl4YpkNMX384'
p1532
sg8
S'Do Not Disturb'
p1533
ssS'0gHJOS74z0f4un7fTR6LMZ'
p1534
(dp1535
g3
S'Alonzo'
p1536
sg5
I3
sg6
S'https://open.spotify.com/track/0gHJOS74z0f4un7fTR6LMZ'
p1537
sg8
S'La vaillance'
p1538
ssS'7bTwYGhBdSQ8vuXc76Xint'
p1539
(dp1540
g3
S'The Lumineers'
p1541
sg5
I5
sg6
S'https://open.spotify.com/track/7bTwYGhBdSQ8vuXc76Xint'
p1542
sg8
S'Ophelia'
p1543
ssS'2gbCG4Rt9984UZ7Tc0dIFd'
p1544
(dp1545
g3
S'Michael Bubl\xc3\xa9'
p1546
sg5
I1
sg6
S'https://open.spotify.com/track/2gbCG4Rt9984UZ7Tc0dIFd'
p1547
sg8
S'White Christmas (Duet With Shania Twain)'
p1548
ssS'3gO8sS8nMNuVwqMyJKRs3b'
p1549
(dp1550
g3
S'Niska'
p1551
sg5
I3
sg6
S'https://open.spotify.com/track/3gO8sS8nMNuVwqMyJKRs3b'
p1552
sg8
S'Versus'
p1553
ssS'4GCIYE1x1TWJCChPkpy9by'
p1554
(dp1555
g3
S'PNL'
p1556
sg5
I42
sg6
S'https://open.spotify.com/track/4GCIYE1x1TWJCChPkpy9by'
p1557
sg8
S'Onizuka'
p1558
ssS'0dA2Mk56wEzDgegdC6R17g'
p1559
(dp1560
g3
S'Zedd'
p1561
sg5
I31
sg6
S'https://open.spotify.com/track/0dA2Mk56wEzDgegdC6R17g'
p1562
sg8
S'Stay (with Alessia Cara)'
p1563
ssS'74ODGXs4byLTRdnKGM4s6E'
p1564
(dp1565
g3
S'LANY'
p1566
sg5
I3
sg6
S'https://open.spotify.com/track/74ODGXs4byLTRdnKGM4s6E'
p1567
sg8
S'Super Far'
p1568
ssS'7KwFV3EQipeBLzRhFRhTfn'
p1569
(dp1570
g3
S'Jul'
p1571
sg5
I2
sg6
S'https://open.spotify.com/track/7KwFV3EQipeBLzRhFRhTfn'
p1572
sg8
S'\xc3\x87a r\xc3\xaave'
p1573
ssS'3Ytr1SUCUi6J3L9dRFx5iH'
p1574
(dp1575
g3
S'Major Lazer'
p1576
sg5
I19
sg6
S'https://open.spotify.com/track/3Ytr1SUCUi6J3L9dRFx5iH'
p1577
sg8
S'Know No Better (feat. Quavo)'
p1578
ssS'1HGM9ePRc2Jpk4DtMKFtr9'
p1579
(dp1580
g3
S'Sofiane'
p1581
sg5
I1
sg6
S'https://open.spotify.com/track/1HGM9ePRc2Jpk4DtMKFtr9'
p1582
sg8
S'Parti de rien'
p1583
ssS'5fOy1jT3t2l4wgNQHPwcMz'
p1584
(dp1585
g3
S'Bigflo & Oli'
p1586
sg5
I1
sg6
S'https://open.spotify.com/track/5fOy1jT3t2l4wgNQHPwcMz'
p1587
sg8
S'Personne'
p1588
ssS'1YrC8s6yZWw23QxW6rfM9f'
p1589
(dp1590
g3
S'Jain'
p1591
sg5
I5
sg6
S'https://open.spotify.com/track/1YrC8s6yZWw23QxW6rfM9f'
p1592
sg8
S'Come'
p1593
ssS'6xIDZPcKh7x070OUZkt7Fr'
p1594
(dp1595
g3
S'Django'
p1596
sg5
I6
sg6
S'https://open.spotify.com/track/6xIDZPcKh7x070OUZkt7Fr'
p1597
sg8
S'Fichu'
p1598
ssS'1kgws2l8gsvDhtsVyzWbu9'
p1599
(dp1600
g3
S'Parcels'
p1601
sg5
I11
sg6
S'https://open.spotify.com/track/1kgws2l8gsvDhtsVyzWbu9'
p1602
sg8
S'Overnight'
p1603
ssS'20o4BODGAs9sFJHC2O1y4x'
p1604
(dp1605
g3
S'Stupeflip'
p1606
sg5
I1
sg6
S'https://open.spotify.com/track/20o4BODGAs9sFJHC2O1y4x'
p1607
sg8
S'The Antidote'
p1608
ssS'7nZmah2llfvLDiUjm0kiyz'
p1609
(dp1610
g3
S'Justin Bieber'
p1611
sg5
I8
sg6
S'https://open.spotify.com/track/7nZmah2llfvLDiUjm0kiyz'
p1612
sg8
S'Friends (with BloodPop\xc2\xae)'
p1613
ssS'3zuKlYazvBXvFQ6fLfH86f'
p1614
(dp1615
g3
S'Djadja & Dinaz'
p1616
sg5
I5
sg6
S'https://open.spotify.com/track/3zuKlYazvBXvFQ6fLfH86f'
p1617
sg8
S"J'suis kha"
p1618
ssS'13HVjjWUZFaWilh2QUJKsP'
p1619
(dp1620
g3
S'James Bay'
p1621
sg5
I14
sg6
S'https://open.spotify.com/track/13HVjjWUZFaWilh2QUJKsP'
p1622
sg8
S'Let It Go'
p1623
ssS'0y9uTzK9cNKSAEHnpeRG8C'
p1624
(dp1625
g3
S'Kendrick Lamar'
p1626
sg5
I1
sg6
S'https://open.spotify.com/track/0y9uTzK9cNKSAEHnpeRG8C'
p1627
sg8
S'DUCKWORTH.'
p1628
ssS'3eFJqPe8VUYrABbFjSauuj'
p1629
(dp1630
g3
g1457
sg5
I1
sg6
S'https://open.spotify.com/track/3eFJqPe8VUYrABbFjSauuj'
p1631
sg8
g1457
ssS'2AA5BljsxsExlesyZpH7jk'
p1632
(dp1633
g3
S'Siboy'
p1634
sg5
I2
sg6
S'https://open.spotify.com/track/2AA5BljsxsExlesyZpH7jk'
p1635
sg8
S'Au revoir merci'
p1636
ssS'6xcXAVbDuVT1pCsa2rmDHY'
p1637
(dp1638
g3
S'Siboy'
p1639
sg5
I15
sg6
S'https://open.spotify.com/track/6xcXAVbDuVT1pCsa2rmDHY'
p1640
sg8
S'Mobali'
p1641
ssS'29rRQITL0TE9bcoi66i2O5'
p1642
(dp1643
g3
S'Lacrim'
p1644
sg5
I14
sg6
S'https://open.spotify.com/track/29rRQITL0TE9bcoi66i2O5'
p1645
sg8
S'Ce soir ne sors pas'
p1646
ssS'6p2bt2xM6mf25q3wAmI5kd'
p1647
(dp1648
g3
S'Damso'
p1649
sg5
I10
sg6
S'https://open.spotify.com/track/6p2bt2xM6mf25q3wAmI5kd'
p1650
sg8
S'\xce\x9c. Noob Saibot'
p1651
ssS'7fwXWKdDNI5IutOMc5OKYw'
p1652
(dp1653
g3
S'J Balvin'
p1654
sg5
I2
sg6
S'https://open.spotify.com/track/7fwXWKdDNI5IutOMc5OKYw'
p1655
sg8
S'Mi Gente (feat. Beyonc\xc3\xa9)'
p1656
ssS'450XNJRan5KMcpueK59gGo'
p1657
(dp1658
g3
S'BMYE'
p1659
sg5
I12
sg6
S'https://open.spotify.com/track/450XNJRan5KMcpueK59gGo'
p1660
sg8
S'Pourquoi ch\xc3\xa9rie'
p1661
ssS'6q7v7QdUgFqHLnmkc4XI5b'
p1662
(dp1663
g3
S'Alonzo'
p1664
sg5
I1
sg6
S'https://open.spotify.com/track/6q7v7QdUgFqHLnmkc4XI5b'
p1665
sg8
S'Bagarre'
p1666
ssS'4Ln4KAwk37peyCh2QpqYnP'
p1667
(dp1668
g3
S'Ninho'
p1669
sg5
I5
sg6
S'https://open.spotify.com/track/4Ln4KAwk37peyCh2QpqYnP'
p1670
sg8
S'Rose'
p1671
ssS'0a5ClTPUJK0hYyXH0emy63'
p1672
(dp1673
g3
S'Niska'
p1674
sg5
I17
sg6
S'https://open.spotify.com/track/0a5ClTPUJK0hYyXH0emy63'
p1675
sg8
S'Commando'
p1676
ssS'2dfHh7ECGxfNqZTQno09Vk'
p1677
(dp1678
g3
S'Ed Sheeran'
p1679
sg5
I2
sg6
S'https://open.spotify.com/track/2dfHh7ECGxfNqZTQno09Vk'
p1680
sg8
S"Hearts Don't Break Around Here"
p1681
ssS'7LELmSLARiSAoIKVsVoH2F'
p1682
(dp1683
g3
S'Mister V'
p1684
sg5
I3
sg6
S'https://open.spotify.com/track/7LELmSLARiSAoIKVsVoH2F'
p1685
sg8
S'Bulletproof'
p1686
ssS'51x6d6UKgwp9CKz1JLEO70'
p1687
(dp1688
g3
S'Jul'
p1689
sg5
I2
sg6
S'https://open.spotify.com/track/51x6d6UKgwp9CKz1JLEO70'
p1690
sg8
S'Surv\xc3\xaat du Milan'
p1691
ssS'5FRCTmIl1SIie075FoVsqA'
p1692
(dp1693
g3
S'Kalash Criminel'
p1694
sg5
I21
sg6
S'https://open.spotify.com/track/5FRCTmIl1SIie075FoVsqA'
p1695
sg8
S'Je ne comprends pas'
p1696
ssS'6fH6DSBvPnAu3T1cT8LaVE'
p1697
(dp1698
g3
S'Hornet La Frappe'
p1699
sg5
I1
sg6
S'https://open.spotify.com/track/6fH6DSBvPnAu3T1cT8LaVE'
p1700
sg8
S'Je pense \xc3\xa0 toi'
p1701
ssS'6D0b04NJIKfEMg040WioJQ'
p1702
(dp1703
g3
S'Julia Michaels'
p1704
sg5
I2
sg6
S'https://open.spotify.com/track/6D0b04NJIKfEMg040WioJQ'
p1705
sg8
S'Issues'
p1706
ssS'7HLMq127igZoS2Oj3IFDwa'
p1707
(dp1708
g3
S'Jul'
p1709
sg5
I2
sg6
S'https://open.spotify.com/track/7HLMq127igZoS2Oj3IFDwa'
p1710
sg8
S'Je l\xc3\xa8ve la moto'
p1711
ssS'5tz69p7tJuGPeMGwNTxYuV'
p1712
(dp1713
g3
S'Logic'
p1714
sg5
I10
sg6
S'https://open.spotify.com/track/5tz69p7tJuGPeMGwNTxYuV'
p1715
sg8
S'1-800-273-8255'
p1716
ssS'0NiXXAI876aGImAd6rTj8w'
p1717
(dp1718
g3
S'Jonas Blue'
p1719
sg5
I14
sg6
S'https://open.spotify.com/track/0NiXXAI876aGImAd6rTj8w'
p1720
sg8
S'Mama'
p1721
ssS'343YBumqHu19cGoGARUTsd'
p1722
(dp1723
g3
S'Drake'
p1724
sg5
I16
sg6
S'https://open.spotify.com/track/343YBumqHu19cGoGARUTsd'
p1725
sg8
S'Fake Love'
p1726
ssS'5HDPtsnyb3maFmPL8LLUTG'
p1727
(dp1728
g3
S'Ed Sheeran'
p1729
sg5
I3
sg6
S'https://open.spotify.com/track/5HDPtsnyb3maFmPL8LLUTG'
p1730
sg8
S'New Man'
p1731
ssS'65mBlk8cyhVpe1OUhLShhp'
p1732
(dp1733
g3
S'Naps'
p1734
sg5
I8
sg6
S'https://open.spotify.com/track/65mBlk8cyhVpe1OUhLShhp'
p1735
sg8
S'Vroum vroum'
p1736
ssS'6xiBw5s8JrFnEjrkz3jpUO'
p1737
(dp1738
g3
S'Feder'
p1739
sg5
I3
sg6
S'https://open.spotify.com/track/6xiBw5s8JrFnEjrkz3jpUO'
p1740
sg8
S'Blame Me'
p1741
ssS'3QQxzoQ3EWOCRk4YKb1rqB'
p1742
(dp1743
g3
S'Deen Burbigo'
p1744
sg5
I1
sg6
S'https://open.spotify.com/track/3QQxzoQ3EWOCRk4YKb1rqB'
p1745
sg8
S'Ma bande'
p1746
ssS'6WbADFqMvR8N5u0BvtsWQE'
p1747
(dp1748
g3
S'Avicii'
p1749
sg5
I9
sg6
S'https://open.spotify.com/track/6WbADFqMvR8N5u0BvtsWQE'
p1750
sg8
S'Without You (feat. Sandro Cavazza)'
p1751
ssS'6UCQbJngqfbXbX4VhP83tl'
p1752
(dp1753
g3
S'Djadja & Dinaz'
p1754
sg5
I2
sg6
S'https://open.spotify.com/track/6UCQbJngqfbXbX4VhP83tl'
p1755
sg8
S"J'veux plus les voir"
p1756
ssS'4pdPtRcBmOSQDlJ3Fk945m'
p1757
(dp1758
g3
S'DJ Snake'
p1759
sg5
I37
sg6
S'https://open.spotify.com/track/4pdPtRcBmOSQDlJ3Fk945m'
p1760
sg8
S'Let Me Love You'
p1761
ssS'3rZOxTTcFAibCaB7Ljj3oG'
p1762
(dp1763
g3
S'Bigflo & Oli'
p1764
sg5
I1
sg6
S'https://open.spotify.com/track/3rZOxTTcFAibCaB7Ljj3oG'
p1765
sg8
S'Papa'
p1766
ssS'28co1mTCrGIGOeGzqLjSat'
p1767
(dp1768
g3
S'Lacrim'
p1769
sg5
I23
sg6
S'https://open.spotify.com/track/28co1mTCrGIGOeGzqLjSat'
p1770
sg8
S'Grande arm\xc3\xa9e'
p1771
ssS'0KoNlOMhLWLSpHAuudIuiX'
p1772
(dp1773
g3
S'Naps'
p1774
sg5
I2
sg6
S'https://open.spotify.com/track/0KoNlOMhLWLSpHAuudIuiX'
p1775
sg8
S'Elvira'
p1776
ssS'6mLLwHRZrF9QRCVnxE7Xq3'
p1777
(dp1778
g3
S'Still Fresh'
p1779
sg5
I4
sg6
S'https://open.spotify.com/track/6mLLwHRZrF9QRCVnxE7Xq3'
p1780
sg8
S'Collision'
p1781
ssS'3lV66ymv6hCcccdNeyMlUm'
p1782
(dp1783
g3
S'PNL'
p1784
sg5
I8
sg6
S'https://open.spotify.com/track/3lV66ymv6hCcccdNeyMlUm'
p1785
sg8
S'Mira'
p1786
ssS'2JtLww17GyDPCw51pelun9'
p1787
(dp1788
g3
S'Sofiane'
p1789
sg5
I2
sg6
S'https://open.spotify.com/track/2JtLww17GyDPCw51pelun9'
p1790
sg8
S'Rebeulotte'
p1791
ssS'1OAiWI2oPmglaOiv9fdioU'
p1792
(dp1793
g3
S'Coldplay'
p1794
sg5
I5
sg6
S'https://open.spotify.com/track/1OAiWI2oPmglaOiv9fdioU'
p1795
sg8
S'Hymn For The Weekend - Seeb Remix'
p1796
ssS'0qFnWtnpQCRJ4CZ6WW362Y'
p1797
(dp1798
g3
S'Ninho'
p1799
sg5
I3
sg6
S'https://open.spotify.com/track/0qFnWtnpQCRJ4CZ6WW362Y'
p1800
sg8
S'Chino'
p1801
ssS'6cG9I4PyigCQJu6A6PmgH2'
p1802
(dp1803
g3
S'Kalash Criminel'
p1804
sg5
I23
sg6
S'https://open.spotify.com/track/6cG9I4PyigCQJu6A6PmgH2'
p1805
sg8
S'Arr\xc3\xaat du c\xc5\x93ur'
p1806
ssS'7LEydI5NfjY6mZfKwYIptZ'
p1807
(dp1808
g3
S'Fifth Harmony'
p1809
sg5
I2
sg6
S'https://open.spotify.com/track/7LEydI5NfjY6mZfKwYIptZ'
p1810
sg8
S'Down'
p1811
ssS'2r0ECFc7nWPdRosmgo84pl'
p1812
(dp1813
g3
S'Mister V'
p1814
sg5
I8
sg6
S'https://open.spotify.com/track/2r0ECFc7nWPdRosmgo84pl'
p1815
sg8
S'Venice'
p1816
ssS'6fCA5hbJI1fD4YfNx7zJd6'
p1817
(dp1818
g3
S'PNL'
p1819
sg5
I7
sg6
S'https://open.spotify.com/track/6fCA5hbJI1fD4YfNx7zJd6'
p1820
sg8
S'Humain'
p1821
ssS'2Na0z2gfN67Rzf0vp74Wi3'
p1822
(dp1823
g3
S'Drake'
p1824
sg5
I1
sg6
S'https://open.spotify.com/track/2Na0z2gfN67Rzf0vp74Wi3'
p1825
sg8
S'Lose You'
p1826
ssS'4iYRa2btalAzPZoSYfROqF'
p1827
(dp1828
g3
S'Kendrick Lamar'
p1829
sg5
I2
sg6
S'https://open.spotify.com/track/4iYRa2btalAzPZoSYfROqF'
p1830
sg8
S'XXX. FEAT. U2.'
p1831
ssS'2Pu2Kcm1cwFg4dDSdmFip4'
p1832
(dp1833
g3
S'Niska'
p1834
sg5
I11
sg6
S'https://open.spotify.com/track/2Pu2Kcm1cwFg4dDSdmFip4'
p1835
sg8
S'R\xc3\xa9seaux'
p1836
ssS'6mh0eQxRc5QFbffaC9zlVl'
p1837
(dp1838
g3
S'Damso'
p1839
sg5
I1
sg6
S'https://open.spotify.com/track/6mh0eQxRc5QFbffaC9zlVl'
p1840
sg8
S'D\xc3\xa9brouillard'
p1841
ssS'5OOkp4U9P9oL23maHFHL1h'
p1842
(dp1843
g3
S'Desiigner'
p1844
sg5
I17
sg6
S'https://open.spotify.com/track/5OOkp4U9P9oL23maHFHL1h'
p1845
sg8
S'Panda'
p1846
ssS'7dJqvusDNhwkkxb9UgKREN'
p1847
(dp1848
g3
S'Aya Nakamura'
p1849
sg5
I10
sg6
S'https://open.spotify.com/track/7dJqvusDNhwkkxb9UgKREN'
p1850
sg8
S'Comportement'
p1851
ssS'0fQIB0rVuLNDNlq3B0hij9'
p1852
(dp1853
g3
S'Julien Dor\xc3\xa9'
p1854
sg5
I4
sg6
S'https://open.spotify.com/track/0fQIB0rVuLNDNlq3B0hij9'
p1855
sg8
S'Le lac'
p1856
ssS'2dJIH1UI4TCEQg1qeAfJ2h'
p1857
(dp1858
g3
S'DTF'
p1859
sg5
I1
sg6
S'https://open.spotify.com/track/2dJIH1UI4TCEQg1qeAfJ2h'
p1860
sg8
S"J'abuse"
p1861
ssS'2X9qmkR2L9DWKT2VGvkkCi'
p1862
(dp1863
g3
S'Bigflo & Oli'
p1864
sg5
I1
sg6
S'https://open.spotify.com/track/2X9qmkR2L9DWKT2VGvkkCi'
p1865
sg8
S'Autre part'
p1866
ssS'7y6c07pgjZvtHI9kuMVqk1'
p1867
(dp1868
g3
S'Drake'
p1869
sg5
I2
sg6
S'https://open.spotify.com/track/7y6c07pgjZvtHI9kuMVqk1'
p1870
sg8
S'Get It Together'
p1871
ssS'5gyci2tsEjEQ9SMA79lcPx'
p1872
(dp1873
g3
S'Sadek'
p1874
sg5
I1
sg6
S'https://open.spotify.com/track/5gyci2tsEjEQ9SMA79lcPx'
p1875
sg8
S'Cartier panth\xc3\xa8re'
p1876
ssS'0XIzUm7rwQfyy6H1CJeAs9'
p1877
(dp1878
g3
S'Damso'
p1879
sg5
I8
sg6
S'https://open.spotify.com/track/0XIzUm7rwQfyy6H1CJeAs9'
p1880
sg8
S'BruxellesVie'
p1881
ssS'3up1uPuvL5vkfJ6aOeSRtD'
p1882
(dp1883
g3
S'Ma\xc3\xaetre Gims'
p1884
sg5
I8
sg6
S'https://open.spotify.com/track/3up1uPuvL5vkfJ6aOeSRtD'
p1885
sg8
S'Loin - Pilule Violette'
p1886
ssS'5lvYLKGuBWNTpk505KUr1E'
p1887
(dp1888
g3
S'Alonzo'
p1889
sg5
I7
sg6
S'https://open.spotify.com/track/5lvYLKGuBWNTpk505KUr1E'
p1890
sg8
S'Bagarre'
p1891
ssS'79cuOz3SPQTuFrp8WgftAu'
p1892
(dp1893
g3
S'Shawn Mendes'
p1894
sg5
I25
sg6
S'https://open.spotify.com/track/79cuOz3SPQTuFrp8WgftAu'
p1895
sg8
S"There's Nothing Holdin' Me Back"
p1896
ssS'3B9LeuYJssQeocPce7eANk'
p1897
(dp1898
g3
S'DTF'
p1899
sg5
I1
sg6
S'https://open.spotify.com/track/3B9LeuYJssQeocPce7eANk'
p1900
sg8
S'Dans mon nuage'
p1901
ssS'2CZhUYCwA7H7Kn9f8KdCnu'
p1902
(dp1903
g3
S'Hayce Lemsi'
p1904
sg5
I1
sg6
S'https://open.spotify.com/track/2CZhUYCwA7H7Kn9f8KdCnu'
p1905
sg8
S"Je t'aime moi non plus (#JTMNP)"
p1906
ssS'11hj8c8BCRd5ND3CRhZSvt'
p1907
(dp1908
g3
S'Nekfeu'
p1909
sg5
I33
sg6
S'https://open.spotify.com/track/11hj8c8BCRd5ND3CRhZSvt'
p1910
sg8
S'Squa'
p1911
ssS'1YcY5Iiv3Ab68QC2rMKuBP'
p1912
(dp1913
g3
S'Niska'
p1914
sg5
I27
sg6
S'https://open.spotify.com/track/1YcY5Iiv3Ab68QC2rMKuBP'
p1915
sg8
S"J'suis dans l'baye"
p1916
ssS'62oCnK99vT8HOgwPsvXuiM'
p1917
(dp1918
g3
S'Angus & Julia Stone'
p1919
sg5
I1
sg6
S'https://open.spotify.com/track/62oCnK99vT8HOgwPsvXuiM'
p1920
sg8
S'Chateau'
p1921
ssS'40vg7dPaClJHMf4KkvxVQK'
p1922
(dp1923
g3
S'Booba'
p1924
sg5
I20
sg6
S'https://open.spotify.com/track/40vg7dPaClJHMf4KkvxVQK'
p1925
sg8
S'Daniel Sam'
p1926
ssS'6JujQHtfZp8rUv5OCt28nB'
p1927
(dp1928
g3
S'Niro'
p1929
sg5
I1
sg6
S'https://open.spotify.com/track/6JujQHtfZp8rUv5OCt28nB'
p1930
sg8
S'Si ils savaient'
p1931
ssS'45KqDHTOJtIM53QR1gPGTa'
p1932
(dp1933
g3
S'Ril\xc3\xa8s'
p1934
sg5
I25
sg6
S'https://open.spotify.com/track/45KqDHTOJtIM53QR1gPGTa'
p1935
sg8
S'Brothers'
p1936
ssS'5FkBFIGzG8lYFktLyZNUq6'
p1937
(dp1938
g3
S'Jain'
p1939
sg5
I12
sg6
S'https://open.spotify.com/track/5FkBFIGzG8lYFktLyZNUq6'
p1940
sg8
S'Makeba - Radio Edit'
p1941
ssS'3eR23VReFzcdmS7TYCrhCe'
p1942
(dp1943
g3
S'Kygo'
p1944
sg5
I32
sg6
S'https://open.spotify.com/track/3eR23VReFzcdmS7TYCrhCe'
p1945
sg8
S"It Ain't Me (with Selena Gomez)"
p1946
ssS'4IEmXQgiWaEiKyLEq4Lejm'
p1947
(dp1948
g3
S'SCH'
p1949
sg5
I2
sg6
S'https://open.spotify.com/track/4IEmXQgiWaEiKyLEq4Lejm'
p1950
sg8
S'Les ann\xc3\xa9es de plomb'
p1951
ssS'3ldfGgw7IoLHbaqmspX3ME'
p1952
(dp1953
g3
S'Ninho'
p1954
sg5
I5
sg6
S'https://open.spotify.com/track/3ldfGgw7IoLHbaqmspX3ME'
p1955
sg8
S"De l'autre c\xc3\xb4t\xc3\xa9 (feat. Nekfeu)"
p1956
ssS'4ksAbWG96D1yaQ0onQNlb5'
p1957
(dp1958
g3
S'Lacrim'
p1959
sg5
I8
sg6
S'https://open.spotify.com/track/4ksAbWG96D1yaQ0onQNlb5'
p1960
sg8
S'Colonel Carrillo'
p1961
ssS'1MUxJxub6ovS0rzTHRgyoF'
p1962
(dp1963
g3
S'MHD'
p1964
sg5
I26
sg6
S'https://open.spotify.com/track/1MUxJxub6ovS0rzTHRgyoF'
p1965
sg8
S'Afro Trap Pt. 8 (Never)'
p1966
ssS'4neT20irorUPXEgNW5bPwv'
p1967
(dp1968
g3
S'Vald'
p1969
sg5
I2
sg6
S'https://open.spotify.com/track/4neT20irorUPXEgNW5bPwv'
p1970
sg8
S'Kid Cudi'
p1971
ssS'2XOXx2U5IIoBRPlmGgDqj8'
p1972
(dp1973
g3
S'Polo & Pan'
p1974
sg5
I2
sg6
S'https://open.spotify.com/track/2XOXx2U5IIoBRPlmGgDqj8'
p1975
sg8
S'Canop\xc3\xa9e'
p1976
ssS'5bZtRlMBU76vHuDOb1GM5u'
p1977
(dp1978
g3
S'Jonas Blue'
p1979
sg5
I1
sg6
S'https://open.spotify.com/track/5bZtRlMBU76vHuDOb1GM5u'
p1980
sg8
S'Perfect Strangers'
p1981
ssS'0A9wC1WP0tzt4TQTZdBirz'
p1982
(dp1983
g3
S'Louane'
p1984
sg5
I11
sg6
S'https://open.spotify.com/track/0A9wC1WP0tzt4TQTZdBirz'
p1985
sg8
S'On \xc3\xa9tait beau'
p1986
ssS'5czvgFBTA8Fdcw5wLVD5rW'
p1987
(dp1988
g3
S'Alonzo'
p1989
sg5
I2
sg6
S'https://open.spotify.com/track/5czvgFBTA8Fdcw5wLVD5rW'
p1990
sg8
S'Terrain'
p1991
ssS'0JiVRyTJcJnmlwCZ854K4p'
p1992
(dp1993
g3
S'Alan Walker'
p1994
sg5
I11
sg6
S'https://open.spotify.com/track/0JiVRyTJcJnmlwCZ854K4p'
p1995
sg8
S'Alone'
p1996
ssS'1OmcAT5Y8eg5bUPv9qJT4R'
p1997
(dp1998
g3
S'Post Malone'
p1999
sg5
I3
sg6
S'https://open.spotify.com/track/1OmcAT5Y8eg5bUPv9qJT4R'
p2000
sg8
S'rockstar'
p2001
ssS'3hRZsdTF5uyGA2uhNqEuhm'
p2002
(dp2003
g3
S'Niall Horan'
p2004
sg5
I4
sg6
S'https://open.spotify.com/track/3hRZsdTF5uyGA2uhNqEuhm'
p2005
sg8
S'Too Much To Ask'
p2006
ssS'6gmsmnjT3ojmm7apL8UD8M'
p2007
(dp2008
g3
S'SCH'
p2009
sg5
I9
sg6
S'https://open.spotify.com/track/6gmsmnjT3ojmm7apL8UD8M'
p2010
sg8
S"J'attends"
p2011
ssS'7nwhC8S5czxTRLhTKpKD9T'
p2012
(dp2013
g3
S'Vald'
p2014
sg5
I4
sg6
S'https://open.spotify.com/track/7nwhC8S5czxTRLhTKpKD9T'
p2015
sg8
S'Megadose'
p2016
ssS'4JORblwoH8AMH9PkZw2pE4'
p2017
(dp2018
g3
S'Hornet La Frappe'
p2019
sg5
I2
sg6
S'https://open.spotify.com/track/4JORblwoH8AMH9PkZw2pE4'
p2020
sg8
S'Poukie'
p2021
ssS'2Vd1vVQaBilW0O6nmU5BkH'
p2022
(dp2023
g3
S'Vianney'
p2024
sg5
I36
sg6
S'https://open.spotify.com/track/2Vd1vVQaBilW0O6nmU5BkH'
p2025
sg8
S"Je m'en vais"
p2026
ssS'4aWmUDTfIPGksMNLV2rQP2'
p2027
(dp2028
g3
S'Luis Fonsi'
p2029
sg5
I38
sg6
S'https://open.spotify.com/track/4aWmUDTfIPGksMNLV2rQP2'
p2030
sg8
S'Despacito (Featuring Daddy Yankee)'
p2031
ssS'58zsLZPvfflaiIbNWoA22O'
p2032
(dp2033
g3
S"Rag'n'Bone Man"
p2034
sg5
I39
sg6
S'https://open.spotify.com/track/58zsLZPvfflaiIbNWoA22O'
p2035
sg8
S'Human'
p2036
ssS'6JMdhGfyz9C4kA4mTc6y9C'
p2037
(dp2038
g3
S'SCH'
p2039
sg5
I15
sg6
S'https://open.spotify.com/track/6JMdhGfyz9C4kA4mTc6y9C'
p2040
sg8
S'Comme si'
p2041
ssS'5dKyZWlgjWw1oJgLa4GCZD'
p2042
(dp2043
g3
S'Tove Lo'
p2044
sg5
I1
sg6
S'https://open.spotify.com/track/5dKyZWlgjWw1oJgLa4GCZD'
p2045
sg8
S'Cool Girl'
p2046
ssS'3PEgB3fkiojxms35ntsTgs'
p2047
(dp2048
g3
S'Axwell /\\ Ingrosso'
p2049
sg5
I11
sg6
S'https://open.spotify.com/track/3PEgB3fkiojxms35ntsTgs'
p2050
sg8
S'More Than You Know'
p2051
ssS'25C5CowdsfXld2jJanbiex'
p2052
(dp2053
g3
S'Demi Lovato'
p2054
sg5
I11
sg6
S'https://open.spotify.com/track/25C5CowdsfXld2jJanbiex'
p2055
sg8
S'Sorry Not Sorry'
p2056
ssS'3FsPgdqD4Tdvthc7xWiL9O'
p2057
(dp2058
g3
S'Vald'
p2059
sg5
I2
sg6
S'https://open.spotify.com/track/3FsPgdqD4Tdvthc7xWiL9O'
p2060
sg8
S'Totem'
p2061
ssS'0X6496L5nTxkASOzNj8VYJ'
p2062
(dp2063
g3
S'Mister V'
p2064
sg5
I3
sg6
S'https://open.spotify.com/track/0X6496L5nTxkASOzNj8VYJ'
p2065
sg8
S'Demain'
p2066
ssS'2Z8WuEywRWYTKe1NybPQEW'
p2067
(dp2068
g3
S'Twenty One Pilots'
p2069
sg5
I37
sg6
S'https://open.spotify.com/track/2Z8WuEywRWYTKe1NybPQEW'
p2070
sg8
S'Ride'
p2071
ssS'7dn6WQzScfRGpp7XdTiCj0'
p2072
(dp2073
g3
S'PNL'
p2074
sg5
I20
sg6
S'https://open.spotify.com/track/7dn6WQzScfRGpp7XdTiCj0'
p2075
sg8
S'Le monde ou rien'
p2076
ssS'4Ywtznk2e3DL1XVme4ckTa'
p2077
(dp2078
g3
S'Ninho'
p2079
sg5
I2
sg6
S'https://open.spotify.com/track/4Ywtznk2e3DL1XVme4ckTa'
p2080
sg8
S'Binks To Binks 4'
p2081
ssS'3JIqY33zQzdSgmcsMiAhUy'
p2082
(dp2083
g3
S'Julian Perretta'
p2084
sg5
I3
sg6
S'https://open.spotify.com/track/3JIqY33zQzdSgmcsMiAhUy'
p2085
sg8
S'I Cry'
p2086
ssS'3T99a7Uu1iMKGcGDtGO636'
p2087
(dp2088
g3
S'Vald'
p2089
sg5
I2
sg6
S'https://open.spotify.com/track/3T99a7Uu1iMKGcGDtGO636'
p2090
sg8
S'Acacia'
p2091
ssS'5urhEtesorARjZhjSaFntn'
p2092
(dp2093
g3
S'Damso'
p2094
sg5
I24
sg6
S'https://open.spotify.com/track/5urhEtesorARjZhjSaFntn'
p2095
sg8
S'\xce\x96. Kietu'
p2096
ssS'6JV2JOEocMgcZxYSZelKcc'
p2097
(dp2098
g3
S'Justin Timberlake'
p2099
sg5
I9
sg6
S'https://open.spotify.com/track/6JV2JOEocMgcZxYSZelKcc'
p2100
sg8
S"CAN'T STOP THE FEELING! (Original Song from DreamWorks Animation's TROLLS)"
p2101
ssS'4rrzxq356QDANDVd0SB1Dq'
p2102
(dp2103
g3
S'Mister V'
p2104
sg5
I22
sg6
S'https://open.spotify.com/track/4rrzxq356QDANDVd0SB1Dq'
p2105
sg8
S'Top album'
p2106
ssS'6De0lHrwBfPfrhorm9q1Xl'
p2107
(dp2108
g3
S'Danny Ocean'
p2109
sg5
I18
sg6
S'https://open.spotify.com/track/6De0lHrwBfPfrhorm9q1Xl'
p2110
sg8
S'Me Reh\xc3\xbaso'
p2111
ssS'1Fv767CH5YFrjo6HwzHnpR'
p2112
(dp2113
g3
S'Ninho'
p2114
sg5
I5
sg6
S'https://open.spotify.com/track/1Fv767CH5YFrjo6HwzHnpR'
p2115
sg8
S'Laisse pas tra\xc3\xaener ton fils (feat. Sofiane)'
p2116
ssS'1FLwQnkA7OQ8Ll6oaEdAy7'
p2117
(dp2118
g3
S'Sadek'
p2119
sg5
I3
sg6
S'https://open.spotify.com/track/1FLwQnkA7OQ8Ll6oaEdAy7'
p2120
sg8
S'Petit prince'
p2121
ssS'0bYg9bo50gSsH3LtXe2SQn'
p2122
(dp2123
g3
S'Mariah Carey'
p2124
sg5
I1
sg6
S'https://open.spotify.com/track/0bYg9bo50gSsH3LtXe2SQn'
p2125
sg8
S'All I Want for Christmas Is You'
p2126
ssS'7nKBxz47S9SD79N086fuhn'
p2127
(dp2128
g3
S'Enrique Iglesias'
p2129
sg5
I26
sg6
S'https://open.spotify.com/track/7nKBxz47S9SD79N086fuhn'
p2130
sg8
S'SUBEME LA RADIO'
p2131
ssS'2h0vD9wYASU5FOcNFUIvYk'
p2132
(dp2133
g3
S'Niro'
p2134
sg5
I1
sg6
S'https://open.spotify.com/track/2h0vD9wYASU5FOcNFUIvYk'
p2135
sg8
S'Sale morveux'
p2136
ssS'4iLqG9SeJSnt0cSPICSjxv'
p2137
(dp2138
g3
S'Charlie Puth'
p2139
sg5
I25
sg6
S'https://open.spotify.com/track/4iLqG9SeJSnt0cSPICSjxv'
p2140
sg8
S'Attention'
p2141
ssS'5ursdjmzI73WAw0OPZx3qC'
p2142
(dp2143
g3
S'Alonzo'
p2144
sg5
I12
sg6
S'https://open.spotify.com/track/5ursdjmzI73WAw0OPZx3qC'
p2145
sg8
S'Binta'
p2146
ssS'1qOLh0tI7trd1zdDKxYZTe'
p2147
(dp2148
g3
S'Hailee Steinfeld'
p2149
sg5
I8
sg6
S'https://open.spotify.com/track/1qOLh0tI7trd1zdDKxYZTe'
p2150
sg8
S'Starving'
p2151
ssS'2KiHXiqQA2dHiLfeSxtTeP'
p2152
(dp2153
g3
S'KeBlack'
p2154
sg5
I26
sg6
S'https://open.spotify.com/track/2KiHXiqQA2dHiLfeSxtTeP'
p2155
sg8
S'Bazard\xc3\xa9e'
p2156
ssS'3HVr6jTVwBHBa2flM0eURR'
p2157
(dp2158
g3
S'Macklemore'
p2159
sg5
I11
sg6
S'https://open.spotify.com/track/3HVr6jTVwBHBa2flM0eURR'
p2160
sg8
S'Glorious (feat. Skylar Grey)'
p2161
ssS'7inXu0Eaeg02VsM8kHNvzM'
p2162
(dp2163
g3
S'Frank Sinatra'
p2164
sg5
I1
sg6
S'https://open.spotify.com/track/7inXu0Eaeg02VsM8kHNvzM'
p2165
sg8
S'Let It Snow! Let It Snow! Let It Snow!'
p2166
ssS'33dLYyEIRqEipCuLb8z1l0'
p2167
(dp2168
g3
S'Lacrim'
p2169
sg5
I24
sg6
S'https://open.spotify.com/track/33dLYyEIRqEipCuLb8z1l0'
p2170
sg8
S'La dolce vita'
p2171
ssS'4HsA7oqWAQSAAILNiBggVU'
p2172
(dp2173
g3
S'Shay'
p2174
sg5
I2
sg6
S'https://open.spotify.com/track/4HsA7oqWAQSAAILNiBggVU'
p2175
sg8
S'PMW'
p2176
ssS'1cG0umU5TKStygKsPFZ9pY'
p2177
(dp2178
g3
S'Robin Schulz'
p2179
sg5
I11
sg6
S'https://open.spotify.com/track/1cG0umU5TKStygKsPFZ9pY'
p2180
sg8
S'Shed a Light'
p2181
ssS'6520aj0B4FSKGVuKNsOCOi'
p2182
(dp2183
g3
S'Katy Perry'
p2184
sg5
I21
sg6
S'https://open.spotify.com/track/6520aj0B4FSKGVuKNsOCOi'
p2185
sg8
S'Chained To The Rhythm'
p2186
ssS'6VSoEbvJ50OgGzWyoWr55p'
p2187
(dp2188
g3
S'Kaaris'
p2189
sg5
I3
sg6
S'https://open.spotify.com/track/6VSoEbvJ50OgGzWyoWr55p'
p2190
sg8
S'Contact'
p2191
ssS'6EpRaXYhGOB3fj4V2uDkMJ'
p2192
(dp2193
g3
S'Liam Payne'
p2194
sg5
I21
sg6
S'https://open.spotify.com/track/6EpRaXYhGOB3fj4V2uDkMJ'
p2195
sg8
S'Strip That Down'
p2196
ssS'67GscT39t0LDBBAfgfnsuQ'
p2197
(dp2198
g3
S'Djadja & Dinaz'
p2199
sg5
I13
sg6
S'https://open.spotify.com/track/67GscT39t0LDBBAfgfnsuQ'
p2200
sg8
S"J'fais mes affaires"
p2201
ssS'3akaKS6VFRCuMx0Ixfv3MZ'
p2202
(dp2203
g3
S'Jul'
p2204
sg5
I3
sg6
S'https://open.spotify.com/track/3akaKS6VFRCuMx0Ixfv3MZ'
p2205
sg8
S'Monde violent'
p2206
ssS'1wjzFQodRWrPcQ0AnYnvQ9'
p2207
(dp2208
g3
S'Lauv'
p2209
sg5
I5
sg6
S'https://open.spotify.com/track/1wjzFQodRWrPcQ0AnYnvQ9'
p2210
sg8
S'I Like Me Better'
p2211
ssS'51PIvodunv6NmX5250zxAh'
p2212
(dp2213
g3
S'Lady Gaga'
p2214
sg5
I11
sg6
S'https://open.spotify.com/track/51PIvodunv6NmX5250zxAh'
p2215
sg8
S'The Cure'
p2216
ssS'4PdJSsESm34djLfBde9Pr2'
p2217
(dp2218
g3
S'David Guetta'
p2219
sg5
I1
sg6
S'https://open.spotify.com/track/4PdJSsESm34djLfBde9Pr2'
p2220
sg8
S'Would I Lie To You - Radio Edit'
p2221
ssS'35gJuqfvrdlCA2MmAtaD3J'
p2222
(dp2223
g3
S'Ninho'
p2224
sg5
I5
sg6
S'https://open.spotify.com/track/35gJuqfvrdlCA2MmAtaD3J'
p2225
sg8
S'Mamacita'
p2226
ssS'47kyFITLgCqjLvWQz9Gty5'
p2227
(dp2228
g3
S'Alonzo'
p2229
sg5
I7
sg6
S'https://open.spotify.com/track/47kyFITLgCqjLvWQz9Gty5'
p2230
sg8
S'Bagarre'
p2231
ssS'3xf9GbVqLnDgL2x0xztcTV'
p2232
(dp2233
g3
S'Lacrim'
p2234
sg5
I1
sg6
S'https://open.spotify.com/track/3xf9GbVqLnDgL2x0xztcTV'
p2235
sg8
S'A.W.A'
p2236
ssS'7abpmGpF7PGep2rDU68GBR'
p2237
(dp2238
g3
S'Burak Yeter'
p2239
sg5
I25
sg6
S'https://open.spotify.com/track/7abpmGpF7PGep2rDU68GBR'
p2240
sg8
S'Tuesday'
p2241
ssS'6IXOOqrKZfLDn88dNez4ex'
p2242
(dp2243
g3
S'Bigflo & Oli'
p2244
sg5
I1
sg6
S'https://open.spotify.com/track/6IXOOqrKZfLDn88dNez4ex'
p2245
sg8
S'La vraie vie'
p2246
ssS'0gn0krlJTSSZvnMxh2ITHY'
p2247
(dp2248
g3
S'Sofiane'
p2249
sg5
I21
sg6
S'https://open.spotify.com/track/0gn0krlJTSSZvnMxh2ITHY'
p2250
sg8
S"Mon p'tit loup"
p2251
ssS'0aMAFoeP14eOVCxVBziEv9'
p2252
(dp2253
g3
S'Alonzo'
p2254
sg5
I2
sg6
S'https://open.spotify.com/track/0aMAFoeP14eOVCxVBziEv9'
p2255
sg8
S'Dal\xc3\xa9'
p2256
ssS'4Otg8MXqP8UK3QzcMlY1sx'
p2257
(dp2258
g3
S'PNL'
p2259
sg5
I5
sg6
S'https://open.spotify.com/track/4Otg8MXqP8UK3QzcMlY1sx'
p2260
sg8
S'Kratos'
p2261
ssS'6tiZhqx8IqDxCQXFit6tc0'
p2262
(dp2263
g3
S'Hornet La Frappe'
p2264
sg5
I2
sg6
S'https://open.spotify.com/track/6tiZhqx8IqDxCQXFit6tc0'
p2265
sg8
S'Dead \xc3\xa7a'
p2266
ssS'0qYTZCo5Bwh1nsUFGZP3zn'
p2267
(dp2268
g3
S'Maluma'
p2269
sg5
I19
sg6
S'https://open.spotify.com/track/0qYTZCo5Bwh1nsUFGZP3zn'
p2270
sg8
S'Felices los 4'
p2271
ssS'03aduXwm6cTqO9bb4XFQ2b'
p2272
(dp2273
g3
S'Damso'
p2274
sg5
I24
sg6
S'https://open.spotify.com/track/03aduXwm6cTqO9bb4XFQ2b'
p2275
sg8
S'\xce\x95. Signaler'
p2276
ssS'5Z01UMMf7V1o0MzF86s6WJ'
p2277
(dp2278
g3
S'Eminem'
p2279
sg5
I2
sg6
S'https://open.spotify.com/track/5Z01UMMf7V1o0MzF86s6WJ'
p2280
sg8
S'Lose Yourself - Soundtrack Version'
p2281
ssS'2XMTqoHHSH0lvuXrvIEdco'
p2282
(dp2283
g3
S'FRENSHIP'
p2284
sg5
I18
sg6
S'https://open.spotify.com/track/2XMTqoHHSH0lvuXrvIEdco'
p2285
sg8
S'Capsize'
p2286
ssS'5MFzQMkrl1FOOng9tq6R9r'
p2287
(dp2288
g3
S'Maroon 5'
p2289
sg5
I21
sg6
S'https://open.spotify.com/track/5MFzQMkrl1FOOng9tq6R9r'
p2290
sg8
S"Don't Wanna Know"
p2291
ssS'3vGh7a3HDRjSsTarTW7NlG'
p2292
(dp2293
g3
S'Vald'
p2294
sg5
I2
sg6
S'https://open.spotify.com/track/3vGh7a3HDRjSsTarTW7NlG'
p2295
sg8
S'Neo'
p2296
ssS'5PVKAKFQw3yqa5lsfCiJqk'
p2297
(dp2298
g3
S'Sneazzy'
p2299
sg5
I1
sg6
S'https://open.spotify.com/track/5PVKAKFQw3yqa5lsfCiJqk'
p2300
sg8
S'Jenny from da Blocka'
p2301
ssS'0bd52Jo3nNTTIcEtqv2mCC'
p2302
(dp2303
g3
S'Rohff'
p2304
sg5
I1
sg6
S'https://open.spotify.com/track/0bd52Jo3nNTTIcEtqv2mCC'
p2305
sg8
S'Hors de contr\xc3\xb4le'
p2306
ssS'4vEaXY95aExfle99vJgXzU'
p2307
(dp2308
g3
S'Hornet La Frappe'
p2309
sg5
I2
sg6
S'https://open.spotify.com/track/4vEaXY95aExfle99vJgXzU'
p2310
sg8
S'Je pense \xc3\xa0 toi'
p2311
ssS'0FxIDZ0d2169ACdRbe8mtk'
p2312
(dp2313
g3
S'Ril\xc3\xa8s'
p2314
sg5
I2
sg6
S'https://open.spotify.com/track/0FxIDZ0d2169ACdRbe8mtk'
p2315
sg8
S'In the Jungle'
p2316
ssS'6QgjcU0zLnzq5OrUoSZ3OK'
p2317
(dp2318
g3
S'Portugal. The Man'
p2319
sg5
I8
sg6
S'https://open.spotify.com/track/6QgjcU0zLnzq5OrUoSZ3OK'
p2320
sg8
S'Feel It Still'
p2321
ssS'5rg6jVjcRlnifV86hAA6ro'
p2322
(dp2323
g3
S'Soprano'
p2324
sg5
I16
sg6
S'https://open.spotify.com/track/5rg6jVjcRlnifV86hAA6ro'
p2325
sg8
S'En feu'
p2326
ssS'0vPHA6ipjSD2B5lHKub21I'
p2327
(dp2328
g3
S'MHD'
p2329
sg5
I4
sg6
S'https://open.spotify.com/track/0vPHA6ipjSD2B5lHKub21I'
p2330
sg8
S'Afro Trap Pt. 3 (Champions League)'
p2331
ssS'5B13mNIiknPY2zKCyn1O6L'
p2332
(dp2333
g3
S'S.Pri Noir'
p2334
sg5
I26
sg6
S'https://open.spotify.com/track/5B13mNIiknPY2zKCyn1O6L'
p2335
sg8
S'Skywalker'
p2336
ssS'0rNhRaRsrP0lilQbmdf2xw'
p2337
(dp2338
g3
S'Busy P'
p2339
sg5
I5
sg6
S'https://open.spotify.com/track/0rNhRaRsrP0lilQbmdf2xw'
p2340
sg8
S'Genie (feat. Mayer Hawthorne) - Radio Edit'
p2341
ssS'6WzuBQg8YcvHrargJhHeS2'
p2342
(dp2343
g3
S'Naza'
p2344
sg5
I1
sg6
S'https://open.spotify.com/track/6WzuBQg8YcvHrargJhHeS2'
p2345
sg8
S'Sac \xc3\xa0 dos'
p2346
ssS'6Z6yBebkNbZoHFq1D8Yl5O'
p2347
(dp2348
g3
S'Kalash Criminel'
p2349
sg5
I4
sg6
S'https://open.spotify.com/track/6Z6yBebkNbZoHFq1D8Yl5O'
p2350
sg8
S'Sale sonorit\xc3\xa9'
p2351
ssS'1jYiIOC5d6soxkJP81fxq2'
p2352
(dp2353
g3
S'DJ Khaled'
p2354
sg5
I1
sg6
S'https://open.spotify.com/track/1jYiIOC5d6soxkJP81fxq2'
p2355
sg8
S"I'm the One"
p2356
ssS'4J6xvZhJh26lmAEAXGDCKu'
p2357
(dp2358
g3
S'Na\xc3\xafve New Beaters'
p2359
sg5
I37
sg6
S'https://open.spotify.com/track/4J6xvZhJh26lmAEAXGDCKu'
p2360
sg8
S'Heal Tomorrow'
p2361
ssS'6iwkDhmdFfXu9RpjXrgFhz'
p2362
(dp2363
g3
S'Soprano'
p2364
sg5
I20
sg6
S'https://open.spotify.com/track/6iwkDhmdFfXu9RpjXrgFhz'
p2365
sg8
S'Mon Everest - feat. Marina Kaye'
p2366
ssS'4M6HNRHyV2MykKp7gKQcyD'
p2367
(dp2368
g3
S'Saint PHNX'
p2369
sg5
I13
sg6
S'https://open.spotify.com/track/4M6HNRHyV2MykKp7gKQcyD'
p2370
sg8
S'King'
p2371
ssS'6g4biI8jH5dTNk52Q1sMKo'
p2372
(dp2373
g3
S'Jul'
p2374
sg5
I1
sg6
S'https://open.spotify.com/track/6g4biI8jH5dTNk52Q1sMKo'
p2375
sg8
S"Y'a plus de doute"
p2376
ssS'2jTujnt0y344ai1rNOywgr'
p2377
(dp2378
g3
S'Drake'
p2379
sg5
I1
sg6
S'https://open.spotify.com/track/2jTujnt0y344ai1rNOywgr'
p2380
sg8
S'KMT'
p2381
ssS'3zLMWD22TUiKZ3L6FPjiCL'
p2382
(dp2383
g3
S'Sadek'
p2384
sg5
I29
sg6
S'https://open.spotify.com/track/3zLMWD22TUiKZ3L6FPjiCL'
p2385
sg8
S'Andale (feat. Gradur)'
p2386
ssS'3VvXGTB7qzTJ0nBOBwiH9X'
p2387
(dp2388
g3
S'Sadek'
p2389
sg5
I18
sg6
S'https://open.spotify.com/track/3VvXGTB7qzTJ0nBOBwiH9X'
p2390
sg8
S'Dans la lune'
p2391
ssS'3sY5Gz1afr3NrtIvX1rnU6'
p2392
(dp2393
g3
S'Lacrim'
p2394
sg5
I4
sg6
S'https://open.spotify.com/track/3sY5Gz1afr3NrtIvX1rnU6'
p2395
sg8
S'Papa Trabaja'
p2396
ssS'7zgqtptZvhf8GEmdsM2vp2'
p2397
(dp2398
g3
S'Taylor Swift'
p2399
sg5
I1
sg6
S'https://open.spotify.com/track/7zgqtptZvhf8GEmdsM2vp2'
p2400
sg8
S'...Ready For It?'
p2401
ssS'4YozQc1Jf4aAvXUhuo5zqL'
p2402
(dp2403
g3
S'Sofiane'
p2404
sg5
I5
sg6
S'https://open.spotify.com/track/4YozQc1Jf4aAvXUhuo5zqL'
p2405
sg8
S'P\xc3\xa9gase'
p2406
ssS'5FOAptZGxeMAO0BJSQh2fc'
p2407
(dp2408
g3
S'Alicia Keys'
p2409
sg5
I7
sg6
S'https://open.spotify.com/track/5FOAptZGxeMAO0BJSQh2fc'
p2410
sg8
S'Blended Family (What You Do For Love)'
p2411
ssS'6aqH0kTEqXP28T9GcrOctM'
p2412
(dp2413
g3
S'Sofiane'
p2414
sg5
I7
sg6
S'https://open.spotify.com/track/6aqH0kTEqXP28T9GcrOctM'
p2415
sg8
S"C'est nous les cond\xc3\xa9s"
p2416
ssS'6i50VdSdYcpnkuwTV2XhfW'
p2417
(dp2418
g3
S'Niro'
p2419
sg5
I3
sg6
S'https://open.spotify.com/track/6i50VdSdYcpnkuwTV2XhfW'
p2420
sg8
S'Avant de partir'
p2421
ssS'7AQim7LbvFVZJE3O8TYgf2'
p2422
(dp2423
g3
S'XXXTENTACION'
p2424
sg5
I4
sg6
S'https://open.spotify.com/track/7AQim7LbvFVZJE3O8TYgf2'
p2425
sg8
S'Fuck Love (feat. Trippie Redd)'
p2426
ssS'7vFoFDWqTX0mHzLfrF1Cfy'
p2427
(dp2428
g3
S'OMI'
p2429
sg5
I1
sg6
S'https://open.spotify.com/track/7vFoFDWqTX0mHzLfrF1Cfy'
p2430
sg8
S'Cheerleader - Felix Jaehn Remix Radio Edit'
p2431
ssS'3dufvPMvH8OVAGKAGL1B17'
p2432
(dp2433
g3
S'Niro'
p2434
sg5
I1
sg6
S'https://open.spotify.com/track/3dufvPMvH8OVAGKAGL1B17'
p2435
sg8
S'Ambition'
p2436
ssS'1i03F8e3iYugaWN1r1QCbU'
p2437
(dp2438
g3
S'Niro'
p2439
sg5
I14
sg6
S'https://open.spotify.com/track/1i03F8e3iYugaWN1r1QCbU'
p2440
sg8
S'Sors de ma t\xc3\xaate'
p2441
ssS'4YDuN2wT9oCQDPvES6MwVv'
p2442
(dp2443
g3
S'Nassi'
p2444
sg5
I1
sg6
S'https://open.spotify.com/track/4YDuN2wT9oCQDPvES6MwVv'
p2445
sg8
S'La vie est belle'
p2446
ssS'1GQ0mfEsDH53do3fpaJHWa'
p2447
(dp2448
g3
S'Ninho'
p2449
sg5
I5
sg6
S'https://open.spotify.com/track/1GQ0mfEsDH53do3fpaJHWa'
p2450
sg8
S'Tout ira mieux'
p2451
ssS'60a0Rd6pjrkxjPbaKzXjfq'
p2452
(dp2453
g3
S'Linkin Park'
p2454
sg5
I2
sg6
S'https://open.spotify.com/track/60a0Rd6pjrkxjPbaKzXjfq'
p2455
sg8
S'In The End'
p2456
ssS'1OAh8uOEOvTDqkKFsKksCi'
p2457
(dp2458
g3
S'DJ Khaled'
p2459
sg5
I17
sg6
S'https://open.spotify.com/track/1OAh8uOEOvTDqkKFsKksCi'
p2460
sg8
S'Wild Thoughts'
p2461
ssS'6LOCAhFzZiavHcLJucLuDy'
p2462
(dp2463
g3
S'DJ Khaled'
p2464
sg5
I1
sg6
S'https://open.spotify.com/track/6LOCAhFzZiavHcLJucLuDy'
p2465
sg8
S"Don't Quit"
p2466
ssS'3N8HUkhh3jhoR7SFdNPnjL'
p2467
(dp2468
g3
S'Niro'
p2469
sg5
I1
sg6
S'https://open.spotify.com/track/3N8HUkhh3jhoR7SFdNPnjL'
p2470
sg8
S'H\xc3\xa9ritiers'
p2471
ssS'0lkQfsTMmtDA37tjjew9n0'
p2472
(dp2473
g3
S'PNL'
p2474
sg5
I42
sg6
S'https://open.spotify.com/track/0lkQfsTMmtDA37tjjew9n0'
p2475
sg8
S'Naha'
p2476
ssS'0CJ31BEjjl1tPIj0CKi9kH'
p2477
(dp2478
g3
S'Ma\xc3\xaetre Gims'
p2479
sg5
I2
sg6
S'https://open.spotify.com/track/0CJ31BEjjl1tPIj0CKi9kH'
p2480
sg8
S'Sap\xc3\xa9s comme jamais - Pilule Bleue'
p2481
ssS'7hQi0VzlgqVxF7WZ9BLr5h'
p2482
(dp2483
g3
S'Naza'
p2484
sg5
I1
sg6
S'https://open.spotify.com/track/7hQi0VzlgqVxF7WZ9BLr5h'
p2485
sg8
S'La d\xc3\xa9bauche'
p2486
ssS'35QZaWQRkmnAVqBF1TLCxQ'
p2487
(dp2488
g3
S'Ed Sheeran'
p2489
sg5
I2
sg6
S'https://open.spotify.com/track/35QZaWQRkmnAVqBF1TLCxQ'
p2490
sg8
S'Nancy Mulligan'
p2491
ssS'5eqK0tbzUPo2SoeZsov04s'
p2492
(dp2493
g3
S'21 Savage'
p2494
sg5
I7
sg6
S'https://open.spotify.com/track/5eqK0tbzUPo2SoeZsov04s'
p2495
sg8
S'Bank Account'
p2496
ssS'53Y0kdCa1CZ9gRqEuknfwy'
p2497
(dp2498
g3
S'David Guetta'
p2499
sg5
I1
sg6
S'https://open.spotify.com/track/53Y0kdCa1CZ9gRqEuknfwy'
p2500
sg8
S'Bang My Head (feat. Sia & Fetty Wap)'
p2501
ssS'5PUZLLiQzxBg6TijpzU3dH'
p2502
(dp2503
g3
S'Mister V'
p2504
sg5
I6
sg6
S'https://open.spotify.com/track/5PUZLLiQzxBg6TijpzU3dH'
p2505
sg8
S'Deutsche Qualit\xc3\xa4t'
p2506
ssS'5kkqEHDSAU5S4TgKQN1l9d'
p2507
(dp2508
g3
S'Nekfeu'
p2509
sg5
I16
sg6
S'https://open.spotify.com/track/5kkqEHDSAU5S4TgKQN1l9d'
p2510
sg8
S'Galat\xc3\xa9e'
p2511
ssS'3kxfsdsCpFgN412fpnW85Y'
p2512
(dp2513
g3
S'Childish Gambino'
p2514
sg5
I11
sg6
S'https://open.spotify.com/track/3kxfsdsCpFgN412fpnW85Y'
p2515
sg8
S'Redbone'
p2516
ssS'2ATiqvh4Dv22fEe1UjN81x'
p2517
(dp2518
g3
S'Hugo TSR'
p2519
sg5
I1
sg6
S'https://open.spotify.com/track/2ATiqvh4Dv22fEe1UjN81x'
p2520
sg8
S'Iceberg'
p2521
ssS'4q8PHoRsPUB52LFylX8Ulz'
p2522
(dp2523
g3
S'Axwell /\\ Ingrosso'
p2524
sg5
I6
sg6
S'https://open.spotify.com/track/4q8PHoRsPUB52LFylX8Ulz'
p2525
sg8
S'More Than You Know'
p2526
ssS'2Ybq4O3JksrB02I1glWh65'
p2527
(dp2528
g3
S'Lacrim'
p2529
sg5
I7
sg6
S'https://open.spotify.com/track/2Ybq4O3JksrB02I1glWh65'
p2530
sg8
S'Tristi'
p2531
ssS'43ZyHQITOjhciSUUNPVRHc'
p2532
(dp2533
g3
S'Lil Pump'
p2534
sg5
I1
sg6
S'https://open.spotify.com/track/43ZyHQITOjhciSUUNPVRHc'
p2535
sg8
S'Gucci Gang'
p2536
ssS'5p3NP9mQblDsVJLdfNZJ3I'
p2537
(dp2538
g3
S'Kendrick Lamar'
p2539
sg5
I1
sg6
S'https://open.spotify.com/track/5p3NP9mQblDsVJLdfNZJ3I'
p2540
sg8
S'GOD.'
p2541
ssS'6BaCraQ9xeLYg4Sb9TBT2X'
p2542
(dp2543
g3
S'Calvin Harris'
p2544
sg5
I1
sg6
S'https://open.spotify.com/track/6BaCraQ9xeLYg4Sb9TBT2X'
p2545
sg8
S'Feels'
p2546
ssS'0CMtPmaaL5tAx1QEXWTmtW'
p2547
(dp2548
g3
S'Niro'
p2549
sg5
I1
sg6
S'https://open.spotify.com/track/0CMtPmaaL5tAx1QEXWTmtW'
p2550
sg8
S'Magnum'
p2551
ssS'2ekn2ttSfGqwhhate0LSR0'
p2552
(dp2553
g3
S'Dua Lipa'
p2554
sg5
I11
sg6
S'https://open.spotify.com/track/2ekn2ttSfGqwhhate0LSR0'
p2555
sg8
S'New Rules'
p2556
ssS'6AwO9haDdBurUnmTMtIdfS'
p2557
(dp2558
g3
S'Hugo TSR'
p2559
sg5
I1
sg6
S'https://open.spotify.com/track/6AwO9haDdBurUnmTMtIdfS'
p2560
sg8
S'Exercice'
p2561
ssS'2xLGWmTEfHH9kxDNEGgMNc'
p2562
(dp2563
g3
S'Kalash'
p2564
sg5
I1
sg6
S'https://open.spotify.com/track/2xLGWmTEfHH9kxDNEGgMNc'
p2565
sg8
S'Mwaka Moon'
p2566
ssS'3S1eOzajaHB3LDizbx7ck5'
p2567
(dp2568
g3
S'MRC'
p2569
sg5
I12
sg6
S'https://open.spotify.com/track/3S1eOzajaHB3LDizbx7ck5'
p2570
sg8
S'Paix sans guerre'
p2571
ssS'6a3WblrDK54b4Mgf2YEdCs'
p2572
(dp2573
g3
S'Aya Nakamura'
p2574
sg5
I2
sg6
S'https://open.spotify.com/track/6a3WblrDK54b4Mgf2YEdCs'
p2575
sg8
S'Fuego (feat. Dadju)'
p2576
ssS'3DXncPQOG4VBw3QHh3S817'
p2577
(dp2578
g3
S'DJ Khaled'
p2579
sg5
I19
sg6
S'https://open.spotify.com/track/3DXncPQOG4VBw3QHh3S817'
p2580
sg8
S"I'm the One"
p2581
ssS'2Gx1DAufm1U32GFwNwRJur'
p2582
(dp2583
g3
S'Columbine'
p2584
sg5
I1
sg6
S'https://open.spotify.com/track/2Gx1DAufm1U32GFwNwRJur'
p2585
sg8
S'Talkie-walkie'
p2586
ssS'6MbH1QiphMCPTqVEVC7UYi'
p2587
(dp2588
g3
S'Drake'
p2589
sg5
I1
sg6
S'https://open.spotify.com/track/6MbH1QiphMCPTqVEVC7UYi'
p2590
sg8
S'Nothings Into Somethings'
p2591
ssS'6mORGLOz79w6VsCRLWYYuK'
p2592
(dp2593
g3
S'Lord Huron'
p2594
sg5
I2
sg6
S'https://open.spotify.com/track/6mORGLOz79w6VsCRLWYYuK'
p2595
sg8
S'The Night We Met'
p2596
ssS'5aAx2yezTd8zXrkmtKl66Z'
p2597
(dp2598
g3
S'The Weeknd'
p2599
sg5
I23
sg6
S'https://open.spotify.com/track/5aAx2yezTd8zXrkmtKl66Z'
p2600
sg8
S'Starboy'
p2601
ssS'7Avu6qOQMMs7TVsGLgT8ap'
p2602
(dp2603
g3
S'Naps'
p2604
sg5
I1
sg6
S'https://open.spotify.com/track/7Avu6qOQMMs7TVsGLgT8ap'
p2605
sg8
S'Le sens des affaires'
p2606
ssS'1SJtlNRJDeYHioymcvsqev'
p2607
(dp2608
g3
S'Camila Cabello'
p2609
sg5
I5
sg6
S'https://open.spotify.com/track/1SJtlNRJDeYHioymcvsqev'
p2610
sg8
S'Crying in the Club'
p2611
ssS'6tM2eT1MabbdZUFtiEBdjb'
p2612
(dp2613
g3
S'Lorenzo'
p2614
sg5
I10
sg6
S'https://open.spotify.com/track/6tM2eT1MabbdZUFtiEBdjb'
p2615
sg8
S'Freestyle du sale'
p2616
ssS'04DwTuZ2VBdJCCC5TROn7L'
p2617
(dp2618
g3
S'Martin Garrix'
p2619
sg5
I14
sg6
S'https://open.spotify.com/track/04DwTuZ2VBdJCCC5TROn7L'
p2620
sg8
S'In the Name of Love'
p2621
ssS'3MTETbnzZ5HORpXTIxihDA'
p2622
(dp2623
g3
S'Djadja & Dinaz'
p2624
sg5
I2
sg6
S'https://open.spotify.com/track/3MTETbnzZ5HORpXTIxihDA'
p2625
sg8
S"J'ai pas dormi de la nuit"
p2626
ssS'1n7NF1keXJfu8M0dMvqPrH'
p2627
(dp2628
g3
S'Hayce Lemsi'
p2629
sg5
I2
sg6
S'https://open.spotify.com/track/1n7NF1keXJfu8M0dMvqPrH'
p2630
sg8
S'Le bon chemin'
p2631
ssS'0yv5vkoXKYOnkLV8rl9Qvh'
p2632
(dp2633
g3
S'Hornet La Frappe'
p2634
sg5
I2
sg6
S'https://open.spotify.com/track/0yv5vkoXKYOnkLV8rl9Qvh'
p2635
sg8
S'Boca'
p2636
ssS'7bJ4mu7MHa3rHiNyKjOoSl'
p2637
(dp2638
g3
S'Drake'
p2639
sg5
I1
sg6
S'https://open.spotify.com/track/7bJ4mu7MHa3rHiNyKjOoSl'
p2640
sg8
S'Ice Melts'
p2641
ssS'6RJvRfSE8oUm7sjI3u6kdL'
p2642
(dp2643
g3
S'Kalash Criminel'
p2644
sg5
I1
sg6
S'https://open.spotify.com/track/6RJvRfSE8oUm7sjI3u6kdL'
p2645
sg8
S'Polnareff'
p2646
ssS'4ysXJQqi5zH0yz1R4sna52'
p2647
(dp2648
g3
S'Niska'
p2649
sg5
I28
sg6
S'https://open.spotify.com/track/4ysXJQqi5zH0yz1R4sna52'
p2650
sg8
S'B.O.C'
p2651
ssS'7m9XUXU54HSn7yEr1Ap4K9'
p2652
(dp2653
g3
S'Niro'
p2654
sg5
I2
sg6
S'https://open.spotify.com/track/7m9XUXU54HSn7yEr1Ap4K9'
p2655
sg8
S'Roulez'
p2656
ssS'6VRghJeP6I0w1KxkdWFfIh'
p2657
(dp2658
g3
S'Imagine Dragons'
p2659
sg5
I3
sg6
S'https://open.spotify.com/track/6VRghJeP6I0w1KxkdWFfIh'
p2660
sg8
S'Believer'
p2661
ssS'1OsmN1E397YEMD3gqkQLtz'
p2662
(dp2663
g3
S'Sadek'
p2664
sg5
I1
sg6
S'https://open.spotify.com/track/1OsmN1E397YEMD3gqkQLtz'
p2665
sg8
S"La rue c'est paro"
p2666
ssS'6SznMYPQJHzr3IwsAHLId2'
p2667
(dp2668
g3
S'Ed Sheeran'
p2669
sg5
I2
sg6
S'https://open.spotify.com/track/6SznMYPQJHzr3IwsAHLId2'
p2670
sg8
S'Bibia Be Ye Ye'
p2671
ssS'0YDbHqIcB2twpVzGLnoRXd'
p2672
(dp2673
g3
S'KeBlack'
p2674
sg5
I1
sg6
S'https://open.spotify.com/track/0YDbHqIcB2twpVzGLnoRXd'
p2675
sg8
S'Berc\xc3\xa9 par la street'
p2676
ssS'1E3zyoTHtJzsu5CjwIFIhY'
p2677
(dp2678
g3
S'Damso'
p2679
sg5
I24
sg6
S'https://open.spotify.com/track/1E3zyoTHtJzsu5CjwIFIhY'
p2680
sg8
S'\xce\x93. Mosa\xc3\xafque solitaire'
p2681
ssS'2Za1AlJNvksouPPWbXpR2X'
p2682
(dp2683
g3
S'Macklemore'
p2684
sg5
I3
sg6
S'https://open.spotify.com/track/2Za1AlJNvksouPPWbXpR2X'
p2685
sg8
S'Good Old Days (feat. Kesha)'
p2686
ssS'46NBoIAHrmR7qcUGCIFEjR'
p2687
(dp2688
g3
S'David Guetta'
p2689
sg5
I2
sg6
S'https://open.spotify.com/track/46NBoIAHrmR7qcUGCIFEjR'
p2690
sg8
S"This One's For You (feat. Zara Larsson) - Official Song UEFA EURO 2016"
p2691
ssS'64I0PKLFEKlcvc7fEVUGq0'
p2692
(dp2693
g3
S'Izzy Bizu'
p2694
sg5
I17
sg6
S'https://open.spotify.com/track/64I0PKLFEKlcvc7fEVUGq0'
p2695
sg8
S'White Tiger - Single Version'
p2696
ssS'5axLlrd4jZZs0eAKIeNtOX'
p2697
(dp2698
g3
S'Sadek'
p2699
sg5
I10
sg6
S'https://open.spotify.com/track/5axLlrd4jZZs0eAKIeNtOX'
p2700
sg8
S'En leuleu (feat. Niska)'
p2701
ssS'2H6dHxAxGq5oQ9EiinNpXT'
p2702
(dp2703
g3
S'The Strumbellas'
p2704
sg5
I9
sg6
S'https://open.spotify.com/track/2H6dHxAxGq5oQ9EiinNpXT'
p2705
sg8
S'Spirits'
p2706
ssS'3AbR9rS5iPPPG5F5TJtLMs'
p2707
(dp2708
g3
S'Sadek'
p2709
sg5
I38
sg6
S'https://open.spotify.com/track/3AbR9rS5iPPPG5F5TJtLMs'
p2710
sg8
S'La bise (feat. Brulux)'
p2711
ssS'0P8n6AIBVc88gxbliu0lej'
p2712
(dp2713
g3
S'Mister V'
p2714
sg5
I7
sg6
S'https://open.spotify.com/track/0P8n6AIBVc88gxbliu0lej'
p2715
sg8
S'Apollo13'
p2716
ssS'6paaJeUuEGW5QzOAegwuAr'
p2717
(dp2718
g3
S'Ril\xc3\xa8s'
p2719
sg5
I9
sg6
S'https://open.spotify.com/track/6paaJeUuEGW5QzOAegwuAr'
p2720
sg8
S'I Do It'
p2721
ssS'7m9OqQk4RVRkw9JJdeAw96'
p2722
(dp2723
g3
S'XXXTENTACION'
p2724
sg5
I7
sg6
S'https://open.spotify.com/track/7m9OqQk4RVRkw9JJdeAw96'
p2725
sg8
S'Jocelyn Flores'
p2726
ssS'1EaKU4dMbesXXd3BrLCtYG'
p2727
(dp2728
g3
S'Kendrick Lamar'
p2729
sg5
I3
sg6
S'https://open.spotify.com/track/1EaKU4dMbesXXd3BrLCtYG'
p2730
sg8
S'ELEMENT.'
p2731
ssS'4Hxj4rEFIPPjYj4UsZmIMq'
p2732
(dp2733
g3
S'Bigflo & Oli'
p2734
sg5
I1
sg6
S'https://open.spotify.com/track/4Hxj4rEFIPPjYj4UsZmIMq'
p2735
sg8
S'Dans mon lit'
p2736
ssS'7GzFUAGK2htn9iuSZLL4wf'
p2737
(dp2738
g3
S'KeBlack'
p2739
sg5
I19
sg6
S'https://open.spotify.com/track/7GzFUAGK2htn9iuSZLL4wf'
p2740
sg8
S"J'ai d\xc3\xa9conn\xc3\xa9"
p2741
ssS'3YOW5BmyATjFdLThldbWCt'
p2742
(dp2743
g3
S'SCH'
p2744
sg5
I7
sg6
S'https://open.spotify.com/track/3YOW5BmyATjFdLThldbWCt'
p2745
sg8
S'Allo maman'
p2746
ssS'7tSrGrv0DI8r5qrD2nHwXp'
p2747
(dp2748
g3
S'Marwa Loud'
p2749
sg5
I1
sg6
S'https://open.spotify.com/track/7tSrGrv0DI8r5qrD2nHwXp'
p2750
sg8
S'Mehdi'
p2751
ssS'1n4jwRVXdkK2U34nBDUKKT'
p2752
(dp2753
g3
S'Kendrick Lamar'
p2754
sg5
I1
sg6
S'https://open.spotify.com/track/1n4jwRVXdkK2U34nBDUKKT'
p2755
sg8
S'BLOOD.'
p2756
ssS'5Ohxk2dO5COHF1krpoPigN'
p2757
(dp2758
g3
S'Harry Styles'
p2759
sg5
I18
sg6
S'https://open.spotify.com/track/5Ohxk2dO5COHF1krpoPigN'
p2760
sg8
S'Sign of the Times'
p2761
ssS'4ZVXCnlLx85nvchPxbhyyn'
p2762
(dp2763
g3
S'Alonzo'
p2764
sg5
I7
sg6
S'https://open.spotify.com/track/4ZVXCnlLx85nvchPxbhyyn'
p2765
sg8
S'DLG'
p2766
ssS'1lQBpwzlkwNiRyCiifKtRA'
p2767
(dp2768
g3
S'Damso'
p2769
sg5
I10
sg6
S'https://open.spotify.com/track/1lQBpwzlkwNiRyCiifKtRA'
p2770
sg8
S"\xce\x99. Peur d'\xc3\xaatre p\xc3\xa8re"
p2771
ssS'5Ik150YpJw117EFg5gF9lP'
p2772
(dp2773
g3
S'Naps'
p2774
sg5
I21
sg6
S'https://open.spotify.com/track/5Ik150YpJw117EFg5gF9lP'
p2775
sg8
S'\xc3\x80 part \xc3\xa7a'
p2776
ssS'0uBu60Wd7yzm2sFrj2hSr6'
p2777
(dp2778
g3
S'Niska'
p2779
sg5
I3
sg6
S'https://open.spotify.com/track/0uBu60Wd7yzm2sFrj2hSr6'
p2780
sg8
S'Sal\xc3\xa9'
p2781
ssS'6O85MfGECKBqAK2MgSbCaj'
p2782
(dp2783
g3
S'Martin Solveig'
p2784
sg5
I23
sg6
S'https://open.spotify.com/track/6O85MfGECKBqAK2MgSbCaj'
p2785
sg8
S'Places'
p2786
ssS'4IZpNOc7DsIEKGHwzh6FKU'
p2787
(dp2788
g3
S'Alonzo'
p2789
sg5
I2
sg6
S'https://open.spotify.com/track/4IZpNOc7DsIEKGHwzh6FKU'
p2790
sg8
S'J\xe2\x80\x99\xc3\xa9cris'
p2791
ssS'4JqJofEjChNytY6MMTJsi7'
p2792
(dp2793
g3
S'Hearts & Colors'
p2794
sg5
I2
sg6
S'https://open.spotify.com/track/4JqJofEjChNytY6MMTJsi7'
p2795
sg8
S'Shame'
p2796
ssS'4mxWSdf71VFO52qFeY0fZt'
p2797
(dp2798
g3
S'Maroon 5'
p2799
sg5
I6
sg6
S'https://open.spotify.com/track/4mxWSdf71VFO52qFeY0fZt'
p2800
sg8
S'What Lovers Do (feat. SZA)'
p2801
ssS'1ZKdjffRB9iwbKrUXVXl05'
p2802
(dp2803
g3
S'Jul'
p2804
sg5
I3
sg6
S'https://open.spotify.com/track/1ZKdjffRB9iwbKrUXVXl05'
p2805
sg8
S"Mais qu'est-ce qu'on s'en bat les couilles !"
p2806
ssS'3xzsLvCaodpR7YRvKlcxXM'
p2807
(dp2808
g3
S'Lacrim'
p2809
sg5
I6
sg6
S'https://open.spotify.com/track/3xzsLvCaodpR7YRvKlcxXM'
p2810
sg8
S'Rockefeller'
p2811
ssS'4Hf7WnR761jpxPr5D46Bcd'
p2812
(dp2813
g3
S'Shawn Mendes'
p2814
sg5
I18
sg6
S'https://open.spotify.com/track/4Hf7WnR761jpxPr5D46Bcd'
p2815
sg8
S'Treat You Better'
p2816
ssS'4kKJ5CjwCtksszPMntho4N'
p2817
(dp2818
g3
S'Nekfeu'
p2819
sg5
I42
sg6
S'https://open.spotify.com/track/4kKJ5CjwCtksszPMntho4N'
p2820
sg8
S'Mauvaise graine'
p2821
ssS'7bwYKqBTLeIsS9dIMrehXX'
p2822
(dp2823
g3
S'Sadek'
p2824
sg5
I1
sg6
S'https://open.spotify.com/track/7bwYKqBTLeIsS9dIMrehXX'
p2825
sg8
S'Zahouania'
p2826
ssS'2eqHbYG0r90Y3LpZVjQOJX'
p2827
(dp2828
g3
S'HEDIA'
p2829
sg5
I16
sg6
S'https://open.spotify.com/track/2eqHbYG0r90Y3LpZVjQOJX'
p2830
sg8
S'Your Mind (feat. Kristen Marie)'
p2831
ssS'2nY6MRHWpW0AGXMoGDJOjX'
p2832
(dp2833
g3
S'Niska'
p2834
sg5
I3
sg6
S'https://open.spotify.com/track/2nY6MRHWpW0AGXMoGDJOjX'
p2835
sg8
S'R\xc3\xa9seaux'
p2836
ssS'5SaaHXMTEAO1vWanbSJMMt'
p2837
(dp2838
g3
S'Sofiane'
p2839
sg5
I5
sg6
S'https://open.spotify.com/track/5SaaHXMTEAO1vWanbSJMMt'
p2840
sg8
S"Mon p'tit loup"
p2841
ssS'5d8wWZ79eYd8OLIvAuuTm1'
p2842
(dp2843
g3
S'Djadja & Dinaz'
p2844
sg5
I5
sg6
S'https://open.spotify.com/track/5d8wWZ79eYd8OLIvAuuTm1'
p2845
sg8
S'La haine'
p2846
ssS'0UXW6ihyeYHfb4jae7QxGl'
p2847
(dp2848
g3
S'DTF'
p2849
sg5
I23
sg6
S'https://open.spotify.com/track/0UXW6ihyeYHfb4jae7QxGl'
p2850
sg8
S'100 r\xc3\xaaves'
p2851
ssS'3WJ8n8VYEiBNI0NqGyue1T'
p2852
(dp2853
g3
S'Hayce Lemsi'
p2854
sg5
I1
sg6
S'https://open.spotify.com/track/3WJ8n8VYEiBNI0NqGyue1T'
p2855
sg8
S'Cod\xc3\xa9ine'
p2856
ssS'1ka8yYr5OnUrh0k59d7Gfd'
p2857
(dp2858
g3
S'Nekfeu'
p2859
sg5
I10
sg6
S'https://open.spotify.com/track/1ka8yYr5OnUrh0k59d7Gfd'
p2860
sg8
S'O.D'
p2861
ssS'7xHWNBFm6ObGEQPaUxHuKO'
p2862
(dp2863
g3
S'Sia'
p2864
sg5
I11
sg6
S'https://open.spotify.com/track/7xHWNBFm6ObGEQPaUxHuKO'
p2865
sg8
S'The Greatest'
p2866
ssS'2fXH2iei02pBaSIdn5X4zJ'
p2867
(dp2868
g3
S'Ryan Gosling'
p2869
sg5
I1
sg6
S'https://open.spotify.com/track/2fXH2iei02pBaSIdn5X4zJ'
p2870
sg8
S'A Lovely Night - From La La Land Soundtrack'
p2871
ssS'0eH4fBQEeG45mD6hozmC2l'
p2872
(dp2873
g3
S'Sofiane'
p2874
sg5
I2
sg6
S'https://open.spotify.com/track/0eH4fBQEeG45mD6hozmC2l'
p2875
sg8
S'Savastano'
p2876
ssS'5knuzwU65gJK7IF5yJsuaW'
p2877
(dp2878
g3
S'Clean Bandit'
p2879
sg5
I37
sg6
S'https://open.spotify.com/track/5knuzwU65gJK7IF5yJsuaW'
p2880
sg8
S'Rockabye (feat. Sean Paul & Anne-Marie)'
p2881
ssS'7aF09WaavZAmAWuUeYxlYD'
p2882
(dp2883
g3
S'OneRepublic'
p2884
sg5
I10
sg6
S'https://open.spotify.com/track/7aF09WaavZAmAWuUeYxlYD'
p2885
sg8
S'Rich Love (with Seeb)'
p2886
ssS'3bWAqKDWg6u1davspr5IkS'
p2887
(dp2888
g3
S'Robin Schulz'
p2889
sg5
I18
sg6
S'https://open.spotify.com/track/3bWAqKDWg6u1davspr5IkS'
p2890
sg8
S'OK'
p2891
ssS'44VmpYuCUpa0pZQcLP75xa'
p2892
(dp2893
g3
S'Sofiane'
p2894
sg5
I2
sg6
S'https://open.spotify.com/track/44VmpYuCUpa0pZQcLP75xa'
p2895
sg8
S'DZ mafia'
p2896
ssS'42Repb4VlMz0HWpBYqyiRC'
p2897
(dp2898
g3
S'Fally Ipupa'
p2899
sg5
I12
sg6
S'https://open.spotify.com/track/42Repb4VlMz0HWpBYqyiRC'
p2900
sg8
S'Kiname (feat. Booba)'
p2901
ssS'14WWzenpaEgQZlqPq2nk4v'
p2902
(dp2903
g3
S'Rihanna'
p2904
sg5
I1
sg6
S'https://open.spotify.com/track/14WWzenpaEgQZlqPq2nk4v'
p2905
sg8
S'Work'
p2906
ssS'4myoVer3cPAUqBzDigYf7A'
p2907
(dp2908
g3
S'Damso'
p2909
sg5
I21
sg6
S'https://open.spotify.com/track/4myoVer3cPAUqBzDigYf7A'
p2910
sg8
S'\xce\x9b. Lov\xc3\xa9'
p2911
ssS'6b8Be6ljOzmkOmFslEb23P'
p2912
(dp2913
g3
S'Bruno Mars'
p2914
sg5
I17
sg6
S'https://open.spotify.com/track/6b8Be6ljOzmkOmFslEb23P'
p2915
sg8
S'24K Magic'
p2916
ssS'4cQsgP3Ikf91RYtZqnkCbY'
p2917
(dp2918
g3
S'Ninho'
p2919
sg5
I1
sg6
S'https://open.spotify.com/track/4cQsgP3Ikf91RYtZqnkCbY'
p2920
sg8
S'Malcolm'
p2921
ssS'0lTSIKJMyT9ByUliehQ3wF'
p2922
(dp2923
g3
S'Dosseh'
p2924
sg5
I1
sg6
S'https://open.spotify.com/track/0lTSIKJMyT9ByUliehQ3wF'
p2925
sg8
S'Solo'
p2926
ssS'1NAeorrSNCibpdJMpXLFeG'
p2927
(dp2928
g3
S'\xc3\x98dyssey'
p2929
sg5
I21
sg6
S'https://open.spotify.com/track/1NAeorrSNCibpdJMpXLFeG'
p2930
sg8
S'Fly (feat. Amara Abonta)'
p2931
ssS'7bSrg0OrH9eEMjRn6JhmyT'
p2932
(dp2933
g3
S'SCH'
p2934
sg5
I1
sg6
S'https://open.spotify.com/track/7bSrg0OrH9eEMjRn6JhmyT'
p2935
sg8
S'Ma kush'
p2936
ssS'04czWbqg96KSO8Szz8d0zp'
p2937
(dp2938
g3
S'Jesper Jenset'
p2939
sg5
I8
sg6
S'https://open.spotify.com/track/04czWbqg96KSO8Szz8d0zp'
p2940
sg8
S'Lies'
p2941
ssS'5yJ7tCEbgBC8ewZzUy0dBF'
p2942
(dp2943
g3
S'Ninho'
p2944
sg5
I5
sg6
S'https://open.spotify.com/track/5yJ7tCEbgBC8ewZzUy0dBF'
p2945
sg8
S'Dita (feat. H\xc3\xb6s)'
p2946
ssS'5ASacvNO76BB7Dxtp74qqz'
p2947
(dp2948
g3
S'Ma\xc3\xaetre Gims'
p2949
sg5
I20
sg6
S'https://open.spotify.com/track/5ASacvNO76BB7Dxtp74qqz'
p2950
sg8
S'Tout donner - Pilule Violette'
p2951
ssS'4NPFl8f1OfOV1uV79aFFwy'
p2952
(dp2953
g3
S'Hornet La Frappe'
p2954
sg5
I2
sg6
S'https://open.spotify.com/track/4NPFl8f1OfOV1uV79aFFwy'
p2955
sg8
S'Igo'
p2956
ssS'0L7loeTIg6akW84aEQZpCT'
p2957
(dp2958
g3
S'Major Lazer'
p2959
sg5
I35
sg6
S'https://open.spotify.com/track/0L7loeTIg6akW84aEQZpCT'
p2960
sg8
S'Light It Up (feat. Nyla & Fuse ODG) - Remix'
p2961
ssS'23luOrEVHMfoX0AhfbQuS6'
p2962
(dp2963
g3
S'Kendrick Lamar'
p2964
sg5
I1
sg6
S'https://open.spotify.com/track/23luOrEVHMfoX0AhfbQuS6'
p2965
sg8
S'FEAR.'
p2966
ssS'36giaa7roszmJh3okF5efv'
p2967
(dp2968
g3
S'Jul'
p2969
sg5
I10
sg6
S'https://open.spotify.com/track/36giaa7roszmJh3okF5efv'
p2970
sg8
S"C'est pas ma faute"
p2971
ssS'5DA77EqppDmCTWGovd4oTP'
p2972
(dp2973
g3
S'Cheat Codes'
p2974
sg5
I15
sg6
S'https://open.spotify.com/track/5DA77EqppDmCTWGovd4oTP'
p2975
sg8
S'Sex'
p2976
ssS'40aUgK48PvR8JC2KIiKKgW'
p2977
(dp2978
g3
S'Black M'
p2979
sg5
I13
sg6
S'https://open.spotify.com/track/40aUgK48PvR8JC2KIiKKgW'
p2980
sg8
S'French Kiss'
p2981
ssS'7pKIJN5rpBkJJ7kCP75meo'
p2982
(dp2983
g3
S'Bigflo & Oli'
p2984
sg5
I2
sg6
S'https://open.spotify.com/track/7pKIJN5rpBkJJ7kCP75meo'
p2985
sg8
S'\xc3\x87a va trop vite'
p2986
ssS'6HZILIRieu8S0iqY8kIKhj'
p2987
(dp2988
g3
S'Kendrick Lamar'
p2989
sg5
I13
sg6
S'https://open.spotify.com/track/6HZILIRieu8S0iqY8kIKhj'
p2990
sg8
S'DNA.'
p2991
ssS'1wlENIsHNc9Iz4K1pFKgOT'
p2992
(dp2993
g3
S'DTF'
p2994
sg5
I4
sg6
S'https://open.spotify.com/track/1wlENIsHNc9Iz4K1pFKgOT'
p2995
sg8
S'Avant de partir'
p2996
ssS'3gd5HHSJiZI6zsC8N716Fp'
p2997
(dp2998
g3
S'Django'
p2999
sg5
I18
sg6
S'https://open.spotify.com/track/3gd5HHSJiZI6zsC8N716Fp'
p3000
sg8
S'Oiseaux'
p3001
ssS'37YNulvDhyzULfhHycmhEl'
p3002
(dp3003
g3
S'Sadek'
p3004
sg5
I4
sg6
S'https://open.spotify.com/track/37YNulvDhyzULfhHycmhEl'
p3005
sg8
S'Madre mia (feat. Ninho)'
p3006
ssS'7F9vK8hNFMml4GtHsaXui6'
p3007
(dp3008
g3
S'Louis Tomlinson'
p3009
sg5
I12
sg6
S'https://open.spotify.com/track/7F9vK8hNFMml4GtHsaXui6'
p3010
sg8
S'Back to You (feat. Bebe Rexha & Digital Farm Animals)'
p3011
ssS'5lns1XJ9lTCMRBmqlhQDTZ'
p3012
(dp3013
g3
S'Niska'
p3014
sg5
I3
sg6
S'https://open.spotify.com/track/5lns1XJ9lTCMRBmqlhQDTZ'
p3015
sg8
S'B.O.C'
p3016
ssS'3N72BJfWdFQueMXe7BO5BU'
p3017
(dp3018
g3
S'Jul'
p3019
sg5
I5
sg6
S'https://open.spotify.com/track/3N72BJfWdFQueMXe7BO5BU'
p3020
sg8
S'E.T.'
p3021
ssS'0KzRZV1KTe50Mlfn1ayV6q'
p3022
(dp3023
g3
S"Rim'K"
p3024
sg5
I7
sg6
S'https://open.spotify.com/track/0KzRZV1KTe50Mlfn1ayV6q'
p3025
sg8
S'Fant\xc3\xb4me'
p3026
ssS'4ugva2W6oGPV1QgDOQjedS'
p3027
(dp3028
g3
S'SCH'
p3029
sg5
I2
sg6
S'https://open.spotify.com/track/4ugva2W6oGPV1QgDOQjedS'
p3030
sg8
S'La nuit'
p3031
ssS'391Qga37h5AOup8XpM4j3m'
p3032
(dp3033
g3
S'Djadja & Dinaz'
p3034
sg5
I2
sg6
S'https://open.spotify.com/track/391Qga37h5AOup8XpM4j3m'
p3035
sg8
S'Les crocs'
p3036
ssS'6AHgVddvpK6wQpifbtInW1'
p3037
(dp3038
g3
S'Nekfeu'
p3039
sg5
I14
sg6
S'https://open.spotify.com/track/6AHgVddvpK6wQpifbtInW1'
p3040
sg8
S'Avant tu riais'
p3041
ssS'3rOSwuTsUlJp0Pu0MkN8r8'
p3042
(dp3043
g3
S'Future'
p3044
sg5
I33
sg6
S'https://open.spotify.com/track/3rOSwuTsUlJp0Pu0MkN8r8'
p3045
sg8
S'Mask Off'
p3046
ssS'6gpcs5eMhJwax4mIfKDYQk'
p3047
(dp3048
g3
S'Calvin Harris'
p3049
sg5
I4
sg6
S'https://open.spotify.com/track/6gpcs5eMhJwax4mIfKDYQk'
p3050
sg8
S'Slide'
p3051
ssS'5bcTCxgc7xVfSaMV3RuVke'
p3052
(dp3053
g3
S'Calvin Harris'
p3054
sg5
I16
sg6
S'https://open.spotify.com/track/5bcTCxgc7xVfSaMV3RuVke'
p3055
sg8
S'Feels'
p3056
ssS'0QsvXIfqM0zZoerQfsI9lm'
p3057
(dp3058
g3
S'The Chainsmokers'
p3059
sg5
I8
sg6
S'https://open.spotify.com/track/0QsvXIfqM0zZoerQfsI9lm'
p3060
sg8
S"Don't Let Me Down"
p3061
ssS'36jQqAX9GW4QbS6jvlvjC1'
p3062
(dp3063
g3
S'Jul'
p3064
sg5
I3
sg6
S'https://open.spotify.com/track/36jQqAX9GW4QbS6jvlvjC1'
p3065
sg8
S'Fl\xc3\xaacheur fou'
p3066
ssS'1oMZuHQQXeHKJcKGOvZfCO'
p3067
(dp3068
g3
S'Hornet La Frappe'
p3069
sg5
I2
sg6
S'https://open.spotify.com/track/1oMZuHQQXeHKJcKGOvZfCO'
p3070
sg8
S"T'as g\xc3\xa9chan"
p3071
ssS'7FXXVMGfMLy1IkmgDIZJBp'
p3072
(dp3073
g3
S'Deen Burbigo'
p3074
sg5
I19
sg6
S'https://open.spotify.com/track/7FXXVMGfMLy1IkmgDIZJBp'
p3075
sg8
S'Tu r\xc3\xaaves'
p3076
ssS'4qqArAiTPueDxIp7cf87h7'
p3077
(dp3078
g3
S'M\xc3\x98'
p3079
sg5
I16
sg6
S'https://open.spotify.com/track/4qqArAiTPueDxIp7cf87h7'
p3080
sg8
S'Final Song'
p3081
ssS'0ABwXYnDvByTbKIDxfzb0I'
p3082
(dp3083
g3
S'Niska'
p3084
sg5
I2
sg6
S'https://open.spotify.com/track/0ABwXYnDvByTbKIDxfzb0I'
p3085
sg8
S'Elle avait son Djo'
p3086
ssS'5hslUAKq9I9CG2bAulFkHN'
p3087
(dp3088
g3
S'Andy Williams'
p3089
sg5
I1
sg6
S'https://open.spotify.com/track/5hslUAKq9I9CG2bAulFkHN'
p3090
sg8
S"It's the Most Wonderful Time of the Year"
p3091
ssS'2nLtzopw4rPReszdYBJU6h'
p3092
(dp3093
g3
S'Linkin Park'
p3094
sg5
I2
sg6
S'https://open.spotify.com/track/2nLtzopw4rPReszdYBJU6h'
p3095
sg8
S'Numb'
p3096
ssS'52s9tq9SmtgUPC0kq1mHEo'
p3097
(dp3098
g3
S'Django'
p3099
sg5
I1
sg6
S'https://open.spotify.com/track/52s9tq9SmtgUPC0kq1mHEo'
p3100
sg8
S'Fable'
p3101
ssS'2rF2XSPjtNavLADPSB5wvM'
p3102
(dp3103
g3
S'Sofiane'
p3104
sg5
I13
sg6
S'https://open.spotify.com/track/2rF2XSPjtNavLADPSB5wvM'
p3105
sg8
S'Ma cit\xc3\xa9 a craqu\xc3\xa9'
p3106
ssS'3a1lNhkSLSkpJE4MSHpDu9'
p3107
(dp3108
g3
S'Post Malone'
p3109
sg5
I18
sg6
S'https://open.spotify.com/track/3a1lNhkSLSkpJE4MSHpDu9'
p3110
sg8
S'Congratulations'
p3111
ssS'5d5p3ai9PLqp8bOCg7Orhu'
p3112
(dp3113
g3
S'Sofiane'
p3114
sg5
I1
sg6
S'https://open.spotify.com/track/5d5p3ai9PLqp8bOCg7Orhu'
p3115
sg8
S'Bain de sang'
p3116
ssS'1LfqARI0SU12ZCAU9xv3Iv'
p3117
(dp3118
g3
S'Jul'
p3119
sg5
I5
sg6
S'https://open.spotify.com/track/1LfqARI0SU12ZCAU9xv3Iv'
p3120
sg8
S"C'est \xc3\xa7a"
p3121
ssS'6jTEKtJvIoECSQMEZoLmjR'
p3122
(dp3123
g3
S'Hornet La Frappe'
p3124
sg5
I9
sg6
S'https://open.spotify.com/track/6jTEKtJvIoECSQMEZoLmjR'
p3125
sg8
S'Je pense \xc3\xa0 toi'
p3126
ssS'6wV12xIUb8oFY7lBy4KuQe'
p3127
(dp3128
g3
S'Aaron Carter'
p3129
sg5
I9
sg6
S'https://open.spotify.com/track/6wV12xIUb8oFY7lBy4KuQe'
p3130
sg8
S'Sooner Or Later'
p3131
ssS'5NZpY9WeWFtlHVgepfCamX'
p3132
(dp3133
g3
S'PNL'
p3134
sg5
I37
sg6
S'https://open.spotify.com/track/5NZpY9WeWFtlHVgepfCamX'
p3135
sg8
S'Dans la l\xc3\xa9gende'
p3136
ssS'73BvezTbnm3joqBGokXXsU'
p3137
(dp3138
g3
S'Jul'
p3139
sg5
I1
sg6
S'https://open.spotify.com/track/73BvezTbnm3joqBGokXXsU'
p3140
sg8
S"Ah c'est comme \xc3\xa7a !"
p3141
ssS'2fkeWbM6iqTw7oGHTYm2lw'
p3142
(dp3143
g3
S'Drake'
p3144
sg5
I2
sg6
S'https://open.spotify.com/track/2fkeWbM6iqTw7oGHTYm2lw'
p3145
sg8
S'4422'
p3146
ssS'3RSj2Chb6PwRgLQZlHvkYX'
p3147
(dp3148
g3
S'Lacrim'
p3149
sg5
I3
sg6
S'https://open.spotify.com/track/3RSj2Chb6PwRgLQZlHvkYX'
p3150
sg8
S'Mythone pas'
p3151
ssS'7vGuf3Y35N4wmASOKLUVVU'
p3152
(dp3153
g3
S'Marshmello'
p3154
sg5
I8
sg6
S'https://open.spotify.com/track/7vGuf3Y35N4wmASOKLUVVU'
p3155
sg8
S'Silence'
p3156
ssS'24Z16Y936uRTtv8ukJxc84'
p3157
(dp3158
g3
S'Sadek'
p3159
sg5
I1
sg6
S'https://open.spotify.com/track/24Z16Y936uRTtv8ukJxc84'
p3160
sg8
S'Les gants'
p3161
ssS'3FDrI0FLKzrYQiWxPhqV2W'
p3162
(dp3163
g3
S'Calvin Harris'
p3164
sg5
I4
sg6
S'https://open.spotify.com/track/3FDrI0FLKzrYQiWxPhqV2W'
p3165
sg8
S'Rollin'
p3166
ssS'0PEvNecmiHz8PsegFXXmcF'
p3167
(dp3168
g3
S'Damso'
p3169
sg5
I10
sg6
S'https://open.spotify.com/track/0PEvNecmiHz8PsegFXXmcF'
p3170
sg8
S'\xce\x9e. Une \xc3\xa2me pour deux'
p3171
ssS'6bLopGnirdrilrpdVB6Um1'
p3172
(dp3173
g3
S'Sia'
p3174
sg5
I2
sg6
S'https://open.spotify.com/track/6bLopGnirdrilrpdVB6Um1'
p3175
sg8
S'The Greatest'
p3176
ssS'1sVSoa160VMCQ3riqbtODq'
p3177
(dp3178
g3
S'Naza'
p3179
sg5
I1
sg6
S'https://open.spotify.com/track/1sVSoa160VMCQ3riqbtODq'
p3180
sg8
S'Sans probl\xc3\xa8me'
p3181
ssS'31MkGwj0SWgZaTvEt5Hgxv'
p3182
(dp3183
g3
S'P!nk'
p3184
sg5
I9
sg6
S'https://open.spotify.com/track/31MkGwj0SWgZaTvEt5Hgxv'
p3185
sg8
S'What About Us'
p3186
ssS'2JHkVxVt4iX19DpIQLwvj4'
p3187
(dp3188
g3
S'Niro'
p3189
sg5
I1
sg6
S'https://open.spotify.com/track/2JHkVxVt4iX19DpIQLwvj4'
p3190
sg8
S'GTA'
p3191
ssS'6iTVIAqZpHmCK9jrpDyDVo'
p3192
(dp3193
g3
S'Kungs'
p3194
sg5
I34
sg6
S'https://open.spotify.com/track/6iTVIAqZpHmCK9jrpDyDVo'
p3195
sg8
S'I Feel So Bad'
p3196
ssS'7hGXofGpWj5MZctbufdHOc'
p3197
(dp3198
g3
S'Alonzo'
p3199
sg5
I1
sg6
S'https://open.spotify.com/track/7hGXofGpWj5MZctbufdHOc'
p3200
sg8
S'Goodbye'
p3201
ssS'1vvNmPOiUuyCbgWmtc6yfm'
p3202
(dp3203
g3
S'Calvin Harris'
p3204
sg5
I28
sg6
S'https://open.spotify.com/track/1vvNmPOiUuyCbgWmtc6yfm'
p3205
sg8
S'My Way'
p3206
ssS'4KDWO4DWr96RxTXUiGaLTm'
p3207
(dp3208
g3
S'Columbine'
p3209
sg5
I1
sg6
S'https://open.spotify.com/track/4KDWO4DWr96RxTXUiGaLTm'
p3210
sg8
S'Enfants terribles'
p3211
ssS'04CbLJRm3XwOsGZt8mDqbj'
p3212
(dp3213
g3
S'Lacrim'
p3214
sg5
I4
sg6
S'https://open.spotify.com/track/04CbLJRm3XwOsGZt8mDqbj'
p3215
sg8
S'Judy Moncada'
p3216
ssS'6QUDs5wTqWwI4Ed68GLdlC'
p3217
(dp3218
g3
S'Ninho'
p3219
sg5
I18
sg6
S'https://open.spotify.com/track/6QUDs5wTqWwI4Ed68GLdlC'
p3220
sg8
S'Roro'
p3221
ssS'3hMqyoGZsZHwBFls2dYXLE'
p3222
(dp3223
g3
S'Jul'
p3224
sg5
I2
sg6
S'https://open.spotify.com/track/3hMqyoGZsZHwBFls2dYXLE'
p3225
sg8
S'Full Option'
p3226
ssS'56Nlo5jWQ547qaYRfH6vzS'
p3227
(dp3228
g3
S'Still Fresh'
p3229
sg5
I2
sg6
S'https://open.spotify.com/track/56Nlo5jWQ547qaYRfH6vzS'
p3230
sg8
S'Collision'
p3231
ssS'2lFWyfuXtCN8Sb7cHJILva'
p3232
(dp3233
g3
S'PNL'
p3234
sg5
I22
sg6
S'https://open.spotify.com/track/2lFWyfuXtCN8Sb7cHJILva'
p3235
sg8
S"J'suis QLF"
p3236
ssS'6wd7Ix4fHAOYaS4JbOqLDN'
p3237
(dp3238
g3
S'Bigflo & Oli'
p3239
sg5
I1
sg6
S'https://open.spotify.com/track/6wd7Ix4fHAOYaS4JbOqLDN'
p3240
sg8
S'Je suis'
p3241
ssS'2gcZZpnrxbShZPLKiNUVga'
p3242
(dp3243
g3
S'Nekfeu'
p3244
sg5
I12
sg6
S'https://open.spotify.com/track/2gcZZpnrxbShZPLKiNUVga'
p3245
sg8
S'Esquimaux'
p3246
ssS'0afhq8XCExXpqazXczTSve'
p3247
(dp3248
g3
S'Ed Sheeran'
p3249
sg5
I30
sg6
S'https://open.spotify.com/track/0afhq8XCExXpqazXczTSve'
p3250
sg8
S'Galway Girl'
p3251
ssS'167NczpNbRF7oWakJaY3Hh'
p3252
(dp3253
g3
S'Niall Horan'
p3254
sg5
I1
sg6
S'https://open.spotify.com/track/167NczpNbRF7oWakJaY3Hh'
p3255
sg8
S'Slow Hands'
p3256
ssS'0zrj9XtuveuJTvvKy3HlVg'
p3257
(dp3258
g3
S'Niro'
p3259
sg5
I1
sg6
S'https://open.spotify.com/track/0zrj9XtuveuJTvvKy3HlVg'
p3260
sg8
S'Photo de classe'
p3261
ssS'7KBfjlQ85Fqs2MCCvXSW0c'
p3262
(dp3263
g3
S'MC Fioti'
p3264
sg5
I7
sg6
S'https://open.spotify.com/track/7KBfjlQ85Fqs2MCCvXSW0c'
p3265
sg8
S'Joga o Bum Bum Tamtam'
p3266
ssS'1NDxZ7cFAo481dtYWdrUnR'
p3267
(dp3268
g3
S'Maggie Lindemann'
p3269
sg5
I21
sg6
S'https://open.spotify.com/track/1NDxZ7cFAo481dtYWdrUnR'
p3270
sg8
S'Pretty Girl - Cheat Codes X CADE Remix'
p3271
ssS'2aFiaMXmWsM3Vj72F9ksBl'
p3272
(dp3273
g3
S'DNCE'
p3274
sg5
I2
sg6
S'https://open.spotify.com/track/2aFiaMXmWsM3Vj72F9ksBl'
p3275
sg8
S'Cake By The Ocean'
p3276
ssS'32eqzSOYKNgr3QVFMVlocl'
p3277
(dp3278
g3
S'Sadek'
p3279
sg5
I4
sg6
S'https://open.spotify.com/track/32eqzSOYKNgr3QVFMVlocl'
p3280
sg8
S'Dans la lune'
p3281
ssS'54vtz2MeGYtbvOG440hsYQ'
p3282
(dp3283
g3
S'Amir'
p3284
sg5
I3
sg6
S'https://open.spotify.com/track/54vtz2MeGYtbvOG440hsYQ'
p3285
sg8
S'On dirait'
p3286
ssS'7rULRGmvjAqqTtCTucjJbe'
p3287
(dp3288
g3
S'Sofiane'
p3289
sg5
I5
sg6
S'https://open.spotify.com/track/7rULRGmvjAqqTtCTucjJbe'
p3290
sg8
S'93 empire'
p3291
ssS'4TZy1wLyHec06pwgFYDh1a'
p3292
(dp3293
g3
S'Shawn Mendes'
p3294
sg5
I18
sg6
S'https://open.spotify.com/track/4TZy1wLyHec06pwgFYDh1a'
p3295
sg8
S'Mercy'
p3296
ssS'3w49WFqZkijL4X6BdH9mD1'
p3297
(dp3298
g3
S'Sofiane'
p3299
sg5
I1
sg6
S'https://open.spotify.com/track/3w49WFqZkijL4X6BdH9mD1'
p3300
sg8
S'Dis-moi o\xc3\xb9 tu p\xc3\xa9cho'
p3301
ssS'6wR97bho2QoIiP5wxNxtQz'
p3302
(dp3303
g3
S'Djadja & Dinaz'
p3304
sg5
I29
sg6
S'https://open.spotify.com/track/6wR97bho2QoIiP5wxNxtQz'
p3305
sg8
S"C'est la m\xc3\xaame"
p3306
ssS'3RXkboS74UYzN14xTqzPyY'
p3307
(dp3308
g3
g1457
sg5
I1
sg6
S'https://open.spotify.com/track/3RXkboS74UYzN14xTqzPyY'
p3309
sg8
g1457
ssS'20H2Hd5AkUcRjB4yL3UQtJ'
p3310
(dp3311
g3
S'Fifth Harmony'
p3312
sg5
I1
sg6
S'https://open.spotify.com/track/20H2Hd5AkUcRjB4yL3UQtJ'
p3313
sg8
S'Down'
p3314
ssS'7EnD0lx98FL3jCDVqjyaBw'
p3315
(dp3316
g3
S'Lacrim'
p3317
sg5
I5
sg6
S'https://open.spotify.com/track/7EnD0lx98FL3jCDVqjyaBw'
p3318
sg8
S'Kim Jong Un'
p3319
ssS'7rqyZM53JpYj86avtfmyeg'
p3320
(dp3321
g3
S'Saint Motel'
p3322
sg5
I1
sg6
S'https://open.spotify.com/track/7rqyZM53JpYj86avtfmyeg'
p3323
sg8
S'My Type'
p3324
ssS'1FUViuNSldssMIawrOXF2i'
p3325
(dp3326
g3
S'Bebe Rexha'
p3327
sg5
I22
sg6
S'https://open.spotify.com/track/1FUViuNSldssMIawrOXF2i'
p3328
sg8
S'I Got You'
p3329
ssS'7lpfmAMzW3MlWSnXrwAGky'
p3330
(dp3331
g3
S'PNL'
p3332
sg5
I7
sg6
S'https://open.spotify.com/track/7lpfmAMzW3MlWSnXrwAGky'
p3333
sg8
S'Uranus'
p3334
ssS'3jVQeLBQoHr2ZzcrAooa6u'
p3335
(dp3336
g3
S'Kaaris'
p3337
sg5
I1
sg6
S'https://open.spotify.com/track/3jVQeLBQoHr2ZzcrAooa6u'
p3338
sg8
S'4Matic'
p3339
ssS'304PuILcpf5W0OmDEirIga'
p3340
(dp3341
g3
S'Alonzo'
p3342
sg5
I1
sg6
S'https://open.spotify.com/track/304PuILcpf5W0OmDEirIga'
p3343
sg8
S'Batard'
p3344
ssS'3cNjgVBKTJ1SvKhunrCdVy'
p3345
(dp3346
g3
S'Joel Adams'
p3347
sg5
I10
sg6
S'https://open.spotify.com/track/3cNjgVBKTJ1SvKhunrCdVy'
p3348
sg8
S"Please Don't Go"
p3349
ssS'0JWyGrbezrGg9gLZ9xsKnO'
p3350
(dp3351
g3
S'Jul'
p3352
sg5
I1
sg6
S'https://open.spotify.com/track/0JWyGrbezrGg9gLZ9xsKnO'
p3353
sg8
S"J'ai fum\xc3\xa9 ma ganja"
p3354
ssS'1EifJutqv2tG7Cwwaq2ud4'
p3355
(dp3356
g3
S'Ninho'
p3357
sg5
I5
sg6
S'https://open.spotify.com/track/1EifJutqv2tG7Cwwaq2ud4'
p3358
sg8
S'Roro'
p3359
ssS'22xSIflIEY7jl5o1u0q3pJ'
p3360
(dp3361
g3
S'Jul'
p3362
sg5
I2
sg6
S'https://open.spotify.com/track/22xSIflIEY7jl5o1u0q3pJ'
p3363
sg8
S'Qui sait'
p3364
ssS'7dl9BHIXXkBb3zsgWjRchZ'
p3365
(dp3366
g3
S'Niska'
p3367
sg5
I3
sg6
S'https://open.spotify.com/track/7dl9BHIXXkBb3zsgWjRchZ'
p3368
sg8
S'Fav\xc3\xa9las'
p3369
ssS'7yyRTcZmCiyzzJlNzGC9Ol'
p3370
(dp3371
g3
S'DRAM'
p3372
sg5
I5
sg6
S'https://open.spotify.com/track/7yyRTcZmCiyzzJlNzGC9Ol'
p3373
sg8
S'Broccoli (feat. Lil Yachty)'
p3374
ssS'4JIOC5P1G1NjhRJ2JSXm41'
p3375
(dp3376
g3
S'Dabs'
p3377
sg5
I37
sg6
S'https://open.spotify.com/track/4JIOC5P1G1NjhRJ2JSXm41'
p3378
sg8
S'Ouloulou'
p3379
ssS'7anBA0IdgFaN3Pbyk2tog0'
p3380
(dp3381
g3
S'Alice Merton'
p3382
sg5
I6
sg6
S'https://open.spotify.com/track/7anBA0IdgFaN3Pbyk2tog0'
p3383
sg8
S'No Roots'
p3384
ssS'2CvOqDpQIMw69cCzWqr5yr'
p3385
(dp3386
g3
S'Beyonc\xc3\xa9'
p3387
sg5
I1
sg6
S'https://open.spotify.com/track/2CvOqDpQIMw69cCzWqr5yr'
p3388
sg8
S'Halo'
p3389
ssS'0U050yYuyc2Gq9hrfvfEq8'
p3390
(dp3391
g3
S'Hornet La Frappe'
p3392
sg5
I33
sg6
S'https://open.spotify.com/track/0U050yYuyc2Gq9hrfvfEq8'
p3393
sg8
S'Gramme 2 peuf'
p3394
ssS'2r6C2IEw533mDs3sam5Zxx'
p3395
(dp3396
g3
S'Niska'
p3397
sg5
I3
sg6
S'https://open.spotify.com/track/2r6C2IEw533mDs3sam5Zxx'
p3398
sg8
S'Tuba Life'
p3399
ssS'6PCUP3dWmTjcTtXY02oFdT'
p3400
(dp3401
g3
S'Ed Sheeran'
p3402
sg5
I19
sg6
S'https://open.spotify.com/track/6PCUP3dWmTjcTtXY02oFdT'
p3403
sg8
S'Castle on the Hill'
p3404
ssS'6SwRhMLwNqEi6alNPVG00n'
p3405
(dp3406
g3
S'Kendrick Lamar'
p3407
sg5
I4
sg6
S'https://open.spotify.com/track/6SwRhMLwNqEi6alNPVG00n'
p3408
sg8
S'LOYALTY. FEAT. RIHANNA.'
p3409
ssS'4fB1rne6IrlH2Xk8YnIjA3'
p3410
(dp3411
g3
S'Sadek'
p3412
sg5
I4
sg6
S'https://open.spotify.com/track/4fB1rne6IrlH2Xk8YnIjA3'
p3413
sg8
S'La vache'
p3414
ssS'2HKa8sXXq9BcvCqNJNL6hc'
p3415
(dp3416
g3
S'Alonzo'
p3417
sg5
I2
sg6
S'https://open.spotify.com/track/2HKa8sXXq9BcvCqNJNL6hc'
p3418
sg8
S'K-2000'
p3419
ssS'6DOYcyXlutuZ807npR9T3E'
p3420
(dp3421
g3
S'Hornet La Frappe'
p3422
sg5
I2
sg6
S'https://open.spotify.com/track/6DOYcyXlutuZ807npR9T3E'
p3423
sg8
S'2 fois plus'
p3424
ssS'2nOZaGwMYt07nXtIeYbEiu'
p3425
(dp3426
g3
S'Aya Nakamura'
p3427
sg5
I7
sg6
S'https://open.spotify.com/track/2nOZaGwMYt07nXtIeYbEiu'
p3428
sg8
S'Comportement'
p3429
ssS'104buTcnP2AsxqB7U1FIZ4'
p3430
(dp3431
g3
S'Linkin Park'
p3432
sg5
I1
sg6
S'https://open.spotify.com/track/104buTcnP2AsxqB7U1FIZ4'
p3433
sg8
S'Heavy (feat. Kiiara)'
p3434
ssS'2wJ9TGvwOXWU9iIA9SjJch'
p3435
(dp3436
g3
S'Jul'
p3437
sg5
I3
sg6
S'https://open.spotify.com/track/2wJ9TGvwOXWU9iIA9SjJch'
p3438
sg8
S"Y'a pas de stress"
p3439
ssS'5SxsglYZ0v3VyPqRzn6mzH'
p3440
(dp3441
g3
S'Niro'
p3442
sg5
I1
sg6
S'https://open.spotify.com/track/5SxsglYZ0v3VyPqRzn6mzH'
p3443
sg8
S'On commence par o\xc3\xb9?'
p3444
ssS'0CcQNd8CINkwQfe1RDtGV6'
p3445
(dp3446
g3
S'Imagine Dragons'
p3447
sg5
I32
sg6
S'https://open.spotify.com/track/0CcQNd8CINkwQfe1RDtGV6'
p3448
sg8
S'Believer'
p3449
ssS'2aJkY20V9aQgkE8teDW6gH'
p3450
(dp3451
g3
S'Hornet La Frappe'
p3452
sg5
I1
sg6
S'https://open.spotify.com/track/2aJkY20V9aQgkE8teDW6gH'
p3453
sg8
S'Sale id\xc3\xa9e'
p3454
ssS'1PSBzsahR2AKwLJgx8ehBj'
p3455
(dp3456
g3
S'Machine Gun Kelly'
p3457
sg5
I9
sg6
S'https://open.spotify.com/track/1PSBzsahR2AKwLJgx8ehBj'
p3458
sg8
S'Bad Things (with Camila Cabello)'
p3459
ssS'7oolFzHipTMg2nL7shhdz2'
p3460
(dp3461
g3
S'Ed Sheeran'
p3462
sg5
I2
sg6
S'https://open.spotify.com/track/7oolFzHipTMg2nL7shhdz2'
p3463
sg8
S'Eraser'
p3464
ssS'7KOlJ92bu51cltsD9KU5I7'
p3465
(dp3466
g3
S'Migos'
p3467
sg5
I8
sg6
S'https://open.spotify.com/track/7KOlJ92bu51cltsD9KU5I7'
p3468
sg8
S'T-Shirt'
p3469
ssS'0zw22D56UqMoouDHEp3d8p'
p3470
(dp3471
g3
S'Booba'
p3472
sg5
I16
sg6
S'https://open.spotify.com/track/0zw22D56UqMoouDHEp3d8p'
p3473
sg8
S'E.L.E.P.H.A.N.T'
p3474
ssS'6YHNKVx7gSsOX7xq6jaqeq'
p3475
(dp3476
g3
S'Nekfeu'
p3477
sg5
I16
sg6
S'https://open.spotify.com/track/6YHNKVx7gSsOX7xq6jaqeq'
p3478
sg8
S'Humano\xc3\xafde'
p3479
ssS'3m660poUr1chesgkkjQM7P'
p3480
(dp3481
g3
S'Demi Lovato'
p3482
sg5
I2
sg6
S'https://open.spotify.com/track/3m660poUr1chesgkkjQM7P'
p3483
sg8
S'Sorry Not Sorry'
p3484
ssS'5EnYT6F7wEcdege6mDHEfO'
p3485
(dp3486
g3
S'Drake'
p3487
sg5
I9
sg6
S'https://open.spotify.com/track/5EnYT6F7wEcdege6mDHEfO'
p3488
sg8
S'Signs'
p3489
ssS'5rpXQrrqcxq9orSXmsSPQM'
p3490
(dp3491
g3
S'Sadek'
p3492
sg5
I1
sg6
S'https://open.spotify.com/track/5rpXQrrqcxq9orSXmsSPQM'
p3493
sg8
S'Imma'
p3494
ssS'7ownploiAvsusK41kXzJo7'
p3495
(dp3496
g3
S'Jul'
p3497
sg5
I1
sg6
S'https://open.spotify.com/track/7ownploiAvsusK41kXzJo7'
p3498
sg8
S'En douceur'
p3499
ssS'0r4qxmoxISSJzz3X7WcBRS'
p3500
(dp3501
g3
S'Alonzo'
p3502
sg5
I4
sg6
S'https://open.spotify.com/track/0r4qxmoxISSJzz3X7WcBRS'
p3503
sg8
S'Suis-moi'
p3504
ssS'3ebXMykcMXOcLeJ9xZ17XH'
p3505
(dp3506
g3
S'Martin Garrix'
p3507
sg5
I31
sg6
S'https://open.spotify.com/track/3ebXMykcMXOcLeJ9xZ17XH'
p3508
sg8
S'Scared to Be Lonely'
p3509
ssS'62YfFKVSgYnVsf2ZXmxjV4'
p3510
(dp3511
g3
S'Hornet La Frappe'
p3512
sg5
I4
sg6
S'https://open.spotify.com/track/62YfFKVSgYnVsf2ZXmxjV4'
p3513
sg8
S'Igo'
p3514
ssS'6fujklziTHa8uoM5OQSfIo'
p3515
(dp3516
g3
S'Rae Sremmurd'
p3517
sg5
I13
sg6
S'https://open.spotify.com/track/6fujklziTHa8uoM5OQSfIo'
p3518
sg8
S'Black Beatles'
p3519
ssS'19WjVVgXjdKXfLXoaDPwTM'
p3520
(dp3521
g3
S'Taylor Swift'
p3522
sg5
I1
sg6
S'https://open.spotify.com/track/19WjVVgXjdKXfLXoaDPwTM'
p3523
sg8
S'...Ready For It?'
p3524
ssS'4GsZNxO5EqEIrmfcFZ5lrH'
p3525
(dp3526
g3
S'Kalash Criminel'
p3527
sg5
I9
sg6
S'https://open.spotify.com/track/4GsZNxO5EqEIrmfcFZ5lrH'
p3528
sg8
S'Enterrez-les'
p3529
ssS'6UjfByV1lDLW0SOVQA4NAi'
p3530
(dp3531
g3
S'Drake'
p3532
sg5
I2
sg6
S'https://open.spotify.com/track/6UjfByV1lDLW0SOVQA4NAi'
p3533
sg8
S'Gyalchester'
p3534
ssS'0tKcYR2II1VCQWT79i5NrW'
p3535
(dp3536
g3
S'Imagine Dragons'
p3537
sg5
I19
sg6
S'https://open.spotify.com/track/0tKcYR2II1VCQWT79i5NrW'
p3538
sg8
S'Thunder'
p3539
ssS'0ru2WYJ9xIMwc5MmU4MyOg'
p3540
(dp3541
g3
S'Feder'
p3542
sg5
I1
sg6
S'https://open.spotify.com/track/0ru2WYJ9xIMwc5MmU4MyOg'
p3543
sg8
S'Blind - Radio Edit'
p3544
ssS'1VuThr0P0HnW0RQLgBRWhi'
p3545
(dp3546
g3
S'MHD'
p3547
sg5
I8
sg6
S'https://open.spotify.com/track/1VuThr0P0HnW0RQLgBRWhi'
p3548
sg8
S'Afro Trap Pt. 9 (Faut les wet)'
p3549
ssS'6c12fBpCtuVIq8OFxT0A3S'
p3550
(dp3551
g3
S'Feder'
p3552
sg5
I17
sg6
S'https://open.spotify.com/track/6c12fBpCtuVIq8OFxT0A3S'
p3553
sg8
S'Lordly (feat. Alex Aiono)'
p3554
ssS'4HeTbgW1dDHxE8LrNL5HDP'
p3555
(dp3556
g3
S'Ninho'
p3557
sg5
I5
sg6
S'https://open.spotify.com/track/4HeTbgW1dDHxE8LrNL5HDP'
p3558
sg8
S'Lov\xc3\xa9 (feat. Gradur)'
p3559
ssS'2NF8A7C6tICScdRaZ0BrEe'
p3560
(dp3561
g3
S'Ofenbach'
p3562
sg5
I5
sg6
S'https://open.spotify.com/track/2NF8A7C6tICScdRaZ0BrEe'
p3563
sg8
S'Katchi (Ofenbach vs. Nick Waterhouse)'
p3564
ssS'6npyDB4mn8MO1A1h666FTk'
p3565
(dp3566
g3
S'PNL'
p3567
sg5
I14
sg6
S'https://open.spotify.com/track/6npyDB4mn8MO1A1h666FTk'
p3568
sg8
S'Bambina'
p3569
ssS'3SqvR3HYLlCTYzbDXJ52OC'
p3570
(dp3571
g3
S'LP'
p3572
sg5
I12
sg6
S'https://open.spotify.com/track/3SqvR3HYLlCTYzbDXJ52OC'
p3573
sg8
S'Lost on You'
p3574
ssS'1jR1IgIku9uMN065DLrhlz'
p3575
(dp3576
g3
S'MHD'
p3577
sg5
I1
sg6
S'https://open.spotify.com/track/1jR1IgIku9uMN065DLrhlz'
p3578
sg8
S'Bravo'
p3579
ssS'5zCO1EU3KpM2tsFaZdu9vq'
p3580
(dp3581
g3
S'Kaaris'
p3582
sg5
I35
sg6
S'https://open.spotify.com/track/5zCO1EU3KpM2tsFaZdu9vq'
p3583
sg8
S'Boyz N The Hood'
p3584
ssS'4c3I4JPNYHQvgG55mvVECj'
p3585
(dp3586
g3
S'Lartiste'
p3587
sg5
I17
sg6
S'https://open.spotify.com/track/4c3I4JPNYHQvgG55mvVECj'
p3588
sg8
S'Clandestina'
p3589
ssS'6D8tdYo3mBOIUrWAk8wOVo'
p3590
(dp3591
g3
S'Alonzo'
p3592
sg5
I23
sg6
S'https://open.spotify.com/track/6D8tdYo3mBOIUrWAk8wOVo'
p3593
sg8
S"Feu d'artifice"
p3594
ssS'1LViZZWxC7jqIQqBwTrT7z'
p3595
(dp3596
g3
S'S.Crew'
p3597
sg5
I9
sg6
S'https://open.spotify.com/track/1LViZZWxC7jqIQqBwTrT7z'
p3598
sg8
S'J\xe2\x80\x99aurais pas d\xc3\xbb'
p3599
ssS'0JXCDz5Qq2GK1CSSlsyOgZ'
p3600
(dp3601
g3
S'Lacrim'
p3602
sg5
I2
sg6
S'https://open.spotify.com/track/0JXCDz5Qq2GK1CSSlsyOgZ'
p3603
sg8
S'Gustavo Gaviria'
p3604
ssS'6OZh916QF8XNunWaP97WEZ'
p3605
(dp3606
g3
S'Jonas Blue'
p3607
sg5
I6
sg6
S'https://open.spotify.com/track/6OZh916QF8XNunWaP97WEZ'
p3608
sg8
S'Fast Car'
p3609
ssS'2rizacJSyD9S1IQUxUxnsK'
p3610
(dp3611
g3
S'The Chainsmokers'
p3612
sg5
I10
sg6
S'https://open.spotify.com/track/2rizacJSyD9S1IQUxUxnsK'
p3613
sg8
S'All We Know'
p3614
ssS'2QXNsj3HmqbDqbw0R9F5zo'
p3615
(dp3616
g3
S'Sofiane'
p3617
sg5
I21
sg6
S'https://open.spotify.com/track/2QXNsj3HmqbDqbw0R9F5zo'
p3618
sg8
S'Toka'
p3619
ssS'709SyC7ZrnB5UB8SgPJZKG'
p3620
(dp3621
g3
S'Niro'
p3622
sg5
I3
sg6
S'https://open.spotify.com/track/709SyC7ZrnB5UB8SgPJZKG'
p3623
sg8
S'S3'
p3624
ssS'4G3Ve2jKVthQckMEhG03MH'
p3625
(dp3626
g3
S'Alonzo'
p3627
sg5
I4
sg6
S'https://open.spotify.com/track/4G3Ve2jKVthQckMEhG03MH'
p3628
sg8
S"Feu d'artifice"
p3629
ssS'0tgVpDi06FyKpA1z0VMD4v'
p3630
(dp3631
g3
S'Ed Sheeran'
p3632
sg5
I11
sg6
S'https://open.spotify.com/track/0tgVpDi06FyKpA1z0VMD4v'
p3633
sg8
S'Perfect'
p3634
ssS'5NNlUMcOEOdoOIwwaWXv0k'
p3635
(dp3636
g3
S'Maroon 5'
p3637
sg5
I17
sg6
S'https://open.spotify.com/track/5NNlUMcOEOdoOIwwaWXv0k'
p3638
sg8
S'Cold'
p3639
ssS'6oeOygVCHGKsfK1t1HL0bp'
p3640
(dp3641
g3
S'Joke'
p3642
sg5
I1
sg6
S'https://open.spotify.com/track/6oeOygVCHGKsfK1t1HL0bp'
p3643
sg8
S'Vision'
p3644
ssS'3AqwdLkl62kRTE8TwXxeIM'
p3645
(dp3646
g3
S'Ninho'
p3647
sg5
I5
sg6
S'https://open.spotify.com/track/3AqwdLkl62kRTE8TwXxeIM'
p3648
sg8
S'Comme pr\xc3\xa9vu'
p3649
ssS'7nXqw84iR5ShlcUgxj23OS'
p3650
(dp3651
g3
S'Hornet La Frappe'
p3652
sg5
I1
sg6
S'https://open.spotify.com/track/7nXqw84iR5ShlcUgxj23OS'
p3653
sg8
S'Mis\xc3\xa8re'
p3654
ssS'5GhWx7Hzju2oRyhVY6k9QH'
p3655
(dp3656
g3
S'Kaaris'
p3657
sg5
I17
sg6
S'https://open.spotify.com/track/5GhWx7Hzju2oRyhVY6k9QH'
p3658
sg8
S'Blow'
p3659
ssS'359buFCogBGX23Dgdqcrws'
p3660
(dp3661
g3
S'Niska'
p3662
sg5
I3
sg6
S'https://open.spotify.com/track/359buFCogBGX23Dgdqcrws'
p3663
sg8
S'Ah bon ?'
p3664
ssS'75UFzgBCaVwJJ4IVIaatpe'
p3665
(dp3666
g3
S'Damso'
p3667
sg5
I24
sg6
S'https://open.spotify.com/track/75UFzgBCaVwJJ4IVIaatpe'
p3668
sg8
S'N. J Respect R'
p3669
ssS'7gxLYfaAKjyC4pEs8rXW7Y'
p3670
(dp3671
g3
S'Petit Biscuit'
p3672
sg5
I3
sg6
S'https://open.spotify.com/track/7gxLYfaAKjyC4pEs8rXW7Y'
p3673
sg8
S'Gravitation'
p3674
ssS'0hNduWmlWmEmuwEFcYvRu1'
p3675
(dp3676
g3
S'Petit Biscuit'
p3677
sg5
I42
sg6
S'https://open.spotify.com/track/0hNduWmlWmEmuwEFcYvRu1'
p3678
sg8
S'Sunset Lover'
p3679
ssS'31A12lFNLuAnvTTLLAenr2'
p3680
(dp3681
g3
S'Dabs'
p3682
sg5
I1
sg6
S'https://open.spotify.com/track/31A12lFNLuAnvTTLLAenr2'
p3683
sg8
S'De la mulla'
p3684
ssS'1x5sYLZiu9r5E43kMlt9f8'
p3685
(dp3686
g3
S'Clean Bandit'
p3687
sg5
I30
sg6
S'https://open.spotify.com/track/1x5sYLZiu9r5E43kMlt9f8'
p3688
sg8
S'Symphony (feat. Zara Larsson)'
p3689
ssS'2091VoRuYGLceKmindxKbH'
p3690
(dp3691
g3
S'Jul'
p3692
sg5
I3
sg6
S'https://open.spotify.com/track/2091VoRuYGLceKmindxKbH'
p3693
sg8
S'Le 46 de Rossi'
p3694
ssS'2hgzdQdnfWwtdpZbhZlV72'
p3695
(dp3696
g3
S'Jennifer Lopez'
p3697
sg5
I22
sg6
S'https://open.spotify.com/track/2hgzdQdnfWwtdpZbhZlV72'
p3698
sg8
S"Ain't Your Mama"
p3699
ssS'5BApvdlSsPBHVr5i0ItN50'
p3700
(dp3701
g3
S'Zaho'
p3702
sg5
I1
sg6
S'https://open.spotify.com/track/5BApvdlSsPBHVr5i0ItN50'
p3703
sg8
S'Laissez-les kouma (feat. MHD)'
p3704
ssS'2rb5MvYT7ZIxbKW5hfcHx8'
p3705
(dp3706
g3
S'J Balvin'
p3707
sg5
I14
sg6
S'https://open.spotify.com/track/2rb5MvYT7ZIxbKW5hfcHx8'
p3708
sg8
S'Mi Gente'
p3709
ssS'337NxxJAxClIStxYcu7HNG'
p3710
(dp3711
g3
S'Naps'
p3712
sg5
I23
sg6
S'https://open.spotify.com/track/337NxxJAxClIStxYcu7HNG'
p3713
sg8
S'Pochon bleu'
p3714
ssS'4keaFVdkeBYgKPq59PlM9J'
p3715
(dp3716
g3
S'Jul'
p3717
sg5
I1
sg6
S'https://open.spotify.com/track/4keaFVdkeBYgKPq59PlM9J'
p3718
sg8
S'Dr\xc3\xb4le de vie'
p3719
ssS'4RhPtvcQqowlT2HSc00LxY'
p3720
(dp3721
g3
S'Kaaris'
p3722
sg5
I14
sg6
S'https://open.spotify.com/track/4RhPtvcQqowlT2HSc00LxY'
p3723
sg8
S'Poussi\xc3\xa8re'
p3724
ssS'3bVbQvGVIe4n24AzyXovXh'
p3725
(dp3726
g3
g1457
sg5
I1
sg6
S'https://open.spotify.com/track/3bVbQvGVIe4n24AzyXovXh'
p3727
sg8
g1457
ssS'4lLHbTSxQ5BMGfiLEParKm'
p3728
(dp3729
g3
S'Vald'
p3730
sg5
I1
sg6
S'https://open.spotify.com/track/4lLHbTSxQ5BMGfiLEParKm'
p3731
sg8
S'Strip'
p3732
ssS'0urkIfT5vismLuYRfEsoGF'
p3733
(dp3734
g3
S'Hayce Lemsi'
p3735
sg5
I1
sg6
S'https://open.spotify.com/track/0urkIfT5vismLuYRfEsoGF'
p3736
sg8
S'Haute sph\xc3\xa8re'
p3737
ssS'7glCCLrAWlSB0E16XeoSMt'
p3738
(dp3739
g3
S'Sadek'
p3740
sg5
I1
sg6
S'https://open.spotify.com/track/7glCCLrAWlSB0E16XeoSMt'
p3741
sg8
S"La tour (feat. Jok'air)"
p3742
ssS'2qQ9rKLbylbmmmR9RUSdWI'
p3743
(dp3744
g3
S'Hornet La Frappe'
p3745
sg5
I25
sg6
S'https://open.spotify.com/track/2qQ9rKLbylbmmmR9RUSdWI'
p3746
sg8
S'Double h'
p3747
ssS'4BwcvkALEWX18xXDgXSVb6'
p3748
(dp3749
g3
S'Niska'
p3750
sg5
I3
sg6
S'https://open.spotify.com/track/4BwcvkALEWX18xXDgXSVb6'
p3751
sg8
S'Amour X'
p3752
ssS'4S1ZmpEshXG3S0OLdodb1W'
p3753
(dp3754
g3
S'Sneazzy'
p3755
sg5
I32
sg6
S'https://open.spotify.com/track/4S1ZmpEshXG3S0OLdodb1W'
p3756
sg8
S'Skurt Cobain'
p3757
ssS'1orn9GlxeBODSMfK1d0d92'
p3758
(dp3759
g3
S'Lorenzo'
p3760
sg5
I3
sg6
S'https://open.spotify.com/track/1orn9GlxeBODSMfK1d0d92'
p3761
sg8
S'Le son qui fait plaiz'
p3762
ssS'3IpVpvmYy0a2sXdDIdkAZA'
p3763
(dp3764
g3
S'Jul'
p3765
sg5
I8
sg6
S'https://open.spotify.com/track/3IpVpvmYy0a2sXdDIdkAZA'
p3766
sg8
S"Je m'en fous de ta nana"
p3767
ssS'6DNtNfH8hXkqOX1sjqmI7p'
p3768
(dp3769
g3
S'Major Lazer'
p3770
sg5
I13
sg6
S'https://open.spotify.com/track/6DNtNfH8hXkqOX1sjqmI7p'
p3771
sg8
S'Cold Water (feat. Justin Bieber & M\xc3\x98)'
p3772
ssS'1eDfSe8ZSnjMDwLQKqBlPU'
p3773
(dp3774
g3
S'Gradur'
p3775
sg5
I9
sg6
S'https://open.spotify.com/track/1eDfSe8ZSnjMDwLQKqBlPU'
p3776
sg8
S'Dans ma vie'
p3777
ssS'3t0J8vI9StQD8KIBkT2Cp5'
p3778
(dp3779
g3
S'Alan Walker'
p3780
sg5
I6
sg6
S'https://open.spotify.com/track/3t0J8vI9StQD8KIBkT2Cp5'
p3781
sg8
S'Tired - Kygo Remix'
p3782
ssS'1sXUWdKx03aP9Gmzft58rt'
p3783
(dp3784
g3
S'Julia Michaels'
p3785
sg5
I24
sg6
S'https://open.spotify.com/track/1sXUWdKx03aP9Gmzft58rt'
p3786
sg8
S'Issues'
p3787
ssS'6dbdxneD4mLKDgXJ6GQkJm'
p3788
(dp3789
g3
S'Soprano'
p3790
sg5
I25
sg6
S'https://open.spotify.com/track/6dbdxneD4mLKDgXJ6GQkJm'
p3791
sg8
S'Roule'
p3792
ssS'3QiAAp20rPC3dcAtKtMaqQ'
p3793
(dp3794
g3
S'Elvis Presley'
p3795
sg5
I1
sg6
S'https://open.spotify.com/track/3QiAAp20rPC3dcAtKtMaqQ'
p3796
sg8
S'Blue Christmas'
p3797
ssS'5t9fmZx0pcNxLykKTv6eOe'
p3798
(dp3799
g3
S'Nekfeu'
p3800
sg5
I40
sg6
S'https://open.spotify.com/track/5t9fmZx0pcNxLykKTv6eOe'
p3801
sg8
S'Saturne'
p3802
ssS'1FgmP7AOTcn7MGYmImj0kn'
p3803
(dp3804
g3
S'Macklemore'
p3805
sg5
I1
sg6
S'https://open.spotify.com/track/1FgmP7AOTcn7MGYmImj0kn'
p3806
sg8
S"Ain't Gonna Die Tonight (feat. Eric Nally)"
p3807
ssS'1zayuwd1YLZsYDArkruHdL'
p3808
(dp3809
g3
S'Kendrick Lamar'
p3810
sg5
I1
sg6
S'https://open.spotify.com/track/1zayuwd1YLZsYDArkruHdL'
p3811
sg8
S'The Heart Part 4'
p3812
ssS'3daqmC2kTItwFF7A8C1VHu'
p3813
(dp3814
g3
S'Hooss'
p3815
sg5
I6
sg6
S'https://open.spotify.com/track/3daqmC2kTItwFF7A8C1VHu'
p3816
sg8
S'A la Gustavo'
p3817
ssS'14oOKFGuXu8DqvOe1W8vao'
p3818
(dp3819
g3
S'Katy Perry'
p3820
sg5
I2
sg6
S'https://open.spotify.com/track/14oOKFGuXu8DqvOe1W8vao'
p3821
sg8
S'Bon App\xc3\xa9tit'
p3822
ssS'34gF2KI4iF0MAZ9IwwVv35'
p3823
(dp3824
g3
S'Kalash Criminel'
p3825
sg5
I5
sg6
S'https://open.spotify.com/track/34gF2KI4iF0MAZ9IwwVv35'
p3826
sg8
S'Euphorie'
p3827
ssS'4BHSjbYylfOH5WAGusDyni'
p3828
(dp3829
g3
S'Kendrick Lamar'
p3830
sg5
I2
sg6
S'https://open.spotify.com/track/4BHSjbYylfOH5WAGusDyni'
p3831
sg8
S'YAH.'
p3832
ssS'1louJpMmzEicAn7lzDalPW'
p3833
(dp3834
g3
S'Cheat Codes'
p3835
sg5
I3
sg6
S'https://open.spotify.com/track/1louJpMmzEicAn7lzDalPW'
p3836
sg8
S'No Promises (feat. Demi Lovato)'
p3837
ssS'2BYiWgDk243sjYEDjs2agc'
p3838
(dp3839
g3
S'Damso'
p3840
sg5
I21
sg6
S'https://open.spotify.com/track/2BYiWgDk243sjYEDjs2agc'
p3841
sg8
S'Amn\xc3\xa9sie'
p3842
ssS'2pJZ1v8HezrAoZ0Fhzby92'
p3843
(dp3844
g3
S'Ed Sheeran'
p3845
sg5
I2
sg6
S'https://open.spotify.com/track/2pJZ1v8HezrAoZ0Fhzby92'
p3846
sg8
S'What Do I Know?'
p3847
ssS'2jBleFNl3YK8lyJc1OvxXt'
p3848
(dp3849
g3
S'PNL'
p3850
sg5
I40
sg6
S'https://open.spotify.com/track/2jBleFNl3YK8lyJc1OvxXt'
p3851
sg8
S"Jusqu'au dernier gramme"
p3852
ssS'0LMv3sc83AI7tJCkvSWPvO'
p3853
(dp3854
g3
S'Orelsan'
p3855
sg5
I4
sg6
S'https://open.spotify.com/track/0LMv3sc83AI7tJCkvSWPvO'
p3856
sg8
S'Basique'
p3857
ssS'1D6cda9SECd1AoFVCgehL9'
p3858
(dp3859
g3
S'Black M'
p3860
sg5
I1
sg6
S'https://open.spotify.com/track/1D6cda9SECd1AoFVCgehL9'
p3861
sg8
S'Fr\xc3\xa9rot'
p3862
ssS'1Slwb6dOYkBlWal1PGtnNg'
p3863
(dp3864
g3
S'Ed Sheeran'
p3865
sg5
I8
sg6
S'https://open.spotify.com/track/1Slwb6dOYkBlWal1PGtnNg'
p3866
sg8
S'Thinking Out Loud'
p3867
ssS'7y4ELJ02ZssUMSkJiTfq2o'
p3868
(dp3869
g3
S'Niska'
p3870
sg5
I3
sg6
S'https://open.spotify.com/track/7y4ELJ02ZssUMSkJiTfq2o'
p3871
sg8
S"Chasse \xc3\xa0 l'homme"
p3872
ssS'40RLLrs3LXJljYRnikGOTr'
p3873
(dp3874
g3
S'Niro'
p3875
sg5
I1
sg6
S'https://open.spotify.com/track/40RLLrs3LXJljYRnikGOTr'
p3876
sg8
S'On va la faire'
p3877
ssS'2fgk04HR0nlgNysfX7fKF0'
p3878
(dp3879
g3
S'Lorenzo'
p3880
sg5
I17
sg6
S'https://open.spotify.com/track/2fgk04HR0nlgNysfX7fKF0'
p3881
sg8
S'Fume \xc3\xa0 fond'
p3882
ssS'3B54sVLJ402zGa6Xm4YGNe'
p3883
(dp3884
g3
S'French Montana'
p3885
sg5
I14
sg6
S'https://open.spotify.com/track/3B54sVLJ402zGa6Xm4YGNe'
p3886
sg8
S'Unforgettable'
p3887
ssS'25VUrDOMnM5j3FHxfJrB9p'
p3888
(dp3889
g3
S'SCH'
p3890
sg5
I5
sg6
S'https://open.spotify.com/track/25VUrDOMnM5j3FHxfJrB9p'
p3891
sg8
S'Nino Brown'
p3892
ssS'20o8OE1CzLtTOHiuPpNYtx'
p3893
(dp3894
g3
S'Rohff'
p3895
sg5
I1
sg6
S'https://open.spotify.com/track/20o8OE1CzLtTOHiuPpNYtx'
p3896
sg8
S'Broly'
p3897
ssS'4fuhLKAuSxRY5OO2hwARlY'
p3898
(dp3899
g3
S'Ninho'
p3900
sg5
I5
sg6
S'https://open.spotify.com/track/4fuhLKAuSxRY5OO2hwARlY'
p3901
sg8
S'Caramelo'
p3902
ssS'2habSXqcJGExM6JJyskY7O'
p3903
(dp3904
g3
S'Miley Cyrus'
p3905
sg5
I6
sg6
S'https://open.spotify.com/track/2habSXqcJGExM6JJyskY7O'
p3906
sg8
S'Malibu'
p3907
ssS'3j4Ud4QSbVITcQ0bgwfg8X'
p3908
(dp3909
g3
S'Jul'
p3910
sg5
I1
sg6
S'https://open.spotify.com/track/3j4Ud4QSbVITcQ0bgwfg8X'
p3911
sg8
S'Tout va bene'
p3912
ssS'6i0V12jOa3mr6uu4WYhUBr'
p3913
(dp3914
g3
S'Twenty One Pilots'
p3915
sg5
I20
sg6
S'https://open.spotify.com/track/6i0V12jOa3mr6uu4WYhUBr'
p3916
sg8
S'Heathens'
p3917
ssS'0nhKXS1KL8ffn40Un1q91D'
p3918
(dp3919
g3
S'Sofiane'
p3920
sg5
I13
sg6
S'https://open.spotify.com/track/0nhKXS1KL8ffn40Un1q91D'
p3921
sg8
S'Poto'
p3922
ssS'6X3U6O4adFSanohAaUxViv'
p3923
(dp3924
g3
S'Lacrim'
p3925
sg5
I6
sg6
S'https://open.spotify.com/track/6X3U6O4adFSanohAaUxViv'
p3926
sg8
S'2 Pac'
p3927
ssS'08GhiNwYij4HNVkBZnJvft'
p3928
(dp3929
g3
S'Ninho'
p3930
sg5
I9
sg6
S'https://open.spotify.com/track/08GhiNwYij4HNVkBZnJvft'
p3931
sg8
S'Mamacita'
p3932
ssS'5vMAKJ78vhNtvbIKz4yeIY'
p3933
(dp3934
g3
S'Don Diablo'
p3935
sg5
I3
sg6
S'https://open.spotify.com/track/5vMAKJ78vhNtvbIKz4yeIY'
p3936
sg8
S'Cutting Shapes'
p3937
ssS'6TIU9Ehmi6dMzZK73Ym4yj'
p3938
(dp3939
g3
S'Ed Sheeran'
p3940
sg5
I1
sg6
S'https://open.spotify.com/track/6TIU9Ehmi6dMzZK73Ym4yj'
p3941
sg8
S'Save Myself'
p3942
ssS'6bXd0YhKLCTvlLVc4tErH9'
p3943
(dp3944
g3
S'Jul'
p3945
sg5
I21
sg6
S'https://open.spotify.com/track/6bXd0YhKLCTvlLVc4tErH9'
p3946
sg8
S'Tchikita'
p3947
ssS'05k8JclzlJZuO6dmfFmFW6'
p3948
(dp3949
g3
S'Niska'
p3950
sg5
I3
sg6
S'https://open.spotify.com/track/05k8JclzlJZuO6dmfFmFW6'
p3951
sg8
S'Story X'
p3952
ssS'2HzJCYwtTXqrj72mE2hnEW'
p3953
(dp3954
g3
S'Jul'
p3955
sg5
I3
sg6
S'https://open.spotify.com/track/2HzJCYwtTXqrj72mE2hnEW'
p3956
sg8
S'Mon tiek ti amo'
p3957
ssS'73UUv80sAkyqer5NdeupIn'
p3958
(dp3959
g3
S'SCH'
p3960
sg5
I2
sg6
S'https://open.spotify.com/track/73UUv80sAkyqer5NdeupIn'
p3961
sg8
S'Pas la paix'
p3962
ssS'1aHcjrULtaukPXENZPUlxr'
p3963
(dp3964
g3
S'Sofiane'
p3965
sg5
I1
sg6
S'https://open.spotify.com/track/1aHcjrULtaukPXENZPUlxr'
p3966
sg8
S'Cordelette'
p3967
ssS'1R17cgUv6HeQFa78dzqb7s'
p3968
(dp3969
g3
S'Justin Hurwitz'
p3970
sg5
I4
sg6
S'https://open.spotify.com/track/1R17cgUv6HeQFa78dzqb7s'
p3971
sg8
S'Mia & Sebastian\xe2\x80\x99s Theme - From La La Land Soundtrack'
p3972
ssS'3NJgevot1EhwnMKXOoxH4I'
p3973
(dp3974
g3
S'Jul'
p3975
sg5
I1
sg6
S'https://open.spotify.com/track/3NJgevot1EhwnMKXOoxH4I'
p3976
sg8
S'Avec mes gars'
p3977
ssS'376JSYpMMIJteMBozHUix0'
p3978
(dp3979
g3
S'Jul'
p3980
sg5
I12
sg6
S'https://open.spotify.com/track/376JSYpMMIJteMBozHUix0'
p3981
sg8
S'Je ne me vois pas briller'
p3982
ssS'2hMBPbAkEC0wu6iylhdiaJ'
p3983
(dp3984
g3
S'DJ Sem'
p3985
sg5
I13
sg6
S'https://open.spotify.com/track/2hMBPbAkEC0wu6iylhdiaJ'
p3986
sg8
S'Mi Coraz\xc3\xb3n'
p3987
ssS'6fxVffaTuwjgEk5h9QyRjy'
p3988
(dp3989
g3
S'Ed Sheeran'
p3990
sg5
I1
sg6
S'https://open.spotify.com/track/6fxVffaTuwjgEk5h9QyRjy'
p3991
sg8
S'Photograph'
p3992
ssS'2kVHAQKVtczchKctctzbtK'
p3993
(dp3994
g3
S'Katy Perry'
p3995
sg5
I3
sg6
S'https://open.spotify.com/track/2kVHAQKVtczchKctctzbtK'
p3996
sg8
S'Swish Swish'
p3997
ssS'3KuzFFXQsjmSe5M5FeHQiM'
p3998
(dp3999
g3
S'Jul'
p4000
sg5
I1
sg6
S'https://open.spotify.com/track/3KuzFFXQsjmSe5M5FeHQiM'
p4001
sg8
S'Quand on est pas l\xc3\xa0'
p4002
ssS'2sOrroHqKbYFP2MfHxhQMc'
p4003
(dp4004
g3
S"Rim'K"
p4005
sg5
I42
sg6
S'https://open.spotify.com/track/2sOrroHqKbYFP2MfHxhQMc'
p4006
sg8
S'Cellophan\xc3\xa9'
p4007
ssS'634INaiWUQZp8642lLx5Nk'
p4008
(dp4009
g3
S'Jul'
p4010
sg5
I1
sg6
S'https://open.spotify.com/track/634INaiWUQZp8642lLx5Nk'
p4011
sg8
S'Je ne joue pas les thugs'
p4012
ssS'6jx8glNnMLY16il6EdPASE'
p4013
(dp4014
g3
S'MMZ'
p4015
sg5
I1
sg6
S'https://open.spotify.com/track/6jx8glNnMLY16il6EdPASE'
p4016
sg8
S'Miroir miroir'
p4017
ssS'7xE4vKvjqUTtHyJ9zi0k1q'
p4018
(dp4019
g3
S'Emma Stone'
p4020
sg5
I5
sg6
S'https://open.spotify.com/track/7xE4vKvjqUTtHyJ9zi0k1q'
p4021
sg8
S'Someone In The Crowd - From La La Land Soundtrack'
p4022
ssS'6nxQdXa1uAL0rY72wPZu89'
p4023
(dp4024
g3
S'John Legend'
p4025
sg5
I16
sg6
S'https://open.spotify.com/track/6nxQdXa1uAL0rY72wPZu89'
p4026
sg8
S'Love Me Now'
p4027
ssS'0cW4qZevtGLVy7aejt6N3Y'
p4028
(dp4029
g3
S'Alonzo'
p4030
sg5
I7
sg6
S'https://open.spotify.com/track/0cW4qZevtGLVy7aejt6N3Y'
p4031
sg8
S'Papa allo'
p4032
ssS'6kex4EBAj0WHXDKZMEJaaF'
p4033
(dp4034
g3
S'Jason Derulo'
p4035
sg5
I29
sg6
S'https://open.spotify.com/track/6kex4EBAj0WHXDKZMEJaaF'
p4036
sg8
S'Swalla (feat. Nicki Minaj & Ty Dolla $ign)'
p4037
ssS'2bMocJclgbsdzP7W3i0ktl'
p4038
(dp4039
g3
S'Scridge'
p4040
sg5
I1
sg6
S'https://open.spotify.com/track/2bMocJclgbsdzP7W3i0ktl'
p4041
sg8
S'Samira'
p4042
ssS'3vjnuagiopTRGWIBNaZJF0'
p4043
(dp4044
g3
S'Hugo TSR'
p4045
sg5
I1
sg6
S'https://open.spotify.com/track/3vjnuagiopTRGWIBNaZJF0'
p4046
sg8
S'L\xc3\xa0-haut'
p4047
ssS'6zQyTiNXgxLpD0RqUxeDVz'
p4048
(dp4049
g3
S'Kalash Criminel'
p4050
sg5
I1
sg6
S'https://open.spotify.com/track/6zQyTiNXgxLpD0RqUxeDVz'
p4051
sg8
S'Guedro - Remix'
p4052
ssS'4pz0KRMGCwgqLcZ6bgQKLB'
p4053
(dp4054
g3
S'Lacrim'
p4055
sg5
I3
sg6
S'https://open.spotify.com/track/4pz0KRMGCwgqLcZ6bgQKLB'
p4056
sg8
S'Nuit blanche'
p4057
ssS'0gbBzIqrECJOEPvQJIBFs5'
p4058
(dp4059
g3
S'Lorde'
p4060
sg5
I12
sg6
S'https://open.spotify.com/track/0gbBzIqrECJOEPvQJIBFs5'
p4061
sg8
S'Green Light'
p4062
ssS'7wvYgrsqXAgzkUXPRKLkAN'
p4063
(dp4064
g3
S'Alonzo'
p4065
sg5
I1
sg6
S'https://open.spotify.com/track/7wvYgrsqXAgzkUXPRKLkAN'
p4066
sg8
S'La vraie vie'
p4067
ssS'3NdDpSvN911VPGivFlV5d0'
p4068
(dp4069
g3
S'ZAYN'
p4070
sg5
I38
sg6
S'https://open.spotify.com/track/3NdDpSvN911VPGivFlV5d0'
p4071
sg8
S'I Don\xe2\x80\x99t Wanna Live Forever (Fifty Shades Darker) - From Fifty Shades Darker (Original Motion Picture Soundtrack)'
p4072
ssS'0iC6b6zaBQg7VekaL6wRZM'
p4073
(dp4074
g3
S'Hugo TSR'
p4075
sg5
I1
sg6
S'https://open.spotify.com/track/0iC6b6zaBQg7VekaL6wRZM'
p4076
sg8
S'Rei'
p4077
ssS'7KXjTSCq5nL1LoYtL7XAwS'
p4078
(dp4079
g3
S'Kendrick Lamar'
p4080
sg5
I28
sg6
S'https://open.spotify.com/track/7KXjTSCq5nL1LoYtL7XAwS'
p4081
sg8
S'HUMBLE.'
p4082
ssS'0fyRY1wwzxMVbU4UibH39K'
p4083
(dp4084
g3
S'Slimane'
p4085
sg5
I1
sg6
S'https://open.spotify.com/track/0fyRY1wwzxMVbU4UibH39K'
p4086
sg8
S'Ab\xc3\xaem\xc3\xa9e'
p4087
ssS'0S3bHR0WqGHgq9D8pSbjfJ'
p4088
(dp4089
g3
S"Rim'K"
p4090
sg5
I1
sg6
S'https://open.spotify.com/track/0S3bHR0WqGHgq9D8pSbjfJ'
p4091
sg8
S'Personne'
p4092
ssS'2ILphwTYci8Vq9cP9BdUW7'
p4093
(dp4094
g3
S'Kalash Criminel'
p4095
sg5
I3
sg6
S'https://open.spotify.com/track/2ILphwTYci8Vq9cP9BdUW7'
p4096
sg8
S'Piano sombre'
p4097
ssS'4wbmLB3IZzEIgi7VGAb0lf'
p4098
(dp4099
g3
S'Ninho'
p4100
sg5
I5
sg6
S'https://open.spotify.com/track/4wbmLB3IZzEIgi7VGAb0lf'
p4101
sg8
S'Pourquoi'
p4102
ssS'2cMupQ1HCvkbSk2nNSRlXw'
p4103
(dp4104
g3
S'Kalash Criminel'
p4105
sg5
I7
sg6
S'https://open.spotify.com/track/2cMupQ1HCvkbSk2nNSRlXw'
p4106
sg8
S'M\xc3\xa9langer'
p4107
ssS'1KTI6rzwOvc1QUpAsbf87U'
p4108
(dp4109
g3
S'Djadja & Dinaz'
p4110
sg5
I9
sg6
S'https://open.spotify.com/track/1KTI6rzwOvc1QUpAsbf87U'
p4111
sg8
S'Dans la cit\xc3\xa9'
p4112
ssS'6Na5uKk5SsqZimk0hAWo8y'
p4113
(dp4114
g3
S'Drake'
p4115
sg5
I2
sg6
S'https://open.spotify.com/track/6Na5uKk5SsqZimk0hAWo8y'
p4116
sg8
S'Signs'
p4117
ssS'6yTVOsy72uo6BUIfmgLyAB'
p4118
(dp4119
g3
S'Vald'
p4120
sg5
I1
sg6
S'https://open.spotify.com/track/6yTVOsy72uo6BUIfmgLyAB'
p4121
sg8
S'Petite chatte'
p4122
ssS'1WC2ctyzNjpgkhF0dplias'
p4123
(dp4124
g3
S'Broken Back'
p4125
sg5
I4
sg6
S'https://open.spotify.com/track/1WC2ctyzNjpgkhF0dplias'
p4126
sg8
S'Halcyon Birds'
p4127
ssS'36rJPxwMaQV4EL7N8f8UXO'
p4128
(dp4129
g3
S'Djadja & Dinaz'
p4130
sg5
I12
sg6
S'https://open.spotify.com/track/36rJPxwMaQV4EL7N8f8UXO'
p4131
sg8
S'Mal\xc3\xa9fique'
p4132
ssS'5SPUwpZUn2Glzl5M0gafQp'
p4133
(dp4134
g3
S'Bigflo & Oli'
p4135
sg5
I1
sg6
S'https://open.spotify.com/track/5SPUwpZUn2Glzl5M0gafQp'
p4136
sg8
S'La vie normale'
p4137
ssS'26LK30839pwfdnTYnDUxU3'
p4138
(dp4139
g3
S'Niska'
p4140
sg5
I3
sg6
S'https://open.spotify.com/track/26LK30839pwfdnTYnDUxU3'
p4141
sg8
S'D.M.B'
p4142
ssS'0n2bvWvMwr0gbjcuTm92eW'
p4143
(dp4144
g3
S'Lana Del Rey'
p4145
sg5
I1
sg6
S'https://open.spotify.com/track/0n2bvWvMwr0gbjcuTm92eW'
p4146
sg8
S'Love'
p4147
ssS'3AsAuGTaDQzavZZThyYlop'
p4148
(dp4149
g3
S'NEIKED'
p4150
sg5
I25
sg6
S'https://open.spotify.com/track/3AsAuGTaDQzavZZThyYlop'
p4151
sg8
S'Sexual'
p4152
ssS'0IqKeD8ZSP72KbGYyzEcAs'
p4153
(dp4154
g3
S'Hozier'
p4155
sg5
I1
sg6
S'https://open.spotify.com/track/0IqKeD8ZSP72KbGYyzEcAs'
p4156
sg8
S'Take Me To Church'
p4157
ssS'0FSmLzJo6mRBJfh7JbJjuC'
p4158
(dp4159
g3
S'Fally Ipupa'
p4160
sg5
I10
sg6
S'https://open.spotify.com/track/0FSmLzJo6mRBJfh7JbJjuC'
p4161
sg8
S'Bad Boy (feat. Aya Nakamura)'
p4162
ssS'3nd9UtBDugmxTwhSOzJE8K'
p4163
(dp4164
g3
S'Mister V'
p4165
sg5
I7
sg6
S'https://open.spotify.com/track/3nd9UtBDugmxTwhSOzJE8K'
p4166
sg8
S'Petit d\xc3\xa9jeuner'
p4167
ssS'57z2lJFdaCMs2ocq7sdjew'
p4168
(dp4169
g3
S'Disiz La Peste'
p4170
sg5
I1
sg6
S'https://open.spotify.com/track/57z2lJFdaCMs2ocq7sdjew'
p4171
sg8
S'Splash'
p4172
ssS'69bp2EbF7Q2rqc5N3ylezZ'
p4173
(dp4174
g3
S'Justin Bieber'
p4175
sg5
I1
sg6
S'https://open.spotify.com/track/69bp2EbF7Q2rqc5N3ylezZ'
p4176
sg8
S'Sorry'
p4177
ssS'2JJrn7v7lzYluRyu10qVAP'
p4178
(dp4179
g3
S'Jul'
p4180
sg5
I10
sg6
S'https://open.spotify.com/track/2JJrn7v7lzYluRyu10qVAP'
p4181
sg8
S'Qui a dit ?'
p4182
ssS'2c5V0zLWBGh6qg15AJZOAn'
p4183
(dp4184
g3
S'Jul'
p4185
sg5
I5
sg6
S'https://open.spotify.com/track/2c5V0zLWBGh6qg15AJZOAn'
p4186
sg8
S'Je fais le sourd'
p4187
ssS'38I7kUjout62xJYJsa3dkr'
p4188
(dp4189
g3
S'Aya Nakamura'
p4190
sg5
I1
sg6
S'https://open.spotify.com/track/38I7kUjout62xJYJsa3dkr'
p4191
sg8
S'Karma'
p4192
ssS'5Y8xlzhEKsvgl1NxO3LPbY'
p4193
(dp4194
g3
S"Rim'K"
p4195
sg5
I3
sg6
S'https://open.spotify.com/track/5Y8xlzhEKsvgl1NxO3LPbY'
p4196
sg8
S'Rien de lavable'
p4197
ssS'2cnKEkpVUSV4wnjQiTWfH6'
p4198
(dp4199
g3
S'Wisin'
p4200
sg5
I2
sg6
S'https://open.spotify.com/track/2cnKEkpVUSV4wnjQiTWfH6'
p4201
sg8
S'Esc\xc3\xa1pate Conmigo'
p4202
ssS'0LPBqEwdmKlnATtDiMpIKB'
p4203
(dp4204
g3
S'Hooss'
p4205
sg5
I5
sg6
S'https://open.spotify.com/track/0LPBqEwdmKlnATtDiMpIKB'
p4206
sg8
S'La Provence'
p4207
ssS'2dqLk7ezV15LEJEwUmEbXB'
p4208
(dp4209
g3
S'Marian Hill'
p4210
sg5
I10
sg6
S'https://open.spotify.com/track/2dqLk7ezV15LEJEwUmEbXB'
p4211
sg8
S'Down'
p4212
ssS'4Hx9AXbsy3mJNfHbu8cF5H'
p4213
(dp4214
g3
S'Kalash Criminel'
p4215
sg5
I1
sg6
S'https://open.spotify.com/track/4Hx9AXbsy3mJNfHbu8cF5H'
p4216
sg8
S'Shottas'
p4217
ssS'0myHuhA1FkppaClYHRoxX0'
p4218
(dp4219
g3
S'SCH'
p4220
sg5
I22
sg6
S'https://open.spotify.com/track/0myHuhA1FkppaClYHRoxX0'
p4221
sg8
S'6.45i'
p4222
ssS'49qQQcd8wONsOy3PwnZKHB'
p4223
(dp4224
g3
S'Jul'
p4225
sg5
I15
sg6
S'https://open.spotify.com/track/49qQQcd8wONsOy3PwnZKHB'
p4226
sg8
S'Ma jolie'
p4227
ssS'59B7zyMX6ClvnkBeqQWQ0b'
p4228
(dp4229
g3
S'Sadek'
p4230
sg5
I7
sg6
S'https://open.spotify.com/track/59B7zyMX6ClvnkBeqQWQ0b'
p4231
sg8
S'Petit prince'
p4232
ssS'6RUKPb4LETWmmr3iAEQktW'
p4233
(dp4234
g3
S'The Chainsmokers'
p4235
sg5
I33
sg6
S'https://open.spotify.com/track/6RUKPb4LETWmmr3iAEQktW'
p4236
sg8
S'Something Just Like This'
p4237
ssS'7M16mAuWuFA5rC9HvkXaGx'
p4238
(dp4239
g3
S'Jax Jones'
p4240
sg5
I5
sg6
S'https://open.spotify.com/track/7M16mAuWuFA5rC9HvkXaGx'
p4241
sg8
S"You Don't Know Me - Radio Edit"
p4242
ssS'5cbyl4wFM4UYnQGoA0dcAk'
p4243
(dp4244
g3
S'Jul'
p4245
sg5
I14
sg6
S'https://open.spotify.com/track/5cbyl4wFM4UYnQGoA0dcAk'
p4246
sg8
S"On m'appelle l'ovni"
p4247
ssS'0aPYkaC4fsLau7hFqTW5YS'
p4248
(dp4249
g3
S'SCH'
p4250
sg5
I2
sg6
S'https://open.spotify.com/track/0aPYkaC4fsLau7hFqTW5YS'
p4251
sg8
S'M\xc3\xa9t\xc3\xa9ore'
p4252
ssS'2CPqh63wRVscbceKcPxwvv'
p4253
(dp4254
g3
S'Mike Perry'
p4255
sg5
I9
sg6
S'https://open.spotify.com/track/2CPqh63wRVscbceKcPxwvv'
p4256
sg8
S'The Ocean'
p4257
ssS'6x8j5V85ZJHtvOSjSamcVc'
p4258
(dp4259
g3
S'MHD'
p4260
sg5
I35
sg6
S'https://open.spotify.com/track/6x8j5V85ZJHtvOSjSamcVc'
p4261
sg8
S'Afro Trap Pt. 7 (La puissance)'
p4262
ssS'2BnqjCRKj00LtQBU8RNKnr'
p4263
(dp4264
g3
S'Busy P'
p4265
sg5
I2
sg6
S'https://open.spotify.com/track/2BnqjCRKj00LtQBU8RNKnr'
p4266
sg8
S'Genie (feat. Mayer Hawthorne)'
p4267
ssS'3HPG02VPLx1ORwaWN5Wy3l'
p4268
(dp4269
g3
S'MMZ'
p4270
sg5
I8
sg6
S'https://open.spotify.com/track/3HPG02VPLx1ORwaWN5Wy3l'
p4271
sg8
S'Bulma'
p4272
ssS'0ofbQMrRDsUaVKq2mGLEAb'
p4273
(dp4274
g3
S'Camila Cabello'
p4275
sg5
I8
sg6
S'https://open.spotify.com/track/0ofbQMrRDsUaVKq2mGLEAb'
p4276
sg8
S'Havana'
p4277
ssS'0Tg5XGjRZHTf9MHsgXJ1Ke'
p4278
(dp4279
g3
S'Timal'
p4280
sg5
I1
sg6
S'https://open.spotify.com/track/0Tg5XGjRZHTf9MHsgXJ1Ke'
p4281
sg8
S'5\xc3\xa8me rapport'
p4282
ssS'7liU84dTZWOSZWIPgTEQd8'
p4283
(dp4284
g3
S'Hornet La Frappe'
p4285
sg5
I2
sg6
S'https://open.spotify.com/track/7liU84dTZWOSZWIPgTEQd8'
p4286
sg8
S'\xc3\x87a passe'
p4287
ssS'1Zu1IfKUQsuhARjy6DmUGc'
p4288
(dp4289
g3
S'Kaaris'
p4290
sg5
I1
sg6
S'https://open.spotify.com/track/1Zu1IfKUQsuhARjy6DmUGc'
p4291
sg8
S'Dozo'
p4292
ssS'0vXSYZOYs8I9bYumO0Y7td'
p4293
(dp4294
g3
S'Djadja & Dinaz'
p4295
sg5
I15
sg6
S'https://open.spotify.com/track/0vXSYZOYs8I9bYumO0Y7td'
p4296
sg8
S'Souviens-toi'
p4297
ssS'5nQHYFZC2mcUF1ouFBPsz1'
p4298
(dp4299
g3
S'Scridge'
p4300
sg5
I18
sg6
S'https://open.spotify.com/track/5nQHYFZC2mcUF1ouFBPsz1'
p4301
sg8
S'Pour walou'
p4302
ssS'1xznGGDReH1oQq0xzbwXa3'
p4303
(dp4304
g3
S'Drake'
p4305
sg5
I42
sg6
S'https://open.spotify.com/track/1xznGGDReH1oQq0xzbwXa3'
p4306
sg8
S'One Dance'
p4307
ssS'5GXAXm5YOmYT0kL5jHvYBt'
p4308
(dp4309
g3
S'The Weeknd'
p4310
sg5
I40
sg6
S'https://open.spotify.com/track/5GXAXm5YOmYT0kL5jHvYBt'
p4311
sg8
S'I Feel It Coming'
p4312
ssS'2z0UxeFL42USbvokDnLwmp'
p4313
(dp4314
g3
S'Niska'
p4315
sg5
I3
sg6
S'https://open.spotify.com/track/2z0UxeFL42USbvokDnLwmp'
p4316
sg8
S'H&M'
p4317
ssS'6IZvVAP7VPPnsGX6bvgkqg'
p4318
(dp4319
g3
S'Kendrick Lamar'
p4320
sg5
I2
sg6
S'https://open.spotify.com/track/6IZvVAP7VPPnsGX6bvgkqg'
p4321
sg8
S'PRIDE.'
p4322
ssS'0lMbuWUpfTWhEmOKxppEau'
p4323
(dp4324
g3
S'Calvin Harris'
p4325
sg5
I9
sg6
S'https://open.spotify.com/track/0lMbuWUpfTWhEmOKxppEau'
p4326
sg8
S'Rollin'
p4327
ssS'5h8dzFxWdKeLABCmUqAr5y'
p4328
(dp4329
g3
S'Hornet La Frappe'
p4330
sg5
I2
sg6
S'https://open.spotify.com/track/5h8dzFxWdKeLABCmUqAr5y'
p4331
sg8
S'Mon ex'
p4332
ssS'6Y6mUgZmUadVvfFuoGuy64'
p4333
(dp4334
g3
S'Niska'
p4335
sg5
I21
sg6
S'https://open.spotify.com/track/6Y6mUgZmUadVvfFuoGuy64'
p4336
sg8
S"Chasse \xc3\xa0 l'homme"
p4337
ssS'3cFsmM51N5zMAuu1nNY4Tw'
p4338
(dp4339
g3
S'Sean Paul'
p4340
sg5
I30
sg6
S'https://open.spotify.com/track/3cFsmM51N5zMAuu1nNY4Tw'
p4341
sg8
S'No Lie'
p4342
ssS'51ChrwmUPDJvedPQnIU8Ls'
p4343
(dp4344
g3
S'Ed Sheeran'
p4345
sg5
I4
sg6
S'https://open.spotify.com/track/51ChrwmUPDJvedPQnIU8Ls'
p4346
sg8
S'Dive'
p4347
ssS'5i0hIGH4KGEYW49BWD759o'
p4348
(dp4349
g3
S'Alonzo'
p4350
sg5
I2
sg6
S'https://open.spotify.com/track/5i0hIGH4KGEYW49BWD759o'
p4351
sg8
S"La paix n'a pas de prix"
p4352
ssS'6jA8HL9i4QGzsj6fjoxp8Y'
p4353
(dp4354
g3
S'Martin Garrix'
p4355
sg5
I20
sg6
S'https://open.spotify.com/track/6jA8HL9i4QGzsj6fjoxp8Y'
p4356
sg8
S'There for You'
p4357
ssS'4jgTc6njkNCMonjSUBz89V'
p4358
(dp4359
g3
S'Kaaris'
p4360
sg5
I10
sg6
S'https://open.spotify.com/track/4jgTc6njkNCMonjSUBz89V'
p4361
sg8
S'Nador'
p4362
ssS'1CUVN2kn7mW5FjkqXTR2W1'
p4363
(dp4364
g3
S'Jonas Blue'
p4365
sg5
I5
sg6
S'https://open.spotify.com/track/1CUVN2kn7mW5FjkqXTR2W1'
p4366
sg8
S'Perfect Strangers'
p4367
ssS'6l83gaj4INg0DoQAc0A1NL'
p4368
(dp4369
g3
S'Jul'
p4370
sg5
I3
sg6
S'https://open.spotify.com/track/6l83gaj4INg0DoQAc0A1NL'
p4371
sg8
S'\xc2\xbf C\xc3\xb3mo Te Llamas ?'
p4372
ssS'4c2W3VKsOFoIg2SFaO6DY5'
p4373
(dp4374
g3
S'Rita Ora'
p4375
sg5
I19
sg6
S'https://open.spotify.com/track/4c2W3VKsOFoIg2SFaO6DY5'
p4376
sg8
S'Your Song'
p4377
ssS'0SGkqnVQo9KPytSri1H6cF'
p4378
(dp4379
g3
S'Big Sean'
p4380
sg5
I3
sg6
S'https://open.spotify.com/track/0SGkqnVQo9KPytSri1H6cF'
p4381
sg8
S'Bounce Back'
p4382
ssS'7iJHlQF4d4GtgJ06DjQcDV'
p4383
(dp4384
g3
S'Sofiane'
p4385
sg5
I19
sg6
S'https://open.spotify.com/track/7iJHlQF4d4GtgJ06DjQcDV'
p4386
sg8
S'X'
p4387
ssS'7jli3QR8e7nanIo5h8s97v'
p4388
(dp4389
g3
S'Sneazzy'
p4390
sg5
I1
sg6
S'https://open.spotify.com/track/7jli3QR8e7nanIo5h8s97v'
p4391
sg8
S'Parle pas trop'
p4392
ssS'27SdWb2rFzO6GWiYDBTD9j'
p4393
(dp4394
g3
S'Sia'
p4395
sg5
I36
sg6
S'https://open.spotify.com/track/27SdWb2rFzO6GWiYDBTD9j'
p4396
sg8
S'Cheap Thrills'
p4397
ssS'63z6p4gpgnpZprANkpBIHH'
p4398
(dp4399
g3
S'Dosseh'
p4400
sg5
I42
sg6
S'https://open.spotify.com/track/63z6p4gpgnpZprANkpBIHH'
p4401
sg8
S'Infr\xc3\xa9quentables'
p4402
ssS'5xhJmd0I15jFcEdqxfCzKk'
p4403
(dp4404
g3
S'The Chainsmokers'
p4405
sg5
I27
sg6
S'https://open.spotify.com/track/5xhJmd0I15jFcEdqxfCzKk'
p4406
sg8
S"It Won't Kill Ya"
p4407
ssS'6PJ8FF6UR8FZXfEvpHkIVN'
p4408
(dp4409
g3
S'Ed Sheeran'
p4410
sg5
I3
sg6
S'https://open.spotify.com/track/6PJ8FF6UR8FZXfEvpHkIVN'
p4411
sg8
S'How Would You Feel (Paean)'
p4412
ssS'79fzoZLfu1drrTyJwTWD6b'
p4413
(dp4414
g3
S'MZ'
p4415
sg5
I12
sg6
S'https://open.spotify.com/track/79fzoZLfu1drrTyJwTWD6b'
p4416
sg8
S'Les princes'
p4417
ssS'6xQpigKTf8aIv19e1Bar01'
p4418
(dp4419
g3
S'Lacrim'
p4420
sg5
I4
sg6
S'https://open.spotify.com/track/6xQpigKTf8aIv19e1Bar01'
p4421
sg8
S'Pardon...'
p4422
ssS'3hxRKXzZS0XRYGZ123JDNH'
p4423
(dp4424
g3
S'Synapson'
p4425
sg5
I1
sg6
S'https://open.spotify.com/track/3hxRKXzZS0XRYGZ123JDNH'
p4426
sg8
S'Djon Maya Ma\xc3\xaf - feat. Victor D\xc3\xa9m\xc3\xa9 [Original Mix]'
p4427
ssS'5ndfVSDyPq90jaIUhNPeby'
p4428
(dp4429
g3
S'Katy Perry'
p4430
sg5
I2
sg6
S'https://open.spotify.com/track/5ndfVSDyPq90jaIUhNPeby'
p4431
sg8
S'Chained To The Rhythm'
p4432
ssS'5uCax9HTNlzGybIStD3vDh'
p4433
(dp4434
g3
S'James Arthur'
p4435
sg5
I26
sg6
S'https://open.spotify.com/track/5uCax9HTNlzGybIStD3vDh'
p4436
sg8
S"Say You Won't Let Go"
p4437
ssS'7qiZfU4dY1lWllzX7mPBI3'
p4438
(dp4439
g3
S'Ed Sheeran'
p4440
sg5
I40
sg6
S'https://open.spotify.com/track/7qiZfU4dY1lWllzX7mPBI3'
p4441
sg8
S'Shape of You'
p4442
ssS'6nGSXuZrE5P7gSvtJs4unC'
p4443
(dp4444
g3
S'Damso'
p4445
sg5
I24
sg6
S'https://open.spotify.com/track/6nGSXuZrE5P7gSvtJs4unC'
p4446
sg8
S'\xce\x9a. Kin la belle'
p4447
ssS'06bPKV61n8jzxFAv0l29kv'
p4448
(dp4449
g3
S'Mister V'
p4450
sg5
I2
sg6
S'https://open.spotify.com/track/06bPKV61n8jzxFAv0l29kv'
p4451
sg8
S'Bonobo (Bonus Track)'
p4452
ssS'5aY9VVE6wxFwfqsyImf1MU'
p4453
(dp4454
g3
S'Vald'
p4455
sg5
I5
sg6
S'https://open.spotify.com/track/5aY9VVE6wxFwfqsyImf1MU'
p4456
sg8
S'Troph\xc3\xa9e'
p4457
ssS'0wfbD5rAksdXUzRvMfM3x5'
p4458
(dp4459
g3
S'The Chainsmokers'
p4460
sg5
I1
sg6
S'https://open.spotify.com/track/0wfbD5rAksdXUzRvMfM3x5'
p4461
sg8
S'The One'
p4462
ssS'2u36zlaWvNzzn0OtEJmJog'
p4463
(dp4464
g3
S'Sneazzy'
p4465
sg5
I1
sg6
S'https://open.spotify.com/track/2u36zlaWvNzzn0OtEJmJog'
p4466
sg8
S'Everyday'
p4467
ssS'2EEeOnHehOozLq4aS0n6SL'
p4468
(dp4469
g3
S'KYLE'
p4470
sg5
I5
sg6
S'https://open.spotify.com/track/2EEeOnHehOozLq4aS0n6SL'
p4471
sg8
S'iSpy (feat. Lil Yachty)'
p4472
ssS'2fQrGHiQOvpL9UgPvtYy6G'
p4473
(dp4474
g3
S'21 Savage'
p4475
sg5
I3
sg6
S'https://open.spotify.com/track/2fQrGHiQOvpL9UgPvtYy6G'
p4476
sg8
S'Bank Account'
p4477
ssS'7dwnNn1mjiZJx7gClyEs6E'
p4478
(dp4479
g3
S'S.Pri Noir'
p4480
sg5
I1
sg6
S'https://open.spotify.com/track/7dwnNn1mjiZJx7gClyEs6E'
p4481
sg8
S'Baby Gyal'
p4482
ssS'0NUvPSk4VzBW0ClqgGxNRj'
p4483
(dp4484
g3
S'Vald'
p4485
sg5
I30
sg6
S'https://open.spotify.com/track/0NUvPSk4VzBW0ClqgGxNRj'
p4486
sg8
S'Vitrine'
p4487
ssS'0yOGHkmTFfH3wT4NsTZnHA'
p4488
(dp4489
g3
S"Rim'K"
p4490
sg5
I2
sg6
S'https://open.spotify.com/track/0yOGHkmTFfH3wT4NsTZnHA'
p4491
sg8
S'Room Service'
p4492
ssS'2nda1Wj3wGXJLie05QYaFq'
p4493
(dp4494
g3
S'Hayce Lemsi'
p4495
sg5
I1
sg6
S'https://open.spotify.com/track/2nda1Wj3wGXJLie05QYaFq'
p4496
sg8
S'Mercy'
p4497
ssS'1F2HXIJrE2Xn81OzT2zZvW'
p4498
(dp4499
g3
S'French Montana'
p4500
sg5
I12
sg6
S'https://open.spotify.com/track/1F2HXIJrE2Xn81OzT2zZvW'
p4501
sg8
S'Unforgettable'
p4502
ssS'63QQ2n6nZZXary0hJoVktP'
p4503
(dp4504
g3
S'Mister V'
p4505
sg5
I2
sg6
S'https://open.spotify.com/track/63QQ2n6nZZXary0hJoVktP'
p4506
sg8
S'Nightcall'
p4507
ssS'5ZtoiFGlZ3tur8NJAMn0ws'
p4508
(dp4509
g3
S'Ril\xc3\xa8s'
p4510
sg5
I18
sg6
S'https://open.spotify.com/track/5ZtoiFGlZ3tur8NJAMn0ws'
p4511
sg8
S'Thank God'
p4512
ssS'3Kum81XOdeK6uFAivT6DrF'
p4513
(dp4514
g3
S'Sofiane'
p4515
sg5
I2
sg6
S'https://open.spotify.com/track/3Kum81XOdeK6uFAivT6DrF'
p4516
sg8
S'Toka'
p4517
ssS'3jMuXsnbqmxUBdkda3Do4I'
p4518
(dp4519
g3
S'Jul'
p4520
sg5
I4
sg6
S'https://open.spotify.com/track/3jMuXsnbqmxUBdkda3Do4I'
p4521
sg8
S'Je ne me vois pas briller'
p4522
ssS'4fGYZV5by1vgJKACIoccr8'
p4523
(dp4524
g3
S'Bigflo & Oli'
p4525
sg5
I1
sg6
S'https://open.spotify.com/track/4fGYZV5by1vgJKACIoccr8'
p4526
sg8
S'Olivio'
p4527
ssS'7jltqRIyxLXBDNZ1QlmnBp'
p4528
(dp4529
g3
S'Ryan Gosling'
p4530
sg5
I2
sg6
S'https://open.spotify.com/track/7jltqRIyxLXBDNZ1QlmnBp'
p4531
sg8
S'City Of Stars - From La La Land Soundtrack/Pier'
p4532
ssS'3e2WOT8WgZpyNLZdlVVUpH'
p4533
(dp4534
g3
S'PNL'
p4535
sg5
I10
sg6
S'https://open.spotify.com/track/3e2WOT8WgZpyNLZdlVVUpH'
p4536
sg8
S'Tu sais pas'
p4537
ssS'78rIJddV4X0HkNAInEcYde'
p4538
(dp4539
g3
S'Starley'
p4540
sg5
I42
sg6
S'https://open.spotify.com/track/78rIJddV4X0HkNAInEcYde'
p4541
sg8
S'Call On Me - Ryan Riback Extended Remix'
p4542
ssS'3fHXUNVKNZQ4WaUGLwWxHP'
p4543
(dp4544
g3
S'Damso'
p4545
sg5
I39
sg6
S'https://open.spotify.com/track/3fHXUNVKNZQ4WaUGLwWxHP'
p4546
sg8
S"Paris c'est loin"
p4547
ssS'3vRKEsv161Ekp1ASrIh70L'
p4548
(dp4549
g3
S'MHD'
p4550
sg5
I12
sg6
S'https://open.spotify.com/track/3vRKEsv161Ekp1ASrIh70L'
p4551
sg8
S'Bravo'
p4552
ssS'6ATkHaUrIJUtwyhoGMmQgw'
p4553
(dp4554
g3
S'Damso'
p4555
sg5
I24
sg6
S'https://open.spotify.com/track/6ATkHaUrIJUtwyhoGMmQgw'
p4556
sg8
S'\xce\x94. Dieu ne ment jamais'
p4557
ssS'33N0DD1cmllJxjKQvJkFo2'
p4558
(dp4559
g3
S'Dosseh'
p4560
sg5
I13
sg6
S'https://open.spotify.com/track/33N0DD1cmllJxjKQvJkFo2'
p4561
sg8
S'PDCV (Pas dans cette vie)'
p4562
ssS'05KOgYg8PGeJyyWBPi5ja8'
p4563
(dp4564
g3
S'Drake'
p4565
sg5
I2
sg6
S'https://open.spotify.com/track/05KOgYg8PGeJyyWBPi5ja8'
p4566
sg8
S'Free Smoke'
p4567
ssS'22BH6K8RlpwNzIINvWS4Jj'
p4568
(dp4569
g3
S'Bebe Rexha'
p4570
sg5
I2
sg6
S'https://open.spotify.com/track/22BH6K8RlpwNzIINvWS4Jj'
p4571
sg8
S'(Not) The One'
p4572
ssS'2l5u4AfoQXtDezkZhAT1Y0'
p4573
(dp4574
g3
S'Dadju'
p4575
sg5
I4
sg6
S'https://open.spotify.com/track/2l5u4AfoQXtDezkZhAT1Y0'
p4576
sg8
S'Reine'
p4577
ssS'7pV6zXFpCwrrmcosBAtp0o'
p4578
(dp4579
g3
S'Theory of a Deadman'
p4580
sg5
I5
sg6
S'https://open.spotify.com/track/7pV6zXFpCwrrmcosBAtp0o'
p4581
sg8
S'Rx (Medicate)'
p4582
ssS'0chyiTAR0eWdVSWoQaCnrr'
p4583
(dp4584
g3
S'DTF'
p4585
sg5
I1
sg6
S'https://open.spotify.com/track/0chyiTAR0eWdVSWoQaCnrr'
p4586
sg8
S'Coco Cuba'
p4587
ssS'0d6Ol0o70sLVp7CQuE7UlV'
p4588
(dp4589
g3
S'Alonzo'
p4590
sg5
I1
sg6
S'https://open.spotify.com/track/0d6Ol0o70sLVp7CQuE7UlV'
p4591
sg8
S'G\xc3\xa9n\xc3\xa9ration X-Or'
p4592
ssS'7foRYWq18pjFuY5hfjIaaP'
p4593
(dp4594
g3
S'Lacrim'
p4595
sg5
I3
sg6
S'https://open.spotify.com/track/7foRYWq18pjFuY5hfjIaaP'
p4596
sg8
S'Solitaire'
p4597
ssS'4AZbiz02Fu95DjZddvJMd5'
p4598
(dp4599
g3
S'Alonzo'
p4600
sg5
I1
sg6
S'https://open.spotify.com/track/4AZbiz02Fu95DjZddvJMd5'
p4601
sg8
S'100%'
p4602
ssS'6WMWi9Ca2vksL36tNUVBFb'
p4603
(dp4604
g3
S'Booba'
p4605
sg5
I8
sg6
S'https://open.spotify.com/track/6WMWi9Ca2vksL36tNUVBFb'
p4606
sg8
S'Valid\xc3\xa9e'
p4607
ssS'3VoFWVWs1Im7WbXssDWqFq'
p4608
(dp4609
g3
S'Sadek'
p4610
sg5
I1
sg6
S'https://open.spotify.com/track/3VoFWVWs1Im7WbXssDWqFq'
p4611
sg8
S'Sanz'
p4612
ssS'6XoqPpqa9xCBzRbFuKgSsz'
p4613
(dp4614
g3
S'Hugo TSR'
p4615
sg5
I1
sg6
S'https://open.spotify.com/track/6XoqPpqa9xCBzRbFuKgSsz'
p4616
sg8
S"Tant qu'on est l\xc3\xa0"
p4617
ssS'1A5yplwEk6cJbAL63L6bkp'
p4618
(dp4619
g3
S'Deorro'
p4620
sg5
I7
sg6
S'https://open.spotify.com/track/1A5yplwEk6cJbAL63L6bkp'
p4621
sg8
S'Bailar'
p4622
ssS'5dyDkXi1bnQKSyIdO0JXp8'
p4623
(dp4624
g3
S'Yall'
p4625
sg5
I3
sg6
S'https://open.spotify.com/track/5dyDkXi1bnQKSyIdO0JXp8'
p4626
sg8
S'Hundred Miles'
p4627
ssS'0MiEvNFDXMJpLVjbhX4dZG'
p4628
(dp4629
g3
S'Niro'
p4630
sg5
I1
sg6
S'https://open.spotify.com/track/0MiEvNFDXMJpLVjbhX4dZG'
p4631
sg8
S'Abb\xc3\xa9 Pierre'
p4632
ssS'0dJhKHDhqu1QYWfMy54G3F'
p4633
(dp4634
g3
S'Feder'
p4635
sg5
I11
sg6
S'https://open.spotify.com/track/0dJhKHDhqu1QYWfMy54G3F'
p4636
sg8
S'Back For More (feat. Daecolm)'
p4637
ssS'0uEjBBuZtjh8ldTL3lSjoo'
p4638
(dp4639
g3
S'Kalash Criminel'
p4640
sg5
I1
sg6
S'https://open.spotify.com/track/0uEjBBuZtjh8ldTL3lSjoo'
p4641
sg8
S'B\xc3\xa9n\xc3\xa9fice'
p4642
ssS'0xG0SHshCStMEyNbNC5d4k'
p4643
(dp4644
g3
S'Julia Michaels'
p4645
sg5
I9
sg6
S'https://open.spotify.com/track/0xG0SHshCStMEyNbNC5d4k'
p4646
sg8
S'Issues'
p4647
ssS'7jn2j3IRq37mEmUI6UaoDR'
p4648
(dp4649
g3
S'Hooss'
p4650
sg5
I1
sg6
S'https://open.spotify.com/track/7jn2j3IRq37mEmUI6UaoDR'
p4651
sg8
S'Capritour'
p4652
ssS'1LCdHocTe3wvSEPSISoEaQ'
p4653
(dp4654
g3
S'Diva Faune'
p4655
sg5
I2
sg6
S'https://open.spotify.com/track/1LCdHocTe3wvSEPSISoEaQ'
p4656
sg8
S'Shine on my Way'
p4657
ssS'6CfrYuD3YRDYdYvH9jNtXY'
p4658
(dp4659
g3
S'Drake'
p4660
sg5
I2
sg6
S'https://open.spotify.com/track/6CfrYuD3YRDYdYvH9jNtXY'
p4661
sg8
S'No Long Talk'
p4662
ssS'30h5dyVGfjoqFNBmSiS4UG'
p4663
(dp4664
g3
S'Marwa Loud'
p4665
sg5
I1
sg6
S'https://open.spotify.com/track/30h5dyVGfjoqFNBmSiS4UG'
p4666
sg8
S'Mehdi'
p4667
ssS'4vXOwhcy8Bg3kd8Uxx4lgH'
p4668
(dp4669
g3
S'SCH'
p4670
sg5
I1
sg6
S'https://open.spotify.com/track/4vXOwhcy8Bg3kd8Uxx4lgH'
p4671
sg8
S'Slow Mo'
p4672
ssS'2nAAFnHiXRdWhsqoeqhhnr'
p4673
(dp4674
g3
S'London Grammar'
p4675
sg5
I2
sg6
S'https://open.spotify.com/track/2nAAFnHiXRdWhsqoeqhhnr'
p4676
sg8
S'Rooting For You'
p4677
ssS'0LtVx5vsq9nfpGsWgjUin6'
p4678
(dp4679
g3
S'Ryan Gosling'
p4680
sg5
I6
sg6
S'https://open.spotify.com/track/0LtVx5vsq9nfpGsWgjUin6'
p4681
sg8
S'City Of Stars - From La La Land Soundtrack'
p4682
ssS'2fbdiLRUflgSDa9qTlnHjR'
p4683
(dp4684
g3
S'Djadja & Dinaz'
p4685
sg5
I4
sg6
S'https://open.spotify.com/track/2fbdiLRUflgSDa9qTlnHjR'
p4686
sg8
S'On parle pas'
p4687
ssS'4Px4ZtbiMcDKrRBHT4OvoL'
p4688
(dp4689
g3
S'Djadja & Dinaz'
p4690
sg5
I1
sg6
S'https://open.spotify.com/track/4Px4ZtbiMcDKrRBHT4OvoL'
p4691
sg8
S'Tu veux les billets'
p4692
ssS'6rUNjnRrlhCy7xGq6WpV4C'
p4693
(dp4694
g3
S'Greg June'
p4695
sg5
I5
sg6
S'https://open.spotify.com/track/6rUNjnRrlhCy7xGq6WpV4C'
p4696
sg8
S'How Many Times'
p4697
ssS'1YSqt7M3WZe5Fgdu5KUruc'
p4698
(dp4699
g3
S'Ninho'
p4700
sg5
I5
sg6
S'https://open.spotify.com/track/1YSqt7M3WZe5Fgdu5KUruc'
p4701
sg8
S'Carbozo'
p4702
ssS'4T7fVWFjYNwkuCKRpKXVeB'
p4703
(dp4704
g3
S'Black M'
p4705
sg5
I4
sg6
S'https://open.spotify.com/track/4T7fVWFjYNwkuCKRpKXVeB'
p4706
sg8
S'#Askip'
p4707
ssS'0sqOIwjQoaiEXcSgl8iqsi'
p4708
(dp4709
g3
S'Gradur'
p4710
sg5
I22
sg6
S'https://open.spotify.com/track/0sqOIwjQoaiEXcSgl8iqsi'
p4711
sg8
S'Oblah'
p4712
ssS'1yNyoWWWikbLhwIGWjZuDW'
p4713
(dp4714
g3
S'The Vamps'
p4715
sg5
I7
sg6
S'https://open.spotify.com/track/1yNyoWWWikbLhwIGWjZuDW'
p4716
sg8
S'All Night'
p4717
ssS'27ib87Ls0ofr4K2fX9Sg2P'
p4718
(dp4719
g3
S'Niro'
p4720
sg5
I1
sg6
S'https://open.spotify.com/track/27ib87Ls0ofr4K2fX9Sg2P'
p4721
sg8
S'Ghettoyouth'
p4722
ssS'58Avz7w3WSdHpnHLJh5GHl'
p4723
(dp4724
g3
S'Jul'
p4725
sg5
I2
sg6
S'https://open.spotify.com/track/58Avz7w3WSdHpnHLJh5GHl'
p4726
sg8
S'Va te faire foutre'
p4727
ssS'6sCbcdJxuqC358BDBWjhCE'
p4728
(dp4729
g3
S'Sofiane'
p4730
sg5
I1
sg6
S'https://open.spotify.com/track/6sCbcdJxuqC358BDBWjhCE'
p4731
sg8
S'Mortal Kombat'
p4732
ssS'4vb4mFvYsr2h6enhjJsq9Y'
p4733
(dp4734
g3
S'Adele'
p4735
sg5
I6
sg6
S'https://open.spotify.com/track/4vb4mFvYsr2h6enhjJsq9Y'
p4736
sg8
S'Water Under the Bridge'
p4737
ssS'4HhvKoIbSn9lGKg2rDmAuD'
p4738
(dp4739
g3
S'Dosseh'
p4740
sg5
I10
sg6
S'https://open.spotify.com/track/4HhvKoIbSn9lGKg2rDmAuD'
p4741
sg8
S"Putain d'\xc3\xa9poque"
p4742
ssS'17Fd6Yb7mSbinKG8LoWfFl'
p4743
(dp4744
g3
S'Mike Posner'
p4745
sg5
I37
sg6
S'https://open.spotify.com/track/17Fd6Yb7mSbinKG8LoWfFl'
p4746
sg8
S'I Took A Pill In Ibiza - Seeb Remix'
p4747
ssS'3i8RyYJFp3qAJtLMxdgNtf'
p4748
(dp4749
g3
S'Jul'
p4750
sg5
I2
sg6
S'https://open.spotify.com/track/3i8RyYJFp3qAJtLMxdgNtf'
p4751
sg8
S'Vendetta'
p4752
ssS'4tCtwWceOPWzenK2HAIJSb'
p4753
(dp4754
g3
S'Fifth Harmony'
p4755
sg5
I19
sg6
S'https://open.spotify.com/track/4tCtwWceOPWzenK2HAIJSb'
p4756
sg8
S'Work from Home'
p4757
ssS'0hYSal2BeLJ4LSpmKHVtPf'
p4758
(dp4759
g3
S'Sadek'
p4760
sg5
I4
sg6
S'https://open.spotify.com/track/0hYSal2BeLJ4LSpmKHVtPf'
p4761
sg8
S'La vache'
p4762
ssS'00X2yv2vrtritPt2CZnUTZ'
p4763
(dp4764
g3
S'PNL'
p4765
sg5
I42
sg6
S'https://open.spotify.com/track/00X2yv2vrtritPt2CZnUTZ'
p4766
sg8
S'Ben\xc3\xa9'
p4767
ssS'3aBUaY8sq3v4N872BTBPfT'
p4768
(dp4769
g3
S'MAI LAN'
p4770
sg5
I5
sg6
S'https://open.spotify.com/track/3aBUaY8sq3v4N872BTBPfT'
p4771
sg8
S'Vampire'
p4772
ssS'68mVd6a9VJhCSIjgwB76nK'
p4773
(dp4774
g3
S'Hornet La Frappe'
p4775
sg5
I2
sg6
S'https://open.spotify.com/track/68mVd6a9VJhCSIjgwB76nK'
p4776
sg8
S"T'es un marrant (feat. Sofiane)"
p4777
ssS'2nEoMpAOMd9ssMeuFhPcOh'
p4778
(dp4779
g3
S'Shay'
p4780
sg5
I4
sg6
S'https://open.spotify.com/track/2nEoMpAOMd9ssMeuFhPcOh'
p4781
sg8
S'Cabeza'
p4782
ssS'3hB5DgAiMAQ4DzYbsMq1IT'
p4783
(dp4784
g3
S'Justin Bieber'
p4785
sg5
I2
sg6
S'https://open.spotify.com/track/3hB5DgAiMAQ4DzYbsMq1IT'
p4786
sg8
S'Love Yourself'
p4787
ssS'1Gs1PGvbeLU4DZphO5tzjp'
p4788
(dp4789
g3
S'Kalash Criminel'
p4790
sg5
I1
sg6
S'https://open.spotify.com/track/1Gs1PGvbeLU4DZphO5tzjp'
p4791
sg8
S'Hood'
p4792
ssS'54G8osRu1htBw1PQEkYIdL'
p4793
(dp4794
g3
S'Alonzo'
p4795
sg5
I7
sg6
S'https://open.spotify.com/track/54G8osRu1htBw1PQEkYIdL'
p4796
sg8
S'Suis-moi'
p4797
ssS'4S0OxeFBS6fVo76NpEUC8v'
p4798
(dp4799
g3
S'Niro'
p4800
sg5
I1
sg6
S'https://open.spotify.com/track/4S0OxeFBS6fVo76NpEUC8v'
p4801
sg8
S'Raisonner'
p4802
ssS'1qiBZ4sIwDbMt5DkKYeMvm'
p4803
(dp4804
g3
S'Djadja & Dinaz'
p4805
sg5
I9
sg6
S'https://open.spotify.com/track/1qiBZ4sIwDbMt5DkKYeMvm'
p4806
sg8
S'Mauvais comportement'
p4807
ssS'57U26FwUclMqyZ5ylnPpw1'
p4808
(dp4809
g3
S'Damso'
p4810
sg5
I25
sg6
S'https://open.spotify.com/track/57U26FwUclMqyZ5ylnPpw1'
p4811
sg8
S'\xce\x91. Nwaar Is The New Black'
p4812
ssS'71gEIIqahWVslRCXtN5yhK'
p4813
(dp4814
g3
S'Djadja & Dinaz'
p4815
sg5
I26
sg6
S'https://open.spotify.com/track/71gEIIqahWVslRCXtN5yhK'
p4816
sg8
S'D\xc3\xa9stabilis\xc3\xa9'
p4817
ssS'0zx2ksnbLkPG1wrbnO0KrQ'
p4818
(dp4819
g3
S'Sadek'
p4820
sg5
I4
sg6
S'https://open.spotify.com/track/0zx2ksnbLkPG1wrbnO0KrQ'
p4821
sg8
S'En leuleu (feat. Niska)'
p4822
ssS'6Vzj2n4sM8sX0oFG8RTQ6P'
p4823
(dp4824
g3
S'Djadja & Dinaz'
p4825
sg5
I10
sg6
S'https://open.spotify.com/track/6Vzj2n4sM8sX0oFG8RTQ6P'
p4826
sg8
S'Catalogu\xc3\xa9s bandits'
p4827
ssS'6PGoSes0D9eUDeeAafB2As'
p4828
(dp4829
g3
S'Kendrick Lamar'
p4830
sg5
I3
sg6
S'https://open.spotify.com/track/6PGoSes0D9eUDeeAafB2As'
p4831
sg8
S'LOVE. FEAT. ZACARI.'
p4832
ssS'1lItf5ZXJc1by9SbPeljFd'
p4833
(dp4834
g3
S'Zay Hilfigerrr'
p4835
sg5
I4
sg6
S'https://open.spotify.com/track/1lItf5ZXJc1by9SbPeljFd'
p4836
sg8
S'Juju On That Beat (TZ Anthem)'
p4837
ssS'1iDQ2zCOU1uYeR8QcpqUZb'
p4838
(dp4839
g3
S'Booba'
p4840
sg5
I37
sg6
S'https://open.spotify.com/track/1iDQ2zCOU1uYeR8QcpqUZb'
p4841
sg8
S'DKR'
p4842
ssS'4QyghgsIMOwKqsVpDBcqXo'
p4843
(dp4844
g3
S'Mister V'
p4845
sg5
I2
sg6
S'https://open.spotify.com/track/4QyghgsIMOwKqsVpDBcqXo'
p4846
sg8
S'Cendrillon'
p4847
ssS'2yYfWku1ndnxenRK318Ihz'
p4848
(dp4849
g3
S'Nekfeu'
p4850
sg5
I4
sg6
S'https://open.spotify.com/track/2yYfWku1ndnxenRK318Ihz'
p4851
sg8
S'On verra'
p4852
ss.