(dp0
S'0mel2N9Ws9r4yLQn5QE21Y'
p1
(dp2
S'artistName'
p3
S'Sam Smith'
p4
sS'weeksOnChart'
p5
I5
sS'track_href'
p6
S'https://open.spotify.com/track/0mel2N9Ws9r4yLQn5QE21Y'
p7
sS'songName'
p8
S'Too Good At Goodbyes'
p9
ssS'58EQDn2K9Gyj68YIckOLrN'
p10
(dp11
g3
S'Reykon'
p12
sg5
I6
sg6
S'https://open.spotify.com/track/58EQDn2K9Gyj68YIckOLrN'
p13
sg8
S'El Chisme (feat. J Alvarez & Kevin Roldan) - Remix'
p14
ssS'60a0Rd6pjrkxjPbaKzXjfq'
p15
(dp16
g3
S'Linkin Park'
p17
sg5
I3
sg6
S'https://open.spotify.com/track/60a0Rd6pjrkxjPbaKzXjfq'
p18
sg8
S'In The End'
p19
ssS'0prNGof3XqfTvNDxHonvdK'
p20
(dp21
g3
S'Alessia Cara'
p22
sg5
I4
sg6
S'https://open.spotify.com/track/0prNGof3XqfTvNDxHonvdK'
p23
sg8
S'Scars To Your Beautiful'
p24
ssS'7cvw9YXDn35Ra6xCrIqVNZ'
p25
(dp26
g3
S'Luis Fonsi'
p27
sg5
I6
sg6
S'https://open.spotify.com/track/7cvw9YXDn35Ra6xCrIqVNZ'
p28
sg8
S'Llegaste T\xc3\xba'
p29
ssS'6HUnnBwYZqcED1eQztxMBN'
p30
(dp31
g3
S'Martin Jensen'
p32
sg5
I18
sg6
S'https://open.spotify.com/track/6HUnnBwYZqcED1eQztxMBN'
p33
sg8
S'Solo Dance'
p34
ssS'7wGoVu4Dady5GV0Sv4UIsx'
p35
(dp36
g3
S'Post Malone'
p37
sg5
I1
sg6
S'https://open.spotify.com/track/7wGoVu4Dady5GV0Sv4UIsx'
p38
sg8
S'rockstar'
p39
ssS'1CnPYaKxTVb4LWOtiGOm0m'
p40
(dp41
g3
S'Jon Bellion'
p42
sg5
I4
sg6
S'https://open.spotify.com/track/1CnPYaKxTVb4LWOtiGOm0m'
p43
sg8
S'All Time Low'
p44
ssS'4OZEu0Vwq0RB2LAq14v99n'
p45
(dp46
g3
S'DJ Snake'
p47
sg5
I28
sg6
S'https://open.spotify.com/track/4OZEu0Vwq0RB2LAq14v99n'
p48
sg8
S'Middle'
p49
ssS'1RwoXmQ3RvIdfG8bLeX65g'
p50
(dp51
g3
S'Mario Bautista'
p52
sg5
I8
sg6
S'https://open.spotify.com/track/1RwoXmQ3RvIdfG8bLeX65g'
p53
sg8
S'No Digas Nada'
p54
ssS'70lnL3QaSOIIyMa2X9aVRL'
p55
(dp56
g3
S'Shakira'
p57
sg5
I20
sg6
S'https://open.spotify.com/track/70lnL3QaSOIIyMa2X9aVRL'
p58
sg8
S'Perro Fiel'
p59
ssS'46HdsiK0uR26B2dY9QPzda'
p60
(dp61
g3
S'Prince Royce'
p62
sg5
I32
sg6
S'https://open.spotify.com/track/46HdsiK0uR26B2dY9QPzda'
p63
sg8
S'Deja vu'
p64
ssS'17nOaHsTn06jxuU9NpHuFU'
p65
(dp66
g3
S'Bad Bunny'
p67
sg5
I26
sg6
S'https://open.spotify.com/track/17nOaHsTn06jxuU9NpHuFU'
p68
sg8
S'Pa Ti'
p69
ssS'2bdD0eYH8XirjVAXq68JAN'
p70
(dp71
g3
S'Yandel'
p72
sg5
I18
sg6
S'https://open.spotify.com/track/2bdD0eYH8XirjVAXq68JAN'
p73
sg8
S'Mi Religi\xc3\xb3n'
p74
ssS'2bJvI42r8EF3wxjOuDav4r'
p75
(dp76
g3
S'Pitbull'
p77
sg5
I2
sg6
S'https://open.spotify.com/track/2bJvI42r8EF3wxjOuDav4r'
p78
sg8
S'Time of Our Lives'
p79
ssS'7tr2za8SQg2CI8EDgrdtNl'
p80
(dp81
g3
S'Calvin Harris'
p82
sg5
I23
sg6
S'https://open.spotify.com/track/7tr2za8SQg2CI8EDgrdtNl'
p83
sg8
S'Slide'
p84
ssS'7cIkMEpDhT7Vpw1FHOQqKC'
p85
(dp86
g3
S'Justin Quiles'
p87
sg5
I3
sg6
S'https://open.spotify.com/track/7cIkMEpDhT7Vpw1FHOQqKC'
p88
sg8
S'Si Ella Quisiera'
p89
ssS'1TxgZRcy3kZ7JaEp88MDbC'
p90
(dp91
g3
S'CNCO'
p92
sg5
I42
sg6
S'https://open.spotify.com/track/1TxgZRcy3kZ7JaEp88MDbC'
p93
sg8
S'Tan F\xc3\xa1cil'
p94
ssS'2kAe8s00cKth2AfcLEbFi9'
p95
(dp96
g3
S'CNCO'
p97
sg5
I11
sg6
S'https://open.spotify.com/track/2kAe8s00cKth2AfcLEbFi9'
p98
sg8
S'Hey DJ - Pop Version'
p99
ssS'20ZAJdsKB5IGbGj4ilRt2o'
p100
(dp101
g3
S'Ozuna'
p102
sg5
I35
sg6
S'https://open.spotify.com/track/20ZAJdsKB5IGbGj4ilRt2o'
p103
sg8
S'Dile Que Tu Me Quieres'
p104
ssS'4pLwZjInHj3SimIyN9SnOz'
p105
(dp106
g3
S'Ariana Grande'
p107
sg5
I27
sg6
S'https://open.spotify.com/track/4pLwZjInHj3SimIyN9SnOz'
p108
sg8
S'Side To Side'
p109
ssS'4qknM1pQz53QOyfDVTjcM9'
p110
(dp111
g3
S'Shakira'
p112
sg5
I27
sg6
S'https://open.spotify.com/track/4qknM1pQz53QOyfDVTjcM9'
p113
sg8
S'Me Enamor\xc3\xa9'
p114
ssS'3E2Zh20GDCR9B1EYjfXWyv'
p115
(dp116
g3
S'AJR'
p117
sg5
I3
sg6
S'https://open.spotify.com/track/3E2Zh20GDCR9B1EYjfXWyv'
p118
sg8
S'Weak'
p119
ssS'0OEQGwBfL4b9KX0RwfOiW6'
p120
(dp121
g3
S'Don Omar'
p122
sg5
I10
sg6
S'https://open.spotify.com/track/0OEQGwBfL4b9KX0RwfOiW6'
p123
sg8
S'Encanto'
p124
ssS'6ciFFQZcrCwSiUBZvEZrJc'
p125
(dp126
g3
S'Major Lazer'
p127
sg5
I5
sg6
S'https://open.spotify.com/track/6ciFFQZcrCwSiUBZvEZrJc'
p128
sg8
S'Know No Better (feat. Travis Scott & Quavo) - Bad Bunny Remix'
p129
ssS'4ojwGTehgBRAg52jbFgzJg'
p130
(dp131
g3
S'Mambo Kingz'
p132
sg5
I10
sg6
S'https://open.spotify.com/track/4ojwGTehgBRAg52jbFgzJg'
p133
sg8
S'Me Reclama'
p134
ssS'4BHzQ9C00ceJxfG16AlNWb'
p135
(dp136
g3
S'Adele'
p137
sg5
I2
sg6
S'https://open.spotify.com/track/4BHzQ9C00ceJxfG16AlNWb'
p138
sg8
S'Send My Love (To Your New Lover)'
p139
ssS'10nQ3Pj0o1XotcikgJPVKD'
p140
(dp141
g3
S'Bad Bunny'
p142
sg5
I14
sg6
S'https://open.spotify.com/track/10nQ3Pj0o1XotcikgJPVKD'
p143
sg8
S'Tu No Metes Cabra'
p144
ssS'50PWlIBU7PlGGwzgN8TiFJ'
p145
(dp146
g3
S'Lady Gaga'
p147
sg5
I4
sg6
S'https://open.spotify.com/track/50PWlIBU7PlGGwzgN8TiFJ'
p148
sg8
S'Million Reasons'
p149
ssS'2RttW7RAu5nOAfq6YFvApB'
p150
(dp151
g3
S'Ed Sheeran'
p152
sg5
I7
sg6
S'https://open.spotify.com/track/2RttW7RAu5nOAfq6YFvApB'
p153
sg8
S'Happier'
p154
ssS'7BEI30TTNhwnkCyNUDmFrr'
p155
(dp156
g3
S'Daddy Yankee'
p157
sg5
I17
sg6
S'https://open.spotify.com/track/7BEI30TTNhwnkCyNUDmFrr'
p158
sg8
S'Hula Hoop'
p159
ssS'3EmmCZoqpWOTY1g2GBwJoR'
p160
(dp161
g3
S'Steve Aoki'
p162
sg5
I30
sg6
S'https://open.spotify.com/track/3EmmCZoqpWOTY1g2GBwJoR'
p163
sg8
S'Just Hold On'
p164
ssS'6Zosz8w6CmdGMZM6p4JlbQ'
p165
(dp166
g3
S'Danny Ocean'
p167
sg5
I2
sg6
S'https://open.spotify.com/track/6Zosz8w6CmdGMZM6p4JlbQ'
p168
sg8
S'Me Reh\xc3\xbaso'
p169
ssS'63RowmYY8kXgCY8KdppOMc'
p170
(dp171
g3
S'El Nene La amenaza'
p172
sg5
I2
sg6
S'https://open.spotify.com/track/63RowmYY8kXgCY8KdppOMc'
p173
sg8
S'Solos (feat. Lary Over)'
p174
ssS'0gbBzIqrECJOEPvQJIBFs5'
p175
(dp176
g3
S'Lorde'
p177
sg5
I7
sg6
S'https://open.spotify.com/track/0gbBzIqrECJOEPvQJIBFs5'
p178
sg8
S'Green Light'
p179
ssS'3iDPALl8BoUbuXZgy6EOWY'
p180
(dp181
g3
S'Gigolo Y La Exce'
p182
sg5
I7
sg6
S'https://open.spotify.com/track/3iDPALl8BoUbuXZgy6EOWY'
p183
sg8
S'Sexto Sentido (feat. Bad Bunny)'
p184
ssS'69YFiheMVfUc4Cu5T7KQgW'
p185
(dp186
g3
S'Mula'
p187
sg5
I9
sg6
S'https://open.spotify.com/track/69YFiheMVfUc4Cu5T7KQgW'
p188
sg8
S'Nunca paran'
p189
ssS'03h8eaVgdJJ14cCKiO4ONX'
p190
(dp191
g3
S'Joey Montana'
p192
sg5
I3
sg6
S'https://open.spotify.com/track/03h8eaVgdJJ14cCKiO4ONX'
p193
sg8
S'Hola'
p194
ssS'4xlrALxuaCf9yZBHJeTSG6'
p195
(dp196
g3
S'Jonas Blue'
p197
sg5
I5
sg6
S'https://open.spotify.com/track/4xlrALxuaCf9yZBHJeTSG6'
p198
sg8
S'Mama'
p199
ssS'3RXkboS74UYzN14xTqzPyY'
p200
(dp201
g3
S''
p202
sg5
I1
sg6
S'https://open.spotify.com/track/3RXkboS74UYzN14xTqzPyY'
p203
sg8
g202
ssS'0fm7fJ4aZv6Wx0klIcyXPz'
p204
(dp205
g3
S'Juan Mag\xc3\xa1n'
p206
sg5
I10
sg6
S'https://open.spotify.com/track/0fm7fJ4aZv6Wx0klIcyXPz'
p207
sg8
S'Quiero Que Sepas'
p208
ssS'7FfpP3YZ6fOWMdxkIAtud9'
p209
(dp210
g3
S'Farruko'
p211
sg5
I4
sg6
S'https://open.spotify.com/track/7FfpP3YZ6fOWMdxkIAtud9'
p212
sg8
S'Krippy Kush'
p213
ssS'3pzjHKrQSvXGHQ98dx18HI'
p214
(dp215
g3
S'Justin Bieber'
p216
sg5
I5
sg6
S'https://open.spotify.com/track/3pzjHKrQSvXGHQ98dx18HI'
p217
sg8
S'What Do You Mean?'
p218
ssS'000xQL6tZNLJzIrtIgxqSl'
p219
(dp220
g3
S'ZAYN'
p221
sg5
I12
sg6
S'https://open.spotify.com/track/000xQL6tZNLJzIrtIgxqSl'
p222
sg8
S'Still Got Time'
p223
ssS'1D3ODoXHBLpdxolZRHWV1j'
p224
(dp225
g3
S'Jonas Blue'
p226
sg5
I14
sg6
S'https://open.spotify.com/track/1D3ODoXHBLpdxolZRHWV1j'
p227
sg8
S'By Your Side'
p228
ssS'1CKd1PnqfYx0H12V9MSaIY'
p229
(dp230
g3
S'Zedd'
p231
sg5
I12
sg6
S'https://open.spotify.com/track/1CKd1PnqfYx0H12V9MSaIY'
p232
sg8
S'Get Low (with Liam Payne)'
p233
ssS'5c4tB0saSkNHX5CyDosuF7'
p234
(dp235
g3
S'Burak Yeter'
p236
sg5
I2
sg6
S'https://open.spotify.com/track/5c4tB0saSkNHX5CyDosuF7'
p237
sg8
S'Tuesday'
p238
ssS'4QsPTKvdpgkA7mBAvclZTa'
p239
(dp240
g3
S'Maluma'
p241
sg5
I14
sg6
S'https://open.spotify.com/track/4QsPTKvdpgkA7mBAvclZTa'
p242
sg8
S'El Perdedor - The Remix'
p243
ssS'4yN6xPLopmTLvc27pO9LIE'
p244
(dp245
g3
S'Nicky Jam'
p246
sg5
I35
sg6
S'https://open.spotify.com/track/4yN6xPLopmTLvc27pO9LIE'
p247
sg8
S'Si T\xc3\xba La Ves'
p248
ssS'5CtI0qwDJkDQGwXD1H1cLb'
p249
(dp250
g3
S'Luis Fonsi'
p251
sg5
I26
sg6
S'https://open.spotify.com/track/5CtI0qwDJkDQGwXD1H1cLb'
p252
sg8
S'Despacito - Remix'
p253
ssS'7m9OqQk4RVRkw9JJdeAw96'
p254
(dp255
g3
S'XXXTENTACION'
p256
sg5
I5
sg6
S'https://open.spotify.com/track/7m9OqQk4RVRkw9JJdeAw96'
p257
sg8
S'Jocelyn Flores'
p258
ssS'1PGENMzwUy16wlpZiuLS65'
p259
(dp260
g3
S'Karol G'
p261
sg5
I8
sg6
S'https://open.spotify.com/track/1PGENMzwUy16wlpZiuLS65'
p262
sg8
S'Hello'
p263
ssS'3WM3XDNCzEsLvtp59D9oF7'
p264
(dp265
g3
S'Yandel'
p266
sg5
I3
sg6
S'https://open.spotify.com/track/3WM3XDNCzEsLvtp59D9oF7'
p267
sg8
S'S\xc3\xb3lo M\xc3\xada'
p268
ssS'7LABrQFfRYcZUqUwng0Heb'
p269
(dp270
g3
S'Yandel'
p271
sg5
I10
sg6
S'https://open.spotify.com/track/7LABrQFfRYcZUqUwng0Heb'
p272
sg8
S'Encantadora'
p273
ssS'1a5Yu5L18qNxVhXx38njON'
p274
(dp275
g3
S'Alok'
p276
sg5
I41
sg6
S'https://open.spotify.com/track/1a5Yu5L18qNxVhXx38njON'
p277
sg8
S'Hear Me Now'
p278
ssS'1Eck97uRMlprKOOJN9oO1E'
p279
(dp280
g3
S'G-Eazy'
p281
sg5
I3
sg6
S'https://open.spotify.com/track/1Eck97uRMlprKOOJN9oO1E'
p282
sg8
S'Good Life (with G-Eazy & Kehlani)'
p283
ssS'2ekn2ttSfGqwhhate0LSR0'
p284
(dp285
g3
S'Dua Lipa'
p286
sg5
I13
sg6
S'https://open.spotify.com/track/2ekn2ttSfGqwhhate0LSR0'
p287
sg8
S'New Rules'
p288
ssS'1sCxVKWImDZSZKvG0U9B23'
p289
(dp290
g3
S'Selena Gomez'
p291
sg5
I16
sg6
S'https://open.spotify.com/track/1sCxVKWImDZSZKvG0U9B23'
p292
sg8
S'Bad Liar'
p293
ssS'1FUViuNSldssMIawrOXF2i'
p294
(dp295
g3
S'Bebe Rexha'
p296
sg5
I7
sg6
S'https://open.spotify.com/track/1FUViuNSldssMIawrOXF2i'
p297
sg8
S'I Got You'
p298
ssS'4vlbjBSMqycZk6t4HVRpnC'
p299
(dp300
g3
S'Ozuna'
p301
sg5
I20
sg6
S'https://open.spotify.com/track/4vlbjBSMqycZk6t4HVRpnC'
p302
sg8
S'No Quiere Enamorarse (Remix) [feat. Daddy Yankee]'
p303
ssS'3lGMtkONrZdJ8kTCg6KIFf'
p304
(dp305
g3
S'Natalia Lafourcade'
p306
sg5
I23
sg6
S'https://open.spotify.com/track/3lGMtkONrZdJ8kTCg6KIFf'
p307
sg8
S'Hasta la Ra\xc3\xadz'
p308
ssS'3dQDid3IUNhZy1OehIfYfE'
p309
(dp310
g3
S'Wisin'
p311
sg5
I42
sg6
S'https://open.spotify.com/track/3dQDid3IUNhZy1OehIfYfE'
p312
sg8
S'Vacaciones'
p313
ssS'4VrWlk8IQxevMvERoX08iC'
p314
(dp315
g3
S'Sia'
p316
sg5
I1
sg6
S'https://open.spotify.com/track/4VrWlk8IQxevMvERoX08iC'
p317
sg8
S'Chandelier'
p318
ssS'4hiUYb2nb6NlfTP9CD38Pe'
p319
(dp320
g3
S'Ti\xc3\xabsto'
p321
sg5
I6
sg6
S'https://open.spotify.com/track/4hiUYb2nb6NlfTP9CD38Pe'
p322
sg8
S'On My Way'
p323
ssS'3tWeAH4IYIrxV2jrUk9Ab3'
p324
(dp325
g3
S'J Alvarez'
p326
sg5
I17
sg6
S'https://open.spotify.com/track/3tWeAH4IYIrxV2jrUk9Ab3'
p327
sg8
S'Esa Boquita'
p328
ssS'2Zw7rSucHm0MIph9gmNiSn'
p329
(dp330
g3
S'Alejandro Fernandez'
p331
sg5
I15
sg6
S'https://open.spotify.com/track/2Zw7rSucHm0MIph9gmNiSn'
p332
sg8
S'Quiero Que Vuelvas'
p333
ssS'3n58u3LOFw8mITLvfPvQBz'
p334
(dp335
g3
S'Cosculluela'
p336
sg5
I20
sg6
S'https://open.spotify.com/track/3n58u3LOFw8mITLvfPvQBz'
p337
sg8
S'Manicomio'
p338
ssS'7vGuf3Y35N4wmASOKLUVVU'
p339
(dp340
g3
S'Marshmello'
p341
sg5
I7
sg6
S'https://open.spotify.com/track/7vGuf3Y35N4wmASOKLUVVU'
p342
sg8
S'Silence'
p343
ssS'0xXhgLXfEHnWJHVgRvFvdn'
p344
(dp345
g3
S'Reik'
p346
sg5
I11
sg6
S'https://open.spotify.com/track/0xXhgLXfEHnWJHVgRvFvdn'
p347
sg8
S'Creo en Ti'
p348
ssS'5hEM0JchdVzQ5PwvSfITeX'
p349
(dp350
g3
S'Piso 21'
p351
sg5
I42
sg6
S'https://open.spotify.com/track/5hEM0JchdVzQ5PwvSfITeX'
p352
sg8
S'Me Llamas (feat. Maluma) - Remix'
p353
ssS'7129iqBafaphfc3WPCGC0L'
p354
(dp355
g3
S'Lukas Graham'
p356
sg5
I4
sg6
S'https://open.spotify.com/track/7129iqBafaphfc3WPCGC0L'
p357
sg8
S'7 Years'
p358
ssS'4WjH9Bzt3kx7z8kl0awxh4'
p359
(dp360
g3
S'Major Lazer'
p361
sg5
I22
sg6
S'https://open.spotify.com/track/4WjH9Bzt3kx7z8kl0awxh4'
p362
sg8
S'Lean On (feat. M\xc3\x98 & DJ Snake)'
p363
ssS'57p8CBvPOxrvyCbn6ttl5r'
p364
(dp365
g3
S'Skrillex'
p366
sg5
I7
sg6
S'https://open.spotify.com/track/57p8CBvPOxrvyCbn6ttl5r'
p367
sg8
S'Would You Ever'
p368
ssS'43jBqV3j3Xi1g6wO0bhIMd'
p369
(dp370
g3
S'Sage The Gemini'
p371
sg5
I6
sg6
S'https://open.spotify.com/track/43jBqV3j3Xi1g6wO0bhIMd'
p372
sg8
S'Now and Later'
p373
ssS'7oolFzHipTMg2nL7shhdz2'
p374
(dp375
g3
S'Ed Sheeran'
p376
sg5
I2
sg6
S'https://open.spotify.com/track/7oolFzHipTMg2nL7shhdz2'
p377
sg8
S'Eraser'
p378
ssS'1ei3g2hMYh1VKvik9FoUQR'
p379
(dp380
g3
S'Yandel'
p381
sg5
I4
sg6
S'https://open.spotify.com/track/1ei3g2hMYh1VKvik9FoUQR'
p382
sg8
S'S\xc3\xb3lo M\xc3\xada'
p383
ssS'0ERbK7qVqveCaBWIiYCrl3'
p384
(dp385
g3
S'Romeo Santos'
p386
sg5
I12
sg6
S'https://open.spotify.com/track/0ERbK7qVqveCaBWIiYCrl3'
p387
sg8
S'Bella y Sensual'
p388
ssS'3NdDpSvN911VPGivFlV5d0'
p389
(dp390
g3
S'ZAYN'
p391
sg5
I41
sg6
S'https://open.spotify.com/track/3NdDpSvN911VPGivFlV5d0'
p392
sg8
S'I Don\xe2\x80\x99t Wanna Live Forever (Fifty Shades Darker) - From Fifty Shades Darker (Original Motion Picture Soundtrack)'
p393
ssS'1iRvhKiXRElIH2Uf4gd95P'
p394
(dp395
g3
S'Jesse & Joy'
p396
sg5
I25
sg6
S'https://open.spotify.com/track/1iRvhKiXRElIH2Uf4gd95P'
p397
sg8
S'Dueles'
p398
ssS'0gb1J5UrTpzaU1s3nupgCd'
p399
(dp400
g3
S'Galantis'
p401
sg5
I4
sg6
S'https://open.spotify.com/track/0gb1J5UrTpzaU1s3nupgCd'
p402
sg8
S'No Money'
p403
ssS'7lRsNbdOGykkMAgsqs4R1C'
p404
(dp405
g3
S'Nacho'
p406
sg5
I26
sg6
S'https://open.spotify.com/track/7lRsNbdOGykkMAgsqs4R1C'
p407
sg8
S'B\xc3\xa1ilame'
p408
ssS'2eMwDehkIC1j68U6FA3Eiq'
p409
(dp410
g3
S'Lil Uzi Vert'
p411
sg5
I2
sg6
S'https://open.spotify.com/track/2eMwDehkIC1j68U6FA3Eiq'
p412
sg8
S'XO TOUR Llif3'
p413
ssS'0Nhu3zSYbEz32IYiobV75e'
p414
(dp415
g3
S'Halsey'
p416
sg5
I1
sg6
S'https://open.spotify.com/track/0Nhu3zSYbEz32IYiobV75e'
p417
sg8
S'Now Or Never'
p418
ssS'2KklXplRtxMsBYo474Es0w'
p419
(dp420
g3
S'Ofenbach'
p421
sg5
I2
sg6
S'https://open.spotify.com/track/2KklXplRtxMsBYo474Es0w'
p422
sg8
S'Be Mine'
p423
ssS'3CRDbSIZ4r5MsZ0YwxuEkn'
p424
(dp425
g3
S'Twenty One Pilots'
p426
sg5
I42
sg6
S'https://open.spotify.com/track/3CRDbSIZ4r5MsZ0YwxuEkn'
p427
sg8
S'Stressed Out'
p428
ssS'6mICuAdrwEjh6Y6lroV2Kg'
p429
(dp430
g3
S'Shakira'
p431
sg5
I42
sg6
S'https://open.spotify.com/track/6mICuAdrwEjh6Y6lroV2Kg'
p432
sg8
S'Chantaje'
p433
ssS'71t9GoojGIMZLySI6imKFY'
p434
(dp435
g3
S'Manuel Medrano'
p436
sg5
I22
sg6
S'https://open.spotify.com/track/71t9GoojGIMZLySI6imKFY'
p437
sg8
S'Afuera del planeta'
p438
ssS'02IJFWVjLSM811RsySQusA'
p439
(dp440
g3
S'Melendi'
p441
sg5
I18
sg6
S'https://open.spotify.com/track/02IJFWVjLSM811RsySQusA'
p442
sg8
S'Destino o Casualidad'
p443
ssS'4okba5wu9mMLXx79DXLKi3'
p444
(dp445
g3
S'Daddy Yankee'
p446
sg5
I38
sg6
S'https://open.spotify.com/track/4okba5wu9mMLXx79DXLKi3'
p447
sg8
S'La Rompe Corazones'
p448
ssS'2tergQtVsHUBYlL76Kx93c'
p449
(dp450
g3
S'Jennifer Lopez'
p451
sg5
I1
sg6
S'https://open.spotify.com/track/2tergQtVsHUBYlL76Kx93c'
p452
sg8
S'Olv\xc3\xaddame y Pega la Vuelta'
p453
ssS'0s6yB0ZFl1LvYHAnGhXFga'
p454
(dp455
g3
S'Alejandro Sanz'
p456
sg5
I38
sg6
S'https://open.spotify.com/track/0s6yB0ZFl1LvYHAnGhXFga'
p457
sg8
S'Deja Que Te Bese'
p458
ssS'00lNx0OcTJrS3MKHcB80HY'
p459
(dp460
g3
S'Jax Jones'
p461
sg5
I9
sg6
S'https://open.spotify.com/track/00lNx0OcTJrS3MKHcB80HY'
p462
sg8
S"You Don't Know Me - Radio Edit"
p463
ssS'7JNh1cfm0eXjqFVOzKLyau'
p464
(dp465
g3
S'Becky G'
p466
sg5
I13
sg6
S'https://open.spotify.com/track/7JNh1cfm0eXjqFVOzKLyau'
p467
sg8
S'Mayores'
p468
ssS'0fg8CqpjdojMyXLNzM2PaJ'
p469
(dp470
g3
S'Major Lazer'
p471
sg5
I16
sg6
S'https://open.spotify.com/track/0fg8CqpjdojMyXLNzM2PaJ'
p472
sg8
S'Run Up (feat. PARTYNEXTDOOR & Nicki Minaj)'
p473
ssS'3noN1TxpjbjjmKqssghvg8'
p474
(dp475
g3
S'Cosculluela'
p476
sg5
I28
sg6
S'https://open.spotify.com/track/3noN1TxpjbjjmKqssghvg8'
p477
sg8
S'Si Me Dices Que Si (feat. Nicky Jam)'
p478
ssS'3umS4y3uQDkqekNjVpiRUs'
p479
(dp480
g3
S'Nicky Jam'
p481
sg5
I39
sg6
S'https://open.spotify.com/track/3umS4y3uQDkqekNjVpiRUs'
p482
sg8
S'El Amante'
p483
ssS'6uFsE1JgZ20EXyU0JQZbUR'
p484
(dp485
g3
S'Taylor Swift'
p486
sg5
I7
sg6
S'https://open.spotify.com/track/6uFsE1JgZ20EXyU0JQZbUR'
p487
sg8
S'Look What You Made Me Do'
p488
ssS'6SIrNxmmdbv1KUbFBu1PaN'
p489
(dp490
g3
S'Ozuna'
p491
sg5
I16
sg6
S'https://open.spotify.com/track/6SIrNxmmdbv1KUbFBu1PaN'
p492
sg8
S'Bebe (feat. Anuel AA)'
p493
ssS'6rQSrBHf7HlZjtcMZ4S4bO'
p494
(dp495
g3
S'J Balvin'
p496
sg5
I42
sg6
S'https://open.spotify.com/track/6rQSrBHf7HlZjtcMZ4S4bO'
p497
sg8
S'Safari'
p498
ssS'0L87MffumRNWrY2SNUFcvs'
p499
(dp500
g3
S'Milky Chance'
p501
sg5
I2
sg6
S'https://open.spotify.com/track/0L87MffumRNWrY2SNUFcvs'
p502
sg8
S'Cocoon'
p503
ssS'1HCw8XKtTgWWU3JlEUR0qQ'
p504
(dp505
g3
S'Deorro'
p506
sg5
I6
sg6
S'https://open.spotify.com/track/1HCw8XKtTgWWU3JlEUR0qQ'
p507
sg8
S'Bailar - Radio Edit'
p508
ssS'7GX5flRQZVHRAGd6B4TmDO'
p509
(dp510
g3
S'Lil Uzi Vert'
p511
sg5
I2
sg6
S'https://open.spotify.com/track/7GX5flRQZVHRAGd6B4TmDO'
p512
sg8
S'XO TOUR Llif3'
p513
ssS'1fiwHsiitsbudIjFgmzrM4'
p514
(dp515
g3
S'Juan Mag\xc3\xa1n'
p516
sg5
I7
sg6
S'https://open.spotify.com/track/1fiwHsiitsbudIjFgmzrM4'
p517
sg8
S'S\xc3\xadgueme Bailando'
p518
ssS'5kRPPEWFJIMox5qIkQkiz5'
p519
(dp520
g3
S'Harry Styles'
p521
sg5
I2
sg6
S'https://open.spotify.com/track/5kRPPEWFJIMox5qIkQkiz5'
p522
sg8
S'Sweet Creature'
p523
ssS'0CokSRCu5hZgPxcZBaEzVE'
p524
(dp525
g3
S'Macklemore'
p526
sg5
I3
sg6
S'https://open.spotify.com/track/0CokSRCu5hZgPxcZBaEzVE'
p527
sg8
S'Glorious (feat. Skylar Grey)'
p528
ssS'0uRHot8ml8U8cYVwwzMwNT'
p529
(dp530
g3
S'Klasico'
p531
sg5
I15
sg6
S'https://open.spotify.com/track/0uRHot8ml8U8cYVwwzMwNT'
p532
sg8
S'Corazon De Seda (feat. Ozuna)'
p533
ssS'4z3GJkrtH97Bj6fRta983T'
p534
(dp535
g3
S'Carlos Vives'
p536
sg5
I11
sg6
S'https://open.spotify.com/track/4z3GJkrtH97Bj6fRta983T'
p537
sg8
S'Robarte un Beso'
p538
ssS'4JnJ9ACXmtLkpH61ZvFSaM'
p539
(dp540
g3
S'Silvestre Dangond'
p541
sg5
I8
sg6
S'https://open.spotify.com/track/4JnJ9ACXmtLkpH61ZvFSaM'
p542
sg8
S'Ya No Me Duele M\xc3\xa1s'
p543
ssS'7BKLCZ1jbUBVqRi2FVlTVw'
p544
(dp545
g3
S'The Chainsmokers'
p546
sg5
I42
sg6
S'https://open.spotify.com/track/7BKLCZ1jbUBVqRi2FVlTVw'
p547
sg8
S'Closer'
p548
ssS'52M5auEmcKuKLJzuwWj5xs'
p549
(dp550
g3
S'Morat'
p551
sg5
I2
sg6
S'https://open.spotify.com/track/52M5auEmcKuKLJzuwWj5xs'
p552
sg8
S'Aprender A Quererte'
p553
ssS'7hDc8b7IXETo14hHIHdnhd'
p554
(dp555
g3
S'Drake'
p556
sg5
I21
sg6
S'https://open.spotify.com/track/7hDc8b7IXETo14hHIHdnhd'
p557
sg8
S'Passionfruit'
p558
ssS'2webQDZmtGioeu3zUUi9We'
p559
(dp560
g3
S'Sebastian Yatra'
p561
sg5
I34
sg6
S'https://open.spotify.com/track/2webQDZmtGioeu3zUUi9We'
p562
sg8
S'Traicionera - Remix'
p563
ssS'3RiPr603aXAoi4GHyXx0uy'
p564
(dp565
g3
S'Coldplay'
p566
sg5
I2
sg6
S'https://open.spotify.com/track/3RiPr603aXAoi4GHyXx0uy'
p567
sg8
S'Hymn For The Weekend'
p568
ssS'7IRuf7FrdQvOGs0g9mSNGr'
p569
(dp570
g3
S'Carlos Vives'
p571
sg5
I8
sg6
S'https://open.spotify.com/track/7IRuf7FrdQvOGs0g9mSNGr'
p572
sg8
S'La Bicicleta - Remix'
p573
ssS'0tICYNayWWhH9GPeFrfjfD'
p574
(dp575
g3
S'Kungs'
p576
sg5
I21
sg6
S'https://open.spotify.com/track/0tICYNayWWhH9GPeFrfjfD'
p577
sg8
S"This Girl (Kungs Vs. Cookin' On 3 Burners) - Kungs Vs. Cookin' On 3 Burners"
p578
ssS'5kTBmo3zNcnlm6saZRFrHR'
p579
(dp580
g3
S'Bacilos'
p581
sg5
I1
sg6
S'https://open.spotify.com/track/5kTBmo3zNcnlm6saZRFrHR'
p582
sg8
S'Por Hacerme el Bueno'
p583
ssS'5EnYT6F7wEcdege6mDHEfO'
p584
(dp585
g3
S'Drake'
p586
sg5
I5
sg6
S'https://open.spotify.com/track/5EnYT6F7wEcdege6mDHEfO'
p587
sg8
S'Signs'
p588
ssS'0XLOf9LhyazPX9Ld8jPiUq'
p589
(dp590
g3
S'Selena Gomez'
p591
sg5
I10
sg6
S'https://open.spotify.com/track/0XLOf9LhyazPX9Ld8jPiUq'
p592
sg8
S'Fetish (feat. Gucci Mane)'
p593
ssS'0PE1dlvMZeBqEbm4BtVVSZ'
p594
(dp595
g3
S'Gente De Zona'
p596
sg5
I23
sg6
S'https://open.spotify.com/track/0PE1dlvMZeBqEbm4BtVVSZ'
p597
sg8
S'Si No Vuelves'
p598
ssS'1p7m9H4H8s0Y7SgRm7j3ED'
p599
(dp600
g3
S'Andr\xc3\xa9s Calamaro'
p601
sg5
I2
sg6
S'https://open.spotify.com/track/1p7m9H4H8s0Y7SgRm7j3ED'
p602
sg8
S'Flaca'
p603
ssS'6puxHBNwu2Nmm7uD3Rd2MP'
p604
(dp605
g3
S'C. Tangana'
p606
sg5
I11
sg6
S'https://open.spotify.com/track/6puxHBNwu2Nmm7uD3Rd2MP'
p607
sg8
S'Mala Mujer'
p608
ssS'3A7qX2QjDlPnazUsRk5y0M'
p609
(dp610
g3
S'David Guetta'
p611
sg5
I17
sg6
S'https://open.spotify.com/track/3A7qX2QjDlPnazUsRk5y0M'
p612
sg8
S'2U (feat. Justin Bieber)'
p613
ssS'2OALaHcDdKkjYEpAr0Qzab'
p614
(dp615
g3
S'Avicii'
p616
sg5
I2
sg6
S'https://open.spotify.com/track/2OALaHcDdKkjYEpAr0Qzab'
p617
sg8
S'Lonely Together (feat. Rita Ora)'
p618
ssS'2d8rQXA25Yk5ZE3XW1eTXs'
p619
(dp620
g3
S'Kevin Roldan'
p621
sg5
I11
sg6
S'https://open.spotify.com/track/2d8rQXA25Yk5ZE3XW1eTXs'
p622
sg8
S'Me Gustas'
p623
ssS'56lBX2WHqfGuoeZxZvUnVj'
p624
(dp625
g3
S'Imagine Dragons'
p626
sg5
I3
sg6
S'https://open.spotify.com/track/56lBX2WHqfGuoeZxZvUnVj'
p627
sg8
S'Thunder'
p628
ssS'5nCtCCB5i1OfbADvynNw0i'
p629
(dp630
g3
S'Ed Sheeran'
p631
sg5
I20
sg6
S'https://open.spotify.com/track/5nCtCCB5i1OfbADvynNw0i'
p632
sg8
S'Shape of You (Latin Remix) [feat. Zion & Lennox]'
p633
ssS'5qqabIl2vWzo9ApSC317sa'
p634
(dp635
g3
S'Oasis'
p636
sg5
I8
sg6
S'https://open.spotify.com/track/5qqabIl2vWzo9ApSC317sa'
p637
sg8
S'Wonderwall - Remastered'
p638
ssS'4IWAyPf1KMq7JCyGeCjTeH'
p639
(dp640
g3
S'Imagine Dragons'
p641
sg5
I1
sg6
S'https://open.spotify.com/track/4IWAyPf1KMq7JCyGeCjTeH'
p642
sg8
S'Whatever It Takes'
p643
ssS'7gDmPRpv9oLHbTLwicn4Zl'
p644
(dp645
g3
S'Ozuna'
p646
sg5
I1
sg6
S'https://open.spotify.com/track/7gDmPRpv9oLHbTLwicn4Zl'
p647
sg8
S'Si No Te Quiere Remix (feat. Arcangel & Farruko)'
p648
ssS'7fwXWKdDNI5IutOMc5OKYw'
p649
(dp650
g3
S'J Balvin'
p651
sg5
I2
sg6
S'https://open.spotify.com/track/7fwXWKdDNI5IutOMc5OKYw'
p652
sg8
S'Mi Gente (feat. Beyonc\xc3\xa9)'
p653
ssS'6YZdkObH88npeKrrkb8Ggf'
p654
(dp655
g3
S'Enrique Iglesias'
p656
sg5
I34
sg6
S'https://open.spotify.com/track/6YZdkObH88npeKrrkb8Ggf'
p657
sg8
S'DUELE EL CORAZON'
p658
ssS'7LEydI5NfjY6mZfKwYIptZ'
p659
(dp660
g3
S'Fifth Harmony'
p661
sg5
I1
sg6
S'https://open.spotify.com/track/7LEydI5NfjY6mZfKwYIptZ'
p662
sg8
S'Down'
p663
ssS'3dnOHn0A5q3ny1LLLnSAty'
p664
(dp665
g3
S'Yandel'
p666
sg5
I5
sg6
S'https://open.spotify.com/track/3dnOHn0A5q3ny1LLLnSAty'
p667
sg8
S'Mi Religi\xc3\xb3n'
p668
ssS'7kxYYjOYRO8HamP4RKBhJ0'
p669
(dp670
g3
S'Ozuna'
p671
sg5
I2
sg6
S'https://open.spotify.com/track/7kxYYjOYRO8HamP4RKBhJ0'
p672
sg8
S'Si No Te Quiere'
p673
ssS'0Zbbxnx4SGGHoIow4PpISP'
p674
(dp675
g3
S'Kygo'
p676
sg5
I2
sg6
S'https://open.spotify.com/track/0Zbbxnx4SGGHoIow4PpISP'
p677
sg8
S'Stargazing'
p678
ssS'1OmcAT5Y8eg5bUPv9qJT4R'
p679
(dp680
g3
S'Post Malone'
p681
sg5
I2
sg6
S'https://open.spotify.com/track/1OmcAT5Y8eg5bUPv9qJT4R'
p682
sg8
S'rockstar'
p683
ssS'0azC730Exh71aQlOt9Zj3y'
p684
(dp685
g3
S'Calvin Harris'
p686
sg5
I27
sg6
S'https://open.spotify.com/track/0azC730Exh71aQlOt9Zj3y'
p687
sg8
S'This Is What You Came For'
p688
ssS'2Gl0FzuLxflY6nPifJp5Dr'
p689
(dp690
g3
S'Kygo'
p691
sg5
I16
sg6
S'https://open.spotify.com/track/2Gl0FzuLxflY6nPifJp5Dr'
p692
sg8
S'First Time'
p693
ssS'2jyjhRf6DVbMPU5zxagN2h'
p694
(dp695
g3
S'Passenger'
p696
sg5
I4
sg6
S'https://open.spotify.com/track/2jyjhRf6DVbMPU5zxagN2h'
p697
sg8
S'Let Her Go'
p698
ssS'7i2DJ88J7jQ8K7zqFX2fW8'
p699
(dp700
g3
S'Halsey'
p701
sg5
I2
sg6
S'https://open.spotify.com/track/7i2DJ88J7jQ8K7zqFX2fW8'
p702
sg8
S'Now Or Never'
p703
ssS'5jMvnSyOgGY8JpvHqeyVOg'
p704
(dp705
g3
S'Rombai'
p706
sg5
I22
sg6
S'https://open.spotify.com/track/5jMvnSyOgGY8JpvHqeyVOg'
p707
sg8
S'Locuras contigo'
p708
ssS'7LFLJWIQFHsaDw5FOltT5Z'
p709
(dp710
g3
S'Xantos'
p711
sg5
I15
sg6
S'https://open.spotify.com/track/7LFLJWIQFHsaDw5FOltT5Z'
p712
sg8
S'Bailame despacio - Piso 21 Remix'
p713
ssS'68EMU2RD1ECNeOeJ5qAXCV'
p714
(dp715
g3
S'Charlie Puth'
p716
sg5
I42
sg6
S'https://open.spotify.com/track/68EMU2RD1ECNeOeJ5qAXCV'
p717
sg8
S"We Don't Talk Anymore (feat. Selena Gomez)"
p718
ssS'105pLwtYErO64sPyXsPPAP'
p719
(dp720
g3
S'Morat'
p721
sg5
I13
sg6
S'https://open.spotify.com/track/105pLwtYErO64sPyXsPPAP'
p722
sg8
S'Amor Con Hielo'
p723
ssS'19CAKZdXVNyZrfmF60RAj3'
p724
(dp725
g3
S'Romeo Santos'
p726
sg5
I4
sg6
S'https://open.spotify.com/track/19CAKZdXVNyZrfmF60RAj3'
p727
sg8
S'Imitadora'
p728
ssS'6AN5AFLDuiEqaCYBqhat55'
p729
(dp730
g3
S'Silvestre Dangond'
p731
sg5
I2
sg6
S'https://open.spotify.com/track/6AN5AFLDuiEqaCYBqhat55'
p732
sg8
S'Por un Beso de Tu Boca'
p733
ssS'77a9893yxuz36cBUmBzA8E'
p734
(dp735
g3
S'Carlos Vives'
p736
sg5
I37
sg6
S'https://open.spotify.com/track/77a9893yxuz36cBUmBzA8E'
p737
sg8
S'Al Filo de Tu Amor'
p738
ssS'1j4kHkkpqZRBwE0A4CN4Yv'
p739
(dp740
g3
S'ZAYN'
p741
sg5
I5
sg6
S'https://open.spotify.com/track/1j4kHkkpqZRBwE0A4CN4Yv'
p742
sg8
S'Dusk Till Dawn - Radio Edit'
p743
ssS'1cImYkHOQMFE7AZC9aOk4y'
p744
(dp745
g3
S'Bobby Helms'
p746
sg5
I1
sg6
S'https://open.spotify.com/track/1cImYkHOQMFE7AZC9aOk4y'
p747
sg8
S'Jingle Bell Rock'
p748
ssS'2q6tgiA9tpb6DMguABwCWE'
p749
(dp750
g3
S'John Legend'
p751
sg5
I31
sg6
S'https://open.spotify.com/track/2q6tgiA9tpb6DMguABwCWE'
p752
sg8
S'All of Me'
p753
ssS'4VuS959DSpr82t3qBqCrWG'
p754
(dp755
g3
S'Ed Sheeran'
p756
sg5
I2
sg6
S'https://open.spotify.com/track/4VuS959DSpr82t3qBqCrWG'
p757
sg8
S'Supermarket Flowers'
p758
ssS'3nqrj9bM1clIkejk7BVPtX'
p759
(dp760
g3
S'Karol G'
p761
sg5
I23
sg6
S'https://open.spotify.com/track/3nqrj9bM1clIkejk7BVPtX'
p762
sg8
S'A Ella'
p763
ssS'4PCVVIrUDldF5r7RXtOB5W'
p764
(dp765
g3
S'Rombai'
p766
sg5
I1
sg6
S'https://open.spotify.com/track/4PCVVIrUDldF5r7RXtOB5W'
p767
sg8
S'Curiosidad'
p768
ssS'7MMRoGvm7uhoUVhGvHJ3yW'
p769
(dp770
g3
S'Manuel Turizo'
p771
sg5
I10
sg6
S'https://open.spotify.com/track/7MMRoGvm7uhoUVhGvHJ3yW'
p772
sg8
S'Una Lady Como T\xc3\xba - Remix'
p773
ssS'61HHDBLqF3AmSvLfHKNGd2'
p774
(dp775
g3
S'Karol G'
p776
sg5
I20
sg6
S'https://open.spotify.com/track/61HHDBLqF3AmSvLfHKNGd2'
p777
sg8
S'Ahora Me Llama'
p778
ssS'7Fl3wSxRqBljyQH8dJSz9c'
p779
(dp780
g3
S'Gente De Zona'
p781
sg5
I3
sg6
S'https://open.spotify.com/track/7Fl3wSxRqBljyQH8dJSz9c'
p782
sg8
S'Traidora'
p783
ssS'1lxswgIpzV6HhENRvkflES'
p784
(dp785
g3
S'Farruko'
p786
sg5
I42
sg6
S'https://open.spotify.com/track/1lxswgIpzV6HhENRvkflES'
p787
sg8
S'Chillax'
p788
ssS'61WbtB6ujkpNAsAf5LjF4b'
p789
(dp790
g3
S'Katy Perry'
p791
sg5
I8
sg6
S'https://open.spotify.com/track/61WbtB6ujkpNAsAf5LjF4b'
p792
sg8
S'Bon app\xc3\xa9tit'
p793
ssS'7ofxPmTNMj2GP07g1VZa0O'
p794
(dp795
g3
S'Alex Sensation'
p796
sg5
I10
sg6
S'https://open.spotify.com/track/7ofxPmTNMj2GP07g1VZa0O'
p797
sg8
S'Que Va'
p798
ssS'5tf1VVWniHgryyumXyJM7w'
p799
(dp800
g3
S'Robin Schulz'
p801
sg5
I3
sg6
S'https://open.spotify.com/track/5tf1VVWniHgryyumXyJM7w'
p802
sg8
S'Sugar (feat. Francesco Yates)'
p803
ssS'0nfBKG11Wv2bK8cPjMU5VB'
p804
(dp805
g3
S'Chino & Nacho'
p806
sg5
I20
sg6
S'https://open.spotify.com/track/0nfBKG11Wv2bK8cPjMU5VB'
p807
sg8
S'Me Voy Enamorando - Remix'
p808
ssS'3BY2mafsbsoKGqS380Xnuz'
p809
(dp810
g3
S'Don Omar'
p811
sg5
I42
sg6
S'https://open.spotify.com/track/3BY2mafsbsoKGqS380Xnuz'
p812
sg8
S'Te Quiero Pa\xc2\xb4Mi'
p813
ssS'4JAyIDXOqNM6qHuZML01uX'
p814
(dp815
g3
g202
sg5
I1
sg6
S'https://open.spotify.com/track/4JAyIDXOqNM6qHuZML01uX'
p816
sg8
g202
ssS'0EpFfFZpCuqYFzHvxOtrZS'
p817
(dp818
g3
S'Yandel'
p819
sg5
I25
sg6
S'https://open.spotify.com/track/0EpFfFZpCuqYFzHvxOtrZS'
p820
sg8
S'Encantadora - Remix'
p821
ssS'5LYQSNHZxEA880URXFHg6h'
p822
(dp823
g3
S'Lana Del Rey'
p824
sg5
I2
sg6
S'https://open.spotify.com/track/5LYQSNHZxEA880URXFHg6h'
p825
sg8
S'Lust for Life (with The Weeknd)'
p826
ssS'7JpzzaCzljQdfnG7wPRqSe'
p827
(dp828
g3
S'Prince Royce'
p829
sg5
I25
sg6
S'https://open.spotify.com/track/7JpzzaCzljQdfnG7wPRqSe'
p830
sg8
S'Ganas Locas'
p831
ssS'5hYTyyh2odQKphUbMqc5gN'
p832
(dp833
g3
S'Alessia Cara'
p834
sg5
I13
sg6
S'https://open.spotify.com/track/5hYTyyh2odQKphUbMqc5gN'
p835
sg8
S"How Far I'll Go - From Moana"
p836
ssS'72jbDTw1piOOj770jWNeaG'
p837
(dp838
g3
S'The Chainsmokers'
p839
sg5
I32
sg6
S'https://open.spotify.com/track/72jbDTw1piOOj770jWNeaG'
p840
sg8
S'Paris'
p841
ssS'0dA2Mk56wEzDgegdC6R17g'
p842
(dp843
g3
S'Zedd'
p844
sg5
I28
sg6
S'https://open.spotify.com/track/0dA2Mk56wEzDgegdC6R17g'
p845
sg8
S'Stay (with Alessia Cara)'
p846
ssS'3Ytr1SUCUi6J3L9dRFx5iH'
p847
(dp848
g3
S'Major Lazer'
p849
sg5
I14
sg6
S'https://open.spotify.com/track/3Ytr1SUCUi6J3L9dRFx5iH'
p850
sg8
S'Know No Better (feat. Quavo)'
p851
ssS'6La6oWlGposkrgvLjjRJju'
p852
(dp853
g3
S'Ozuna'
p854
sg5
I1
sg6
S'https://open.spotify.com/track/6La6oWlGposkrgvLjjRJju'
p855
sg8
S'Cumplea\xc3\xb1os'
p856
ssS'7nZmah2llfvLDiUjm0kiyz'
p857
(dp858
g3
S'Justin Bieber'
p859
sg5
I8
sg6
S'https://open.spotify.com/track/7nZmah2llfvLDiUjm0kiyz'
p860
sg8
S'Friends (with BloodPop\xc2\xae)'
p861
ssS'6BdAwMv1YorLfkBWlE493X'
p862
(dp863
g3
S'Romeo Santos'
p864
sg5
I3
sg6
S'https://open.spotify.com/track/6BdAwMv1YorLfkBWlE493X'
p865
sg8
S'H\xc3\xa9roe Favorito'
p866
ssS'3eFJqPe8VUYrABbFjSauuj'
p867
(dp868
g3
g202
sg5
I1
sg6
S'https://open.spotify.com/track/3eFJqPe8VUYrABbFjSauuj'
p869
sg8
g202
ssS'2LsbizbOeNa4x6qsi2jAMb'
p870
(dp871
g3
S'Jarabe De Palo'
p872
sg5
I27
sg6
S'https://open.spotify.com/track/2LsbizbOeNa4x6qsi2jAMb'
p873
sg8
S'La flaca'
p874
ssS'7MHN1aCFtLXjownGhvEQlF'
p875
(dp876
g3
S'Manuel Turizo'
p877
sg5
I26
sg6
S'https://open.spotify.com/track/7MHN1aCFtLXjownGhvEQlF'
p878
sg8
S'Una Lady Como T\xc3\xba'
p879
ssS'22eADXu8DfOAUEDw4vU8qy'
p880
(dp881
g3
S'Chris Jeday'
p882
sg5
I29
sg6
S'https://open.spotify.com/track/22eADXu8DfOAUEDw4vU8qy'
p883
sg8
S'Ahora Dice'
p884
ssS'2BesEfIHzUb7viZwUkSAhE'
p885
(dp886
g3
S'Alexis & Fido'
p887
sg5
I1
sg6
S'https://open.spotify.com/track/2BesEfIHzUb7viZwUkSAhE'
p888
sg8
S'Una en un Mill\xc3\xb3n - Remix'
p889
ssS'2dfHh7ECGxfNqZTQno09Vk'
p890
(dp891
g3
S'Ed Sheeran'
p892
sg5
I2
sg6
S'https://open.spotify.com/track/2dfHh7ECGxfNqZTQno09Vk'
p893
sg8
S"Hearts Don't Break Around Here"
p894
ssS'6lanRgr6wXibZr8KgzXxBl'
p895
(dp896
g3
S'Christina Perri'
p897
sg5
I7
sg6
S'https://open.spotify.com/track/6lanRgr6wXibZr8KgzXxBl'
p898
sg8
S'A Thousand Years'
p899
ssS'0H7cz1bR7w9PulJL7Na774'
p900
(dp901
g3
S'Felipe Pel\xc3\xa1ez'
p902
sg5
I13
sg6
S'https://open.spotify.com/track/0H7cz1bR7w9PulJL7Na774'
p903
sg8
S'Vivo Pensando En Ti'
p904
ssS'33F4IHQ2JcXWSDXNA9b4tK'
p905
(dp906
g3
S'Maluma'
p907
sg5
I8
sg6
S'https://open.spotify.com/track/33F4IHQ2JcXWSDXNA9b4tK'
p908
sg8
S'Felices los 4 - Salsa Version'
p909
ssS'7l9CE3wmEGOUYw1j4ETjnL'
p910
(dp911
g3
S'Gorillaz'
p912
sg5
I1
sg6
S'https://open.spotify.com/track/7l9CE3wmEGOUYw1j4ETjnL'
p913
sg8
S'Saturnz Barz (feat. Popcaan)'
p914
ssS'0NiXXAI876aGImAd6rTj8w'
p915
(dp916
g3
S'Jonas Blue'
p917
sg5
I14
sg6
S'https://open.spotify.com/track/0NiXXAI876aGImAd6rTj8w'
p918
sg8
S'Mama'
p919
ssS'343YBumqHu19cGoGARUTsd'
p920
(dp921
g3
S'Drake'
p922
sg5
I11
sg6
S'https://open.spotify.com/track/343YBumqHu19cGoGARUTsd'
p923
sg8
S'Fake Love'
p924
ssS'5HDPtsnyb3maFmPL8LLUTG'
p925
(dp926
g3
S'Ed Sheeran'
p927
sg5
I3
sg6
S'https://open.spotify.com/track/5HDPtsnyb3maFmPL8LLUTG'
p928
sg8
S'New Man'
p929
ssS'2q5VkfuJpCHJiFkMqNsenl'
p930
(dp931
g3
S'Jencarlos'
p932
sg5
I13
sg6
S'https://open.spotify.com/track/2q5VkfuJpCHJiFkMqNsenl'
p933
sg8
S'Bajito'
p934
ssS'6WbADFqMvR8N5u0BvtsWQE'
p935
(dp936
g3
S'Avicii'
p937
sg5
I9
sg6
S'https://open.spotify.com/track/6WbADFqMvR8N5u0BvtsWQE'
p938
sg8
S'Without You (feat. Sandro Cavazza)'
p939
ssS'0QetVR4wwvyiTezQeFNdeZ'
p940
(dp941
g3
S'Ozuna'
p942
sg5
I1
sg6
S'https://open.spotify.com/track/0QetVR4wwvyiTezQeFNdeZ'
p943
sg8
S'En La Intimidad'
p944
ssS'75JFxkI2RXiU7L9VXzMkle'
p945
(dp946
g3
S'Coldplay'
p947
sg5
I42
sg6
S'https://open.spotify.com/track/75JFxkI2RXiU7L9VXzMkle'
p948
sg8
S'The Scientist'
p949
ssS'3m660poUr1chesgkkjQM7P'
p950
(dp951
g3
S'Demi Lovato'
p952
sg5
I2
sg6
S'https://open.spotify.com/track/3m660poUr1chesgkkjQM7P'
p953
sg8
S'Sorry Not Sorry'
p954
ssS'4pdPtRcBmOSQDlJ3Fk945m'
p955
(dp956
g3
S'DJ Snake'
p957
sg5
I42
sg6
S'https://open.spotify.com/track/4pdPtRcBmOSQDlJ3Fk945m'
p958
sg8
S'Let Me Love You'
p959
ssS'1I8tHoNBFTuoJAlh4hfVVE'
p960
(dp961
g3
S'Kygo'
p962
sg5
I19
sg6
S'https://open.spotify.com/track/1I8tHoNBFTuoJAlh4hfVVE'
p963
sg8
S'Firestone'
p964
ssS'4OaTpLJIa2harufGxfOPUu'
p965
(dp966
g3
S'Xantos'
p967
sg5
I42
sg6
S'https://open.spotify.com/track/4OaTpLJIa2harufGxfOPUu'
p968
sg8
S'Bailame Despacio'
p969
ssS'5N8nNuTmIzkZOfcxXlygUw'
p970
(dp971
g3
S'J Balvin'
p972
sg5
I9
sg6
S'https://open.spotify.com/track/5N8nNuTmIzkZOfcxXlygUw'
p973
sg8
S'Ginza'
p974
ssS'3QwBODjSEzelZyVjxPOHdq'
p975
(dp976
g3
S'Zion & Lennox'
p977
sg5
I42
sg6
S'https://open.spotify.com/track/3QwBODjSEzelZyVjxPOHdq'
p978
sg8
S'Otra Vez (feat. J Balvin)'
p979
ssS'6stYbAJgTszHAHZMPxWWCY'
p980
(dp981
g3
S'IAmChino'
p982
sg5
I42
sg6
S'https://open.spotify.com/track/6stYbAJgTszHAHZMPxWWCY'
p983
sg8
S'Ay Mi Dios'
p984
ssS'1OAiWI2oPmglaOiv9fdioU'
p985
(dp986
g3
S'Coldplay'
p987
sg5
I11
sg6
S'https://open.spotify.com/track/1OAiWI2oPmglaOiv9fdioU'
p988
sg8
S'Hymn For The Weekend - Seeb Remix'
p989
ssS'209gZgcfLq2aUuu51vOWBl'
p990
(dp991
g3
S'CNCO'
p992
sg5
I27
sg6
S'https://open.spotify.com/track/209gZgcfLq2aUuu51vOWBl'
p993
sg8
S'Hey DJ'
p994
ssS'01vHGJRvJ6EZW9KO8NtZpi'
p995
(dp996
g3
S'Maluma'
p997
sg5
I6
sg6
S'https://open.spotify.com/track/01vHGJRvJ6EZW9KO8NtZpi'
p998
sg8
S'Un Polvo'
p999
ssS'5P45f6HakSHDwdFj5dO5K5'
p1000
(dp1001
g3
S'Wisin'
p1002
sg5
I13
sg6
S'https://open.spotify.com/track/5P45f6HakSHDwdFj5dO5K5'
p1003
sg8
S'Esc\xc3\xa1pate Conmigo - Remix'
p1004
ssS'5OOkp4U9P9oL23maHFHL1h'
p1005
(dp1006
g3
S'Desiigner'
p1007
sg5
I4
sg6
S'https://open.spotify.com/track/5OOkp4U9P9oL23maHFHL1h'
p1008
sg8
S'Panda'
p1009
ssS'72Q0FQQo32KJloivv5xge2'
p1010
(dp1011
g3
S'DJ Khaled'
p1012
sg5
I3
sg6
S'https://open.spotify.com/track/72Q0FQQo32KJloivv5xge2'
p1013
sg8
S"I'm the One"
p1014
ssS'6urlj8N8TL3MK0ATNGIZYW'
p1015
(dp1016
g3
S'Major Lazer'
p1017
sg5
I7
sg6
S'https://open.spotify.com/track/6urlj8N8TL3MK0ATNGIZYW'
p1018
sg8
S'Buscando Huellas (feat. J Balvin & Sean Paul)'
p1019
ssS'0u13src3QcditRU5VPduML'
p1020
(dp1021
g3
S'Mon Laferte'
p1022
sg5
I21
sg6
S'https://open.spotify.com/track/0u13src3QcditRU5VPduML'
p1023
sg8
S'Am\xc3\xa1rrame'
p1024
ssS'0d9wwtTyMxYzIFJs8CKbiz'
p1025
(dp1026
g3
S'Major Lazer'
p1027
sg5
I1
sg6
S'https://open.spotify.com/track/0d9wwtTyMxYzIFJs8CKbiz'
p1028
sg8
S'Know No Better (feat. Travis Scott & Quavo) - Bad Bunny Remix'
p1029
ssS'3cFsmM51N5zMAuu1nNY4Tw'
p1030
(dp1031
g3
S'Sean Paul'
p1032
sg5
I10
sg6
S'https://open.spotify.com/track/3cFsmM51N5zMAuu1nNY4Tw'
p1033
sg8
S'No Lie'
p1034
ssS'79cuOz3SPQTuFrp8WgftAu'
p1035
(dp1036
g3
S'Shawn Mendes'
p1037
sg5
I25
sg6
S'https://open.spotify.com/track/79cuOz3SPQTuFrp8WgftAu'
p1038
sg8
S"There's Nothing Holdin' Me Back"
p1039
ssS'0lmdsH1MIoLsMymnNpd6HU'
p1040
(dp1041
g3
S'Dante Klein'
p1042
sg5
I2
sg6
S'https://open.spotify.com/track/0lmdsH1MIoLsMymnNpd6HU'
p1043
sg8
S'Let Me Hold You (Turn Me On)'
p1044
ssS'7AtlMCIauSQZqiXSlbBPW6'
p1045
(dp1046
g3
S'J Balvin'
p1047
sg5
I24
sg6
S'https://open.spotify.com/track/7AtlMCIauSQZqiXSlbBPW6'
p1048
sg8
S'Bobo'
p1049
ssS'0gzcET27nREY6aD8LJU9wD'
p1050
(dp1051
g3
S'Marama'
p1052
sg5
I21
sg6
S'https://open.spotify.com/track/0gzcET27nREY6aD8LJU9wD'
p1053
sg8
S'Noche Loca'
p1054
ssS'4YW2Fr25fHwUt6qgvM1iE1'
p1055
(dp1056
g3
S'Wisin'
p1057
sg5
I30
sg6
S'https://open.spotify.com/track/4YW2Fr25fHwUt6qgvM1iE1'
p1058
sg8
S'Nota de Amor'
p1059
ssS'1WOJTQfNUEkLlsinPP95VM'
p1060
(dp1061
g3
S'Zion & Lennox'
p1062
sg5
I4
sg6
S'https://open.spotify.com/track/1WOJTQfNUEkLlsinPP95VM'
p1063
sg8
S'Embri\xc3\xa1game (feat. Don Omar) - Remix'
p1064
ssS'772io14jrMTxGJbijtDccQ'
p1065
(dp1066
g3
S'Juan Mag\xc3\xa1n'
p1067
sg5
I19
sg6
S'https://open.spotify.com/track/772io14jrMTxGJbijtDccQ'
p1068
sg8
S'Baila Conmigo'
p1069
ssS'58IL315gMSTD37DOZPJ2hf'
p1070
(dp1071
g3
S'Daddy Yankee'
p1072
sg5
I35
sg6
S'https://open.spotify.com/track/58IL315gMSTD37DOZPJ2hf'
p1073
sg8
S'Shaky Shaky'
p1074
ssS'77KHmKnBmVGTjRCeMVXpWH'
p1075
(dp1076
g3
S'Kevin Roldan'
p1077
sg5
I11
sg6
S'https://open.spotify.com/track/77KHmKnBmVGTjRCeMVXpWH'
p1078
sg8
S'Ruleta Rusa'
p1079
ssS'1AhDOtG9vPSOmsWgNW0BEY'
p1080
(dp1081
g3
S'Queen'
p1082
sg5
I6
sg6
S'https://open.spotify.com/track/1AhDOtG9vPSOmsWgNW0BEY'
p1083
sg8
S'Bohemian Rhapsody - Remastered 2011'
p1084
ssS'5bZtRlMBU76vHuDOb1GM5u'
p1085
(dp1086
g3
S'Jonas Blue'
p1087
sg5
I7
sg6
S'https://open.spotify.com/track/5bZtRlMBU76vHuDOb1GM5u'
p1088
sg8
S'Perfect Strangers'
p1089
ssS'3GpvoKKWZyTwgbLEM9RmWM'
p1090
(dp1091
g3
S'Cali Y El Dandee'
p1092
sg5
I42
sg6
S'https://open.spotify.com/track/3GpvoKKWZyTwgbLEM9RmWM'
p1093
sg8
S'Por Fin Te Encontr\xc3\xa9'
p1094
ssS'0bK3jxkbq5cDKWr68KtO8G'
p1095
(dp1096
g3
S'Manuel Medrano'
p1097
sg5
I42
sg6
S'https://open.spotify.com/track/0bK3jxkbq5cDKWr68KtO8G'
p1098
sg8
S'Una y otra vez'
p1099
ssS'0JiVRyTJcJnmlwCZ854K4p'
p1100
(dp1101
g3
S'Alan Walker'
p1102
sg5
I25
sg6
S'https://open.spotify.com/track/0JiVRyTJcJnmlwCZ854K4p'
p1103
sg8
S'Alone'
p1104
ssS'2SSYqDX8KTgy01NlqtUo0F'
p1105
(dp1106
g3
S'Reik'
p1107
sg5
I42
sg6
S'https://open.spotify.com/track/2SSYqDX8KTgy01NlqtUo0F'
p1108
sg8
S'Ya Me Enter\xc3\xa9 (feat. Nicky Jam) - Urban Version'
p1109
ssS'3hRZsdTF5uyGA2uhNqEuhm'
p1110
(dp1111
g3
S'Niall Horan'
p1112
sg5
I2
sg6
S'https://open.spotify.com/track/3hRZsdTF5uyGA2uhNqEuhm'
p1113
sg8
S'Too Much To Ask'
p1114
ssS'6sMPwcpYtxm1mlgYbp1B0t'
p1115
(dp1116
g3
S'Jacob Forever'
p1117
sg5
I11
sg6
S'https://open.spotify.com/track/6sMPwcpYtxm1mlgYbp1B0t'
p1118
sg8
S'Hasta Que Se Seque el Malec\xc3\xb3n - Remix'
p1119
ssS'5edBgVtRD0fvWk140Sl21T'
p1120
(dp1121
g3
S'OneRepublic'
p1122
sg5
I25
sg6
S'https://open.spotify.com/track/5edBgVtRD0fvWk140Sl21T'
p1123
sg8
S'Counting Stars'
p1124
ssS'7JZP7kQsuFFWOrtAI7uNiW'
p1125
(dp1126
g3
S'Soda Stereo'
p1127
sg5
I2
sg6
S'https://open.spotify.com/track/7JZP7kQsuFFWOrtAI7uNiW'
p1128
sg8
S'Persiana Americana'
p1129
ssS'35QZaWQRkmnAVqBF1TLCxQ'
p1130
(dp1131
g3
S'Ed Sheeran'
p1132
sg5
I1
sg6
S'https://open.spotify.com/track/35QZaWQRkmnAVqBF1TLCxQ'
p1133
sg8
S'Nancy Mulligan'
p1134
ssS'0aywfeIr0tmhLZJxzqOhzP'
p1135
(dp1136
g3
S'Cabas'
p1137
sg5
I42
sg6
S'https://open.spotify.com/track/0aywfeIr0tmhLZJxzqOhzP'
p1138
sg8
S'Enamor\xc3\xa1ndonos'
p1139
ssS'2Z8WuEywRWYTKe1NybPQEW'
p1140
(dp1141
g3
S'Twenty One Pilots'
p1142
sg5
I37
sg6
S'https://open.spotify.com/track/2Z8WuEywRWYTKe1NybPQEW'
p1143
sg8
S'Ride'
p1144
ssS'36JI0KHc591i9liHaFqDFG'
p1145
(dp1146
g3
S'Los De La Nazza'
p1147
sg5
I4
sg6
S'https://open.spotify.com/track/36JI0KHc591i9liHaFqDFG'
p1148
sg8
S'Falsas Mentiras (feat. Ozuna)'
p1149
ssS'0EhyUkKRh4olNJY0lJ9rhG'
p1150
(dp1151
g3
S'Xantos'
p1152
sg5
I2
sg6
S'https://open.spotify.com/track/0EhyUkKRh4olNJY0lJ9rhG'
p1153
sg8
S'Bailame Despacio - Piso 21 Remix'
p1154
ssS'6JV2JOEocMgcZxYSZelKcc'
p1155
(dp1156
g3
S'Justin Timberlake'
p1157
sg5
I28
sg6
S'https://open.spotify.com/track/6JV2JOEocMgcZxYSZelKcc'
p1158
sg8
S"CAN'T STOP THE FEELING! (Original Song from DreamWorks Animation's TROLLS)"
p1159
ssS'6De0lHrwBfPfrhorm9q1Xl'
p1160
(dp1161
g3
S'Danny Ocean'
p1162
sg5
I40
sg6
S'https://open.spotify.com/track/6De0lHrwBfPfrhorm9q1Xl'
p1163
sg8
S'Me Reh\xc3\xbaso'
p1164
ssS'7aV2mflaASUmGhCErm7kBO'
p1165
(dp1166
g3
S'Nevada'
p1167
sg5
I3
sg6
S'https://open.spotify.com/track/7aV2mflaASUmGhCErm7kBO'
p1168
sg8
S'The Mack'
p1169
ssS'0bYg9bo50gSsH3LtXe2SQn'
p1170
(dp1171
g3
S'Mariah Carey'
p1172
sg5
I1
sg6
S'https://open.spotify.com/track/0bYg9bo50gSsH3LtXe2SQn'
p1173
sg8
S'All I Want for Christmas Is You'
p1174
ssS'3rOSwuTsUlJp0Pu0MkN8r8'
p1175
(dp1176
g3
S'Future'
p1177
sg5
I10
sg6
S'https://open.spotify.com/track/3rOSwuTsUlJp0Pu0MkN8r8'
p1178
sg8
S'Mask Off'
p1179
ssS'2GJyBJWPmnM7pK961cB6iV'
p1180
(dp1181
g3
S'Melendi'
p1182
sg5
I6
sg6
S'https://open.spotify.com/track/2GJyBJWPmnM7pK961cB6iV'
p1183
sg8
S'La promesa'
p1184
ssS'1qOLh0tI7trd1zdDKxYZTe'
p1185
(dp1186
g3
S'Hailee Steinfeld'
p1187
sg5
I15
sg6
S'https://open.spotify.com/track/1qOLh0tI7trd1zdDKxYZTe'
p1188
sg8
S'Starving'
p1189
ssS'3HVr6jTVwBHBa2flM0eURR'
p1190
(dp1191
g3
S'Macklemore'
p1192
sg5
I7
sg6
S'https://open.spotify.com/track/3HVr6jTVwBHBa2flM0eURR'
p1193
sg8
S'Glorious (feat. Skylar Grey)'
p1194
ssS'7taXf5odg9xCAZERYfyOkS'
p1195
(dp1196
g3
S'Jos\xc3\xa9 Feliciano'
p1197
sg5
I1
sg6
S'https://open.spotify.com/track/7taXf5odg9xCAZERYfyOkS'
p1198
sg8
S'Feliz Navidad'
p1199
ssS'1cG0umU5TKStygKsPFZ9pY'
p1200
(dp1201
g3
S'Robin Schulz'
p1202
sg5
I18
sg6
S'https://open.spotify.com/track/1cG0umU5TKStygKsPFZ9pY'
p1203
sg8
S'Shed a Light'
p1204
ssS'6520aj0B4FSKGVuKNsOCOi'
p1205
(dp1206
g3
S'Katy Perry'
p1207
sg5
I19
sg6
S'https://open.spotify.com/track/6520aj0B4FSKGVuKNsOCOi'
p1208
sg8
S'Chained To The Rhythm'
p1209
ssS'4q8PHoRsPUB52LFylX8Ulz'
p1210
(dp1211
g3
S'Axwell /\\ Ingrosso'
p1212
sg5
I6
sg6
S'https://open.spotify.com/track/4q8PHoRsPUB52LFylX8Ulz'
p1213
sg8
S'More Than You Know'
p1214
ssS'6EpRaXYhGOB3fj4V2uDkMJ'
p1215
(dp1216
g3
S'Liam Payne'
p1217
sg5
I20
sg6
S'https://open.spotify.com/track/6EpRaXYhGOB3fj4V2uDkMJ'
p1218
sg8
S'Strip That Down'
p1219
ssS'1wjzFQodRWrPcQ0AnYnvQ9'
p1220
(dp1221
g3
S'Lauv'
p1222
sg5
I7
sg6
S'https://open.spotify.com/track/1wjzFQodRWrPcQ0AnYnvQ9'
p1223
sg8
S'I Like Me Better'
p1224
ssS'51PIvodunv6NmX5250zxAh'
p1225
(dp1226
g3
S'Lady Gaga'
p1227
sg5
I8
sg6
S'https://open.spotify.com/track/51PIvodunv6NmX5250zxAh'
p1228
sg8
S'The Cure'
p1229
ssS'4PdJSsESm34djLfBde9Pr2'
p1230
(dp1231
g3
S'David Guetta'
p1232
sg5
I1
sg6
S'https://open.spotify.com/track/4PdJSsESm34djLfBde9Pr2'
p1233
sg8
S'Would I Lie To You - Radio Edit'
p1234
ssS'7abpmGpF7PGep2rDU68GBR'
p1235
(dp1236
g3
S'Burak Yeter'
p1237
sg5
I29
sg6
S'https://open.spotify.com/track/7abpmGpF7PGep2rDU68GBR'
p1238
sg8
S'Tuesday'
p1239
ssS'0YwxZXiwZDJbWhfQJMIn8u'
p1240
(dp1241
g3
S'Mueka'
p1242
sg5
I2
sg6
S'https://open.spotify.com/track/0YwxZXiwZDJbWhfQJMIn8u'
p1243
sg8
S'DM'
p1244
ssS'0qYTZCo5Bwh1nsUFGZP3zn'
p1245
(dp1246
g3
S'Maluma'
p1247
sg5
I25
sg6
S'https://open.spotify.com/track/0qYTZCo5Bwh1nsUFGZP3zn'
p1248
sg8
S'Felices los 4'
p1249
ssS'5MFzQMkrl1FOOng9tq6R9r'
p1250
(dp1251
g3
S'Maroon 5'
p1252
sg5
I42
sg6
S'https://open.spotify.com/track/5MFzQMkrl1FOOng9tq6R9r'
p1253
sg8
S"Don't Wanna Know"
p1254
ssS'3FDrI0FLKzrYQiWxPhqV2W'
p1255
(dp1256
g3
S'Calvin Harris'
p1257
sg5
I1
sg6
S'https://open.spotify.com/track/3FDrI0FLKzrYQiWxPhqV2W'
p1258
sg8
S'Rollin'
p1259
ssS'4r3itKA9HEJo48RG65OEnt'
p1260
(dp1261
g3
S'J Balvin'
p1262
sg5
I3
sg6
S'https://open.spotify.com/track/4r3itKA9HEJo48RG65OEnt'
p1263
sg8
S'Pierde Los Modales'
p1264
ssS'4zii9cq9ZgxYJFnaxM3Tul'
p1265
(dp1266
g3
S'French Montana'
p1267
sg5
I4
sg6
S'https://open.spotify.com/track/4zii9cq9ZgxYJFnaxM3Tul'
p1268
sg8
S'Unforgettable - Latin Remix'
p1269
ssS'0B7wvvmu9EISAwZnOpjhNI'
p1270
(dp1271
g3
S'Bruno Mars'
p1272
sg5
I17
sg6
S'https://open.spotify.com/track/0B7wvvmu9EISAwZnOpjhNI'
p1273
sg8
S'When I Was Your Man'
p1274
ssS'1WP1r7fuvRqZRnUaTi2I1Q'
p1275
(dp1276
g3
S'Shawn Mendes'
p1277
sg5
I24
sg6
S'https://open.spotify.com/track/1WP1r7fuvRqZRnUaTi2I1Q'
p1278
sg8
S'Stitches'
p1279
ssS'7dl4Nfi0EJsLNieDYQCFv1'
p1280
(dp1281
g3
S'Major Lazer'
p1282
sg5
I1
sg6
S'https://open.spotify.com/track/7dl4Nfi0EJsLNieDYQCFv1'
p1283
sg8
S'Buscando Huellas (feat. J Balvin & Sean Paul)'
p1284
ssS'32OlwWuMpZ6b0aN2RZOeMS'
p1285
(dp1286
g3
S'Mark Ronson'
p1287
sg5
I2
sg6
S'https://open.spotify.com/track/32OlwWuMpZ6b0aN2RZOeMS'
p1288
sg8
S'Uptown Funk'
p1289
ssS'1jYiIOC5d6soxkJP81fxq2'
p1290
(dp1291
g3
S'DJ Khaled'
p1292
sg5
I1
sg6
S'https://open.spotify.com/track/1jYiIOC5d6soxkJP81fxq2'
p1293
sg8
S"I'm the One"
p1294
ssS'0yyZN5ASdrYu0XYWFzfxUu'
p1295
(dp1296
g3
S'Jesse & Joy'
p1297
sg5
I8
sg6
S'https://open.spotify.com/track/0yyZN5ASdrYu0XYWFzfxUu'
p1298
sg8
S'3 A.M.'
p1299
ssS'6p3yxt0uJJshAS3CT0znQg'
p1300
(dp1301
g3
S'Natalia Lafourcade'
p1302
sg5
I17
sg6
S'https://open.spotify.com/track/6p3yxt0uJJshAS3CT0znQg'
p1303
sg8
S'T\xc3\xba S\xc3\xad Sabes Quererme'
p1304
ssS'3eR23VReFzcdmS7TYCrhCe'
p1305
(dp1306
g3
S'Kygo'
p1307
sg5
I33
sg6
S'https://open.spotify.com/track/3eR23VReFzcdmS7TYCrhCe'
p1308
sg8
S"It Ain't Me (with Selena Gomez)"
p1309
ssS'3Gqj86AgnD8EiIOFIGLubs'
p1310
(dp1311
g3
S'OneRepublic'
p1312
sg5
I15
sg6
S'https://open.spotify.com/track/3Gqj86AgnD8EiIOFIGLubs'
p1313
sg8
S'No Vacancy (with Sebasti\xc3\xa1n Yatra)'
p1314
ssS'3dINUTtt8noTn16rHcpTTp'
p1315
(dp1316
g3
S'Natti Natasha'
p1317
sg5
I1
sg6
S'https://open.spotify.com/track/3dINUTtt8noTn16rHcpTTp'
p1318
sg8
S'Criminal'
p1319
ssS'1oNtIPC2XBWpE7A1x9YjQi'
p1320
(dp1321
g3
S'Yandel'
p1322
sg5
I1
sg6
S'https://open.spotify.com/track/1oNtIPC2XBWpE7A1x9YjQi'
p1323
sg8
S'Muy Personal'
p1324
ssS'0a9b4sUavOWgyc9jeScv7Y'
p1325
(dp1326
g3
S'Chyno Miranda'
p1327
sg5
I17
sg6
S'https://open.spotify.com/track/0a9b4sUavOWgyc9jeScv7Y'
p1328
sg8
S'Qu\xc3\xa9date Conmigo'
p1329
ssS'7zgqtptZvhf8GEmdsM2vp2'
p1330
(dp1331
g3
S'Taylor Swift'
p1332
sg5
I1
sg6
S'https://open.spotify.com/track/7zgqtptZvhf8GEmdsM2vp2'
p1333
sg8
S'...Ready For It?'
p1334
ssS'2uWg6P3lEsS1qQ2qg11TUx'
p1335
(dp1336
g3
S'Sebastian Yatra'
p1337
sg5
I17
sg6
S'https://open.spotify.com/track/2uWg6P3lEsS1qQ2qg11TUx'
p1338
sg8
S'Devu\xc3\xa9lveme El Coraz\xc3\xb3n'
p1339
ssS'7DhYjNLksXZhbRQeheAums'
p1340
(dp1341
g3
S'Bacilos'
p1342
sg5
I42
sg6
S'https://open.spotify.com/track/7DhYjNLksXZhbRQeheAums'
p1343
sg8
S'Caraluna'
p1344
ssS'7jzpAD8q77nwEmSsqUeUjy'
p1345
(dp1346
g3
S'Reykon'
p1347
sg5
I26
sg6
S'https://open.spotify.com/track/7jzpAD8q77nwEmSsqUeUjy'
p1348
sg8
S'D\xc3\xa9jame te explico'
p1349
ssS'2C0KFbb4v9CNWR5c9jWcKC'
p1350
(dp1351
g3
S'Gorillaz'
p1352
sg5
I1
sg6
S'https://open.spotify.com/track/2C0KFbb4v9CNWR5c9jWcKC'
p1353
sg8
S'Andromeda (feat. DRAM)'
p1354
ssS'2FIm6YsSGL5acOqSuJDh5s'
p1355
(dp1356
g3
S'Arcangel'
p1357
sg5
I26
sg6
S'https://open.spotify.com/track/2FIm6YsSGL5acOqSuJDh5s'
p1358
sg8
S'Me Acostumbre (feat. Bad Bunny)'
p1359
ssS'13X0XdLMOdtbXVtAj2ox4h'
p1360
(dp1361
g3
S'Piso 21'
p1362
sg5
I25
sg6
S'https://open.spotify.com/track/13X0XdLMOdtbXVtAj2ox4h'
p1363
sg8
S'Bes\xc3\xa1ndote'
p1364
ssS'6cPyTS0Kk2sc4xQwC93kOg'
p1365
(dp1366
g3
S'The Chainsmokers'
p1367
sg5
I1
sg6
S'https://open.spotify.com/track/6cPyTS0Kk2sc4xQwC93kOg'
p1368
sg8
S'Break Up Every Night'
p1369
ssS'4aWmUDTfIPGksMNLV2rQP2'
p1370
(dp1371
g3
S'Luis Fonsi'
p1372
sg5
I39
sg6
S'https://open.spotify.com/track/4aWmUDTfIPGksMNLV2rQP2'
p1373
sg8
S'Despacito (Featuring Daddy Yankee)'
p1374
ssS'6r46lnXFbE9fr2d3KNaGbe'
p1375
(dp1376
g3
S'Romeo Santos'
p1377
sg5
I12
sg6
S'https://open.spotify.com/track/6r46lnXFbE9fr2d3KNaGbe'
p1378
sg8
S'Imitadora'
p1379
ssS'3lJA6dGqvaKtVxqHbTtQiQ'
p1380
(dp1381
g3
S'Pitbull'
p1382
sg5
I1
sg6
S'https://open.spotify.com/track/3lJA6dGqvaKtVxqHbTtQiQ'
p1383
sg8
S'Greenlight'
p1384
ssS'0PDUDa38GO8lMxLCRc4lL1'
p1385
(dp1386
g3
S'ZAYN'
p1387
sg5
I1
sg6
S'https://open.spotify.com/track/0PDUDa38GO8lMxLCRc4lL1'
p1388
sg8
S'PILLOWTALK'
p1389
ssS'1OAh8uOEOvTDqkKFsKksCi'
p1390
(dp1391
g3
S'DJ Khaled'
p1392
sg5
I17
sg6
S'https://open.spotify.com/track/1OAh8uOEOvTDqkKFsKksCi'
p1393
sg8
S'Wild Thoughts'
p1394
ssS'3VRk65lHSwqd90TAkQqhvB'
p1395
(dp1396
g3
S'Katy Perry'
p1397
sg5
I2
sg6
S'https://open.spotify.com/track/3VRk65lHSwqd90TAkQqhvB'
p1398
sg8
S'Swish Swish'
p1399
ssS'5rBWtDMRu3sxei9aQBXaRJ'
p1400
(dp1401
g3
S'Don Miguelo'
p1402
sg5
I18
sg6
S'https://open.spotify.com/track/5rBWtDMRu3sxei9aQBXaRJ'
p1403
sg8
S'Dimelo (feat. Wason Brazoban)'
p1404
ssS'09S64DUkxIX9EwIaULu6yN'
p1405
(dp1406
g3
S'Maluma'
p1407
sg5
I29
sg6
S'https://open.spotify.com/track/09S64DUkxIX9EwIaULu6yN'
p1408
sg8
S'Sin Contrato'
p1409
ssS'25C5CowdsfXld2jJanbiex'
p1410
(dp1411
g3
S'Demi Lovato'
p1412
sg5
I11
sg6
S'https://open.spotify.com/track/25C5CowdsfXld2jJanbiex'
p1413
sg8
S'Sorry Not Sorry'
p1414
ssS'4sPmO7WMQUAf45kwMOtONw'
p1415
(dp1416
g3
S'Adele'
p1417
sg5
I13
sg6
S'https://open.spotify.com/track/4sPmO7WMQUAf45kwMOtONw'
p1418
sg8
S'Hello'
p1419
ssS'6BaCraQ9xeLYg4Sb9TBT2X'
p1420
(dp1421
g3
S'Calvin Harris'
p1422
sg5
I1
sg6
S'https://open.spotify.com/track/6BaCraQ9xeLYg4Sb9TBT2X'
p1423
sg8
S'Feels'
p1424
ssS'0uVyZywUNOp6S0dU5r8TS8'
p1425
(dp1426
g3
S'Lilly Wood and The Prick'
p1427
sg5
I5
sg6
S'https://open.spotify.com/track/0uVyZywUNOp6S0dU5r8TS8'
p1428
sg8
S'Prayer in C - Robin Schulz Radio Edit'
p1429
ssS'0RFFFGtPn6a58RHY3ccVYX'
p1430
(dp1431
g3
S'J Balvin'
p1432
sg5
I32
sg6
S'https://open.spotify.com/track/0RFFFGtPn6a58RHY3ccVYX'
p1433
sg8
S'Si Tu Novio Te Deja Sola'
p1434
ssS'5dH7o4TP3HYLvCjo4QAhhv'
p1435
(dp1436
g3
S'Sak Noel & Salvi'
p1437
sg5
I8
sg6
S'https://open.spotify.com/track/5dH7o4TP3HYLvCjo4QAhhv'
p1438
sg8
S'Trumpets'
p1439
ssS'378iszndTZAR4dH8kwsLC6'
p1440
(dp1441
g3
S'Sia'
p1442
sg5
I1
sg6
S'https://open.spotify.com/track/378iszndTZAR4dH8kwsLC6'
p1443
sg8
S'Cheap Thrills'
p1444
ssS'3DXncPQOG4VBw3QHh3S817'
p1445
(dp1446
g3
S'DJ Khaled'
p1447
sg5
I19
sg6
S'https://open.spotify.com/track/3DXncPQOG4VBw3QHh3S817'
p1448
sg8
S"I'm the One"
p1449
ssS'6WMYFEd4MJDIjJARHnOxoN'
p1450
(dp1451
g3
S'Major Lazer'
p1452
sg5
I9
sg6
S'https://open.spotify.com/track/6WMYFEd4MJDIjJARHnOxoN'
p1453
sg8
S'Buscando Huellas (feat. J Balvin & Sean Paul)'
p1454
ssS'3nUNwSYEUv9bmUc3de0Owv'
p1455
(dp1456
g3
S'Chayanne'
p1457
sg5
I25
sg6
S'https://open.spotify.com/track/3nUNwSYEUv9bmUc3de0Owv'
p1458
sg8
S'Qu\xc3\xa9 Me Has Hecho'
p1459
ssS'6mORGLOz79w6VsCRLWYYuK'
p1460
(dp1461
g3
S'Lord Huron'
p1462
sg5
I8
sg6
S'https://open.spotify.com/track/6mORGLOz79w6VsCRLWYYuK'
p1463
sg8
S'The Night We Met'
p1464
ssS'1Wrzhfa5bNlqvsnCztz190'
p1465
(dp1466
g3
S'Hombres G'
p1467
sg5
I2
sg6
S'https://open.spotify.com/track/1Wrzhfa5bNlqvsnCztz190'
p1468
sg8
S'Devuelveme a mi chica'
p1469
ssS'5aAx2yezTd8zXrkmtKl66Z'
p1470
(dp1471
g3
S'The Weeknd'
p1472
sg5
I42
sg6
S'https://open.spotify.com/track/5aAx2yezTd8zXrkmtKl66Z'
p1473
sg8
S'Starboy'
p1474
ssS'1SJtlNRJDeYHioymcvsqev'
p1475
(dp1476
g3
S'Camila Cabello'
p1477
sg5
I12
sg6
S'https://open.spotify.com/track/1SJtlNRJDeYHioymcvsqev'
p1478
sg8
S'Crying in the Club'
p1479
ssS'04DwTuZ2VBdJCCC5TROn7L'
p1480
(dp1481
g3
S'Martin Garrix'
p1482
sg5
I39
sg6
S'https://open.spotify.com/track/04DwTuZ2VBdJCCC5TROn7L'
p1483
sg8
S'In the Name of Love'
p1484
ssS'6VHdcVbiKLYYOcMbIqBcuK'
p1485
(dp1486
g3
S'Cali Y El Dandee'
p1487
sg5
I38
sg6
S'https://open.spotify.com/track/6VHdcVbiKLYYOcMbIqBcuK'
p1488
sg8
S'Lumbra'
p1489
ssS'2SmgFAhQkQCQPyBiBxR6Te'
p1490
(dp1491
g3
S'Natti Natasha'
p1492
sg5
I6
sg6
S'https://open.spotify.com/track/2SmgFAhQkQCQPyBiBxR6Te'
p1493
sg8
S'Criminal'
p1494
ssS'7Ckhk1XW5NV2k4jpqtQNlz'
p1495
(dp1496
g3
S'Valentino'
p1497
sg5
I18
sg6
S'https://open.spotify.com/track/7Ckhk1XW5NV2k4jpqtQNlz'
p1498
sg8
S'Besame'
p1499
ssS'5hKjEpYrJIJs6uPl7zw6Y6'
p1500
(dp1501
g3
S'Jory Boy'
p1502
sg5
I29
sg6
S'https://open.spotify.com/track/5hKjEpYrJIJs6uPl7zw6Y6'
p1503
sg8
S'No Te Hagas'
p1504
ssS'3VSt7R9LHTomKGP1RhkvuT'
p1505
(dp1506
g3
S'Rombai'
p1507
sg5
I2
sg6
S'https://open.spotify.com/track/3VSt7R9LHTomKGP1RhkvuT'
p1508
sg8
S'Una y Otra Vez'
p1509
ssS'4VXejnj5WgM6H72ct2fSgQ'
p1510
(dp1511
g3
S'Reykon'
p1512
sg5
I29
sg6
S'https://open.spotify.com/track/4VXejnj5WgM6H72ct2fSgQ'
p1513
sg8
S'El Chisme'
p1514
ssS'6VRghJeP6I0w1KxkdWFfIh'
p1515
(dp1516
g3
S'Imagine Dragons'
p1517
sg5
I3
sg6
S'https://open.spotify.com/track/6VRghJeP6I0w1KxkdWFfIh'
p1518
sg8
S'Believer'
p1519
ssS'6SznMYPQJHzr3IwsAHLId2'
p1520
(dp1521
g3
S'Ed Sheeran'
p1522
sg5
I1
sg6
S'https://open.spotify.com/track/6SznMYPQJHzr3IwsAHLId2'
p1523
sg8
S'Bibia Be Ye Ye'
p1524
ssS'5J1c3M4EldCfNxXwrwt8mT'
p1525
(dp1526
g3
S'Sebastian Yatra'
p1527
sg5
I42
sg6
S'https://open.spotify.com/track/5J1c3M4EldCfNxXwrwt8mT'
p1528
sg8
S'Traicionera'
p1529
ssS'5zSOVwaY3sVjnmLhuEfsuf'
p1530
(dp1531
g3
S'Ozuna'
p1532
sg5
I7
sg6
S'https://open.spotify.com/track/5zSOVwaY3sVjnmLhuEfsuf'
p1533
sg8
S'T\xc3\xba Foto'
p1534
ssS'6NSMQFKgjpQb0KkjMDYIK0'
p1535
(dp1536
g3
S'Arcangel'
p1537
sg5
I42
sg6
S'https://open.spotify.com/track/6NSMQFKgjpQb0KkjMDYIK0'
p1538
sg8
S'Tu No Vive Asi (feat. Mambo Kingz & DJ Luian)'
p1539
ssS'0A2h9QjoPdbVwa9LFiijqM'
p1540
(dp1541
g3
S'Justin Quiles'
p1542
sg5
I8
sg6
S'https://open.spotify.com/track/0A2h9QjoPdbVwa9LFiijqM'
p1543
sg8
S'Si Ella Quisiera - Remix'
p1544
ssS'00i0O74dXdaKKdCrqHnfXm'
p1545
(dp1546
g3
S'Ricky Martin'
p1547
sg5
I1
sg6
S'https://open.spotify.com/track/00i0O74dXdaKKdCrqHnfXm'
p1548
sg8
S'La Mordidita'
p1549
ssS'11zRKpjEZwmcBBBGzB4pMn'
p1550
(dp1551
g3
S'Rvssian'
p1552
sg5
I3
sg6
S'https://open.spotify.com/track/11zRKpjEZwmcBBBGzB4pMn'
p1553
sg8
S'Privado'
p1554
ssS'2LW4Zu7FcrwjWm3t5Rv3Oq'
p1555
(dp1556
g3
S'Ozuna'
p1557
sg5
I2
sg6
S'https://open.spotify.com/track/2LW4Zu7FcrwjWm3t5Rv3Oq'
p1558
sg8
S'El Farsante'
p1559
ssS'1WbXIpiGBJkCiv3hn40iPB'
p1560
(dp1561
g3
S'Romeo Santos'
p1562
sg5
I2
sg6
S'https://open.spotify.com/track/1WbXIpiGBJkCiv3hn40iPB'
p1563
sg8
S'Sobredosis'
p1564
ssS'0B6GRS3vGtzu6w5BQXqWMq'
p1565
(dp1566
g3
S'Dasoul'
p1567
sg5
I23
sg6
S'https://open.spotify.com/track/0B6GRS3vGtzu6w5BQXqWMq'
p1568
sg8
S'Kung Fu'
p1569
ssS'5Ohxk2dO5COHF1krpoPigN'
p1570
(dp1571
g3
S'Harry Styles'
p1572
sg5
I24
sg6
S'https://open.spotify.com/track/5Ohxk2dO5COHF1krpoPigN'
p1573
sg8
S'Sign of the Times'
p1574
ssS'2MRv991PzjY2ecCluXoRq9'
p1575
(dp1576
g3
S'Pitbull'
p1577
sg5
I1
sg6
S'https://open.spotify.com/track/2MRv991PzjY2ecCluXoRq9'
p1578
sg8
S'Como Yo Le Doy - Spanglish Version'
p1579
ssS'5Fim1gaXBgsiFfsQAfQSDS'
p1580
(dp1581
g3
S'Nicky Jam'
p1582
sg5
I39
sg6
S'https://open.spotify.com/track/5Fim1gaXBgsiFfsQAfQSDS'
p1583
sg8
S'Hasta el Amanecer'
p1584
ssS'6wHm04cn5HxK6pE2ITEdUS'
p1585
(dp1586
g3
S'Cosculluela'
p1587
sg5
I25
sg6
S'https://open.spotify.com/track/6wHm04cn5HxK6pE2ITEdUS'
p1588
sg8
S'Te Busco (feat. Nicky Jam)'
p1589
ssS'4mxWSdf71VFO52qFeY0fZt'
p1590
(dp1591
g3
S'Maroon 5'
p1592
sg5
I6
sg6
S'https://open.spotify.com/track/4mxWSdf71VFO52qFeY0fZt'
p1593
sg8
S'What Lovers Do (feat. SZA)'
p1594
ssS'4Hf7WnR761jpxPr5D46Bcd'
p1595
(dp1596
g3
S'Shawn Mendes'
p1597
sg5
I42
sg6
S'https://open.spotify.com/track/4Hf7WnR761jpxPr5D46Bcd'
p1598
sg8
S'Treat You Better'
p1599
ssS'3AEZUABDXNtecAOSC1qTfo'
p1600
(dp1601
g3
S'CNCO'
p1602
sg5
I42
sg6
S'https://open.spotify.com/track/3AEZUABDXNtecAOSC1qTfo'
p1603
sg8
S'Reggaet\xc3\xb3n Lento (Bailemos)'
p1604
ssS'5fqE4mcMADOX0qTuIlpLZL'
p1605
(dp1606
g3
S'Cali Y El Dandee'
p1607
sg5
I11
sg6
S'https://open.spotify.com/track/5fqE4mcMADOX0qTuIlpLZL'
p1608
sg8
S'La Estrategia'
p1609
ssS'1T45DsQ4HFLJgthyedAa8V'
p1610
(dp1611
g3
S'CNCO'
p1612
sg5
I6
sg6
S'https://open.spotify.com/track/1T45DsQ4HFLJgthyedAa8V'
p1613
sg8
S'Reggaet\xc3\xb3n Lento (Bailemos) - Remix'
p1614
ssS'4S2JBCs9FfFEJPLEf8YiE7'
p1615
(dp1616
g3
S'Nicky Jam'
p1617
sg5
I1
sg6
S'https://open.spotify.com/track/4S2JBCs9FfFEJPLEf8YiE7'
p1618
sg8
S'Estrella'
p1619
ssS'3mxWDt0eKXfl4C1e4oIP0J'
p1620
(dp1621
g3
S'Ozuna'
p1622
sg5
I2
sg6
S'https://open.spotify.com/track/3mxWDt0eKXfl4C1e4oIP0J'
p1623
sg8
S'Se Prepar\xc3\xb3'
p1624
ssS'7xHWNBFm6ObGEQPaUxHuKO'
p1625
(dp1626
g3
S'Sia'
p1627
sg5
I6
sg6
S'https://open.spotify.com/track/7xHWNBFm6ObGEQPaUxHuKO'
p1628
sg8
S'The Greatest'
p1629
ssS'6m2LNopVJKsvBB9l7Z1rwn'
p1630
(dp1631
g3
S'MC Kevinho'
p1632
sg5
I10
sg6
S'https://open.spotify.com/track/6m2LNopVJKsvBB9l7Z1rwn'
p1633
sg8
S'Olha a Explos\xc3\xa3o'
p1634
ssS'5knuzwU65gJK7IF5yJsuaW'
p1635
(dp1636
g3
S'Clean Bandit'
p1637
sg5
I42
sg6
S'https://open.spotify.com/track/5knuzwU65gJK7IF5yJsuaW'
p1638
sg8
S'Rockabye (feat. Sean Paul & Anne-Marie)'
p1639
ssS'3bWAqKDWg6u1davspr5IkS'
p1640
(dp1641
g3
S'Robin Schulz'
p1642
sg5
I1
sg6
S'https://open.spotify.com/track/3bWAqKDWg6u1davspr5IkS'
p1643
sg8
S'OK'
p1644
ssS'14WWzenpaEgQZlqPq2nk4v'
p1645
(dp1646
g3
S'Rihanna'
p1647
sg5
I10
sg6
S'https://open.spotify.com/track/14WWzenpaEgQZlqPq2nk4v'
p1648
sg8
S'Work'
p1649
ssS'66VmioeXL4i1TCfHIO8R9t'
p1650
(dp1651
g3
S'Melendi'
p1652
sg5
I18
sg6
S'https://open.spotify.com/track/66VmioeXL4i1TCfHIO8R9t'
p1653
sg8
S'Desde Que Estamos Juntos'
p1654
ssS'2HqlnQkOtLFLyQgOVYqWkU'
p1655
(dp1656
g3
S'Juanes'
p1657
sg5
I6
sg6
S'https://open.spotify.com/track/2HqlnQkOtLFLyQgOVYqWkU'
p1658
sg8
S'El Ratico'
p1659
ssS'6b8Be6ljOzmkOmFslEb23P'
p1660
(dp1661
g3
S'Bruno Mars'
p1662
sg5
I42
sg6
S'https://open.spotify.com/track/6b8Be6ljOzmkOmFslEb23P'
p1663
sg8
S'24K Magic'
p1664
ssS'04f13iELcsYpY2yeLiAcfq'
p1665
(dp1666
g3
S'Nicky Jam'
p1667
sg5
I15
sg6
S'https://open.spotify.com/track/04f13iELcsYpY2yeLiAcfq'
p1668
sg8
S'El Amante - Remix'
p1669
ssS'2CkHE54EH44Qj945ynQRw7'
p1670
(dp1671
g3
S'Man\xc3\xa1'
p1672
sg5
I16
sg6
S'https://open.spotify.com/track/2CkHE54EH44Qj945ynQRw7'
p1673
sg8
S'De Pies a Cabeza'
p1674
ssS'5DA77EqppDmCTWGovd4oTP'
p1675
(dp1676
g3
S'Cheat Codes'
p1677
sg5
I3
sg6
S'https://open.spotify.com/track/5DA77EqppDmCTWGovd4oTP'
p1678
sg8
S'Sex'
p1679
ssS'2rrJfOphzn4uQCK9X0x6R6'
p1680
(dp1681
g3
S'El Nene La amenaza'
p1682
sg5
I1
sg6
S'https://open.spotify.com/track/2rrJfOphzn4uQCK9X0x6R6'
p1683
sg8
S'Solo'
p1684
ssS'5XXxxfDWGvI6OaXPEniklV'
p1685
(dp1686
g3
S'Manuel Medrano'
p1687
sg5
I5
sg6
S'https://open.spotify.com/track/5XXxxfDWGvI6OaXPEniklV'
p1688
sg8
S'Qu\xc3\xa9date'
p1689
ssS'7F9vK8hNFMml4GtHsaXui6'
p1690
(dp1691
g3
S'Louis Tomlinson'
p1692
sg5
I12
sg6
S'https://open.spotify.com/track/7F9vK8hNFMml4GtHsaXui6'
p1693
sg8
S'Back to You (feat. Bebe Rexha & Digital Farm Animals)'
p1694
ssS'3B54sVLJ402zGa6Xm4YGNe'
p1695
(dp1696
g3
S'French Montana'
p1697
sg5
I14
sg6
S'https://open.spotify.com/track/3B54sVLJ402zGa6Xm4YGNe'
p1698
sg8
S'Unforgettable'
p1699
ssS'1rIKgCH4H52lrvDcz50hS8'
p1700
(dp1701
g3
S'Zara Larsson'
p1702
sg5
I2
sg6
S'https://open.spotify.com/track/1rIKgCH4H52lrvDcz50hS8'
p1703
sg8
S'Lush Life'
p1704
ssS'6gpcs5eMhJwax4mIfKDYQk'
p1705
(dp1706
g3
S'Calvin Harris'
p1707
sg5
I4
sg6
S'https://open.spotify.com/track/6gpcs5eMhJwax4mIfKDYQk'
p1708
sg8
S'Slide'
p1709
ssS'5bcTCxgc7xVfSaMV3RuVke'
p1710
(dp1711
g3
S'Calvin Harris'
p1712
sg5
I16
sg6
S'https://open.spotify.com/track/5bcTCxgc7xVfSaMV3RuVke'
p1713
sg8
S'Feels'
p1714
ssS'0QsvXIfqM0zZoerQfsI9lm'
p1715
(dp1716
g3
S'The Chainsmokers'
p1717
sg5
I33
sg6
S'https://open.spotify.com/track/0QsvXIfqM0zZoerQfsI9lm'
p1718
sg8
S"Don't Let Me Down"
p1719
ssS'7w87IxuO7BDcJ3YUqCyMTT'
p1720
(dp1721
g3
S'Foster The People'
p1722
sg5
I26
sg6
S'https://open.spotify.com/track/7w87IxuO7BDcJ3YUqCyMTT'
p1723
sg8
S'Pumped Up Kicks'
p1724
ssS'0YFoSD5VhoVrRbrnFERpVM'
p1725
(dp1726
g3
S'Rombai'
p1727
sg5
I1
sg6
S'https://open.spotify.com/track/0YFoSD5VhoVrRbrnFERpVM'
p1728
sg8
S'Yo te propongo'
p1729
ssS'4qqArAiTPueDxIp7cf87h7'
p1730
(dp1731
g3
S'M\xc3\x98'
p1732
sg5
I2
sg6
S'https://open.spotify.com/track/4qqArAiTPueDxIp7cf87h7'
p1733
sg8
S'Final Song'
p1734
ssS'2nLtzopw4rPReszdYBJU6h'
p1735
(dp1736
g3
S'Linkin Park'
p1737
sg5
I2
sg6
S'https://open.spotify.com/track/2nLtzopw4rPReszdYBJU6h'
p1738
sg8
S'Numb'
p1739
ssS'0ofbQMrRDsUaVKq2mGLEAb'
p1740
(dp1741
g3
S'Camila Cabello'
p1742
sg5
I8
sg6
S'https://open.spotify.com/track/0ofbQMrRDsUaVKq2mGLEAb'
p1743
sg8
S'Havana'
p1744
ssS'6v3QCw4ca5cR4VkzpG0PHy'
p1745
(dp1746
g3
S'Alkilados'
p1747
sg5
I4
sg6
S'https://open.spotify.com/track/6v3QCw4ca5cR4VkzpG0PHy'
p1748
sg8
S'Una Cita - Remix'
p1749
ssS'6bLopGnirdrilrpdVB6Um1'
p1750
(dp1751
g3
S'Sia'
p1752
sg5
I5
sg6
S'https://open.spotify.com/track/6bLopGnirdrilrpdVB6Um1'
p1753
sg8
S'The Greatest'
p1754
ssS'3uhBIQ7tv8j1FME8cFGEfG'
p1755
(dp1756
g3
S'John Legend'
p1757
sg5
I2
sg6
S'https://open.spotify.com/track/3uhBIQ7tv8j1FME8cFGEfG'
p1758
sg8
S'All of Me'
p1759
ssS'1AkTW13ysu0AJrwuM6UY0I'
p1760
(dp1761
g3
S'Charly Black'
p1762
sg5
I42
sg6
S'https://open.spotify.com/track/1AkTW13ysu0AJrwuM6UY0I'
p1763
sg8
S'Gyal You A Party Animal - Remix'
p1764
ssS'7cCRlUf8ayOJtTlWN7g8Ni'
p1765
(dp1766
g3
S'R\xc3\xado Roma'
p1767
sg5
I14
sg6
S'https://open.spotify.com/track/7cCRlUf8ayOJtTlWN7g8Ni'
p1768
sg8
S'Caminar de Tu Mano'
p1769
ssS'1vvNmPOiUuyCbgWmtc6yfm'
p1770
(dp1771
g3
S'Calvin Harris'
p1772
sg5
I42
sg6
S'https://open.spotify.com/track/1vvNmPOiUuyCbgWmtc6yfm'
p1773
sg8
S'My Way'
p1774
ssS'3B21fRFqPLmTd9zAlK0I8A'
p1775
(dp1776
g3
S'CNCO'
p1777
sg5
I23
sg6
S'https://open.spotify.com/track/3B21fRFqPLmTd9zAlK0I8A'
p1778
sg8
S'Para Enamorarte'
p1779
ssS'5k5HXMmbU31I6cMOWnMgSQ'
p1780
(dp1781
g3
S'Paulina Rubio'
p1782
sg5
I4
sg6
S'https://open.spotify.com/track/5k5HXMmbU31I6cMOWnMgSQ'
p1783
sg8
S'Me Quema'
p1784
ssS'5vZfgeDfNhlkKeJqjzSAmg'
p1785
(dp1786
g3
S'Alejandro Fernandez'
p1787
sg5
I36
sg6
S'https://open.spotify.com/track/5vZfgeDfNhlkKeJqjzSAmg'
p1788
sg8
S'S\xc3\xa9 Que Te Duele'
p1789
ssS'1EF6lZrvbCuLwPUKJ7Pfrg'
p1790
(dp1791
g3
S'Nfasis'
p1792
sg5
I8
sg6
S'https://open.spotify.com/track/1EF6lZrvbCuLwPUKJ7Pfrg'
p1793
sg8
S'Lento'
p1794
ssS'5YzA563GXTuwQaRq24z1k5'
p1795
(dp1796
g3
S'Yandel'
p1797
sg5
I5
sg6
S'https://open.spotify.com/track/5YzA563GXTuwQaRq24z1k5'
p1798
sg8
S'Como Antes'
p1799
ssS'0afhq8XCExXpqazXczTSve'
p1800
(dp1801
g3
S'Ed Sheeran'
p1802
sg5
I20
sg6
S'https://open.spotify.com/track/0afhq8XCExXpqazXczTSve'
p1803
sg8
S'Galway Girl'
p1804
ssS'6F35s1d7QRKjbjBbpccVQp'
p1805
(dp1806
g3
S'CD9'
p1807
sg5
I7
sg6
S'https://open.spotify.com/track/6F35s1d7QRKjbjBbpccVQp'
p1808
sg8
S'No Le Hablen de Amor (Remix)'
p1809
ssS'5TysCiZtv1HnSWcTcUFusI'
p1810
(dp1811
g3
S'Joey Montana'
p1812
sg5
I6
sg6
S'https://open.spotify.com/track/5TysCiZtv1HnSWcTcUFusI'
p1813
sg8
S'Suena El Dembow'
p1814
ssS'2aFiaMXmWsM3Vj72F9ksBl'
p1815
(dp1816
g3
S'DNCE'
p1817
sg5
I39
sg6
S'https://open.spotify.com/track/2aFiaMXmWsM3Vj72F9ksBl'
p1818
sg8
S'Cake By The Ocean'
p1819
ssS'4J1e3hbf0e5YUZjkxyJWD3'
p1820
(dp1821
g3
S'Anuel Aa'
p1822
sg5
I23
sg6
S'https://open.spotify.com/track/4J1e3hbf0e5YUZjkxyJWD3'
p1823
sg8
S'La \xc3\x9altima Vez'
p1824
ssS'4TZy1wLyHec06pwgFYDh1a'
p1825
(dp1826
g3
S'Shawn Mendes'
p1827
sg5
I12
sg6
S'https://open.spotify.com/track/4TZy1wLyHec06pwgFYDh1a'
p1828
sg8
S'Mercy'
p1829
ssS'5ZbxyKp49vtZMOXYoMr8o8'
p1830
(dp1831
g3
S'OneRepublic'
p1832
sg5
I4
sg6
S'https://open.spotify.com/track/5ZbxyKp49vtZMOXYoMr8o8'
p1833
sg8
S'No Vacancy (with Sebasti\xc3\xa1n Yatra)'
p1834
ssS'4llK75pXNWZz6KAho2Gp16'
p1835
(dp1836
g3
S'Maroon 5'
p1837
sg5
I2
sg6
S'https://open.spotify.com/track/4llK75pXNWZz6KAho2Gp16'
p1838
sg8
S'She Will Be Loved - Radio Mix'
p1839
ssS'4sA0dk2U5tJiPYtx3ZrbIf'
p1840
(dp1841
g3
S'Jacob Forever'
p1842
sg5
I2
sg6
S'https://open.spotify.com/track/4sA0dk2U5tJiPYtx3ZrbIf'
p1843
sg8
S'Qui\xc3\xa9reme'
p1844
ssS'5HABnFSYvl6mTmg8nSdzHa'
p1845
(dp1846
g3
S'Zion & Lennox'
p1847
sg5
I34
sg6
S'https://open.spotify.com/track/5HABnFSYvl6mTmg8nSdzHa'
p1848
sg8
S'Mi Tesoro (feat. Nicky Jam)'
p1849
ssS'1mSzZKMIPZIkn3jFV7v62b'
p1850
(dp1851
g3
S'Charly Black'
p1852
sg5
I28
sg6
S'https://open.spotify.com/track/1mSzZKMIPZIkn3jFV7v62b'
p1853
sg8
S'Gyal You A Party Animal'
p1854
ssS'4BzTdCoD7hikdvNIo1k6W4'
p1855
(dp1856
g3
S'Ricardo Montaner'
p1857
sg5
I1
sg6
S'https://open.spotify.com/track/4BzTdCoD7hikdvNIo1k6W4'
p1858
sg8
S'Aunque Ahora Est\xc3\xa9s Con El'
p1859
ssS'0bMRpUsk1IWi5O2NIkWsqR'
p1860
(dp1861
g3
S'Luny Tunes'
p1862
sg5
I1
sg6
S'https://open.spotify.com/track/0bMRpUsk1IWi5O2NIkWsqR'
p1863
sg8
S'Mayor Que Yo 3'
p1864
ssS'4efQTJSX6Jca1hHZNi74Zd'
p1865
(dp1866
g3
S'Carlos Baute'
p1867
sg5
I14
sg6
S'https://open.spotify.com/track/4efQTJSX6Jca1hHZNi74Zd'
p1868
sg8
S'Amor y dolor'
p1869
ssS'2OxUtaKYeahAGNaBiahXtR'
p1870
(dp1871
g3
S'Farruko'
p1872
sg5
I20
sg6
S'https://open.spotify.com/track/2OxUtaKYeahAGNaBiahXtR'
p1873
sg8
S'Diabla - Official Remix'
p1874
ssS'4Q4jmPHwu0wrJvqrld0FQ6'
p1875
(dp1876
g3
S'Zara Larsson'
p1877
sg5
I7
sg6
S'https://open.spotify.com/track/4Q4jmPHwu0wrJvqrld0FQ6'
p1878
sg8
S'I Would Like'
p1879
ssS'1MpKZi1zTXpERKwxmOu1PH'
p1880
(dp1881
g3
S'Rombai'
p1882
sg5
I38
sg6
S'https://open.spotify.com/track/1MpKZi1zTXpERKwxmOu1PH'
p1883
sg8
S'Cuando Se Pone a Bailar'
p1884
ssS'3jpqMaJREkmVDYlRvW1qWC'
p1885
(dp1886
g3
S'Piso 21'
p1887
sg5
I15
sg6
S'https://open.spotify.com/track/3jpqMaJREkmVDYlRvW1qWC'
p1888
sg8
S'Me llamas'
p1889
ssS'3NaEzk0OFnezhFFGqZNyYz'
p1890
(dp1891
g3
S'Melendi'
p1892
sg5
I2
sg6
S'https://open.spotify.com/track/3NaEzk0OFnezhFFGqZNyYz'
p1893
sg8
S'Destino o Casualidad'
p1894
ssS'1m69ELEgE6k5ZWsap40ozt'
p1895
(dp1896
g3
S'Ozuna'
p1897
sg5
I7
sg6
S'https://open.spotify.com/track/1m69ELEgE6k5ZWsap40ozt'
p1898
sg8
S'Se Prepar\xc3\xb3'
p1899
ssS'4tPL9PeVZY4c0jUPtSD5nx'
p1900
(dp1901
g3
S'Joey Montana'
p1902
sg5
I5
sg6
S'https://open.spotify.com/track/4tPL9PeVZY4c0jUPtSD5nx'
p1903
sg8
S'Picky'
p1904
ssS'3ktSe2NHl8RO1Fjh7mcvam'
p1905
(dp1906
g3
S'Juanes'
p1907
sg5
I14
sg6
S'https://open.spotify.com/track/3ktSe2NHl8RO1Fjh7mcvam'
p1908
sg8
S'Es Tarde'
p1909
ssS'5EId1m4DNwTf3at31w8bPJ'
p1910
(dp1911
g3
S'Ozuna'
p1912
sg5
I7
sg6
S'https://open.spotify.com/track/5EId1m4DNwTf3at31w8bPJ'
p1913
sg8
S'El Farsante'
p1914
ssS'6PCUP3dWmTjcTtXY02oFdT'
p1915
(dp1916
g3
S'Ed Sheeran'
p1917
sg5
I17
sg6
S'https://open.spotify.com/track/6PCUP3dWmTjcTtXY02oFdT'
p1918
sg8
S'Castle on the Hill'
p1919
ssS'4CTjql34LKCJy5WOSgEhvA'
p1920
(dp1921
g3
S'Silvestre Dangond'
p1922
sg5
I38
sg6
S'https://open.spotify.com/track/4CTjql34LKCJy5WOSgEhvA'
p1923
sg8
S'Ya No Me Duele M\xc3\xa1s - Remix'
p1924
ssS'2wgDAPgBhFA7pnIbm0YOhP'
p1925
(dp1926
g3
S'Bad Bunny'
p1927
sg5
I25
sg6
S'https://open.spotify.com/track/2wgDAPgBhFA7pnIbm0YOhP'
p1928
sg8
S'Me Mata'
p1929
ssS'4N1c5rmWOzRmB9SMacr5wB'
p1930
(dp1931
g3
S'Abraham Mateo'
p1932
sg5
I16
sg6
S'https://open.spotify.com/track/4N1c5rmWOzRmB9SMacr5wB'
p1933
sg8
S'Loco Enamorado'
p1934
ssS'104buTcnP2AsxqB7U1FIZ4'
p1935
(dp1936
g3
S'Linkin Park'
p1937
sg5
I1
sg6
S'https://open.spotify.com/track/104buTcnP2AsxqB7U1FIZ4'
p1938
sg8
S'Heavy (feat. Kiiara)'
p1939
ssS'0CcQNd8CINkwQfe1RDtGV6'
p1940
(dp1941
g3
S'Imagine Dragons'
p1942
sg5
I32
sg6
S'https://open.spotify.com/track/0CcQNd8CINkwQfe1RDtGV6'
p1943
sg8
S'Believer'
p1944
ssS'1PSBzsahR2AKwLJgx8ehBj'
p1945
(dp1946
g3
S'Machine Gun Kelly'
p1947
sg5
I10
sg6
S'https://open.spotify.com/track/1PSBzsahR2AKwLJgx8ehBj'
p1948
sg8
S'Bad Things (with Camila Cabello)'
p1949
ssS'5gFAT2DbEt4TOMXyAMEixG'
p1950
(dp1951
g3
S'Brytiago'
p1952
sg5
I12
sg6
S'https://open.spotify.com/track/5gFAT2DbEt4TOMXyAMEixG'
p1953
sg8
S'Netflixxx'
p1954
ssS'0sXvAOmXgjR2QUqLK1MltU'
p1955
(dp1956
g3
S'Carlos Vives'
p1957
sg5
I42
sg6
S'https://open.spotify.com/track/0sXvAOmXgjR2QUqLK1MltU'
p1958
sg8
S'La Bicicleta'
p1959
ssS'236RkCUAucOj7QXfeVWOfA'
p1960
(dp1961
g3
S'Manuel Medrano'
p1962
sg5
I1
sg6
S'https://open.spotify.com/track/236RkCUAucOj7QXfeVWOfA'
p1963
sg8
S'La mujer que bota fuego'
p1964
ssS'7pueb0FHOYlKAJPXhVhwml'
p1965
(dp1966
g3
S'Alkilados'
p1967
sg5
I12
sg6
S'https://open.spotify.com/track/7pueb0FHOYlKAJPXhVhwml'
p1968
sg8
S'Me Gusta - Remix'
p1969
ssS'05ZXXyeZFhZtA6DAP3Aw7x'
p1970
(dp1971
g3
S'Maite Perroni'
p1972
sg5
I21
sg6
S'https://open.spotify.com/track/05ZXXyeZFhZtA6DAP3Aw7x'
p1973
sg8
S'Loca (feat. Cali Y El Dandee)'
p1974
ssS'3jqSBJ8I20iUN0Bw8NA5xQ'
p1975
(dp1976
g3
S'Silvestre Dangond'
p1977
sg5
I20
sg6
S'https://open.spotify.com/track/3jqSBJ8I20iUN0Bw8NA5xQ'
p1978
sg8
S'Materialista'
p1979
ssS'3ebXMykcMXOcLeJ9xZ17XH'
p1980
(dp1981
g3
S'Martin Garrix'
p1982
sg5
I37
sg6
S'https://open.spotify.com/track/3ebXMykcMXOcLeJ9xZ17XH'
p1983
sg8
S'Scared to Be Lonely'
p1984
ssS'6fujklziTHa8uoM5OQSfIo'
p1985
(dp1986
g3
S'Rae Sremmurd'
p1987
sg5
I9
sg6
S'https://open.spotify.com/track/6fujklziTHa8uoM5OQSfIo'
p1988
sg8
S'Black Beatles'
p1989
ssS'7KxhSJOYiqCDclXDBNlFSZ'
p1990
(dp1991
g3
S'Selena Gomez'
p1992
sg5
I4
sg6
S'https://open.spotify.com/track/7KxhSJOYiqCDclXDBNlFSZ'
p1993
sg8
S'Kill Em With Kindness'
p1994
ssS'19WjVVgXjdKXfLXoaDPwTM'
p1995
(dp1996
g3
S'Taylor Swift'
p1997
sg5
I1
sg6
S'https://open.spotify.com/track/19WjVVgXjdKXfLXoaDPwTM'
p1998
sg8
S'...Ready For It?'
p1999
ssS'0JoHqmlqE0W0i9prt6kcHR'
p2000
(dp2001
g3
S'Maluma'
p2002
sg5
I37
sg6
S'https://open.spotify.com/track/0JoHqmlqE0W0i9prt6kcHR'
p2003
sg8
S'Cuatro Babys'
p2004
ssS'7DM4BPaS7uofFul3ywMe46'
p2005
(dp2006
g3
S'Ricky Martin'
p2007
sg5
I42
sg6
S'https://open.spotify.com/track/7DM4BPaS7uofFul3ywMe46'
p2008
sg8
S"Vente Pa' Ca"
p2009
ssS'7pyEd6g5y7SYdKNgRtleEB'
p2010
(dp2011
g3
S'Yandel'
p2012
sg5
I12
sg6
S'https://open.spotify.com/track/7pyEd6g5y7SYdKNgRtleEB'
p2013
sg8
S'Nunca Me Olvides - Remix'
p2014
ssS'3PEgB3fkiojxms35ntsTgs'
p2015
(dp2016
g3
S'Axwell /\\ Ingrosso'
p2017
sg5
I11
sg6
S'https://open.spotify.com/track/3PEgB3fkiojxms35ntsTgs'
p2018
sg8
S'More Than You Know'
p2019
ssS'2yvjjJrWzVzA2zg4VsoEmo'
p2020
(dp2021
g3
S'Prince Royce'
p2022
sg5
I2
sg6
S'https://open.spotify.com/track/2yvjjJrWzVzA2zg4VsoEmo'
p2023
sg8
S'La Carretera'
p2024
ssS'2yajAy8Va9VTk3yhF9B3ET'
p2025
(dp2026
g3
S'Pablo Albor\xc3\xa1n'
p2027
sg5
I5
sg6
S'https://open.spotify.com/track/2yajAy8Va9VTk3yhF9B3ET'
p2028
sg8
S'No vaya a ser'
p2029
ssS'3H179O48ynsu9q8LOnFQZY'
p2030
(dp2031
g3
S'Reik'
p2032
sg5
I32
sg6
S'https://open.spotify.com/track/3H179O48ynsu9q8LOnFQZY'
p2033
sg8
S'Qu\xc3\xa9 Gano Olvid\xc3\xa1ndote - Versi\xc3\xb3n Urbana'
p2034
ssS'0UeYCHOETPfai02uskjJ3x'
p2035
(dp2036
g3
S'Bag Raiders'
p2037
sg5
I12
sg6
S'https://open.spotify.com/track/0UeYCHOETPfai02uskjJ3x'
p2038
sg8
S'Shooting Stars'
p2039
ssS'48yAM9xWBwT4Ac9G1y20rw'
p2040
(dp2041
g3
S'Yandel'
p2042
sg5
I4
sg6
S'https://open.spotify.com/track/48yAM9xWBwT4Ac9G1y20rw'
p2043
sg8
S'Expl\xc3\xadcale'
p2044
ssS'0B8B8cVRFIG1yznoQe7c9s'
p2045
(dp2046
g3
S'The Chainsmokers'
p2047
sg5
I1
sg6
S'https://open.spotify.com/track/0B8B8cVRFIG1yznoQe7c9s'
p2048
sg8
S'Setting Fires'
p2049
ssS'6041gM9Th1ViQcnzkIxnuv'
p2050
(dp2051
g3
S'Ozuna'
p2052
sg5
I23
sg6
S'https://open.spotify.com/track/6041gM9Th1ViQcnzkIxnuv'
p2053
sg8
S'Me Ama Me Odia'
p2054
ssS'0lJCqIx5BhZtf6QtYI2fbv'
p2055
(dp2056
g3
S'Daddy Yankee'
p2057
sg5
I2
sg6
S'https://open.spotify.com/track/0lJCqIx5BhZtf6QtYI2fbv'
p2058
sg8
S'Vuelve'
p2059
ssS'6OZh916QF8XNunWaP97WEZ'
p2060
(dp2061
g3
S'Jonas Blue'
p2062
sg5
I7
sg6
S'https://open.spotify.com/track/6OZh916QF8XNunWaP97WEZ'
p2063
sg8
S'Fast Car'
p2064
ssS'2rizacJSyD9S1IQUxUxnsK'
p2065
(dp2066
g3
S'The Chainsmokers'
p2067
sg5
I7
sg6
S'https://open.spotify.com/track/2rizacJSyD9S1IQUxUxnsK'
p2068
sg8
S'All We Know'
p2069
ssS'6RsWqX8zABZLhZydXxEFOm'
p2070
(dp2071
g3
S'The Weeknd'
p2072
sg5
I13
sg6
S'https://open.spotify.com/track/6RsWqX8zABZLhZydXxEFOm'
p2073
sg8
S"Can't Feel My Face"
p2074
ssS'0tgVpDi06FyKpA1z0VMD4v'
p2075
(dp2076
g3
S'Ed Sheeran'
p2077
sg5
I32
sg6
S'https://open.spotify.com/track/0tgVpDi06FyKpA1z0VMD4v'
p2078
sg8
S'Perfect'
p2079
ssS'2Vdub5mY4lad7w64bFPUez'
p2080
(dp2081
g3
S'Pitbull'
p2082
sg5
I31
sg6
S'https://open.spotify.com/track/2Vdub5mY4lad7w64bFPUez'
p2083
sg8
S'Hey Ma (with Pitbull & J Balvin feat. Camila Cabello) - Spanish Version'
p2084
ssS'5i50gKdLAjjIr7UxRT5IVy'
p2085
(dp2086
g3
S'Sebastian Yatra'
p2087
sg5
I35
sg6
S'https://open.spotify.com/track/5i50gKdLAjjIr7UxRT5IVy'
p2088
sg8
S'Alguien Robo'
p2089
ssS'69uxyAqqPIsUyTO8txoP2M'
p2090
(dp2091
g3
S'Coldplay'
p2092
sg5
I4
sg6
S'https://open.spotify.com/track/69uxyAqqPIsUyTO8txoP2M'
p2093
sg8
S'Adventure Of A Lifetime'
p2094
ssS'6e663ynSjQ4cX2ejQtKMwy'
p2095
(dp2096
g3
S'Nacho'
p2097
sg5
I1
sg6
S'https://open.spotify.com/track/6e663ynSjQ4cX2ejQtKMwy'
p2098
sg8
S'Teddy'
p2099
ssS'7BqBn9nzAq8spo5e7cZ0dJ'
p2100
(dp2101
g3
S'Bruno Mars'
p2102
sg5
I1
sg6
S'https://open.spotify.com/track/7BqBn9nzAq8spo5e7cZ0dJ'
p2103
sg8
S'Just the Way You Are'
p2104
ssS'1x5sYLZiu9r5E43kMlt9f8'
p2105
(dp2106
g3
S'Clean Bandit'
p2107
sg5
I23
sg6
S'https://open.spotify.com/track/1x5sYLZiu9r5E43kMlt9f8'
p2108
sg8
S'Symphony (feat. Zara Larsson)'
p2109
ssS'2rb5MvYT7ZIxbKW5hfcHx8'
p2110
(dp2111
g3
S'J Balvin'
p2112
sg5
I15
sg6
S'https://open.spotify.com/track/2rb5MvYT7ZIxbKW5hfcHx8'
p2113
sg8
S'Mi Gente'
p2114
ssS'5SE57ljOIUJ1ybL9U6CuBH'
p2115
(dp2116
g3
S'BTS'
p2117
sg5
I3
sg6
S'https://open.spotify.com/track/5SE57ljOIUJ1ybL9U6CuBH'
p2118
sg8
S'DNA'
p2119
ssS'3FaqBbYj8arTCdhVABY8mB'
p2120
(dp2121
g3
S'Karol G'
p2122
sg5
I1
sg6
S'https://open.spotify.com/track/3FaqBbYj8arTCdhVABY8mB'
p2123
sg8
S'Ahora Me Llama - Remix'
p2124
ssS'1pWYnQIlqxTh5bxuPmTG4E'
p2125
(dp2126
g3
S'Thal\xc3\xada'
p2127
sg5
I40
sg6
S'https://open.spotify.com/track/1pWYnQIlqxTh5bxuPmTG4E'
p2128
sg8
S'Desde Esa Noche'
p2129
ssS'1GZZELGFwWsi2oLE1v1eyQ'
p2130
(dp2131
g3
S'Nicky Jam'
p2132
sg5
I1
sg6
S'https://open.spotify.com/track/1GZZELGFwWsi2oLE1v1eyQ'
p2133
sg8
S'Por el Momento'
p2134
ssS'1denQBP7H6fh9BXaTIgvQy'
p2135
(dp2136
g3
S'Feid'
p2137
sg5
I19
sg6
S'https://open.spotify.com/track/1denQBP7H6fh9BXaTIgvQy'
p2138
sg8
S'911'
p2139
ssS'0tKcYR2II1VCQWT79i5NrW'
p2140
(dp2141
g3
S'Imagine Dragons'
p2142
sg5
I20
sg6
S'https://open.spotify.com/track/0tKcYR2II1VCQWT79i5NrW'
p2143
sg8
S'Thunder'
p2144
ssS'3rgjBiAMVGnxmsTDmUy8vb'
p2145
(dp2146
g3
S'Farruko'
p2147
sg5
I6
sg6
S'https://open.spotify.com/track/3rgjBiAMVGnxmsTDmUy8vb'
p2148
sg8
S'Krippy Kush'
p2149
ssS'6DNtNfH8hXkqOX1sjqmI7p'
p2150
(dp2151
g3
S'Major Lazer'
p2152
sg5
I31
sg6
S'https://open.spotify.com/track/6DNtNfH8hXkqOX1sjqmI7p'
p2153
sg8
S'Cold Water (feat. Justin Bieber & M\xc3\x98)'
p2154
ssS'5NNlUMcOEOdoOIwwaWXv0k'
p2155
(dp2156
g3
S'Maroon 5'
p2157
sg5
I24
sg6
S'https://open.spotify.com/track/5NNlUMcOEOdoOIwwaWXv0k'
p2158
sg8
S'Cold'
p2159
ssS'1sXUWdKx03aP9Gmzft58rt'
p2160
(dp2161
g3
S'Julia Michaels'
p2162
sg5
I22
sg6
S'https://open.spotify.com/track/1sXUWdKx03aP9Gmzft58rt'
p2163
sg8
S'Issues'
p2164
ssS'3bVbQvGVIe4n24AzyXovXh'
p2165
(dp2166
g3
g202
sg5
I1
sg6
S'https://open.spotify.com/track/3bVbQvGVIe4n24AzyXovXh'
p2167
sg8
g202
ssS'14oOKFGuXu8DqvOe1W8vao'
p2168
(dp2169
g3
S'Katy Perry'
p2170
sg5
I2
sg6
S'https://open.spotify.com/track/14oOKFGuXu8DqvOe1W8vao'
p2171
sg8
S'Bon App\xc3\xa9tit'
p2172
ssS'66gNNRsKkmECPQUrvpMQtS'
p2173
(dp2174
g3
S'DJ Jonathan'
p2175
sg5
I2
sg6
S'https://open.spotify.com/track/66gNNRsKkmECPQUrvpMQtS'
p2176
sg8
S'El Farsante'
p2177
ssS'6f4UPdDBQONKJBRqwZGjaJ'
p2178
(dp2179
g3
S'Silvestre Dangond'
p2180
sg5
I4
sg6
S'https://open.spotify.com/track/6f4UPdDBQONKJBRqwZGjaJ'
p2181
sg8
S'C\xc3\xa1sate Conmigo'
p2182
ssS'1louJpMmzEicAn7lzDalPW'
p2183
(dp2184
g3
S'Cheat Codes'
p2185
sg5
I21
sg6
S'https://open.spotify.com/track/1louJpMmzEicAn7lzDalPW'
p2186
sg8
S'No Promises (feat. Demi Lovato)'
p2187
ssS'6TIU9Ehmi6dMzZK73Ym4yj'
p2188
(dp2189
g3
S'Ed Sheeran'
p2190
sg5
I1
sg6
S'https://open.spotify.com/track/6TIU9Ehmi6dMzZK73Ym4yj'
p2191
sg8
S'Save Myself'
p2192
ssS'2pJZ1v8HezrAoZ0Fhzby92'
p2193
(dp2194
g3
S'Ed Sheeran'
p2195
sg5
I3
sg6
S'https://open.spotify.com/track/2pJZ1v8HezrAoZ0Fhzby92'
p2196
sg8
S'What Do I Know?'
p2197
ssS'0KKkJNfGyhkQ5aFogxQAPU'
p2198
(dp2199
g3
S'Bruno Mars'
p2200
sg5
I35
sg6
S'https://open.spotify.com/track/0KKkJNfGyhkQ5aFogxQAPU'
p2201
sg8
S"That's What I Like"
p2202
ssS'2twUPIYOTqVivev47pf7bU'
p2203
(dp2204
g3
S'Ozuna'
p2205
sg5
I22
sg6
S'https://open.spotify.com/track/2twUPIYOTqVivev47pf7bU'
p2206
sg8
S'Te Vas'
p2207
ssS'494OU6M7NOf4ICYb4zWCf5'
p2208
(dp2209
g3
S'Maroon 5'
p2210
sg5
I33
sg6
S'https://open.spotify.com/track/494OU6M7NOf4ICYb4zWCf5'
p2211
sg8
S'Sugar'
p2212
ssS'1Slwb6dOYkBlWal1PGtnNg'
p2213
(dp2214
g3
S'Ed Sheeran'
p2215
sg5
I42
sg6
S'https://open.spotify.com/track/1Slwb6dOYkBlWal1PGtnNg'
p2216
sg8
S'Thinking Out Loud'
p2217
ssS'3VClLWqNn80Llv0PJOsKgr'
p2218
(dp2219
g3
S'Nacho'
p2220
sg5
I10
sg6
S'https://open.spotify.com/track/3VClLWqNn80Llv0PJOsKgr'
p2221
sg8
S'B\xc3\xa1ilame - Remix'
p2222
ssS'3kg9JvQe6QJFKUQCN1oIQz'
p2223
(dp2224
g3
S'Feid'
p2225
sg5
I13
sg6
S'https://open.spotify.com/track/3kg9JvQe6QJFKUQCN1oIQz'
p2226
sg8
S'Que Raro'
p2227
ssS'5Jt4zdXTd9y1zxihiNYQI1'
p2228
(dp2229
g3
S'Farruko'
p2230
sg5
I9
sg6
S'https://open.spotify.com/track/5Jt4zdXTd9y1zxihiNYQI1'
p2231
sg8
S'Obsesionado'
p2232
ssS'3pI6VigoXHkcL3VYLJfBhq'
p2233
(dp2234
g3
S'Ricky Martin'
p2235
sg5
I9
sg6
S'https://open.spotify.com/track/3pI6VigoXHkcL3VYLJfBhq'
p2236
sg8
S"Vente Pa' Ca - Urban Remix"
p2237
ssS'6i0V12jOa3mr6uu4WYhUBr'
p2238
(dp2239
g3
S'Twenty One Pilots'
p2240
sg5
I25
sg6
S'https://open.spotify.com/track/6i0V12jOa3mr6uu4WYhUBr'
p2241
sg8
S'Heathens'
p2242
ssS'6w6EINTodc8j0TWtrWHdm2'
p2243
(dp2244
g3
S'Manuel Medrano'
p2245
sg5
I2
sg6
S'https://open.spotify.com/track/6w6EINTodc8j0TWtrWHdm2'
p2246
sg8
S'La Mujer Que Bota Fuego (feat. Natalia Jim\xc3\xa9nez)'
p2247
ssS'3H0Vda4LvcNlwRQpNd8MHJ'
p2248
(dp2249
g3
S'Juanes'
p2250
sg5
I14
sg6
S'https://open.spotify.com/track/3H0Vda4LvcNlwRQpNd8MHJ'
p2251
sg8
S'Hermosa Ingrata'
p2252
ssS'5masKPHeAOVNgxdLebIcK7'
p2253
(dp2254
g3
S'Kygo'
p2255
sg5
I12
sg6
S'https://open.spotify.com/track/5masKPHeAOVNgxdLebIcK7'
p2256
sg8
S'Stole the Show'
p2257
ssS'4XCQtUoRSh22Ep18ULmDnT'
p2258
(dp2259
g3
S'De La Ghetto'
p2260
sg5
I4
sg6
S'https://open.spotify.com/track/4XCQtUoRSh22Ep18ULmDnT'
p2261
sg8
S'La Formula (feat. Chris Jeday)'
p2262
ssS'0N4jis8aNOjiIfkBl4mGje'
p2263
(dp2264
g3
S'R\xc3\xado Roma'
p2265
sg5
I24
sg6
S'https://open.spotify.com/track/0N4jis8aNOjiIfkBl4mGje'
p2266
sg8
S'Princesa'
p2267
ssS'0lPXFrKyl8HkdQ2E6NmNja'
p2268
(dp2269
g3
S'Reik'
p2270
sg5
I39
sg6
S'https://open.spotify.com/track/0lPXFrKyl8HkdQ2E6NmNja'
p2271
sg8
S'Ya Me Enter\xc3\xa9'
p2272
ssS'693iqPOQvhI7PobtR8CC8v'
p2273
(dp2274
g3
S'J Balvin'
p2275
sg5
I19
sg6
S'https://open.spotify.com/track/693iqPOQvhI7PobtR8CC8v'
p2276
sg8
S'Bonita'
p2277
ssS'05rJdH2MRLJ3sQoEUO78qs'
p2278
(dp2279
g3
S'Anitta'
p2280
sg5
I4
sg6
S'https://open.spotify.com/track/05rJdH2MRLJ3sQoEUO78qs'
p2281
sg8
S'Paradinha'
p2282
ssS'6fxVffaTuwjgEk5h9QyRjy'
p2283
(dp2284
g3
S'Ed Sheeran'
p2285
sg5
I42
sg6
S'https://open.spotify.com/track/6fxVffaTuwjgEk5h9QyRjy'
p2286
sg8
S'Photograph'
p2287
ssS'2kVHAQKVtczchKctctzbtK'
p2288
(dp2289
g3
S'Katy Perry'
p2290
sg5
I13
sg6
S'https://open.spotify.com/track/2kVHAQKVtczchKctctzbtK'
p2291
sg8
S'Swish Swish'
p2292
ssS'21lnmphofXWWeSSx0PEMjc'
p2293
(dp2294
g3
S'Bryant Myers'
p2295
sg5
I13
sg6
S'https://open.spotify.com/track/21lnmphofXWWeSSx0PEMjc'
p2296
sg8
S'Un Ratito Mas'
p2297
ssS'6nxQdXa1uAL0rY72wPZu89'
p2298
(dp2299
g3
S'John Legend'
p2300
sg5
I5
sg6
S'https://open.spotify.com/track/6nxQdXa1uAL0rY72wPZu89'
p2301
sg8
S'Love Me Now'
p2302
ssS'6kex4EBAj0WHXDKZMEJaaF'
p2303
(dp2304
g3
S'Jason Derulo'
p2305
sg5
I29
sg6
S'https://open.spotify.com/track/6kex4EBAj0WHXDKZMEJaaF'
p2306
sg8
S'Swalla (feat. Nicki Minaj & Ty Dolla $ign)'
p2307
ssS'4skuEIloXWuxxgekKupkEH'
p2308
(dp2309
g3
S'Mon Laferte'
p2310
sg5
I1
sg6
S'https://open.spotify.com/track/4skuEIloXWuxxgekKupkEH'
p2311
sg8
S'Tu Falta De Querer'
p2312
ssS'1iEwyiSLAunPR6uouANE0O'
p2313
(dp2314
g3
S'Maluma'
p2315
sg5
I11
sg6
S'https://open.spotify.com/track/1iEwyiSLAunPR6uouANE0O'
p2316
sg8
S'El Perdedor'
p2317
ssS'79Bm3DTEYuQsDpUVHbSRsL'
p2318
(dp2319
g3
S'Sofia Reyes'
p2320
sg5
I14
sg6
S'https://open.spotify.com/track/79Bm3DTEYuQsDpUVHbSRsL'
p2321
sg8
S'Llegaste t\xc3\xba (feat. Reykon)'
p2322
ssS'4akm5q8AyAdbYPN2s7jxhY'
p2323
(dp2324
g3
S'Nacho'
p2325
sg5
I3
sg6
S'https://open.spotify.com/track/4akm5q8AyAdbYPN2s7jxhY'
p2326
sg8
S'Happy Happy'
p2327
ssS'5o35aPa2xPLLC3rw7Hoc83'
p2328
(dp2329
g3
S'Nicky Jam'
p2330
sg5
I2
sg6
S'https://open.spotify.com/track/5o35aPa2xPLLC3rw7Hoc83'
p2331
sg8
S'Superh\xc3\xa9roe'
p2332
ssS'5QSYWruQQ7kBCHScI4xJ9g'
p2333
(dp2334
g3
S'Manuel Medrano'
p2335
sg5
I42
sg6
S'https://open.spotify.com/track/5QSYWruQQ7kBCHScI4xJ9g'
p2336
sg8
S'Bajo el agua'
p2337
ssS'6OpHDI8lRiqHLqmUIYUxVr'
p2338
(dp2339
g3
S'Fonseca'
p2340
sg5
I1
sg6
S'https://open.spotify.com/track/6OpHDI8lRiqHLqmUIYUxVr'
p2341
sg8
S'Te Mando Flores'
p2342
ssS'1VoHrSS3QQ6TbpabLrFiYb'
p2343
(dp2344
g3
S'Alvaro Soler'
p2345
sg5
I12
sg6
S'https://open.spotify.com/track/1VoHrSS3QQ6TbpabLrFiYb'
p2346
sg8
S'Sofia'
p2347
ssS'4iPV0gcc8keTFl6qxqP73M'
p2348
(dp2349
g3
S'CNCO'
p2350
sg5
I36
sg6
S'https://open.spotify.com/track/4iPV0gcc8keTFl6qxqP73M'
p2351
sg8
S'Quisiera'
p2352
ssS'7KXjTSCq5nL1LoYtL7XAwS'
p2353
(dp2354
g3
S'Kendrick Lamar'
p2355
sg5
I19
sg6
S'https://open.spotify.com/track/7KXjTSCq5nL1LoYtL7XAwS'
p2356
sg8
S'HUMBLE.'
p2357
ssS'5MT96Zz0ymUJNm8obKZQr0'
p2358
(dp2359
g3
S'Bad Bunny'
p2360
sg5
I40
sg6
S'https://open.spotify.com/track/5MT96Zz0ymUJNm8obKZQr0'
p2361
sg8
S'Soy Peor'
p2362
ssS'6Na5uKk5SsqZimk0hAWo8y'
p2363
(dp2364
g3
S'Drake'
p2365
sg5
I1
sg6
S'https://open.spotify.com/track/6Na5uKk5SsqZimk0hAWo8y'
p2366
sg8
S'Signs'
p2367
ssS'7BwJtE8KSbCQKOCTIAY3jX'
p2368
(dp2369
g3
S'Carlos Baute'
p2370
sg5
I42
sg6
S'https://open.spotify.com/track/7BwJtE8KSbCQKOCTIAY3jX'
p2371
sg8
S'Ando buscando'
p2372
ssS'0Szp49tpFasIjX04Mcsydp'
p2373
(dp2374
g3
S'Ozuna'
p2375
sg5
I17
sg6
S'https://open.spotify.com/track/0Szp49tpFasIjX04Mcsydp'
p2376
sg8
S'Tu Foto'
p2377
ssS'0n2bvWvMwr0gbjcuTm92eW'
p2378
(dp2379
g3
S'Lana Del Rey'
p2380
sg5
I1
sg6
S'https://open.spotify.com/track/0n2bvWvMwr0gbjcuTm92eW'
p2381
sg8
S'Love'
p2382
ssS'4C1opPFRPafp6yj4AJPBRB'
p2383
(dp2384
g3
S'Leslie Grace'
p2385
sg5
I1
sg6
S'https://open.spotify.com/track/4C1opPFRPafp6yj4AJPBRB'
p2386
sg8
S'D\xc3\xadganle'
p2387
ssS'3Lfiu5sZ4M4B6JaKMBc0FU'
p2388
(dp2389
g3
S'Ed Sheeran'
p2390
sg5
I3
sg6
S'https://open.spotify.com/track/3Lfiu5sZ4M4B6JaKMBc0FU'
p2391
sg8
S'Barcelona'
p2392
ssS'7iXRsjttPa62GpOcqsx1aE'
p2393
(dp2394
g3
S'Reik'
p2395
sg5
I4
sg6
S'https://open.spotify.com/track/7iXRsjttPa62GpOcqsx1aE'
p2396
sg8
S'Qu\xc3\xa9 Gano Olvid\xc3\xa1ndote'
p2397
ssS'4kfm1uI9QGaoN9qm6CkAMn'
p2398
(dp2399
g3
S'Linkin Park'
p2400
sg5
I1
sg6
S'https://open.spotify.com/track/4kfm1uI9QGaoN9qm6CkAMn'
p2401
sg8
S"What I've Done"
p2402
ssS'69bp2EbF7Q2rqc5N3ylezZ'
p2403
(dp2404
g3
S'Justin Bieber'
p2405
sg5
I19
sg6
S'https://open.spotify.com/track/69bp2EbF7Q2rqc5N3ylezZ'
p2406
sg8
S'Sorry'
p2407
ssS'7BHNaG7YZHjGbAAqIHQzNf'
p2408
(dp2409
g3
S'Sanluis'
p2410
sg5
I20
sg6
S'https://open.spotify.com/track/7BHNaG7YZHjGbAAqIHQzNf'
p2411
sg8
S'Se Acab\xc3\xb3'
p2412
ssS'2cnKEkpVUSV4wnjQiTWfH6'
p2413
(dp2414
g3
S'Wisin'
p2415
sg5
I29
sg6
S'https://open.spotify.com/track/2cnKEkpVUSV4wnjQiTWfH6'
p2416
sg8
S'Esc\xc3\xa1pate Conmigo'
p2417
ssS'6qDF4wWL49CAVbgT7yuHl8'
p2418
(dp2419
g3
S'J Balvin'
p2420
sg5
I38
sg6
S'https://open.spotify.com/track/6qDF4wWL49CAVbgT7yuHl8'
p2421
sg8
S'Sigo Extra\xc3\xb1\xc3\xa1ndote'
p2422
ssS'2VRssqds7rRNb4eaG9FaY8'
p2423
(dp2424
g3
S'Jencarlos'
p2425
sg5
I8
sg6
S'https://open.spotify.com/track/2VRssqds7rRNb4eaG9FaY8'
p2426
sg8
S'Pa Que Me Invitan - Spanglish Version'
p2427
ssS'4iLqG9SeJSnt0cSPICSjxv'
p2428
(dp2429
g3
S'Charlie Puth'
p2430
sg5
I25
sg6
S'https://open.spotify.com/track/4iLqG9SeJSnt0cSPICSjxv'
p2431
sg8
S'Attention'
p2432
ssS'6RUKPb4LETWmmr3iAEQktW'
p2433
(dp2434
g3
S'The Chainsmokers'
p2435
sg5
I33
sg6
S'https://open.spotify.com/track/6RUKPb4LETWmmr3iAEQktW'
p2436
sg8
S'Something Just Like This'
p2437
ssS'0MIcPSq9n2z5H8TAfEstri'
p2438
(dp2439
g3
S'Ozuna'
p2440
sg5
I2
sg6
S'https://open.spotify.com/track/0MIcPSq9n2z5H8TAfEstri'
p2441
sg8
S'Quiero Repetir'
p2442
ssS'2CPqh63wRVscbceKcPxwvv'
p2443
(dp2444
g3
S'Mike Perry'
p2445
sg5
I1
sg6
S'https://open.spotify.com/track/2CPqh63wRVscbceKcPxwvv'
p2446
sg8
S'The Ocean'
p2447
ssS'733ybNEEEXHYxfk8sK6MRO'
p2448
(dp2449
g3
S'Chino & Nacho'
p2450
sg5
I3
sg6
S'https://open.spotify.com/track/733ybNEEEXHYxfk8sK6MRO'
p2451
sg8
S'Andas En Mi Cabeza - Remix'
p2452
ssS'7qCAVkHWZkF44OzOUKf8Cr'
p2453
(dp2454
g3
S'Nicky Jam'
p2455
sg5
I32
sg6
S'https://open.spotify.com/track/7qCAVkHWZkF44OzOUKf8Cr'
p2456
sg8
S'El Perd\xc3\xb3n'
p2457
ssS'1xznGGDReH1oQq0xzbwXa3'
p2458
(dp2459
g3
S'Drake'
p2460
sg5
I42
sg6
S'https://open.spotify.com/track/1xznGGDReH1oQq0xzbwXa3'
p2461
sg8
S'One Dance'
p2462
ssS'5GXAXm5YOmYT0kL5jHvYBt'
p2463
(dp2464
g3
S'The Weeknd'
p2465
sg5
I42
sg6
S'https://open.spotify.com/track/5GXAXm5YOmYT0kL5jHvYBt'
p2466
sg8
S'I Feel It Coming'
p2467
ssS'2habSXqcJGExM6JJyskY7O'
p2468
(dp2469
g3
S'Miley Cyrus'
p2470
sg5
I15
sg6
S'https://open.spotify.com/track/2habSXqcJGExM6JJyskY7O'
p2471
sg8
S'Malibu'
p2472
ssS'0lMbuWUpfTWhEmOKxppEau'
p2473
(dp2474
g3
S'Calvin Harris'
p2475
sg5
I5
sg6
S'https://open.spotify.com/track/0lMbuWUpfTWhEmOKxppEau'
p2476
sg8
S'Rollin'
p2477
ssS'7hhp7xtUEH58DuPTsFtiXV'
p2478
(dp2479
g3
S'Dennis Fernando'
p2480
sg5
I1
sg6
S'https://open.spotify.com/track/7hhp7xtUEH58DuPTsFtiXV'
p2481
sg8
S'Estar Contigo / Sin Senos S\xc3\xad Hay Para\xc3\xadso'
p2482
ssS'7gHs73wELdeycvS48JfIos'
p2483
(dp2484
g3
S'Alan Walker'
p2485
sg5
I42
sg6
S'https://open.spotify.com/track/7gHs73wELdeycvS48JfIos'
p2486
sg8
S'Faded'
p2487
ssS'51ChrwmUPDJvedPQnIU8Ls'
p2488
(dp2489
g3
S'Ed Sheeran'
p2490
sg5
I7
sg6
S'https://open.spotify.com/track/51ChrwmUPDJvedPQnIU8Ls'
p2491
sg8
S'Dive'
p2492
ssS'6yCjU5j6YHbux2VQCBTTE1'
p2493
(dp2494
g3
S'Melendi'
p2495
sg5
I10
sg6
S'https://open.spotify.com/track/6yCjU5j6YHbux2VQCBTTE1'
p2496
sg8
S'Tu jard\xc3\xadn con enanitos'
p2497
ssS'5KX51uLJYo1S1MmITG7lHD'
p2498
(dp2499
g3
S'Justin Quiles'
p2500
sg5
I12
sg6
S'https://open.spotify.com/track/5KX51uLJYo1S1MmITG7lHD'
p2501
sg8
S'Otra Copa (feat. Farruko)'
p2502
ssS'6jA8HL9i4QGzsj6fjoxp8Y'
p2503
(dp2504
g3
S'Martin Garrix'
p2505
sg5
I20
sg6
S'https://open.spotify.com/track/6jA8HL9i4QGzsj6fjoxp8Y'
p2506
sg8
S'There for You'
p2507
ssS'6Pur3hWy6Nzc27ilmsp5HA'
p2508
(dp2509
g3
S'Los Enanitos Verdes'
p2510
sg5
I2
sg6
S'https://open.spotify.com/track/6Pur3hWy6Nzc27ilmsp5HA'
p2511
sg8
S'Lamento Boliviano'
p2512
ssS'42MoYJb42qprlpJU0OEhAT'
p2513
(dp2514
g3
S'Jencarlos'
p2515
sg5
I11
sg6
S'https://open.spotify.com/track/42MoYJb42qprlpJU0OEhAT'
p2516
sg8
S'Dure Dure'
p2517
ssS'1CUVN2kn7mW5FjkqXTR2W1'
p2518
(dp2519
g3
S'Jonas Blue'
p2520
sg5
I27
sg6
S'https://open.spotify.com/track/1CUVN2kn7mW5FjkqXTR2W1'
p2521
sg8
S'Perfect Strangers'
p2522
ssS'7nKBxz47S9SD79N086fuhn'
p2523
(dp2524
g3
S'Enrique Iglesias'
p2525
sg5
I33
sg6
S'https://open.spotify.com/track/7nKBxz47S9SD79N086fuhn'
p2526
sg8
S'SUBEME LA RADIO'
p2527
ssS'27SdWb2rFzO6GWiYDBTD9j'
p2528
(dp2529
g3
S'Sia'
p2530
sg5
I38
sg6
S'https://open.spotify.com/track/27SdWb2rFzO6GWiYDBTD9j'
p2531
sg8
S'Cheap Thrills'
p2532
ssS'3ibRxEv4KkcU9e259eyNJA'
p2533
(dp2534
g3
S'Major Lazer'
p2535
sg5
I7
sg6
S'https://open.spotify.com/track/3ibRxEv4KkcU9e259eyNJA'
p2536
sg8
S'Sua Cara (feat. Anitta & Pabllo Vittar)'
p2537
ssS'6PJ8FF6UR8FZXfEvpHkIVN'
p2538
(dp2539
g3
S'Ed Sheeran'
p2540
sg5
I5
sg6
S'https://open.spotify.com/track/6PJ8FF6UR8FZXfEvpHkIVN'
p2541
sg8
S'How Would You Feel (Paean)'
p2542
ssS'3hB5DgAiMAQ4DzYbsMq1IT'
p2543
(dp2544
g3
S'Justin Bieber'
p2545
sg5
I36
sg6
S'https://open.spotify.com/track/3hB5DgAiMAQ4DzYbsMq1IT'
p2546
sg8
S'Love Yourself'
p2547
ssS'5ndfVSDyPq90jaIUhNPeby'
p2548
(dp2549
g3
S'Katy Perry'
p2550
sg5
I2
sg6
S'https://open.spotify.com/track/5ndfVSDyPq90jaIUhNPeby'
p2551
sg8
S'Chained To The Rhythm'
p2552
ssS'0mwPE0lPOgnWf2bo14xedJ'
p2553
(dp2554
g3
S'Juanes'
p2555
sg5
I35
sg6
S'https://open.spotify.com/track/0mwPE0lPOgnWf2bo14xedJ'
p2556
sg8
S'Fuego'
p2557
ssS'5uCax9HTNlzGybIStD3vDh'
p2558
(dp2559
g3
S'James Arthur'
p2560
sg5
I28
sg6
S'https://open.spotify.com/track/5uCax9HTNlzGybIStD3vDh'
p2561
sg8
S"Say You Won't Let Go"
p2562
ssS'7qiZfU4dY1lWllzX7mPBI3'
p2563
(dp2564
g3
S'Ed Sheeran'
p2565
sg5
I40
sg6
S'https://open.spotify.com/track/7qiZfU4dY1lWllzX7mPBI3'
p2566
sg8
S'Shape of You'
p2567
ssS'0wfbD5rAksdXUzRvMfM3x5'
p2568
(dp2569
g3
S'The Chainsmokers'
p2570
sg5
I6
sg6
S'https://open.spotify.com/track/0wfbD5rAksdXUzRvMfM3x5'
p2571
sg8
S'The One'
p2572
ssS'2FiSTH0GYpIioUgjfzMIja'
p2573
(dp2574
g3
S'Kygo'
p2575
sg5
I2
sg6
S'https://open.spotify.com/track/2FiSTH0GYpIioUgjfzMIja'
p2576
sg8
S'Stay'
p2577
ssS'2jVJYU4X3aD8hlTco3MlsN'
p2578
(dp2579
g3
S'Brytiago'
p2580
sg5
I16
sg6
S'https://open.spotify.com/track/2jVJYU4X3aD8hlTco3MlsN'
p2581
sg8
S'Beb\xc3\xa9 - Remix'
p2582
ssS'1F2HXIJrE2Xn81OzT2zZvW'
p2583
(dp2584
g3
S'French Montana'
p2585
sg5
I8
sg6
S'https://open.spotify.com/track/1F2HXIJrE2Xn81OzT2zZvW'
p2586
sg8
S'Unforgettable'
p2587
ssS'6ozxFBMOLTebaRvy827zuz'
p2588
(dp2589
g3
S'La M\xc3\xa1quina Camale\xc3\xb3n'
p2590
sg5
I1
sg6
S'https://open.spotify.com/track/6ozxFBMOLTebaRvy827zuz'
p2591
sg8
S'Shiva'
p2592
ssS'78rIJddV4X0HkNAInEcYde'
p2593
(dp2594
g3
S'Starley'
p2595
sg5
I28
sg6
S'https://open.spotify.com/track/78rIJddV4X0HkNAInEcYde'
p2596
sg8
S'Call On Me - Ryan Riback Extended Remix'
p2597
ssS'0L7loeTIg6akW84aEQZpCT'
p2598
(dp2599
g3
S'Major Lazer'
p2600
sg5
I26
sg6
S'https://open.spotify.com/track/0L7loeTIg6akW84aEQZpCT'
p2601
sg8
S'Light It Up (feat. Nyla & Fuse ODG) - Remix'
p2602
ssS'0VjbN2rfs40mHQ5mZN9UCE'
p2603
(dp2604
g3
S'Paulina Rubio'
p2605
sg5
I1
sg6
S'https://open.spotify.com/track/0VjbN2rfs40mHQ5mZN9UCE'
p2606
sg8
S'Me Quema'
p2607
ssS'6DUdDIRgLqCGq1DwkNWQTN'
p2608
(dp2609
g3
S'Maluma'
p2610
sg5
I42
sg6
S'https://open.spotify.com/track/6DUdDIRgLqCGq1DwkNWQTN'
p2611
sg8
S'Borro Cassette'
p2612
ssS'167NczpNbRF7oWakJaY3Hh'
p2613
(dp2614
g3
S'Niall Horan'
p2615
sg5
I12
sg6
S'https://open.spotify.com/track/167NczpNbRF7oWakJaY3Hh'
p2616
sg8
S'Slow Hands'
p2617
ssS'1LszjjoVwDDZcWUQbzeDLG'
p2618
(dp2619
g3
S'Yandel'
p2620
sg5
I5
sg6
S'https://open.spotify.com/track/1LszjjoVwDDZcWUQbzeDLG'
p2621
sg8
S'Expl\xc3\xadcale'
p2622
ssS'5mey7CLLuFToM2P68Qu1gF'
p2623
(dp2624
g3
S'Chino & Nacho'
p2625
sg5
I42
sg6
S'https://open.spotify.com/track/5mey7CLLuFToM2P68Qu1gF'
p2626
sg8
S'Andas En Mi Cabeza'
p2627
ssS'32lm3769IRfcnrQV11LO4E'
p2628
(dp2629
g3
S'Enrique Iglesias'
p2630
sg5
I21
sg6
S'https://open.spotify.com/track/32lm3769IRfcnrQV11LO4E'
p2631
sg8
S'Bailando - Spanish Version'
p2632
ssS'35OC6rMxa8lJi8eDiUVShS'
p2633
(dp2634
g3
S'De La Ghetto'
p2635
sg5
I16
sg6
S'https://open.spotify.com/track/35OC6rMxa8lJi8eDiUVShS'
p2636
sg8
S'Ac\xc3\xa9rcate (feat. Nicky Jam) - Remix'
p2637
ssS'7yHEDfrJNd0zWOfXwydNH0'
p2638
(dp2639
g3
S'Ariana Grande'
p2640
sg5
I2
sg6
S'https://open.spotify.com/track/7yHEDfrJNd0zWOfXwydNH0'
p2641
sg8
S'Into You'
p2642
ssS'2naJy8SKJ27gj6ZhRPDKaz'
p2643
(dp2644
g3
S'Rvssian'
p2645
sg5
I10
sg6
S'https://open.spotify.com/track/2naJy8SKJ27gj6ZhRPDKaz'
p2646
sg8
S'Si Tu Lo Dejas'
p2647
ssS'0LtVx5vsq9nfpGsWgjUin6'
p2648
(dp2649
g3
S'Ryan Gosling'
p2650
sg5
I1
sg6
S'https://open.spotify.com/track/0LtVx5vsq9nfpGsWgjUin6'
p2651
sg8
S'City Of Stars - From La La Land Soundtrack'
p2652
ssS'626rYyBfeAeleh1F5t4B70'
p2653
(dp2654
g3
S'Revol'
p2655
sg5
I31
sg6
S'https://open.spotify.com/track/626rYyBfeAeleh1F5t4B70'
p2656
sg8
S'Caile (feat. Zion & De La Ghetto)'
p2657
ssS'11KJSRSgaDxqydKYiD2Jew'
p2658
(dp2659
g3
S'Drake'
p2660
sg5
I8
sg6
S'https://open.spotify.com/track/11KJSRSgaDxqydKYiD2Jew'
p2661
sg8
S'Too Good'
p2662
ssS'3zoYkqS4y2BsGVShPL2nTE'
p2663
(dp2664
g3
S'CNCO'
p2665
sg5
I8
sg6
S'https://open.spotify.com/track/3zoYkqS4y2BsGVShPL2nTE'
p2666
sg8
S'Reggaet\xc3\xb3n Lento (Remix) [CNCO & Little Mix]'
p2667
ssS'2xt2piJx6jlFkjS77YiqpL'
p2668
(dp2669
g3
S'Audioslave'
p2670
sg5
I1
sg6
S'https://open.spotify.com/track/2xt2piJx6jlFkjS77YiqpL'
p2671
sg8
S'Like a Stone'
p2672
ssS'1yNyoWWWikbLhwIGWjZuDW'
p2673
(dp2674
g3
S'The Vamps'
p2675
sg5
I11
sg6
S'https://open.spotify.com/track/1yNyoWWWikbLhwIGWjZuDW'
p2676
sg8
S'All Night'
p2677
ssS'5xMzazov0IHYllrc8U2K6F'
p2678
(dp2679
g3
S'Jennifer Lopez'
p2680
sg5
I14
sg6
S'https://open.spotify.com/track/5xMzazov0IHYllrc8U2K6F'
p2681
sg8
S'Ni T\xc3\xba Ni Yo'
p2682
ssS'2z0EshEO4XptiepEb9j3Og'
p2683
(dp2684
g3
S'Morat'
p2685
sg5
I28
sg6
S'https://open.spotify.com/track/2z0EshEO4XptiepEb9j3Og'
p2686
sg8
S'C\xc3\xb3mo Te Atreves'
p2687
ssS'4vb4mFvYsr2h6enhjJsq9Y'
p2688
(dp2689
g3
S'Adele'
p2690
sg5
I9
sg6
S'https://open.spotify.com/track/4vb4mFvYsr2h6enhjJsq9Y'
p2691
sg8
S'Water Under the Bridge'
p2692
ssS'2xNZeeqmwMPVKnD7FSQfgt'
p2693
(dp2694
g3
S'Maluma'
p2695
sg5
I9
sg6
S'https://open.spotify.com/track/2xNZeeqmwMPVKnD7FSQfgt'
p2696
sg8
S'Sin Contrato - Remix'
p2697
ssS'17Fd6Yb7mSbinKG8LoWfFl'
p2698
(dp2699
g3
S'Mike Posner'
p2700
sg5
I42
sg6
S'https://open.spotify.com/track/17Fd6Yb7mSbinKG8LoWfFl'
p2701
sg8
S'I Took A Pill In Ibiza - Seeb Remix'
p2702
ssS'4tCtwWceOPWzenK2HAIJSb'
p2703
(dp2704
g3
S'Fifth Harmony'
p2705
sg5
I21
sg6
S'https://open.spotify.com/track/4tCtwWceOPWzenK2HAIJSb'
p2706
sg8
S'Work from Home'
p2707
ssS'5u5MvmVtitax9R1Mxh3reC'
p2708
(dp2709
g3
S'Ozuna'
p2710
sg5
I7
sg6
S'https://open.spotify.com/track/5u5MvmVtitax9R1Mxh3reC'
p2711
sg8
S'Dile Que Tu Me Quieres'
p2712
ssS'5ZF3889W92eTBOROe0lPNN'
p2713
(dp2714
g3
S'Anuel Aa'
p2715
sg5
I17
sg6
S'https://open.spotify.com/track/5ZF3889W92eTBOROe0lPNN'
p2716
sg8
S'Ayer 2'
p2717
ssS'27ebni0DfbT5Owz6W42HP8'
p2718
(dp2719
g3
S'Yandel'
p2720
sg5
I17
sg6
S'https://open.spotify.com/track/27ebni0DfbT5Owz6W42HP8'
p2721
sg8
S'Nunca Me Olvides'
p2722
ssS'6RFJxVj9tL0Xrd3Jve4Vo4'
p2723
(dp2724
g3
S'Romeo Santos'
p2725
sg5
I8
sg6
S'https://open.spotify.com/track/6RFJxVj9tL0Xrd3Jve4Vo4'
p2726
sg8
S'H\xc3\xa9roe Favorito'
p2727
ssS'6XOYVSmNDjKUNMXooU4s4z'
p2728
(dp2729
g3
S'OneRepublic'
p2730
sg5
I2
sg6
S'https://open.spotify.com/track/6XOYVSmNDjKUNMXooU4s4z'
p2731
sg8
S'No Vacancy'
p2732
ssS'7hydwXc3IVJIItIif6ZuLH'
p2733
(dp2734
g3
S'Ricardo Arjona'
p2735
sg5
I4
sg6
S'https://open.spotify.com/track/7hydwXc3IVJIItIif6ZuLH'
p2736
sg8
S'Ella'
p2737
ssS'5g7sDjBhZ4I3gcFIpkrLuI'
p2738
(dp2739
g3
S'Bruno Mars'
p2740
sg5
I2
sg6
S'https://open.spotify.com/track/5g7sDjBhZ4I3gcFIpkrLuI'
p2741
sg8
S'Locked Out Of Heaven'
p2742
ssS'6ZvmnulA6jJY3lvveuCz77'
p2743
(dp2744
g3
S'CNCO'
p2745
sg5
I4
sg6
S'https://open.spotify.com/track/6ZvmnulA6jJY3lvveuCz77'
p2746
sg8
S'Tan F\xc3\xa1cil - Urban Remix'
p2747
ssS'0OMRAvrtLWE2TvcXorRiB9'
p2748
(dp2749
g3
S'Gente De Zona'
p2750
sg5
I42
sg6
S'https://open.spotify.com/track/0OMRAvrtLWE2TvcXorRiB9'
p2751
sg8
S'La Gozadera'
p2752
ssS'22mek4IiqubGD9ctzxc69s'
p2753
(dp2754
g3
S'Calvin Harris'
p2755
sg5
I3
sg6
S'https://open.spotify.com/track/22mek4IiqubGD9ctzxc69s'
p2756
sg8
S'How Deep Is Your Love'
p2757
ssS'1lItf5ZXJc1by9SbPeljFd'
p2758
(dp2759
g3
S'Zay Hilfigerrr'
p2760
sg5
I1
sg6
S'https://open.spotify.com/track/1lItf5ZXJc1by9SbPeljFd'
p2761
sg8
S'Juju On That Beat (TZ Anthem)'
p2762
ssS'5tz69p7tJuGPeMGwNTxYuV'
p2763
(dp2764
g3
S'Logic'
p2765
sg5
I6
sg6
S'https://open.spotify.com/track/5tz69p7tJuGPeMGwNTxYuV'
p2766
sg8
S'1-800-273-8255'
p2767
ss.