(dp0
S'7uWTswatFFFpcrIN7pjxaw'
p1
(dp2
S'artistName'
p3
S'Antti Tuisku'
p4
sS'weeksOnChart'
p5
I2
sS'track_href'
p6
S'https://open.spotify.com/track/7uWTswatFFFpcrIN7pjxaw'
p7
sS'songName'
p8
S'M\xc3\xa4 hiihd\xc3\xa4n'
p9
ssS'0mel2N9Ws9r4yLQn5QE21Y'
p10
(dp11
g3
S'Sam Smith'
p12
sg5
I5
sg6
S'https://open.spotify.com/track/0mel2N9Ws9r4yLQn5QE21Y'
p13
sg8
S'Too Good At Goodbyes'
p14
ssS'1Q1Lz8shbr2AXR8zKReTqd'
p15
(dp16
g3
S'Hearts & Colors'
p17
sg5
I5
sg6
S'https://open.spotify.com/track/1Q1Lz8shbr2AXR8zKReTqd'
p18
sg8
S'For The Love'
p19
ssS'0jdny0dhgjUwoIp5GkqEaA'
p20
(dp21
g3
S'Kesha'
p22
sg5
I3
sg6
S'https://open.spotify.com/track/0jdny0dhgjUwoIp5GkqEaA'
p23
sg8
S'Praying'
p24
ssS'3T1QBIeRRaAFAqcPgZg37l'
p25
(dp26
g3
S'Kasmir'
p27
sg5
I13
sg6
S'https://open.spotify.com/track/3T1QBIeRRaAFAqcPgZg37l'
p28
sg8
S'Huonoo Seuraa'
p29
ssS'0prNGof3XqfTvNDxHonvdK'
p30
(dp31
g3
S'Alessia Cara'
p32
sg5
I13
sg6
S'https://open.spotify.com/track/0prNGof3XqfTvNDxHonvdK'
p33
sg8
S'Scars To Your Beautiful'
p34
ssS'0M5qjFNV6ABMbzbkYIkmib'
p35
(dp36
g3
S'Stina Girs'
p37
sg5
I4
sg6
S'https://open.spotify.com/track/0M5qjFNV6ABMbzbkYIkmib'
p38
sg8
S'Kyl S\xc3\xa4 Tii\xc3\xa4t'
p39
ssS'0ZP2nzojPXNZ4Whjj0xEGo'
p40
(dp41
g3
S'Ville Tuomi'
p42
sg5
I1
sg6
S'https://open.spotify.com/track/0ZP2nzojPXNZ4Whjj0xEGo'
p43
sg8
S'Heinill\xc3\xa4 H\xc3\xa4rkien Kaukalon'
p44
ssS'6HUnnBwYZqcED1eQztxMBN'
p45
(dp46
g3
S'Martin Jensen'
p47
sg5
I40
sg6
S'https://open.spotify.com/track/6HUnnBwYZqcED1eQztxMBN'
p48
sg8
S'Solo Dance'
p49
ssS'10TGDps8gvUC2meiqne5Ju'
p50
(dp51
g3
S'SANNI'
p52
sg5
I5
sg6
S'https://open.spotify.com/track/10TGDps8gvUC2meiqne5Ju'
p53
sg8
S'Timantit on ikuisia (Vain el\xc3\xa4m\xc3\xa4\xc3\xa4 kausi 7)'
p54
ssS'0lLdorYw7lVrJydTINhWdI'
p55
(dp56
g3
S'Michael Bubl\xc3\xa9'
p57
sg5
I1
sg6
S'https://open.spotify.com/track/0lLdorYw7lVrJydTINhWdI'
p58
sg8
S"It's Beginning To Look A Lot Like Christmas"
p59
ssS'1OAh8uOEOvTDqkKFsKksCi'
p60
(dp61
g3
S'DJ Khaled'
p62
sg5
I17
sg6
S'https://open.spotify.com/track/1OAh8uOEOvTDqkKFsKksCi'
p63
sg8
S'Wild Thoughts'
p64
ssS'7FTTSfZNFiPvL05ltm8UAr'
p65
(dp66
g3
S'Arttu Lindeman'
p67
sg5
I3
sg6
S'https://open.spotify.com/track/7FTTSfZNFiPvL05ltm8UAr'
p68
sg8
S'Faijas'
p69
ssS'6ZbiaHwI9x7CIxYGOEmXxd'
p70
(dp71
g3
S'Tungevaag & Raaban'
p72
sg5
I10
sg6
S'https://open.spotify.com/track/6ZbiaHwI9x7CIxYGOEmXxd'
p73
sg8
S'Beast'
p74
ssS'4b4KcovePX8Ke2cLIQTLM0'
p75
(dp76
g3
S'The Vamps'
p77
sg5
I1
sg6
S'https://open.spotify.com/track/4b4KcovePX8Ke2cLIQTLM0'
p78
sg8
S'All Night'
p79
ssS'5l0DneTfviRz1V0m0V8jZk'
p80
(dp81
g3
S'Kube'
p82
sg5
I6
sg6
S'https://open.spotify.com/track/5l0DneTfviRz1V0m0V8jZk'
p83
sg8
S'Finessaan'
p84
ssS'4WfcvoGZvyUysZBiO7DtAP'
p85
(dp86
g3
S'Jenni Vartiainen'
p87
sg5
I1
sg6
S'https://open.spotify.com/track/4WfcvoGZvyUysZBiO7DtAP'
p88
sg8
S'Tule meille jouluksi'
p89
ssS'7KcGEssn7BnJdTgildK5y0'
p90
(dp91
g3
S'Nicki Minaj'
p92
sg5
I1
sg6
S'https://open.spotify.com/track/7KcGEssn7BnJdTgildK5y0'
p93
sg8
S'No Frauds'
p94
ssS'1CnPYaKxTVb4LWOtiGOm0m'
p95
(dp96
g3
S'Jon Bellion'
p97
sg5
I19
sg6
S'https://open.spotify.com/track/1CnPYaKxTVb4LWOtiGOm0m'
p98
sg8
S'All Time Low'
p99
ssS'3LflHr5D44uAW9wppQ7Dnw'
p100
(dp101
g3
S'M\xc3\xa4kki'
p102
sg5
I6
sg6
S'https://open.spotify.com/track/3LflHr5D44uAW9wppQ7Dnw'
p103
sg8
S'Pakastin'
p104
ssS'5Ber68jZ7ytegr2UISEdb7'
p105
(dp106
g3
S'Michael Bubl\xc3\xa9'
p107
sg5
I1
sg6
S'https://open.spotify.com/track/5Ber68jZ7ytegr2UISEdb7'
p108
sg8
S'Santa Claus Is Coming To Town'
p109
ssS'6FwrG9yyKfGve1wOMq98f9'
p110
(dp111
g3
S'SANNI'
p112
sg5
I24
sg6
S'https://open.spotify.com/track/6FwrG9yyKfGve1wOMq98f9'
p113
sg8
S'Tahdon rakastella sinua'
p114
ssS'2V2wTsXn6clpbtNYsCLnO2'
p115
(dp116
g3
S'Hesa\xc3\x84ij\xc3\xa4'
p117
sg5
I8
sg6
S'https://open.spotify.com/track/2V2wTsXn6clpbtNYsCLnO2'
p118
sg8
S'Karhun kaato'
p119
ssS'2FRnf9qhLbvw8fu4IBXx78'
p120
(dp121
g3
S'Wham!'
p122
sg5
I1
sg6
S'https://open.spotify.com/track/2FRnf9qhLbvw8fu4IBXx78'
p123
sg8
S'Last Christmas'
p124
ssS'7tr2za8SQg2CI8EDgrdtNl'
p125
(dp126
g3
S'Calvin Harris'
p127
sg5
I21
sg6
S'https://open.spotify.com/track/7tr2za8SQg2CI8EDgrdtNl'
p128
sg8
S'Slide'
p129
ssS'6VaErRcSQJ9QHZRfrVignI'
p130
(dp131
g3
S'KUUMAA'
p132
sg5
I1
sg6
S'https://open.spotify.com/track/6VaErRcSQJ9QHZRfrVignI'
p133
sg8
S'Uppoon Suhun'
p134
ssS'2399FqzwGrLpeIspnYAPg7'
p135
(dp136
g3
S'Gasellit'
p137
sg5
I1
sg6
S'https://open.spotify.com/track/2399FqzwGrLpeIspnYAPg7'
p138
sg8
S'M\xc3\xa4 Tuun Takas'
p139
ssS'3bCuspxImskpiHF3udYdFI'
p140
(dp141
g3
S'Mikael Gabriel'
p142
sg5
I21
sg6
S'https://open.spotify.com/track/3bCuspxImskpiHF3udYdFI'
p143
sg8
S'Loistat Pime\xc3\xa4s'
p144
ssS'4TZy1wLyHec06pwgFYDh1a'
p145
(dp146
g3
S'Shawn Mendes'
p147
sg5
I9
sg6
S'https://open.spotify.com/track/4TZy1wLyHec06pwgFYDh1a'
p148
sg8
S'Mercy'
p149
ssS'25khomWgBVamSdKw7hzm3l'
p150
(dp151
g3
S'The Weeknd'
p152
sg5
I1
sg6
S'https://open.spotify.com/track/25khomWgBVamSdKw7hzm3l'
p153
sg8
S'The Hills'
p154
ssS'3kPOOaK7tasqmWzEtXAfHf'
p155
(dp156
g3
S'Juju'
p157
sg5
I1
sg6
S'https://open.spotify.com/track/3kPOOaK7tasqmWzEtXAfHf'
p158
sg8
S'Visio'
p159
ssS'06FCvd7rrRcF3DdvWH5Isp'
p160
(dp161
g3
S'Kendrick Lamar'
p162
sg5
I1
sg6
S'https://open.spotify.com/track/06FCvd7rrRcF3DdvWH5Isp'
p163
sg8
S'LUST.'
p164
ssS'4pLwZjInHj3SimIyN9SnOz'
p165
(dp166
g3
S'Ariana Grande'
p167
sg5
I11
sg6
S'https://open.spotify.com/track/4pLwZjInHj3SimIyN9SnOz'
p168
sg8
S'Side To Side'
p169
ssS'63Hcp32nBv3Xzf5iKNuHy0'
p170
(dp171
g3
S'OG Ulla-Maija'
p172
sg5
I14
sg6
S'https://open.spotify.com/track/63Hcp32nBv3Xzf5iKNuHy0'
p173
sg8
S'HUUMETUKKA'
p174
ssS'3E2Zh20GDCR9B1EYjfXWyv'
p175
(dp176
g3
S'AJR'
p177
sg5
I22
sg6
S'https://open.spotify.com/track/3E2Zh20GDCR9B1EYjfXWyv'
p178
sg8
S'Weak'
p179
ssS'2Gl0FzuLxflY6nPifJp5Dr'
p180
(dp181
g3
S'Kygo'
p182
sg5
I19
sg6
S'https://open.spotify.com/track/2Gl0FzuLxflY6nPifJp5Dr'
p183
sg8
S'First Time'
p184
ssS'6wqPgPizZDqTph2ouCbqoj'
p185
(dp186
g3
S'Mikael Gabriel'
p187
sg5
I8
sg6
S'https://open.spotify.com/track/6wqPgPizZDqTph2ouCbqoj'
p188
sg8
S'Tyhj\xc3\xa4ss\xc3\xa4 Huoneessa - Vain El\xc3\xa4m\xc3\xa4\xc3\xa4 Kausi 5'
p189
ssS'5YCqzqb6yN6TsMOHb4FSVw'
p190
(dp191
g3
S'Kristian Kostov'
p192
sg5
I1
sg6
S'https://open.spotify.com/track/5YCqzqb6yN6TsMOHb4FSVw'
p193
sg8
S'Beautiful Mess'
p194
ssS'4zm42CgWm87PwcnxEW4j2I'
p195
(dp196
g3
S'Arttu Lindeman'
p197
sg5
I3
sg6
S'https://open.spotify.com/track/4zm42CgWm87PwcnxEW4j2I'
p198
sg8
S'Hengaillaan t\xc3\xa4\xc3\xa4 y\xc3\xb6'
p199
ssS'4Km5HrUvYTaSUfiSGPJeQR'
p200
(dp201
g3
S'Migos'
p202
sg5
I32
sg6
S'https://open.spotify.com/track/4Km5HrUvYTaSUfiSGPJeQR'
p203
sg8
S'Bad and Boujee (feat. Lil Uzi Vert)'
p204
ssS'2RttW7RAu5nOAfq6YFvApB'
p205
(dp206
g3
S'Ed Sheeran'
p207
sg5
I8
sg6
S'https://open.spotify.com/track/2RttW7RAu5nOAfq6YFvApB'
p208
sg8
S'Happier'
p209
ssS'5LYQSNHZxEA880URXFHg6h'
p210
(dp211
g3
S'Lana Del Rey'
p212
sg5
I2
sg6
S'https://open.spotify.com/track/5LYQSNHZxEA880URXFHg6h'
p213
sg8
S'Lust for Life (with The Weeknd)'
p214
ssS'3EmmCZoqpWOTY1g2GBwJoR'
p215
(dp216
g3
S'Steve Aoki'
p217
sg5
I22
sg6
S'https://open.spotify.com/track/3EmmCZoqpWOTY1g2GBwJoR'
p218
sg8
S'Just Hold On'
p219
ssS'2Ce5IyMlVRVvN997ZJjJJA'
p220
(dp221
g3
S'Future'
p222
sg5
I6
sg6
S'https://open.spotify.com/track/2Ce5IyMlVRVvN997ZJjJJA'
p223
sg8
S'Selfish'
p224
ssS'1SVpTZr2u8LTWQJ8DBYpPx'
p225
(dp226
g3
S'Maija Vilkkumaa'
p227
sg5
I4
sg6
S'https://open.spotify.com/track/1SVpTZr2u8LTWQJ8DBYpPx'
p228
sg8
S'M\xc3\xa4 en oo sun ainoo'
p229
ssS'3sJHkcxojoJD2Ytbo1yLLF'
p230
(dp231
g3
S'Moon Taxi'
p232
sg5
I9
sg6
S'https://open.spotify.com/track/3sJHkcxojoJD2Ytbo1yLLF'
p233
sg8
S'Two High'
p234
ssS'77PIgzFwxUg5F8eqRnccQZ'
p235
(dp236
g3
S'Gabriel Lion'
p237
sg5
I19
sg6
S'https://open.spotify.com/track/77PIgzFwxUg5F8eqRnccQZ'
p238
sg8
S'M\xc3\xa4 En Haluu Tiet\xc3\xa4\xc3\xa4'
p239
ssS'54ulOTUIZA4suH69uQCwdZ'
p240
(dp241
g3
S'Haloo Helsinki!'
p242
sg5
I4
sg6
S'https://open.spotify.com/track/54ulOTUIZA4suH69uQCwdZ'
p243
sg8
S'Tuntematon'
p244
ssS'7MddwdpQ7sh3Pi1xHUSr4K'
p245
(dp246
g3
S'Evelina'
p247
sg5
I24
sg6
S'https://open.spotify.com/track/7MddwdpQ7sh3Pi1xHUSr4K'
p248
sg8
S'Kylmii V\xc3\xa4reit\xc3\xa4'
p249
ssS'3g52ZnzSbMojUfagp2HV79'
p250
(dp251
g3
S'Irina'
p252
sg5
I3
sg6
S'https://open.spotify.com/track/3g52ZnzSbMojUfagp2HV79'
p253
sg8
S"I Don't Dance (Vain el\xc3\xa4m\xc3\xa4\xc3\xa4 kausi 6)"
p254
ssS'0gbBzIqrECJOEPvQJIBFs5'
p255
(dp256
g3
S'Lorde'
p257
sg5
I6
sg6
S'https://open.spotify.com/track/0gbBzIqrECJOEPvQJIBFs5'
p258
sg8
S'Green Light'
p259
ssS'5yjKv99Ge4iOr9QBW1Hl0x'
p260
(dp261
g3
S'Haloo Helsinki!'
p262
sg5
I24
sg6
S'https://open.spotify.com/track/5yjKv99Ge4iOr9QBW1Hl0x'
p263
sg8
S"Oh No Let's Go"
p264
ssS'6C4Ln9FcD2GXQ8QSUQpncZ'
p265
(dp266
g3
S'Ida Paul & Kalle Lindroth'
p267
sg5
I16
sg6
S'https://open.spotify.com/track/6C4Ln9FcD2GXQ8QSUQpncZ'
p268
sg8
S'Kupla'
p269
ssS'4tqhPqcPCimLqVpNsEgu4J'
p270
(dp271
g3
S'Laura Voutilainen'
p272
sg5
I7
sg6
S'https://open.spotify.com/track/4tqhPqcPCimLqVpNsEgu4J'
p273
sg8
S'S\xc3\xa4rkynyt enkeli (Vain el\xc3\xa4m\xc3\xa4\xc3\xa4 kausi 6)'
p274
ssS'66D7modSrY1bCdbgIDDOvf'
p275
(dp276
g3
S'Aste'
p277
sg5
I11
sg6
S'https://open.spotify.com/track/66D7modSrY1bCdbgIDDOvf'
p278
sg8
S'Enemm\xc3\xa4n kuin valmis'
p279
ssS'6vsB8NUCBMLuuYmsYtZSra'
p280
(dp281
g3
S'Robin'
p282
sg5
I24
sg6
S'https://open.spotify.com/track/6vsB8NUCBMLuuYmsYtZSra'
p283
sg8
S'Rakkaus On Lumivalkoinen - Vain El\xc3\xa4m\xc3\xa4\xc3\xa4 Kausi 6'
p284
ssS'5tz69p7tJuGPeMGwNTxYuV'
p285
(dp286
g3
S'Logic'
p287
sg5
I23
sg6
S'https://open.spotify.com/track/5tz69p7tJuGPeMGwNTxYuV'
p288
sg8
S'1-800-273-8255'
p289
ssS'3UVRi8xiuMb0MtFIbemaAn'
p290
(dp291
g3
S'Antti Tuisku'
p292
sg5
I2
sg6
S'https://open.spotify.com/track/3UVRi8xiuMb0MtFIbemaAn'
p293
sg8
S'Peto on irti'
p294
ssS'4iYRa2btalAzPZoSYfROqF'
p295
(dp296
g3
S'Kendrick Lamar'
p297
sg5
I2
sg6
S'https://open.spotify.com/track/4iYRa2btalAzPZoSYfROqF'
p298
sg8
S'XXX. FEAT. U2.'
p299
ssS'4xlrALxuaCf9yZBHJeTSG6'
p300
(dp301
g3
S'Jonas Blue'
p302
sg5
I9
sg6
S'https://open.spotify.com/track/4xlrALxuaCf9yZBHJeTSG6'
p303
sg8
S'Mama'
p304
ssS'1D3YbOuwQN5qaVFHwONtrL'
p305
(dp306
g3
S'Perttu'
p307
sg5
I1
sg6
S'https://open.spotify.com/track/1D3YbOuwQN5qaVFHwONtrL'
p308
sg8
S'Stardust'
p309
ssS'3RXkboS74UYzN14xTqzPyY'
p310
(dp311
g3
S''
p312
sg5
I1
sg6
S'https://open.spotify.com/track/3RXkboS74UYzN14xTqzPyY'
p313
sg8
g312
ssS'00vk0sEfb6mr2ehwSw0Uhn'
p314
(dp315
g3
S'Imany'
p316
sg5
I35
sg6
S'https://open.spotify.com/track/00vk0sEfb6mr2ehwSw0Uhn'
p317
sg8
S"Don't Be So Shy - Filatov & Karas Remix"
p318
ssS'3ZsbTIruDt0rv8euAdRU2i'
p319
(dp320
g3
S'Juno'
p321
sg5
I1
sg6
S'https://open.spotify.com/track/3ZsbTIruDt0rv8euAdRU2i'
p322
sg8
S'Grace Kelly'
p323
ssS'4JMrbXB7S0fKOJ5cFru7mN'
p324
(dp325
g3
S'Yksi Totuus'
p326
sg5
I5
sg6
S'https://open.spotify.com/track/4JMrbXB7S0fKOJ5cFru7mN'
p327
sg8
S'Mit\xc3\xa4p\xc3\xa4 t\xc3\xa4ss\xc3\xa4'
p328
ssS'76mLl5OS5rrsCM51UkcxGi'
p329
(dp330
g3
S'Hesa\xc3\x84ij\xc3\xa4'
p331
sg5
I1
sg6
S'https://open.spotify.com/track/76mLl5OS5rrsCM51UkcxGi'
p332
sg8
S'V\xc3\xa4syneempi ku ennen lomaa'
p333
ssS'5UNK9WOIrLsFjKFgBcWv2o'
p334
(dp335
g3
S'Haloo Helsinki!'
p336
sg5
I28
sg6
S'https://open.spotify.com/track/5UNK9WOIrLsFjKFgBcWv2o'
p337
sg8
S'Rakasta mua nyt'
p338
ssS'000xQL6tZNLJzIrtIgxqSl'
p339
(dp340
g3
S'ZAYN'
p341
sg5
I3
sg6
S'https://open.spotify.com/track/000xQL6tZNLJzIrtIgxqSl'
p342
sg8
S'Still Got Time'
p343
ssS'1tO6Yghya963IUsIxZyIXV'
p344
(dp345
g3
S'Br\xc3\xa4di'
p346
sg5
I5
sg6
S'https://open.spotify.com/track/1tO6Yghya963IUsIxZyIXV'
p347
sg8
S'Westside Story'
p348
ssS'1D3ODoXHBLpdxolZRHWV1j'
p349
(dp350
g3
S'Jonas Blue'
p351
sg5
I8
sg6
S'https://open.spotify.com/track/1D3ODoXHBLpdxolZRHWV1j'
p352
sg8
S'By Your Side'
p353
ssS'1CKd1PnqfYx0H12V9MSaIY'
p354
(dp355
g3
S'Zedd'
p356
sg5
I9
sg6
S'https://open.spotify.com/track/1CKd1PnqfYx0H12V9MSaIY'
p357
sg8
S'Get Low (with Liam Payne)'
p358
ssS'4ZxTm3KI4jDy7gNhbp8avh'
p359
(dp360
g3
S'JVG'
p361
sg5
I7
sg6
S'https://open.spotify.com/track/4ZxTm3KI4jDy7gNhbp8avh'
p362
sg8
S'Kruunu tikitt\xc3\xa4\xc3\xa4 (feat. Tippa-T)'
p363
ssS'5c4tB0saSkNHX5CyDosuF7'
p364
(dp365
g3
S'Burak Yeter'
p366
sg5
I2
sg6
S'https://open.spotify.com/track/5c4tB0saSkNHX5CyDosuF7'
p367
sg8
S'Tuesday'
p368
ssS'4Cei5nHyLhoQX5Siue4coV'
p369
(dp370
g3
S'Laura Voutilainen'
p371
sg5
I4
sg6
S'https://open.spotify.com/track/4Cei5nHyLhoQX5Siue4coV'
p372
sg8
S'Milloin n\xc3\xa4\xc3\xa4n sut uudestaan (Vain el\xc3\xa4m\xc3\xa4\xc3\xa4 kausi 6)'
p373
ssS'6oWx00So8wCAopjyZ41F76'
p374
(dp375
g3
S'Evelina'
p376
sg5
I37
sg6
S'https://open.spotify.com/track/6oWx00So8wCAopjyZ41F76'
p377
sg8
S'Honey'
p378
ssS'1OmwCW3wffqU4DNwMAW8qs'
p379
(dp380
g3
S'Ellinoora'
p381
sg5
I42
sg6
S'https://open.spotify.com/track/1OmwCW3wffqU4DNwMAW8qs'
p382
sg8
S'Elefantin paino'
p383
ssS'5Z01UMMf7V1o0MzF86s6WJ'
p384
(dp385
g3
S'Eminem'
p386
sg5
I36
sg6
S'https://open.spotify.com/track/5Z01UMMf7V1o0MzF86s6WJ'
p387
sg8
S'Lose Yourself - Soundtrack Version'
p388
ssS'6Ykrab9ej1W5QoMhjQAjbO'
p389
(dp390
g3
S'Teflon Brothers'
p391
sg5
I2
sg6
S'https://open.spotify.com/track/6Ykrab9ej1W5QoMhjQAjbO'
p392
sg8
S'Tukholman Syndrooma'
p393
ssS'3OExxdzmv1Smx98la8t5iJ'
p394
(dp395
g3
S'Toni Wirtanen'
p396
sg5
I3
sg6
S'https://open.spotify.com/track/3OExxdzmv1Smx98la8t5iJ'
p397
sg8
S'Soita mua (S&M) [Vain el\xc3\xa4m\xc3\xa4\xc3\xa4 kausi 7]'
p398
ssS'5CtI0qwDJkDQGwXD1H1cLb'
p399
(dp400
g3
S'Luis Fonsi'
p401
sg5
I26
sg6
S'https://open.spotify.com/track/5CtI0qwDJkDQGwXD1H1cLb'
p402
sg8
S'Despacito - Remix'
p403
ssS'154nYFL0xupfClb4OFwxks'
p404
(dp405
g3
S'Mikael Gabriel'
p406
sg5
I6
sg6
S'https://open.spotify.com/track/154nYFL0xupfClb4OFwxks'
p407
sg8
S'Rullaan'
p408
ssS'3QqsEc7mv1Kq9aWNpQgHsU'
p409
(dp410
g3
S'Katri Helena'
p411
sg5
I1
sg6
S'https://open.spotify.com/track/3QqsEc7mv1Kq9aWNpQgHsU'
p412
sg8
S'Joulumaa'
p413
ssS'24Gr6kebQyzpAmFcv6MymT'
p414
(dp415
g3
S'Pasa'
p416
sg5
I1
sg6
S'https://open.spotify.com/track/24Gr6kebQyzpAmFcv6MymT'
p417
sg8
S'J\xc3\xa4\xc3\xa4 viel\xc3\xa4 Helsinkiin'
p418
ssS'3rvEwBi1mFFHqCnkrGmnWp'
p419
(dp420
g3
S'Robin Schulz'
p421
sg5
I1
sg6
S'https://open.spotify.com/track/3rvEwBi1mFFHqCnkrGmnWp'
p422
sg8
S'Unforgettable'
p423
ssS'0Nhu3zSYbEz32IYiobV75e'
p424
(dp425
g3
S'Halsey'
p426
sg5
I10
sg6
S'https://open.spotify.com/track/0Nhu3zSYbEz32IYiobV75e'
p427
sg8
S'Now Or Never'
p428
ssS'0IRdQLPFtXfF8eicTt8QWw'
p429
(dp430
g3
S'Jenni Vartiainen'
p431
sg5
I4
sg6
S'https://open.spotify.com/track/0IRdQLPFtXfF8eicTt8QWw'
p432
sg8
S'Oot t\xc3\xa4ydellinen (Vain el\xc3\xa4m\xc3\xa4\xc3\xa4 kausi 7)'
p433
ssS'3zJw3rugfpVrmBeDDnUYzy'
p434
(dp435
g3
S'John Lennon'
p436
sg5
I1
sg6
S'https://open.spotify.com/track/3zJw3rugfpVrmBeDDnUYzy'
p437
sg8
S'Happy Xmas (War Is Over) - 2010 Digital Remaster'
p438
ssS'09KKJ1PjcOL9qdZ3xv3CwW'
p439
(dp440
g3
S'Titta'
p441
sg5
I2
sg6
S'https://open.spotify.com/track/09KKJ1PjcOL9qdZ3xv3CwW'
p442
sg8
S'M\xc3\xa4 tii\xc3\xa4n et m\xc3\xa4 saan'
p443
ssS'1a5Yu5L18qNxVhXx38njON'
p444
(dp445
g3
S'Alok'
p446
sg5
I21
sg6
S'https://open.spotify.com/track/1a5Yu5L18qNxVhXx38njON'
p447
sg8
S'Hear Me Now'
p448
ssS'7wGoVu4Dady5GV0Sv4UIsx'
p449
(dp450
g3
S'Post Malone'
p451
sg5
I1
sg6
S'https://open.spotify.com/track/7wGoVu4Dady5GV0Sv4UIsx'
p452
sg8
S'rockstar'
p453
ssS'1Eck97uRMlprKOOJN9oO1E'
p454
(dp455
g3
S'G-Eazy'
p456
sg5
I18
sg6
S'https://open.spotify.com/track/1Eck97uRMlprKOOJN9oO1E'
p457
sg8
S'Good Life (with G-Eazy & Kehlani)'
p458
ssS'2ekn2ttSfGqwhhate0LSR0'
p459
(dp460
g3
S'Dua Lipa'
p461
sg5
I17
sg6
S'https://open.spotify.com/track/2ekn2ttSfGqwhhate0LSR0'
p462
sg8
S'New Rules'
p463
ssS'2XJWjh3lv33PaQOtH212qi'
p464
(dp465
g3
S'Nelli Matula'
p466
sg5
I17
sg6
S'https://open.spotify.com/track/2XJWjh3lv33PaQOtH212qi'
p467
sg8
S'Lemmikki'
p468
ssS'5WEqjIUHkwZ5h3DSE7F9bM'
p469
(dp470
g3
S'Avicii'
p471
sg5
I1
sg6
S'https://open.spotify.com/track/5WEqjIUHkwZ5h3DSE7F9bM'
p472
sg8
S'Friend Of Mine (feat. Vargas & Lagola)'
p473
ssS'3Wwt9idmoCh4dCgr1qaN30'
p474
(dp475
g3
S'Pianomies'
p476
sg5
I2
sg6
S'https://open.spotify.com/track/3Wwt9idmoCh4dCgr1qaN30'
p477
sg8
S'Viestei'
p478
ssS'56NBkheBYuNkSXvULjW2im'
p479
(dp480
g3
S'Jannika B'
p481
sg5
I1
sg6
S'https://open.spotify.com/track/56NBkheBYuNkSXvULjW2im'
p482
sg8
S'Sudenhetkell\xc3\xa4'
p483
ssS'1sCxVKWImDZSZKvG0U9B23'
p484
(dp485
g3
S'Selena Gomez'
p486
sg5
I12
sg6
S'https://open.spotify.com/track/1sCxVKWImDZSZKvG0U9B23'
p487
sg8
S'Bad Liar'
p488
ssS'6jmngk8Fwup05JZ6kgXEGX'
p489
(dp490
g3
S'Imagine Dragons'
p491
sg5
I1
sg6
S'https://open.spotify.com/track/6jmngk8Fwup05JZ6kgXEGX'
p492
sg8
S'Walking The Wire'
p493
ssS'1gnQqNr2cml4LrLSViZTH8'
p494
(dp495
g3
S'Karri Koira'
p496
sg5
I1
sg6
S'https://open.spotify.com/track/1gnQqNr2cml4LrLSViZTH8'
p497
sg8
S'P\xc3\xa4\xc3\xa4st\xc3\xa4 Mut Sis\xc3\xa4\xc3\xa4n'
p498
ssS'2nUJvBO87SkxCViQsLc9Zr'
p499
(dp500
g3
S'Big Shaq'
p501
sg5
I1
sg6
S'https://open.spotify.com/track/2nUJvBO87SkxCViQsLc9Zr'
p502
sg8
S"Man's Not Hot"
p503
ssS'2uSLx5uwRIhiA3sJJraNqX'
p504
(dp505
g3
S'Maroon 5'
p506
sg5
I1
sg6
S'https://open.spotify.com/track/2uSLx5uwRIhiA3sJJraNqX'
p507
sg8
S'Help Me Out (with Julia Michaels)'
p508
ssS'7oVEtyuv9NBmnytsCIsY5I'
p509
(dp510
g3
S'Linkin Park'
p511
sg5
I1
sg6
S'https://open.spotify.com/track/7oVEtyuv9NBmnytsCIsY5I'
p512
sg8
S'BURN IT DOWN'
p513
ssS'0ADG9OgdVTL7fgREP75BrZ'
p514
(dp515
g3
S'Zara Larsson'
p516
sg5
I6
sg6
S'https://open.spotify.com/track/0ADG9OgdVTL7fgREP75BrZ'
p517
sg8
S"Ain't My Fault"
p518
ssS'5DgopOv9HxXSZ3JZdthMei'
p519
(dp520
g3
S'Paleface'
p521
sg5
I1
sg6
S'https://open.spotify.com/track/5DgopOv9HxXSZ3JZdthMei'
p522
sg8
S'Eteenp\xc3\xa4in'
p523
ssS'0E7IEEODbRcopBn7sGJuor'
p524
(dp525
g3
S'Sub Focus'
p526
sg5
I1
sg6
S'https://open.spotify.com/track/0E7IEEODbRcopBn7sGJuor'
p527
sg8
S'Don\xe2\x80\x99t You Feel It'
p528
ssS'4VrWlk8IQxevMvERoX08iC'
p529
(dp530
g3
S'Sia'
p531
sg5
I1
sg6
S'https://open.spotify.com/track/4VrWlk8IQxevMvERoX08iC'
p532
sg8
S'Chandelier'
p533
ssS'2gIOVl7sKIJ3WeHVsTy1jd'
p534
(dp535
g3
S'Antti Tuisku'
p536
sg5
I4
sg6
S'https://open.spotify.com/track/2gIOVl7sKIJ3WeHVsTy1jd'
p537
sg8
S'Aamukuuteen (feat. Erin)'
p538
ssS'7KXjTSCq5nL1LoYtL7XAwS'
p539
(dp540
g3
S'Kendrick Lamar'
p541
sg5
I28
sg6
S'https://open.spotify.com/track/7KXjTSCq5nL1LoYtL7XAwS'
p542
sg8
S'HUMBLE.'
p543
ssS'4hiUYb2nb6NlfTP9CD38Pe'
p544
(dp545
g3
S'Ti\xc3\xabsto'
p546
sg5
I2
sg6
S'https://open.spotify.com/track/4hiUYb2nb6NlfTP9CD38Pe'
p547
sg8
S'On My Way'
p548
ssS'3TRFq09DUgYj1mug6RRqJW'
p549
(dp550
g3
S'Luke Christopher'
p551
sg5
I5
sg6
S'https://open.spotify.com/track/3TRFq09DUgYj1mug6RRqJW'
p552
sg8
S'Lot to Learn'
p553
ssS'6tjituizSxwSmBB5vtgHZE'
p554
(dp555
g3
S'Michael Bubl\xc3\xa9'
p556
sg5
I1
sg6
S'https://open.spotify.com/track/6tjituizSxwSmBB5vtgHZE'
p557
sg8
S'Holly Jolly Christmas'
p558
ssS'76De7yXuaTyG5ahWkEyNNb'
p559
(dp560
g3
S'TCT'
p561
sg5
I2
sg6
S'https://open.spotify.com/track/76De7yXuaTyG5ahWkEyNNb'
p562
sg8
S'Rodeo'
p563
ssS'1rIKgCH4H52lrvDcz50hS8'
p564
(dp565
g3
S'Zara Larsson'
p566
sg5
I2
sg6
S'https://open.spotify.com/track/1rIKgCH4H52lrvDcz50hS8'
p567
sg8
S'Lush Life'
p568
ssS'6j6DhM5boyLoH5kNBwvPK6'
p569
(dp570
g3
S'JVG'
p571
sg5
I15
sg6
S'https://open.spotify.com/track/6j6DhM5boyLoH5kNBwvPK6'
p572
sg8
S'Tuulisii - feat. Pete Parkkonen'
p573
ssS'4U9arGcc4ATa7shChhLQP0'
p574
(dp575
g3
S'Thirty Seconds To Mars'
p576
sg5
I1
sg6
S'https://open.spotify.com/track/4U9arGcc4ATa7shChhLQP0'
p577
sg8
S'Walk On Water'
p578
ssS'2PzMxRnJlucpLcvq0pBtWz'
p579
(dp580
g3
S'Elias Kaskinen & P\xc3\xa4iv\xc3\xa4n Sankarit'
p581
sg5
I8
sg6
S'https://open.spotify.com/track/2PzMxRnJlucpLcvq0pBtWz'
p582
sg8
S'Tauti'
p583
ssS'7zEkAyy7OKqFnA2aXrkMoR'
p584
(dp585
g3
S'Uniikki'
p586
sg5
I1
sg6
S'https://open.spotify.com/track/7zEkAyy7OKqFnA2aXrkMoR'
p587
sg8
S'Polttarit'
p588
ssS'7pstxLUhvsJC3M4TxHe2aI'
p589
(dp590
g3
S'Ti\xc3\xabsto'
p591
sg5
I2
sg6
S'https://open.spotify.com/track/7pstxLUhvsJC3M4TxHe2aI'
p592
sg8
S'Carry You Home'
p593
ssS'6zrnomJHp4E8pmh9weSY4H'
p594
(dp595
g3
S'Toni Wirtanen'
p596
sg5
I5
sg6
S'https://open.spotify.com/track/6zrnomJHp4E8pmh9weSY4H'
p597
sg8
S'Fiiliksiss\xc3\xa4 (Vain el\xc3\xa4m\xc3\xa4\xc3\xa4 kausi 7)'
p598
ssS'4rino0wsmUcK36Ro4CCrke'
p599
(dp600
g3
S'Basshunter'
p601
sg5
I1
sg6
S'https://open.spotify.com/track/4rino0wsmUcK36Ro4CCrke'
p602
sg8
S'Boten Anna - Radio edit'
p603
ssS'0xPaZrF25ltzvz1a2Pm5DQ'
p604
(dp605
g3
S'Michael Bubl\xc3\xa9'
p606
sg5
I1
sg6
S'https://open.spotify.com/track/0xPaZrF25ltzvz1a2Pm5DQ'
p607
sg8
S'All I Want For Christmas Is You'
p608
ssS'6bUuLzMKKPSKdExNZ5bx7m'
p609
(dp610
g3
S'Lord Est'
p611
sg5
I5
sg6
S'https://open.spotify.com/track/6bUuLzMKKPSKdExNZ5bx7m'
p612
sg8
S'Is\xc3\xa4 Tulee'
p613
ssS'2lWemmr2I3dFYTRgsq16oC'
p614
(dp615
g3
S'PastoriPike'
p616
sg5
I1
sg6
S'https://open.spotify.com/track/2lWemmr2I3dFYTRgsq16oC'
p617
sg8
S'Musta Vy\xc3\xb6'
p618
ssS'7iDxZ5Cd0Yg08d4fI5WVtG'
p619
(dp620
g3
S'Calvin Harris'
p621
sg5
I1
sg6
S'https://open.spotify.com/track/7iDxZ5Cd0Yg08d4fI5WVtG'
p622
sg8
S'Skrt On Me'
p623
ssS'1gou2U6ZcLKXLBC3MYVtEu'
p624
(dp625
g3
S'Arttu Lindeman'
p626
sg5
I26
sg6
S'https://open.spotify.com/track/1gou2U6ZcLKXLBC3MYVtEu'
p627
sg8
S'L\xc3\xa4ikkyy'
p628
ssS'75ZvA4QfFiZvzhj2xkaWAh'
p629
(dp630
g3
S'Post Malone'
p631
sg5
I1
sg6
S'https://open.spotify.com/track/75ZvA4QfFiZvzhj2xkaWAh'
p632
sg8
S'I Fall Apart'
p633
ssS'5yDuixmCBMLPzz9tuH4vE0'
p634
(dp635
g3
S'Cheek'
p636
sg5
I1
sg6
S'https://open.spotify.com/track/5yDuixmCBMLPzz9tuH4vE0'
p637
sg8
S'Malja (Vain el\xc3\xa4m\xc3\xa4\xc3\xa4 kausi 7)'
p638
ssS'57p8CBvPOxrvyCbn6ttl5r'
p639
(dp640
g3
S'Skrillex'
p641
sg5
I8
sg6
S'https://open.spotify.com/track/57p8CBvPOxrvyCbn6ttl5r'
p642
sg8
S'Would You Ever'
p643
ssS'0CcQNd8CINkwQfe1RDtGV6'
p644
(dp645
g3
S'Imagine Dragons'
p646
sg5
I33
sg6
S'https://open.spotify.com/track/0CcQNd8CINkwQfe1RDtGV6'
p647
sg8
S'Believer'
p648
ssS'7oolFzHipTMg2nL7shhdz2'
p649
(dp650
g3
S'Ed Sheeran'
p651
sg5
I4
sg6
S'https://open.spotify.com/track/7oolFzHipTMg2nL7shhdz2'
p652
sg8
S'Eraser'
p653
ssS'4tWsSgINbFWDOf6mhEhR8l'
p654
(dp655
g3
S'Janne Ord\xc3\xa9n'
p656
sg5
I10
sg6
S'https://open.spotify.com/track/4tWsSgINbFWDOf6mhEhR8l'
p657
sg8
S'L\xc3\xa4\xc3\xa4kitys kunnossa'
p658
ssS'6Ll3qUTssdGWMxbwhMud2N'
p659
(dp660
g3
S'Nick Jonas'
p661
sg5
I1
sg6
S'https://open.spotify.com/track/6Ll3qUTssdGWMxbwhMud2N'
p662
sg8
S'Find You'
p663
ssS'6BaCraQ9xeLYg4Sb9TBT2X'
p664
(dp665
g3
S'Calvin Harris'
p666
sg5
I1
sg6
S'https://open.spotify.com/track/6BaCraQ9xeLYg4Sb9TBT2X'
p667
sg8
S'Feels'
p668
ssS'3B7udSGy2PfgoCniMSb523'
p669
(dp670
g3
S'Ed Sheeran'
p671
sg5
I3
sg6
S'https://open.spotify.com/track/3B7udSGy2PfgoCniMSb523'
p672
sg8
S'I See Fire'
p673
ssS'3NdDpSvN911VPGivFlV5d0'
p674
(dp675
g3
S'ZAYN'
p676
sg5
I30
sg6
S'https://open.spotify.com/track/3NdDpSvN911VPGivFlV5d0'
p677
sg8
S'I Don\xe2\x80\x99t Wanna Live Forever (Fifty Shades Darker) - From Fifty Shades Darker (Original Motion Picture Soundtrack)'
p678
ssS'0cbQXCWA8A17cZ9gm158Pz'
p679
(dp680
g3
S'Rhys'
p681
sg5
I1
sg6
S'https://open.spotify.com/track/0cbQXCWA8A17cZ9gm158Pz'
p682
sg8
S'Last Dance'
p683
ssS'1WQ7vQzj05YlBPrzrL4lJD'
p684
(dp685
g3
S'Keko Salata'
p686
sg5
I25
sg6
S'https://open.spotify.com/track/1WQ7vQzj05YlBPrzrL4lJD'
p687
sg8
S'Pari kilometri\xc3\xa4'
p688
ssS'5N73r5A7qPnaketbz04qqr'
p689
(dp690
g3
S'MIROxNIKI'
p691
sg5
I1
sg6
S'https://open.spotify.com/track/5N73r5A7qPnaketbz04qqr'
p692
sg8
S'Et Saa T\xc3\xa4t\xc3\xa4 Uusiks'
p693
ssS'0e3wP9rhYQ4Lgmxdh6ra9Y'
p694
(dp695
g3
S'SAARA'
p696
sg5
I1
sg6
S'https://open.spotify.com/track/0e3wP9rhYQ4Lgmxdh6ra9Y'
p697
sg8
S'All The Love'
p698
ssS'3J992706uVeyHjBhmCKEbu'
p699
(dp700
g3
S'Mikko Pohjola'
p701
sg5
I9
sg6
S'https://open.spotify.com/track/3J992706uVeyHjBhmCKEbu'
p702
sg8
S'On Niin Paljon Mit\xc3\xa4 Menett\xc3\xa4\xc3\xa4'
p703
ssS'2Xqd0wUttjueBfdcltADOv'
p704
(dp705
g3
S'G-Eazy'
p706
sg5
I1
sg6
S'https://open.spotify.com/track/2Xqd0wUttjueBfdcltADOv'
p707
sg8
S'No Limit'
p708
ssS'7FLYns7CbHD7HIeX9A5Bcl'
p709
(dp710
g3
S'Stepa'
p711
sg5
I1
sg6
S'https://open.spotify.com/track/7FLYns7CbHD7HIeX9A5Bcl'
p712
sg8
S'Oon 3'
p713
ssS'5i9SthFkNMyf7dgEYSBUAW'
p714
(dp715
g3
S'Ruma'
p716
sg5
I4
sg6
S'https://open.spotify.com/track/5i9SthFkNMyf7dgEYSBUAW'
p717
sg8
S'Ole hyv\xc3\xa4!'
p718
ssS'0gb1J5UrTpzaU1s3nupgCd'
p719
(dp720
g3
S'Galantis'
p721
sg5
I2
sg6
S'https://open.spotify.com/track/0gb1J5UrTpzaU1s3nupgCd'
p722
sg8
S'No Money'
p723
ssS'2eMwDehkIC1j68U6FA3Eiq'
p724
(dp725
g3
S'Lil Uzi Vert'
p726
sg5
I21
sg6
S'https://open.spotify.com/track/2eMwDehkIC1j68U6FA3Eiq'
p727
sg8
S'XO TOUR Llif3'
p728
ssS'7iaxKCLCuJznUeNx7VZzAU'
p729
(dp730
g3
S'Antti Tuisku'
p731
sg5
I4
sg6
S'https://open.spotify.com/track/7iaxKCLCuJznUeNx7VZzAU'
p732
sg8
S'Sw\xc3\xa4g (feat. JVG)'
p733
ssS'2KklXplRtxMsBYo474Es0w'
p734
(dp735
g3
S'Ofenbach'
p736
sg5
I3
sg6
S'https://open.spotify.com/track/2KklXplRtxMsBYo474Es0w'
p737
sg8
S'Be Mine'
p738
ssS'6SHbtHO2BVG9JoGrtHkvgW'
p739
(dp740
g3
S'Nikke Ankara'
p741
sg5
I11
sg6
S'https://open.spotify.com/track/6SHbtHO2BVG9JoGrtHkvgW'
p742
sg8
S'V\xc3\xa4rifilmi'
p743
ssS'7Hz6LLOVxrojLPIHJJ1S0E'
p744
(dp745
g3
S'Sam Smith'
p746
sg5
I1
sg6
S'https://open.spotify.com/track/7Hz6LLOVxrojLPIHJJ1S0E'
p747
sg8
S'Have Yourself A Merry Little Christmas'
p748
ssS'3CRDbSIZ4r5MsZ0YwxuEkn'
p749
(dp750
g3
S'Twenty One Pilots'
p751
sg5
I16
sg6
S'https://open.spotify.com/track/3CRDbSIZ4r5MsZ0YwxuEkn'
p752
sg8
S'Stressed Out'
p753
ssS'2OiMulemMHdxQpoL8X2rDD'
p754
(dp755
g3
S'SANNI'
p756
sg5
I14
sg6
S'https://open.spotify.com/track/2OiMulemMHdxQpoL8X2rDD'
p757
sg8
S'Ett\xc3\xa4 mit\xc3\xa4h\xc3\xa4n vittua'
p758
ssS'7kiD0umlnYAPKx11jZMDQT'
p759
(dp760
g3
S'Likanen Etel\xc3\xa4'
p761
sg5
I3
sg6
S'https://open.spotify.com/track/7kiD0umlnYAPKx11jZMDQT'
p762
sg8
S'T\xc3\xa4\xc3\xa4 on se likanen'
p763
ssS'6A3GYNLdhuM2ir5YoxDCfb'
p764
(dp765
g3
S'Irina'
p766
sg5
I5
sg6
S'https://open.spotify.com/track/6A3GYNLdhuM2ir5YoxDCfb'
p767
sg8
S'Sua varten (Vain el\xc3\xa4m\xc3\xa4\xc3\xa4 kausi 6)'
p768
ssS'6mICuAdrwEjh6Y6lroV2Kg'
p769
(dp770
g3
S'Shakira'
p771
sg5
I13
sg6
S'https://open.spotify.com/track/6mICuAdrwEjh6Y6lroV2Kg'
p772
sg8
S'Chantaje'
p773
ssS'0IAJXsm7IstxQGfmcfDEBz'
p774
(dp775
g3
S'Sairas T'
p776
sg5
I3
sg6
S'https://open.spotify.com/track/0IAJXsm7IstxQGfmcfDEBz'
p777
sg8
S'Valkoinen k\xc3\xa4\xc3\xa4rme'
p778
ssS'3gWu8y0TKCIdy2mpTqVnTl'
p779
(dp780
g3
S'NF'
p781
sg5
I1
sg6
S'https://open.spotify.com/track/3gWu8y0TKCIdy2mpTqVnTl'
p782
sg8
S'Let You Down'
p783
ssS'3XJThMN1fH8PA56PHLk7R9'
p784
(dp785
g3
S'Laura Voutilainen'
p786
sg5
I1
sg6
S'https://open.spotify.com/track/3XJThMN1fH8PA56PHLk7R9'
p787
sg8
S'Kun joulupukki suukon sai'
p788
ssS'6o6d9XguDF6aJYN6KzLU0e'
p789
(dp790
g3
S'Nikke Ankara'
p791
sg5
I18
sg6
S'https://open.spotify.com/track/6o6d9XguDF6aJYN6KzLU0e'
p792
sg8
S'Ettei Nyt Vaan Sattuis Mit\xc3\xa4\xc3\xa4n'
p793
ssS'7gHs73wELdeycvS48JfIos'
p794
(dp795
g3
S'Alan Walker'
p796
sg5
I42
sg6
S'https://open.spotify.com/track/7gHs73wELdeycvS48JfIos'
p797
sg8
S'Faded'
p798
ssS'5XwG6udF6m9NmjEKV8nBio'
p799
(dp800
g3
S'Juha Tapio'
p801
sg5
I1
sg6
S'https://open.spotify.com/track/5XwG6udF6m9NmjEKV8nBio'
p802
sg8
S'Duran Duran (Vain el\xc3\xa4m\xc3\xa4\xc3\xa4 kausi 7)'
p803
ssS'6gqmeX5tg8pDHJN2n4Ha3d'
p804
(dp805
g3
S'JVG'
p806
sg5
I1
sg6
S'https://open.spotify.com/track/6gqmeX5tg8pDHJN2n4Ha3d'
p807
sg8
S'Mauton jasso'
p808
ssS'1CmjLmIfxzpsZJl2SPFaKs'
p809
(dp810
g3
S'SANNI'
p811
sg5
I1
sg6
S'https://open.spotify.com/track/1CmjLmIfxzpsZJl2SPFaKs'
p812
sg8
S'Min\xc3\xa4 sinua vaan (Vain el\xc3\xa4m\xc3\xa4\xc3\xa4 kausi 7)'
p813
ssS'6LUOMjoORvAkdhBYvESO46'
p814
(dp815
g3
S'Sia'
p816
sg5
I20
sg6
S'https://open.spotify.com/track/6LUOMjoORvAkdhBYvESO46'
p817
sg8
S'Move Your Body - Alan Walker Remix'
p818
ssS'3seNictp7GWitSNKlujwnY'
p819
(dp820
g3
S'Evelina'
p821
sg5
I6
sg6
S'https://open.spotify.com/track/3seNictp7GWitSNKlujwnY'
p822
sg8
S'Tornado'
p823
ssS'00lNx0OcTJrS3MKHcB80HY'
p824
(dp825
g3
S'Jax Jones'
p826
sg5
I20
sg6
S'https://open.spotify.com/track/00lNx0OcTJrS3MKHcB80HY'
p827
sg8
S"You Don't Know Me - Radio Edit"
p828
ssS'4kloZeUMhzOQu5F5bBJVHS'
p829
(dp830
g3
S'Profeetat'
p831
sg5
I34
sg6
S'https://open.spotify.com/track/4kloZeUMhzOQu5F5bBJVHS'
p832
sg8
S'Yht\xc3\xa4ccii'
p833
ssS'219H4j4Ao4lmTWSO0DJUOp'
p834
(dp835
g3
S'Reino Nordin'
p836
sg5
I3
sg6
S'https://open.spotify.com/track/219H4j4Ao4lmTWSO0DJUOp'
p837
sg8
S'Kosketa'
p838
ssS'0MEuAbpzkCXjFu2ey5vKaD'
p839
(dp840
g3
S'Mikael Gabriel'
p841
sg5
I37
sg6
S'https://open.spotify.com/track/0MEuAbpzkCXjFu2ey5vKaD'
p842
sg8
S'Liikaa Sussa Kii'
p843
ssS'6t2ubAB4iSYOuIpRAOGd4t'
p844
(dp845
g3
S'Flo Rida'
p846
sg5
I11
sg6
S'https://open.spotify.com/track/6t2ubAB4iSYOuIpRAOGd4t'
p847
sg8
S'Cake'
p848
ssS'4nDfc6F2uVcc6wdG7kBzWO'
p849
(dp850
g3
S'Nick Jonas'
p851
sg5
I3
sg6
S'https://open.spotify.com/track/4nDfc6F2uVcc6wdG7kBzWO'
p852
sg8
S'Bom Bidi Bom - From Fifty Shades Darker (Original Motion Picture Soundtrack)'
p853
ssS'1QKbpfbXQP1NY4xy6wpxJA'
p854
(dp855
g3
S'Teflon Brothers'
p856
sg5
I21
sg6
S'https://open.spotify.com/track/1QKbpfbXQP1NY4xy6wpxJA'
p857
sg8
S'Sit Menn\xc3\xa4\xc3\xa4'
p858
ssS'1gWJ4zaBSkyICr7wTEygS9'
p859
(dp860
g3
S'Suvi Ter\xc3\xa4sniska'
p861
sg5
I1
sg6
S'https://open.spotify.com/track/1gWJ4zaBSkyICr7wTEygS9'
p862
sg8
S'Hei Mummo'
p863
ssS'0fg8CqpjdojMyXLNzM2PaJ'
p864
(dp865
g3
S'Major Lazer'
p866
sg5
I13
sg6
S'https://open.spotify.com/track/0fg8CqpjdojMyXLNzM2PaJ'
p867
sg8
S'Run Up (feat. PARTYNEXTDOOR & Nicki Minaj)'
p868
ssS'5xpScO7frkFncHij08H2C8'
p869
(dp870
g3
S'Tungevaag & Raaban'
p871
sg5
I14
sg6
S'https://open.spotify.com/track/5xpScO7frkFncHij08H2C8'
p872
sg8
S'Cold Blood'
p873
ssS'2rsjucDgwo0boCzEXcZZpX'
p874
(dp875
g3
S'Gettomasa'
p876
sg5
I17
sg6
S'https://open.spotify.com/track/2rsjucDgwo0boCzEXcZZpX'
p877
sg8
S'Ent\xc3\xa4 s\xc3\xa4 (feat. Gracias)'
p878
ssS'4hepn3YI9O0zovBQSCUtCf'
p879
(dp880
g3
S'Portion Boys'
p881
sg5
I6
sg6
S'https://open.spotify.com/track/4hepn3YI9O0zovBQSCUtCf'
p882
sg8
S'Intti'
p883
ssS'0mj07aASkf2RYZR1QQ5k7l'
p884
(dp885
g3
S'JVG'
p886
sg5
I26
sg6
S'https://open.spotify.com/track/0mj07aASkf2RYZR1QQ5k7l'
p887
sg8
S'Urheiluhullu'
p888
ssS'3hY80yJLjl2VgYLjn1aLVp'
p889
(dp890
g3
S'Breathe Carolina'
p891
sg5
I1
sg6
S'https://open.spotify.com/track/3hY80yJLjl2VgYLjn1aLVp'
p892
sg8
S'Rhythm Is A Dancer'
p893
ssS'49Eo0N8DP9mt3e6EiaqbxY'
p894
(dp895
g3
S'M\xc3\xa4kki'
p896
sg5
I25
sg6
S'https://open.spotify.com/track/49Eo0N8DP9mt3e6EiaqbxY'
p897
sg8
S'Satamiljoonaa Kertaa'
p898
ssS'6NZVZPUxsElLGfQPTEKMF5'
p899
(dp900
g3
S'SANNI'
p901
sg5
I5
sg6
S'https://open.spotify.com/track/6NZVZPUxsElLGfQPTEKMF5'
p902
sg8
S'Vahinko'
p903
ssS'6dTmB1NHXU3aikDcsbReh5'
p904
(dp905
g3
S'Aurora'
p906
sg5
I3
sg6
S'https://open.spotify.com/track/6dTmB1NHXU3aikDcsbReh5'
p907
sg8
S'S\xc3\xa4 lupasit'
p908
ssS'3Ux92S4PuTNJekC34gSopu'
p909
(dp910
g3
S'Tuuli'
p911
sg5
I7
sg6
S'https://open.spotify.com/track/3Ux92S4PuTNJekC34gSopu'
p912
sg8
S'Solo'
p913
ssS'4xBjsLUSjcx2h7PcRikpQp'
p914
(dp915
g3
S'Camila Cabello'
p916
sg5
I1
sg6
S'https://open.spotify.com/track/4xBjsLUSjcx2h7PcRikpQp'
p917
sg8
S'OMG'
p918
ssS'7wMq5n8mYSKlQIGECKUgTX'
p919
(dp920
g3
S'The Script'
p921
sg5
I3
sg6
S'https://open.spotify.com/track/7wMq5n8mYSKlQIGECKUgTX'
p922
sg8
S'Hall of Fame'
p923
ssS'7GX5flRQZVHRAGd6B4TmDO'
p924
(dp925
g3
S'Lil Uzi Vert'
p926
sg5
I7
sg6
S'https://open.spotify.com/track/7GX5flRQZVHRAGd6B4TmDO'
p927
sg8
S'XO TOUR Llif3'
p928
ssS'4F7A0DXBrmUAkp32uenhZt'
p929
(dp930
g3
S'The Weeknd'
p931
sg5
I5
sg6
S'https://open.spotify.com/track/4F7A0DXBrmUAkp32uenhZt'
p932
sg8
S'Party Monster'
p933
ssS'6KSrm7psP1KvqBRXcD42AS'
p934
(dp935
g3
S'Evelina'
p936
sg5
I18
sg6
S'https://open.spotify.com/track/6KSrm7psP1KvqBRXcD42AS'
p937
sg8
S'Fuulaa'
p938
ssS'3f0pNYrbqBxN9YPvJs9l9P'
p939
(dp940
g3
S'Juha Tapio'
p941
sg5
I4
sg6
S'https://open.spotify.com/track/3f0pNYrbqBxN9YPvJs9l9P'
p942
sg8
S'Suurempaa (Vain el\xc3\xa4m\xc3\xa4\xc3\xa4 kausi 7)'
p943
ssS'7CI9dousrqQ0uf4DSbaaEF'
p944
(dp945
g3
S'Antti Tuisku'
p946
sg5
I16
sg6
S'https://open.spotify.com/track/7CI9dousrqQ0uf4DSbaaEF'
p947
sg8
S'Hanuri (feat. Boyat)'
p948
ssS'6tWsQ6m7PTW3WBJMvgXIyq'
p949
(dp950
g3
S'JVG'
p951
sg5
I39
sg6
S'https://open.spotify.com/track/6tWsQ6m7PTW3WBJMvgXIyq'
p952
sg8
S'Hehkuu'
p953
ssS'2mYKdY7VSTTJM0UDiYQPuo'
p954
(dp955
g3
S'Pimeys'
p956
sg5
I1
sg6
S'https://open.spotify.com/track/2mYKdY7VSTTJM0UDiYQPuo'
p957
sg8
S'Loista kuin t\xc3\xa4hti'
p958
ssS'2pvRMPa6mWTnslh2ndB0do'
p959
(dp960
g3
S'Arttu Lindeman'
p961
sg5
I1
sg6
S'https://open.spotify.com/track/2pvRMPa6mWTnslh2ndB0do'
p962
sg8
S'Lindemafia'
p963
ssS'3HF2E09nlXRlLQO2TJtQJh'
p964
(dp965
g3
S'Ollie'
p966
sg5
I1
sg6
S'https://open.spotify.com/track/3HF2E09nlXRlLQO2TJtQJh'
p967
sg8
S'Haluun Enemm\xc3\xa4n'
p968
ssS'4ZI4YGIBPwburXxUgGZiP5'
p969
(dp970
g3
S'Tippa-T'
p971
sg5
I3
sg6
S'https://open.spotify.com/track/4ZI4YGIBPwburXxUgGZiP5'
p972
sg8
S'Isol kirkol'
p973
ssS'7BKLCZ1jbUBVqRi2FVlTVw'
p974
(dp975
g3
S'The Chainsmokers'
p976
sg5
I23
sg6
S'https://open.spotify.com/track/7BKLCZ1jbUBVqRi2FVlTVw'
p977
sg8
S'Closer'
p978
ssS'6yr8GiTHWvFfi4o6Q5ebdT'
p979
(dp980
g3
S'Eminem'
p981
sg5
I17
sg6
S'https://open.spotify.com/track/6yr8GiTHWvFfi4o6Q5ebdT'
p982
sg8
S"'Till I Collapse"
p983
ssS'64F7bSuYMryLMef8BSvQw0'
p984
(dp985
g3
S'Miriam Bryant'
p986
sg5
I2
sg6
S'https://open.spotify.com/track/64F7bSuYMryLMef8BSvQw0'
p987
sg8
S'Everything'
p988
ssS'0BqsX3m0ZV4ApRkwTOk5Vj'
p989
(dp990
g3
S'M\xc3\xa4kki'
p991
sg5
I4
sg6
S'https://open.spotify.com/track/0BqsX3m0ZV4ApRkwTOk5Vj'
p992
sg8
S'Zoomaa'
p993
ssS'6grsbjkrl7DN6waueAmNbm'
p994
(dp995
g3
S'James TW'
p996
sg5
I1
sg6
S'https://open.spotify.com/track/6grsbjkrl7DN6waueAmNbm'
p997
sg8
S'Ex'
p998
ssS'2k6qKB2PZjkeZIq7MYIlMP'
p999
(dp1000
g3
S'Antti Tuisku'
p1001
sg5
I1
sg6
S'https://open.spotify.com/track/2k6qKB2PZjkeZIq7MYIlMP'
p1002
sg8
S'Sw\xc3\xa4g (feat. JVG)'
p1003
ssS'3RiPr603aXAoi4GHyXx0uy'
p1004
(dp1005
g3
S'Coldplay'
p1006
sg5
I1
sg6
S'https://open.spotify.com/track/3RiPr603aXAoi4GHyXx0uy'
p1007
sg8
S'Hymn For The Weekend'
p1008
ssS'59URTvzGuY3hayZiWAZf8S'
p1009
(dp1010
g3
S'YOUNGHEARTED'
p1011
sg5
I4
sg6
S'https://open.spotify.com/track/59URTvzGuY3hayZiWAZf8S'
p1012
sg8
S'Hetkeksi'
p1013
ssS'2LTlO3NuNVN70lp2ZbVswF'
p1014
(dp1015
g3
S'Kendrick Lamar'
p1016
sg5
I1
sg6
S'https://open.spotify.com/track/2LTlO3NuNVN70lp2ZbVswF'
p1017
sg8
S'FEEL.'
p1018
ssS'1fSX18iEGGer9TqeMNLW9N'
p1019
(dp1020
g3
S'Arttu Lindeman'
p1021
sg5
I1
sg6
S'https://open.spotify.com/track/1fSX18iEGGer9TqeMNLW9N'
p1022
sg8
S'Hengaillaan t\xc3\xa4\xc3\xa4 y\xc3\xb6'
p1023
ssS'6fJAs9KPgHrN9Fqo0GgWhW'
p1024
(dp1025
g3
S'Stanaj'
p1026
sg5
I10
sg6
S'https://open.spotify.com/track/6fJAs9KPgHrN9Fqo0GgWhW'
p1027
sg8
S'The Way I Love Her'
p1028
ssS'6jA8HL9i4QGzsj6fjoxp8Y'
p1029
(dp1030
g3
S'Martin Garrix'
p1031
sg5
I19
sg6
S'https://open.spotify.com/track/6jA8HL9i4QGzsj6fjoxp8Y'
p1032
sg8
S'There for You'
p1033
ssS'1G0u9V4wCkgcPe2cZF4MOm'
p1034
(dp1035
g3
S'Vesala'
p1036
sg5
I22
sg6
S'https://open.spotify.com/track/1G0u9V4wCkgcPe2cZF4MOm'
p1037
sg8
S'Muitaki ihmisii'
p1038
ssS'4P6tyL5Uom1pIcFtTwO898'
p1039
(dp1040
g3
S'Matoma'
p1041
sg5
I1
sg6
S'https://open.spotify.com/track/4P6tyL5Uom1pIcFtTwO898'
p1042
sg8
S'Girl At Coachella (with Matoma & MAGIC! feat. DRAM)'
p1043
ssS'7zgqtptZvhf8GEmdsM2vp2'
p1044
(dp1045
g3
S'Taylor Swift'
p1046
sg5
I1
sg6
S'https://open.spotify.com/track/7zgqtptZvhf8GEmdsM2vp2'
p1047
sg8
S'...Ready For It?'
p1048
ssS'7g5M2rzDUPoFv4JAZAyJR7'
p1049
(dp1050
g3
S'Nikke Ankara'
p1051
sg5
I34
sg6
S'https://open.spotify.com/track/7g5M2rzDUPoFv4JAZAyJR7'
p1052
sg8
S'Pisamat'
p1053
ssS'0TCrk8O20OTOivfWKyTjbh'
p1054
(dp1055
g3
S'JVG'
p1056
sg5
I7
sg6
S'https://open.spotify.com/track/0TCrk8O20OTOivfWKyTjbh'
p1057
sg8
S'Tappiolla tappiin (feat. M\xc3\xa4rk\xc3\xa4 Simo)'
p1058
ssS'1yxgsra98r3qAtxqiGZPiX'
p1059
(dp1060
g3
S'Travis Scott'
p1061
sg5
I16
sg6
S'https://open.spotify.com/track/1yxgsra98r3qAtxqiGZPiX'
p1062
sg8
S'Butterfly Effect'
p1063
ssS'0SbnLkjHXXtMxgR0tAvi47'
p1064
(dp1065
g3
S'Kasmir'
p1066
sg5
I6
sg6
S'https://open.spotify.com/track/0SbnLkjHXXtMxgR0tAvi47'
p1067
sg8
S'Miami'
p1068
ssS'0Clb9aiXWa0dvVff5aN4VN'
p1069
(dp1070
g3
S'Astrid S'
p1071
sg5
I7
sg6
S'https://open.spotify.com/track/0Clb9aiXWa0dvVff5aN4VN'
p1072
sg8
S'Think Before I Talk'
p1073
ssS'3xXBsjrbG1xQIm1xv1cKOt'
p1074
(dp1075
g3
S'Linkin Park'
p1076
sg5
I1
sg6
S'https://open.spotify.com/track/3xXBsjrbG1xQIm1xv1cKOt'
p1077
sg8
S'One More Light'
p1078
ssS'114JOpARGxBghgmn0wMfAX'
p1079
(dp1080
g3
S'Samson'
p1081
sg5
I10
sg6
S'https://open.spotify.com/track/114JOpARGxBghgmn0wMfAX'
p1082
sg8
S'Itket turhaan'
p1083
ssS'0dk1SSOkUEnU2HF1LnYZDI'
p1084
(dp1085
g3
S'Xuitcasecity'
p1086
sg5
I2
sg6
S'https://open.spotify.com/track/0dk1SSOkUEnU2HF1LnYZDI'
p1087
sg8
S'Bout You'
p1088
ssS'3A7qX2QjDlPnazUsRk5y0M'
p1089
(dp1090
g3
S'David Guetta'
p1091
sg5
I17
sg6
S'https://open.spotify.com/track/3A7qX2QjDlPnazUsRk5y0M'
p1092
sg8
S'2U (feat. Justin Bieber)'
p1093
ssS'0OwX5aROoW1Iip8FV51Efg'
p1094
(dp1095
g3
S'Anne-Marie'
p1096
sg5
I5
sg6
S'https://open.spotify.com/track/0OwX5aROoW1Iip8FV51Efg'
p1097
sg8
S'Alarm'
p1098
ssS'5oAgI7Pzg6vxuKrfapg3Pi'
p1099
(dp1100
g3
S'Martin Garrix'
p1101
sg5
I1
sg6
S'https://open.spotify.com/track/5oAgI7Pzg6vxuKrfapg3Pi'
p1102
sg8
S'Pizza'
p1103
ssS'5s8odFffvmlKcKKNgKly41'
p1104
(dp1105
g3
S'Johanna Kurkela'
p1106
sg5
I6
sg6
S'https://open.spotify.com/track/5s8odFffvmlKcKKNgKly41'
p1107
sg8
S'Rakkauslaulu'
p1108
ssS'5C9DxxhrA4u52a7gxrtOXw'
p1109
(dp1110
g3
S'Pariisin Kev\xc3\xa4t'
p1111
sg5
I1
sg6
S'https://open.spotify.com/track/5C9DxxhrA4u52a7gxrtOXw'
p1112
sg8
S'Hullu'
p1113
ssS'3HdLpzuHPqpf3mHZO6eNdb'
p1114
(dp1115
g3
S'Kube'
p1116
sg5
I42
sg6
S'https://open.spotify.com/track/3HdLpzuHPqpf3mHZO6eNdb'
p1117
sg8
S'Plug'
p1118
ssS'43zv86aLyGvntA50OqzfPb'
p1119
(dp1120
g3
S'Irina'
p1121
sg5
I7
sg6
S'https://open.spotify.com/track/43zv86aLyGvntA50OqzfPb'
p1122
sg8
S'Ihmisen poika (Vain el\xc3\xa4m\xc3\xa4\xc3\xa4 kausi 6)'
p1123
ssS'4qecnRv3ssjtN2HFNhWSco'
p1124
(dp1125
g3
S'Nikke Ankara'
p1126
sg5
I8
sg6
S'https://open.spotify.com/track/4qecnRv3ssjtN2HFNhWSco'
p1127
sg8
S'Kes\xc3\xa4renkaat - Vain El\xc3\xa4m\xc3\xa4\xc3\xa4 Kausi 6'
p1128
ssS'3yrE0biWYqhz4Ar9c2Ta4l'
p1129
(dp1130
g3
S'Profeetat'
p1131
sg5
I3
sg6
S'https://open.spotify.com/track/3yrE0biWYqhz4Ar9c2Ta4l'
p1132
sg8
S'Lohik\xc3\xa4\xc3\xa4rmeet'
p1133
ssS'3HgmWNk2YBRfh4NSdrCce2'
p1134
(dp1135
g3
S'Matt Terry'
p1136
sg5
I1
sg6
S'https://open.spotify.com/track/3HgmWNk2YBRfh4NSdrCce2'
p1137
sg8
S'When Christmas Comes Around'
p1138
ssS'4IWAyPf1KMq7JCyGeCjTeH'
p1139
(dp1140
g3
S'Imagine Dragons'
p1141
sg5
I7
sg6
S'https://open.spotify.com/track/4IWAyPf1KMq7JCyGeCjTeH'
p1142
sg8
S'Whatever It Takes'
p1143
ssS'1AJQ97yAt6xfeF7nQaE1t8'
p1144
(dp1145
g3
S'Imagine Dragons'
p1146
sg5
I1
sg6
S'https://open.spotify.com/track/1AJQ97yAt6xfeF7nQaE1t8'
p1147
sg8
S'Walking The Wire'
p1148
ssS'5U8hKxSaDXB8cVeLFQjvwx'
p1149
(dp1150
g3
S'Eminem'
p1151
sg5
I1
sg6
S'https://open.spotify.com/track/5U8hKxSaDXB8cVeLFQjvwx'
p1152
sg8
S'The Monster'
p1153
ssS'7fwXWKdDNI5IutOMc5OKYw'
p1154
(dp1155
g3
S'J Balvin'
p1156
sg5
I2
sg6
S'https://open.spotify.com/track/7fwXWKdDNI5IutOMc5OKYw'
p1157
sg8
S'Mi Gente (feat. Beyonc\xc3\xa9)'
p1158
ssS'7lQ8MOhq6IN2w8EYcFNSUk'
p1159
(dp1160
g3
S'Eminem'
p1161
sg5
I7
sg6
S'https://open.spotify.com/track/7lQ8MOhq6IN2w8EYcFNSUk'
p1162
sg8
S'Without Me'
p1163
ssS'0dKDwt7DP0uH4XyGaVMtVP'
p1164
(dp1165
g3
S'Walk Off the Earth'
p1166
sg5
I1
sg6
S'https://open.spotify.com/track/0dKDwt7DP0uH4XyGaVMtVP'
p1167
sg8
S'Fire In My Soul'
p1168
ssS'6YZdkObH88npeKrrkb8Ggf'
p1169
(dp1170
g3
S'Enrique Iglesias'
p1171
sg5
I1
sg6
S'https://open.spotify.com/track/6YZdkObH88npeKrrkb8Ggf'
p1172
sg8
S'DUELE EL CORAZON'
p1173
ssS'2gNDbNOsE2b6HkwVxGuNSN'
p1174
(dp1175
g3
S'Vesta'
p1176
sg5
I3
sg6
S'https://open.spotify.com/track/2gNDbNOsE2b6HkwVxGuNSN'
p1177
sg8
S'Sun katu'
p1178
ssS'2S2od3hT7ceytw7d1pTRuE'
p1179
(dp1180
g3
S'Noah Cyrus'
p1181
sg5
I1
sg6
S'https://open.spotify.com/track/2S2od3hT7ceytw7d1pTRuE'
p1182
sg8
S'Again'
p1183
ssS'6nsLzJfvp5OLd4mgqUJkpq'
p1184
(dp1185
g3
S'Avicii'
p1186
sg5
I1
sg6
S'https://open.spotify.com/track/6nsLzJfvp5OLd4mgqUJkpq'
p1187
sg8
S'Waiting For Love'
p1188
ssS'0WCEaydwN65cvwaW8aqptF'
p1189
(dp1190
g3
S'Olivia Holt'
p1191
sg5
I1
sg6
S'https://open.spotify.com/track/0WCEaydwN65cvwaW8aqptF'
p1192
sg8
S'History'
p1193
ssS'5rk8zmau0TJcORjL3fAzi8'
p1194
(dp1195
g3
S'Haloo Helsinki!'
p1196
sg5
I6
sg6
S'https://open.spotify.com/track/5rk8zmau0TJcORjL3fAzi8'
p1197
sg8
S'Saatanan Zen'
p1198
ssS'5FqooxsHc6voBR2vGZMNYS'
p1199
(dp1200
g3
S'Elias Kaskinen'
p1201
sg5
I1
sg6
S'https://open.spotify.com/track/5FqooxsHc6voBR2vGZMNYS'
p1202
sg8
S'Tuli joulu ilotaloon'
p1203
ssS'5t7rDlqL7Ji3BrpOJFKBCr'
p1204
(dp1205
g3
S'Teflon Brothers'
p1206
sg5
I1
sg6
S'https://open.spotify.com/track/5t7rDlqL7Ji3BrpOJFKBCr'
p1207
sg8
S'P\xc3\xa4mpp\xc3\xa4\xc3\xa4'
p1208
ssS'0wyuUpkWLHL02Aes06H9Om'
p1209
(dp1210
g3
S'Benjamin'
p1211
sg5
I1
sg6
S'https://open.spotify.com/track/0wyuUpkWLHL02Aes06H9Om'
p1212
sg8
S'Bad Luck Love'
p1213
ssS'2bjwRfXMk4uRgOD9IBYl9h'
p1214
(dp1215
g3
S'Drake'
p1216
sg5
I7
sg6
S'https://open.spotify.com/track/2bjwRfXMk4uRgOD9IBYl9h'
p1217
sg8
S'Portland'
p1218
ssS'0FuTx2s3YH1ppmtiM6l0zI'
p1219
(dp1220
g3
S'JP Cooper'
p1221
sg5
I6
sg6
S'https://open.spotify.com/track/0FuTx2s3YH1ppmtiM6l0zI'
p1222
sg8
S'September Song'
p1223
ssS'27DYCHLJYBhzhWreoNFRRU'
p1224
(dp1225
g3
S'Diandra'
p1226
sg5
I1
sg6
S'https://open.spotify.com/track/27DYCHLJYBhzhWreoNFRRU'
p1227
sg8
S'Lintu'
p1228
ssS'0Zbbxnx4SGGHoIow4PpISP'
p1229
(dp1230
g3
S'Kygo'
p1231
sg5
I3
sg6
S'https://open.spotify.com/track/0Zbbxnx4SGGHoIow4PpISP'
p1232
sg8
S'Stargazing'
p1233
ssS'0XNhhlDKVRr9FysuqwUYwT'
p1234
(dp1235
g3
S'Irina'
p1236
sg5
I3
sg6
S'https://open.spotify.com/track/0XNhhlDKVRr9FysuqwUYwT'
p1237
sg8
S'Bang Bang (Vain el\xc3\xa4m\xc3\xa4\xc3\xa4 kausi 6)'
p1238
ssS'5GFDrUTLGJix84sNhjCG0g'
p1239
(dp1240
g3
S'Amin\xc3\xa9'
p1241
sg5
I4
sg6
S'https://open.spotify.com/track/5GFDrUTLGJix84sNhjCG0g'
p1242
sg8
S'Caroline'
p1243
ssS'1HTtUBEY3tuw2btgwwI2Ja'
p1244
(dp1245
g3
S'Gucci Mane'
p1246
sg5
I1
sg6
S'https://open.spotify.com/track/1HTtUBEY3tuw2btgwwI2Ja'
p1247
sg8
S'I Get The Bag (feat. Migos)'
p1248
ssS'0azC730Exh71aQlOt9Zj3y'
p1249
(dp1250
g3
S'Calvin Harris'
p1251
sg5
I3
sg6
S'https://open.spotify.com/track/0azC730Exh71aQlOt9Zj3y'
p1252
sg8
S'This Is What You Came For'
p1253
ssS'57Y51hxqMn2j3dosW75R6n'
p1254
(dp1255
g3
S'Robin Bengtsson'
p1256
sg5
I1
sg6
S'https://open.spotify.com/track/57Y51hxqMn2j3dosW75R6n'
p1257
sg8
S'I Can\xc2\xb4t Go On'
p1258
ssS'5QSopEjYDlFtMhkFI8W9C0'
p1259
(dp1260
g3
S'BACALL'
p1261
sg5
I1
sg6
S'https://open.spotify.com/track/5QSopEjYDlFtMhkFI8W9C0'
p1262
sg8
S'Gone Love'
p1263
ssS'2jyjhRf6DVbMPU5zxagN2h'
p1264
(dp1265
g3
S'Passenger'
p1266
sg5
I14
sg6
S'https://open.spotify.com/track/2jyjhRf6DVbMPU5zxagN2h'
p1267
sg8
S'Let Her Go'
p1268
ssS'7i2DJ88J7jQ8K7zqFX2fW8'
p1269
(dp1270
g3
S'Halsey'
p1271
sg5
I2
sg6
S'https://open.spotify.com/track/7i2DJ88J7jQ8K7zqFX2fW8'
p1272
sg8
S'Now Or Never'
p1273
ssS'5rJ2qfjioVJfF9l4KsaPen'
p1274
(dp1275
g3
S'Anna Puu'
p1276
sg5
I6
sg6
S'https://open.spotify.com/track/5rJ2qfjioVJfF9l4KsaPen'
p1277
sg8
S'N\xc3\xa4lk\xc3\xa4inen Syd\xc3\xa4n'
p1278
ssS'6HYNKNS9PTrqX9z00TJ760'
p1279
(dp1280
g3
S'Julma Henri'
p1281
sg5
I1
sg6
S'https://open.spotify.com/track/6HYNKNS9PTrqX9z00TJ760'
p1282
sg8
S'Sp\xc3\xa4g\xc3\xa4\xc3\xa4'
p1283
ssS'28bSOChAMwPQE9dxBmhAGA'
p1284
(dp1285
g3
S'Laura Voutilainen'
p1286
sg5
I1
sg6
S'https://open.spotify.com/track/28bSOChAMwPQE9dxBmhAGA'
p1287
sg8
S'M\xc3\xa4 En Kest\xc3\xa4'
p1288
ssS'5sNESr6pQfIhL3krM8CtZn'
p1289
(dp1290
g3
S'JAY Z'
p1291
sg5
I1
sg6
S'https://open.spotify.com/track/5sNESr6pQfIhL3krM8CtZn'
p1292
sg8
S'Numb / Encore'
p1293
ssS'6H8Qj8avfqdx9rl7yuotrW'
p1294
(dp1295
g3
S'Mira Luoti'
p1296
sg5
I2
sg6
S'https://open.spotify.com/track/6H8Qj8avfqdx9rl7yuotrW'
p1297
sg8
S'Meikkaava messias'
p1298
ssS'68EMU2RD1ECNeOeJ5qAXCV'
p1299
(dp1300
g3
S'Charlie Puth'
p1301
sg5
I6
sg6
S'https://open.spotify.com/track/68EMU2RD1ECNeOeJ5qAXCV'
p1302
sg8
S"We Don't Talk Anymore (feat. Selena Gomez)"
p1303
ssS'42ODbGEWZDNq6UXPsnNvoa'
p1304
(dp1305
g3
S'LEO'
p1306
sg5
I6
sg6
S'https://open.spotify.com/track/42ODbGEWZDNq6UXPsnNvoa'
p1307
sg8
S'Kaikki mit\xc3\xa4 rakastin'
p1308
ssS'3b5Li4QKDVBx1x7fQuu54a'
p1309
(dp1310
g3
S'Alan Walker'
p1311
sg5
I18
sg6
S'https://open.spotify.com/track/3b5Li4QKDVBx1x7fQuu54a'
p1312
sg8
S'Tired'
p1313
ssS'6SKsqakHjGxf7pPgiUQGjM'
p1314
(dp1315
g3
S'Oliver'
p1316
sg5
I2
sg6
S'https://open.spotify.com/track/6SKsqakHjGxf7pPgiUQGjM'
p1317
sg8
S'Juoksen'
p1318
ssS'28Of7FViVYvAHHhBMnREEt'
p1319
(dp1320
g3
S'Laura N\xc3\xa4rhi'
p1321
sg5
I2
sg6
S'https://open.spotify.com/track/28Of7FViVYvAHHhBMnREEt'
p1322
sg8
S'Joo joo \xc3\xa4iti'
p1323
ssS'1j4kHkkpqZRBwE0A4CN4Yv'
p1324
(dp1325
g3
S'ZAYN'
p1326
sg5
I5
sg6
S'https://open.spotify.com/track/1j4kHkkpqZRBwE0A4CN4Yv'
p1327
sg8
S'Dusk Till Dawn - Radio Edit'
p1328
ssS'08mjDVbH0S1K8KDXcBymBD'
p1329
(dp1330
g3
S'Lucas'
p1331
sg5
I5
sg6
S'https://open.spotify.com/track/08mjDVbH0S1K8KDXcBymBD'
p1332
sg8
S'N\xc3\xa4lk\xc3\xa4'
p1333
ssS'04CPpi0k997rSbdlzcxdM8'
p1334
(dp1335
g3
S'Madcon'
p1336
sg5
I1
sg6
S'https://open.spotify.com/track/04CPpi0k997rSbdlzcxdM8'
p1337
sg8
S'Got A Little Drunk'
p1338
ssS'3DXncPQOG4VBw3QHh3S817'
p1339
(dp1340
g3
S'DJ Khaled'
p1341
sg5
I19
sg6
S'https://open.spotify.com/track/3DXncPQOG4VBw3QHh3S817'
p1342
sg8
S"I'm the One"
p1343
ssS'2q6tgiA9tpb6DMguABwCWE'
p1344
(dp1345
g3
S'John Legend'
p1346
sg5
I18
sg6
S'https://open.spotify.com/track/2q6tgiA9tpb6DMguABwCWE'
p1347
sg8
S'All of Me'
p1348
ssS'4VuS959DSpr82t3qBqCrWG'
p1349
(dp1350
g3
S'Ed Sheeran'
p1351
sg5
I5
sg6
S'https://open.spotify.com/track/4VuS959DSpr82t3qBqCrWG'
p1352
sg8
S'Supermarket Flowers'
p1353
ssS'11Iv8RCFmeImLOpaHYxKb4'
p1354
(dp1355
g3
S'Edward Maya'
p1356
sg5
I1
sg6
S'https://open.spotify.com/track/11Iv8RCFmeImLOpaHYxKb4'
p1357
sg8
S'Stereo Love - Radio Edit'
p1358
ssS'6dP9y0SaaxrqL5J1EJvxdH'
p1359
(dp1360
g3
S'Mikael Gabriel'
p1361
sg5
I10
sg6
S'https://open.spotify.com/track/6dP9y0SaaxrqL5J1EJvxdH'
p1362
sg8
S'Pauhaava Syd\xc3\xa4n - Vain El\xc3\xa4m\xc3\xa4\xc3\xa4 Kausi 5'
p1363
ssS'0Zx8khUcEfCFK2AEoIhC92'
p1364
(dp1365
g3
S'Snakehips'
p1366
sg5
I11
sg6
S'https://open.spotify.com/track/0Zx8khUcEfCFK2AEoIhC92'
p1367
sg8
S"Don't Leave"
p1368
ssS'43IPuvI5T4Ubt1BToWXt6d'
p1369
(dp1370
g3
S'Marko Hietala'
p1371
sg5
I1
sg6
S'https://open.spotify.com/track/43IPuvI5T4Ubt1BToWXt6d'
p1372
sg8
S'Varpunen Jouluaamuna'
p1373
ssS'7Mx9PSRay23x2p7GH5ZJm5'
p1374
(dp1375
g3
S'Will Sparks'
p1376
sg5
I1
sg6
S'https://open.spotify.com/track/7Mx9PSRay23x2p7GH5ZJm5'
p1377
sg8
S'Ah Yeah So What - Radio Edit'
p1378
ssS'75Vd7vtusUJyaCGXmkqWec'
p1379
(dp1380
g3
S'Roope Salminen & Koirat'
p1381
sg5
I4
sg6
S'https://open.spotify.com/track/75Vd7vtusUJyaCGXmkqWec'
p1382
sg8
S'Sinulle mutsi'
p1383
ssS'3AXNbYxvEb1CK0PgOvsnQd'
p1384
(dp1385
g3
S'Bassbros'
p1386
sg5
I3
sg6
S'https://open.spotify.com/track/3AXNbYxvEb1CK0PgOvsnQd'
p1387
sg8
S'Lupa Purra'
p1388
ssS'1ZUSBG7BtNcOEuqqnnJh6G'
p1389
(dp1390
g3
S'Elastinen'
p1391
sg5
I13
sg6
S'https://open.spotify.com/track/1ZUSBG7BtNcOEuqqnnJh6G'
p1392
sg8
S'T\xc3\xa4ytyy Jaksaa'
p1393
ssS'0rGrvYyWYN6qz12NHGM5IF'
p1394
(dp1395
g3
S'Laura Voutilainen'
p1396
sg5
I4
sg6
S'https://open.spotify.com/track/0rGrvYyWYN6qz12NHGM5IF'
p1397
sg8
S'Ettei nyt vaan sattuis mit\xc3\xa4\xc3\xa4n (Vain el\xc3\xa4m\xc3\xa4\xc3\xa4 kausi 6)'
p1398
ssS'5fB7KNzDNtTLWAa6D2zcBJ'
p1399
(dp1400
g3
S'Spekti'
p1401
sg5
I17
sg6
S'https://open.spotify.com/track/5fB7KNzDNtTLWAa6D2zcBJ'
p1402
sg8
S'Juna'
p1403
ssS'7vFq3RHvJXp7GYnHFAHcEC'
p1404
(dp1405
g3
S'M\xc3\xa4kki'
p1406
sg5
I7
sg6
S'https://open.spotify.com/track/7vFq3RHvJXp7GYnHFAHcEC'
p1407
sg8
S'Juoppokuski'
p1408
ssS'00qFEwqJnoF2tlfL1PfM4n'
p1409
(dp1410
g3
S'Mikko Harju'
p1411
sg5
I10
sg6
S'https://open.spotify.com/track/00qFEwqJnoF2tlfL1PfM4n'
p1412
sg8
S'M\xc3\xa4 olen t\xc3\xa4ss\xc3\xa4'
p1413
ssS'5W59v6kiCz8No0TPc1I9UI'
p1414
(dp1415
g3
S'Antti Tuisku'
p1416
sg5
I18
sg6
S'https://open.spotify.com/track/5W59v6kiCz8No0TPc1I9UI'
p1417
sg8
S'Pyyd\xc3\xa4 multa anteeks kunnolla'
p1418
ssS'1vxdzyxjDxLTPxZKk4jp13'
p1419
(dp1420
g3
S'Robin'
p1421
sg5
I19
sg6
S'https://open.spotify.com/track/1vxdzyxjDxLTPxZKk4jp13'
p1422
sg8
S'En Mielest\xc3\xa4in Sua Saa - Vain El\xc3\xa4m\xc3\xa4\xc3\xa4 Kausi 6'
p1423
ssS'1fKFYEuzxhiaX0EzSP46Q8'
p1424
(dp1425
g3
S'Kaija Koo'
p1426
sg5
I4
sg6
S'https://open.spotify.com/track/1fKFYEuzxhiaX0EzSP46Q8'
p1427
sg8
S'Tanssii kuin John Travolta (Vain el\xc3\xa4m\xc3\xa4\xc3\xa4 kausi 7)'
p1428
ssS'4LOPI9yw5ebahDCnmFbeQC'
p1429
(dp1430
g3
S'Haloo Helsinki!'
p1431
sg5
I5
sg6
S'https://open.spotify.com/track/4LOPI9yw5ebahDCnmFbeQC'
p1432
sg8
S'Halleluja'
p1433
ssS'7M16mAuWuFA5rC9HvkXaGx'
p1434
(dp1435
g3
S'Jax Jones'
p1436
sg5
I5
sg6
S'https://open.spotify.com/track/7M16mAuWuFA5rC9HvkXaGx'
p1437
sg8
S"You Don't Know Me - Radio Edit"
p1438
ssS'3bVbQvGVIe4n24AzyXovXh'
p1439
(dp1440
g3
g312
sg5
I1
sg6
S'https://open.spotify.com/track/3bVbQvGVIe4n24AzyXovXh'
p1441
sg8
g312
ssS'49beVgEYyUk1zKVv0XjwcU'
p1442
(dp1443
g3
S'Pesso'
p1444
sg5
I2
sg6
S'https://open.spotify.com/track/49beVgEYyUk1zKVv0XjwcU'
p1445
sg8
S'Tiistai'
p1446
ssS'4Skp7JS3wqyEpcEhUItYDt'
p1447
(dp1448
g3
S'Samu'
p1449
sg5
I3
sg6
S'https://open.spotify.com/track/4Skp7JS3wqyEpcEhUItYDt'
p1450
sg8
S'Kerran (Vain el\xc3\xa4m\xc3\xa4\xc3\xa4 kausi 6)'
p1451
ssS'1hUMr8Hvok7DdjbISWR07r'
p1452
(dp1453
g3
S'Nikke Ankara'
p1454
sg5
I19
sg6
S'https://open.spotify.com/track/1hUMr8Hvok7DdjbISWR07r'
p1455
sg8
S'Miks Ei - Vain El\xc3\xa4m\xc3\xa4\xc3\xa4 Kausi 6'
p1456
ssS'4zD8z85QgLsmM7vbnkTMCb'
p1457
(dp1458
g3
S'Haloo Helsinki!'
p1459
sg5
I19
sg6
S'https://open.spotify.com/track/4zD8z85QgLsmM7vbnkTMCb'
p1460
sg8
S'Beibi'
p1461
ssS'2XlHu0HcujBCkWMdIAvrqt'
p1462
(dp1463
g3
S'Drake'
p1464
sg5
I3
sg6
S'https://open.spotify.com/track/2XlHu0HcujBCkWMdIAvrqt'
p1465
sg8
S'Blem'
p1466
ssS'0kkAAideWcSLFrbMHWY3WQ'
p1467
(dp1468
g3
S'Ruma'
p1469
sg5
I1
sg6
S'https://open.spotify.com/track/0kkAAideWcSLFrbMHWY3WQ'
p1470
sg8
S'Wasted (feat. Mariska)'
p1471
ssS'72Q0FQQo32KJloivv5xge2'
p1472
(dp1473
g3
S'DJ Khaled'
p1474
sg5
I3
sg6
S'https://open.spotify.com/track/72Q0FQQo32KJloivv5xge2'
p1475
sg8
S"I'm the One"
p1476
ssS'02COrEtecLsZxHHJyCkNja'
p1477
(dp1478
g3
S'Hurja'
p1479
sg5
I4
sg6
S'https://open.spotify.com/track/02COrEtecLsZxHHJyCkNja'
p1480
sg8
S'Seittii'
p1481
ssS'1XjMCUz7uwqZ1gdvbbyKtq'
p1482
(dp1483
g3
S'Teflon Brothers'
p1484
sg5
I36
sg6
S'https://open.spotify.com/track/1XjMCUz7uwqZ1gdvbbyKtq'
p1485
sg8
S'Hubba Bubba'
p1486
ssS'6Od6PKUm5a8frHnhvkhsju'
p1487
(dp1488
g3
S'W&W'
p1489
sg5
I8
sg6
S'https://open.spotify.com/track/6Od6PKUm5a8frHnhvkhsju'
p1490
sg8
S'Caribbean Rave'
p1491
ssS'2OALaHcDdKkjYEpAr0Qzab'
p1492
(dp1493
g3
S'Avicii'
p1494
sg5
I9
sg6
S'https://open.spotify.com/track/2OALaHcDdKkjYEpAr0Qzab'
p1495
sg8
S'Lonely Together (feat. Rita Ora)'
p1496
ssS'7nAfXgeHfDO50upcOjJOaq'
p1497
(dp1498
g3
S'Linkin Park'
p1499
sg5
I1
sg6
S'https://open.spotify.com/track/7nAfXgeHfDO50upcOjJOaq'
p1500
sg8
S'Talking to Myself'
p1501
ssS'1CBSDY2q7KOw8gIWaTp7MW'
p1502
(dp1503
g3
S'Skandaali'
p1504
sg5
I3
sg6
S'https://open.spotify.com/track/1CBSDY2q7KOw8gIWaTp7MW'
p1505
sg8
S'Hukas'
p1506
ssS'5hYTyyh2odQKphUbMqc5gN'
p1507
(dp1508
g3
S'Alessia Cara'
p1509
sg5
I22
sg6
S'https://open.spotify.com/track/5hYTyyh2odQKphUbMqc5gN'
p1510
sg8
S"How Far I'll Go - From Moana"
p1511
ssS'1sBhJGPUKrdRycgKxve70v'
p1512
(dp1513
g3
S'Felix Jaehn'
p1514
sg5
I16
sg6
S'https://open.spotify.com/track/1sBhJGPUKrdRycgKxve70v'
p1515
sg8
S'Hot2Touch'
p1516
ssS'72jbDTw1piOOj770jWNeaG'
p1517
(dp1518
g3
S'The Chainsmokers'
p1519
sg5
I23
sg6
S'https://open.spotify.com/track/72jbDTw1piOOj770jWNeaG'
p1520
sg8
S'Paris'
p1521
ssS'0MM1MRav3Htj2bGPDTzteI'
p1522
(dp1523
g3
S'WIL'
p1524
sg5
I1
sg6
S'https://open.spotify.com/track/0MM1MRav3Htj2bGPDTzteI'
p1525
sg8
S'Pois T\xc3\xa4\xc3\xa4lt'
p1526
ssS'0XfOi87h82i09rQjWYG0Bm'
p1527
(dp1528
g3
S'Jax Jones'
p1529
sg5
I14
sg6
S'https://open.spotify.com/track/0XfOi87h82i09rQjWYG0Bm'
p1530
sg8
S'Instruction (feat. Demi Lovato & Stefflon Don)'
p1531
ssS'6BoyeskvT3V5I3Bomcn2Sj'
p1532
(dp1533
g3
S'Mikael Gabriel'
p1534
sg5
I4
sg6
S'https://open.spotify.com/track/6BoyeskvT3V5I3Bomcn2Sj'
p1535
sg8
S'Kyll\xc3\xa4 M\xc3\xa4 N\xc3\xa4\xc3\xa4n'
p1536
ssS'6TcTdyQcyUOliG2ntoEsGU'
p1537
(dp1538
g3
S'Kaija Koo'
p1539
sg5
I3
sg6
S'https://open.spotify.com/track/6TcTdyQcyUOliG2ntoEsGU'
p1540
sg8
S'Ett\xc3\xa4 mit\xc3\xa4h\xc3\xa4n vittua (Vain el\xc3\xa4m\xc3\xa4\xc3\xa4 kausi 7)'
p1541
ssS'2tNKJ7uAvWdN6i5fBXm3T0'
p1542
(dp1543
g3
S'Gasellit'
p1544
sg5
I1
sg6
S'https://open.spotify.com/track/2tNKJ7uAvWdN6i5fBXm3T0'
p1545
sg8
S'Henkeni Edest\xc3\xa4'
p1546
ssS'5vqKiYlR4EuMBNlI3dQk4O'
p1547
(dp1548
g3
S'Adi L Hasla'
p1549
sg5
I7
sg6
S'https://open.spotify.com/track/5vqKiYlR4EuMBNlI3dQk4O'
p1550
sg8
S'Pelkkii Voittoi'
p1551
ssS'33dW62NGW8qEGUvjxU5EC9'
p1552
(dp1553
g3
S'Nikke Ankara'
p1554
sg5
I1
sg6
S'https://open.spotify.com/track/33dW62NGW8qEGUvjxU5EC9'
p1555
sg8
S'Perjantai 13.'
p1556
ssS'6jx8jfIW9PI5nzVzAZGZfU'
p1557
(dp1558
g3
S'Daniel Okas'
p1559
sg5
I11
sg6
S'https://open.spotify.com/track/6jx8jfIW9PI5nzVzAZGZfU'
p1560
sg8
S'Hokkus Pokkus'
p1561
ssS'2C7Yzl61H8BE3EbK2Qk1sM'
p1562
(dp1563
g3
S'Nikke Ankara'
p1564
sg5
I25
sg6
S'https://open.spotify.com/track/2C7Yzl61H8BE3EbK2Qk1sM'
p1565
sg8
S'Pett\xc3\xa4v\xc3\xa4ll\xc3\xa4 J\xc3\xa4\xc3\xa4ll\xc3\xa4 - Vain El\xc3\xa4m\xc3\xa4\xc3\xa4 Kausi 6'
p1566
ssS'2yvzLwqnATiZ74iRUTsBfK'
p1567
(dp1568
g3
S'Aleksanteri Hakaniemi'
p1569
sg5
I22
sg6
S'https://open.spotify.com/track/2yvzLwqnATiZ74iRUTsBfK'
p1570
sg8
S'Etsi mut'
p1571
ssS'2qt644M4al2RUmh1P4KGIq'
p1572
(dp1573
g3
S'Petra'
p1574
sg5
I1
sg6
S'https://open.spotify.com/track/2qt644M4al2RUmh1P4KGIq'
p1575
sg8
S'Olet mulle enemm\xc3\xa4n (Vain el\xc3\xa4m\xc3\xa4\xc3\xa4 kausi 6)'
p1576
ssS'7Ackmdr1e5mv4bDG7pWYbo'
p1577
(dp1578
g3
S'Robba'
p1579
sg5
I1
sg6
S'https://open.spotify.com/track/7Ackmdr1e5mv4bDG7pWYbo'
p1580
sg8
S'Omal tyylil'
p1581
ssS'4c2W3VKsOFoIg2SFaO6DY5'
p1582
(dp1583
g3
S'Rita Ora'
p1584
sg5
I20
sg6
S'https://open.spotify.com/track/4c2W3VKsOFoIg2SFaO6DY5'
p1585
sg8
S'Your Song'
p1586
ssS'2nzv2rfCjTQ13JOJuMnZAS'
p1587
(dp1588
g3
S'Reino Nordin'
p1589
sg5
I2
sg6
S'https://open.spotify.com/track/2nzv2rfCjTQ13JOJuMnZAS'
p1590
sg8
S'Ihmeeni'
p1591
ssS'22HHTL6naQOBQoQ4eYhUMZ'
p1592
(dp1593
g3
S'Kauriinmets\xc3\xa4st\xc3\xa4j\xc3\xa4t'
p1594
sg5
I1
sg6
S'https://open.spotify.com/track/22HHTL6naQOBQoQ4eYhUMZ'
p1595
sg8
S'Sua sua'
p1596
ssS'6p8NuHm8uCGnn2Dtbtf7zE'
p1597
(dp1598
g3
S'Migos'
p1599
sg5
I2
sg6
S'https://open.spotify.com/track/6p8NuHm8uCGnn2Dtbtf7zE'
p1600
sg8
S'Slippery (feat. Gucci Mane)'
p1601
ssS'5QarVtsSmGDiIsCy49yLEs'
p1602
(dp1603
g3
S'Tony Deans'
p1604
sg5
I1
sg6
S'https://open.spotify.com/track/5QarVtsSmGDiIsCy49yLEs'
p1605
sg8
S"Do They Know It's Christmas?"
p1606
ssS'2gbCG4Rt9984UZ7Tc0dIFd'
p1607
(dp1608
g3
S'Michael Bubl\xc3\xa9'
p1609
sg5
I1
sg6
S'https://open.spotify.com/track/2gbCG4Rt9984UZ7Tc0dIFd'
p1610
sg8
S'White Christmas (Duet With Shania Twain)'
p1611
ssS'1Hj2FPeuBqjD7JchlWjKg1'
p1612
(dp1613
g3
S'Marko Hietala'
p1614
sg5
I1
sg6
S'https://open.spotify.com/track/1Hj2FPeuBqjD7JchlWjKg1'
p1615
sg8
S'Tulkoon Joulu'
p1616
ssS'77lGafvlU68CeHgB2pkHC9'
p1617
(dp1618
g3
S'Machine Gun Kelly'
p1619
sg5
I3
sg6
S'https://open.spotify.com/track/77lGafvlU68CeHgB2pkHC9'
p1620
sg8
S'At My Best (feat. Hailee Steinfeld)'
p1621
ssS'0dA2Mk56wEzDgegdC6R17g'
p1622
(dp1623
g3
S'Zedd'
p1624
sg5
I26
sg6
S'https://open.spotify.com/track/0dA2Mk56wEzDgegdC6R17g'
p1625
sg8
S'Stay (with Alessia Cara)'
p1626
ssS'3kGfazcbVvVkuZunzlLgTD'
p1627
(dp1628
g3
S'Sigala'
p1629
sg5
I8
sg6
S'https://open.spotify.com/track/3kGfazcbVvVkuZunzlLgTD'
p1630
sg8
S'Came Here for Love'
p1631
ssS'2kLf4myxQME1Nd0voeKZri'
p1632
(dp1633
g3
S'Mike Perry'
p1634
sg5
I1
sg6
S'https://open.spotify.com/track/2kLf4myxQME1Nd0voeKZri'
p1635
sg8
S'Stay Young'
p1636
ssS'2ffpl2YYNqHWugYlQHDvSs'
p1637
(dp1638
g3
S'Nikke Ankara'
p1639
sg5
I21
sg6
S'https://open.spotify.com/track/2ffpl2YYNqHWugYlQHDvSs'
p1640
sg8
S'En Tii\xc3\xa4 Sun Nimee'
p1641
ssS'3Ytr1SUCUi6J3L9dRFx5iH'
p1642
(dp1643
g3
S'Major Lazer'
p1644
sg5
I15
sg6
S'https://open.spotify.com/track/3Ytr1SUCUi6J3L9dRFx5iH'
p1645
sg8
S'Know No Better (feat. Quavo)'
p1646
ssS'5AlI3P7UjjNPo4ltpYXpj0'
p1647
(dp1648
g3
S'Ryan Riback'
p1649
sg5
I1
sg6
S'https://open.spotify.com/track/5AlI3P7UjjNPo4ltpYXpj0'
p1650
sg8
S'All That She Wants'
p1651
ssS'2bGwLlCIKzk00kcUK6QhZv'
p1652
(dp1653
g3
S'Robin'
p1654
sg5
I8
sg6
S'https://open.spotify.com/track/2bGwLlCIKzk00kcUK6QhZv'
p1655
sg8
S'Me Tehtiin T\xc3\xa4\xc3\xa4'
p1656
ssS'3lf8YMo6vjHxy6yL3Co0oK'
p1657
(dp1658
g3
S'LGNDRY'
p1659
sg5
I3
sg6
S'https://open.spotify.com/track/3lf8YMo6vjHxy6yL3Co0oK'
p1660
sg8
S'Kaadetaan penkit (feat. Lucas)'
p1661
ssS'3l7cMWg2wBWNDoyAtG1Sll'
p1662
(dp1663
g3
S'Spekti'
p1664
sg5
I3
sg6
S'https://open.spotify.com/track/3l7cMWg2wBWNDoyAtG1Sll'
p1665
sg8
S'Huomisen Huolia'
p1666
ssS'7p6i6Jgh3WUYmmhdiVlyhl'
p1667
(dp1668
g3
S'SINI YASEMIN'
p1669
sg5
I35
sg6
S'https://open.spotify.com/track/7p6i6Jgh3WUYmmhdiVlyhl'
p1670
sg8
S'Mun Kaa'
p1671
ssS'7nZmah2llfvLDiUjm0kiyz'
p1672
(dp1673
g3
S'Justin Bieber'
p1674
sg5
I8
sg6
S'https://open.spotify.com/track/7nZmah2llfvLDiUjm0kiyz'
p1675
sg8
S'Friends (with BloodPop\xc2\xae)'
p1676
ssS'0f0ZZmJr7UFq8D2OkTpDx0'
p1677
(dp1678
g3
S'SAARA'
p1679
sg5
I14
sg6
S'https://open.spotify.com/track/0f0ZZmJr7UFq8D2OkTpDx0'
p1680
sg8
S'Superpowers'
p1681
ssS'1251zJyy2Po9qZB0Hig4q9'
p1682
(dp1683
g3
S'Heikki Kuula'
p1684
sg5
I3
sg6
S'https://open.spotify.com/track/1251zJyy2Po9qZB0Hig4q9'
p1685
sg8
S'Hasta La Vista'
p1686
ssS'0y9uTzK9cNKSAEHnpeRG8C'
p1687
(dp1688
g3
S'Kendrick Lamar'
p1689
sg5
I1
sg6
S'https://open.spotify.com/track/0y9uTzK9cNKSAEHnpeRG8C'
p1690
sg8
S'DUCKWORTH.'
p1691
ssS'6P6XGCfH0tJao9lyCuLzLt'
p1692
(dp1693
g3
S'Pyk\xc3\xa4ri'
p1694
sg5
I2
sg6
S'https://open.spotify.com/track/6P6XGCfH0tJao9lyCuLzLt'
p1695
sg8
S'Shampanjahai'
p1696
ssS'3f3b8xQYDI0mf8fJaAkNZB'
p1697
(dp1698
g3
S'STIG'
p1699
sg5
I6
sg6
S'https://open.spotify.com/track/3f3b8xQYDI0mf8fJaAkNZB'
p1700
sg8
S'Ai Ai Ai'
p1701
ssS'4aIdlx4MDx0z0qGLNotRAM'
p1702
(dp1703
g3
S'JVG'
p1704
sg5
I3
sg6
S'https://open.spotify.com/track/4aIdlx4MDx0z0qGLNotRAM'
p1705
sg8
S'Kran Turismo'
p1706
ssS'0SsP7gCmOC9eMld6QWjB7f'
p1707
(dp1708
g3
S'Sunrise Avenue'
p1709
sg5
I3
sg6
S'https://open.spotify.com/track/0SsP7gCmOC9eMld6QWjB7f'
p1710
sg8
S'I Help You Hate Me'
p1711
ssS'6uFsE1JgZ20EXyU0JQZbUR'
p1712
(dp1713
g3
S'Taylor Swift'
p1714
sg5
I7
sg6
S'https://open.spotify.com/track/6uFsE1JgZ20EXyU0JQZbUR'
p1715
sg8
S'Look What You Made Me Do'
p1716
ssS'4o676mehMKWFumgxkEF7jQ'
p1717
(dp1718
g3
S'Vilma Alina'
p1719
sg5
I5
sg6
S'https://open.spotify.com/track/4o676mehMKWFumgxkEF7jQ'
p1720
sg8
S'T\xc3\xa4n\xc3\xa4\xc3\xa4n Ei Nukuta'
p1721
ssS'4sRkfzJ0Rh57OUkhcHWrps'
p1722
(dp1723
g3
S'SONNY'
p1724
sg5
I4
sg6
S'https://open.spotify.com/track/4sRkfzJ0Rh57OUkhcHWrps'
p1725
sg8
S'Rudeboy'
p1726
ssS'5bXs3ZyDRwsYE0mADVnZAR'
p1727
(dp1728
g3
S'Irina'
p1729
sg5
I7
sg6
S'https://open.spotify.com/track/5bXs3ZyDRwsYE0mADVnZAR'
p1730
sg8
S'Kiitos kaikesta (Vain el\xc3\xa4m\xc3\xa4\xc3\xa4 kausi 6)'
p1731
ssS'2dfHh7ECGxfNqZTQno09Vk'
p1732
(dp1733
g3
S'Ed Sheeran'
p1734
sg5
I3
sg6
S'https://open.spotify.com/track/2dfHh7ECGxfNqZTQno09Vk'
p1735
sg8
S"Hearts Don't Break Around Here"
p1736
ssS'1xznGGDReH1oQq0xzbwXa3'
p1737
(dp1738
g3
S'Drake'
p1739
sg5
I11
sg6
S'https://open.spotify.com/track/1xznGGDReH1oQq0xzbwXa3'
p1740
sg8
S'One Dance'
p1741
ssS'5cMC3EdQIUsbzUuUxKoiMB'
p1742
(dp1743
g3
S'Juha Tapio'
p1744
sg5
I5
sg6
S'https://open.spotify.com/track/5cMC3EdQIUsbzUuUxKoiMB'
p1745
sg8
S'Sinuhe (Vain el\xc3\xa4m\xc3\xa4\xc3\xa4 kausi 7) [feat. Br\xc3\xa4di]'
p1746
ssS'23jxsLQx6wzSps1FAuCKos'
p1747
(dp1748
g3
S'Karri Koira'
p1749
sg5
I3
sg6
S'https://open.spotify.com/track/23jxsLQx6wzSps1FAuCKos'
p1750
sg8
S'P\xc3\xa4\xc3\xa4st\xc3\xa4 Mut Sis\xc3\xa4\xc3\xa4n'
p1751
ssS'4flXUmmCKe1GAAvIoptHq7'
p1752
(dp1753
g3
S'Mohombi'
p1754
sg5
I1
sg6
S'https://open.spotify.com/track/4flXUmmCKe1GAAvIoptHq7'
p1755
sg8
S'Bumpy Ride'
p1756
ssS'4l24mUFBnC5MfAROgOm5am'
p1757
(dp1758
g3
S'Apulanta'
p1759
sg5
I2
sg6
S'https://open.spotify.com/track/4l24mUFBnC5MfAROgOm5am'
p1760
sg8
S'Valot pimeyksien reunoilla'
p1761
ssS'6YLtZNcayG9lmvUn906xsp'
p1762
(dp1763
g3
S'Gasellit'
p1764
sg5
I25
sg6
S'https://open.spotify.com/track/6YLtZNcayG9lmvUn906xsp'
p1765
sg8
S'Muistanks M\xc3\xa4 V\xc3\xa4\xc3\xa4rin?'
p1766
ssS'5DOP9l0x4NvCIsS1tOGrre'
p1767
(dp1768
g3
S'Arman Cekin'
p1769
sg5
I29
sg6
S'https://open.spotify.com/track/5DOP9l0x4NvCIsS1tOGrre'
p1770
sg8
S'California Dreaming (feat. Snoop Dogg & Paul Rey)'
p1771
ssS'5XXd8LSfEqqhLJBUcX3O5R'
p1772
(dp1773
g3
S'Profeetat'
p1774
sg5
I26
sg6
S'https://open.spotify.com/track/5XXd8LSfEqqhLJBUcX3O5R'
p1775
sg8
S'Jokainen kyynel'
p1776
ssS'5fc6rQgAKiLutfUYWQ6QnJ'
p1777
(dp1778
g3
S'Sia'
p1779
sg5
I7
sg6
S'https://open.spotify.com/track/5fc6rQgAKiLutfUYWQ6QnJ'
p1780
sg8
S'Helium - From Fifty Shades Darker (Original Motion Picture Soundtrack)'
p1781
ssS'4lLL9uT4lun5BKt3ouOhxO'
p1782
(dp1783
g3
S'Laura Voutilainen'
p1784
sg5
I30
sg6
S'https://open.spotify.com/track/4lLL9uT4lun5BKt3ouOhxO'
p1785
sg8
S'M\xc3\xa4 En Kest\xc3\xa4'
p1786
ssS'206BIMBunD9W5KVPX2fZ1X'
p1787
(dp1788
g3
S'Jari Sillanp\xc3\xa4\xc3\xa4'
p1789
sg5
I3
sg6
S'https://open.spotify.com/track/206BIMBunD9W5KVPX2fZ1X'
p1790
sg8
S'Dementia (Vain el\xc3\xa4m\xc3\xa4\xc3\xa4 kausi 7)'
p1791
ssS'0NiXXAI876aGImAd6rTj8w'
p1792
(dp1793
g3
S'Jonas Blue'
p1794
sg5
I14
sg6
S'https://open.spotify.com/track/0NiXXAI876aGImAd6rTj8w'
p1795
sg8
S'Mama'
p1796
ssS'343YBumqHu19cGoGARUTsd'
p1797
(dp1798
g3
S'Drake'
p1799
sg5
I14
sg6
S'https://open.spotify.com/track/343YBumqHu19cGoGARUTsd'
p1800
sg8
S'Fake Love'
p1801
ssS'5HDPtsnyb3maFmPL8LLUTG'
p1802
(dp1803
g3
S'Ed Sheeran'
p1804
sg5
I4
sg6
S'https://open.spotify.com/track/5HDPtsnyb3maFmPL8LLUTG'
p1805
sg8
S'New Man'
p1806
ssS'4ttjtLeCx3rwltZR3w7gWV'
p1807
(dp1808
g3
S'JVG'
p1809
sg5
I37
sg6
S'https://open.spotify.com/track/4ttjtLeCx3rwltZR3w7gWV'
p1810
sg8
S'Tarkenee'
p1811
ssS'4xyNG8vZR3g8FnphVkbjRo'
p1812
(dp1813
g3
S'Lana Del Rey'
p1814
sg5
I1
sg6
S'https://open.spotify.com/track/4xyNG8vZR3g8FnphVkbjRo'
p1815
sg8
S'Love'
p1816
ssS'79zJ2fs1O6SeZx0KZN1v77'
p1817
(dp1818
g3
S'Cledos'
p1819
sg5
I3
sg6
S'https://open.spotify.com/track/79zJ2fs1O6SeZx0KZN1v77'
p1820
sg8
S'Safe'
p1821
ssS'3uht5bVvbiE54iQwtrab1e'
p1822
(dp1823
g3
S'Sunrise Avenue'
p1824
sg5
I3
sg6
S'https://open.spotify.com/track/3uht5bVvbiE54iQwtrab1e'
p1825
sg8
S'Hollywood Hills'
p1826
ssS'6WbADFqMvR8N5u0BvtsWQE'
p1827
(dp1828
g3
S'Avicii'
p1829
sg5
I9
sg6
S'https://open.spotify.com/track/6WbADFqMvR8N5u0BvtsWQE'
p1830
sg8
S'Without You (feat. Sandro Cavazza)'
p1831
ssS'4D3ky3APQwcr8Iku0DrMSd'
p1832
(dp1833
g3
S'M\xc3\xa4k G\xc3\xa4lis'
p1834
sg5
I8
sg6
S'https://open.spotify.com/track/4D3ky3APQwcr8Iku0DrMSd'
p1835
sg8
S'Meill\xc3\xa4p\xc3\xa4in'
p1836
ssS'4pdPtRcBmOSQDlJ3Fk945m'
p1837
(dp1838
g3
S'DJ Snake'
p1839
sg5
I23
sg6
S'https://open.spotify.com/track/4pdPtRcBmOSQDlJ3Fk945m'
p1840
sg8
S'Let Me Love You'
p1841
ssS'1Y1193pYrOaIQEqN5EenlB'
p1842
(dp1843
g3
S'Olli Lindholm'
p1844
sg5
I2
sg6
S'https://open.spotify.com/track/1Y1193pYrOaIQEqN5EenlB'
p1845
sg8
S'V\xc3\xa4rifilmi (Vain el\xc3\xa4m\xc3\xa4\xc3\xa4 kausi 6)'
p1846
ssS'74oCTWhmFli50HkkkvAxfD'
p1847
(dp1848
g3
S'Mikael Gabriel'
p1849
sg5
I12
sg6
S'https://open.spotify.com/track/74oCTWhmFli50HkkkvAxfD'
p1850
sg8
S'6K'
p1851
ssS'2bHoZwTtGOb9mzlpXh6Hqe'
p1852
(dp1853
g3
S'Laura Voutilainen'
p1854
sg5
I3
sg6
S'https://open.spotify.com/track/2bHoZwTtGOb9mzlpXh6Hqe'
p1855
sg8
S'Forever Yours (Vain el\xc3\xa4m\xc3\xa4\xc3\xa4 kausi 6)'
p1856
ssS'5153LWKMJiMNIRCChGN4Ja'
p1857
(dp1858
g3
S'Mike Perry'
p1859
sg5
I2
sg6
S'https://open.spotify.com/track/5153LWKMJiMNIRCChGN4Ja'
p1860
sg8
S'Hands'
p1861
ssS'6pNhhv4VcoQj9uA6oH3YZa'
p1862
(dp1863
g3
S'SANNI'
p1864
sg5
I11
sg6
S'https://open.spotify.com/track/6pNhhv4VcoQj9uA6oH3YZa'
p1865
sg8
S'Oo se kun oot (feat. Paperi T)'
p1866
ssS'7LEydI5NfjY6mZfKwYIptZ'
p1867
(dp1868
g3
S'Fifth Harmony'
p1869
sg5
I3
sg6
S'https://open.spotify.com/track/7LEydI5NfjY6mZfKwYIptZ'
p1870
sg8
S'Down'
p1871
ssS'3LG5h1QIvHZkChgmc2MVGq'
p1872
(dp1873
g3
S'Otto Knows'
p1874
sg5
I1
sg6
S'https://open.spotify.com/track/3LG5h1QIvHZkChgmc2MVGq'
p1875
sg8
S'With You'
p1876
ssS'0hEsuWApbq8VCoWIOiF1dt'
p1877
(dp1878
g3
S'Gettomasa'
p1879
sg5
I4
sg6
S'https://open.spotify.com/track/0hEsuWApbq8VCoWIOiF1dt'
p1880
sg8
S'Ykk\xc3\xb6sen b\xc3\xa4gei (feat. Justsesomali)'
p1881
ssS'5Ua3GXyHwiSfpNTMjq6m2z'
p1882
(dp1883
g3
S'Little Mix'
p1884
sg5
I4
sg6
S'https://open.spotify.com/track/5Ua3GXyHwiSfpNTMjq6m2z'
p1885
sg8
S'Touch'
p1886
ssS'6tXb3pFLExL19GcelCP0GZ'
p1887
(dp1888
g3
S'Petra'
p1889
sg5
I4
sg6
S'https://open.spotify.com/track/6tXb3pFLExL19GcelCP0GZ'
p1890
sg8
S'En tii\xc3\xa4 sun nimee (Vain el\xc3\xa4m\xc3\xa4\xc3\xa4 kausi 6)'
p1891
ssS'1pnYHu0479JaG3ESOTs0ZU'
p1892
(dp1893
g3
S'Cheek'
p1894
sg5
I4
sg6
S'https://open.spotify.com/track/1pnYHu0479JaG3ESOTs0ZU'
p1895
sg8
S'Sin\xc3\xa4 ansaitset kultaa (Vain el\xc3\xa4m\xc3\xa4\xc3\xa4 kausi 7)'
p1896
ssS'2jYmK1cb3Uya6FFsocdpzO'
p1897
(dp1898
g3
S'Sabrina Carpenter'
p1899
sg5
I4
sg6
S'https://open.spotify.com/track/2jYmK1cb3Uya6FFsocdpzO'
p1900
sg8
S'Why'
p1901
ssS'0Ev8HCcDuVyo6Z0OqWS7cM'
p1902
(dp1903
g3
S'Ilta'
p1904
sg5
I13
sg6
S'https://open.spotify.com/track/0Ev8HCcDuVyo6Z0OqWS7cM'
p1905
sg8
S'Koukkuun'
p1906
ssS'5OOkp4U9P9oL23maHFHL1h'
p1907
(dp1908
g3
S'Desiigner'
p1909
sg5
I12
sg6
S'https://open.spotify.com/track/5OOkp4U9P9oL23maHFHL1h'
p1910
sg8
S'Panda'
p1911
ssS'1aty40lOztXmjuKi1XO81m'
p1912
(dp1913
g3
S'Vesala'
p1914
sg5
I3
sg6
S'https://open.spotify.com/track/1aty40lOztXmjuKi1XO81m'
p1915
sg8
S'\xc3\x84l\xc3\xa4 droppaa mun tunnelmaa'
p1916
ssS'4Xpgrj7w9vG34nGgLH676t'
p1917
(dp1918
g3
S'Pariisin Kev\xc3\xa4t'
p1919
sg5
I1
sg6
S'https://open.spotify.com/track/4Xpgrj7w9vG34nGgLH676t'
p1920
sg8
S'Matkalla sun luo'
p1921
ssS'3qmvK8QARSPkFTuKeIXSbs'
p1922
(dp1923
g3
S'Linkin Park'
p1924
sg5
I1
sg6
S'https://open.spotify.com/track/3qmvK8QARSPkFTuKeIXSbs'
p1925
sg8
S'Bleed It Out'
p1926
ssS'4zOq1k6bo7pHOW2DSFh4xw'
p1927
(dp1928
g3
S'Hesa\xc3\x84ij\xc3\xa4'
p1929
sg5
I18
sg6
S'https://open.spotify.com/track/4zOq1k6bo7pHOW2DSFh4xw'
p1930
sg8
S'Sauna l\xc3\xa4mpee'
p1931
ssS'6wywBDiW6ZtasWMubqXEC3'
p1932
(dp1933
g3
S'VG+'
p1934
sg5
I1
sg6
S'https://open.spotify.com/track/6wywBDiW6ZtasWMubqXEC3'
p1935
sg8
S'50 km'
p1936
ssS'5csgioFXPjBlHIeUi4Plcy'
p1937
(dp1938
g3
S'Samae Koskinen'
p1939
sg5
I1
sg6
S'https://open.spotify.com/track/5csgioFXPjBlHIeUi4Plcy'
p1940
sg8
S'Jonnet Ei Muista'
p1941
ssS'65KDcMUXu2qWNPZogZypdn'
p1942
(dp1943
g3
S'Slim Mill'
p1944
sg5
I7
sg6
S'https://open.spotify.com/track/65KDcMUXu2qWNPZogZypdn'
p1945
sg8
S'Gorilla (feat. Mahku)'
p1946
ssS'6ItkmsAMKvcab9ikCN1TBW'
p1947
(dp1948
g3
S'Evelina'
p1949
sg5
I12
sg6
S'https://open.spotify.com/track/6ItkmsAMKvcab9ikCN1TBW'
p1950
sg8
S'Ei Filtterii'
p1951
ssS'2Kouu3rnDZ5ZVqWtPEAsGo'
p1952
(dp1953
g3
S'Vesa-Matti Loiri'
p1954
sg5
I1
sg6
S'https://open.spotify.com/track/2Kouu3rnDZ5ZVqWtPEAsGo'
p1955
sg8
S'Syd\xc3\xa4meeni joulun teen'
p1956
ssS'2i3WO0WkrlnrA1I4GdUmxh'
p1957
(dp1958
g3
S'Robin Schulz'
p1959
sg5
I2
sg6
S'https://open.spotify.com/track/2i3WO0WkrlnrA1I4GdUmxh'
p1960
sg8
S"I Believe I'm Fine"
p1961
ssS'79cuOz3SPQTuFrp8WgftAu'
p1962
(dp1963
g3
S'Shawn Mendes'
p1964
sg5
I25
sg6
S'https://open.spotify.com/track/79cuOz3SPQTuFrp8WgftAu'
p1965
sg8
S"There's Nothing Holdin' Me Back"
p1966
ssS'1kguFz3pjUr3mRLoTZRCB8'
p1967
(dp1968
g3
S'Gasellit'
p1969
sg5
I1
sg6
S'https://open.spotify.com/track/1kguFz3pjUr3mRLoTZRCB8'
p1970
sg8
S'Pese Mut Pois'
p1971
ssS'4ARPvK8DHLwt4oX65ZAFMw'
p1972
(dp1973
g3
S'XXXTENTACION'
p1974
sg5
I10
sg6
S'https://open.spotify.com/track/4ARPvK8DHLwt4oX65ZAFMw'
p1975
sg8
S'Look At Me!'
p1976
ssS'7dgBDHaO3wtAXcP5cpgumV'
p1977
(dp1978
g3
S'Aste'
p1979
sg5
I11
sg6
S'https://open.spotify.com/track/7dgBDHaO3wtAXcP5cpgumV'
p1980
sg8
S'Peruskallio'
p1981
ssS'6ZX2qXkhaueabbzp6vfabS'
p1982
(dp1983
g3
S'ALMA'
p1984
sg5
I3
sg6
S'https://open.spotify.com/track/6ZX2qXkhaueabbzp6vfabS'
p1985
sg8
S'Phases'
p1986
ssS'3UjJP4ludb74a29P5EHEIo'
p1987
(dp1988
g3
S'Sabrina Carpenter'
p1989
sg5
I26
sg6
S'https://open.spotify.com/track/3UjJP4ludb74a29P5EHEIo'
p1990
sg8
S'Thumbs'
p1991
ssS'4izg6Hydc6XGErWW6nbdsV'
p1992
(dp1993
g3
S'Imagine Dragons'
p1994
sg5
I3
sg6
S'https://open.spotify.com/track/4izg6Hydc6XGErWW6nbdsV'
p1995
sg8
S'Whatever It Takes'
p1996
ssS'6fujklziTHa8uoM5OQSfIo'
p1997
(dp1998
g3
S'Rae Sremmurd'
p1999
sg5
I21
sg6
S'https://open.spotify.com/track/6fujklziTHa8uoM5OQSfIo'
p2000
sg8
S'Black Beatles'
p2001
ssS'3eR23VReFzcdmS7TYCrhCe'
p2002
(dp2003
g3
S'Kygo'
p2004
sg5
I34
sg6
S'https://open.spotify.com/track/3eR23VReFzcdmS7TYCrhCe'
p2005
sg8
S"It Ain't Me (with Selena Gomez)"
p2006
ssS'7ncHHETXnZrcV9hES2hCPW'
p2007
(dp2008
g3
S'SINI YASEMIN'
p2009
sg5
I9
sg6
S'https://open.spotify.com/track/7ncHHETXnZrcV9hES2hCPW'
p2010
sg8
S'Istanbul-Rytmii'
p2011
ssS'2eAZfqOm4EnOF9VvN50Tyc'
p2012
(dp2013
g3
S'Lil Uzi Vert'
p2014
sg5
I3
sg6
S'https://open.spotify.com/track/2eAZfqOm4EnOF9VvN50Tyc'
p2015
sg8
S'The Way Life Goes'
p2016
ssS'2R7858bg0GHuBBxjTyOL7N'
p2017
(dp2018
g3
S'George Michael'
p2019
sg5
I1
sg6
S'https://open.spotify.com/track/2R7858bg0GHuBBxjTyOL7N'
p2020
sg8
S'Careless Whisper'
p2021
ssS'1zayuwd1YLZsYDArkruHdL'
p2022
(dp2023
g3
S'Kendrick Lamar'
p2024
sg5
I1
sg6
S'https://open.spotify.com/track/1zayuwd1YLZsYDArkruHdL'
p2025
sg8
S'The Heart Part 4'
p2026
ssS'5LXj9Ch3O9ATm1NoHT8GXn'
p2027
(dp2028
g3
S'Coldplay'
p2029
sg5
I1
sg6
S'https://open.spotify.com/track/5LXj9Ch3O9ATm1NoHT8GXn'
p2030
sg8
S'Hypnotised'
p2031
ssS'0z9m7SEj2wjOY7IVLslKwS'
p2032
(dp2033
g3
S'P\xc3\xa4\xc3\xa4-\xc3\xa4ij\xc3\xa4t'
p2034
sg5
I2
sg6
S'https://open.spotify.com/track/0z9m7SEj2wjOY7IVLslKwS'
p2035
sg8
S'Limudisko'
p2036
ssS'2S4MzlAHzpBkaRjwTrb5kM'
p2037
(dp2038
g3
S'Ellinoora'
p2039
sg5
I6
sg6
S'https://open.spotify.com/track/2S4MzlAHzpBkaRjwTrb5kM'
p2040
sg8
S'Min\xc3\xa4 suojelen sinua kaikelta'
p2041
ssS'6jdRdqyMlZQdLAnA7Cl9LD'
p2042
(dp2043
g3
S'JVG'
p2044
sg5
I7
sg6
S'https://open.spotify.com/track/6jdRdqyMlZQdLAnA7Cl9LD'
p2045
sg8
S'En sun kaa (feat. Bizi)'
p2046
ssS'1K0ZirzQ9KtHAKOLB5efXs'
p2047
(dp2048
g3
S'Suvi Ter\xc3\xa4sniska'
p2049
sg5
I1
sg6
S'https://open.spotify.com/track/1K0ZirzQ9KtHAKOLB5efXs'
p2050
sg8
S'Tulkoon joulu'
p2051
ssS'6xTizbSPwE42E4xR1qndt8'
p2052
(dp2053
g3
S'Haloo Helsinki!'
p2054
sg5
I3
sg6
S'https://open.spotify.com/track/6xTizbSPwE42E4xR1qndt8'
p2055
sg8
S'Yhdess\xc3\xa4 ihminen'
p2056
ssS'5ZUFG8fN3ruFrMhHXq1sqX'
p2057
(dp2058
g3
S'Antti Tuisku'
p2059
sg5
I2
sg6
S'https://open.spotify.com/track/5ZUFG8fN3ruFrMhHXq1sqX'
p2060
sg8
S'Jeesus-jedimestari'
p2061
ssS'0JiVRyTJcJnmlwCZ854K4p'
p2062
(dp2063
g3
S'Alan Walker'
p2064
sg5
I38
sg6
S'https://open.spotify.com/track/0JiVRyTJcJnmlwCZ854K4p'
p2065
sg8
S'Alone'
p2066
ssS'1OmcAT5Y8eg5bUPv9qJT4R'
p2067
(dp2068
g3
S'Post Malone'
p2069
sg5
I3
sg6
S'https://open.spotify.com/track/1OmcAT5Y8eg5bUPv9qJT4R'
p2070
sg8
S'rockstar'
p2071
ssS'3hRZsdTF5uyGA2uhNqEuhm'
p2072
(dp2073
g3
S'Niall Horan'
p2074
sg5
I4
sg6
S'https://open.spotify.com/track/3hRZsdTF5uyGA2uhNqEuhm'
p2075
sg8
S'Too Much To Ask'
p2076
ssS'0bVtevEgtDIeRjCJbK3Lmv'
p2077
(dp2078
g3
S"Guns N' Roses"
p2079
sg5
I1
sg6
S'https://open.spotify.com/track/0bVtevEgtDIeRjCJbK3Lmv'
p2080
sg8
S'Welcome To The Jungle'
p2081
ssS'6jRKSPOWLX9IWzL8rmglJc'
p2082
(dp2083
g3
S'Daniel Okas'
p2084
sg5
I6
sg6
S'https://open.spotify.com/track/6jRKSPOWLX9IWzL8rmglJc'
p2085
sg8
S'Tanssit Mulle'
p2086
ssS'5Oh3cW5gnEEKPsHb1WrVWm'
p2087
(dp2088
g3
S'DJ Katch'
p2089
sg5
I7
sg6
S'https://open.spotify.com/track/5Oh3cW5gnEEKPsHb1WrVWm'
p2090
sg8
S'Lights Out (Too Drunk) [feat. Hayley]'
p2091
ssS'4aWmUDTfIPGksMNLV2rQP2'
p2092
(dp2093
g3
S'Luis Fonsi'
p2094
sg5
I36
sg6
S'https://open.spotify.com/track/4aWmUDTfIPGksMNLV2rQP2'
p2095
sg8
S'Despacito (Featuring Daddy Yankee)'
p2096
ssS'58zsLZPvfflaiIbNWoA22O'
p2097
(dp2098
g3
S"Rag'n'Bone Man"
p2099
sg5
I18
sg6
S'https://open.spotify.com/track/58zsLZPvfflaiIbNWoA22O'
p2100
sg8
S'Human'
p2101
ssS'35QZaWQRkmnAVqBF1TLCxQ'
p2102
(dp2103
g3
S'Ed Sheeran'
p2104
sg5
I3
sg6
S'https://open.spotify.com/track/35QZaWQRkmnAVqBF1TLCxQ'
p2105
sg8
S'Nancy Mulligan'
p2106
ssS'60APt5N2NRaKWf5xzJdzyC'
p2107
(dp2108
g3
S'Calvin Harris'
p2109
sg5
I3
sg6
S'https://open.spotify.com/track/60APt5N2NRaKWf5xzJdzyC'
p2110
sg8
S'Heatstroke'
p2111
ssS'3fA254g1hi9lbCCOW0z0wQ'
p2112
(dp2113
g3
S'Olli Lindholm'
p2114
sg5
I3
sg6
S'https://open.spotify.com/track/3fA254g1hi9lbCCOW0z0wQ'
p2115
sg8
S'Tuhoutuva tarina (Fairytale Gone Bad) - Vain el\xc3\xa4m\xc3\xa4\xc3\xa4 kausi 6'
p2116
ssS'25C5CowdsfXld2jJanbiex'
p2117
(dp2118
g3
S'Demi Lovato'
p2119
sg5
I11
sg6
S'https://open.spotify.com/track/25C5CowdsfXld2jJanbiex'
p2120
sg8
S'Sorry Not Sorry'
p2121
ssS'3mH4rqLgonRtC9CtVeXA1a'
p2122
(dp2123
g3
S'Erin'
p2124
sg5
I2
sg6
S'https://open.spotify.com/track/3mH4rqLgonRtC9CtVeXA1a'
p2125
sg8
S'Kun t\xc3\xa4n\xc3\xa4\xc3\xa4n l\xc3\xa4hden'
p2126
ssS'3qIdEwKBoCfEJpjAD0AP6B'
p2127
(dp2128
g3
S'Laura Voutilainen'
p2129
sg5
I6
sg6
S'https://open.spotify.com/track/3qIdEwKBoCfEJpjAD0AP6B'
p2130
sg8
S'T\xc3\xa4n\xc3\xa4 y\xc3\xb6n\xc3\xa4 taivaaseen (Vain el\xc3\xa4m\xc3\xa4\xc3\xa4 kausi 6)'
p2131
ssS'3Ton4GvRAl6Kp6LctQGND5'
p2132
(dp2133
g3
S'Sonny Alven'
p2134
sg5
I1
sg6
S'https://open.spotify.com/track/3Ton4GvRAl6Kp6LctQGND5'
p2135
sg8
S'Your Touch'
p2136
ssS'2Z8WuEywRWYTKe1NybPQEW'
p2137
(dp2138
g3
S'Twenty One Pilots'
p2139
sg5
I2
sg6
S'https://open.spotify.com/track/2Z8WuEywRWYTKe1NybPQEW'
p2140
sg8
S'Ride'
p2141
ssS'2dY1QsrYUeWDtSCvXlx0WW'
p2142
(dp2143
g3
S'Junge Junge'
p2144
sg5
I2
sg6
S'https://open.spotify.com/track/2dY1QsrYUeWDtSCvXlx0WW'
p2145
sg8
S"I Don't Love You (I'm Just Lonely)"
p2146
ssS'5mrI9lWwp9cbXwtDiCa3U3'
p2147
(dp2148
g3
S'Ideaali & Jay Who?'
p2149
sg5
I13
sg6
S'https://open.spotify.com/track/5mrI9lWwp9cbXwtDiCa3U3'
p2150
sg8
S'Kaikki ok'
p2151
ssS'52okn5MNA47tk87PeZJLEL'
p2152
(dp2153
g3
S'NF'
p2154
sg5
I1
sg6
S'https://open.spotify.com/track/52okn5MNA47tk87PeZJLEL'
p2155
sg8
S'Let You Down'
p2156
ssS'5JLo5WELPiUJq8LeSrBuzf'
p2157
(dp2158
g3
S'Madden'
p2159
sg5
I1
sg6
S'https://open.spotify.com/track/5JLo5WELPiUJq8LeSrBuzf'
p2160
sg8
S'Echo'
p2161
ssS'5ZmONkM9WonfNkBnJVeSf3'
p2162
(dp2163
g3
S'Lucas'
p2164
sg5
I3
sg6
S'https://open.spotify.com/track/5ZmONkM9WonfNkBnJVeSf3'
p2165
sg8
S'Puhu mulle'
p2166
ssS'5SleX0NFeODNY7Xenal3gr'
p2167
(dp2168
g3
S'Zara Larsson'
p2169
sg5
I9
sg6
S'https://open.spotify.com/track/5SleX0NFeODNY7Xenal3gr'
p2170
sg8
S'Only You'
p2171
ssS'4waYSI6TTW0guhTJc4gWzq'
p2172
(dp2173
g3
S'Reino Nordin'
p2174
sg5
I33
sg6
S'https://open.spotify.com/track/4waYSI6TTW0guhTJc4gWzq'
p2175
sg8
S'Antaudun'
p2176
ssS'6JV2JOEocMgcZxYSZelKcc'
p2177
(dp2178
g3
S'Justin Timberlake'
p2179
sg5
I4
sg6
S'https://open.spotify.com/track/6JV2JOEocMgcZxYSZelKcc'
p2180
sg8
S"CAN'T STOP THE FEELING! (Original Song from DreamWorks Animation's TROLLS)"
p2181
ssS'6rM9cEjF59L39Pj1jLFtvR'
p2182
(dp2183
g3
S'Kuningas P\xc3\xa4hkin\xc3\xa4 & Set\xc3\xa4 Tamu'
p2184
sg5
I5
sg6
S'https://open.spotify.com/track/6rM9cEjF59L39Pj1jLFtvR'
p2185
sg8
S'Uunopaita'
p2186
ssS'3482XY9uRNk84Kk95CvbiH'
p2187
(dp2188
g3
S'JVG'
p2189
sg5
I7
sg6
S'https://open.spotify.com/track/3482XY9uRNk84Kk95CvbiH'
p2190
sg8
S'Tyson'
p2191
ssS'17CJG9HTgAYVoANealClA6'
p2192
(dp2193
g3
S'Kuningasidea'
p2194
sg5
I1
sg6
S'https://open.spotify.com/track/17CJG9HTgAYVoANealClA6'
p2195
sg8
S'Tule ja sytyt\xc3\xa4'
p2196
ssS'6De0lHrwBfPfrhorm9q1Xl'
p2197
(dp2198
g3
S'Danny Ocean'
p2199
sg5
I12
sg6
S'https://open.spotify.com/track/6De0lHrwBfPfrhorm9q1Xl'
p2200
sg8
S'Me Reh\xc3\xbaso'
p2201
ssS'0UMaKcS7dY70v8uupjIdaq'
p2202
(dp2203
g3
S'Mikko Harju'
p2204
sg5
I17
sg6
S'https://open.spotify.com/track/0UMaKcS7dY70v8uupjIdaq'
p2205
sg8
S'Taivas ei oo rajana'
p2206
ssS'7aV2mflaASUmGhCErm7kBO'
p2207
(dp2208
g3
S'Nevada'
p2209
sg5
I2
sg6
S'https://open.spotify.com/track/7aV2mflaASUmGhCErm7kBO'
p2210
sg8
S'The Mack'
p2211
ssS'6bBFnPWD9u4rWFnUUhYyeo'
p2212
(dp2213
g3
S'Hurts'
p2214
sg5
I1
sg6
S'https://open.spotify.com/track/6bBFnPWD9u4rWFnUUhYyeo'
p2215
sg8
S'Beautiful Ones'
p2216
ssS'1vu8zEpTfoxLtpRFyRMEFn'
p2217
(dp2218
g3
S'Tungevaag & Raaban'
p2219
sg5
I1
sg6
S'https://open.spotify.com/track/1vu8zEpTfoxLtpRFyRMEFn'
p2220
sg8
S'Russian Roulette'
p2221
ssS'0bYg9bo50gSsH3LtXe2SQn'
p2222
(dp2223
g3
S'Mariah Carey'
p2224
sg5
I1
sg6
S'https://open.spotify.com/track/0bYg9bo50gSsH3LtXe2SQn'
p2225
sg8
S'All I Want for Christmas Is You'
p2226
ssS'6JiU0wPWiTtYKmal32jcDG'
p2227
(dp2228
g3
S'STIG'
p2229
sg5
I6
sg6
S'https://open.spotify.com/track/6JiU0wPWiTtYKmal32jcDG'
p2230
sg8
S'Korjaan sut'
p2231
ssS'4MV8yeKSsls4xev14yDXL6'
p2232
(dp2233
g3
S'TRXD'
p2234
sg5
I1
sg6
S'https://open.spotify.com/track/4MV8yeKSsls4xev14yDXL6'
p2235
sg8
S'Our City'
p2236
ssS'3bf34ookDu0b5WA9dIjfB6'
p2237
(dp2238
g3
S'Vesala'
p2239
sg5
I7
sg6
S'https://open.spotify.com/track/3bf34ookDu0b5WA9dIjfB6'
p2240
sg8
S'Tequila'
p2241
ssS'3B9bSXCVczfyc1nkUQ7IgL'
p2242
(dp2243
g3
S'Lauri T\xc3\xa4hk\xc3\xa4'
p2244
sg5
I16
sg6
S'https://open.spotify.com/track/3B9bSXCVczfyc1nkUQ7IgL'
p2245
sg8
S'Kipua (Vain el\xc3\xa4m\xc3\xa4\xc3\xa4 kausi 5)'
p2246
ssS'6jwZWnmUmh4Qz4LzuxWVxm'
p2247
(dp2248
g3
S'Raappana'
p2249
sg5
I16
sg6
S'https://open.spotify.com/track/6jwZWnmUmh4Qz4LzuxWVxm'
p2250
sg8
S'Chilii (feat. SINI YASEMIN)'
p2251
ssS'1qOLh0tI7trd1zdDKxYZTe'
p2252
(dp2253
g3
S'Hailee Steinfeld'
p2254
sg5
I8
sg6
S'https://open.spotify.com/track/1qOLh0tI7trd1zdDKxYZTe'
p2255
sg8
S'Starving'
p2256
ssS'7K74Z7Di9GOuI2fEqMYhPZ'
p2257
(dp2258
g3
S'Antti Tuisku'
p2259
sg5
I4
sg6
S'https://open.spotify.com/track/7K74Z7Di9GOuI2fEqMYhPZ'
p2260
sg8
S'Tragedia'
p2261
ssS'6BzQd6Ip99DrSv1Z8VKEso'
p2262
(dp2263
g3
S'Aurora'
p2264
sg5
I3
sg6
S'https://open.spotify.com/track/6BzQd6Ip99DrSv1Z8VKEso'
p2265
sg8
S'Satama'
p2266
ssS'7inXu0Eaeg02VsM8kHNvzM'
p2267
(dp2268
g3
S'Frank Sinatra'
p2269
sg5
I1
sg6
S'https://open.spotify.com/track/7inXu0Eaeg02VsM8kHNvzM'
p2270
sg8
S'Let It Snow! Let It Snow! Let It Snow!'
p2271
ssS'1jFYy4KngiDNpG5yw6cOQA'
p2272
(dp2273
g3
S'Roope Salminen & Koirat'
p2274
sg5
I25
sg6
S'https://open.spotify.com/track/1jFYy4KngiDNpG5yw6cOQA'
p2275
sg8
S'Tanssi se ulos (feat. Ellinoora)'
p2276
ssS'7taXf5odg9xCAZERYfyOkS'
p2277
(dp2278
g3
S'Jos\xc3\xa9 Feliciano'
p2279
sg5
I1
sg6
S'https://open.spotify.com/track/7taXf5odg9xCAZERYfyOkS'
p2280
sg8
S'Feliz Navidad'
p2281
ssS'6HYglpKfEq3rti6WEFMI8O'
p2282
(dp2283
g3
S'Hank Solo'
p2284
sg5
I14
sg6
S'https://open.spotify.com/track/6HYglpKfEq3rti6WEFMI8O'
p2285
sg8
S'S\xc3\xb6p\xc3\xb6'
p2286
ssS'1cG0umU5TKStygKsPFZ9pY'
p2287
(dp2288
g3
S'Robin Schulz'
p2289
sg5
I11
sg6
S'https://open.spotify.com/track/1cG0umU5TKStygKsPFZ9pY'
p2290
sg8
S'Shed a Light'
p2291
ssS'6520aj0B4FSKGVuKNsOCOi'
p2292
(dp2293
g3
S'Katy Perry'
p2294
sg5
I20
sg6
S'https://open.spotify.com/track/6520aj0B4FSKGVuKNsOCOi'
p2295
sg8
S'Chained To The Rhythm'
p2296
ssS'3caMfJGFp53NAH2TuigdNj'
p2297
(dp2298
g3
S'Galantis'
p2299
sg5
I16
sg6
S'https://open.spotify.com/track/3caMfJGFp53NAH2TuigdNj'
p2300
sg8
S'Hunter'
p2301
ssS'1cCWRquWcFHVFqYLm4wKwX'
p2302
(dp2303
g3
S'KOI'
p2304
sg5
I1
sg6
S'https://open.spotify.com/track/1cCWRquWcFHVFqYLm4wKwX'
p2305
sg8
S'Jummi Jammi'
p2306
ssS'6EpRaXYhGOB3fj4V2uDkMJ'
p2307
(dp2308
g3
S'Liam Payne'
p2309
sg5
I21
sg6
S'https://open.spotify.com/track/6EpRaXYhGOB3fj4V2uDkMJ'
p2310
sg8
S'Strip That Down'
p2311
ssS'5NafFxaLg9Ep21oTHBw7Zq'
p2312
(dp2313
g3
S'ALMA'
p2314
sg5
I20
sg6
S'https://open.spotify.com/track/5NafFxaLg9Ep21oTHBw7Zq'
p2315
sg8
S'Dye My Hair'
p2316
ssS'65MOTX6uSFAnqXl7dlAuId'
p2317
(dp2318
g3
S'Demi Lovato'
p2319
sg5
I1
sg6
S'https://open.spotify.com/track/65MOTX6uSFAnqXl7dlAuId'
p2320
sg8
S'Tell Me You Love Me'
p2321
ssS'3Db8OhBMmNPLv2rHYoP7Wf'
p2322
(dp2323
g3
S'John Gibbons'
p2324
sg5
I1
sg6
S'https://open.spotify.com/track/3Db8OhBMmNPLv2rHYoP7Wf'
p2325
sg8
S'P.Y.T. (Pretty Young Thing)'
p2326
ssS'5T4wJfpwn3sEJdA4OovEfR'
p2327
(dp2328
g3
S'Antti Tuisku'
p2329
sg5
I1
sg6
S'https://open.spotify.com/track/5T4wJfpwn3sEJdA4OovEfR'
p2330
sg8
S'L\xc3\xa4mmin lumi peitt\xc3\xa4\xc3\xa4 maan'
p2331
ssS'1wjzFQodRWrPcQ0AnYnvQ9'
p2332
(dp2333
g3
S'Lauv'
p2334
sg5
I17
sg6
S'https://open.spotify.com/track/1wjzFQodRWrPcQ0AnYnvQ9'
p2335
sg8
S'I Like Me Better'
p2336
ssS'0mKcAtaxD6JXeWjJL9ynN3'
p2337
(dp2338
g3
S'Vilma Alina'
p2339
sg5
I7
sg6
S'https://open.spotify.com/track/0mKcAtaxD6JXeWjJL9ynN3'
p2340
sg8
S'Syliin'
p2341
ssS'51PIvodunv6NmX5250zxAh'
p2342
(dp2343
g3
S'Lady Gaga'
p2344
sg5
I8
sg6
S'https://open.spotify.com/track/51PIvodunv6NmX5250zxAh'
p2345
sg8
S'The Cure'
p2346
ssS'4PdJSsESm34djLfBde9Pr2'
p2347
(dp2348
g3
S'David Guetta'
p2349
sg5
I9
sg6
S'https://open.spotify.com/track/4PdJSsESm34djLfBde9Pr2'
p2350
sg8
S'Would I Lie To You - Radio Edit'
p2351
ssS'69sL8ptg5heWIfcCZLIjH0'
p2352
(dp2353
g3
S'Antti Tuisku'
p2354
sg5
I1
sg6
S'https://open.spotify.com/track/69sL8ptg5heWIfcCZLIjH0'
p2355
sg8
S'Nauruterapiaa'
p2356
ssS'7abpmGpF7PGep2rDU68GBR'
p2357
(dp2358
g3
S'Burak Yeter'
p2359
sg5
I36
sg6
S'https://open.spotify.com/track/7abpmGpF7PGep2rDU68GBR'
p2360
sg8
S'Tuesday'
p2361
ssS'1hYSyi6LY9LkdYH0EjoFCO'
p2362
(dp2363
g3
S'Mikael Gabriel'
p2364
sg5
I4
sg6
S'https://open.spotify.com/track/1hYSyi6LY9LkdYH0EjoFCO'
p2365
sg8
S'Maailman Laidalla'
p2366
ssS'65hd7jI2WF1b6PzgwoFmdW'
p2367
(dp2368
g3
S'Profeetat'
p2369
sg5
I10
sg6
S'https://open.spotify.com/track/65hd7jI2WF1b6PzgwoFmdW'
p2370
sg8
S'Pipefest (feat. Paleface)'
p2371
ssS'4J8NOZRQ4L1ZYGCdn7jrvK'
p2372
(dp2373
g3
S'VG+'
p2374
sg5
I15
sg6
S'https://open.spotify.com/track/4J8NOZRQ4L1ZYGCdn7jrvK'
p2375
sg8
S'Bandida'
p2376
ssS'3GPI7hYiqD6enLRobhkBm8'
p2377
(dp2378
g3
S'ItaloBrothers'
p2379
sg5
I19
sg6
S'https://open.spotify.com/track/3GPI7hYiqD6enLRobhkBm8'
p2380
sg8
S'Summer Air'
p2381
ssS'3RDEG3j8qxMKgiupneVJof'
p2382
(dp2383
g3
S'Sima'
p2384
sg5
I1
sg6
S'https://open.spotify.com/track/3RDEG3j8qxMKgiupneVJof'
p2385
sg8
S'Me ei kuolla pitk\xc3\xa4\xc3\xa4n aikaan'
p2386
ssS'2XMTqoHHSH0lvuXrvIEdco'
p2387
(dp2388
g3
S'FRENSHIP'
p2389
sg5
I1
sg6
S'https://open.spotify.com/track/2XMTqoHHSH0lvuXrvIEdco'
p2390
sg8
S'Capsize'
p2391
ssS'5MFzQMkrl1FOOng9tq6R9r'
p2392
(dp2393
g3
S'Maroon 5'
p2394
sg5
I11
sg6
S'https://open.spotify.com/track/5MFzQMkrl1FOOng9tq6R9r'
p2395
sg8
S"Don't Wanna Know"
p2396
ssS'2yPsvRUHsYoXMkJDVf7QUf'
p2397
(dp2398
g3
S'P\xc3\xa4\xc3\xa4-\xc3\xa4ij\xc3\xa4t'
p2399
sg5
I4
sg6
S'https://open.spotify.com/track/2yPsvRUHsYoXMkJDVf7QUf'
p2400
sg8
S'Pohjanmaan kautta'
p2401
ssS'6pstdjNL2P9I3XaWHL6EwR'
p2402
(dp2403
g3
S'Popeda'
p2404
sg5
I3
sg6
S'https://open.spotify.com/track/6pstdjNL2P9I3XaWHL6EwR'
p2405
sg8
S'Lihaa Ja Perunaa'
p2406
ssS'0WXuXuBzGt1dBB5BWUTfCT'
p2407
(dp2408
g3
S'SONNY'
p2409
sg5
I6
sg6
S'https://open.spotify.com/track/0WXuXuBzGt1dBB5BWUTfCT'
p2410
sg8
S'Meininkei'
p2411
ssS'0KKkJNfGyhkQ5aFogxQAPU'
p2412
(dp2413
g3
S'Bruno Mars'
p2414
sg5
I27
sg6
S'https://open.spotify.com/track/0KKkJNfGyhkQ5aFogxQAPU'
p2415
sg8
S"That's What I Like"
p2416
ssS'1ElghIQKSmdL7FxDQWBv2I'
p2417
(dp2418
g3
S'T\xc3\xb6\xc3\xb6l\xc3\xb6n Ketter\xc3\xa4'
p2419
sg5
I4
sg6
S'https://open.spotify.com/track/1ElghIQKSmdL7FxDQWBv2I'
p2420
sg8
S'Valitsemaanne numeroon (feat. Vesta)'
p2421
ssS'64ccWAY1LFSlXoXsn9oNHO'
p2422
(dp2423
g3
S'Herrat'
p2424
sg5
I21
sg6
S'https://open.spotify.com/track/64ccWAY1LFSlXoXsn9oNHO'
p2425
sg8
S'Kumiankka'
p2426
ssS'2V3DvNiAmfWpynig9FiKiY'
p2427
(dp2428
g3
S'Mikael Gabriel'
p2429
sg5
I4
sg6
S'https://open.spotify.com/track/2V3DvNiAmfWpynig9FiKiY'
p2430
sg8
S'Vuoden Mies'
p2431
ssS'5pkeqhgZ3FgOvOigeLHgas'
p2432
(dp2433
g3
S'Samu'
p2434
sg5
I16
sg6
S'https://open.spotify.com/track/5pkeqhgZ3FgOvOigeLHgas'
p2435
sg8
S'Hiljaisuus (Vain el\xc3\xa4m\xc3\xa4\xc3\xa4 kausi 6)'
p2436
ssS'3U4UamgGQtX5HJBf1lSYKn'
p2437
(dp2438
g3
S'Arttu Lindeman'
p2439
sg5
I5
sg6
S'https://open.spotify.com/track/3U4UamgGQtX5HJBf1lSYKn'
p2440
sg8
S'Parempaan en pysty'
p2441
ssS'1muCBK4szY3txmhmggyxHv'
p2442
(dp2443
g3
S'Gasellit'
p2444
sg5
I1
sg6
S'https://open.spotify.com/track/1muCBK4szY3txmhmggyxHv'
p2445
sg8
S'Liimaa'
p2446
ssS'4mxWSdf71VFO52qFeY0fZt'
p2447
(dp2448
g3
S'Maroon 5'
p2449
sg5
I6
sg6
S'https://open.spotify.com/track/4mxWSdf71VFO52qFeY0fZt'
p2450
sg8
S'What Lovers Do (feat. SZA)'
p2451
ssS'0hCcoODav6ANUDe4WNZxjK'
p2452
(dp2453
g3
S'T\xc3\xb6\xc3\xb6l\xc3\xb6n Ketter\xc3\xa4'
p2454
sg5
I3
sg6
S'https://open.spotify.com/track/0hCcoODav6ANUDe4WNZxjK'
p2455
sg8
S'Kuplii (feat. VG+)'
p2456
ssS'66ynkku8tI6KLY3i0ELzQL'
p2457
(dp2458
g3
S'Mikael Gabriel'
p2459
sg5
I1
sg6
S'https://open.spotify.com/track/66ynkku8tI6KLY3i0ELzQL'
p2460
sg8
S'Linjat Tukos'
p2461
ssS'4D0GI0qPQVjkgS6qjOLgUi'
p2462
(dp2463
g3
S'Avain'
p2464
sg5
I1
sg6
S'https://open.spotify.com/track/4D0GI0qPQVjkgS6qjOLgUi'
p2465
sg8
S'Punainen tiili'
p2466
ssS'0eZBeB2xFIS65jQHerispi'
p2467
(dp2468
g3
S'Disturbed'
p2469
sg5
I6
sg6
S'https://open.spotify.com/track/0eZBeB2xFIS65jQHerispi'
p2470
sg8
S'The Sound Of Silence'
p2471
ssS'6bjQXLHkAMGq9Yjh6oIPzd'
p2472
(dp2473
g3
S'Profeetat'
p2474
sg5
I11
sg6
S'https://open.spotify.com/track/6bjQXLHkAMGq9Yjh6oIPzd'
p2475
sg8
S'EYO (feat. Nelli Matula)'
p2476
ssS'3nSiEJPNSH86D7JTFsyyly'
p2477
(dp2478
g3
S'Arttu Wiskari'
p2479
sg5
I19
sg6
S'https://open.spotify.com/track/3nSiEJPNSH86D7JTFsyyly'
p2480
sg8
S'Meid\xc3\xa4n biisi'
p2481
ssS'2d8EquHi6gIpwknkCPSCKm'
p2482
(dp2483
g3
S'Jenni Vartiainen'
p2484
sg5
I15
sg6
S'https://open.spotify.com/track/2d8EquHi6gIpwknkCPSCKm'
p2485
sg8
S'Se oikea'
p2486
ssS'5ssii6iDDZXsixgD9wgm8n'
p2487
(dp2488
g3
S'Isac Elliot'
p2489
sg5
I8
sg6
S'https://open.spotify.com/track/5ssii6iDDZXsixgD9wgm8n'
p2490
sg8
S'SHE'
p2491
ssS'2ZomEiXqDZZDVVfyjRLV0N'
p2492
(dp2493
g3
S'Jenni Vartiainen'
p2494
sg5
I2
sg6
S'https://open.spotify.com/track/2ZomEiXqDZZDVVfyjRLV0N'
p2495
sg8
S'Mato (Vain el\xc3\xa4m\xc3\xa4\xc3\xa4 kausi 7)'
p2496
ssS'3MzDvWYbRMAgkOFu5DhNvh'
p2497
(dp2498
g3
S'James Blunt'
p2499
sg5
I1
sg6
S'https://open.spotify.com/track/3MzDvWYbRMAgkOFu5DhNvh'
p2500
sg8
S'Love Me Better'
p2501
ssS'4wQEyHLxmvWJsjjFs5h5Ap'
p2502
(dp2503
g3
S'Nikke Ankara'
p2504
sg5
I6
sg6
S'https://open.spotify.com/track/4wQEyHLxmvWJsjjFs5h5Ap'
p2505
sg8
S'Nothing Is Over - Vain El\xc3\xa4m\xc3\xa4\xc3\xa4 Kausi 6'
p2506
ssS'6gBFPUFcJLzWGx4lenP6h2'
p2507
(dp2508
g3
S'Travis Scott'
p2509
sg5
I9
sg6
S'https://open.spotify.com/track/6gBFPUFcJLzWGx4lenP6h2'
p2510
sg8
S'goosebumps'
p2511
ssS'4E1WFEtxVFEeS0xLYpxORc'
p2512
(dp2513
g3
S'Juno'
p2514
sg5
I2
sg6
S'https://open.spotify.com/track/4E1WFEtxVFEeS0xLYpxORc'
p2515
sg8
S'Sulle ja sulle'
p2516
ssS'1CqiMbYuA1CBy6Rh5aOFBh'
p2517
(dp2518
g3
S'Samuli Putro'
p2519
sg5
I2
sg6
S'https://open.spotify.com/track/1CqiMbYuA1CBy6Rh5aOFBh'
p2520
sg8
S'Matkamuistot'
p2521
ssS'65LRP6ICyKf3rwfoivKi1Z'
p2522
(dp2523
g3
S'Raappana'
p2524
sg5
I10
sg6
S'https://open.spotify.com/track/65LRP6ICyKf3rwfoivKi1Z'
p2525
sg8
S'Kriipii'
p2526
ssS'4q8PHoRsPUB52LFylX8Ulz'
p2527
(dp2528
g3
S'Axwell /\\ Ingrosso'
p2529
sg5
I9
sg6
S'https://open.spotify.com/track/4q8PHoRsPUB52LFylX8Ulz'
p2530
sg8
S'More Than You Know'
p2531
ssS'2K5PXsXyUpKpIO5LL5xB4F'
p2532
(dp2533
g3
S'Cheek'
p2534
sg5
I3
sg6
S'https://open.spotify.com/track/2K5PXsXyUpKpIO5LL5xB4F'
p2535
sg8
S'Vahinko (Vain el\xc3\xa4m\xc3\xa4\xc3\xa4 kausi 7)'
p2536
ssS'7AQim7LbvFVZJE3O8TYgf2'
p2537
(dp2538
g3
S'XXXTENTACION'
p2539
sg5
I4
sg6
S'https://open.spotify.com/track/7AQim7LbvFVZJE3O8TYgf2'
p2540
sg8
S'Fuck Love (feat. Trippie Redd)'
p2541
ssS'77V0TWycxV4wuhcip5LF3X'
p2542
(dp2543
g3
S'David Guetta'
p2544
sg5
I2
sg6
S'https://open.spotify.com/track/77V0TWycxV4wuhcip5LF3X'
p2545
sg8
S'Sexy Bitch (feat. Akon) - feat. Akon'
p2546
ssS'5rOOjGQLkVdbyMnlu96KFP'
p2547
(dp2548
g3
S'Mouhous'
p2549
sg5
I7
sg6
S'https://open.spotify.com/track/5rOOjGQLkVdbyMnlu96KFP'
p2550
sg8
S'Leposyke 300'
p2551
ssS'6cPyTS0Kk2sc4xQwC93kOg'
p2552
(dp2553
g3
S'The Chainsmokers'
p2554
sg5
I3
sg6
S'https://open.spotify.com/track/6cPyTS0Kk2sc4xQwC93kOg'
p2555
sg8
S'Break Up Every Night'
p2556
ssS'6eUncuJutsFi9BGO1JaBHh'
p2557
(dp2558
g3
S'Jason Derulo'
p2559
sg5
I6
sg6
S'https://open.spotify.com/track/6eUncuJutsFi9BGO1JaBHh'
p2560
sg8
S"If I'm Lucky"
p2561
ssS'31MkGwj0SWgZaTvEt5Hgxv'
p2562
(dp2563
g3
S'P!nk'
p2564
sg5
I9
sg6
S'https://open.spotify.com/track/31MkGwj0SWgZaTvEt5Hgxv'
p2565
sg8
S'What About Us'
p2566
ssS'60a0Rd6pjrkxjPbaKzXjfq'
p2567
(dp2568
g3
S'Linkin Park'
p2569
sg5
I7
sg6
S'https://open.spotify.com/track/60a0Rd6pjrkxjPbaKzXjfq'
p2570
sg8
S'In The End'
p2571
ssS'6h4EXoiVFJehGrK9Xl8Zeo'
p2572
(dp2573
g3
S'JVG'
p2574
sg5
I7
sg6
S'https://open.spotify.com/track/6h4EXoiVFJehGrK9Xl8Zeo'
p2575
sg8
S'Hombre (feat. Vesala)'
p2576
ssS'43jBqV3j3Xi1g6wO0bhIMd'
p2577
(dp2578
g3
S'Sage The Gemini'
p2579
sg5
I15
sg6
S'https://open.spotify.com/track/43jBqV3j3Xi1g6wO0bhIMd'
p2580
sg8
S'Now and Later'
p2581
ssS'3pC1ILr9KzmQLMe8Kn5QBG'
p2582
(dp2583
g3
S'DJ Khaled'
p2584
sg5
I1
sg6
S'https://open.spotify.com/track/3pC1ILr9KzmQLMe8Kn5QBG'
p2585
sg8
S'To the Max'
p2586
ssS'0V9cosR5jWa4fr2koARmhD'
p2587
(dp2588
g3
S'ItaloBrothers'
p2589
sg5
I5
sg6
S'https://open.spotify.com/track/0V9cosR5jWa4fr2koARmhD'
p2590
sg8
S'Summer Air'
p2591
ssS'5bxzW0VtNrtEItl5SegwAh'
p2592
(dp2593
g3
S'Heikki Kuula'
p2594
sg5
I1
sg6
S'https://open.spotify.com/track/5bxzW0VtNrtEItl5SegwAh'
p2595
sg8
S'Aku Ankka'
p2596
ssS'5hz9DEkahyWoTs3rxJOTtw'
p2597
(dp2598
g3
S'Felix Jaehn'
p2599
sg5
I1
sg6
S'https://open.spotify.com/track/5hz9DEkahyWoTs3rxJOTtw'
p2600
sg8
S'Bonfire'
p2601
ssS'1e1JKLEDKP7hEQzJfNAgPl'
p2602
(dp2603
g3
S'Playboi Carti'
p2604
sg5
I1
sg6
S'https://open.spotify.com/track/1e1JKLEDKP7hEQzJfNAgPl'
p2605
sg8
S'Magnolia'
p2606
ssS'4h9oBIwZ5he6rgXI2mgPEJ'
p2607
(dp2608
g3
S'JVG'
p2609
sg5
I7
sg6
S'https://open.spotify.com/track/4h9oBIwZ5he6rgXI2mgPEJ'
p2610
sg8
S'Matti & Teppo'
p2611
ssS'3VRk65lHSwqd90TAkQqhvB'
p2612
(dp2613
g3
S'Katy Perry'
p2614
sg5
I2
sg6
S'https://open.spotify.com/track/3VRk65lHSwqd90TAkQqhvB'
p2615
sg8
S'Swish Swish'
p2616
ssS'5eqK0tbzUPo2SoeZsov04s'
p2617
(dp2618
g3
S'21 Savage'
p2619
sg5
I8
sg6
S'https://open.spotify.com/track/5eqK0tbzUPo2SoeZsov04s'
p2620
sg8
S'Bank Account'
p2621
ssS'1xzLCI0dnKwITZvDEqcpiF'
p2622
(dp2623
g3
S'Antti Tuisku'
p2624
sg5
I1
sg6
S'https://open.spotify.com/track/1xzLCI0dnKwITZvDEqcpiF'
p2625
sg8
S'Avaruus'
p2626
ssS'5KjdyZ5vRSx0zhZvuM51JQ'
p2627
(dp2628
g3
S'Arttu Lindeman'
p2629
sg5
I7
sg6
S'https://open.spotify.com/track/5KjdyZ5vRSx0zhZvuM51JQ'
p2630
sg8
S'Lapioin'
p2631
ssS'7mHTOPxVftpF1G2tCgrtOB'
p2632
(dp2633
g3
S'Chisu'
p2634
sg5
I5
sg6
S'https://open.spotify.com/track/7mHTOPxVftpF1G2tCgrtOB'
p2635
sg8
S'Polte (Vain el\xc3\xa4m\xc3\xa4\xc3\xa4 kausi 5)'
p2636
ssS'0D8ZpOXVjapLXrjz5VfZSD'
p2637
(dp2638
g3
S'Sam Smith'
p2639
sg5
I1
sg6
S'https://open.spotify.com/track/0D8ZpOXVjapLXrjz5VfZSD'
p2640
sg8
S'Pray'
p2641
ssS'2nYwV62UABTH0NanrwVIdQ'
p2642
(dp2643
g3
S'Rae Sremmurd'
p2644
sg5
I3
sg6
S'https://open.spotify.com/track/2nYwV62UABTH0NanrwVIdQ'
p2645
sg8
S'Perplexing Pegasus'
p2646
ssS'3zi7NzEYJ6lusvCasRy3qO'
p2647
(dp2648
g3
S'JVG'
p2649
sg5
I4
sg6
S'https://open.spotify.com/track/3zi7NzEYJ6lusvCasRy3qO'
p2650
sg8
S'Se ei oo niin (feat. Pete Parkkonen)'
p2651
ssS'5p3NP9mQblDsVJLdfNZJ3I'
p2652
(dp2653
g3
S'Kendrick Lamar'
p2654
sg5
I1
sg6
S'https://open.spotify.com/track/5p3NP9mQblDsVJLdfNZJ3I'
p2655
sg8
S'GOD.'
p2656
ssS'31yXZLCnaUSXvrZYCK91BH'
p2657
(dp2658
g3
S'Gasellit'
p2659
sg5
I1
sg6
S'https://open.spotify.com/track/31yXZLCnaUSXvrZYCK91BH'
p2660
sg8
S'Slussen'
p2661
ssS'0QMQzOLL3tUDnCEcpolpBe'
p2662
(dp2663
g3
S'IKE'
p2664
sg5
I4
sg6
S'https://open.spotify.com/track/0QMQzOLL3tUDnCEcpolpBe'
p2665
sg8
S'Jonkun Ex'
p2666
ssS'7o2CTH4ctstm8TNelqjb51'
p2667
(dp2668
g3
S"Guns N' Roses"
p2669
sg5
I1
sg6
S'https://open.spotify.com/track/7o2CTH4ctstm8TNelqjb51'
p2670
sg8
S"Sweet Child O' Mine"
p2671
ssS'5XiZK7m9PLppgIzJBpw2x5'
p2672
(dp2673
g3
S'Martin Jensen'
p2674
sg5
I4
sg6
S'https://open.spotify.com/track/5XiZK7m9PLppgIzJBpw2x5'
p2675
sg8
S'Wait'
p2676
ssS'7LCZx53cCQflaPQK6cFVGH'
p2677
(dp2678
g3
S'Vesala'
p2679
sg5
I1
sg6
S'https://open.spotify.com/track/7LCZx53cCQflaPQK6cFVGH'
p2680
sg8
S'Ei pystyny hengitt\xc3\xa4\xc3\xa4'
p2681
ssS'6a9Yc4mnNameCjDEdfpXSv'
p2682
(dp2683
g3
S'Marcus & Martinus'
p2684
sg5
I4
sg6
S'https://open.spotify.com/track/6a9Yc4mnNameCjDEdfpXSv'
p2685
sg8
S'Dance With You'
p2686
ssS'3OzaJNDAvswIdrRosCojRu'
p2687
(dp2688
g3
S'Joulupukki'
p2689
sg5
I1
sg6
S'https://open.spotify.com/track/3OzaJNDAvswIdrRosCojRu'
p2690
sg8
S'Joulupukki matkaan jo k\xc3\xa4y - Santa Claus Is Coming To Town'
p2691
ssS'3veL22ZaPBFeeLoraIY6T0'
p2692
(dp2693
g3
S'Epelit'
p2694
sg5
I1
sg6
S'https://open.spotify.com/track/3veL22ZaPBFeeLoraIY6T0'
p2695
sg8
S'EPE-LIT-MANE'
p2696
ssS'5q5gzmbBS5yQzos2BvVr1t'
p2697
(dp2698
g3
S'M\xc3\x98'
p2699
sg5
I2
sg6
S'https://open.spotify.com/track/5q5gzmbBS5yQzos2BvVr1t'
p2700
sg8
S'Nights With You'
p2701
ssS'3jSE1bIVlTMet3TBctbYoT'
p2702
(dp2703
g3
S'Vilma Alina'
p2704
sg5
I4
sg6
S'https://open.spotify.com/track/3jSE1bIVlTMet3TBctbYoT'
p2705
sg8
S'Juha88'
p2706
ssS'0mt02gJ425Xjm7c3jYkOBn'
p2707
(dp2708
g3
S'Lana Del Rey'
p2709
sg5
I1
sg6
S'https://open.spotify.com/track/0mt02gJ425Xjm7c3jYkOBn'
p2710
sg8
S'Lust For Life (with The Weeknd)'
p2711
ssS'6fZ3uERao8KUwL53TOOdLS'
p2712
(dp2713
g3
S'JXO'
p2714
sg5
I8
sg6
S'https://open.spotify.com/track/6fZ3uERao8KUwL53TOOdLS'
p2715
sg8
S'Kaikkien tytt\xc3\xb6jen mielest\xc3\xa4'
p2716
ssS'7m9OqQk4RVRkw9JJdeAw96'
p2717
(dp2718
g3
S'XXXTENTACION'
p2719
sg5
I7
sg6
S'https://open.spotify.com/track/7m9OqQk4RVRkw9JJdeAw96'
p2720
sg8
S'Jocelyn Flores'
p2721
ssS'7ooHagUVhmaGGQzvPJ9xXs'
p2722
(dp2723
g3
S'JVG'
p2724
sg5
I1
sg6
S'https://open.spotify.com/track/7ooHagUVhmaGGQzvPJ9xXs'
p2725
sg8
S'Huominen on huomenna - feat. Anna Abreu'
p2726
ssS'0qQ2TDJ42jGaEHE5cJAuG5'
p2727
(dp2728
g3
S'Mikael Gabriel'
p2729
sg5
I28
sg6
S'https://open.spotify.com/track/0qQ2TDJ42jGaEHE5cJAuG5'
p2730
sg8
S'Lumi Teki Enkelin Eteiseen - Vain El\xc3\xa4m\xc3\xa4\xc3\xa4 Kausi 5'
p2731
ssS'5OYUtKjALXnNjXRwTVStCK'
p2732
(dp2733
g3
S'AronChupa'
p2734
sg5
I10
sg6
S'https://open.spotify.com/track/5OYUtKjALXnNjXRwTVStCK'
p2735
sg8
S'Llama In My Living Room'
p2736
ssS'5aAx2yezTd8zXrkmtKl66Z'
p2737
(dp2738
g3
S'The Weeknd'
p2739
sg5
I33
sg6
S'https://open.spotify.com/track/5aAx2yezTd8zXrkmtKl66Z'
p2740
sg8
S'Starboy'
p2741
ssS'6WXkjual1qVBu0L2iD8bBa'
p2742
(dp2743
g3
S'Kube'
p2744
sg5
I7
sg6
S'https://open.spotify.com/track/6WXkjual1qVBu0L2iD8bBa'
p2745
sg8
S'Originaali'
p2746
ssS'2BrzlUj1u1CtvaJDGIKpsP'
p2747
(dp2748
g3
S'Noah Cyrus'
p2749
sg5
I11
sg6
S'https://open.spotify.com/track/2BrzlUj1u1CtvaJDGIKpsP'
p2750
sg8
S'Make Me (Cry)'
p2751
ssS'1SJtlNRJDeYHioymcvsqev'
p2752
(dp2753
g3
S'Camila Cabello'
p2754
sg5
I21
sg6
S'https://open.spotify.com/track/1SJtlNRJDeYHioymcvsqev'
p2755
sg8
S'Crying in the Club'
p2756
ssS'0xU0O3fzfb1HCnd6nsVxQL'
p2757
(dp2758
g3
S'Gasellit'
p2759
sg5
I37
sg6
S'https://open.spotify.com/track/0xU0O3fzfb1HCnd6nsVxQL'
p2760
sg8
S'Imus'
p2761
ssS'0Wv5wuenRLI3BcwgT3HPIP'
p2762
(dp2763
g3
S'DJ Snake'
p2764
sg5
I3
sg6
S'https://open.spotify.com/track/0Wv5wuenRLI3BcwgT3HPIP'
p2765
sg8
S'A Different Way (with Lauv)'
p2766
ssS'04DwTuZ2VBdJCCC5TROn7L'
p2767
(dp2768
g3
S'Martin Garrix'
p2769
sg5
I12
sg6
S'https://open.spotify.com/track/04DwTuZ2VBdJCCC5TROn7L'
p2770
sg8
S'In the Name of Love'
p2771
ssS'1TlSTa2eps7lIg6yDjehuT'
p2772
(dp2773
g3
S'Reino Nordin'
p2774
sg5
I25
sg6
S'https://open.spotify.com/track/1TlSTa2eps7lIg6yDjehuT'
p2775
sg8
S'Momentumii'
p2776
ssS'5WytJMdICvcrJF6JY0W4pl'
p2777
(dp2778
g3
S'Robin'
p2779
sg5
I29
sg6
S'https://open.spotify.com/track/5WytJMdICvcrJF6JY0W4pl'
p2780
sg8
S'Hula Hula'
p2781
ssS'1yFiaFeSLpw4nDYTeErRZ6'
p2782
(dp2783
g3
S'Linkin Park'
p2784
sg5
I1
sg6
S'https://open.spotify.com/track/1yFiaFeSLpw4nDYTeErRZ6'
p2785
sg8
S'Leave Out All The Rest'
p2786
ssS'0pSBuHjILhNEo55xK1zrRt'
p2787
(dp2788
g3
S'Ayo & Teo'
p2789
sg5
I9
sg6
S'https://open.spotify.com/track/0pSBuHjILhNEo55xK1zrRt'
p2790
sg8
S'Rolex'
p2791
ssS'4JAyIDXOqNM6qHuZML01uX'
p2792
(dp2793
g3
g312
sg5
I1
sg6
S'https://open.spotify.com/track/4JAyIDXOqNM6qHuZML01uX'
p2794
sg8
g312
ssS'6qBoGwWaCo60MnCjIBanEC'
p2795
(dp2796
g3
S'Petri Nyg\xc3\xa5rd'
p2797
sg5
I1
sg6
S'https://open.spotify.com/track/6qBoGwWaCo60MnCjIBanEC'
p2798
sg8
S'Soittorasia'
p2799
ssS'6VRghJeP6I0w1KxkdWFfIh'
p2800
(dp2801
g3
S'Imagine Dragons'
p2802
sg5
I3
sg6
S'https://open.spotify.com/track/6VRghJeP6I0w1KxkdWFfIh'
p2803
sg8
S'Believer'
p2804
ssS'7fY6vgPbOXJGzWR4ucuOnl'
p2805
(dp2806
g3
S'Cheek'
p2807
sg5
I5
sg6
S'https://open.spotify.com/track/7fY6vgPbOXJGzWR4ucuOnl'
p2808
sg8
S'Keinu'
p2809
ssS'56fCI6qlI3HOE2rjp9SKAm'
p2810
(dp2811
g3
S'Marcus & Martinus'
p2812
sg5
I6
sg6
S'https://open.spotify.com/track/56fCI6qlI3HOE2rjp9SKAm'
p2813
sg8
S'Like It Like It'
p2814
ssS'6SznMYPQJHzr3IwsAHLId2'
p2815
(dp2816
g3
S'Ed Sheeran'
p2817
sg5
I2
sg6
S'https://open.spotify.com/track/6SznMYPQJHzr3IwsAHLId2'
p2818
sg8
S'Bibia Be Ye Ye'
p2819
ssS'7xXO80FA9PJrMqGkZaDdwH'
p2820
(dp2821
g3
S'Arttu Lindeman'
p2822
sg5
I8
sg6
S'https://open.spotify.com/track/7xXO80FA9PJrMqGkZaDdwH'
p2823
sg8
S'Menee tunteisiin'
p2824
ssS'2Za1AlJNvksouPPWbXpR2X'
p2825
(dp2826
g3
S'Macklemore'
p2827
sg5
I3
sg6
S'https://open.spotify.com/track/2Za1AlJNvksouPPWbXpR2X'
p2828
sg8
S'Good Old Days (feat. Kesha)'
p2829
ssS'4EuXGaOmNNPOSpfvfST5b8'
p2830
(dp2831
g3
S'Pete Parkkonen'
p2832
sg5
I18
sg6
S'https://open.spotify.com/track/4EuXGaOmNNPOSpfvfST5b8'
p2833
sg8
S'Kohta sataa'
p2834
ssS'3Ii8jcQ7azpyVva3Wx3s7Z'
p2835
(dp2836
g3
S'Nikke Ankara'
p2837
sg5
I1
sg6
S'https://open.spotify.com/track/3Ii8jcQ7azpyVva3Wx3s7Z'
p2838
sg8
S'Spesiaali'
p2839
ssS'6oMdeG38DsMoHG6LrbseGs'
p2840
(dp2841
g3
S'Jarkko Ahola'
p2842
sg5
I1
sg6
S'https://open.spotify.com/track/6oMdeG38DsMoHG6LrbseGs'
p2843
sg8
S'Sylvian joululaulu'
p2844
ssS'2NX10XrdV9oWNQBu7oiiWC'
p2845
(dp2846
g3
S'ALMA'
p2847
sg5
I14
sg6
S'https://open.spotify.com/track/2NX10XrdV9oWNQBu7oiiWC'
p2848
sg8
S'Karma'
p2849
ssS'3TeBDiwz0qrBJAFATBcmTx'
p2850
(dp2851
g3
S'Charli XCX'
p2852
sg5
I1
sg6
S'https://open.spotify.com/track/3TeBDiwz0qrBJAFATBcmTx'
p2853
sg8
S'After The Afterparty (feat. Lil Yachty) - Alan Walker Remix'
p2854
ssS'1MksGqIztTT6M9R1ErKVs8'
p2855
(dp2856
g3
S'Big Sean'
p2857
sg5
I2
sg6
S'https://open.spotify.com/track/1MksGqIztTT6M9R1ErKVs8'
p2858
sg8
S'No Favors'
p2859
ssS'3alPDAOFUigcNwfR0sjjw7'
p2860
(dp2861
g3
S'Suvi Ter\xc3\xa4sniska'
p2862
sg5
I1
sg6
S'https://open.spotify.com/track/3alPDAOFUigcNwfR0sjjw7'
p2863
sg8
S'T\xc3\xa4hti t\xc3\xa4hdist\xc3\xa4 kirkkain'
p2864
ssS'4pR2ghU4F61Zzmi8qWFYlA'
p2865
(dp2866
g3
S'Robin'
p2867
sg5
I10
sg6
S'https://open.spotify.com/track/4pR2ghU4F61Zzmi8qWFYlA'
p2868
sg8
S'Tuuleksi Taivaanrantaan - Vain El\xc3\xa4m\xc3\xa4\xc3\xa4 Kausi 6'
p2869
ssS'3btQ3ZyrZc6iZ8q31gmLu4'
p2870
(dp2871
g3
S'Aste'
p2872
sg5
I17
sg6
S'https://open.spotify.com/track/3btQ3ZyrZc6iZ8q31gmLu4'
p2873
sg8
S'Luonasi'
p2874
ssS'7IBG7tXdBiuFdDEEMETXe2'
p2875
(dp2876
g3
S'Skandaali'
p2877
sg5
I14
sg6
S'https://open.spotify.com/track/7IBG7tXdBiuFdDEEMETXe2'
p2878
sg8
S'Panomies'
p2879
ssS'7A9apF3lxPLOO0qLPAF9Nx'
p2880
(dp2881
g3
S'Annie Leigh'
p2882
sg5
I1
sg6
S'https://open.spotify.com/track/7A9apF3lxPLOO0qLPAF9Nx'
p2883
sg8
S'Joy To the World'
p2884
ssS'77wqg8YCuX9ByRPxq4YW1Z'
p2885
(dp2886
g3
S'Gasellit'
p2887
sg5
I1
sg6
S'https://open.spotify.com/track/77wqg8YCuX9ByRPxq4YW1Z'
p2888
sg8
S'Sakkoi'
p2889
ssS'4XLUb3G60PlvrAXZgieBcg'
p2890
(dp2891
g3
S'Sini Sabotage'
p2892
sg5
I3
sg6
S'https://open.spotify.com/track/4XLUb3G60PlvrAXZgieBcg'
p2893
sg8
S'Lande'
p2894
ssS'4BSvTEX3hAVy9p2DYxixQb'
p2895
(dp2896
g3
S'Darude'
p2897
sg5
I3
sg6
S'https://open.spotify.com/track/4BSvTEX3hAVy9p2DYxixQb'
p2898
sg8
S'Sandstorm - Radio Edit'
p2899
ssS'0oZlGckkauQ76l88ECJXed'
p2900
(dp2901
g3
S'Janna'
p2902
sg5
I13
sg6
S'https://open.spotify.com/track/0oZlGckkauQ76l88ECJXed'
p2903
sg8
S'Mit\xc3\xa4 Jos'
p2904
ssS'5eyPzqRneS2BtocXaZvpIi'
p2905
(dp2906
g3
S'Ida Paul & Kalle Lindroth'
p2907
sg5
I18
sg6
S'https://open.spotify.com/track/5eyPzqRneS2BtocXaZvpIi'
p2908
sg8
S'Hakuammuntaa'
p2909
ssS'0xLCa6dp0wmDUhkDGKzDpv'
p2910
(dp2911
g3
S'Bebe Rexha'
p2912
sg5
I10
sg6
S'https://open.spotify.com/track/0xLCa6dp0wmDUhkDGKzDpv'
p2913
sg8
S'F.F.F. (feat. G-Eazy)'
p2914
ssS'1muAf2i6NwO1O7MMEr0A8O'
p2915
(dp2916
g3
S'Profeetat'
p2917
sg5
I42
sg6
S'https://open.spotify.com/track/1muAf2i6NwO1O7MMEr0A8O'
p2918
sg8
S'Sinuhe'
p2919
ssS'13ll8UnNYHScDsQDSSj3QI'
p2920
(dp2921
g3
S'Robba'
p2922
sg5
I3
sg6
S'https://open.spotify.com/track/13ll8UnNYHScDsQDSSj3QI'
p2923
sg8
S'Suoraa inee'
p2924
ssS'1n4jwRVXdkK2U34nBDUKKT'
p2925
(dp2926
g3
S'Kendrick Lamar'
p2927
sg5
I1
sg6
S'https://open.spotify.com/track/1n4jwRVXdkK2U34nBDUKKT'
p2928
sg8
S'BLOOD.'
p2929
ssS'3GVkPk8mqxz0itaAriG1L7'
p2930
(dp2931
g3
S'XXXTENTACION'
p2932
sg5
I3
sg6
S'https://open.spotify.com/track/3GVkPk8mqxz0itaAriG1L7'
p2933
sg8
S'Everybody Dies In Their Nightmares'
p2934
ssS'65ACnVMmePTp8Xdk11jP2y'
p2935
(dp2936
g3
S'Zara Larsson'
p2937
sg5
I1
sg6
S'https://open.spotify.com/track/65ACnVMmePTp8Xdk11jP2y'
p2938
sg8
S"Don't Let Me Be Yours"
p2939
ssS'5Ohxk2dO5COHF1krpoPigN'
p2940
(dp2941
g3
S'Harry Styles'
p2942
sg5
I17
sg6
S'https://open.spotify.com/track/5Ohxk2dO5COHF1krpoPigN'
p2943
sg8
S'Sign of the Times'
p2944
ssS'7COO4rJFQQDL7vXDpGetil'
p2945
(dp2946
g3
S'Cheek'
p2947
sg5
I12
sg6
S'https://open.spotify.com/track/7COO4rJFQQDL7vXDpGetil'
p2948
sg8
S'All Good Everything'
p2949
ssS'4MUKUqqE66Irl1appjmiC9'
p2950
(dp2951
g3
S'Ida Paul & Kalle Lindroth'
p2952
sg5
I26
sg6
S'https://open.spotify.com/track/4MUKUqqE66Irl1appjmiC9'
p2953
sg8
S'Parvekkeella'
p2954
ssS'4WxPf0v6WH2UBzTAw5kSOm'
p2955
(dp2956
g3
S'Tuure Kilpel\xc3\xa4inen ja Kaihon Karavaani'
p2957
sg5
I12
sg6
S'https://open.spotify.com/track/4WxPf0v6WH2UBzTAw5kSOm'
p2958
sg8
S'Autiosaari'
p2959
ssS'5kRPPEWFJIMox5qIkQkiz5'
p2960
(dp2961
g3
S'Harry Styles'
p2962
sg5
I2
sg6
S'https://open.spotify.com/track/5kRPPEWFJIMox5qIkQkiz5'
p2963
sg8
S'Sweet Creature'
p2964
ssS'4JqJofEjChNytY6MMTJsi7'
p2965
(dp2966
g3
S'Hearts & Colors'
p2967
sg5
I1
sg6
S'https://open.spotify.com/track/4JqJofEjChNytY6MMTJsi7'
p2968
sg8
S'Shame'
p2969
ssS'63mkZ4fiKFAMB4Y3exeKN2'
p2970
(dp2971
g3
S'Pete Parkkonen'
p2972
sg5
I15
sg6
S'https://open.spotify.com/track/63mkZ4fiKFAMB4Y3exeKN2'
p2973
sg8
S'Ei nyt'
p2974
ssS'1ADjWm8QNhgNV8yCNNgQ1T'
p2975
(dp2976
g3
S'Ariana Grande'
p2977
sg5
I1
sg6
S'https://open.spotify.com/track/1ADjWm8QNhgNV8yCNNgQ1T'
p2978
sg8
S'Santa Tell Me'
p2979
ssS'4Hf7WnR761jpxPr5D46Bcd'
p2980
(dp2981
g3
S'Shawn Mendes'
p2982
sg5
I21
sg6
S'https://open.spotify.com/track/4Hf7WnR761jpxPr5D46Bcd'
p2983
sg8
S'Treat You Better'
p2984
ssS'0oY8xK12tJkYAskQXXQsgj'
p2985
(dp2986
g3
S'JVG'
p2987
sg5
I21
sg6
S'https://open.spotify.com/track/0oY8xK12tJkYAskQXXQsgj'
p2988
sg8
S'Mist s\xc3\xa4 tuut Part 2'
p2989
ssS'4fhVodXZARPX0oTuQh8V9l'
p2990
(dp2991
g3
S'Astrid S'
p2992
sg5
I1
sg6
S'https://open.spotify.com/track/4fhVodXZARPX0oTuQh8V9l'
p2993
sg8
S'Breathe'
p2994
ssS'6JXR88ZF3BjztPU2PSn69w'
p2995
(dp2996
g3
S'Haloo Helsinki!'
p2997
sg5
I7
sg6
S'https://open.spotify.com/track/6JXR88ZF3BjztPU2PSn69w'
p2998
sg8
S'K\xc3\xa4rp\xc3\xa4sten herra'
p2999
ssS'0p5DB6pQNQMduxg2X2a16q'
p3000
(dp3001
g3
S'Seksik\xc3\xa4s-Suklaa'
p3002
sg5
I5
sg6
S'https://open.spotify.com/track/0p5DB6pQNQMduxg2X2a16q'
p3003
sg8
S'Vesa Keskinen'
p3004
ssS'1Mu4cZz7rG8VTuTQw0urke'
p3005
(dp3006
g3
S'Kube'
p3007
sg5
I4
sg6
S'https://open.spotify.com/track/1Mu4cZz7rG8VTuTQw0urke'
p3008
sg8
S'Peili'
p3009
ssS'4kc8RpAJP558uI0Fi9Zn7l'
p3010
(dp3011
g3
S'Haloo Helsinki!'
p3012
sg5
I6
sg6
S'https://open.spotify.com/track/4kc8RpAJP558uI0Fi9Zn7l'
p3013
sg8
S'T\xc3\xa4\xc3\xa4 rakkaus ei lopu koskaan'
p3014
ssS'0chFcp7zVMi1ru2zSBYwze'
p3015
(dp3016
g3
S'Pasi ja Anssi'
p3017
sg5
I16
sg6
S'https://open.spotify.com/track/0chFcp7zVMi1ru2zSBYwze'
p3018
sg8
S'Kakkuu J\xc3\xa4rvell\xc3\xa4'
p3019
ssS'7m7vqt0dQ3HXHSzLPMlFg3'
p3020
(dp3021
g3
S'JVG'
p3022
sg5
I7
sg6
S'https://open.spotify.com/track/7m7vqt0dQ3HXHSzLPMlFg3'
p3023
sg8
S'\xc3\x84l\xc3\xa4 j\xc3\xa4t\xc3\xa4 roikkuu'
p3024
ssS'3bWAqKDWg6u1davspr5IkS'
p3025
(dp3026
g3
S'Robin Schulz'
p3027
sg5
I21
sg6
S'https://open.spotify.com/track/3bWAqKDWg6u1davspr5IkS'
p3028
sg8
S'OK'
p3029
ssS'3FS2e59gXFXrcg7sN2mL5z'
p3030
(dp3031
g3
S'Vigiland'
p3032
sg5
I2
sg6
S'https://open.spotify.com/track/3FS2e59gXFXrcg7sN2mL5z'
p3033
sg8
S'Shots & Squats'
p3034
ssS'6pRQW7DWi0njQKujWFtuv1'
p3035
(dp3036
g3
S'Happoradio'
p3037
sg5
I4
sg6
S'https://open.spotify.com/track/6pRQW7DWi0njQKujWFtuv1'
p3038
sg8
S'Sinun vaikka hajoat'
p3039
ssS'1EaKU4dMbesXXd3BrLCtYG'
p3040
(dp3041
g3
S'Kendrick Lamar'
p3042
sg5
I4
sg6
S'https://open.spotify.com/track/1EaKU4dMbesXXd3BrLCtYG'
p3043
sg8
S'ELEMENT.'
p3044
ssS'5OB6U3FCVGzi5mQ2MdLzvP'
p3045
(dp3046
g3
S'Lahti United'
p3047
sg5
I2
sg6
S'https://open.spotify.com/track/5OB6U3FCVGzi5mQ2MdLzvP'
p3048
sg8
S'Elefantti'
p3049
ssS'7wJHcotDOj5mrNgm3XUaQ9'
p3050
(dp3051
g3
S'MAKJ'
p3052
sg5
I1
sg6
S'https://open.spotify.com/track/7wJHcotDOj5mrNgm3XUaQ9'
p3053
sg8
S'Party Till We Die - Radio Edit'
p3054
ssS'5knuzwU65gJK7IF5yJsuaW'
p3055
(dp3056
g3
S'Clean Bandit'
p3057
sg5
I42
sg6
S'https://open.spotify.com/track/5knuzwU65gJK7IF5yJsuaW'
p3058
sg8
S'Rockabye (feat. Sean Paul & Anne-Marie)'
p3059
ssS'7aF09WaavZAmAWuUeYxlYD'
p3060
(dp3061
g3
S'OneRepublic'
p3062
sg5
I13
sg6
S'https://open.spotify.com/track/7aF09WaavZAmAWuUeYxlYD'
p3063
sg8
S'Rich Love (with Seeb)'
p3064
ssS'19IqC66BdlmBDGOtk2yYBA'
p3065
(dp3066
g3
S'Roope Salminen & Koirat'
p3067
sg5
I3
sg6
S'https://open.spotify.com/track/19IqC66BdlmBDGOtk2yYBA'
p3068
sg8
S'Madafakin darra (feat. Ida Paul)'
p3069
ssS'0GhvfuOgTbG7uzjQDUws14'
p3070
(dp3071
g3
S'Teflon Brothers'
p3072
sg5
I33
sg6
S'https://open.spotify.com/track/0GhvfuOgTbG7uzjQDUws14'
p3073
sg8
S'L\xc3\xa4hi\xc3\xb6unelmii'
p3074
ssS'1AaB4hLbg4jTzjZR5CRqcc'
p3075
(dp3076
g3
S'Robin'
p3077
sg5
I5
sg6
S'https://open.spotify.com/track/1AaB4hLbg4jTzjZR5CRqcc'
p3078
sg8
S'Spesiaali - Vain El\xc3\xa4m\xc3\xa4\xc3\xa4 Kausi 6'
p3079
ssS'4YpFEoet1Z4vclP9R3TXi0'
p3080
(dp3081
g3
S'Seksik\xc3\xa4s-Suklaa'
p3082
sg5
I1
sg6
S'https://open.spotify.com/track/4YpFEoet1Z4vclP9R3TXi0'
p3083
sg8
S'Day One'
p3084
ssS'0lOZTlVFriYRkGZSD6E2ax'
p3085
(dp3086
g3
S'Yksi Totuus'
p3087
sg5
I4
sg6
S'https://open.spotify.com/track/0lOZTlVFriYRkGZSD6E2ax'
p3088
sg8
S'Sammakko (feat. STIG)'
p3089
ssS'6b8Be6ljOzmkOmFslEb23P'
p3090
(dp3091
g3
S'Bruno Mars'
p3092
sg5
I12
sg6
S'https://open.spotify.com/track/6b8Be6ljOzmkOmFslEb23P'
p3093
sg8
S'24K Magic'
p3094
ssS'7cQMJ0wDqVS5iM0JIvP6Ay'
p3095
(dp3096
g3
S'Fall Out Boy'
p3097
sg5
I4
sg6
S'https://open.spotify.com/track/7cQMJ0wDqVS5iM0JIvP6Ay'
p3098
sg8
S'The Last Of The Real Ones'
p3099
ssS'1RPMDcIljymdp7dSgTfhls'
p3100
(dp3101
g3
S'Haloo Helsinki!'
p3102
sg5
I37
sg6
S'https://open.spotify.com/track/1RPMDcIljymdp7dSgTfhls'
p3103
sg8
S'Hulluuden Highway'
p3104
ssS'6uJwPeBGb3swi85TSr9iIz'
p3105
(dp3106
g3
S'Coldplay'
p3107
sg5
I3
sg6
S'https://open.spotify.com/track/6uJwPeBGb3swi85TSr9iIz'
p3108
sg8
S'Miracles (Someone Special)'
p3109
ssS'58lLpRowtcedpMuNdAW5l9'
p3110
(dp3111
g3
S'Anna Puu'
p3112
sg5
I7
sg6
S'https://open.spotify.com/track/58lLpRowtcedpMuNdAW5l9'
p3113
sg8
S'Suudellaan (Vain el\xc3\xa4m\xc3\xa4\xc3\xa4 kausi 5)'
p3114
ssS'2fO3YS5ACT08fn42bBd3HA'
p3115
(dp3116
g3
S'INNA'
p3117
sg5
I1
sg6
S'https://open.spotify.com/track/2fO3YS5ACT08fn42bBd3HA'
p3118
sg8
S'Cola Song (feat. J Balvin)'
p3119
ssS'5YX7q7AqdB9t6b5ld5xrCk'
p3120
(dp3121
g3
S'ILARI'
p3122
sg5
I21
sg6
S'https://open.spotify.com/track/5YX7q7AqdB9t6b5ld5xrCk'
p3123
sg8
S'K18 (feat. Kuningas P\xc3\xa4hkin\xc3\xa4 & Set\xc3\xa4 Tamu)'
p3124
ssS'5C1JtVvPFiZNV6c6t2XzuO'
p3125
(dp3126
g3
S'Kaija Koo'
p3127
sg5
I5
sg6
S'https://open.spotify.com/track/5C1JtVvPFiZNV6c6t2XzuO'
p3128
sg8
S'Syyp\xc3\xa4\xc3\xa4 sun hymyyn (Vain el\xc3\xa4m\xc3\xa4\xc3\xa4 kausi 7)'
p3129
ssS'23luOrEVHMfoX0AhfbQuS6'
p3130
(dp3131
g3
S'Kendrick Lamar'
p3132
sg5
I1
sg6
S'https://open.spotify.com/track/23luOrEVHMfoX0AhfbQuS6'
p3133
sg8
S'FEAR.'
p3134
ssS'7K8zao0kv6A8XKHQbRNX6d'
p3135
(dp3136
g3
S'Reino Nordin'
p3137
sg5
I1
sg6
S'https://open.spotify.com/track/7K8zao0kv6A8XKHQbRNX6d'
p3138
sg8
S'Vapaa'
p3139
ssS'5DA77EqppDmCTWGovd4oTP'
p3140
(dp3141
g3
S'Cheat Codes'
p3142
sg5
I2
sg6
S'https://open.spotify.com/track/5DA77EqppDmCTWGovd4oTP'
p3143
sg8
S'Sex'
p3144
ssS'73s4yuT0ROuf9qKubiZPNW'
p3145
(dp3146
g3
S'Cheek'
p3147
sg5
I2
sg6
S'https://open.spotify.com/track/73s4yuT0ROuf9qKubiZPNW'
p3148
sg8
S'Jumala (Vain el\xc3\xa4m\xc3\xa4\xc3\xa4 kausi 7)'
p3149
ssS'0EYIDbETAhEBJFINmswacs'
p3150
(dp3151
g3
S'Petri Nyg\xc3\xa5rd'
p3152
sg5
I35
sg6
S'https://open.spotify.com/track/0EYIDbETAhEBJFINmswacs'
p3153
sg8
S'Pannaan Suomi Kuntoon'
p3154
ssS'6ijTh5qyl1328PnCe4IKsT'
p3155
(dp3156
g3
S'Antti Tuisku'
p3157
sg5
I36
sg6
S'https://open.spotify.com/track/6ijTh5qyl1328PnCe4IKsT'
p3158
sg8
S'Keinutaan (feat. VilleGalle)'
p3159
ssS'6HZILIRieu8S0iqY8kIKhj'
p3160
(dp3161
g3
S'Kendrick Lamar'
p3162
sg5
I14
sg6
S'https://open.spotify.com/track/6HZILIRieu8S0iqY8kIKhj'
p3163
sg8
S'DNA.'
p3164
ssS'4HwHkTy74cYNye910YCwt3'
p3165
(dp3166
g3
S'Kaija Koo'
p3167
sg5
I1
sg6
S'https://open.spotify.com/track/4HwHkTy74cYNye910YCwt3'
p3168
sg8
S'Suru on kunniavieras (Vain el\xc3\xa4m\xc3\xa4\xc3\xa4 kausi 7)'
p3169
ssS'5bcjHhl0JgWet9jrSGNmIl'
p3170
(dp3171
g3
S'Teflon Brothers'
p3172
sg5
I23
sg6
S'https://open.spotify.com/track/5bcjHhl0JgWet9jrSGNmIl'
p3173
sg8
S'Arvon Leidit'
p3174
ssS'4gqMQftUs22F8pOGVn5Acr'
p3175
(dp3176
g3
S'Shawn Hook'
p3177
sg5
I12
sg6
S'https://open.spotify.com/track/4gqMQftUs22F8pOGVn5Acr'
p3178
sg8
S'Reminding Me'
p3179
ssS'2VFiiUt0FfXRlG6PlBgSB6'
p3180
(dp3181
g3
S'Nikke Ankara'
p3182
sg5
I6
sg6
S'https://open.spotify.com/track/2VFiiUt0FfXRlG6PlBgSB6'
p3183
sg8
S'Juulian Totuudet - Vain El\xc3\xa4m\xc3\xa4\xc3\xa4 Kausi 6'
p3184
ssS'11Fo4dAH31K7UZHGqCkCmE'
p3185
(dp3186
g3
S'Axwell /\\ Ingrosso'
p3187
sg5
I10
sg6
S'https://open.spotify.com/track/11Fo4dAH31K7UZHGqCkCmE'
p3188
sg8
S'I Love You'
p3189
ssS'0WQpbaimQ3Xip5wlpEZTlX'
p3190
(dp3191
g3
S'Kaija Koo'
p3192
sg5
I3
sg6
S'https://open.spotify.com/track/0WQpbaimQ3Xip5wlpEZTlX'
p3193
sg8
S'En ole valmis viel\xc3\xa4 l\xc3\xa4htem\xc3\xa4\xc3\xa4n'
p3194
ssS'7Gx0Aqq30umOD1mW9RVDgT'
p3195
(dp3196
g3
S'Elastinen'
p3197
sg5
I12
sg6
S'https://open.spotify.com/track/7Gx0Aqq30umOD1mW9RVDgT'
p3198
sg8
S'Oota Mua'
p3199
ssS'4QfqyabOT0F2QMbkD1ay91'
p3200
(dp3201
g3
S'Zak Abel'
p3202
sg5
I10
sg6
S'https://open.spotify.com/track/4QfqyabOT0F2QMbkD1ay91'
p3203
sg8
S'All I Ever Do (Is Say Goodbye)'
p3204
ssS'6SUocL0caib4mLHe8ZrZzi'
p3205
(dp3206
g3
S'Rudimental'
p3207
sg5
I1
sg6
S'https://open.spotify.com/track/6SUocL0caib4mLHe8ZrZzi'
p3208
sg8
S'Sun Comes Up'
p3209
ssS'3u7AIoAXRXe1UWgqsoYz26'
p3210
(dp3211
g3
S'Lila'
p3212
sg5
I8
sg6
S'https://open.spotify.com/track/3u7AIoAXRXe1UWgqsoYz26'
p3213
sg8
S"Don't Let Go"
p3214
ssS'0B48113ZG9UfkWWt7qD9xX'
p3215
(dp3216
g3
S'Miley Cyrus'
p3217
sg5
I1
sg6
S'https://open.spotify.com/track/0B48113ZG9UfkWWt7qD9xX'
p3218
sg8
S'Younger Now'
p3219
ssS'3B54sVLJ402zGa6Xm4YGNe'
p3220
(dp3221
g3
S'French Montana'
p3222
sg5
I14
sg6
S'https://open.spotify.com/track/3B54sVLJ402zGa6Xm4YGNe'
p3223
sg8
S'Unforgettable'
p3224
ssS'2JHLzBLTM7w9z5c5ugThOr'
p3225
(dp3226
g3
S'Artem x Yonas'
p3227
sg5
I1
sg6
S'https://open.spotify.com/track/2JHLzBLTM7w9z5c5ugThOr'
p3228
sg8
S'Soittakaa Paranoid'
p3229
ssS'32DGGj6KlNuBr6WaqRxpxi'
p3230
(dp3231
g3
S'Charlie Puth'
p3232
sg5
I1
sg6
S'https://open.spotify.com/track/32DGGj6KlNuBr6WaqRxpxi'
p3233
sg8
S'How Long'
p3234
ssS'57KKL6NiNp00MnD65PL66G'
p3235
(dp3236
g3
S'JXO'
p3237
sg5
I9
sg6
S'https://open.spotify.com/track/57KKL6NiNp00MnD65PL66G'
p3238
sg8
S'\xe2\x80\x9d410 \xe2\x80\x93 007\xe2\x80\x9d (Malmi N Kartano)'
p3239
ssS'3rOSwuTsUlJp0Pu0MkN8r8'
p3240
(dp3241
g3
S'Future'
p3242
sg5
I33
sg6
S'https://open.spotify.com/track/3rOSwuTsUlJp0Pu0MkN8r8'
p3243
sg8
S'Mask Off'
p3244
ssS'6gpcs5eMhJwax4mIfKDYQk'
p3245
(dp3246
g3
S'Calvin Harris'
p3247
sg5
I4
sg6
S'https://open.spotify.com/track/6gpcs5eMhJwax4mIfKDYQk'
p3248
sg8
S'Slide'
p3249
ssS'5bcTCxgc7xVfSaMV3RuVke'
p3250
(dp3251
g3
S'Calvin Harris'
p3252
sg5
I16
sg6
S'https://open.spotify.com/track/5bcTCxgc7xVfSaMV3RuVke'
p3253
sg8
S'Feels'
p3254
ssS'0QsvXIfqM0zZoerQfsI9lm'
p3255
(dp3256
g3
S'The Chainsmokers'
p3257
sg5
I36
sg6
S'https://open.spotify.com/track/0QsvXIfqM0zZoerQfsI9lm'
p3258
sg8
S"Don't Let Me Down"
p3259
ssS'1m8saXsOYeeW8t1XppVTt0'
p3260
(dp3261
g3
S'Kaija Koo'
p3262
sg5
I2
sg6
S'https://open.spotify.com/track/1m8saXsOYeeW8t1XppVTt0'
p3263
sg8
S'Valot pimeyksien reunoilla (Vain el\xc3\xa4m\xc3\xa4\xc3\xa4 kausi 7)'
p3264
ssS'6TXNjRtMEEv3jqxSNps5fA'
p3265
(dp3266
g3
S'Juha Tapio'
p3267
sg5
I2
sg6
S'https://open.spotify.com/track/6TXNjRtMEEv3jqxSNps5fA'
p3268
sg8
S'Koneeseen kadonnut (Vain el\xc3\xa4m\xc3\xa4\xc3\xa4 kausi 7)'
p3269
ssS'5hslUAKq9I9CG2bAulFkHN'
p3270
(dp3271
g3
S'Andy Williams'
p3272
sg5
I1
sg6
S'https://open.spotify.com/track/5hslUAKq9I9CG2bAulFkHN'
p3273
sg8
S"It's the Most Wonderful Time of the Year"
p3274
ssS'2nLtzopw4rPReszdYBJU6h'
p3275
(dp3276
g3
S'Linkin Park'
p3277
sg5
I4
sg6
S'https://open.spotify.com/track/2nLtzopw4rPReszdYBJU6h'
p3278
sg8
S'Numb'
p3279
ssS'3a1lNhkSLSkpJE4MSHpDu9'
p3280
(dp3281
g3
S'Post Malone'
p3282
sg5
I34
sg6
S'https://open.spotify.com/track/3a1lNhkSLSkpJE4MSHpDu9'
p3283
sg8
S'Congratulations'
p3284
ssS'61WbtB6ujkpNAsAf5LjF4b'
p3285
(dp3286
g3
S'Katy Perry'
p3287
sg5
I13
sg6
S'https://open.spotify.com/track/61WbtB6ujkpNAsAf5LjF4b'
p3288
sg8
S'Bon app\xc3\xa9tit'
p3289
ssS'6foxplXS0YEq8cO374Lty4'
p3290
(dp3291
g3
S'Lil Pump'
p3292
sg5
I1
sg6
S'https://open.spotify.com/track/6foxplXS0YEq8cO374Lty4'
p3293
sg8
S'Gucci Gang'
p3294
ssS'5TXDeTFVRVY7Cvt0Dw4vWW'
p3295
(dp3296
g3
S'XXXTENTACION'
p3297
sg5
I1
sg6
S'https://open.spotify.com/track/5TXDeTFVRVY7Cvt0Dw4vWW'
p3298
sg8
S'Revenge'
p3299
ssS'1l250WsCkWRSCf6XPUtMjm'
p3300
(dp3301
g3
S'Uniikki'
p3302
sg5
I9
sg6
S'https://open.spotify.com/track/1l250WsCkWRSCf6XPUtMjm'
p3303
sg8
S'Korkki Kii'
p3304
ssS'1xLyXQzNEgVzNxaocJLLCF'
p3305
(dp3306
g3
S'Roope Salminen & Koirat'
p3307
sg5
I2
sg6
S'https://open.spotify.com/track/1xLyXQzNEgVzNxaocJLLCF'
p3308
sg8
S'Snadi'
p3309
ssS'2ybeFHcbmAkMJKeoq3GxuO'
p3310
(dp3311
g3
S'Lika-Aki'
p3312
sg5
I2
sg6
S'https://open.spotify.com/track/2ybeFHcbmAkMJKeoq3GxuO'
p3313
sg8
S'Hot Dog Hall of Fame'
p3314
ssS'6wV12xIUb8oFY7lBy4KuQe'
p3315
(dp3316
g3
S'Aaron Carter'
p3317
sg5
I13
sg6
S'https://open.spotify.com/track/6wV12xIUb8oFY7lBy4KuQe'
p3318
sg8
S'Sooner Or Later'
p3319
ssS'60GxnH4pbnMpxf3UFsV972'
p3320
(dp3321
g3
S'Mikael Gabriel'
p3322
sg5
I1
sg6
S'https://open.spotify.com/track/60GxnH4pbnMpxf3UFsV972'
p3323
sg8
S'S\xc3\xa4 Et Oo Mun Veli'
p3324
ssS'7y2WC2JkgBdkRh2n323e0X'
p3325
(dp3326
g3
S'Gettomasa'
p3327
sg5
I15
sg6
S'https://open.spotify.com/track/7y2WC2JkgBdkRh2n323e0X'
p3328
sg8
S'Kapteeniupponalle'
p3329
ssS'0ofbQMrRDsUaVKq2mGLEAb'
p3330
(dp3331
g3
S'Camila Cabello'
p3332
sg5
I10
sg6
S'https://open.spotify.com/track/0ofbQMrRDsUaVKq2mGLEAb'
p3333
sg8
S'Havana'
p3334
ssS'7vGuf3Y35N4wmASOKLUVVU'
p3335
(dp3336
g3
S'Marshmello'
p3337
sg5
I9
sg6
S'https://open.spotify.com/track/7vGuf3Y35N4wmASOKLUVVU'
p3338
sg8
S'Silence'
p3339
ssS'3SfkCjlGsJ4PwEpa36i1Nn'
p3340
(dp3341
g3
S'Maija Vilkkumaa'
p3342
sg5
I1
sg6
S'https://open.spotify.com/track/3SfkCjlGsJ4PwEpa36i1Nn'
p3343
sg8
S'Hyv\xc3\xa4 ihminen'
p3344
ssS'6bLopGnirdrilrpdVB6Um1'
p3345
(dp3346
g3
S'Sia'
p3347
sg5
I3
sg6
S'https://open.spotify.com/track/6bLopGnirdrilrpdVB6Um1'
p3348
sg8
S'The Greatest'
p3349
ssS'0i8qXP5jTcu3dPfwZrboV3'
p3350
(dp3351
g3
S'Arttu Lindeman'
p3352
sg5
I24
sg6
S'https://open.spotify.com/track/0i8qXP5jTcu3dPfwZrboV3'
p3353
sg8
S'Hukutaan'
p3354
ssS'3HVr6jTVwBHBa2flM0eURR'
p3355
(dp3356
g3
S'Macklemore'
p3357
sg5
I11
sg6
S'https://open.spotify.com/track/3HVr6jTVwBHBa2flM0eURR'
p3358
sg8
S'Glorious (feat. Skylar Grey)'
p3359
ssS'1vvNmPOiUuyCbgWmtc6yfm'
p3360
(dp3361
g3
S'Calvin Harris'
p3362
sg5
I10
sg6
S'https://open.spotify.com/track/1vvNmPOiUuyCbgWmtc6yfm'
p3363
sg8
S'My Way'
p3364
ssS'3EfugazgSddQvzZpkof5I4'
p3365
(dp3366
g3
S'Anne-Marie'
p3367
sg5
I6
sg6
S'https://open.spotify.com/track/3EfugazgSddQvzZpkof5I4'
p3368
sg8
S'Ciao Adios'
p3369
ssS'7DQXiMeLqiQsy1uqHSk0xc'
p3370
(dp3371
g3
S'Shawn Hook'
p3372
sg5
I3
sg6
S'https://open.spotify.com/track/7DQXiMeLqiQsy1uqHSk0xc'
p3373
sg8
S'Reminding Me'
p3374
ssS'7qZMvQlZsGuQTv7yZe6C0G'
p3375
(dp3376
g3
S'Elias Gould'
p3377
sg5
I3
sg6
S'https://open.spotify.com/track/7qZMvQlZsGuQTv7yZe6C0G'
p3378
sg8
S'Loistava'
p3379
ssS'1sds1bVqBoa6lSRhl6jZHp'
p3380
(dp3381
g3
S'Antti Tuisku'
p3382
sg5
I4
sg6
S'https://open.spotify.com/track/1sds1bVqBoa6lSRhl6jZHp'
p3383
sg8
S'Aamukuuteen (feat. Erin)'
p3384
ssS'7hDc8b7IXETo14hHIHdnhd'
p3385
(dp3386
g3
S'Drake'
p3387
sg5
I16
sg6
S'https://open.spotify.com/track/7hDc8b7IXETo14hHIHdnhd'
p3388
sg8
S'Passionfruit'
p3389
ssS'4WrS6vezaPwOafKJmHqMEU'
p3390
(dp3391
g3
S'Jax Jones'
p3392
sg5
I1
sg6
S'https://open.spotify.com/track/4WrS6vezaPwOafKJmHqMEU'
p3393
sg8
S"You Don't Know Me - Radio Edit"
p3394
ssS'1Sl3njkhhz8nrSPZroDQ82'
p3395
(dp3396
g3
S'Dimitri Vegas & Like Mike'
p3397
sg5
I8
sg6
S'https://open.spotify.com/track/1Sl3njkhhz8nrSPZroDQ82'
p3398
sg8
S'Complicated (feat. Kiiara)'
p3399
ssS'6DiwQjTwC4NOulyhpXghI7'
p3400
(dp3401
g3
S'Kaija Koo'
p3402
sg5
I28
sg6
S'https://open.spotify.com/track/6DiwQjTwC4NOulyhpXghI7'
p3403
sg8
S'N\xc3\xa4\xc3\xa4 y\xc3\xb6t ei anna armoo (feat. Cheek)'
p3404
ssS'57BrRMwf9LrcmuOsyGilwr'
p3405
(dp3406
g3
S'Linkin Park'
p3407
sg5
I1
sg6
S'https://open.spotify.com/track/57BrRMwf9LrcmuOsyGilwr'
p3408
sg8
S'Crawling'
p3409
ssS'3nenYQpz28iHiuS1loQ4Xz'
p3410
(dp3411
g3
S'Br\xc3\xa4di'
p3412
sg5
I17
sg6
S'https://open.spotify.com/track/3nenYQpz28iHiuS1loQ4Xz'
p3413
sg8
S'Saturnus'
p3414
ssS'0afhq8XCExXpqazXczTSve'
p3415
(dp3416
g3
S'Ed Sheeran'
p3417
sg5
I30
sg6
S'https://open.spotify.com/track/0afhq8XCExXpqazXczTSve'
p3418
sg8
S'Galway Girl'
p3419
ssS'42RijZgeE9yMVqgRjsIPyU'
p3420
(dp3421
g3
S'Popeda'
p3422
sg5
I1
sg6
S'https://open.spotify.com/track/42RijZgeE9yMVqgRjsIPyU'
p3423
sg8
S'Helvetin Pitk\xc3\xa4 Perjantai'
p3424
ssS'5OUwCLy7Gcnd7QVPBKxHTP'
p3425
(dp3426
g3
S'Evelina'
p3427
sg5
I22
sg6
S'https://open.spotify.com/track/5OUwCLy7Gcnd7QVPBKxHTP'
p3428
sg8
S'Sireenit'
p3429
ssS'1NDxZ7cFAo481dtYWdrUnR'
p3430
(dp3431
g3
S'Maggie Lindemann'
p3432
sg5
I22
sg6
S'https://open.spotify.com/track/1NDxZ7cFAo481dtYWdrUnR'
p3433
sg8
S'Pretty Girl - Cheat Codes X CADE Remix'
p3434
ssS'152lZdxL1OR0ZMW6KquMif'
p3435
(dp3436
g3
S'Khalid'
p3437
sg5
I3
sg6
S'https://open.spotify.com/track/152lZdxL1OR0ZMW6KquMif'
p3438
sg8
S'Location'
p3439
ssS'2dOTkLZFbpNXrhc24CnTFd'
p3440
(dp3441
g3
S'David Guetta'
p3442
sg5
I1
sg6
S'https://open.spotify.com/track/2dOTkLZFbpNXrhc24CnTFd'
p3443
sg8
S'Titanium (feat. Sia) - feat. Sia'
p3444
ssS'7xHWNBFm6ObGEQPaUxHuKO'
p3445
(dp3446
g3
S'Sia'
p3447
sg5
I8
sg6
S'https://open.spotify.com/track/7xHWNBFm6ObGEQPaUxHuKO'
p3448
sg8
S'The Greatest'
p3449
ssS'5JRxJEulKBONs5nVZkketY'
p3450
(dp3451
g3
S'Jenni Vartiainen'
p3452
sg5
I3
sg6
S'https://open.spotify.com/track/5JRxJEulKBONs5nVZkketY'
p3453
sg8
S'Trampoliini (Vain el\xc3\xa4m\xc3\xa4\xc3\xa4 kausi 7)'
p3454
ssS'6XAGQBdN6pdjGrhTGryIUE'
p3455
(dp3456
g3
S'Joakim Lundell'
p3457
sg5
I1
sg6
S'https://open.spotify.com/track/6XAGQBdN6pdjGrhTGryIUE'
p3458
sg8
S'My Addiction'
p3459
ssS'6EcTjceNc3WhEqrWzXIFwA'
p3460
(dp3461
g3
S'Hkeem'
p3462
sg5
I1
sg6
S'https://open.spotify.com/track/6EcTjceNc3WhEqrWzXIFwA'
p3463
sg8
S'Fy faen'
p3464
ssS'1rEqGk6XDXRc1CwveGqeJ8'
p3465
(dp3466
g3
S'Pariisin Kev\xc3\xa4t'
p3467
sg5
I7
sg6
S'https://open.spotify.com/track/1rEqGk6XDXRc1CwveGqeJ8'
p3468
sg8
S'Pilviss\xc3\xa4'
p3469
ssS'4Q3N4Ct4zCuIHuZ65E3BD4'
p3470
(dp3471
g3
S'Kodak Black'
p3472
sg5
I10
sg6
S'https://open.spotify.com/track/4Q3N4Ct4zCuIHuZ65E3BD4'
p3473
sg8
S'Tunnel Vision'
p3474
ssS'5HZD8QOz81tfGFcYsZK4hR'
p3475
(dp3476
g3
S'Janna'
p3477
sg5
I9
sg6
S'https://open.spotify.com/track/5HZD8QOz81tfGFcYsZK4hR'
p3478
sg8
S'Vaikee Mut Oikee'
p3479
ssS'4gMCKJJzpibteIRw3xZL2R'
p3480
(dp3481
g3
S'Tujamo'
p3482
sg5
I6
sg6
S'https://open.spotify.com/track/4gMCKJJzpibteIRw3xZL2R'
p3483
sg8
S'Drop That Low (When I Dip)'
p3484
ssS'7LgatCb8lCxHqaUOeyg2UV'
p3485
(dp3486
g3
S'JCY'
p3487
sg5
I1
sg6
S'https://open.spotify.com/track/7LgatCb8lCxHqaUOeyg2UV'
p3488
sg8
S'Thong Song (feat. Sisqo)'
p3489
ssS'0S4L6NE73zybaDIZm9WL4j'
p3490
(dp3491
g3
S'BESS'
p3492
sg5
I11
sg6
S'https://open.spotify.com/track/0S4L6NE73zybaDIZm9WL4j'
p3493
sg8
S'En Pysty Lopettaa'
p3494
ssS'1FUViuNSldssMIawrOXF2i'
p3495
(dp3496
g3
S'Bebe Rexha'
p3497
sg5
I8
sg6
S'https://open.spotify.com/track/1FUViuNSldssMIawrOXF2i'
p3498
sg8
S'I Got You'
p3499
ssS'2G6x5MCndBRioc5CiMSDMx'
p3500
(dp3501
g3
S'Aleksanteri Hakaniemi'
p3502
sg5
I35
sg6
S'https://open.spotify.com/track/2G6x5MCndBRioc5CiMSDMx'
p3503
sg8
S'Filmi katkee'
p3504
ssS'4lharVQjYNhByFR8dSHkMA'
p3505
(dp3506
g3
S'Bakermat'
p3507
sg5
I1
sg6
S'https://open.spotify.com/track/4lharVQjYNhByFR8dSHkMA'
p3508
sg8
S"Don't Want You Back"
p3509
ssS'2xRRSWrjBy8tFJaEHMAMQS'
p3510
(dp3511
g3
S'OG Ulla-Maija'
p3512
sg5
I2
sg6
S'https://open.spotify.com/track/2xRRSWrjBy8tFJaEHMAMQS'
p3513
sg8
S'Makia'
p3514
ssS'7ooJDTCdUiUAkIUP6azUsF'
p3515
(dp3516
g3
S'Hank Solo'
p3517
sg5
I7
sg6
S'https://open.spotify.com/track/7ooJDTCdUiUAkIUP6azUsF'
p3518
sg8
S'Mist\xc3\xa4 Loma Loma'
p3519
ssS'7IsJihZTqwODrRfrrv3zWB'
p3520
(dp3521
g3
S'Pitbull'
p3522
sg5
I1
sg6
S'https://open.spotify.com/track/7IsJihZTqwODrRfrrv3zWB'
p3523
sg8
S'Sexy Body'
p3524
ssS'0CokSRCu5hZgPxcZBaEzVE'
p3525
(dp3526
g3
S'Macklemore'
p3527
sg5
I3
sg6
S'https://open.spotify.com/track/0CokSRCu5hZgPxcZBaEzVE'
p3528
sg8
S'Glorious (feat. Skylar Grey)'
p3529
ssS'7HGHhLbAklVxGkYdwyeVML'
p3530
(dp3531
g3
S'Vigiland'
p3532
sg5
I10
sg6
S'https://open.spotify.com/track/7HGHhLbAklVxGkYdwyeVML'
p3533
sg8
S'Friday Night'
p3534
ssS'6OuV4vfyb8v3vGGGksqyKf'
p3535
(dp3536
g3
S'AJR'
p3537
sg5
I2
sg6
S'https://open.spotify.com/track/6OuV4vfyb8v3vGGGksqyKf'
p3538
sg8
S'Weak'
p3539
ssS'1tTVY3pveEQvrjWbOdGEvW'
p3540
(dp3541
g3
S'Slim Mill'
p3542
sg5
I7
sg6
S'https://open.spotify.com/track/1tTVY3pveEQvrjWbOdGEvW'
p3543
sg8
S'Kebab (feat. Fatboy L & Asap Vergi)'
p3544
ssS'3Fe0fahTqOILtmPOtcNam0'
p3545
(dp3546
g3
S'Haloo Helsinki!'
p3547
sg5
I6
sg6
S'https://open.spotify.com/track/3Fe0fahTqOILtmPOtcNam0'
p3548
sg8
S'Terveisin m\xc3\xa4'
p3549
ssS'4Q4jmPHwu0wrJvqrld0FQ6'
p3550
(dp3551
g3
S'Zara Larsson'
p3552
sg5
I16
sg6
S'https://open.spotify.com/track/4Q4jmPHwu0wrJvqrld0FQ6'
p3553
sg8
S'I Would Like'
p3554
ssS'7zM2BFbA4QJjo3vwqp78ym'
p3555
(dp3556
g3
S'Michael Bubl\xc3\xa9'
p3557
sg5
I1
sg6
S'https://open.spotify.com/track/7zM2BFbA4QJjo3vwqp78ym'
p3558
sg8
S'Frosty The Snowman (feat. The Puppini Sisters) - Bonus Track'
p3559
ssS'3K4HG9evC7dg3N0R9cYqk4'
p3560
(dp3561
g3
S'Linkin Park'
p3562
sg5
I1
sg6
S'https://open.spotify.com/track/3K4HG9evC7dg3N0R9cYqk4'
p3563
sg8
S'One Step Closer'
p3564
ssS'4oBiK02d70E69d4QbJcjVW'
p3565
(dp3566
g3
S'Miro Miikael'
p3567
sg5
I5
sg6
S'https://open.spotify.com/track/4oBiK02d70E69d4QbJcjVW'
p3568
sg8
S'Siks m\xc3\xa4 haluun sut'
p3569
ssS'06NiQOIYSfeo0FaXdKV1PQ'
p3570
(dp3571
g3
S'Austin Mahone'
p3572
sg5
I1
sg6
S'https://open.spotify.com/track/06NiQOIYSfeo0FaXdKV1PQ'
p3573
sg8
S'Lady'
p3574
ssS'7yyRTcZmCiyzzJlNzGC9Ol'
p3575
(dp3576
g3
S'DRAM'
p3577
sg5
I3
sg6
S'https://open.spotify.com/track/7yyRTcZmCiyzzJlNzGC9Ol'
p3578
sg8
S'Broccoli (feat. Lil Yachty)'
p3579
ssS'4DLTHz9R0Dv2PzgFPKE5ns'
p3580
(dp3581
g3
S'Bang For The Buck'
p3582
sg5
I3
sg6
S'https://open.spotify.com/track/4DLTHz9R0Dv2PzgFPKE5ns'
p3583
sg8
S'Spagettii (feat. Ilta)'
p3584
ssS'5GtghWMeLUycxyejG86Vl6'
p3585
(dp3586
g3
S'Petra'
p3587
sg5
I2
sg6
S'https://open.spotify.com/track/5GtghWMeLUycxyejG86Vl6'
p3588
sg8
S'Lifesaver (Vain el\xc3\xa4m\xc3\xa4\xc3\xa4 kausi 6)'
p3589
ssS'3vcHPShfJAFP3TtAAsTHsV'
p3590
(dp3591
g3
S'Sunstroke Project'
p3592
sg5
I1
sg6
S'https://open.spotify.com/track/3vcHPShfJAFP3TtAAsTHsV'
p3593
sg8
S'Hey Mamma - Radio Edit'
p3594
ssS'34kd2B1N8nrH6oBmnEr8V4'
p3595
(dp3596
g3
S'Mr. El\xc3\xa4m\xc3\xa4npeli'
p3597
sg5
I6
sg6
S'https://open.spotify.com/track/34kd2B1N8nrH6oBmnEr8V4'
p3598
sg8
S'#El\xc3\xa4m\xc3\xa4npeli (feat. Touko)'
p3599
ssS'0LuTkQwYHneCPSt1vFMp7L'
p3600
(dp3601
g3
S'Arttu Lindeman'
p3602
sg5
I2
sg6
S'https://open.spotify.com/track/0LuTkQwYHneCPSt1vFMp7L'
p3603
sg8
S'Offline'
p3604
ssS'2Fjz5ZC5BvFdCqcnTZ3ilH'
p3605
(dp3606
g3
S'Alan Walker'
p3607
sg5
I17
sg6
S'https://open.spotify.com/track/2Fjz5ZC5BvFdCqcnTZ3ilH'
p3608
sg8
S'Sing Me to Sleep'
p3609
ssS'4CRk8QpQ2KNS7N5S2xjEjQ'
p3610
(dp3611
g3
S'Tinie Tempah'
p3612
sg5
I1
sg6
S'https://open.spotify.com/track/4CRk8QpQ2KNS7N5S2xjEjQ'
p3613
sg8
S'Text From Your Ex (feat. Tinashe)'
p3614
ssS'2771LMNxwf62FTAdpJMQfM'
p3615
(dp3616
g3
S'Cardi B'
p3617
sg5
I7
sg6
S'https://open.spotify.com/track/2771LMNxwf62FTAdpJMQfM'
p3618
sg8
S'Bodak Yellow'
p3619
ssS'5gXkX96i9IMtn7wEfUibIx'
p3620
(dp3621
g3
S'M\xc3\xa4kki'
p3622
sg5
I7
sg6
S'https://open.spotify.com/track/5gXkX96i9IMtn7wEfUibIx'
p3623
sg8
S'Muistikuvien Vanki'
p3624
ssS'6PCUP3dWmTjcTtXY02oFdT'
p3625
(dp3626
g3
S'Ed Sheeran'
p3627
sg5
I20
sg6
S'https://open.spotify.com/track/6PCUP3dWmTjcTtXY02oFdT'
p3628
sg8
S'Castle on the Hill'
p3629
ssS'1ZIfhYiIWAHIDGFELBau6x'
p3630
(dp3631
g3
S'Arttu Wiskari'
p3632
sg5
I21
sg6
S'https://open.spotify.com/track/1ZIfhYiIWAHIDGFELBau6x'
p3633
sg8
S'Ty\xc3\xb6miehen lauantai (feat. Tippa-T)'
p3634
ssS'2UU9ywqY86wdI6GTnRHlhg'
p3635
(dp3636
g3
S'Vilma Alina'
p3637
sg5
I16
sg6
S'https://open.spotify.com/track/2UU9ywqY86wdI6GTnRHlhg'
p3638
sg8
S'Tyynysotaa'
p3639
ssS'5wYoYDJxz47YZpva8yuDw3'
p3640
(dp3641
g3
S'DEM'
p3642
sg5
I11
sg6
S'https://open.spotify.com/track/5wYoYDJxz47YZpva8yuDw3'
p3643
sg8
S'Murhaaja'
p3644
ssS'5pvVAwQbuFoR7LkcicrKnk'
p3645
(dp3646
g3
S'Vice'
p3647
sg5
I5
sg6
S'https://open.spotify.com/track/5pvVAwQbuFoR7LkcicrKnk'
p3648
sg8
S'Obsession (feat. Jon Bellion)'
p3649
ssS'1TfT4AtYSreDh4AcOmyq5D'
p3650
(dp3651
g3
S'Aleksanteri Hakaniemi'
p3652
sg5
I9
sg6
S'https://open.spotify.com/track/1TfT4AtYSreDh4AcOmyq5D'
p3653
sg8
S'Pane mut sekasin'
p3654
ssS'1FnpL7zXjXuCGAkcbFApni'
p3655
(dp3656
g3
S'Jannika B'
p3657
sg5
I4
sg6
S'https://open.spotify.com/track/1FnpL7zXjXuCGAkcbFApni'
p3658
sg8
S'Vantaan Kokoinen Yksin\xc3\xa4isyys'
p3659
ssS'104buTcnP2AsxqB7U1FIZ4'
p3660
(dp3661
g3
S'Linkin Park'
p3662
sg5
I6
sg6
S'https://open.spotify.com/track/104buTcnP2AsxqB7U1FIZ4'
p3663
sg8
S'Heavy (feat. Kiiara)'
p3664
ssS'4eHwPDsNijR7BZbcmEHlAc'
p3665
(dp3666
g3
S'SANNI'
p3667
sg5
I4
sg6
S'https://open.spotify.com/track/4eHwPDsNijR7BZbcmEHlAc'
p3668
sg8
S'Malagaan (Vain el\xc3\xa4m\xc3\xa4\xc3\xa4 kausi 7)'
p3669
ssS'2ZCoiXouSt0BwFPO4RQRt3'
p3670
(dp3671
g3
S'Redrama'
p3672
sg5
I5
sg6
S'https://open.spotify.com/track/2ZCoiXouSt0BwFPO4RQRt3'
p3673
sg8
S'Pelkk\xc3\xa4\xc3\xa4 lovee'
p3674
ssS'4BxHfA1dWlOJ66dKvAdQPr'
p3675
(dp3676
g3
S'Tuure Boelius'
p3677
sg5
I8
sg6
S'https://open.spotify.com/track/4BxHfA1dWlOJ66dKvAdQPr'
p3678
sg8
S'Eik\xc3\xb6 Sua H\xc3\xa4vet\xc3\xa4'
p3679
ssS'02RaNOB5CIiXAhgvLE6Xp0'
p3680
(dp3681
g3
S'Mikael Gabriel'
p3682
sg5
I12
sg6
S'https://open.spotify.com/track/02RaNOB5CIiXAhgvLE6Xp0'
p3683
sg8
S'\xc3\x84l\xc3\xa4 her\xc3\xa4t\xc3\xa4 mua unesta'
p3684
ssS'3AVOlegKLZkDe3GSnM8XpF'
p3685
(dp3686
g3
S'Poju'
p3687
sg5
I6
sg6
S'https://open.spotify.com/track/3AVOlegKLZkDe3GSnM8XpF'
p3688
sg8
S'Esson baariin'
p3689
ssS'650OeHTLxZAQmb4aEbGmaA'
p3690
(dp3691
g3
S'Linkin Park'
p3692
sg5
I5
sg6
S'https://open.spotify.com/track/650OeHTLxZAQmb4aEbGmaA'
p3693
sg8
S'Good Goodbye (feat. Pusha T and Stormzy)'
p3694
ssS'1PSBzsahR2AKwLJgx8ehBj'
p3695
(dp3696
g3
S'Machine Gun Kelly'
p3697
sg5
I16
sg6
S'https://open.spotify.com/track/1PSBzsahR2AKwLJgx8ehBj'
p3698
sg8
S'Bad Things (with Camila Cabello)'
p3699
ssS'7KOlJ92bu51cltsD9KU5I7'
p3700
(dp3701
g3
S'Migos'
p3702
sg5
I4
sg6
S'https://open.spotify.com/track/7KOlJ92bu51cltsD9KU5I7'
p3703
sg8
S'T-Shirt'
p3704
ssS'2Nc4pBQWU9tyvXrRTyORtJ'
p3705
(dp3706
g3
S'Teflon Brothers'
p3707
sg5
I1
sg6
S'https://open.spotify.com/track/2Nc4pBQWU9tyvXrRTyORtJ'
p3708
sg8
S'Ay Ay Ay'
p3709
ssS'3m660poUr1chesgkkjQM7P'
p3710
(dp3711
g3
S'Demi Lovato'
p3712
sg5
I2
sg6
S'https://open.spotify.com/track/3m660poUr1chesgkkjQM7P'
p3713
sg8
S'Sorry Not Sorry'
p3714
ssS'5EnYT6F7wEcdege6mDHEfO'
p3715
(dp3716
g3
S'Drake'
p3717
sg5
I5
sg6
S'https://open.spotify.com/track/5EnYT6F7wEcdege6mDHEfO'
p3718
sg8
S'Signs'
p3719
ssS'6aZ6jat6EhEm4bPplxmS7Z'
p3720
(dp3721
g3
S'Haloo Helsinki!'
p3722
sg5
I7
sg6
S'https://open.spotify.com/track/6aZ6jat6EhEm4bPplxmS7Z'
p3723
sg8
S'Pulp Fiction'
p3724
ssS'2zWVKlOfppLl96FpttaPrK'
p3725
(dp3726
g3
S'Robin'
p3727
sg5
I22
sg6
S'https://open.spotify.com/track/2zWVKlOfppLl96FpttaPrK'
p3728
sg8
S'Kymmenen Kirosanaa - Vain El\xc3\xa4m\xc3\xa4\xc3\xa4 Kausi 6'
p3729
ssS'1Vej0qeQ3ioKwpI6FUbRv1'
p3730
(dp3731
g3
S'Linkin Park'
p3732
sg5
I1
sg6
S'https://open.spotify.com/track/1Vej0qeQ3ioKwpI6FUbRv1'
p3733
sg8
S'Papercut'
p3734
ssS'2J7jB2qVo6HlNrwONwCcBP'
p3735
(dp3736
g3
S'Haloo Helsinki!'
p3737
sg5
I6
sg6
S'https://open.spotify.com/track/2J7jB2qVo6HlNrwONwCcBP'
p3738
sg8
S'Hei Haloo'
p3739
ssS'3coYPmuUrK9Yr6kqsMSr7H'
p3740
(dp3741
g3
S'Petri Nyg\xc3\xa5rd'
p3742
sg5
I18
sg6
S'https://open.spotify.com/track/3coYPmuUrK9Yr6kqsMSr7H'
p3743
sg8
S'Nelj\xc3\xa4 Vuodenaikaa'
p3744
ssS'4KnUpP0jPsFN8iFSzx01Lt'
p3745
(dp3746
g3
S'Isac Elliot'
p3747
sg5
I4
sg6
S'https://open.spotify.com/track/4KnUpP0jPsFN8iFSzx01Lt'
p3748
sg8
S'AYO'
p3749
ssS'3ebXMykcMXOcLeJ9xZ17XH'
p3750
(dp3751
g3
S'Martin Garrix'
p3752
sg5
I32
sg6
S'https://open.spotify.com/track/3ebXMykcMXOcLeJ9xZ17XH'
p3753
sg8
S'Scared to Be Lonely'
p3754
ssS'5odLK6KBg26jGJvGjKuP9M'
p3755
(dp3756
g3
S'SANNI'
p3757
sg5
I7
sg6
S'https://open.spotify.com/track/5odLK6KBg26jGJvGjKuP9M'
p3758
sg8
S'Ku Kanye Kanyee (feat. Cheek)'
p3759
ssS'19WjVVgXjdKXfLXoaDPwTM'
p3760
(dp3761
g3
S'Taylor Swift'
p3762
sg5
I3
sg6
S'https://open.spotify.com/track/19WjVVgXjdKXfLXoaDPwTM'
p3763
sg8
S'...Ready For It?'
p3764
ssS'2Hd7Fmip4PyjCdWAmklmWv'
p3765
(dp3766
g3
S'The Second Level'
p3767
sg5
I6
sg6
S'https://open.spotify.com/track/2Hd7Fmip4PyjCdWAmklmWv'
p3768
sg8
S'Sun Comes up (feat. Ariadne)'
p3769
ssS'4XgWfdMfVtOId8jO3y0tnm'
p3770
(dp3771
g3
S'Vesta'
p3772
sg5
I3
sg6
S'https://open.spotify.com/track/4XgWfdMfVtOId8jO3y0tnm'
p3773
sg8
S'Viel\xc3\xa41'
p3774
ssS'3PEgB3fkiojxms35ntsTgs'
p3775
(dp3776
g3
S'Axwell /\\ Ingrosso'
p3777
sg5
I11
sg6
S'https://open.spotify.com/track/3PEgB3fkiojxms35ntsTgs'
p3778
sg8
S'More Than You Know'
p3779
ssS'0vJnAIhLnRrXgtN0SmrrTy'
p3780
(dp3781
g3
S'Rod Stewart'
p3782
sg5
I1
sg6
S'https://open.spotify.com/track/0vJnAIhLnRrXgtN0SmrrTy'
p3783
sg8
S'Winter Wonderland'
p3784
ssS'4fcf9BpsYnYmC4emKF1cj8'
p3785
(dp3786
g3
S'Nikke Ankara'
p3787
sg5
I2
sg6
S'https://open.spotify.com/track/4fcf9BpsYnYmC4emKF1cj8'
p3788
sg8
S'Mona Lisa'
p3789
ssS'7F9vK8hNFMml4GtHsaXui6'
p3790
(dp3791
g3
S'Louis Tomlinson'
p3792
sg5
I12
sg6
S'https://open.spotify.com/track/7F9vK8hNFMml4GtHsaXui6'
p3793
sg8
S'Back to You (feat. Bebe Rexha & Digital Farm Animals)'
p3794
ssS'5yZikrIYMNhW4OGIO2xpLr'
p3795
(dp3796
g3
S'Mike Posner'
p3797
sg5
I1
sg6
S'https://open.spotify.com/track/5yZikrIYMNhW4OGIO2xpLr'
p3798
sg8
S'In The Arms Of A Stranger - Grey Remix'
p3799
ssS'2YLwHjmsYqD8GXCCN1lb4G'
p3800
(dp3801
g3
S'Elias Kaskinen & P\xc3\xa4iv\xc3\xa4n Sankarit'
p3802
sg5
I5
sg6
S'https://open.spotify.com/track/2YLwHjmsYqD8GXCCN1lb4G'
p3803
sg8
S'Irti'
p3804
ssS'49nSUeYRNJbtayHb8qshqD'
p3805
(dp3806
g3
S'Tippa-T'
p3807
sg5
I5
sg6
S'https://open.spotify.com/track/49nSUeYRNJbtayHb8qshqD'
p3808
sg8
S'S\xc3\xa4'
p3809
ssS'0LX4f8NnYnGxuryfP1MtJf'
p3810
(dp3811
g3
S'$uicideBoy$'
p3812
sg5
I1
sg6
S'https://open.spotify.com/track/0LX4f8NnYnGxuryfP1MtJf'
p3813
sg8
S'South Side Suicide (feat. Pouya)'
p3814
ssS'5FVVDm1X8saGIty6sJkbDw'
p3815
(dp3816
g3
S'Adi L Hasla'
p3817
sg5
I14
sg6
S'https://open.spotify.com/track/5FVVDm1X8saGIty6sJkbDw'
p3818
sg8
S'Ei Mit\xc3\xa4\xc3\xa4n Jiit\xc3\xa4'
p3819
ssS'1XRTXNP8eLpWXfso8Q4dC5'
p3820
(dp3821
g3
S'Mike Perry'
p3822
sg5
I11
sg6
S'https://open.spotify.com/track/1XRTXNP8eLpWXfso8Q4dC5'
p3823
sg8
S'Talk About It'
p3824
ssS'3EIQ75Sip8PryDT10VHjZn'
p3825
(dp3826
g3
S'Hotelli Vantaa'
p3827
sg5
I10
sg6
S'https://open.spotify.com/track/3EIQ75Sip8PryDT10VHjZn'
p3828
sg8
S'Vikat hitaat (feat. M\xc3\xa4kki)'
p3829
ssS'6oo9mDnAF5x6Hl9CklcQFD'
p3830
(dp3831
g3
S'T\xc3\xb6\xc3\xb6l\xc3\xb6n Ketter\xc3\xa4'
p3832
sg5
I3
sg6
S'https://open.spotify.com/track/6oo9mDnAF5x6Hl9CklcQFD'
p3833
sg8
S'Huolel (feat. Kube)'
p3834
ssS'7aiVBCp1ibIWE5GeHkbtxr'
p3835
(dp3836
g3
S'Britney Spears'
p3837
sg5
I1
sg6
S'https://open.spotify.com/track/7aiVBCp1ibIWE5GeHkbtxr'
p3838
sg8
S'My Only Wish (This Year)'
p3839
ssS'4z7qvewskI5aBUCd9HqUxT'
p3840
(dp3841
g3
S'Jari Sillanp\xc3\xa4\xc3\xa4'
p3842
sg5
I1
sg6
S'https://open.spotify.com/track/4z7qvewskI5aBUCd9HqUxT'
p3843
sg8
S'Halvalla (Vain el\xc3\xa4m\xc3\xa4\xc3\xa4 kausi 7)'
p3844
ssS'4WTuyLURqO48UrytehzT53'
p3845
(dp3846
g3
S'Nelli Matula'
p3847
sg5
I5
sg6
S'https://open.spotify.com/track/4WTuyLURqO48UrytehzT53'
p3848
sg8
S'Mun Kaa Kahden'
p3849
ssS'5ZD9EXYZgtrt7Noy7EHerH'
p3850
(dp3851
g3
S'Bassbros'
p3852
sg5
I1
sg6
S'https://open.spotify.com/track/5ZD9EXYZgtrt7Noy7EHerH'
p3853
sg8
S'Remorse'
p3854
ssS'0UeYCHOETPfai02uskjJ3x'
p3855
(dp3856
g3
S'Bag Raiders'
p3857
sg5
I3
sg6
S'https://open.spotify.com/track/0UeYCHOETPfai02uskjJ3x'
p3858
sg8
S'Shooting Stars'
p3859
ssS'7tv43WFqlN9l9ri59poNHw'
p3860
(dp3861
g3
S'Jukka Poika'
p3862
sg5
I2
sg6
S'https://open.spotify.com/track/7tv43WFqlN9l9ri59poNHw'
p3863
sg8
S'El\xc3\xa4 V\xc3\xa4h\xc3\xa4n'
p3864
ssS'3LDrfHrWM4IAUH9tJtKj1Q'
p3865
(dp3866
g3
S'Olli Lindholm'
p3867
sg5
I5
sg6
S'https://open.spotify.com/track/3LDrfHrWM4IAUH9tJtKj1Q'
p3868
sg8
S'Lindholmin Ollie (Frontside Ollie) - Vain el\xc3\xa4m\xc3\xa4\xc3\xa4 kausi 6'
p3869
ssS'1mDGDb2fUmUMdqV3tb8VKQ'
p3870
(dp3871
g3
S'Halsey'
p3872
sg5
I1
sg6
S'https://open.spotify.com/track/1mDGDb2fUmUMdqV3tb8VKQ'
p3873
sg8
S'Now Or Never'
p3874
ssS'3qaYuV5XZAwiOvGE91HhwS'
p3875
(dp3876
g3
S'Mike Perry'
p3877
sg5
I12
sg6
S'https://open.spotify.com/track/3qaYuV5XZAwiOvGE91HhwS'
p3878
sg8
S'Inside the Lines'
p3879
ssS'6GZYVZiVritpchaBSFLprd'
p3880
(dp3881
g3
S'Aleksanteri Hakaniemi'
p3882
sg5
I20
sg6
S'https://open.spotify.com/track/6GZYVZiVritpchaBSFLprd'
p3883
sg8
S'15'
p3884
ssS'7xY8Cywrp90WHIeGJaRRPW'
p3885
(dp3886
g3
S'Petra'
p3887
sg5
I4
sg6
S'https://open.spotify.com/track/7xY8Cywrp90WHIeGJaRRPW'
p3888
sg8
S'Puuttuva palanen (Vain el\xc3\xa4m\xc3\xa4\xc3\xa4 kausi 6)'
p3889
ssS'0e2WTl90DATKYgsjNN0K6R'
p3890
(dp3891
g3
S'Marcus & Martinus'
p3892
sg5
I2
sg6
S'https://open.spotify.com/track/0e2WTl90DATKYgsjNN0K6R'
p3893
sg8
S'First Kiss'
p3894
ssS'6a9vKVMFfNBi741DVSit3H'
p3895
(dp3896
g3
S'Felix Jaehn'
p3897
sg5
I6
sg6
S'https://open.spotify.com/track/6a9vKVMFfNBi741DVSit3H'
p3898
sg8
S'Feel Good'
p3899
ssS'0K7Dd9DP6fvOl0mrlX0aUa'
p3900
(dp3901
g3
S'Galantis'
p3902
sg5
I2
sg6
S'https://open.spotify.com/track/0K7Dd9DP6fvOl0mrlX0aUa'
p3903
sg8
S'Rich Boy'
p3904
ssS'6OZh916QF8XNunWaP97WEZ'
p3905
(dp3906
g3
S'Jonas Blue'
p3907
sg5
I1
sg6
S'https://open.spotify.com/track/6OZh916QF8XNunWaP97WEZ'
p3908
sg8
S'Fast Car'
p3909
ssS'2rizacJSyD9S1IQUxUxnsK'
p3910
(dp3911
g3
S'The Chainsmokers'
p3912
sg5
I8
sg6
S'https://open.spotify.com/track/2rizacJSyD9S1IQUxUxnsK'
p3913
sg8
S'All We Know'
p3914
ssS'2ytH5wDuqhgLTiDVYioteq'
p3915
(dp3916
g3
S'Jax Jones'
p3917
sg5
I2
sg6
S'https://open.spotify.com/track/2ytH5wDuqhgLTiDVYioteq'
p3918
sg8
S'Instruction'
p3919
ssS'0WQR9ZjPa0lWe2OOUi0BZt'
p3920
(dp3921
g3
S'Pete Parkkonen'
p3922
sg5
I9
sg6
S'https://open.spotify.com/track/0WQR9ZjPa0lWe2OOUi0BZt'
p3923
sg8
S'Mit\xc3\xa4 m\xc3\xa4 teen (feat. JVG)'
p3924
ssS'0tgVpDi06FyKpA1z0VMD4v'
p3925
(dp3926
g3
S'Ed Sheeran'
p3927
sg5
I14
sg6
S'https://open.spotify.com/track/0tgVpDi06FyKpA1z0VMD4v'
p3928
sg8
S'Perfect'
p3929
ssS'4AFgK4wP1iD5i8BYaLr9Vf'
p3930
(dp3931
g3
S'Future'
p3932
sg5
I1
sg6
S'https://open.spotify.com/track/4AFgK4wP1iD5i8BYaLr9Vf'
p3933
sg8
S'You Da Baddest'
p3934
ssS'45OfR7ugJMgbFDuNOVpIq3'
p3935
(dp3936
g3
S'Matoma'
p3937
sg5
I12
sg6
S'https://open.spotify.com/track/45OfR7ugJMgbFDuNOVpIq3'
p3938
sg8
S'Party On The West Coast (feat. Snoop Dogg)'
p3939
ssS'0O2nxouygWlAVxHZPw3YCW'
p3940
(dp3941
g3
S'Haloo Helsinki!'
p3942
sg5
I36
sg6
S'https://open.spotify.com/track/0O2nxouygWlAVxHZPw3YCW'
p3943
sg8
S'Rakas'
p3944
ssS'0JWDlJh0dqByvkPBGEP90W'
p3945
(dp3946
g3
S'Nikke Ankara'
p3947
sg5
I23
sg6
S'https://open.spotify.com/track/0JWDlJh0dqByvkPBGEP90W'
p3948
sg8
S'Kyyneleet - Vain El\xc3\xa4m\xc3\xa4\xc3\xa4 Kausi 6'
p3949
ssS'5GVZfzgtF4I7dgTBovF9qm'
p3950
(dp3951
g3
S'Prinssi Jusuf'
p3952
sg5
I1
sg6
S'https://open.spotify.com/track/5GVZfzgtF4I7dgTBovF9qm'
p3953
sg8
S'Meen Hakee Sen'
p3954
ssS'6jMLInOi9w4QqfS51gWLGv'
p3955
(dp3956
g3
S'Olli Lindholm'
p3957
sg5
I3
sg6
S'https://open.spotify.com/track/6jMLInOi9w4QqfS51gWLGv'
p3958
sg8
S'Vahva (Vain el\xc3\xa4m\xc3\xa4\xc3\xa4 kausi 6)'
p3959
ssS'26hcyzSE154xMZCbFdtInA'
p3960
(dp3961
g3
S'KREAM'
p3962
sg5
I7
sg6
S'https://open.spotify.com/track/26hcyzSE154xMZCbFdtInA'
p3963
sg8
S'Taped Up Heart (feat. Clara Mae)'
p3964
ssS'7Lgpic8BsBJR4jFrr9abbz'
p3965
(dp3966
g3
S'Robin Schulz'
p3967
sg5
I3
sg6
S'https://open.spotify.com/track/7Lgpic8BsBJR4jFrr9abbz'
p3968
sg8
S"I Believe I'm Fine"
p3969
ssS'5XQMr19TL7Mfksq9zihbOu'
p3970
(dp3971
g3
S'Chris Brown'
p3972
sg5
I1
sg6
S'https://open.spotify.com/track/5XQMr19TL7Mfksq9zihbOu'
p3973
sg8
S'Questions'
p3974
ssS'3d9JucRI60arArgQXqtfjJ'
p3975
(dp3976
g3
S'Alesso'
p3977
sg5
I4
sg6
S'https://open.spotify.com/track/3d9JucRI60arArgQXqtfjJ'
p3978
sg8
S'Falling'
p3979
ssS'35uTXA1kkb9Lwu81FXIXjP'
p3980
(dp3981
g3
S'Petra'
p3982
sg5
I5
sg6
S'https://open.spotify.com/track/35uTXA1kkb9Lwu81FXIXjP'
p3983
sg8
S'Vie mut minne vaan (Vain el\xc3\xa4m\xc3\xa4\xc3\xa4 kausi 6)'
p3984
ssS'79NlESqzFSW0hdBWgls4FX'
p3985
(dp3986
g3
S'Kesha'
p3987
sg5
I2
sg6
S'https://open.spotify.com/track/79NlESqzFSW0hdBWgls4FX'
p3988
sg8
S'Praying'
p3989
ssS'5Z3GHaZ6ec9bsiI5BenrbY'
p3990
(dp3991
g3
S'Khalid'
p3992
sg5
I7
sg6
S'https://open.spotify.com/track/5Z3GHaZ6ec9bsiI5BenrbY'
p3993
sg8
S'Young Dumb & Broke'
p3994
ssS'1x5sYLZiu9r5E43kMlt9f8'
p3995
(dp3996
g3
S'Clean Bandit'
p3997
sg5
I30
sg6
S'https://open.spotify.com/track/1x5sYLZiu9r5E43kMlt9f8'
p3998
sg8
S'Symphony (feat. Zara Larsson)'
p3999
ssS'5jXypD1EKG2pwhtFNJfywj'
p4000
(dp4001
g3
S'Sound Of Legend'
p4002
sg5
I10
sg6
S'https://open.spotify.com/track/5jXypD1EKG2pwhtFNJfywj'
p4003
sg8
S'Blue (Da Ba Dee) - Sound of Legend Edit'
p4004
ssS'2rb5MvYT7ZIxbKW5hfcHx8'
p4005
(dp4006
g3
S'J Balvin'
p4007
sg5
I14
sg6
S'https://open.spotify.com/track/2rb5MvYT7ZIxbKW5hfcHx8'
p4008
sg8
S'Mi Gente'
p4009
ssS'0XLOf9LhyazPX9Ld8jPiUq'
p4010
(dp4011
g3
S'Selena Gomez'
p4012
sg5
I9
sg6
S'https://open.spotify.com/track/0XLOf9LhyazPX9Ld8jPiUq'
p4013
sg8
S'Fetish (feat. Gucci Mane)'
p4014
ssS'2X8GwyuNBiOJKLCLNaefOT'
p4015
(dp4016
g3
S'Anne-Marie'
p4017
sg5
I1
sg6
S'https://open.spotify.com/track/2X8GwyuNBiOJKLCLNaefOT'
p4018
sg8
S'Heavy'
p4019
ssS'5SE57ljOIUJ1ybL9U6CuBH'
p4020
(dp4021
g3
S'BTS'
p4022
sg5
I2
sg6
S'https://open.spotify.com/track/5SE57ljOIUJ1ybL9U6CuBH'
p4023
sg8
S'DNA'
p4024
ssS'4OdVWcLwTqgFQJNAMLaur9'
p4025
(dp4026
g3
S'Antti Tuisku'
p4027
sg5
I21
sg6
S'https://open.spotify.com/track/4OdVWcLwTqgFQJNAMLaur9'
p4028
sg8
S'M\xc3\xa4 hiihd\xc3\xa4n'
p4029
ssS'1hcgjS1bY5gedex5oV3KHI'
p4030
(dp4031
g3
S'SANNI'
p4032
sg5
I11
sg6
S'https://open.spotify.com/track/1hcgjS1bY5gedex5oV3KHI'
p4033
sg8
S'Trampoliini - Radio Edit'
p4034
ssS'6SwRhMLwNqEi6alNPVG00n'
p4035
(dp4036
g3
S'Kendrick Lamar'
p4037
sg5
I4
sg6
S'https://open.spotify.com/track/6SwRhMLwNqEi6alNPVG00n'
p4038
sg8
S'LOYALTY. FEAT. RIHANNA.'
p4039
ssS'5hmdHP4YRVq5sQPz8lsUkR'
p4040
(dp4041
g3
S'VG+'
p4042
sg5
I1
sg6
S'https://open.spotify.com/track/5hmdHP4YRVq5sQPz8lsUkR'
p4043
sg8
S'Kumman kaa'
p4044
ssS'4sH0wndpdCHl7INNhvt85B'
p4045
(dp4046
g3
S'Alex Mattson'
p4047
sg5
I6
sg6
S'https://open.spotify.com/track/4sH0wndpdCHl7INNhvt85B'
p4048
sg8
S'UFO'
p4049
ssS'0bmawHr1wmE2l3ItMW9060'
p4050
(dp4051
g3
S'Jari Sillanp\xc3\xa4\xc3\xa4'
p4052
sg5
I2
sg6
S'https://open.spotify.com/track/0bmawHr1wmE2l3ItMW9060'
p4053
sg8
S'Sun kohdalla (Vain el\xc3\xa4m\xc3\xa4\xc3\xa4 kausi 7)'
p4054
ssS'1Ka7Nk39UCxJzXxG8qOpLF'
p4055
(dp4056
g3
S'JVG'
p4057
sg5
I11
sg6
S'https://open.spotify.com/track/1Ka7Nk39UCxJzXxG8qOpLF'
p4058
sg8
S'Johtot\xc3\xa4hti'
p4059
ssS'7F1LWA9sIlTorHUo4amGqk'
p4060
(dp4061
g3
S'The Weeknd'
p4062
sg5
I1
sg6
S'https://open.spotify.com/track/7F1LWA9sIlTorHUo4amGqk'
p4063
sg8
S'Reminder - Remix'
p4064
ssS'0tKcYR2II1VCQWT79i5NrW'
p4065
(dp4066
g3
S'Imagine Dragons'
p4067
sg5
I21
sg6
S'https://open.spotify.com/track/0tKcYR2II1VCQWT79i5NrW'
p4068
sg8
S'Thunder'
p4069
ssS'3FDrI0FLKzrYQiWxPhqV2W'
p4070
(dp4071
g3
S'Calvin Harris'
p4072
sg5
I2
sg6
S'https://open.spotify.com/track/3FDrI0FLKzrYQiWxPhqV2W'
p4073
sg8
S'Rollin'
p4074
ssS'6SRnVRobwLtovI4JEWejDv'
p4075
(dp4076
g3
S'Galantis'
p4077
sg5
I1
sg6
S'https://open.spotify.com/track/6SRnVRobwLtovI4JEWejDv'
p4078
sg8
S'True Feeling'
p4079
ssS'7cG61jhUsyHszhc4FUvU9r'
p4080
(dp4081
g3
S'Chisu'
p4082
sg5
I7
sg6
S'https://open.spotify.com/track/7cG61jhUsyHszhc4FUvU9r'
p4083
sg8
S'Ei riidell\xc3\xa4 en\xc3\xa4\xc3\xa4'
p4084
ssS'6DNtNfH8hXkqOX1sjqmI7p'
p4085
(dp4086
g3
S'Major Lazer'
p4087
sg5
I12
sg6
S'https://open.spotify.com/track/6DNtNfH8hXkqOX1sjqmI7p'
p4088
sg8
S'Cold Water (feat. Justin Bieber & M\xc3\x98)'
p4089
ssS'6yf3MxEOScNBTYCHOAIiNQ'
p4090
(dp4091
g3
S'Jax Jones'
p4092
sg5
I1
sg6
S'https://open.spotify.com/track/6yf3MxEOScNBTYCHOAIiNQ'
p4093
sg8
S'Instruction (feat. Demi Lovato & Stefflon Don)'
p4094
ssS'5NNlUMcOEOdoOIwwaWXv0k'
p4095
(dp4096
g3
S'Maroon 5'
p4097
sg5
I16
sg6
S'https://open.spotify.com/track/5NNlUMcOEOdoOIwwaWXv0k'
p4098
sg8
S'Cold'
p4099
ssS'5R4HqXCZ6uTjxxnGdLt2S6'
p4100
(dp4101
g3
S'Noah Cyrus'
p4102
sg5
I1
sg6
S'https://open.spotify.com/track/5R4HqXCZ6uTjxxnGdLt2S6'
p4103
sg8
S'Stay Together'
p4104
ssS'2nuveZFpiOildSCxXuL44C'
p4105
(dp4106
g3
S'JP Cooper'
p4107
sg5
I3
sg6
S'https://open.spotify.com/track/2nuveZFpiOildSCxXuL44C'
p4108
sg8
S"She's On My Mind"
p4109
ssS'6ajYTH5pS1vz4RZQQ91zoN'
p4110
(dp4111
g3
S'PastoriPike'
p4112
sg5
I5
sg6
S'https://open.spotify.com/track/6ajYTH5pS1vz4RZQQ91zoN'
p4113
sg8
S'Aito G'
p4114
ssS'1sXUWdKx03aP9Gmzft58rt'
p4115
(dp4116
g3
S'Julia Michaels'
p4117
sg5
I23
sg6
S'https://open.spotify.com/track/1sXUWdKx03aP9Gmzft58rt'
p4118
sg8
S'Issues'
p4119
ssS'2vH3SW0kpMSn0f53b2MCED'
p4120
(dp4121
g3
S'Arttu Wiskari'
p4122
sg5
I2
sg6
S'https://open.spotify.com/track/2vH3SW0kpMSn0f53b2MCED'
p4123
sg8
S'Sadun alkkarit (#YOLO)'
p4124
ssS'6fTsxhIosAU6zXTAhSaemI'
p4125
(dp4126
g3
S'ALMA'
p4127
sg5
I16
sg6
S'https://open.spotify.com/track/6fTsxhIosAU6zXTAhSaemI'
p4128
sg8
S'Chasing Highs'
p4129
ssS'5bRWecUU50TKeCC7MfOsxe'
p4130
(dp4131
g3
S'ILARI'
p4132
sg5
I8
sg6
S'https://open.spotify.com/track/5bRWecUU50TKeCC7MfOsxe'
p4133
sg8
S'Bujaka (feat. Sharon)'
p4134
ssS'4L7Y2OAPiY2I2GndZjAs5K'
p4135
(dp4136
g3
S'Lana Del Rey'
p4137
sg5
I1
sg6
S'https://open.spotify.com/track/4L7Y2OAPiY2I2GndZjAs5K'
p4138
sg8
S'Lust For Life (with The Weeknd)'
p4139
ssS'14oOKFGuXu8DqvOe1W8vao'
p4140
(dp4141
g3
S'Katy Perry'
p4142
sg5
I2
sg6
S'https://open.spotify.com/track/14oOKFGuXu8DqvOe1W8vao'
p4143
sg8
S'Bon App\xc3\xa9tit'
p4144
ssS'4BHSjbYylfOH5WAGusDyni'
p4145
(dp4146
g3
S'Kendrick Lamar'
p4147
sg5
I1
sg6
S'https://open.spotify.com/track/4BHSjbYylfOH5WAGusDyni'
p4148
sg8
S'YAH.'
p4149
ssS'5yuShbu70mtHXY0yLzCQLQ'
p4150
(dp4151
g3
S'Post Malone'
p4152
sg5
I3
sg6
S'https://open.spotify.com/track/5yuShbu70mtHXY0yLzCQLQ'
p4153
sg8
S'Go Flex'
p4154
ssS'2tFgv3sLFNc088KLtjxzVa'
p4155
(dp4156
g3
S'Gabrielle'
p4157
sg5
I2
sg6
S'https://open.spotify.com/track/2tFgv3sLFNc088KLtjxzVa'
p4158
sg8
S'5 fine fr\xc3\xb8kner'
p4159
ssS'1louJpMmzEicAn7lzDalPW'
p4160
(dp4161
g3
S'Cheat Codes'
p4162
sg5
I22
sg6
S'https://open.spotify.com/track/1louJpMmzEicAn7lzDalPW'
p4163
sg8
S'No Promises (feat. Demi Lovato)'
p4164
ssS'3BFubHbza7wGLyoRzxT19f'
p4165
(dp4166
g3
S'Roope Salminen & Koirat'
p4167
sg5
I6
sg6
S'https://open.spotify.com/track/3BFubHbza7wGLyoRzxT19f'
p4168
sg8
S'Vilmasen Iinan bileet'
p4169
ssS'2pJZ1v8HezrAoZ0Fhzby92'
p4170
(dp4171
g3
S'Ed Sheeran'
p4172
sg5
I4
sg6
S'https://open.spotify.com/track/2pJZ1v8HezrAoZ0Fhzby92'
p4173
sg8
S'What Do I Know?'
p4174
ssS'2pj0IfDbeGsFX9b1BR9A18'
p4175
(dp4176
g3
S'Bang For The Buck'
p4177
sg5
I15
sg6
S'https://open.spotify.com/track/2pj0IfDbeGsFX9b1BR9A18'
p4178
sg8
S'Rakasta mut palasiks (feat. Reino Nordin)'
p4179
ssS'6y2Kaz9QI01XBKJ8mTb7Pf'
p4180
(dp4181
g3
S"Rag'n'Bone Man"
p4182
sg5
I31
sg6
S'https://open.spotify.com/track/6y2Kaz9QI01XBKJ8mTb7Pf'
p4183
sg8
S'Skin'
p4184
ssS'2vzBZ87UkwvkIycWEWFrYp'
p4185
(dp4186
g3
S'Tungevaag & Raaban'
p4187
sg5
I7
sg6
S'https://open.spotify.com/track/2vzBZ87UkwvkIycWEWFrYp'
p4188
sg8
S'Wake Up Alone'
p4189
ssS'1FEfB1MWFo9zWL4AV8h0g2'
p4190
(dp4191
g3
S'Happoradio'
p4192
sg5
I3
sg6
S'https://open.spotify.com/track/1FEfB1MWFo9zWL4AV8h0g2'
p4193
sg8
S'Ihan hyv\xc3\xa4t ihmiset'
p4194
ssS'1Slwb6dOYkBlWal1PGtnNg'
p4195
(dp4196
g3
S'Ed Sheeran'
p4197
sg5
I2
sg6
S'https://open.spotify.com/track/1Slwb6dOYkBlWal1PGtnNg'
p4198
sg8
S'Thinking Out Loud'
p4199
ssS'31odF1W48AxUG6nPEHQXyg'
p4200
(dp4201
g3
S'Alan Walker'
p4202
sg5
I7
sg6
S'https://open.spotify.com/track/31odF1W48AxUG6nPEHQXyg'
p4203
sg8
S'Ignite - Instrumental'
p4204
ssS'3kXqUXnukwkpsxhW8emNC0'
p4205
(dp4206
g3
S'Blanche'
p4207
sg5
I1
sg6
S'https://open.spotify.com/track/3kXqUXnukwkpsxhW8emNC0'
p4208
sg8
S'City Lights'
p4209
ssS'5DBY2z6EnHLJTR2olCAxHq'
p4210
(dp4211
g3
S'Anna Puu'
p4212
sg5
I14
sg6
S'https://open.spotify.com/track/5DBY2z6EnHLJTR2olCAxHq'
p4213
sg8
S'Tarviin Viel\xc3\xa4 Yhden Y\xc3\xb6n Aikaa'
p4214
ssS'0kSWxLWJQQ3lRKyRBuGRIy'
p4215
(dp4216
g3
S'The Rasmus'
p4217
sg5
I3
sg6
S'https://open.spotify.com/track/0kSWxLWJQQ3lRKyRBuGRIy'
p4218
sg8
S'Paradise'
p4219
ssS'7CRFWryVdy9hAUNiiLh8gM'
p4220
(dp4221
g3
S'Isac Elliot'
p4222
sg5
I1
sg6
S'https://open.spotify.com/track/7CRFWryVdy9hAUNiiLh8gM'
p4223
sg8
S'EYES SHUT'
p4224
ssS'3YBZIN3rekqsKxbJc9FZko'
p4225
(dp4226
g3
S"Guns N' Roses"
p4227
sg5
I1
sg6
S'https://open.spotify.com/track/3YBZIN3rekqsKxbJc9FZko'
p4228
sg8
S'Paradise City'
p4229
ssS'00pW24Ogrp16sOxTokbJz4'
p4230
(dp4231
g3
S'ItaloBrothers'
p4232
sg5
I1
sg6
S'https://open.spotify.com/track/00pW24Ogrp16sOxTokbJz4'
p4233
sg8
S'Sorry'
p4234
ssS'1aUF83Zjjy9Z2cXWA10DHP'
p4235
(dp4236
g3
S'JVG'
p4237
sg5
I7
sg6
S'https://open.spotify.com/track/1aUF83Zjjy9Z2cXWA10DHP'
p4238
sg8
S'L\xc3\xa4hen menee (feat. Reino Nordin)'
p4239
ssS'2habSXqcJGExM6JJyskY7O'
p4240
(dp4241
g3
S'Miley Cyrus'
p4242
sg5
I15
sg6
S'https://open.spotify.com/track/2habSXqcJGExM6JJyskY7O'
p4243
sg8
S'Malibu'
p4244
ssS'53nNxpVCDUwblGyAazoSS8'
p4245
(dp4246
g3
S'M\xc3\xa4kki'
p4247
sg5
I35
sg6
S'https://open.spotify.com/track/53nNxpVCDUwblGyAazoSS8'
p4248
sg8
S'Mixet Tahdo'
p4249
ssS'6i0V12jOa3mr6uu4WYhUBr'
p4250
(dp4251
g3
S'Twenty One Pilots'
p4252
sg5
I17
sg6
S'https://open.spotify.com/track/6i0V12jOa3mr6uu4WYhUBr'
p4253
sg8
S'Heathens'
p4254
ssS'6zQMbR8e1AQyRDmKUBxoz5'
p4255
(dp4256
g3
S'Marcus & Martinus'
p4257
sg5
I2
sg6
S'https://open.spotify.com/track/6zQMbR8e1AQyRDmKUBxoz5'
p4258
sg8
S'Make You Believe In Love'
p4259
ssS'5qrijLjfrS0FSmQsOem00S'
p4260
(dp4261
g3
S'JVG'
p4262
sg5
I4
sg6
S'https://open.spotify.com/track/5qrijLjfrS0FSmQsOem00S'
p4263
sg8
S'Annan sulle kaiken'
p4264
ssS'5Edm7dgoK4dkWF7IyeMZaZ'
p4265
(dp4266
g3
S'Tippa-T'
p4267
sg5
I10
sg6
S'https://open.spotify.com/track/5Edm7dgoK4dkWF7IyeMZaZ'
p4268
sg8
S'Lujaa (feat. Pete Parkkonen)'
p4269
ssS'40UroIGvsMPLPBYwH8rMNA'
p4270
(dp4271
g3
S'Vice'
p4272
sg5
I15
sg6
S'https://open.spotify.com/track/40UroIGvsMPLPBYwH8rMNA'
p4273
sg8
S'Steady 1234 (feat. Jasmine Thompson & Skizzy Mars)'
p4274
ssS'6TIU9Ehmi6dMzZK73Ym4yj'
p4275
(dp4276
g3
S'Ed Sheeran'
p4277
sg5
I2
sg6
S'https://open.spotify.com/track/6TIU9Ehmi6dMzZK73Ym4yj'
p4278
sg8
S'Save Myself'
p4279
ssS'65qL9A4cDYQObcTSp7rIe6'
p4280
(dp4281
g3
S'BACALL'
p4282
sg5
I9
sg6
S'https://open.spotify.com/track/65qL9A4cDYQObcTSp7rIe6'
p4283
sg8
S'Made Of Stone'
p4284
ssS'1NB2U3ix3mCQ3LLojIt1P7'
p4285
(dp4286
g3
S'Antti Tuisku'
p4287
sg5
I4
sg6
S'https://open.spotify.com/track/1NB2U3ix3mCQ3LLojIt1P7'
p4288
sg8
S'Rahan takii'
p4289
ssS'2tGWeGOmA6wE99Qj2j1mCB'
p4290
(dp4291
g3
S'Irina'
p4292
sg5
I3
sg6
S'https://open.spotify.com/track/2tGWeGOmA6wE99Qj2j1mCB'
p4293
sg8
S'Teippaa mut kasaan (Vain el\xc3\xa4m\xc3\xa4\xc3\xa4 kausi 6)'
p4294
ssS'6fxVffaTuwjgEk5h9QyRjy'
p4295
(dp4296
g3
S'Ed Sheeran'
p4297
sg5
I8
sg6
S'https://open.spotify.com/track/6fxVffaTuwjgEk5h9QyRjy'
p4298
sg8
S'Photograph'
p4299
ssS'0w5Bdu51Ka25Pf3hojsKHh'
p4300
(dp4301
g3
S'Paramore'
p4302
sg5
I2
sg6
S'https://open.spotify.com/track/0w5Bdu51Ka25Pf3hojsKHh'
p4303
sg8
S'Hard Times'
p4304
ssS'1ccOjDeFaGRinXibhhZg0B'
p4305
(dp4306
g3
S'Mouhous'
p4307
sg5
I16
sg6
S'https://open.spotify.com/track/1ccOjDeFaGRinXibhhZg0B'
p4308
sg8
S'Hellafly'
p4309
ssS'5qRCsAyI0Hi380917HcEZQ'
p4310
(dp4311
g3
S'Janne Ord\xc3\xa9n'
p4312
sg5
I35
sg6
S'https://open.spotify.com/track/5qRCsAyI0Hi380917HcEZQ'
p4313
sg8
S'Sunnuntaisin'
p4314
ssS'1VdZ0vKfR5jneCmWIUAMxK'
p4315
(dp4316
g3
S'Ed Sheeran'
p4317
sg5
I1
sg6
S'https://open.spotify.com/track/1VdZ0vKfR5jneCmWIUAMxK'
p4318
sg8
S'The A Team'
p4319
ssS'6madhimpyKrGDBzbsHuwFM'
p4320
(dp4321
g3
S'Jimi P\xc3\xa4\xc3\xa4kallo'
p4322
sg5
I4
sg6
S'https://open.spotify.com/track/6madhimpyKrGDBzbsHuwFM'
p4323
sg8
S'Rakkauden Nimeen'
p4324
ssS'6nxQdXa1uAL0rY72wPZu89'
p4325
(dp4326
g3
S'John Legend'
p4327
sg5
I10
sg6
S'https://open.spotify.com/track/6nxQdXa1uAL0rY72wPZu89'
p4328
sg8
S'Love Me Now'
p4329
ssS'6kex4EBAj0WHXDKZMEJaaF'
p4330
(dp4331
g3
S'Jason Derulo'
p4332
sg5
I31
sg6
S'https://open.spotify.com/track/6kex4EBAj0WHXDKZMEJaaF'
p4333
sg8
S'Swalla (feat. Nicki Minaj & Ty Dolla $ign)'
p4334
ssS'2SBr3MK1sdMs8IxdRcN6qz'
p4335
(dp4336
g3
S'Kylie Minogue'
p4337
sg5
I1
sg6
S'https://open.spotify.com/track/2SBr3MK1sdMs8IxdRcN6qz'
p4338
sg8
S'Santa Baby'
p4339
ssS'3pRq8rMGVxqmIpd5qBWe16'
p4340
(dp4341
g3
S'Toni Wirtanen'
p4342
sg5
I1
sg6
S'https://open.spotify.com/track/3pRq8rMGVxqmIpd5qBWe16'
p4343
sg8
S'Eden (Vain el\xc3\xa4m\xc3\xa4\xc3\xa4 kausi 7)'
p4344
ssS'0LMsBDb01vtSmoV6AepcEL'
p4345
(dp4346
g3
S'Heikki Kuula'
p4347
sg5
I6
sg6
S'https://open.spotify.com/track/0LMsBDb01vtSmoV6AepcEL'
p4348
sg8
S'Suomalainen Mies'
p4349
ssS'5OFJyq8UpmRbU6fE3inXfg'
p4350
(dp4351
g3
S'Mikael Gabriel'
p4352
sg5
I19
sg6
S'https://open.spotify.com/track/5OFJyq8UpmRbU6fE3inXfg'
p4353
sg8
S'Riippumatto'
p4354
ssS'10JBIfvldDR2TnT5sphGc2'
p4355
(dp4356
g3
S'Train'
p4357
sg5
I1
sg6
S'https://open.spotify.com/track/10JBIfvldDR2TnT5sphGc2'
p4358
sg8
S'Shake up Christmas'
p4359
ssS'1GWwtqnwFk9nzIC1rJetan'
p4360
(dp4361
g3
S'Lauri T\xc3\xa4hk\xc3\xa4'
p4362
sg5
I5
sg6
S'https://open.spotify.com/track/1GWwtqnwFk9nzIC1rJetan'
p4363
sg8
S'Ajetaan tandemilla'
p4364
ssS'54h8xHewdRPnYzmbEHBhOO'
p4365
(dp4366
g3
S'Imagine Dragons'
p4367
sg5
I1
sg6
S'https://open.spotify.com/track/54h8xHewdRPnYzmbEHBhOO'
p4368
sg8
S'I\xe2\x80\x99ll Make It Up To You'
p4369
ssS'3Xtm3bkEwlrZidgBqTYtjq'
p4370
(dp4371
g3
S'LVNDSCAPE'
p4372
sg5
I9
sg6
S'https://open.spotify.com/track/3Xtm3bkEwlrZidgBqTYtjq'
p4373
sg8
S'Walk Away'
p4374
ssS'2jfCy43LsFbCQoB6HyetlY'
p4375
(dp4376
g3
S'SJUR'
p4377
sg5
I1
sg6
S'https://open.spotify.com/track/2jfCy43LsFbCQoB6HyetlY'
p4378
sg8
S'Let Me Love You'
p4379
ssS'1gbuH3d1hJpFAwf36eCCIE'
p4380
(dp4381
g3
S'Nause'
p4382
sg5
I1
sg6
S'https://open.spotify.com/track/1gbuH3d1hJpFAwf36eCCIE'
p4383
sg8
S'Summer Hangover'
p4384
ssS'54LGxQGf5LPXNGjtzDZ5IE'
p4385
(dp4386
g3
S'Zara Larsson'
p4387
sg5
I5
sg6
S'https://open.spotify.com/track/54LGxQGf5LPXNGjtzDZ5IE'
p4388
sg8
S'So Good'
p4389
ssS'239cW40XPsqxibAhhmUeVD'
p4390
(dp4391
g3
S'Antti Tuisku'
p4392
sg5
I3
sg6
S'https://open.spotify.com/track/239cW40XPsqxibAhhmUeVD'
p4393
sg8
S'Itteni kaa kahdestaan'
p4394
ssS'08WPvDEsHvTFuB9w8tC2OS'
p4395
(dp4396
g3
S'Sage The Gemini'
p4397
sg5
I1
sg6
S'https://open.spotify.com/track/08WPvDEsHvTFuB9w8tC2OS'
p4398
sg8
S'Now and Later'
p4399
ssS'130vk8KiQ9WjlVTOIjNGYv'
p4400
(dp4401
g3
S'Pariisin Kev\xc3\xa4t'
p4402
sg5
I1
sg6
S'https://open.spotify.com/track/130vk8KiQ9WjlVTOIjNGYv'
p4403
sg8
S'Kuu katoaa'
p4404
ssS'5mwei8E7EL1NoWVBxJiieZ'
p4405
(dp4406
g3
S'Mikko Harju'
p4407
sg5
I28
sg6
S'https://open.spotify.com/track/5mwei8E7EL1NoWVBxJiieZ'
p4408
sg8
S'Sin\xc3\xa4 riit\xc3\xa4t'
p4409
ssS'4MfR98AnxRfTgZteiErRPK'
p4410
(dp4411
g3
S'Iisa'
p4412
sg5
I2
sg6
S'https://open.spotify.com/track/4MfR98AnxRfTgZteiErRPK'
p4413
sg8
S'Nimimerkill\xc3\xa4'
p4414
ssS'0Fv5N0cHBsl4bzCbollCAS'
p4415
(dp4416
g3
S'Big Sean'
p4417
sg5
I1
sg6
S'https://open.spotify.com/track/0Fv5N0cHBsl4bzCbollCAS'
p4418
sg8
S'Moves'
p4419
ssS'4MsOdD6nhPuvnK9MyVAniA'
p4420
(dp4421
g3
S'Ellinoora'
p4422
sg5
I33
sg6
S'https://open.spotify.com/track/4MsOdD6nhPuvnK9MyVAniA'
p4423
sg8
S'Leijonakuningas'
p4424
ssS'0tXPhc8LvM4dPvoRwI66XQ'
p4425
(dp4426
g3
S'Michael Bubl\xc3\xa9'
p4427
sg5
I1
sg6
S'https://open.spotify.com/track/0tXPhc8LvM4dPvoRwI66XQ'
p4428
sg8
S"I'll Be Home For Christmas"
p4429
ssS'2Ae5awwKvQpTBKQHr1TYCg'
p4430
(dp4431
g3
S'Nause'
p4432
sg5
I6
sg6
S'https://open.spotify.com/track/2Ae5awwKvQpTBKQHr1TYCg'
p4433
sg8
S'Dynamite (feat. Pretty Sister)'
p4434
ssS'3f2YLQngnJv8RjtBRj8GBm'
p4435
(dp4436
g3
S'DEM'
p4437
sg5
I7
sg6
S'https://open.spotify.com/track/3f2YLQngnJv8RjtBRj8GBm'
p4438
sg8
S'Kangastuksii'
p4439
ssS'2DGa7iaidT5s0qnINlwMjJ'
p4440
(dp4441
g3
S'Alan Walker'
p4442
sg5
I4
sg6
S'https://open.spotify.com/track/2DGa7iaidT5s0qnINlwMjJ'
p4443
sg8
S'The Spectre'
p4444
ssS'4CIzvZOrty2M8nT2IMFWVT'
p4445
(dp4446
g3
S'Juha-Pekka Lepp\xc3\xa4luoto'
p4447
sg5
I1
sg6
S'https://open.spotify.com/track/4CIzvZOrty2M8nT2IMFWVT'
p4448
sg8
S'Tonttu'
p4449
ssS'1jYiIOC5d6soxkJP81fxq2'
p4450
(dp4451
g3
S'DJ Khaled'
p4452
sg5
I1
sg6
S'https://open.spotify.com/track/1jYiIOC5d6soxkJP81fxq2'
p4453
sg8
S"I'm the One"
p4454
ssS'6Na5uKk5SsqZimk0hAWo8y'
p4455
(dp4456
g3
S'Drake'
p4457
sg5
I2
sg6
S'https://open.spotify.com/track/6Na5uKk5SsqZimk0hAWo8y'
p4458
sg8
S'Signs'
p4459
ssS'5dwxmp5425KCrP32Ys6U1a'
p4460
(dp4461
g3
S'Kasmir'
p4462
sg5
I18
sg6
S'https://open.spotify.com/track/5dwxmp5425KCrP32Ys6U1a'
p4463
sg8
S'Kaija'
p4464
ssS'12ip0ceCeszDTDFxDY1AXJ'
p4465
(dp4466
g3
S'Avicii'
p4467
sg5
I1
sg6
S'https://open.spotify.com/track/12ip0ceCeszDTDFxDY1AXJ'
p4468
sg8
S'You Be Love (feat. Billy Raffoul)'
p4469
ssS'6ci6f9CGtEZO74VRTVVKDw'
p4470
(dp4471
g3
S'Tuure Kilpel\xc3\xa4inen ja Kaihon Karavaani'
p4472
sg5
I1
sg6
S'https://open.spotify.com/track/6ci6f9CGtEZO74VRTVVKDw'
p4473
sg8
S'T\xc3\xa4ss\xc3\xa4 Memee Viel\xc3\xa4 Hetki'
p4474
ssS'0n2bvWvMwr0gbjcuTm92eW'
p4475
(dp4476
g3
S'Lana Del Rey'
p4477
sg5
I3
sg6
S'https://open.spotify.com/track/0n2bvWvMwr0gbjcuTm92eW'
p4478
sg8
S'Love'
p4479
ssS'6vEP3MTLzboneUJNTqwhvI'
p4480
(dp4481
g3
S'Toni Wirtanen'
p4482
sg5
I4
sg6
S'https://open.spotify.com/track/6vEP3MTLzboneUJNTqwhvI'
p4483
sg8
S'Rakkaudella merkitty mies (Vain el\xc3\xa4m\xc3\xa4\xc3\xa4 kausi 7)'
p4484
ssS'67hYfkegE6sWIenyYH6Gov'
p4485
(dp4486
g3
S'Samu'
p4487
sg5
I6
sg6
S'https://open.spotify.com/track/67hYfkegE6sWIenyYH6Gov'
p4488
sg8
S'Onnellinen (Vain el\xc3\xa4m\xc3\xa4\xc3\xa4 kausi 6)'
p4489
ssS'19TSNGmvdTtlxYn4YqYUMf'
p4490
(dp4491
g3
S'Alan Walker'
p4492
sg5
I12
sg6
S'https://open.spotify.com/track/19TSNGmvdTtlxYn4YqYUMf'
p4493
sg8
S'Routine'
p4494
ssS'7bBy2spApJ01bKpq2sbRGb'
p4495
(dp4496
g3
S'Robin'
p4497
sg5
I8
sg6
S'https://open.spotify.com/track/7bBy2spApJ01bKpq2sbRGb'
p4498
sg8
S'Jotain Aitoo'
p4499
ssS'10B96serXW72hB0N65H5Lt'
p4500
(dp4501
g3
S'Ida Paul & Kalle Lindroth'
p4502
sg5
I8
sg6
S'https://open.spotify.com/track/10B96serXW72hB0N65H5Lt'
p4503
sg8
S'Kun t\xc3\xa4\xc3\xa4 loppuu'
p4504
ssS'3Lfiu5sZ4M4B6JaKMBc0FU'
p4505
(dp4506
g3
S'Ed Sheeran'
p4507
sg5
I3
sg6
S'https://open.spotify.com/track/3Lfiu5sZ4M4B6JaKMBc0FU'
p4508
sg8
S'Barcelona'
p4509
ssS'2Bgcn1ZzdUY4S9WMU1xWnW'
p4510
(dp4511
g3
S'Jari Sillanp\xc3\xa4\xc3\xa4'
p4512
sg5
I5
sg6
S'https://open.spotify.com/track/2Bgcn1ZzdUY4S9WMU1xWnW'
p4513
sg8
S'Parempi mies (Vain el\xc3\xa4m\xc3\xa4\xc3\xa4 kausi 7)'
p4514
ssS'1HzACLY3t0n2eYtCMM0tz2'
p4515
(dp4516
g3
S'Antti Tuisku'
p4517
sg5
I1
sg6
S'https://open.spotify.com/track/1HzACLY3t0n2eYtCMM0tz2'
p4518
sg8
S'Tragedia'
p4519
ssS'4kfm1uI9QGaoN9qm6CkAMn'
p4520
(dp4521
g3
S'Linkin Park'
p4522
sg5
I2
sg6
S'https://open.spotify.com/track/4kfm1uI9QGaoN9qm6CkAMn'
p4523
sg8
S"What I've Done"
p4524
ssS'56lBX2WHqfGuoeZxZvUnVj'
p4525
(dp4526
g3
S'Imagine Dragons'
p4527
sg5
I3
sg6
S'https://open.spotify.com/track/56lBX2WHqfGuoeZxZvUnVj'
p4528
sg8
S'Thunder'
p4529
ssS'4AOWlVNCZZwS3iKJDNlqqF'
p4530
(dp4531
g3
S'Janne Ord\xc3\xa9n'
p4532
sg5
I8
sg6
S'https://open.spotify.com/track/4AOWlVNCZZwS3iKJDNlqqF'
p4533
sg8
S'Yhdess\xc3\xa4 yksin\xc3\xa4isi\xc3\xa4'
p4534
ssS'5ums2xUAXzreZNT7qhE3AL'
p4535
(dp4536
g3
S'Vesterinen yhtyeineen'
p4537
sg5
I1
sg6
S'https://open.spotify.com/track/5ums2xUAXzreZNT7qhE3AL'
p4538
sg8
S'Disko'
p4539
ssS'1yn5xgyK5SuEukAcqs0X9N'
p4540
(dp4541
g3
S'Antti Ketonen'
p4542
sg5
I7
sg6
S'https://open.spotify.com/track/1yn5xgyK5SuEukAcqs0X9N'
p4543
sg8
S'Olisitpa syliss\xc3\xa4ni'
p4544
ssS'04CttTezSnv71USiiG9mIo'
p4545
(dp4546
g3
S'Hearts & Colors'
p4547
sg5
I9
sg6
S'https://open.spotify.com/track/04CttTezSnv71USiiG9mIo'
p4548
sg8
S'Lighthouse - Andrelli Remix'
p4549
ssS'4iLqG9SeJSnt0cSPICSjxv'
p4550
(dp4551
g3
S'Charlie Puth'
p4552
sg5
I25
sg6
S'https://open.spotify.com/track/4iLqG9SeJSnt0cSPICSjxv'
p4553
sg8
S'Attention'
p4554
ssS'5DLZ0m3L7e8dAj1TnvnAnk'
p4555
(dp4556
g3
S'Sini Sabotage'
p4557
sg5
I1
sg6
S'https://open.spotify.com/track/5DLZ0m3L7e8dAj1TnvnAnk'
p4558
sg8
S'Kiitti'
p4559
ssS'15dnkAHcHC0vrIUlbiPiqU'
p4560
(dp4561
g3
S'Imagine Dragons'
p4562
sg5
I1
sg6
S'https://open.spotify.com/track/15dnkAHcHC0vrIUlbiPiqU'
p4563
sg8
S'I Don\xe2\x80\x99t Know Why'
p4564
ssS'25bSjZDTMTMiHP4mPJNZXH'
p4565
(dp4566
g3
S'Tuomas Kauhanen'
p4567
sg5
I4
sg6
S'https://open.spotify.com/track/25bSjZDTMTMiHP4mPJNZXH'
p4568
sg8
S'Menee Aamuun'
p4569
ssS'6RUKPb4LETWmmr3iAEQktW'
p4570
(dp4571
g3
S'The Chainsmokers'
p4572
sg5
I34
sg6
S'https://open.spotify.com/track/6RUKPb4LETWmmr3iAEQktW'
p4573
sg8
S'Something Just Like This'
p4574
ssS'3FQCJI2t5LTbsRPfYVBSVB'
p4575
(dp4576
g3
S'Linkin Park'
p4577
sg5
I2
sg6
S'https://open.spotify.com/track/3FQCJI2t5LTbsRPfYVBSVB'
p4578
sg8
S'Battle Symphony'
p4579
ssS'7twLnN62kZTfE6QaIOpyuN'
p4580
(dp4581
g3
S'Haloo Helsinki!'
p4582
sg5
I5
sg6
S'https://open.spotify.com/track/7twLnN62kZTfE6QaIOpyuN'
p4583
sg8
S'Laula lujempaa (Show Must Go On)'
p4584
ssS'4pBK57ziLFqaN1sevhmIQZ'
p4585
(dp4586
g3
S'Ollie'
p4587
sg5
I15
sg6
S'https://open.spotify.com/track/4pBK57ziLFqaN1sevhmIQZ'
p4588
sg8
S'Terkkui Exille'
p4589
ssS'5jlqJ9ZEZ1t0Q88gOdkFhQ'
p4590
(dp4591
g3
S'Artem x Yonas'
p4592
sg5
I4
sg6
S'https://open.spotify.com/track/5jlqJ9ZEZ1t0Q88gOdkFhQ'
p4593
sg8
S'Savage'
p4594
ssS'2CPqh63wRVscbceKcPxwvv'
p4595
(dp4596
g3
S'Mike Perry'
p4597
sg5
I35
sg6
S'https://open.spotify.com/track/2CPqh63wRVscbceKcPxwvv'
p4598
sg8
S'The Ocean'
p4599
ssS'6jUYSFNDHWvtrnJcKNyksN'
p4600
(dp4601
g3
S'Teflon Brothers'
p4602
sg5
I7
sg6
S'https://open.spotify.com/track/6jUYSFNDHWvtrnJcKNyksN'
p4603
sg8
S'Siivet'
p4604
ssS'4DpfayW5CH6TTlGAkwiCgd'
p4605
(dp4606
g3
S'Kirka'
p4607
sg5
I1
sg6
S'https://open.spotify.com/track/4DpfayW5CH6TTlGAkwiCgd'
p4608
sg8
S'Joulupukki matkaan jo k\xc3\xa4y'
p4609
ssS'7hKCRtqxzzXkYfEjmlN2cP'
p4610
(dp4611
g3
S'Slim Mill'
p4612
sg5
I10
sg6
S'https://open.spotify.com/track/7hKCRtqxzzXkYfEjmlN2cP'
p4613
sg8
S'xDlsd Juna (feat. Jedidi & Mahku)'
p4614
ssS'5s6Sqm6yLoGHdFXdR9QE4F'
p4615
(dp4616
g3
S'Jenni Vartiainen'
p4617
sg5
I25
sg6
S'https://open.spotify.com/track/5s6Sqm6yLoGHdFXdR9QE4F'
p4618
sg8
S'Turvasana'
p4619
ssS'0Qld0SMt9XPAktXDrhDcih'
p4620
(dp4621
g3
S'Mikael Gabriel'
p4622
sg5
I10
sg6
S'https://open.spotify.com/track/0Qld0SMt9XPAktXDrhDcih'
p4623
sg8
S'Ring Ring Ring'
p4624
ssS'5Zof0Qhy8j2N9bFnVTdCDY'
p4625
(dp4626
g3
S'Janna'
p4627
sg5
I4
sg6
S'https://open.spotify.com/track/5Zof0Qhy8j2N9bFnVTdCDY'
p4628
sg8
S'Anna M\xc3\xa4 Puhallan'
p4629
ssS'3IiJBtKgAqhqer5vGAkDpH'
p4630
(dp4631
g3
S'Antti Railio'
p4632
sg5
I1
sg6
S'https://open.spotify.com/track/3IiJBtKgAqhqer5vGAkDpH'
p4633
sg8
S'Enkelikello'
p4634
ssS'5GXAXm5YOmYT0kL5jHvYBt'
p4635
(dp4636
g3
S'The Weeknd'
p4637
sg5
I27
sg6
S'https://open.spotify.com/track/5GXAXm5YOmYT0kL5jHvYBt'
p4638
sg8
S'I Feel It Coming'
p4639
ssS'1nJt1DyvUN8VCsv4pnBUsV'
p4640
(dp4641
g3
S'Gasellit'
p4642
sg5
I1
sg6
S'https://open.spotify.com/track/1nJt1DyvUN8VCsv4pnBUsV'
p4643
sg8
S'Taivaan Tosi'
p4644
ssS'6IZvVAP7VPPnsGX6bvgkqg'
p4645
(dp4646
g3
S'Kendrick Lamar'
p4647
sg5
I1
sg6
S'https://open.spotify.com/track/6IZvVAP7VPPnsGX6bvgkqg'
p4648
sg8
S'PRIDE.'
p4649
ssS'0lMbuWUpfTWhEmOKxppEau'
p4650
(dp4651
g3
S'Calvin Harris'
p4652
sg5
I5
sg6
S'https://open.spotify.com/track/0lMbuWUpfTWhEmOKxppEau'
p4653
sg8
S'Rollin'
p4654
ssS'3Tp4y9pnXgZMqd0Bv1sHSt'
p4655
(dp4656
g3
S'Heikki Kuula'
p4657
sg5
I6
sg6
S'https://open.spotify.com/track/3Tp4y9pnXgZMqd0Bv1sHSt'
p4658
sg8
S'Teneriffan Tuliaiset'
p4659
ssS'2jokQe0L7FLEriaTIOU7IW'
p4660
(dp4661
g3
S'Reino Nordin'
p4662
sg5
I31
sg6
S'https://open.spotify.com/track/2jokQe0L7FLEriaTIOU7IW'
p4663
sg8
S'Kato mua silmiin'
p4664
ssS'6Mc3Qv5IYbS3SqKj2YPiqw'
p4665
(dp4666
g3
S'Sunrise Avenue'
p4667
sg5
I1
sg6
S'https://open.spotify.com/track/6Mc3Qv5IYbS3SqKj2YPiqw'
p4668
sg8
S'Fairytale Gone Bad'
p4669
ssS'3cFsmM51N5zMAuu1nNY4Tw'
p4670
(dp4671
g3
S'Sean Paul'
p4672
sg5
I3
sg6
S'https://open.spotify.com/track/3cFsmM51N5zMAuu1nNY4Tw'
p4673
sg8
S'No Lie'
p4674
ssS'4YNQ0tPWIV8lXFA2FpkY1f'
p4675
(dp4676
g3
S'Musta Barbaari'
p4677
sg5
I6
sg6
S'https://open.spotify.com/track/4YNQ0tPWIV8lXFA2FpkY1f'
p4678
sg8
S'Eilen Me Naura'
p4679
ssS'51ChrwmUPDJvedPQnIU8Ls'
p4680
(dp4681
g3
S'Ed Sheeran'
p4682
sg5
I5
sg6
S'https://open.spotify.com/track/51ChrwmUPDJvedPQnIU8Ls'
p4683
sg8
S'Dive'
p4684
ssS'5o4yGlG0PfeVUa6ClIyOxq'
p4685
(dp4686
g3
S'Charli XCX'
p4687
sg5
I1
sg6
S'https://open.spotify.com/track/5o4yGlG0PfeVUa6ClIyOxq'
p4688
sg8
S'Boys'
p4689
ssS'1rkqIAbd5OMS3tCL2QiTsH'
p4690
(dp4691
g3
S'Rajaton'
p4692
sg5
I1
sg6
S'https://open.spotify.com/track/1rkqIAbd5OMS3tCL2QiTsH'
p4693
sg8
S'Tonttu'
p4694
ssS'5SJgIdsZjPBmMEGFb9SR8H'
p4695
(dp4696
g3
S'Suvi Ter\xc3\xa4sniska'
p4697
sg5
I1
sg6
S'https://open.spotify.com/track/5SJgIdsZjPBmMEGFb9SR8H'
p4698
sg8
S'Joulun henki'
p4699
ssS'1Tcr7aEebTBEFUKQz4iGoM'
p4700
(dp4701
g3
S'Hank Solo'
p4702
sg5
I7
sg6
S'https://open.spotify.com/track/1Tcr7aEebTBEFUKQz4iGoM'
p4703
sg8
S'Paska Syd\xc3\xa4n'
p4704
ssS'4SLLUmzirPw1Fn5okyTof5'
p4705
(dp4706
g3
S'JVG'
p4707
sg5
I7
sg6
S'https://open.spotify.com/track/4SLLUmzirPw1Fn5okyTof5'
p4708
sg8
S'Pitk\xc3\xa4t p\xc3\xa4\xc3\xa4ll\xc3\xa4'
p4709
ssS'2mfUa8bLs2s5N4VaqJZ4lZ'
p4710
(dp4711
g3
S'Hailee Steinfeld'
p4712
sg5
I1
sg6
S'https://open.spotify.com/track/2mfUa8bLs2s5N4VaqJZ4lZ'
p4713
sg8
S'Most Girls'
p4714
ssS'5ar9n0RVzhPzcIIbEeymu9'
p4715
(dp4716
g3
S'Pariisin Kev\xc3\xa4t'
p4717
sg5
I1
sg6
S'https://open.spotify.com/track/5ar9n0RVzhPzcIIbEeymu9'
p4718
sg8
S'Kuume'
p4719
ssS'0SGkqnVQo9KPytSri1H6cF'
p4720
(dp4721
g3
S'Big Sean'
p4722
sg5
I14
sg6
S'https://open.spotify.com/track/0SGkqnVQo9KPytSri1H6cF'
p4723
sg8
S'Bounce Back'
p4724
ssS'3zoYkqS4y2BsGVShPL2nTE'
p4725
(dp4726
g3
S'CNCO'
p4727
sg5
I7
sg6
S'https://open.spotify.com/track/3zoYkqS4y2BsGVShPL2nTE'
p4728
sg8
S'Reggaet\xc3\xb3n Lento (Remix) [CNCO & Little Mix]'
p4729
ssS'3UjSOJ00E1eLMcayBm827Q'
p4730
(dp4731
g3
S'Salvador Sobral'
p4732
sg5
I1
sg6
S'https://open.spotify.com/track/3UjSOJ00E1eLMcayBm827Q'
p4733
sg8
S'Amar pelos Dois'
p4734
ssS'7nKBxz47S9SD79N086fuhn'
p4735
(dp4736
g3
S'Enrique Iglesias'
p4737
sg5
I28
sg6
S'https://open.spotify.com/track/7nKBxz47S9SD79N086fuhn'
p4738
sg8
S'SUBEME LA RADIO'
p4739
ssS'5fMQc6FZhqvt0gtR7l7jiy'
p4740
(dp4741
g3
S'Yksi Totuus'
p4742
sg5
I21
sg6
S'https://open.spotify.com/track/5fMQc6FZhqvt0gtR7l7jiy'
p4743
sg8
S'Viel\xc3\xa4 kerran (feat. Tommi L\xc3\xa4ntinen)'
p4744
ssS'27SdWb2rFzO6GWiYDBTD9j'
p4745
(dp4746
g3
S'Sia'
p4747
sg5
I19
sg6
S'https://open.spotify.com/track/27SdWb2rFzO6GWiYDBTD9j'
p4748
sg8
S'Cheap Thrills'
p4749
ssS'3vgNmjuRDnGLxUFGCLkwpm'
p4750
(dp4751
g3
S'David Guetta'
p4752
sg5
I4
sg6
S'https://open.spotify.com/track/3vgNmjuRDnGLxUFGCLkwpm'
p4753
sg8
S'Light My Body Up (feat. Nicki Minaj & Lil Wayne)'
p4754
ssS'3AV27itHnVWsgI0jZ4ZDYi'
p4755
(dp4756
g3
S'Lucas'
p4757
sg5
I3
sg6
S'https://open.spotify.com/track/3AV27itHnVWsgI0jZ4ZDYi'
p4758
sg8
S'Sun takii'
p4759
ssS'4UDDfd77rlXmNjgW1NKhWq'
p4760
(dp4761
g3
S'Antti Tuisku'
p4762
sg5
I29
sg6
S'https://open.spotify.com/track/4UDDfd77rlXmNjgW1NKhWq'
p4763
sg8
S'Rahan takii'
p4764
ssS'06ZpMjkNdIDKVf3mK29UiC'
p4765
(dp4766
g3
S'Alok'
p4767
sg5
I3
sg6
S'https://open.spotify.com/track/06ZpMjkNdIDKVf3mK29UiC'
p4768
sg8
S'Never Let Me Go'
p4769
ssS'6PJ8FF6UR8FZXfEvpHkIVN'
p4770
(dp4771
g3
S'Ed Sheeran'
p4772
sg5
I5
sg6
S'https://open.spotify.com/track/6PJ8FF6UR8FZXfEvpHkIVN'
p4773
sg8
S'How Would You Feel (Paean)'
p4774
ssS'5XxnVzF859NBZ8zbrWWosk'
p4775
(dp4776
g3
S'Adi L Hasla'
p4777
sg5
I6
sg6
S'https://open.spotify.com/track/5XxnVzF859NBZ8zbrWWosk'
p4778
sg8
S'Huomenna'
p4779
ssS'3eFJqPe8VUYrABbFjSauuj'
p4780
(dp4781
g3
g312
sg5
I1
sg6
S'https://open.spotify.com/track/3eFJqPe8VUYrABbFjSauuj'
p4782
sg8
g312
ssS'5KZL8uMLL7mkxjvB8ualwF'
p4783
(dp4784
g3
S'YOUNGHEARTED'
p4785
sg5
I5
sg6
S'https://open.spotify.com/track/5KZL8uMLL7mkxjvB8ualwF'
p4786
sg8
S'Vaikeeta'
p4787
ssS'5IvHCA8GD3Zd0P4yTJbcMU'
p4788
(dp4789
g3
S'Iisa'
p4790
sg5
I1
sg6
S'https://open.spotify.com/track/5IvHCA8GD3Zd0P4yTJbcMU'
p4791
sg8
S'Kun Olit Nuori'
p4792
ssS'5ndfVSDyPq90jaIUhNPeby'
p4793
(dp4794
g3
S'Katy Perry'
p4795
sg5
I2
sg6
S'https://open.spotify.com/track/5ndfVSDyPq90jaIUhNPeby'
p4796
sg8
S'Chained To The Rhythm'
p4797
ssS'5uCax9HTNlzGybIStD3vDh'
p4798
(dp4799
g3
S'James Arthur'
p4800
sg5
I21
sg6
S'https://open.spotify.com/track/5uCax9HTNlzGybIStD3vDh'
p4801
sg8
S"Say You Won't Let Go"
p4802
ssS'7qiZfU4dY1lWllzX7mPBI3'
p4803
(dp4804
g3
S'Ed Sheeran'
p4805
sg5
I40
sg6
S'https://open.spotify.com/track/7qiZfU4dY1lWllzX7mPBI3'
p4806
sg8
S'Shape of You'
p4807
ssS'6LOCAhFzZiavHcLJucLuDy'
p4808
(dp4809
g3
S'DJ Khaled'
p4810
sg5
I1
sg6
S'https://open.spotify.com/track/6LOCAhFzZiavHcLJucLuDy'
p4811
sg8
S"Don't Quit"
p4812
ssS'7d4DMtWr7tveYoCfvB7LTV'
p4813
(dp4814
g3
S'Jarkko Ahola'
p4815
sg5
I1
sg6
S'https://open.spotify.com/track/7d4DMtWr7tveYoCfvB7LTV'
p4816
sg8
S'Mielenrauhaa'
p4817
ssS'2DLDeRXsuBnTMtkBDghOcp'
p4818
(dp4819
g3
S'Donald Shoenberg'
p4820
sg5
I1
sg6
S'https://open.spotify.com/track/2DLDeRXsuBnTMtkBDghOcp'
p4821
sg8
S'Hark! The Herald Angels Sing'
p4822
ssS'0wfbD5rAksdXUzRvMfM3x5'
p4823
(dp4824
g3
S'The Chainsmokers'
p4825
sg5
I8
sg6
S'https://open.spotify.com/track/0wfbD5rAksdXUzRvMfM3x5'
p4826
sg8
S'The One'
p4827
ssS'2WHhkkzZ6oVckMNoJ69kbc'
p4828
(dp4829
g3
S'Arttu Lindeman'
p4830
sg5
I1
sg6
S'https://open.spotify.com/track/2WHhkkzZ6oVckMNoJ69kbc'
p4831
sg8
S'Robin Hood'
p4832
ssS'2fQrGHiQOvpL9UgPvtYy6G'
p4833
(dp4834
g3
S'21 Savage'
p4835
sg5
I3
sg6
S'https://open.spotify.com/track/2fQrGHiQOvpL9UgPvtYy6G'
p4836
sg8
S'Bank Account'
p4837
ssS'7iy00h4I78544U6bGIleH5'
p4838
(dp4839
g3
S'Petra'
p4840
sg5
I3
sg6
S'https://open.spotify.com/track/7iy00h4I78544U6bGIleH5'
p4841
sg8
S'Pokka (Vain el\xc3\xa4m\xc3\xa4\xc3\xa4 kausi 6)'
p4842
ssS'3kxfsdsCpFgN412fpnW85Y'
p4843
(dp4844
g3
S'Childish Gambino'
p4845
sg5
I10
sg6
S'https://open.spotify.com/track/3kxfsdsCpFgN412fpnW85Y'
p4846
sg8
S'Redbone'
p4847
ssS'2HexsVQKdVXYWQxr1EsFZr'
p4848
(dp4849
g3
S'Laura Voutilainen'
p4850
sg5
I5
sg6
S'https://open.spotify.com/track/2HexsVQKdVXYWQxr1EsFZr'
p4851
sg8
S'Koko kuva (Vain el\xc3\xa4m\xc3\xa4\xc3\xa4 kausi 6)'
p4852
ssS'1PZNjZOmm3ZmaWkqvmJpaY'
p4853
(dp4854
g3
S'Portion Boys'
p4855
sg5
I25
sg6
S'https://open.spotify.com/track/1PZNjZOmm3ZmaWkqvmJpaY'
p4856
sg8
S'Karjala Takas'
p4857
ssS'2a1aSo4Qqi5vVmK1B1OjRm'
p4858
(dp4859
g3
S'JVG'
p4860
sg5
I1
sg6
S'https://open.spotify.com/track/2a1aSo4Qqi5vVmK1B1OjRm'
p4861
sg8
S'F\xc3\xa4ij\xc3\xb6nii - feat. MG'
p4862
ssS'1ARlEjfYjPnL5EnClRf0ND'
p4863
(dp4864
g3
S'Tuomas Kauhanen'
p4865
sg5
I16
sg6
S'https://open.spotify.com/track/1ARlEjfYjPnL5EnClRf0ND'
p4866
sg8
S'Jano'
p4867
ssS'1F2HXIJrE2Xn81OzT2zZvW'
p4868
(dp4869
g3
S'French Montana'
p4870
sg5
I12
sg6
S'https://open.spotify.com/track/1F2HXIJrE2Xn81OzT2zZvW'
p4871
sg8
S'Unforgettable'
p4872
ssS'6QgjcU0zLnzq5OrUoSZ3OK'
p4873
(dp4874
g3
S'Portugal. The Man'
p4875
sg5
I8
sg6
S'https://open.spotify.com/track/6QgjcU0zLnzq5OrUoSZ3OK'
p4876
sg8
S'Feel It Still'
p4877
ssS'1QmcpgQ7kmwW7Ks68qJOxc'
p4878
(dp4879
g3
S'Mikael Gabriel'
p4880
sg5
I1
sg6
S'https://open.spotify.com/track/1QmcpgQ7kmwW7Ks68qJOxc'
p4881
sg8
S'LA'
p4882
ssS'78rIJddV4X0HkNAInEcYde'
p4883
(dp4884
g3
S'Starley'
p4885
sg5
I24
sg6
S'https://open.spotify.com/track/78rIJddV4X0HkNAInEcYde'
p4886
sg8
S'Call On Me - Ryan Riback Extended Remix'
p4887
ssS'0L7loeTIg6akW84aEQZpCT'
p4888
(dp4889
g3
S'Major Lazer'
p4890
sg5
I1
sg6
S'https://open.spotify.com/track/0L7loeTIg6akW84aEQZpCT'
p4891
sg8
S'Light It Up (feat. Nyla & Fuse ODG) - Remix'
p4892
ssS'595VInLskiR7Cz2f6BTMgT'
p4893
(dp4894
g3
S'Hotelli Vantaa'
p4895
sg5
I5
sg6
S'https://open.spotify.com/track/595VInLskiR7Cz2f6BTMgT'
p4896
sg8
S'Rihanna (feat. Heikki Kuula)'
p4897
ssS'6fJ2AvT8mPihdVIMU51VQ6'
p4898
(dp4899
g3
S'Cledos'
p4900
sg5
I6
sg6
S'https://open.spotify.com/track/6fJ2AvT8mPihdVIMU51VQ6'
p4901
sg8
S'T\xc3\xb6is (feat. Deezydavid)'
p4902
ssS'6s24n2gAntafBSKRHEhEnJ'
p4903
(dp4904
g3
S'KLYMVX'
p4905
sg5
I1
sg6
S'https://open.spotify.com/track/6s24n2gAntafBSKRHEhEnJ'
p4906
sg8
S'After Midnight'
p4907
ssS'2EEeOnHehOozLq4aS0n6SL'
p4908
(dp4909
g3
S'KYLE'
p4910
sg5
I18
sg6
S'https://open.spotify.com/track/2EEeOnHehOozLq4aS0n6SL'
p4911
sg8
S'iSpy (feat. Lil Yachty)'
p4912
ssS'6trXE7m15i4OFFxzApXSzQ'
p4913
(dp4914
g3
S'Marcus & Martinus'
p4915
sg5
I1
sg6
S'https://open.spotify.com/track/6trXE7m15i4OFFxzApXSzQ'
p4916
sg8
S'Light It Up'
p4917
ssS'4vDRNDPO1CUxD3sjuQIBSt'
p4918
(dp4919
g3
S'Antti Tuisku'
p4920
sg5
I4
sg6
S'https://open.spotify.com/track/4vDRNDPO1CUxD3sjuQIBSt'
p4921
sg8
S'Hanuri (feat. Boyat)'
p4922
ssS'69lSnKz6dwvIxJ98JMei1J'
p4923
(dp4924
g3
S'JVG'
p4925
sg5
I1
sg6
S'https://open.spotify.com/track/69lSnKz6dwvIxJ98JMei1J'
p4926
sg8
S'#99'
p4927
ssS'40wbxg77nK3ouaHTgH0AEe'
p4928
(dp4929
g3
S'AlunaGeorge'
p4930
sg5
I1
sg6
S'https://open.spotify.com/track/40wbxg77nK3ouaHTgH0AEe'
p4931
sg8
S'Turn Up The Love'
p4932
ssS'5zjzN9wHwgYFaMLzjjoJ8a'
p4933
(dp4934
g3
S'Pihlaja'
p4935
sg5
I4
sg6
S'https://open.spotify.com/track/5zjzN9wHwgYFaMLzjjoJ8a'
p4936
sg8
S'Aaveet'
p4937
ssS'167NczpNbRF7oWakJaY3Hh'
p4938
(dp4939
g3
S'Niall Horan'
p4940
sg5
I22
sg6
S'https://open.spotify.com/track/167NczpNbRF7oWakJaY3Hh'
p4941
sg8
S'Slow Hands'
p4942
ssS'0fH86zQcE2CmATQju6WpXv'
p4943
(dp4944
g3
S'Kris Kross Amsterdam'
p4945
sg5
I8
sg6
S'https://open.spotify.com/track/0fH86zQcE2CmATQju6WpXv'
p4946
sg8
S'Are You Sure? (feat. Ty Dolla $ign)'
p4947
ssS'0abmguXz8UqvPnL8y5RGJf'
p4948
(dp4949
g3
S'Laura N\xc3\xa4rhi'
p4950
sg5
I3
sg6
S'https://open.spotify.com/track/0abmguXz8UqvPnL8y5RGJf'
p4951
sg8
S'Olet mulle se'
p4952
ssS'4nYKcVxSChmk3RvFbZjYob'
p4953
(dp4954
g3
S'Dzeko & Torres'
p4955
sg5
I1
sg6
S'https://open.spotify.com/track/4nYKcVxSChmk3RvFbZjYob'
p4956
sg8
S"L'amour toujours - Tiesto Radio Edit"
p4957
ssS'0WQHrAJ0jgd3noivSkubdU'
p4958
(dp4959
g3
S'Keko Salata'
p4960
sg5
I20
sg6
S'https://open.spotify.com/track/0WQHrAJ0jgd3noivSkubdU'
p4961
sg8
S'Boombidibyebye'
p4962
ssS'5DTBkAANRc9K2B2uZ9aVCU'
p4963
(dp4964
g3
S'JVG'
p4965
sg5
I35
sg6
S'https://open.spotify.com/track/5DTBkAANRc9K2B2uZ9aVCU'
p4966
sg8
S'Sit\xc3\xa4 s\xc3\xa4\xc3\xa4t mit\xc3\xa4 tilaat (feat. Ellinoora)'
p4967
ssS'6vBgJ1SLmpB4VMcEVy1ovL'
p4968
(dp4969
g3
S'Joakim Lundell'
p4970
sg5
I12
sg6
S'https://open.spotify.com/track/6vBgJ1SLmpB4VMcEVy1ovL'
p4971
sg8
S'All I Need'
p4972
ssS'2tH8dQsjymKvTfMWues3YJ'
p4973
(dp4974
g3
S'Malm\xc3\xb6'
p4975
sg5
I2
sg6
S'https://open.spotify.com/track/2tH8dQsjymKvTfMWues3YJ'
p4976
sg8
S'Pihalla susta'
p4977
ssS'43ZyHQITOjhciSUUNPVRHc'
p4978
(dp4979
g3
S'Lil Pump'
p4980
sg5
I1
sg6
S'https://open.spotify.com/track/43ZyHQITOjhciSUUNPVRHc'
p4981
sg8
S'Gucci Gang'
p4982
ssS'2lxrLR1S6M4upQZbSOQKD4'
p4983
(dp4984
g3
S'JVG'
p4985
sg5
I19
sg6
S'https://open.spotify.com/track/2lxrLR1S6M4upQZbSOQKD4'
p4986
sg8
S'Revolveri (Luokkakokous 2 - Polttarit)'
p4987
ssS'6CfrYuD3YRDYdYvH9jNtXY'
p4988
(dp4989
g3
S'Drake'
p4990
sg5
I1
sg6
S'https://open.spotify.com/track/6CfrYuD3YRDYdYvH9jNtXY'
p4991
sg8
S'No Long Talk'
p4992
ssS'4v6jydWBTAIqnyPVNyOAdc'
p4993
(dp4994
g3
S'Haddaway'
p4995
sg5
I1
sg6
S'https://open.spotify.com/track/4v6jydWBTAIqnyPVNyOAdc'
p4996
sg8
S'What Is Love'
p4997
ssS'5EX05Lf8SBwmowJhJvdnao'
p4998
(dp4999
g3
S'Kube'
p5000
sg5
I6
sg6
S'https://open.spotify.com/track/5EX05Lf8SBwmowJhJvdnao'
p5001
sg8
S'Kolme Michelin t\xc3\xa4htee'
p5002
ssS'1GMKKk2XK9gWHyp0ljbQmi'
p5003
(dp5004
g3
S'LEO'
p5005
sg5
I1
sg6
S'https://open.spotify.com/track/1GMKKk2XK9gWHyp0ljbQmi'
p5006
sg8
S'Sano mit\xc3\xa4 sanot'
p5007
ssS'1839RWzPRZCVgvamu4sHSN'
p5008
(dp5009
g3
S'Cash Cash'
p5010
sg5
I6
sg6
S'https://open.spotify.com/track/1839RWzPRZCVgvamu4sHSN'
p5011
sg8
S'All My Love (feat. Conor Maynard)'
p5012
ssS'1pUuZi31pjEIayPjqNJXT1'
p5013
(dp5014
g3
S'Samu'
p5015
sg5
I8
sg6
S'https://open.spotify.com/track/1pUuZi31pjEIayPjqNJXT1'
p5016
sg8
S'Satuprinsessa (Vain el\xc3\xa4m\xc3\xa4\xc3\xa4 kausi 6)'
p5017
ssS'4zW7iWwtwLe0NTVmLhhHcJ'
p5018
(dp5019
g3
S'Juha Tapio'
p5020
sg5
I3
sg6
S'https://open.spotify.com/track/4zW7iWwtwLe0NTVmLhhHcJ'
p5021
sg8
S'Oo se kun oot (Vain el\xc3\xa4m\xc3\xa4\xc3\xa4 kausi 7)'
p5022
ssS'4uoumbAMEMaKdtiv763jKz'
p5023
(dp5024
g3
S'Zara Larsson'
p5025
sg5
I7
sg6
S'https://open.spotify.com/track/4uoumbAMEMaKdtiv763jKz'
p5026
sg8
S'TG4M'
p5027
ssS'4mjFzwPhJwT14UiuFThozg'
p5028
(dp5029
g3
S'Juulia'
p5030
sg5
I9
sg6
S'https://open.spotify.com/track/4mjFzwPhJwT14UiuFThozg'
p5031
sg8
S'Mul Oli Ik\xc3\xa4v\xc3\xa4 Mua'
p5032
ssS'3gELajuk8TcvJlbVI4uwA9'
p5033
(dp5034
g3
S'Spekti'
p5035
sg5
I1
sg6
S'https://open.spotify.com/track/3gELajuk8TcvJlbVI4uwA9'
p5036
sg8
S'Vaikka V\xc3\xa4kisin'
p5037
ssS'7pYFPMeK0TnaTGdS6qOtEr'
p5038
(dp5039
g3
S'Stargate'
p5040
sg5
I1
sg6
S'https://open.spotify.com/track/7pYFPMeK0TnaTGdS6qOtEr'
p5041
sg8
S'Waterfall'
p5042
ssS'1yNyoWWWikbLhwIGWjZuDW'
p5043
(dp5044
g3
S'The Vamps'
p5045
sg5
I19
sg6
S'https://open.spotify.com/track/1yNyoWWWikbLhwIGWjZuDW'
p5046
sg8
S'All Night'
p5047
ssS'26AuyrZGzWWiYZPSd3XBIg'
p5048
(dp5049
g3
S'The Chainsmokers'
p5050
sg5
I1
sg6
S'https://open.spotify.com/track/26AuyrZGzWWiYZPSd3XBIg'
p5051
sg8
S'Bloodstream'
p5052
ssS'25BTH3we8xfwXzIR4pyEDk'
p5053
(dp5054
g3
S'CMC$'
p5055
sg5
I7
sg6
S'https://open.spotify.com/track/25BTH3we8xfwXzIR4pyEDk'
p5056
sg8
S"Won't Let You Go"
p5057
ssS'3Dwq1oiOFys6Sxr5SslmXw'
p5058
(dp5059
g3
S'Harry Styles'
p5060
sg5
I1
sg6
S'https://open.spotify.com/track/3Dwq1oiOFys6Sxr5SslmXw'
p5061
sg8
S'Carolina'
p5062
ssS'4vb4mFvYsr2h6enhjJsq9Y'
p5063
(dp5064
g3
S'Adele'
p5065
sg5
I1
sg6
S'https://open.spotify.com/track/4vb4mFvYsr2h6enhjJsq9Y'
p5066
sg8
S'Water Under the Bridge'
p5067
ssS'2kVHAQKVtczchKctctzbtK'
p5068
(dp5069
g3
S'Katy Perry'
p5070
sg5
I18
sg6
S'https://open.spotify.com/track/2kVHAQKVtczchKctctzbtK'
p5071
sg8
S'Swish Swish'
p5072
ssS'17Fd6Yb7mSbinKG8LoWfFl'
p5073
(dp5074
g3
S'Mike Posner'
p5075
sg5
I6
sg6
S'https://open.spotify.com/track/17Fd6Yb7mSbinKG8LoWfFl'
p5076
sg8
S'I Took A Pill In Ibiza - Seeb Remix'
p5077
ssS'2VQV6eEOwvlM5aGQDK0axq'
p5078
(dp5079
g3
S'Slim Mill'
p5080
sg5
I5
sg6
S'https://open.spotify.com/track/2VQV6eEOwvlM5aGQDK0axq'
p5081
sg8
S'xDlsd (feat. Mahku)'
p5082
ssS'4tCtwWceOPWzenK2HAIJSb'
p5083
(dp5084
g3
S'Fifth Harmony'
p5085
sg5
I1
sg6
S'https://open.spotify.com/track/4tCtwWceOPWzenK2HAIJSb'
p5086
sg8
S'Work from Home'
p5087
ssS'6mGaOz5trtSLOUHXKiAP62'
p5088
(dp5089
g3
S'Robin'
p5090
sg5
I15
sg6
S'https://open.spotify.com/track/6mGaOz5trtSLOUHXKiAP62'
p5091
sg8
S'Hollywood Hills - Vain El\xc3\xa4m\xc3\xa4\xc3\xa4 Kausi 6'
p5092
ssS'6TBZwrqwOGOOeJwoI9ZBUL'
p5093
(dp5094
g3
S'Samu'
p5095
sg5
I4
sg6
S'https://open.spotify.com/track/6TBZwrqwOGOOeJwoI9ZBUL'
p5096
sg8
S'Perjantai 13. (Vain el\xc3\xa4m\xc3\xa4\xc3\xa4 kausi 6)'
p5097
ssS'22jYlRJwHiWy7JNKLxA3Z5'
p5098
(dp5099
g3
S'SANNI'
p5100
sg5
I2
sg6
S'https://open.spotify.com/track/22jYlRJwHiWy7JNKLxA3Z5'
p5101
sg8
S'Ravistettava ennen k\xc3\xa4ytt\xc3\xb6\xc3\xa4 (Vain el\xc3\xa4m\xc3\xa4\xc3\xa4 kausi 7)'
p5102
ssS'3uB6rxXYjmMEhOVJT763S6'
p5103
(dp5104
g3
S'Matoma'
p5105
sg5
I2
sg6
S'https://open.spotify.com/track/3uB6rxXYjmMEhOVJT763S6'
p5106
sg8
S'Staying Up'
p5107
ssS'16c0hutUfSjSKKOtwtWcgM'
p5108
(dp5109
g3
S'KUUMAA'
p5110
sg5
I1
sg6
S'https://open.spotify.com/track/16c0hutUfSjSKKOtwtWcgM'
p5111
sg8
S'Hulluista Runoista'
p5112
ssS'05KOgYg8PGeJyyWBPi5ja8'
p5113
(dp5114
g3
S'Drake'
p5115
sg5
I2
sg6
S'https://open.spotify.com/track/05KOgYg8PGeJyyWBPi5ja8'
p5116
sg8
S'Free Smoke'
p5117
ssS'09cUEKSXKF5O4oraleebgY'
p5118
(dp5119
g3
S'JVG'
p5120
sg5
I6
sg6
S'https://open.spotify.com/track/09cUEKSXKF5O4oraleebgY'
p5121
sg8
S'Paluu tulevaisuuteen'
p5122
ssS'3GChmmx5xEjCmL2n49Qrwj'
p5123
(dp5124
g3
S'Adi L Hasla'
p5125
sg5
I1
sg6
S'https://open.spotify.com/track/3GChmmx5xEjCmL2n49Qrwj'
p5126
sg8
S'Uhka Vai Mahdollisuus'
p5127
ssS'7F7hIN7STbxevaC4kII8Ux'
p5128
(dp5129
g3
S'Titta'
p5130
sg5
I5
sg6
S'https://open.spotify.com/track/7F7hIN7STbxevaC4kII8Ux'
p5131
sg8
S'Rakkaudesta'
p5132
ssS'32OWobmyAz8J2qA8iWekyS'
p5133
(dp5134
g3
S'Justin Bieber'
p5135
sg5
I1
sg6
S'https://open.spotify.com/track/32OWobmyAz8J2qA8iWekyS'
p5136
sg8
S'Mistletoe'
p5137
ssS'6Pw3Gvw4wNMZfTYZa6IQal'
p5138
(dp5139
g3
S'Bebe Rexha'
p5140
sg5
I2
sg6
S'https://open.spotify.com/track/6Pw3Gvw4wNMZfTYZa6IQal'
p5141
sg8
S'The Way I Are (Dance With Somebody) [feat. Lil Wayne]'
p5142
ssS'1oMAXpN4znqVlWaOrWUd7S'
p5143
(dp5144
g3
S'Olli Lindholm'
p5145
sg5
I3
sg6
S'https://open.spotify.com/track/1oMAXpN4znqVlWaOrWUd7S'
p5146
sg8
S'Heilutaan (Vain el\xc3\xa4m\xc3\xa4\xc3\xa4 kausi 6)'
p5147
ssS'0yYEYyxPDbotB8JOeXpVyh'
p5148
(dp5149
g3
S'Laura Voutilainen'
p5150
sg5
I3
sg6
S'https://open.spotify.com/track/0yYEYyxPDbotB8JOeXpVyh'
p5151
sg8
S'Miks Ei'
p5152
ssS'1m6OKxDyKgvIrln6e8c72Y'
p5153
(dp5154
g3
S'BESS'
p5155
sg5
I10
sg6
S'https://open.spotify.com/track/1m6OKxDyKgvIrln6e8c72Y'
p5156
sg8
S'Tempo'
p5157
ssS'4cwM7tEy5h0SZtDzyOObmL'
p5158
(dp5159
g3
S'Br\xc3\xa4di'
p5160
sg5
I1
sg6
S'https://open.spotify.com/track/4cwM7tEy5h0SZtDzyOObmL'
p5161
sg8
S'Kuudes Pelaaja'
p5162
ssS'3bidbhpOYeV4knp8AIu8Xn'
p5163
(dp5164
g3
S'Macklemore & Ryan Lewis'
p5165
sg5
I1
sg6
S'https://open.spotify.com/track/3bidbhpOYeV4knp8AIu8Xn'
p5166
sg8
S"Can't Hold Us - feat. Ray Dalton"
p5167
ssS'5RLL3hPFVU3wfib1YijpvE'
p5168
(dp5169
g3
S'Jenni Vartiainen'
p5170
sg5
I5
sg6
S'https://open.spotify.com/track/5RLL3hPFVU3wfib1YijpvE'
p5171
sg8
S'Keinu (Vain el\xc3\xa4m\xc3\xa4\xc3\xa4 kausi 7)'
p5172
ssS'4kqGnRKVlFzfVptbeBmM1u'
p5173
(dp5174
g3
S'Antti Tuisku'
p5175
sg5
I4
sg6
S'https://open.spotify.com/track/4kqGnRKVlFzfVptbeBmM1u'
p5176
sg8
S'Ihan tavallista mulle kuuluu'
p5177
ssS'6PGoSes0D9eUDeeAafB2As'
p5178
(dp5179
g3
S'Kendrick Lamar'
p5180
sg5
I4
sg6
S'https://open.spotify.com/track/6PGoSes0D9eUDeeAafB2As'
p5181
sg8
S'LOVE. FEAT. ZACARI.'
p5182
ssS'1lItf5ZXJc1by9SbPeljFd'
p5183
(dp5184
g3
S'Zay Hilfigerrr'
p5185
sg5
I4
sg6
S'https://open.spotify.com/track/1lItf5ZXJc1by9SbPeljFd'
p5186
sg8
S'Juju On That Beat (TZ Anthem)'
p5187
ss.