(dp0
S'46jLy47W8rkf8rEX04gMKB'
p1
(dp2
S'artistName'
p3
S'OneRepublic'
p4
sS'weeksOnChart'
p5
I11
sS'track_href'
p6
S'https://open.spotify.com/track/46jLy47W8rkf8rEX04gMKB'
p7
sS'songName'
p8
S'Wherever I Go'
p9
ssS'0mel2N9Ws9r4yLQn5QE21Y'
p10
(dp11
g3
S'Sam Smith'
p12
sg5
I5
sg6
S'https://open.spotify.com/track/0mel2N9Ws9r4yLQn5QE21Y'
p13
sg8
S'Too Good At Goodbyes'
p14
ssS'728zbo72kOoYdGR3AhNsyF'
p15
(dp16
g3
S'The xx'
p17
sg5
I1
sg6
S'https://open.spotify.com/track/728zbo72kOoYdGR3AhNsyF'
p18
sg8
S'Say Something Loving'
p19
ssS'13e6f8t7RKXuxZ0JdaaJRG'
p20
(dp21
g3
S'Drake'
p22
sg5
I1
sg6
S'https://open.spotify.com/track/13e6f8t7RKXuxZ0JdaaJRG'
p23
sg8
S'Jorja Interlude'
p24
ssS'1Q1Lz8shbr2AXR8zKReTqd'
p25
(dp26
g3
S'Hearts & Colors'
p27
sg5
I1
sg6
S'https://open.spotify.com/track/1Q1Lz8shbr2AXR8zKReTqd'
p28
sg8
S'For The Love'
p29
ssS'0jdny0dhgjUwoIp5GkqEaA'
p30
(dp31
g3
S'Kesha'
p32
sg5
I5
sg6
S'https://open.spotify.com/track/0jdny0dhgjUwoIp5GkqEaA'
p33
sg8
S'Praying'
p34
ssS'60a0Rd6pjrkxjPbaKzXjfq'
p35
(dp36
g3
S'Linkin Park'
p37
sg5
I37
sg6
S'https://open.spotify.com/track/60a0Rd6pjrkxjPbaKzXjfq'
p38
sg8
S'In The End'
p39
ssS'0prNGof3XqfTvNDxHonvdK'
p40
(dp41
g3
S'Alessia Cara'
p42
sg5
I21
sg6
S'https://open.spotify.com/track/0prNGof3XqfTvNDxHonvdK'
p43
sg8
S'Scars To Your Beautiful'
p44
ssS'4q0vnoWFd16SMvlGMPB6Yy'
p45
(dp46
g3
S'D\xc4\x9btsk\xc3\xbd sbor Camerata'
p47
sg5
I1
sg6
S'https://open.spotify.com/track/4q0vnoWFd16SMvlGMPB6Yy'
p48
sg8
S'Narodil se Kristus P\xc3\xa1n'
p49
ssS'1pJQAHpD51J7GYaFrrFO9S'
p50
(dp51
g3
S'The Chainsmokers'
p52
sg5
I1
sg6
S'https://open.spotify.com/track/1pJQAHpD51J7GYaFrrFO9S'
p53
sg8
S"Don't Say"
p54
ssS'6HUnnBwYZqcED1eQztxMBN'
p55
(dp56
g3
S'Martin Jensen'
p57
sg5
I42
sg6
S'https://open.spotify.com/track/6HUnnBwYZqcED1eQztxMBN'
p58
sg8
S'Solo Dance'
p59
ssS'6hmhG1b4LEyNuashVvuIAo'
p60
(dp61
g3
S'Zara Larsson'
p62
sg5
I3
sg6
S'https://open.spotify.com/track/6hmhG1b4LEyNuashVvuIAo'
p63
sg8
S'Never Forget You'
p64
ssS'0F1Rc18rZcJOALxIIQPTYd'
p65
(dp66
g3
S'Maty Noyes'
p67
sg5
I2
sg6
S'https://open.spotify.com/track/0F1Rc18rZcJOALxIIQPTYd'
p68
sg8
S'in my miNd'
p69
ssS'3QWjljChcOMkRDYSzF33Qr'
p70
(dp71
g3
S'Kiiara'
p72
sg5
I17
sg6
S'https://open.spotify.com/track/3QWjljChcOMkRDYSzF33Qr'
p73
sg8
S'Whippin (feat. Felix Snow)'
p74
ssS'2fQMaGxSCKFNFuEBfaB0Ki'
p75
(dp76
g3
S'Separ'
p77
sg5
I1
sg6
S'https://open.spotify.com/track/2fQMaGxSCKFNFuEBfaB0Ki'
p78
sg8
S'Vyjebala Re\xc5\xa1pekt'
p79
ssS'0lLdorYw7lVrJydTINhWdI'
p80
(dp81
g3
S'Michael Bubl\xc3\xa9'
p82
sg5
I1
sg6
S'https://open.spotify.com/track/0lLdorYw7lVrJydTINhWdI'
p83
sg8
S"It's Beginning To Look A Lot Like Christmas"
p84
ssS'1OAh8uOEOvTDqkKFsKksCi'
p85
(dp86
g3
S'DJ Khaled'
p87
sg5
I17
sg6
S'https://open.spotify.com/track/1OAh8uOEOvTDqkKFsKksCi'
p88
sg8
S'Wild Thoughts'
p89
ssS'5UCsGZSezdlGA1bY3QMgXG'
p90
(dp91
g3
S'The xx'
p92
sg5
I1
sg6
S'https://open.spotify.com/track/5UCsGZSezdlGA1bY3QMgXG'
p93
sg8
S'Performance'
p94
ssS'5o4yGlG0PfeVUa6ClIyOxq'
p95
(dp96
g3
S'Charli XCX'
p97
sg5
I1
sg6
S'https://open.spotify.com/track/5o4yGlG0PfeVUa6ClIyOxq'
p98
sg8
S'Boys'
p99
ssS'4b4KcovePX8Ke2cLIQTLM0'
p100
(dp101
g3
S'The Vamps'
p102
sg5
I14
sg6
S'https://open.spotify.com/track/4b4KcovePX8Ke2cLIQTLM0'
p103
sg8
S'All Night'
p104
ssS'2PxEnLLzBRr15Hm6v0wqwB'
p105
(dp106
g3
S'Paulie Garand'
p107
sg5
I2
sg6
S'https://open.spotify.com/track/2PxEnLLzBRr15Hm6v0wqwB'
p108
sg8
S'Colosseum'
p109
ssS'0mZriPjLPG9PExNzKQ3NVS'
p110
(dp111
g3
S'Imagine Dragons'
p112
sg5
I10
sg6
S'https://open.spotify.com/track/0mZriPjLPG9PExNzKQ3NVS'
p113
sg8
S'Warriors'
p114
ssS'7KcGEssn7BnJdTgildK5y0'
p115
(dp116
g3
S'Nicki Minaj'
p117
sg5
I1
sg6
S'https://open.spotify.com/track/7KcGEssn7BnJdTgildK5y0'
p118
sg8
S'No Frauds'
p119
ssS'2qsM1KHWQHBUEQlk6fOxdA'
p120
(dp121
g3
S'D\xc4\x9btsk\xc3\xbd sbor Camerata'
p122
sg5
I1
sg6
S'https://open.spotify.com/track/2qsM1KHWQHBUEQlk6fOxdA'
p123
sg8
S'K Je\xc5\xbe\xc3\xad\xc5\xa1kovi do Betl\xc3\xa9ma'
p124
ssS'1CnPYaKxTVb4LWOtiGOm0m'
p125
(dp126
g3
S'Jon Bellion'
p127
sg5
I25
sg6
S'https://open.spotify.com/track/1CnPYaKxTVb4LWOtiGOm0m'
p128
sg8
S'All Time Low'
p129
ssS'4OZEu0Vwq0RB2LAq14v99n'
p130
(dp131
g3
S'DJ Snake'
p132
sg5
I2
sg6
S'https://open.spotify.com/track/4OZEu0Vwq0RB2LAq14v99n'
p133
sg8
S'Middle'
p134
ssS'6Pw3Gvw4wNMZfTYZa6IQal'
p135
(dp136
g3
S'Bebe Rexha'
p137
sg5
I6
sg6
S'https://open.spotify.com/track/6Pw3Gvw4wNMZfTYZa6IQal'
p138
sg8
S'The Way I Are (Dance With Somebody) [feat. Lil Wayne]'
p139
ssS'1wLQwg0mloy3yXjL0jPE0N'
p140
(dp141
g3
S'Foo Fighters'
p142
sg5
I1
sg6
S'https://open.spotify.com/track/1wLQwg0mloy3yXjL0jPE0N'
p143
sg8
S'Run'
p144
ssS'48UPSzbZjgc449aqz8bxox'
p145
(dp146
g3
S'Red Hot Chili Peppers'
p147
sg5
I1
sg6
S'https://open.spotify.com/track/48UPSzbZjgc449aqz8bxox'
p148
sg8
S'Californication'
p149
ssS'6c0I7CfL9ziGZN8yYkLppP'
p150
(dp151
g3
S'Linkin Park'
p152
sg5
I4
sg6
S'https://open.spotify.com/track/6c0I7CfL9ziGZN8yYkLppP'
p153
sg8
S'Sharp Edges'
p154
ssS'3qLwtC9jEWugjkzyZlYgeg'
p155
(dp156
g3
S'The xx'
p157
sg5
I1
sg6
S'https://open.spotify.com/track/3qLwtC9jEWugjkzyZlYgeg'
p158
sg8
S'Test Me'
p159
ssS'2FRnf9qhLbvw8fu4IBXx78'
p160
(dp161
g3
S'Wham!'
p162
sg5
I1
sg6
S'https://open.spotify.com/track/2FRnf9qhLbvw8fu4IBXx78'
p163
sg8
S'Last Christmas'
p164
ssS'7tr2za8SQg2CI8EDgrdtNl'
p165
(dp166
g3
S'Calvin Harris'
p167
sg5
I24
sg6
S'https://open.spotify.com/track/7tr2za8SQg2CI8EDgrdtNl'
p168
sg8
S'Slide'
p169
ssS'1UYYneEmjeXf3ToNfB5ICg'
p170
(dp171
g3
S'Slza'
p172
sg5
I1
sg6
S'https://open.spotify.com/track/1UYYneEmjeXf3ToNfB5ICg'
p173
sg8
S'Holomr\xc3\xa1z'
p174
ssS'3gfmFoJgmn9LiIj5mV8oSS'
p175
(dp176
g3
S'R3HAB'
p177
sg5
I4
sg6
S'https://open.spotify.com/track/3gfmFoJgmn9LiIj5mV8oSS'
p178
sg8
S"I Just Can't"
p179
ssS'60pkTBmS1hqeJopgAOw3Ju'
p180
(dp181
g3
S'Nik Tendo'
p182
sg5
I1
sg6
S'https://open.spotify.com/track/60pkTBmS1hqeJopgAOw3Ju'
p183
sg8
S'Ohniway'
p184
ssS'0hMmdL64r14D1m9yjRyv7U'
p185
(dp186
g3
S'Ben Cristovao'
p187
sg5
I41
sg6
S'https://open.spotify.com/track/0hMmdL64r14D1m9yjRyv7U'
p188
sg8
S'Asio'
p189
ssS'06FCvd7rrRcF3DdvWH5Isp'
p190
(dp191
g3
S'Kendrick Lamar'
p192
sg5
I1
sg6
S'https://open.spotify.com/track/06FCvd7rrRcF3DdvWH5Isp'
p193
sg8
S'LUST.'
p194
ssS'4pLwZjInHj3SimIyN9SnOz'
p195
(dp196
g3
S'Ariana Grande'
p197
sg5
I20
sg6
S'https://open.spotify.com/track/4pLwZjInHj3SimIyN9SnOz'
p198
sg8
S'Side To Side'
p199
ssS'6C7RJEIUDqKkJRZVWdkfkH'
p200
(dp201
g3
S'Kanye West'
p202
sg5
I16
sg6
S'https://open.spotify.com/track/6C7RJEIUDqKkJRZVWdkfkH'
p203
sg8
S'Stronger'
p204
ssS'3E2Zh20GDCR9B1EYjfXWyv'
p205
(dp206
g3
S'AJR'
p207
sg5
I40
sg6
S'https://open.spotify.com/track/3E2Zh20GDCR9B1EYjfXWyv'
p208
sg8
S'Weak'
p209
ssS'2Gl0FzuLxflY6nPifJp5Dr'
p210
(dp211
g3
S'Kygo'
p212
sg5
I24
sg6
S'https://open.spotify.com/track/2Gl0FzuLxflY6nPifJp5Dr'
p213
sg8
S'First Time'
p214
ssS'21wcDiNULxqiWuqeU2chxF'
p215
(dp216
g3
S'Nik Tendo'
p217
sg5
I1
sg6
S'https://open.spotify.com/track/21wcDiNULxqiWuqeU2chxF'
p218
sg8
S'Teen Love'
p219
ssS'0xl1w2q4VLojeXp4JfazPL'
p220
(dp221
g3
S'Drake'
p222
sg5
I1
sg6
S'https://open.spotify.com/track/0xl1w2q4VLojeXp4JfazPL'
p223
sg8
S'Sacrifices'
p224
ssS'4ccnFUcrGxzF5qf1dCWUol'
p225
(dp226
g3
S'Renne Dang'
p227
sg5
I1
sg6
S'https://open.spotify.com/track/4ccnFUcrGxzF5qf1dCWUol'
p228
sg8
S'O\xc4\x8dista'
p229
ssS'34isqXjbTstbYwl2MfdzDq'
p230
(dp231
g3
S'Linkin Park'
p232
sg5
I4
sg6
S'https://open.spotify.com/track/34isqXjbTstbYwl2MfdzDq'
p233
sg8
S'Sorry for Now'
p234
ssS'4BHzQ9C00ceJxfG16AlNWb'
p235
(dp236
g3
S'Adele'
p237
sg5
I17
sg6
S'https://open.spotify.com/track/4BHzQ9C00ceJxfG16AlNWb'
p238
sg8
S'Send My Love (To Your New Lover)'
p239
ssS'4Km5HrUvYTaSUfiSGPJeQR'
p240
(dp241
g3
S'Migos'
p242
sg5
I14
sg6
S'https://open.spotify.com/track/4Km5HrUvYTaSUfiSGPJeQR'
p243
sg8
S'Bad and Boujee (feat. Lil Uzi Vert)'
p244
ssS'3WrG9BpOPQWUus3FjA1Tny'
p245
(dp246
g3
S"Destiny's Child"
p247
sg5
I1
sg6
S'https://open.spotify.com/track/3WrG9BpOPQWUus3FjA1Tny'
p248
sg8
S'8 Days of Christmas - Live'
p249
ssS'0LhVh2VbRkJhpOfuNxG2Uc'
p250
(dp251
g3
S'Wohnout'
p252
sg5
I36
sg6
S'https://open.spotify.com/track/0LhVh2VbRkJhpOfuNxG2Uc'
p253
sg8
S'Svaz ceskych bohemu'
p254
ssS'0RYXEibxMami3QuT8kn4Iz'
p255
(dp256
g3
S'Macklemore'
p257
sg5
I5
sg6
S'https://open.spotify.com/track/0RYXEibxMami3QuT8kn4Iz'
p258
sg8
S'Marmalade (feat. Lil Yachty)'
p259
ssS'5LYQSNHZxEA880URXFHg6h'
p260
(dp261
g3
S'Lana Del Rey'
p262
sg5
I6
sg6
S'https://open.spotify.com/track/5LYQSNHZxEA880URXFHg6h'
p263
sg8
S'Lust for Life (with The Weeknd)'
p264
ssS'3EmmCZoqpWOTY1g2GBwJoR'
p265
(dp266
g3
S'Steve Aoki'
p267
sg5
I20
sg6
S'https://open.spotify.com/track/3EmmCZoqpWOTY1g2GBwJoR'
p268
sg8
S'Just Hold On'
p269
ssS'2Ce5IyMlVRVvN997ZJjJJA'
p270
(dp271
g3
S'Future'
p272
sg5
I15
sg6
S'https://open.spotify.com/track/2Ce5IyMlVRVvN997ZJjJJA'
p273
sg8
S'Selfish'
p274
ssS'6Zosz8w6CmdGMZM6p4JlbQ'
p275
(dp276
g3
S'Danny Ocean'
p277
sg5
I1
sg6
S'https://open.spotify.com/track/6Zosz8w6CmdGMZM6p4JlbQ'
p278
sg8
S'Me Reh\xc3\xbaso'
p279
ssS'6u0oHknFYrnUd42A6rvFly'
p280
(dp281
g3
S'Ed Sheeran'
p282
sg5
I1
sg6
S'https://open.spotify.com/track/6u0oHknFYrnUd42A6rvFly'
p283
sg8
S'Sing'
p284
ssS'2OEbDp5Sne5eEhFKXHI6yI'
p285
(dp286
g3
S'Chinaski'
p287
sg5
I13
sg6
S'https://open.spotify.com/track/2OEbDp5Sne5eEhFKXHI6yI'
p288
sg8
S'Venku Je Na Nule'
p289
ssS'5V3mdRI2yQxbSsJGDPc5lD'
p290
(dp291
g3
S'System Of A Down'
p292
sg5
I2
sg6
S'https://open.spotify.com/track/5V3mdRI2yQxbSsJGDPc5lD'
p293
sg8
S'Chop Suey!'
p294
ssS'7bRFdAovdSteHved8uohUQ'
p295
(dp296
g3
S'DJ Wich'
p297
sg5
I5
sg6
S'https://open.spotify.com/track/7bRFdAovdSteHved8uohUQ'
p298
sg8
S'Jak Ocel (feat. Marpo & Trouble Gang)'
p299
ssS'0gbBzIqrECJOEPvQJIBFs5'
p300
(dp301
g3
S'Lorde'
p302
sg5
I19
sg6
S'https://open.spotify.com/track/0gbBzIqrECJOEPvQJIBFs5'
p303
sg8
S'Green Light'
p304
ssS'5tz69p7tJuGPeMGwNTxYuV'
p305
(dp306
g3
S'Logic'
p307
sg5
I23
sg6
S'https://open.spotify.com/track/5tz69p7tJuGPeMGwNTxYuV'
p308
sg8
S'1-800-273-8255'
p309
ssS'71DC0SutlW4f26UbAHH7F1'
p310
(dp311
g3
S'D\xc4\x9btsk\xc3\xbd sbor'
p312
sg5
I1
sg6
S'https://open.spotify.com/track/71DC0SutlW4f26UbAHH7F1'
p313
sg8
S'My t\xc5\x99i kr\xc3\xa1lov\xc3\xa9'
p314
ssS'4xlrALxuaCf9yZBHJeTSG6'
p315
(dp316
g3
S'Jonas Blue'
p317
sg5
I9
sg6
S'https://open.spotify.com/track/4xlrALxuaCf9yZBHJeTSG6'
p318
sg8
S'Mama'
p319
ssS'4izg6Hydc6XGErWW6nbdsV'
p320
(dp321
g3
S'Imagine Dragons'
p322
sg5
I3
sg6
S'https://open.spotify.com/track/4izg6Hydc6XGErWW6nbdsV'
p323
sg8
S'Whatever It Takes'
p324
ssS'3pzjHKrQSvXGHQ98dx18HI'
p325
(dp326
g3
S'Justin Bieber'
p327
sg5
I7
sg6
S'https://open.spotify.com/track/3pzjHKrQSvXGHQ98dx18HI'
p328
sg8
S'What Do You Mean?'
p329
ssS'000xQL6tZNLJzIrtIgxqSl'
p330
(dp331
g3
S'ZAYN'
p332
sg5
I21
sg6
S'https://open.spotify.com/track/000xQL6tZNLJzIrtIgxqSl'
p333
sg8
S'Still Got Time'
p334
ssS'52okn5MNA47tk87PeZJLEL'
p335
(dp336
g3
S'NF'
p337
sg5
I1
sg6
S'https://open.spotify.com/track/52okn5MNA47tk87PeZJLEL'
p338
sg8
S'Let You Down'
p339
ssS'1D3ODoXHBLpdxolZRHWV1j'
p340
(dp341
g3
S'Jonas Blue'
p342
sg5
I34
sg6
S'https://open.spotify.com/track/1D3ODoXHBLpdxolZRHWV1j'
p343
sg8
S'By Your Side'
p344
ssS'4YAZiKp1RKs0MuLe7zWtFU'
p345
(dp346
g3
S'Separ'
p347
sg5
I3
sg6
S'https://open.spotify.com/track/4YAZiKp1RKs0MuLe7zWtFU'
p348
sg8
S'F\xc3\xa9nix'
p349
ssS'5c4tB0saSkNHX5CyDosuF7'
p350
(dp351
g3
S'Burak Yeter'
p352
sg5
I2
sg6
S'https://open.spotify.com/track/5c4tB0saSkNHX5CyDosuF7'
p353
sg8
S'Tuesday'
p354
ssS'042x9bsUBWW2fJgJ6fUh61'
p355
(dp356
g3
S'DVBBS'
p357
sg5
I16
sg6
S'https://open.spotify.com/track/042x9bsUBWW2fJgJ6fUh61'
p358
sg8
S'Not Going Home'
p359
ssS'5Z01UMMf7V1o0MzF86s6WJ'
p360
(dp361
g3
S'Eminem'
p362
sg5
I41
sg6
S'https://open.spotify.com/track/5Z01UMMf7V1o0MzF86s6WJ'
p363
sg8
S'Lose Yourself - Soundtrack Version'
p364
ssS'5HvtbJxOYLSACcPuhf62wT'
p365
(dp366
g3
S'Imagine Dragons'
p367
sg5
I1
sg6
S'https://open.spotify.com/track/5HvtbJxOYLSACcPuhf62wT'
p368
sg8
S'Dancing In The Dark'
p369
ssS'5CtI0qwDJkDQGwXD1H1cLb'
p370
(dp371
g3
S'Luis Fonsi'
p372
sg5
I26
sg6
S'https://open.spotify.com/track/5CtI0qwDJkDQGwXD1H1cLb'
p373
sg8
S'Despacito - Remix'
p374
ssS'7m9OqQk4RVRkw9JJdeAw96'
p375
(dp376
g3
S'XXXTENTACION'
p377
sg5
I7
sg6
S'https://open.spotify.com/track/7m9OqQk4RVRkw9JJdeAw96'
p378
sg8
S'Jocelyn Flores'
p379
ssS'7bsnTsbiwOymZWjPF9v6Di'
p380
(dp381
g3
S'Macklemore'
p382
sg5
I3
sg6
S'https://open.spotify.com/track/7bsnTsbiwOymZWjPF9v6Di'
p383
sg8
S'Marmalade (feat. Lil Yachty)'
p384
ssS'5wIeuNURiubue1VTcglU57'
p385
(dp386
g3
S'Kesha'
p387
sg5
I1
sg6
S'https://open.spotify.com/track/5wIeuNURiubue1VTcglU57'
p388
sg8
S'Woman'
p389
ssS'4aSfgWmRa9KsISD4Jmx7QB'
p390
(dp391
g3
S'Kygo'
p392
sg5
I1
sg6
S'https://open.spotify.com/track/4aSfgWmRa9KsISD4Jmx7QB'
p393
sg8
S'This Town'
p394
ssS'0NyOeqzqjVM9j7IuWp2oJ6'
p395
(dp396
g3
S'Gryffin'
p397
sg5
I18
sg6
S'https://open.spotify.com/track/0NyOeqzqjVM9j7IuWp2oJ6'
p398
sg8
S'Feel Good (feat. Daya)'
p399
ssS'0Nhu3zSYbEz32IYiobV75e'
p400
(dp401
g3
S'Halsey'
p402
sg5
I10
sg6
S'https://open.spotify.com/track/0Nhu3zSYbEz32IYiobV75e'
p403
sg8
S'Now Or Never'
p404
ssS'3zJw3rugfpVrmBeDDnUYzy'
p405
(dp406
g3
S'John Lennon'
p407
sg5
I1
sg6
S'https://open.spotify.com/track/3zJw3rugfpVrmBeDDnUYzy'
p408
sg8
S'Happy Xmas (War Is Over) - 2010 Digital Remaster'
p409
ssS'2MHCiOohBZEQuLgDTPvSzF'
p410
(dp411
g3
S'Galantis'
p412
sg5
I24
sg6
S'https://open.spotify.com/track/2MHCiOohBZEQuLgDTPvSzF'
p413
sg8
S'Love On Me'
p414
ssS'7wGoVu4Dady5GV0Sv4UIsx'
p415
(dp416
g3
S'Post Malone'
p417
sg5
I1
sg6
S'https://open.spotify.com/track/7wGoVu4Dady5GV0Sv4UIsx'
p418
sg8
S'rockstar'
p419
ssS'1Eck97uRMlprKOOJN9oO1E'
p420
(dp421
g3
S'G-Eazy'
p422
sg5
I24
sg6
S'https://open.spotify.com/track/1Eck97uRMlprKOOJN9oO1E'
p423
sg8
S'Good Life (with G-Eazy & Kehlani)'
p424
ssS'5Djz3MNz1sckkVHCbUeODf'
p425
(dp426
g3
S'Yzomandias'
p427
sg5
I1
sg6
S'https://open.spotify.com/track/5Djz3MNz1sckkVHCbUeODf'
p428
sg8
S'217 (feat. Nik Tendo)'
p429
ssS'2ekn2ttSfGqwhhate0LSR0'
p430
(dp431
g3
S'Dua Lipa'
p432
sg5
I14
sg6
S'https://open.spotify.com/track/2ekn2ttSfGqwhhate0LSR0'
p433
sg8
S'New Rules'
p434
ssS'0y1QJc3SJVPKJ1OvFmFqe6'
p435
(dp436
g3
S'Kaleo'
p437
sg5
I26
sg6
S'https://open.spotify.com/track/0y1QJc3SJVPKJ1OvFmFqe6'
p438
sg8
S'Way Down We Go'
p439
ssS'3bVbQvGVIe4n24AzyXovXh'
p440
(dp441
g3
S''
p442
sg5
I1
sg6
S'https://open.spotify.com/track/3bVbQvGVIe4n24AzyXovXh'
p443
sg8
g442
ssS'5humEOJehpAwMJEJmb0JJ2'
p444
(dp445
g3
S'Nat King Cole'
p446
sg5
I1
sg6
S'https://open.spotify.com/track/5humEOJehpAwMJEJmb0JJ2'
p447
sg8
S'The Christmas Song (Merry Christmas To You)'
p448
ssS'1sCxVKWImDZSZKvG0U9B23'
p449
(dp450
g3
S'Selena Gomez'
p451
sg5
I17
sg6
S'https://open.spotify.com/track/1sCxVKWImDZSZKvG0U9B23'
p452
sg8
S'Bad Liar'
p453
ssS'6jmngk8Fwup05JZ6kgXEGX'
p454
(dp455
g3
S'Imagine Dragons'
p456
sg5
I16
sg6
S'https://open.spotify.com/track/6jmngk8Fwup05JZ6kgXEGX'
p457
sg8
S'Walking The Wire'
p458
ssS'4xyNG8vZR3g8FnphVkbjRo'
p459
(dp460
g3
S'Lana Del Rey'
p461
sg5
I2
sg6
S'https://open.spotify.com/track/4xyNG8vZR3g8FnphVkbjRo'
p462
sg8
S'Love'
p463
ssS'3sJHkcxojoJD2Ytbo1yLLF'
p464
(dp465
g3
S'Moon Taxi'
p466
sg5
I13
sg6
S'https://open.spotify.com/track/3sJHkcxojoJD2Ytbo1yLLF'
p467
sg8
S'Two High'
p468
ssS'2uSLx5uwRIhiA3sJJraNqX'
p469
(dp470
g3
S'Maroon 5'
p471
sg5
I1
sg6
S'https://open.spotify.com/track/2uSLx5uwRIhiA3sJJraNqX'
p472
sg8
S'Help Me Out (with Julia Michaels)'
p473
ssS'3ALr8LGLAfHnZUR1HSqREh'
p474
(dp475
g3
S'Yzomandias'
p476
sg5
I7
sg6
S'https://open.spotify.com/track/3ALr8LGLAfHnZUR1HSqREh'
p477
sg8
S'L\xc3\xa1sku'
p478
ssS'0ADG9OgdVTL7fgREP75BrZ'
p479
(dp480
g3
S'Zara Larsson'
p481
sg5
I13
sg6
S'https://open.spotify.com/track/0ADG9OgdVTL7fgREP75BrZ'
p482
sg8
S"Ain't My Fault"
p483
ssS'0Hq2gjlbDNlrd6J5Ixfgqs'
p484
(dp485
g3
S'Chinaski'
p486
sg5
I9
sg6
S'https://open.spotify.com/track/0Hq2gjlbDNlrd6J5Ixfgqs'
p487
sg8
S'Slovensk\xc3\xbd Kl\xc3\xadn'
p488
ssS'1Yq3bwgmCbDZeKf404mvJO'
p489
(dp490
g3
S'Nik Tendo'
p491
sg5
I2
sg6
S'https://open.spotify.com/track/1Yq3bwgmCbDZeKf404mvJO'
p492
sg8
S'Emoji (feat. Zmrd)'
p493
ssS'4VrWlk8IQxevMvERoX08iC'
p494
(dp495
g3
S'Sia'
p496
sg5
I4
sg6
S'https://open.spotify.com/track/4VrWlk8IQxevMvERoX08iC'
p497
sg8
S'Chandelier'
p498
ssS'7vAXN57IQ0sj049wZGIboE'
p499
(dp500
g3
S'Imagine Dragons'
p501
sg5
I14
sg6
S'https://open.spotify.com/track/7vAXN57IQ0sj049wZGIboE'
p502
sg8
S'Rise Up'
p503
ssS'4hiUYb2nb6NlfTP9CD38Pe'
p504
(dp505
g3
S'Ti\xc3\xabsto'
p506
sg5
I6
sg6
S'https://open.spotify.com/track/4hiUYb2nb6NlfTP9CD38Pe'
p507
sg8
S'On My Way'
p508
ssS'3TRFq09DUgYj1mug6RRqJW'
p509
(dp510
g3
S'Luke Christopher'
p511
sg5
I17
sg6
S'https://open.spotify.com/track/3TRFq09DUgYj1mug6RRqJW'
p512
sg8
S'Lot to Learn'
p513
ssS'1KeZgPUr54C8iz3FjqzVoz'
p514
(dp515
g3
S'The Chainsmokers'
p516
sg5
I1
sg6
S'https://open.spotify.com/track/1KeZgPUr54C8iz3FjqzVoz'
p517
sg8
S'Young'
p518
ssS'6s2wpWPFPAgKg2LXxi1Oee'
p519
(dp520
g3
S'Bruce Springsteen'
p521
sg5
I1
sg6
S'https://open.spotify.com/track/6s2wpWPFPAgKg2LXxi1Oee'
p522
sg8
S"Santa Claus Is Comin' to Town - Single Version"
p523
ssS'6O6M7pJLABmfBRoGZMu76Y'
p524
(dp525
g3
S'The Chainsmokers'
p526
sg5
I6
sg6
S'https://open.spotify.com/track/6O6M7pJLABmfBRoGZMu76Y'
p527
sg8
S'Roses'
p528
ssS'1rIKgCH4H52lrvDcz50hS8'
p529
(dp530
g3
S'Zara Larsson'
p531
sg5
I22
sg6
S'https://open.spotify.com/track/1rIKgCH4H52lrvDcz50hS8'
p532
sg8
S'Lush Life'
p533
ssS'6xCa3Di84WXLIfreGXj5Mc'
p534
(dp535
g3
S'V\xc3\xa1clav Neck\xc3\xa1\xc5\x99'
p536
sg5
I1
sg6
S'https://open.spotify.com/track/6xCa3Di84WXLIfreGXj5Mc'
p537
sg8
S'P\xc5\xaflno\xc4\x8dn\xc3\xad'
p538
ssS'76gUmNLXGQVOsGhfcshkFP'
p539
(dp540
g3
S'Drake'
p541
sg5
I1
sg6
S'https://open.spotify.com/track/76gUmNLXGQVOsGhfcshkFP'
p542
sg8
S'Madiba Riddim'
p543
ssS'7vGuf3Y35N4wmASOKLUVVU'
p544
(dp545
g3
S'Marshmello'
p546
sg5
I9
sg6
S'https://open.spotify.com/track/7vGuf3Y35N4wmASOKLUVVU'
p547
sg8
S'Silence'
p548
ssS'4dVcnhINyi5ZBbu3PKntTJ'
p549
(dp550
g3
S'Viktor Sheen'
p551
sg5
I1
sg6
S'https://open.spotify.com/track/4dVcnhINyi5ZBbu3PKntTJ'
p552
sg8
S'Vata'
p553
ssS'3EfugazgSddQvzZpkof5I4'
p554
(dp555
g3
S'Anne-Marie'
p556
sg5
I18
sg6
S'https://open.spotify.com/track/3EfugazgSddQvzZpkof5I4'
p557
sg8
S'Ciao Adios'
p558
ssS'4WrS6vezaPwOafKJmHqMEU'
p559
(dp560
g3
S'Jax Jones'
p561
sg5
I1
sg6
S'https://open.spotify.com/track/4WrS6vezaPwOafKJmHqMEU'
p562
sg8
S"You Don't Know Me - Radio Edit"
p563
ssS'3KiktyOxQd2Z0bmnabgRq2'
p564
(dp565
g3
S'Ed Sheeran'
p566
sg5
I1
sg6
S'https://open.spotify.com/track/3KiktyOxQd2Z0bmnabgRq2'
p567
sg8
S"I'm A Mess"
p568
ssS'6FDSj2UOMLBEValP1ZlS4H'
p569
(dp570
g3
S'Renne Dang'
p571
sg5
I4
sg6
S'https://open.spotify.com/track/6FDSj2UOMLBEValP1ZlS4H'
p572
sg8
S'Va\xc5\xa1e D\xc4\x9bti'
p573
ssS'1JbO4FkQGcm7Zj6hDgTvS2'
p574
(dp575
g3
S'Arin Ray'
p576
sg5
I1
sg6
S'https://open.spotify.com/track/1JbO4FkQGcm7Zj6hDgTvS2'
p577
sg8
S"We Ain't Homies"
p578
ssS'7129iqBafaphfc3WPCGC0L'
p579
(dp580
g3
S'Lukas Graham'
p581
sg5
I30
sg6
S'https://open.spotify.com/track/7129iqBafaphfc3WPCGC0L'
p582
sg8
S'7 Years'
p583
ssS'4WjH9Bzt3kx7z8kl0awxh4'
p584
(dp585
g3
S'Major Lazer'
p586
sg5
I37
sg6
S'https://open.spotify.com/track/4WjH9Bzt3kx7z8kl0awxh4'
p587
sg8
S'Lean On (feat. M\xc3\x98 & DJ Snake)'
p588
ssS'6dSKDp21S6I5UOhDqjw4kB'
p589
(dp590
g3
S'Imagine Dragons'
p591
sg5
I3
sg6
S'https://open.spotify.com/track/6dSKDp21S6I5UOhDqjw4kB'
p592
sg8
S'Mouth Of The River'
p593
ssS'57p8CBvPOxrvyCbn6ttl5r'
p594
(dp595
g3
S'Skrillex'
p596
sg5
I11
sg6
S'https://open.spotify.com/track/57p8CBvPOxrvyCbn6ttl5r'
p597
sg8
S'Would You Ever'
p598
ssS'75JFxkI2RXiU7L9VXzMkle'
p599
(dp600
g3
S'Coldplay'
p601
sg5
I4
sg6
S'https://open.spotify.com/track/75JFxkI2RXiU7L9VXzMkle'
p602
sg8
S'The Scientist'
p603
ssS'0CcQNd8CINkwQfe1RDtGV6'
p604
(dp605
g3
S'Imagine Dragons'
p606
sg5
I33
sg6
S'https://open.spotify.com/track/0CcQNd8CINkwQfe1RDtGV6'
p607
sg8
S'Believer'
p608
ssS'7oolFzHipTMg2nL7shhdz2'
p609
(dp610
g3
S'Ed Sheeran'
p611
sg5
I6
sg6
S'https://open.spotify.com/track/7oolFzHipTMg2nL7shhdz2'
p612
sg8
S'Eraser'
p613
ssS'4Yf5bqU3NK4kNOypcrLYwU'
p614
(dp615
g3
S'Linkin Park'
p616
sg5
I2
sg6
S'https://open.spotify.com/track/4Yf5bqU3NK4kNOypcrLYwU'
p617
sg8
S'Faint'
p618
ssS'6Ll3qUTssdGWMxbwhMud2N'
p619
(dp620
g3
S'Nick Jonas'
p621
sg5
I1
sg6
S'https://open.spotify.com/track/6Ll3qUTssdGWMxbwhMud2N'
p622
sg8
S'Find You'
p623
ssS'2pYvd6cHcAIMAM6xMD6nok'
p624
(dp625
g3
S'Bonobo'
p626
sg5
I1
sg6
S'https://open.spotify.com/track/2pYvd6cHcAIMAM6xMD6nok'
p627
sg8
S'Break Apart'
p628
ssS'3B7udSGy2PfgoCniMSb523'
p629
(dp630
g3
S'Ed Sheeran'
p631
sg5
I13
sg6
S'https://open.spotify.com/track/3B7udSGy2PfgoCniMSb523'
p632
sg8
S'I See Fire'
p633
ssS'2WQn7Yvs728KZmmY6tgWqH'
p634
(dp635
g3
S'Halsey'
p636
sg5
I1
sg6
S'https://open.spotify.com/track/2WQn7Yvs728KZmmY6tgWqH'
p637
sg8
S'Eyes Closed'
p638
ssS'3NdDpSvN911VPGivFlV5d0'
p639
(dp640
g3
S'ZAYN'
p641
sg5
I42
sg6
S'https://open.spotify.com/track/3NdDpSvN911VPGivFlV5d0'
p642
sg8
S'I Don\xe2\x80\x99t Wanna Live Forever (Fifty Shades Darker) - From Fifty Shades Darker (Original Motion Picture Soundtrack)'
p643
ssS'45OfR7ugJMgbFDuNOVpIq3'
p644
(dp645
g3
S'Matoma'
p646
sg5
I13
sg6
S'https://open.spotify.com/track/45OfR7ugJMgbFDuNOVpIq3'
p647
sg8
S'Party On The West Coast (feat. Snoop Dogg)'
p648
ssS'2RlgNHKcydI9sayD2Df2xp'
p649
(dp650
g3
S'Electric Light Orchestra'
p651
sg5
I3
sg6
S'https://open.spotify.com/track/2RlgNHKcydI9sayD2Df2xp'
p652
sg8
S'Mr. Blue Sky'
p653
ssS'37F0uwRSrdzkBiuj0D5UHI'
p654
(dp655
g3
S'The Weeknd'
p656
sg5
I4
sg6
S'https://open.spotify.com/track/37F0uwRSrdzkBiuj0D5UHI'
p657
sg8
S'Reminder'
p658
ssS'1wC93sZRGcTgKLN2UWRSwW'
p659
(dp660
g3
S'Lorde'
p661
sg5
I2
sg6
S'https://open.spotify.com/track/1wC93sZRGcTgKLN2UWRSwW'
p662
sg8
S'Perfect Places'
p663
ssS'6wV12xIUb8oFY7lBy4KuQe'
p664
(dp665
g3
S'Aaron Carter'
p666
sg5
I12
sg6
S'https://open.spotify.com/track/6wV12xIUb8oFY7lBy4KuQe'
p667
sg8
S'Sooner Or Later'
p668
ssS'53e5O0USYgSCv4md0CXpMY'
p669
(dp670
g3
S'The xx'
p671
sg5
I1
sg6
S'https://open.spotify.com/track/53e5O0USYgSCv4md0CXpMY'
p672
sg8
S'Brave For You'
p673
ssS'638fKB27P7UAmu3Aq0vEJ3'
p674
(dp675
g3
S'Ellie Goulding'
p676
sg5
I8
sg6
S'https://open.spotify.com/track/638fKB27P7UAmu3Aq0vEJ3'
p677
sg8
S"Still Falling For You - From Bridget Jones's Baby"
p678
ssS'4kkdvyjjUM38YhSPvseyl8'
p679
(dp680
g3
S'Paulie Garand'
p681
sg5
I3
sg6
S'https://open.spotify.com/track/4kkdvyjjUM38YhSPvseyl8'
p682
sg8
S'Penicilin'
p683
ssS'2eMwDehkIC1j68U6FA3Eiq'
p684
(dp685
g3
S'Lil Uzi Vert'
p686
sg5
I20
sg6
S'https://open.spotify.com/track/2eMwDehkIC1j68U6FA3Eiq'
p687
sg8
S'XO TOUR Llif3'
p688
ssS'3RYla66GYN2nqS8lUqgD61'
p689
(dp690
g3
S'MikeJePan'
p691
sg5
I9
sg6
S'https://open.spotify.com/track/3RYla66GYN2nqS8lUqgD61'
p692
sg8
S'POHODOVEJ RYB\xc3\x81\xc5\x98'
p693
ssS'2KklXplRtxMsBYo474Es0w'
p694
(dp695
g3
S'Ofenbach'
p696
sg5
I35
sg6
S'https://open.spotify.com/track/2KklXplRtxMsBYo474Es0w'
p697
sg8
S'Be Mine'
p698
ssS'2507vi2cUEmaA9FXAE1YQ5'
p699
(dp700
g3
S'Ektor'
p701
sg5
I2
sg6
S'https://open.spotify.com/track/2507vi2cUEmaA9FXAE1YQ5'
p702
sg8
S'XXL'
p703
ssS'6yf3MxEOScNBTYCHOAIiNQ'
p704
(dp705
g3
S'Jax Jones'
p706
sg5
I1
sg6
S'https://open.spotify.com/track/6yf3MxEOScNBTYCHOAIiNQ'
p707
sg8
S'Instruction (feat. Demi Lovato & Stefflon Don)'
p708
ssS'3CRDbSIZ4r5MsZ0YwxuEkn'
p709
(dp710
g3
S'Twenty One Pilots'
p711
sg5
I42
sg6
S'https://open.spotify.com/track/3CRDbSIZ4r5MsZ0YwxuEkn'
p712
sg8
S'Stressed Out'
p713
ssS'6mICuAdrwEjh6Y6lroV2Kg'
p714
(dp715
g3
S'Shakira'
p716
sg5
I16
sg6
S'https://open.spotify.com/track/6mICuAdrwEjh6Y6lroV2Kg'
p717
sg8
S'Chantaje'
p718
ssS'2pnPe4pJtq7689i5ydzvJJ'
p719
(dp720
g3
S'Chuck Berry'
p721
sg5
I1
sg6
S'https://open.spotify.com/track/2pnPe4pJtq7689i5ydzvJJ'
p722
sg8
S'Run Rudolph Run - Single Version'
p723
ssS'1WC5UN1U79gJlxGLYDGIO7'
p724
(dp725
g3
S'Lorde'
p726
sg5
I2
sg6
S'https://open.spotify.com/track/1WC5UN1U79gJlxGLYDGIO7'
p727
sg8
S'Green Light'
p728
ssS'3aWPdd6U1xbsIEGEpUaPyQ'
p729
(dp730
g3
S'Bonobo'
p731
sg5
I1
sg6
S'https://open.spotify.com/track/3aWPdd6U1xbsIEGEpUaPyQ'
p732
sg8
S'No Reason'
p733
ssS'7gHs73wELdeycvS48JfIos'
p734
(dp735
g3
S'Alan Walker'
p736
sg5
I42
sg6
S'https://open.spotify.com/track/7gHs73wELdeycvS48JfIos'
p737
sg8
S'Faded'
p738
ssS'6UIo6YbaXihIZ72MWUpcGb'
p739
(dp740
g3
S'Marilyn Manson'
p741
sg5
I1
sg6
S'https://open.spotify.com/track/6UIo6YbaXihIZ72MWUpcGb'
p742
sg8
S'KILL4ME'
p743
ssS'12ip0ceCeszDTDFxDY1AXJ'
p744
(dp745
g3
S'Avicii'
p746
sg5
I1
sg6
S'https://open.spotify.com/track/12ip0ceCeszDTDFxDY1AXJ'
p747
sg8
S'You Be Love (feat. Billy Raffoul)'
p748
ssS'00lNx0OcTJrS3MKHcB80HY'
p749
(dp750
g3
S'Jax Jones'
p751
sg5
I31
sg6
S'https://open.spotify.com/track/00lNx0OcTJrS3MKHcB80HY'
p752
sg8
S"You Don't Know Me - Radio Edit"
p753
ssS'2s76aKBWKShlwPC4xTtEEE'
p754
(dp755
g3
S'State of Sound'
p756
sg5
I7
sg6
S'https://open.spotify.com/track/2s76aKBWKShlwPC4xTtEEE'
p757
sg8
S'Wake Up Where You Are'
p758
ssS'2zjEMw9kkROEbAxIXk6Ivp'
p759
(dp760
g3
S'Linkin Park'
p761
sg5
I1
sg6
S'https://open.spotify.com/track/2zjEMw9kkROEbAxIXk6Ivp'
p762
sg8
S'Shadow Of The Day'
p763
ssS'6t2ubAB4iSYOuIpRAOGd4t'
p764
(dp765
g3
S'Flo Rida'
p766
sg5
I15
sg6
S'https://open.spotify.com/track/6t2ubAB4iSYOuIpRAOGd4t'
p767
sg8
S'Cake'
p768
ssS'4nDfc6F2uVcc6wdG7kBzWO'
p769
(dp770
g3
S'Nick Jonas'
p771
sg5
I4
sg6
S'https://open.spotify.com/track/4nDfc6F2uVcc6wdG7kBzWO'
p772
sg8
S'Bom Bidi Bom - From Fifty Shades Darker (Original Motion Picture Soundtrack)'
p773
ssS'0dj1CtyRxZ4bnIT4Q20jNT'
p774
(dp775
g3
S'The Chainsmokers'
p776
sg5
I1
sg6
S'https://open.spotify.com/track/0dj1CtyRxZ4bnIT4Q20jNT'
p777
sg8
S'Wake Up Alone'
p778
ssS'0fg8CqpjdojMyXLNzM2PaJ'
p779
(dp780
g3
S'Major Lazer'
p781
sg5
I16
sg6
S'https://open.spotify.com/track/0fg8CqpjdojMyXLNzM2PaJ'
p782
sg8
S'Run Up (feat. PARTYNEXTDOOR & Nicki Minaj)'
p783
ssS'1QWJPrxvMN5hxlwfR39MNb'
p784
(dp785
g3
S'D\xc4\x9btsk\xc3\xbd sbor'
p786
sg5
I1
sg6
S'https://open.spotify.com/track/1QWJPrxvMN5hxlwfR39MNb'
p787
sg8
S'Tich\xc3\xa1 noc'
p788
ssS'3umS4y3uQDkqekNjVpiRUs'
p789
(dp790
g3
S'Nicky Jam'
p791
sg5
I2
sg6
S'https://open.spotify.com/track/3umS4y3uQDkqekNjVpiRUs'
p792
sg8
S'El Amante'
p793
ssS'3A2waEDfZQfl6RNOn8Y1xW'
p794
(dp795
g3
S'R3HAB'
p796
sg5
I4
sg6
S'https://open.spotify.com/track/3A2waEDfZQfl6RNOn8Y1xW'
p797
sg8
S'Trouble'
p798
ssS'6uFsE1JgZ20EXyU0JQZbUR'
p799
(dp800
g3
S'Taylor Swift'
p801
sg5
I7
sg6
S'https://open.spotify.com/track/6uFsE1JgZ20EXyU0JQZbUR'
p802
sg8
S'Look What You Made Me Do'
p803
ssS'19YmvsVCetCBeVj6O2mljR'
p804
(dp805
g3
S'Green Day'
p806
sg5
I1
sg6
S'https://open.spotify.com/track/19YmvsVCetCBeVj6O2mljR'
p807
sg8
S'Still Breathing'
p808
ssS'5CPqOpKSk0QcJ3dGdaWcRB'
p809
(dp810
g3
S'The xx'
p811
sg5
I2
sg6
S'https://open.spotify.com/track/5CPqOpKSk0QcJ3dGdaWcRB'
p812
sg8
S'On Hold'
p813
ssS'0L87MffumRNWrY2SNUFcvs'
p814
(dp815
g3
S'Milky Chance'
p816
sg5
I5
sg6
S'https://open.spotify.com/track/0L87MffumRNWrY2SNUFcvs'
p817
sg8
S'Cocoon'
p818
ssS'1UUdDjolNFxLtg6j3wLoxA'
p819
(dp820
g3
S'D\xc4\x9btsk\xc3\xbd sbor'
p821
sg5
I1
sg6
S'https://open.spotify.com/track/1UUdDjolNFxLtg6j3wLoxA'
p822
sg8
S'V p\xc5\xaflno\xc4\x8dn\xc3\xad hodinu'
p823
ssS'4xBjsLUSjcx2h7PcRikpQp'
p824
(dp825
g3
S'Camila Cabello'
p826
sg5
I10
sg6
S'https://open.spotify.com/track/4xBjsLUSjcx2h7PcRikpQp'
p827
sg8
S'OMG'
p828
ssS'0gHS4d1Per54lZHgO9B64x'
p829
(dp830
g3
S'Sam Feldt'
p831
sg5
I1
sg6
S'https://open.spotify.com/track/0gHS4d1Per54lZHgO9B64x'
p832
sg8
S'YES'
p833
ssS'7GX5flRQZVHRAGd6B4TmDO'
p834
(dp835
g3
S'Lil Uzi Vert'
p836
sg5
I7
sg6
S'https://open.spotify.com/track/7GX5flRQZVHRAGd6B4TmDO'
p837
sg8
S'XO TOUR Llif3'
p838
ssS'4F7A0DXBrmUAkp32uenhZt'
p839
(dp840
g3
S'The Weeknd'
p841
sg5
I12
sg6
S'https://open.spotify.com/track/4F7A0DXBrmUAkp32uenhZt'
p842
sg8
S'Party Monster'
p843
ssS'5kRPPEWFJIMox5qIkQkiz5'
p844
(dp845
g3
S'Harry Styles'
p846
sg5
I4
sg6
S'https://open.spotify.com/track/5kRPPEWFJIMox5qIkQkiz5'
p847
sg8
S'Sweet Creature'
p848
ssS'1TlPZbhGxYXKz9vXlEWPOz'
p849
(dp850
g3
S'Rytmus'
p851
sg5
I3
sg6
S'https://open.spotify.com/track/1TlPZbhGxYXKz9vXlEWPOz'
p852
sg8
S'Ke\xc4\x8f Sa Bud\xc3\xba P\xc3\xbdta\xc5\xa5'
p853
ssS'0CokSRCu5hZgPxcZBaEzVE'
p854
(dp855
g3
S'Macklemore'
p856
sg5
I3
sg6
S'https://open.spotify.com/track/0CokSRCu5hZgPxcZBaEzVE'
p857
sg8
S'Glorious (feat. Skylar Grey)'
p858
ssS'1lIQpAdqCMTi7NgmBi2W7o'
p859
(dp860
g3
S'Renne Dang'
p861
sg5
I2
sg6
S'https://open.spotify.com/track/1lIQpAdqCMTi7NgmBi2W7o'
p862
sg8
S'Sharingan'
p863
ssS'7y9iMe8SOB6z3NoHE2OfXl'
p864
(dp865
g3
S'Halsey'
p866
sg5
I8
sg6
S'https://open.spotify.com/track/7y9iMe8SOB6z3NoHE2OfXl'
p867
sg8
S'Bad At Love'
p868
ssS'1sTUEdVO85YU8Ymk2jeAls'
p869
(dp870
g3
S'MiC LOWRY'
p871
sg5
I5
sg6
S'https://open.spotify.com/track/1sTUEdVO85YU8Ymk2jeAls'
p872
sg8
S'Oh Lord'
p873
ssS'7BKLCZ1jbUBVqRi2FVlTVw'
p874
(dp875
g3
S'The Chainsmokers'
p876
sg5
I42
sg6
S'https://open.spotify.com/track/7BKLCZ1jbUBVqRi2FVlTVw'
p877
sg8
S'Closer'
p878
ssS'30MM5jWpUmOxtTNd9Ey5LZ'
p879
(dp880
g3
S'Thomas Rhett'
p881
sg5
I2
sg6
S'https://open.spotify.com/track/30MM5jWpUmOxtTNd9Ey5LZ'
p882
sg8
S'Unforgettable'
p883
ssS'7hDc8b7IXETo14hHIHdnhd'
p884
(dp885
g3
S'Drake'
p886
sg5
I17
sg6
S'https://open.spotify.com/track/7hDc8b7IXETo14hHIHdnhd'
p887
sg8
S'Passionfruit'
p888
ssS'3RiPr603aXAoi4GHyXx0uy'
p889
(dp890
g3
S'Coldplay'
p891
sg5
I17
sg6
S'https://open.spotify.com/track/3RiPr603aXAoi4GHyXx0uy'
p892
sg8
S'Hymn For The Weekend'
p893
ssS'0tICYNayWWhH9GPeFrfjfD'
p894
(dp895
g3
S'Kungs'
p896
sg5
I30
sg6
S'https://open.spotify.com/track/0tICYNayWWhH9GPeFrfjfD'
p897
sg8
S"This Girl (Kungs Vs. Cookin' On 3 Burners) - Kungs Vs. Cookin' On 3 Burners"
p898
ssS'0Z9HQ8YvHqdeOjTwsR3cS7'
p899
(dp900
g3
S'Moon Taxi'
p901
sg5
I7
sg6
S'https://open.spotify.com/track/0Z9HQ8YvHqdeOjTwsR3cS7'
p902
sg8
S'Two High'
p903
ssS'5hhi4vfiWW2dox1friQeLn'
p904
(dp905
g3
S'Viktor Sheen'
p906
sg5
I4
sg6
S'https://open.spotify.com/track/5hhi4vfiWW2dox1friQeLn'
p907
sg8
S'Tchibo'
p908
ssS'2LTlO3NuNVN70lp2ZbVswF'
p909
(dp910
g3
S'Kendrick Lamar'
p911
sg5
I1
sg6
S'https://open.spotify.com/track/2LTlO3NuNVN70lp2ZbVswF'
p912
sg8
S'FEEL.'
p913
ssS'5ULRlgiSPSKTaJN1vU9yso'
p914
(dp915
g3
S'Ed Sheeran'
p916
sg5
I2
sg6
S'https://open.spotify.com/track/5ULRlgiSPSKTaJN1vU9yso'
p917
sg8
S'Shape of You - Acoustic'
p918
ssS'1eVRnmGhDPATPxz6kqWuCP'
p919
(dp920
g3
S'Julia Michaels'
p921
sg5
I2
sg6
S'https://open.spotify.com/track/1eVRnmGhDPATPxz6kqWuCP'
p922
sg8
S'Uh Huh'
p923
ssS'1CKd1PnqfYx0H12V9MSaIY'
p924
(dp925
g3
S'Zedd'
p926
sg5
I14
sg6
S'https://open.spotify.com/track/1CKd1PnqfYx0H12V9MSaIY'
p927
sg8
S'Get Low (with Liam Payne)'
p928
ssS'5ZXmCqIzh9cRaMMfdtHuyZ'
p929
(dp930
g3
S'Andrelli'
p931
sg5
I2
sg6
S'https://open.spotify.com/track/5ZXmCqIzh9cRaMMfdtHuyZ'
p932
sg8
S'Old Man'
p933
ssS'0XLOf9LhyazPX9Ld8jPiUq'
p934
(dp935
g3
S'Selena Gomez'
p936
sg5
I12
sg6
S'https://open.spotify.com/track/0XLOf9LhyazPX9Ld8jPiUq'
p937
sg8
S'Fetish (feat. Gucci Mane)'
p938
ssS'2eAAEa8pxKF7My0EO4rFgR'
p939
(dp940
g3
S'Dua Lipa'
p941
sg5
I16
sg6
S'https://open.spotify.com/track/2eAAEa8pxKF7My0EO4rFgR'
p942
sg8
S'Blow Your Mind (Mwah)'
p943
ssS'1yxgsra98r3qAtxqiGZPiX'
p944
(dp945
g3
S'Travis Scott'
p946
sg5
I13
sg6
S'https://open.spotify.com/track/1yxgsra98r3qAtxqiGZPiX'
p947
sg8
S'Butterfly Effect'
p948
ssS'6xtQ23d8GEXgcxyUKPtwc5'
p949
(dp950
g3
S'Linkin Park'
p951
sg5
I1
sg6
S'https://open.spotify.com/track/6xtQ23d8GEXgcxyUKPtwc5'
p952
sg8
S'Runaway'
p953
ssS'550rQQCGkrTzvp4SfpOPzx'
p954
(dp955
g3
S'Pentatonix'
p956
sg5
I1
sg6
S'https://open.spotify.com/track/550rQQCGkrTzvp4SfpOPzx'
p957
sg8
S'Hallelujah'
p958
ssS'6OKaib6HaebKVCL5VOoIGR'
p959
(dp960
g3
S'Robin Schulz'
p961
sg5
I3
sg6
S'https://open.spotify.com/track/6OKaib6HaebKVCL5VOoIGR'
p962
sg8
S'4 Life (feat. Graham Candy)'
p963
ssS'3xXBsjrbG1xQIm1xv1cKOt'
p964
(dp965
g3
S'Linkin Park'
p966
sg5
I14
sg6
S'https://open.spotify.com/track/3xXBsjrbG1xQIm1xv1cKOt'
p967
sg8
S'One More Light'
p968
ssS'0yJv0G7r1PZIl1CY5XhvkR'
p969
(dp970
g3
S'Nathan Goshen'
p971
sg5
I7
sg6
S'https://open.spotify.com/track/0yJv0G7r1PZIl1CY5XhvkR'
p972
sg8
S'Thinking About It (Let It Go) - KVR Remix'
p973
ssS'0OwX5aROoW1Iip8FV51Efg'
p974
(dp975
g3
S'Anne-Marie'
p976
sg5
I2
sg6
S'https://open.spotify.com/track/0OwX5aROoW1Iip8FV51Efg'
p977
sg8
S'Alarm'
p978
ssS'6A8dnC0xkiuWN4BshmTB2I'
p979
(dp980
g3
S'A R I Z O N A'
p981
sg5
I27
sg6
S'https://open.spotify.com/track/6A8dnC0xkiuWN4BshmTB2I'
p982
sg8
S'Oceans Away'
p983
ssS'2OALaHcDdKkjYEpAr0Qzab'
p984
(dp985
g3
S'Avicii'
p986
sg5
I9
sg6
S'https://open.spotify.com/track/2OALaHcDdKkjYEpAr0Qzab'
p987
sg8
S'Lonely Together (feat. Rita Ora)'
p988
ssS'56lBX2WHqfGuoeZxZvUnVj'
p989
(dp990
g3
S'Imagine Dragons'
p991
sg5
I3
sg6
S'https://open.spotify.com/track/56lBX2WHqfGuoeZxZvUnVj'
p992
sg8
S'Thunder'
p993
ssS'0XfOi87h82i09rQjWYG0Bm'
p994
(dp995
g3
S'Jax Jones'
p996
sg5
I10
sg6
S'https://open.spotify.com/track/0XfOi87h82i09rQjWYG0Bm'
p997
sg8
S'Instruction (feat. Demi Lovato & Stefflon Don)'
p998
ssS'2RkVLcWvr4kAyIStnS7YJx'
p999
(dp1000
g3
S'Yzomandias'
p1001
sg5
I9
sg6
S'https://open.spotify.com/track/2RkVLcWvr4kAyIStnS7YJx'
p1002
sg8
S'Mikasa Sukasa'
p1003
ssS'5qqabIl2vWzo9ApSC317sa'
p1004
(dp1005
g3
S'Oasis'
p1006
sg5
I37
sg6
S'https://open.spotify.com/track/5qqabIl2vWzo9ApSC317sa'
p1007
sg8
S'Wonderwall - Remastered'
p1008
ssS'46GGxd8TVRt6FjUBfCavVT'
p1009
(dp1010
g3
S'X Ambassadors'
p1011
sg5
I7
sg6
S'https://open.spotify.com/track/46GGxd8TVRt6FjUBfCavVT'
p1012
sg8
S'Renegades'
p1013
ssS'1AJQ97yAt6xfeF7nQaE1t8'
p1014
(dp1015
g3
S'Imagine Dragons'
p1016
sg5
I1
sg6
S'https://open.spotify.com/track/1AJQ97yAt6xfeF7nQaE1t8'
p1017
sg8
S'Walking The Wire'
p1018
ssS'0ZExP2I5Ej92PsnG4G1jVG'
p1019
(dp1020
g3
S'Julia Michaels'
p1021
sg5
I4
sg6
S'https://open.spotify.com/track/0ZExP2I5Ej92PsnG4G1jVG'
p1022
sg8
S'Uh Huh'
p1023
ssS'7lQ8MOhq6IN2w8EYcFNSUk'
p1024
(dp1025
g3
S'Eminem'
p1026
sg5
I14
sg6
S'https://open.spotify.com/track/7lQ8MOhq6IN2w8EYcFNSUk'
p1027
sg8
S'Without Me'
p1028
ssS'67M8Sg4R7bEidOf0cag0Ld'
p1029
(dp1030
g3
S'HAIM'
p1031
sg5
I1
sg6
S'https://open.spotify.com/track/67M8Sg4R7bEidOf0cag0Ld'
p1032
sg8
S'Little of Your Love - BloodPop\xc2\xae Remix'
p1033
ssS'6YZdkObH88npeKrrkb8Ggf'
p1034
(dp1035
g3
S'Enrique Iglesias'
p1036
sg5
I4
sg6
S'https://open.spotify.com/track/6YZdkObH88npeKrrkb8Ggf'
p1037
sg8
S'DUELE EL CORAZON'
p1038
ssS'2S2od3hT7ceytw7d1pTRuE'
p1039
(dp1040
g3
S'Noah Cyrus'
p1041
sg5
I1
sg6
S'https://open.spotify.com/track/2S2od3hT7ceytw7d1pTRuE'
p1042
sg8
S'Again'
p1043
ssS'7zBWkG85C66txgrUWvrTcV'
p1044
(dp1045
g3
S'Renne Dang'
p1046
sg5
I1
sg6
S'https://open.spotify.com/track/7zBWkG85C66txgrUWvrTcV'
p1047
sg8
S'Nap\xc5\x99ed Sn\xc5\xafm'
p1048
ssS'0WCEaydwN65cvwaW8aqptF'
p1049
(dp1050
g3
S'Olivia Holt'
p1051
sg5
I30
sg6
S'https://open.spotify.com/track/0WCEaydwN65cvwaW8aqptF'
p1052
sg8
S'History'
p1053
ssS'6KjbNLbRjuoa8rEq5yNA6H'
p1054
(dp1055
g3
S'The Chainsmokers'
p1056
sg5
I1
sg6
S'https://open.spotify.com/track/6KjbNLbRjuoa8rEq5yNA6H'
p1057
sg8
S'Honest'
p1058
ssS'3FiE2d325mIOc4YjkSLVJR'
p1059
(dp1060
g3
S'Ariana Grande'
p1061
sg5
I10
sg6
S'https://open.spotify.com/track/3FiE2d325mIOc4YjkSLVJR'
p1062
sg8
S'Everyday'
p1063
ssS'3stiiCEfsUjFAQdWkrmdo5'
p1064
(dp1065
g3
S'Hollywood Undead'
p1066
sg5
I1
sg6
S'https://open.spotify.com/track/3stiiCEfsUjFAQdWkrmdo5'
p1067
sg8
S'Whatever It Takes'
p1068
ssS'60BOmKvf9H4KeWluVXF1lO'
p1069
(dp1070
g3
S'Renne Dang'
p1071
sg5
I1
sg6
S'https://open.spotify.com/track/60BOmKvf9H4KeWluVXF1lO'
p1072
sg8
S'Vot\xc3\xa1\xc4\x8det'
p1073
ssS'3A7qX2QjDlPnazUsRk5y0M'
p1074
(dp1075
g3
S'David Guetta'
p1076
sg5
I17
sg6
S'https://open.spotify.com/track/3A7qX2QjDlPnazUsRk5y0M'
p1077
sg8
S'2U (feat. Justin Bieber)'
p1078
ssS'3cfOd4CMv2snFaKAnMdnvK'
p1079
(dp1080
g3
S'Smash Mouth'
p1081
sg5
I41
sg6
S'https://open.spotify.com/track/3cfOd4CMv2snFaKAnMdnvK'
p1082
sg8
S'All Star'
p1083
ssS'7w5cxTEzp1rfV3KCy0Bd5N'
p1084
(dp1085
g3
S'Edward Sharpe & The Magnetic Zeros'
p1086
sg5
I8
sg6
S'https://open.spotify.com/track/7w5cxTEzp1rfV3KCy0Bd5N'
p1087
sg8
S'Home'
p1088
ssS'2bjwRfXMk4uRgOD9IBYl9h'
p1089
(dp1090
g3
S'Drake'
p1091
sg5
I6
sg6
S'https://open.spotify.com/track/2bjwRfXMk4uRgOD9IBYl9h'
p1092
sg8
S'Portland'
p1093
ssS'0FuTx2s3YH1ppmtiM6l0zI'
p1094
(dp1095
g3
S'JP Cooper'
p1096
sg5
I41
sg6
S'https://open.spotify.com/track/0FuTx2s3YH1ppmtiM6l0zI'
p1097
sg8
S'September Song'
p1098
ssS'0Zbbxnx4SGGHoIow4PpISP'
p1099
(dp1100
g3
S'Kygo'
p1101
sg5
I3
sg6
S'https://open.spotify.com/track/0Zbbxnx4SGGHoIow4PpISP'
p1102
sg8
S'Stargazing'
p1103
ssS'3XWxNH35PZZtJBbfrXOhYH'
p1104
(dp1105
g3
S'D\xc4\x9btsk\xc3\xbd sbor Camerata'
p1106
sg5
I1
sg6
S'https://open.spotify.com/track/3XWxNH35PZZtJBbfrXOhYH'
p1107
sg8
S'Sly\xc5\xa1eli jsme v Betl\xc3\xa9m\xc4\x9b'
p1108
ssS'5GFDrUTLGJix84sNhjCG0g'
p1109
(dp1110
g3
S'Amin\xc3\xa9'
p1111
sg5
I5
sg6
S'https://open.spotify.com/track/5GFDrUTLGJix84sNhjCG0g'
p1112
sg8
S'Caroline'
p1113
ssS'33B2QbtAj8mbDpwvGTOnBt'
p1114
(dp1115
g3
S'The xx'
p1116
sg5
I1
sg6
S'https://open.spotify.com/track/33B2QbtAj8mbDpwvGTOnBt'
p1117
sg8
S'Dangerous'
p1118
ssS'6PCUP3dWmTjcTtXY02oFdT'
p1119
(dp1120
g3
S'Ed Sheeran'
p1121
sg5
I40
sg6
S'https://open.spotify.com/track/6PCUP3dWmTjcTtXY02oFdT'
p1122
sg8
S'Castle on the Hill'
p1123
ssS'2jyjhRf6DVbMPU5zxagN2h'
p1124
(dp1125
g3
S'Passenger'
p1126
sg5
I28
sg6
S'https://open.spotify.com/track/2jyjhRf6DVbMPU5zxagN2h'
p1127
sg8
S'Let Her Go'
p1128
ssS'7i2DJ88J7jQ8K7zqFX2fW8'
p1129
(dp1130
g3
S'Halsey'
p1131
sg5
I15
sg6
S'https://open.spotify.com/track/7i2DJ88J7jQ8K7zqFX2fW8'
p1132
sg8
S'Now Or Never'
p1133
ssS'43ZyHQITOjhciSUUNPVRHc'
p1134
(dp1135
g3
S'Lil Pump'
p1136
sg5
I1
sg6
S'https://open.spotify.com/track/43ZyHQITOjhciSUUNPVRHc'
p1137
sg8
S'Gucci Gang'
p1138
ssS'7EbpUdQ4nQ5VnnFlZjvqYl'
p1139
(dp1140
g3
S'Linkin Park'
p1141
sg5
I1
sg6
S'https://open.spotify.com/track/7EbpUdQ4nQ5VnnFlZjvqYl'
p1142
sg8
S'New Divide'
p1143
ssS'5sNESr6pQfIhL3krM8CtZn'
p1144
(dp1145
g3
S'JAY Z'
p1146
sg5
I3
sg6
S'https://open.spotify.com/track/5sNESr6pQfIhL3krM8CtZn'
p1147
sg8
S'Numb / Encore'
p1148
ssS'0ROO2BbOUYE4uy2jKOoANU'
p1149
(dp1150
g3
S'Ben Cristovao'
p1151
sg5
I4
sg6
S'https://open.spotify.com/track/0ROO2BbOUYE4uy2jKOoANU'
p1152
sg8
S'Program'
p1153
ssS'68EMU2RD1ECNeOeJ5qAXCV'
p1154
(dp1155
g3
S'Charlie Puth'
p1156
sg5
I38
sg6
S'https://open.spotify.com/track/68EMU2RD1ECNeOeJ5qAXCV'
p1157
sg8
S"We Don't Talk Anymore (feat. Selena Gomez)"
p1158
ssS'08QmhAybC6VHeG8gah84qA'
p1159
(dp1160
g3
S'NEIKED'
p1161
sg5
I1
sg6
S'https://open.spotify.com/track/08QmhAybC6VHeG8gah84qA'
p1162
sg8
S'Call Me'
p1163
ssS'3b5Li4QKDVBx1x7fQuu54a'
p1164
(dp1165
g3
S'Alan Walker'
p1166
sg5
I21
sg6
S'https://open.spotify.com/track/3b5Li4QKDVBx1x7fQuu54a'
p1167
sg8
S'Tired'
p1168
ssS'54qvGFePDKVy9wIqxxtx7n'
p1169
(dp1170
g3
S'D\xc4\x9btsk\xc3\xbd sbor'
p1171
sg5
I1
sg6
S'https://open.spotify.com/track/54qvGFePDKVy9wIqxxtx7n'
p1172
sg8
S'Adeste fideles'
p1173
ssS'04CttTezSnv71USiiG9mIo'
p1174
(dp1175
g3
S'Hearts & Colors'
p1176
sg5
I25
sg6
S'https://open.spotify.com/track/04CttTezSnv71USiiG9mIo'
p1177
sg8
S'Lighthouse - Andrelli Remix'
p1178
ssS'6vSwxzO2Qf4BinHSXRwZJe'
p1179
(dp1180
g3
S'Ed Sheeran'
p1181
sg5
I10
sg6
S'https://open.spotify.com/track/6vSwxzO2Qf4BinHSXRwZJe'
p1182
sg8
S'Tenerife Sea'
p1183
ssS'5XiZK7m9PLppgIzJBpw2x5'
p1184
(dp1185
g3
S'Martin Jensen'
p1186
sg5
I4
sg6
S'https://open.spotify.com/track/5XiZK7m9PLppgIzJBpw2x5'
p1187
sg8
S'Wait'
p1188
ssS'1cImYkHOQMFE7AZC9aOk4y'
p1189
(dp1190
g3
S'Bobby Helms'
p1191
sg5
I1
sg6
S'https://open.spotify.com/track/1cImYkHOQMFE7AZC9aOk4y'
p1192
sg8
S'Jingle Bell Rock'
p1193
ssS'2q6tgiA9tpb6DMguABwCWE'
p1194
(dp1195
g3
S'John Legend'
p1196
sg5
I2
sg6
S'https://open.spotify.com/track/2q6tgiA9tpb6DMguABwCWE'
p1197
sg8
S'All of Me'
p1198
ssS'1jNOi6m3Hn8nLEeHCp5Msr'
p1199
(dp1200
g3
S'The White Stripes'
p1201
sg5
I22
sg6
S'https://open.spotify.com/track/1jNOi6m3Hn8nLEeHCp5Msr'
p1202
sg8
S'Seven Nation Army'
p1203
ssS'4VuS959DSpr82t3qBqCrWG'
p1204
(dp1205
g3
S'Ed Sheeran'
p1206
sg5
I9
sg6
S'https://open.spotify.com/track/4VuS959DSpr82t3qBqCrWG'
p1207
sg8
S'Supermarket Flowers'
p1208
ssS'7bJwvubZZaoGE1AGEfu8Fi'
p1209
(dp1210
g3
S'Ariana Grande'
p1211
sg5
I3
sg6
S'https://open.spotify.com/track/7bJwvubZZaoGE1AGEfu8Fi'
p1212
sg8
S'One Last Time'
p1213
ssS'2DGa7iaidT5s0qnINlwMjJ'
p1214
(dp1215
g3
S'Alan Walker'
p1216
sg5
I4
sg6
S'https://open.spotify.com/track/2DGa7iaidT5s0qnINlwMjJ'
p1217
sg8
S'The Spectre'
p1218
ssS'528ADerA2mGRHKZsRRiEbL'
p1219
(dp1220
g3
S'D\xc4\x9btsk\xc3\xbd sbor Camerata'
p1221
sg5
I1
sg6
S'https://open.spotify.com/track/528ADerA2mGRHKZsRRiEbL'
p1222
sg8
S'Panna houp\xc3\xa1'
p1223
ssS'0Zx8khUcEfCFK2AEoIhC92'
p1224
(dp1225
g3
S'Snakehips'
p1226
sg5
I27
sg6
S'https://open.spotify.com/track/0Zx8khUcEfCFK2AEoIhC92'
p1227
sg8
S"Don't Leave"
p1228
ssS'3sBfXJVKKUWyKqEUsrYiNO'
p1229
(dp1230
g3
S'Flume'
p1231
sg5
I1
sg6
S'https://open.spotify.com/track/3sBfXJVKKUWyKqEUsrYiNO'
p1232
sg8
S'Say It - Illenium Remix'
p1233
ssS'7y6c07pgjZvtHI9kuMVqk1'
p1234
(dp1235
g3
S'Drake'
p1236
sg5
I2
sg6
S'https://open.spotify.com/track/7y6c07pgjZvtHI9kuMVqk1'
p1237
sg8
S'Get It Together'
p1238
ssS'1r1fPuhj9H4VdXr7OK6FL5'
p1239
(dp1240
g3
S'Linkin Park'
p1241
sg5
I2
sg6
S'https://open.spotify.com/track/1r1fPuhj9H4VdXr7OK6FL5'
p1242
sg8
S'CASTLE OF GLASS'
p1243
ssS'33SNO8AaciGbNaQFkxvPrW'
p1244
(dp1245
g3
S'Harry Styles'
p1246
sg5
I3
sg6
S'https://open.spotify.com/track/33SNO8AaciGbNaQFkxvPrW'
p1247
sg8
S'Kiwi'
p1248
ssS'0gb1J5UrTpzaU1s3nupgCd'
p1249
(dp1250
g3
S'Galantis'
p1251
sg5
I16
sg6
S'https://open.spotify.com/track/0gb1J5UrTpzaU1s3nupgCd'
p1252
sg8
S'No Money'
p1253
ssS'6n3HGiq4v35D6eFOSwqYuo'
p1254
(dp1255
g3
S'Drake'
p1256
sg5
I2
sg6
S'https://open.spotify.com/track/6n3HGiq4v35D6eFOSwqYuo'
p1257
sg8
S'Teenage Fever'
p1258
ssS'0vHvSJkW6UO1GX2XO7i8lP'
p1259
(dp1260
g3
S'Ektor'
p1261
sg5
I5
sg6
S'https://open.spotify.com/track/0vHvSJkW6UO1GX2XO7i8lP'
p1262
sg8
S'Status'
p1263
ssS'61WbtB6ujkpNAsAf5LjF4b'
p1264
(dp1265
g3
S'Katy Perry'
p1266
sg5
I10
sg6
S'https://open.spotify.com/track/61WbtB6ujkpNAsAf5LjF4b'
p1267
sg8
S'Bon app\xc3\xa9tit'
p1268
ssS'2bBMODHVTXGwE2aZYfbgCt'
p1269
(dp1270
g3
S'Gorillaz'
p1271
sg5
I1
sg6
S'https://open.spotify.com/track/2bBMODHVTXGwE2aZYfbgCt'
p1272
sg8
S'Ascension (feat. Vince Staples)'
p1273
ssS'0YHUITU3w6ws1v8ehT264g'
p1274
(dp1275
g3
S'Little Mix'
p1276
sg5
I7
sg6
S'https://open.spotify.com/track/0YHUITU3w6ws1v8ehT264g'
p1277
sg8
S'Shout Out to My Ex'
p1278
ssS'5yuShbu70mtHXY0yLzCQLQ'
p1279
(dp1280
g3
S'Post Malone'
p1281
sg5
I1
sg6
S'https://open.spotify.com/track/5yuShbu70mtHXY0yLzCQLQ'
p1282
sg8
S'Go Flex'
p1283
ssS'50PWlIBU7PlGGwzgN8TiFJ'
p1284
(dp1285
g3
S'Lady Gaga'
p1286
sg5
I20
sg6
S'https://open.spotify.com/track/50PWlIBU7PlGGwzgN8TiFJ'
p1287
sg8
S'Million Reasons'
p1288
ssS'3dJj6o9o1fRgrojWjailuz'
p1289
(dp1290
g3
S'Linkin Park'
p1291
sg5
I4
sg6
S'https://open.spotify.com/track/3dJj6o9o1fRgrojWjailuz'
p1292
sg8
S'Nobody Can Save Me'
p1293
ssS'193Dm5SqYy3hTSbuzxbwKc'
p1294
(dp1295
g3
S'Lorde'
p1296
sg5
I1
sg6
S'https://open.spotify.com/track/193Dm5SqYy3hTSbuzxbwKc'
p1297
sg8
S'Writer In The Dark'
p1298
ssS'5tf1VVWniHgryyumXyJM7w'
p1299
(dp1300
g3
S'Robin Schulz'
p1301
sg5
I41
sg6
S'https://open.spotify.com/track/5tf1VVWniHgryyumXyJM7w'
p1302
sg8
S'Sugar (feat. Francesco Yates)'
p1303
ssS'32DGGj6KlNuBr6WaqRxpxi'
p1304
(dp1305
g3
S'Charlie Puth'
p1306
sg5
I1
sg6
S'https://open.spotify.com/track/32DGGj6KlNuBr6WaqRxpxi'
p1307
sg8
S'How Long'
p1308
ssS'5eek2X5459T1HoYJk2CKXv'
p1309
(dp1310
g3
S'Papa Roach'
p1311
sg5
I9
sg6
S'https://open.spotify.com/track/5eek2X5459T1HoYJk2CKXv'
p1312
sg8
S'Last Resort'
p1313
ssS'2XlHu0HcujBCkWMdIAvrqt'
p1314
(dp1315
g3
S'Drake'
p1316
sg5
I5
sg6
S'https://open.spotify.com/track/2XlHu0HcujBCkWMdIAvrqt'
p1317
sg8
S'Blem'
p1318
ssS'2RttW7RAu5nOAfq6YFvApB'
p1319
(dp1320
g3
S'Ed Sheeran'
p1321
sg5
I32
sg6
S'https://open.spotify.com/track/2RttW7RAu5nOAfq6YFvApB'
p1322
sg8
S'Happier'
p1323
ssS'5XqMH98UHZSibn8PW4biL1'
p1324
(dp1325
g3
S'Ben Cristovao'
p1326
sg5
I2
sg6
S'https://open.spotify.com/track/5XqMH98UHZSibn8PW4biL1'
p1327
sg8
S'Nohy'
p1328
ssS'2Sru5y6R0mYhV9nEHMDWJ7'
p1329
(dp1330
g3
S'Linkin Park'
p1331
sg5
I1
sg6
S'https://open.spotify.com/track/2Sru5y6R0mYhV9nEHMDWJ7'
p1332
sg8
S'Given Up'
p1333
ssS'7nAfXgeHfDO50upcOjJOaq'
p1334
(dp1335
g3
S'Linkin Park'
p1336
sg5
I13
sg6
S'https://open.spotify.com/track/7nAfXgeHfDO50upcOjJOaq'
p1337
sg8
S'Talking to Myself'
p1338
ssS'5hYTyyh2odQKphUbMqc5gN'
p1339
(dp1340
g3
S'Alessia Cara'
p1341
sg5
I23
sg6
S'https://open.spotify.com/track/5hYTyyh2odQKphUbMqc5gN'
p1342
sg8
S"How Far I'll Go - From Moana"
p1343
ssS'2IDDQFHRf9iH35jeL89uNs'
p1344
(dp1345
g3
S'Alle Farben'
p1346
sg5
I8
sg6
S'https://open.spotify.com/track/2IDDQFHRf9iH35jeL89uNs'
p1347
sg8
S'Please Tell Rosie'
p1348
ssS'1sBhJGPUKrdRycgKxve70v'
p1349
(dp1350
g3
S'Felix Jaehn'
p1351
sg5
I22
sg6
S'https://open.spotify.com/track/1sBhJGPUKrdRycgKxve70v'
p1352
sg8
S'Hot2Touch'
p1353
ssS'72jbDTw1piOOj770jWNeaG'
p1354
(dp1355
g3
S'The Chainsmokers'
p1356
sg5
I39
sg6
S'https://open.spotify.com/track/72jbDTw1piOOj770jWNeaG'
p1357
sg8
S'Paris'
p1358
ssS'12REd1n8PeiHHWOh066tpr'
p1359
(dp1360
g3
S'Flume'
p1361
sg5
I3
sg6
S'https://open.spotify.com/track/12REd1n8PeiHHWOh066tpr'
p1362
sg8
S'Never Be Like You'
p1363
ssS'6VRghJeP6I0w1KxkdWFfIh'
p1364
(dp1365
g3
S'Imagine Dragons'
p1366
sg5
I3
sg6
S'https://open.spotify.com/track/6VRghJeP6I0w1KxkdWFfIh'
p1367
sg8
S'Believer'
p1368
ssS'3hmVeXRiU60KWESIHVCLbI'
p1369
(dp1370
g3
S'Kry\xc5\xa1tof'
p1371
sg5
I1
sg6
S'https://open.spotify.com/track/3hmVeXRiU60KWESIHVCLbI'
p1372
sg8
S'\xc5\xa0\xc5\x88\xc5\xafry'
p1373
ssS'2rb5MvYT7ZIxbKW5hfcHx8'
p1374
(dp1375
g3
S'J Balvin'
p1376
sg5
I15
sg6
S'https://open.spotify.com/track/2rb5MvYT7ZIxbKW5hfcHx8'
p1377
sg8
S'Mi Gente'
p1378
ssS'4CnoD3XxuCJC7z0JE3SVWm'
p1379
(dp1380
g3
S'The Main Level'
p1381
sg5
I2
sg6
S'https://open.spotify.com/track/4CnoD3XxuCJC7z0JE3SVWm'
p1382
sg8
S'Bombadilla'
p1383
ssS'6Kcf6efPvyChESxZqKVeoN'
p1384
(dp1385
g3
S'Separ'
p1386
sg5
I2
sg6
S'https://open.spotify.com/track/6Kcf6efPvyChESxZqKVeoN'
p1387
sg8
S'V\xc5\xbedycky Bol'
p1388
ssS'5b88tNINg4Q4nrRbrCXUmg'
p1389
(dp1390
g3
S'Pharrell Williams'
p1391
sg5
I1
sg6
S'https://open.spotify.com/track/5b88tNINg4Q4nrRbrCXUmg'
p1392
sg8
S'Happy - From Despicable Me 2'
p1393
ssS'06ovugnC4sM8quuMYAUszu'
p1394
(dp1395
g3
S'Smack'
p1396
sg5
I1
sg6
S'https://open.spotify.com/track/06ovugnC4sM8quuMYAUszu'
p1397
sg8
S'Bez Hranic'
p1398
ssS'12o6dxWGk29uIAP3OWY0pM'
p1399
(dp1400
g3
S'Lorde'
p1401
sg5
I5
sg6
S'https://open.spotify.com/track/12o6dxWGk29uIAP3OWY0pM'
p1402
sg8
S'Homemade Dynamite'
p1403
ssS'6YnzBV7YkaXZNCK3tlnCfg'
p1404
(dp1405
g3
S'Boney M.'
p1406
sg5
I1
sg6
S'https://open.spotify.com/track/6YnzBV7YkaXZNCK3tlnCfg'
p1407
sg8
S"Mary's Boy Child / Oh My Lord"
p1408
ssS'75ZvA4QfFiZvzhj2xkaWAh'
p1409
(dp1410
g3
S'Post Malone'
p1411
sg5
I2
sg6
S'https://open.spotify.com/track/75ZvA4QfFiZvzhj2xkaWAh'
p1412
sg8
S'I Fall Apart'
p1413
ssS'7bTwYGhBdSQ8vuXc76Xint'
p1414
(dp1415
g3
S'The Lumineers'
p1416
sg5
I6
sg6
S'https://open.spotify.com/track/7bTwYGhBdSQ8vuXc76Xint'
p1417
sg8
S'Ophelia'
p1418
ssS'4IWAyPf1KMq7JCyGeCjTeH'
p1419
(dp1420
g3
S'Imagine Dragons'
p1421
sg5
I20
sg6
S'https://open.spotify.com/track/4IWAyPf1KMq7JCyGeCjTeH'
p1422
sg8
S'Whatever It Takes'
p1423
ssS'77lGafvlU68CeHgB2pkHC9'
p1424
(dp1425
g3
S'Machine Gun Kelly'
p1426
sg5
I10
sg6
S'https://open.spotify.com/track/77lGafvlU68CeHgB2pkHC9'
p1427
sg8
S'At My Best (feat. Hailee Steinfeld)'
p1428
ssS'0dA2Mk56wEzDgegdC6R17g'
p1429
(dp1430
g3
S'Zedd'
p1431
sg5
I33
sg6
S'https://open.spotify.com/track/0dA2Mk56wEzDgegdC6R17g'
p1432
sg8
S'Stay (with Alessia Cara)'
p1433
ssS'3kGfazcbVvVkuZunzlLgTD'
p1434
(dp1435
g3
S'Sigala'
p1436
sg5
I18
sg6
S'https://open.spotify.com/track/3kGfazcbVvVkuZunzlLgTD'
p1437
sg8
S'Came Here for Love'
p1438
ssS'3Ytr1SUCUi6J3L9dRFx5iH'
p1439
(dp1440
g3
S'Major Lazer'
p1441
sg5
I17
sg6
S'https://open.spotify.com/track/3Ytr1SUCUi6J3L9dRFx5iH'
p1442
sg8
S'Know No Better (feat. Quavo)'
p1443
ssS'1sl5tSzfK1JrcQIcA8rYDy'
p1444
(dp1445
g3
S'Grey'
p1446
sg5
I5
sg6
S'https://open.spotify.com/track/1sl5tSzfK1JrcQIcA8rYDy'
p1447
sg8
S'I Miss You'
p1448
ssS'1OmcAT5Y8eg5bUPv9qJT4R'
p1449
(dp1450
g3
S'Post Malone'
p1451
sg5
I3
sg6
S'https://open.spotify.com/track/1OmcAT5Y8eg5bUPv9qJT4R'
p1452
sg8
S'rockstar'
p1453
ssS'269xqcgGTN9PlivhUkOLhX'
p1454
(dp1455
g3
S'Lana Del Rey'
p1456
sg5
I1
sg6
S'https://open.spotify.com/track/269xqcgGTN9PlivhUkOLhX'
p1457
sg8
S'In My Feelings'
p1458
ssS'5ZnJsoJGkQ5K15W7Rcr5JO'
p1459
(dp1460
g3
S'Little Mix'
p1461
sg5
I7
sg6
S'https://open.spotify.com/track/5ZnJsoJGkQ5K15W7Rcr5JO'
p1462
sg8
S'No More Sad Songs (feat. Machine Gun Kelly)'
p1463
ssS'7nZmah2llfvLDiUjm0kiyz'
p1464
(dp1465
g3
S'Justin Bieber'
p1466
sg5
I8
sg6
S'https://open.spotify.com/track/7nZmah2llfvLDiUjm0kiyz'
p1467
sg8
S'Friends (with BloodPop\xc2\xae)'
p1468
ssS'13HVjjWUZFaWilh2QUJKsP'
p1469
(dp1470
g3
S'James Bay'
p1471
sg5
I11
sg6
S'https://open.spotify.com/track/13HVjjWUZFaWilh2QUJKsP'
p1472
sg8
S'Let It Go'
p1473
ssS'0y9uTzK9cNKSAEHnpeRG8C'
p1474
(dp1475
g3
S'Kendrick Lamar'
p1476
sg5
I1
sg6
S'https://open.spotify.com/track/0y9uTzK9cNKSAEHnpeRG8C'
p1477
sg8
S'DUCKWORTH.'
p1478
ssS'3eFJqPe8VUYrABbFjSauuj'
p1479
(dp1480
g3
g442
sg5
I1
sg6
S'https://open.spotify.com/track/3eFJqPe8VUYrABbFjSauuj'
p1481
sg8
g442
ssS'6D0b04NJIKfEMg040WioJQ'
p1482
(dp1483
g3
S'Julia Michaels'
p1484
sg5
I2
sg6
S'https://open.spotify.com/track/6D0b04NJIKfEMg040WioJQ'
p1485
sg8
S'Issues'
p1486
ssS'7fwXWKdDNI5IutOMc5OKYw'
p1487
(dp1488
g3
S'J Balvin'
p1489
sg5
I2
sg6
S'https://open.spotify.com/track/7fwXWKdDNI5IutOMc5OKYw'
p1490
sg8
S'Mi Gente (feat. Beyonc\xc3\xa9)'
p1491
ssS'7of1slAJIWrXxP8ikAHxje'
p1492
(dp1493
g3
S'James Hersey'
p1494
sg5
I3
sg6
S'https://open.spotify.com/track/7of1slAJIWrXxP8ikAHxje'
p1495
sg8
S'Miss You'
p1496
ssS'28KYBZXnvRk560ty8mdVIQ'
p1497
(dp1498
g3
S'Foo Fighters'
p1499
sg5
I1
sg6
S'https://open.spotify.com/track/28KYBZXnvRk560ty8mdVIQ'
p1500
sg8
S'Run'
p1501
ssS'5VaLhE67iBHeuPKbyGS2wk'
p1502
(dp1503
g3
S'Mike Perry'
p1504
sg5
I12
sg6
S'https://open.spotify.com/track/5VaLhE67iBHeuPKbyGS2wk'
p1505
sg8
S'Hands'
p1506
ssS'1bHLwv2JmxBOu2fbyeYo2e'
p1507
(dp1508
g3
S'Viktor Sheen'
p1509
sg5
I2
sg6
S'https://open.spotify.com/track/1bHLwv2JmxBOu2fbyeYo2e'
p1510
sg8
S'Dopis Z Jungle'
p1511
ssS'2dfHh7ECGxfNqZTQno09Vk'
p1512
(dp1513
g3
S'Ed Sheeran'
p1514
sg5
I7
sg6
S'https://open.spotify.com/track/2dfHh7ECGxfNqZTQno09Vk'
p1515
sg8
S"Hearts Don't Break Around Here"
p1516
ssS'6n8TMVyFKoUmDc4apxceRD'
p1517
(dp1518
g3
S'Linkin Park'
p1519
sg5
I1
sg6
S'https://open.spotify.com/track/6n8TMVyFKoUmDc4apxceRD'
p1520
sg8
S'Breaking The Habit'
p1521
ssS'1xznGGDReH1oQq0xzbwXa3'
p1522
(dp1523
g3
S'Drake'
p1524
sg5
I24
sg6
S'https://open.spotify.com/track/1xznGGDReH1oQq0xzbwXa3'
p1525
sg8
S'One Dance'
p1526
ssS'7JGtJqhhjYCD4hqY8thjkL'
p1527
(dp1528
g3
S'Miquela'
p1529
sg5
I2
sg6
S'https://open.spotify.com/track/7JGtJqhhjYCD4hqY8thjkL'
p1530
sg8
S'Not Mine'
p1531
ssS'7gn0MfkV4ZuMkqbPlmhIlx'
p1532
(dp1533
g3
S'alt-J'
p1534
sg5
I1
sg6
S'https://open.spotify.com/track/7gn0MfkV4ZuMkqbPlmhIlx'
p1535
sg8
S'Deadcrush'
p1536
ssS'3Q3myFA7q4Op95DOpHplaY'
p1537
(dp1538
g3
S'blackbear'
p1539
sg5
I7
sg6
S'https://open.spotify.com/track/3Q3myFA7q4Op95DOpHplaY'
p1540
sg8
S'do re mi'
p1541
ssS'7l9CE3wmEGOUYw1j4ETjnL'
p1542
(dp1543
g3
S'Gorillaz'
p1544
sg5
I2
sg6
S'https://open.spotify.com/track/7l9CE3wmEGOUYw1j4ETjnL'
p1545
sg8
S'Saturnz Barz (feat. Popcaan)'
p1546
ssS'5fc6rQgAKiLutfUYWQ6QnJ'
p1547
(dp1548
g3
S'Sia'
p1549
sg5
I7
sg6
S'https://open.spotify.com/track/5fc6rQgAKiLutfUYWQ6QnJ'
p1550
sg8
S'Helium - From Fifty Shades Darker (Original Motion Picture Soundtrack)'
p1551
ssS'0NiXXAI876aGImAd6rTj8w'
p1552
(dp1553
g3
S'Jonas Blue'
p1554
sg5
I14
sg6
S'https://open.spotify.com/track/0NiXXAI876aGImAd6rTj8w'
p1555
sg8
S'Mama'
p1556
ssS'343YBumqHu19cGoGARUTsd'
p1557
(dp1558
g3
S'Drake'
p1559
sg5
I15
sg6
S'https://open.spotify.com/track/343YBumqHu19cGoGARUTsd'
p1560
sg8
S'Fake Love'
p1561
ssS'5HDPtsnyb3maFmPL8LLUTG'
p1562
(dp1563
g3
S'Ed Sheeran'
p1564
sg5
I11
sg6
S'https://open.spotify.com/track/5HDPtsnyb3maFmPL8LLUTG'
p1565
sg8
S'New Man'
p1566
ssS'2CCfudTf3bHvtNbRmWtXHr'
p1567
(dp1568
g3
S'Preme'
p1569
sg5
I1
sg6
S'https://open.spotify.com/track/2CCfudTf3bHvtNbRmWtXHr'
p1570
sg8
S'Tango (Go)'
p1571
ssS'2D1DLqlS1IqVTMMkyNxM0I'
p1572
(dp1573
g3
S'D\xc4\x9btsk\xc3\xbd sbor'
p1574
sg5
I1
sg6
S'https://open.spotify.com/track/2D1DLqlS1IqVTMMkyNxM0I'
p1575
sg8
S'Gloria'
p1576
ssS'6V9kwssTrwkKT72imgowj9'
p1577
(dp1578
g3
S'The Chainsmokers'
p1579
sg5
I1
sg6
S'https://open.spotify.com/track/6V9kwssTrwkKT72imgowj9'
p1580
sg8
S'My Type'
p1581
ssS'2Avdgl4dZoDWUMpdRuUCef'
p1582
(dp1583
g3
S'Yzomandias'
p1584
sg5
I3
sg6
S'https://open.spotify.com/track/2Avdgl4dZoDWUMpdRuUCef'
p1585
sg8
S'Kriste Je\xc5\xbei\xc5\xa1 Bo\xc5\xbee'
p1586
ssS'3aLSrx8qhssXrh5yjB6oy9'
p1587
(dp1588
g3
S'Martin Solveig'
p1589
sg5
I2
sg6
S'https://open.spotify.com/track/3aLSrx8qhssXrh5yjB6oy9'
p1590
sg8
S'All Stars'
p1591
ssS'6WbADFqMvR8N5u0BvtsWQE'
p1592
(dp1593
g3
S'Avicii'
p1594
sg5
I9
sg6
S'https://open.spotify.com/track/6WbADFqMvR8N5u0BvtsWQE'
p1595
sg8
S'Without You (feat. Sandro Cavazza)'
p1596
ssS'4myvoHlmiwtVCPichsPQPz'
p1597
(dp1598
g3
S'Yzomandias'
p1599
sg5
I5
sg6
S'https://open.spotify.com/track/4myvoHlmiwtVCPichsPQPz'
p1600
sg8
S'Cpk (feat. Ego)'
p1601
ssS'7i9763l5SSfOnqZ35VOcfy'
p1602
(dp1603
g3
S'Twenty One Pilots'
p1604
sg5
I12
sg6
S'https://open.spotify.com/track/7i9763l5SSfOnqZ35VOcfy'
p1605
sg8
S'Heavydirtysoul'
p1606
ssS'3m660poUr1chesgkkjQM7P'
p1607
(dp1608
g3
S'Demi Lovato'
p1609
sg5
I2
sg6
S'https://open.spotify.com/track/3m660poUr1chesgkkjQM7P'
p1610
sg8
S'Sorry Not Sorry'
p1611
ssS'4pdPtRcBmOSQDlJ3Fk945m'
p1612
(dp1613
g3
S'DJ Snake'
p1614
sg5
I35
sg6
S'https://open.spotify.com/track/4pdPtRcBmOSQDlJ3Fk945m'
p1615
sg8
S'Let Me Love You'
p1616
ssS'1I8tHoNBFTuoJAlh4hfVVE'
p1617
(dp1618
g3
S'Kygo'
p1619
sg5
I2
sg6
S'https://open.spotify.com/track/1I8tHoNBFTuoJAlh4hfVVE'
p1620
sg8
S'Firestone'
p1621
ssS'5EnYT6F7wEcdege6mDHEfO'
p1622
(dp1623
g3
S'Drake'
p1624
sg5
I5
sg6
S'https://open.spotify.com/track/5EnYT6F7wEcdege6mDHEfO'
p1625
sg8
S'Signs'
p1626
ssS'1uoL9GX45dTnmrWQ7Ii1Ft'
p1627
(dp1628
g3
S'Halsey'
p1629
sg5
I4
sg6
S'https://open.spotify.com/track/1uoL9GX45dTnmrWQ7Ii1Ft'
p1630
sg8
S'Not Afraid Anymore'
p1631
ssS'1OAiWI2oPmglaOiv9fdioU'
p1632
(dp1633
g3
S'Coldplay'
p1634
sg5
I19
sg6
S'https://open.spotify.com/track/1OAiWI2oPmglaOiv9fdioU'
p1635
sg8
S'Hymn For The Weekend - Seeb Remix'
p1636
ssS'3u56pFLEtAEYNEDYLHtILX'
p1637
(dp1638
g3
S'Viktor Sheen'
p1639
sg5
I5
sg6
S'https://open.spotify.com/track/3u56pFLEtAEYNEDYLHtILX'
p1640
sg8
S'Nevidim Mraky'
p1641
ssS'5EaA6ooRboYfiBWKu43hhk'
p1642
(dp1643
g3
S'Viktor Sheen'
p1644
sg5
I2
sg6
S'https://open.spotify.com/track/5EaA6ooRboYfiBWKu43hhk'
p1645
sg8
S'Chl\xc3\xa9b'
p1646
ssS'508hbpTQ7wclT2JDpKBUSV'
p1647
(dp1648
g3
S'Lorde'
p1649
sg5
I1
sg6
S'https://open.spotify.com/track/508hbpTQ7wclT2JDpKBUSV'
p1650
sg8
S'Perfect Places'
p1651
ssS'7LEydI5NfjY6mZfKwYIptZ'
p1652
(dp1653
g3
S'Fifth Harmony'
p1654
sg5
I12
sg6
S'https://open.spotify.com/track/7LEydI5NfjY6mZfKwYIptZ'
p1655
sg8
S'Down'
p1656
ssS'4o6BgsqLIBViaGVbx5rbRk'
p1657
(dp1658
g3
S'Daryl Hall & John Oates'
p1659
sg5
I1
sg6
S'https://open.spotify.com/track/4o6BgsqLIBViaGVbx5rbRk'
p1660
sg8
S'You Make My Dreams - Remastered'
p1661
ssS'3K4HG9evC7dg3N0R9cYqk4'
p1662
(dp1663
g3
S'Linkin Park'
p1664
sg5
I3
sg6
S'https://open.spotify.com/track/3K4HG9evC7dg3N0R9cYqk4'
p1665
sg8
S'One Step Closer'
p1666
ssS'7oK9VyNzrYvRFo7nQEYkWN'
p1667
(dp1668
g3
S'The Killers'
p1669
sg5
I1
sg6
S'https://open.spotify.com/track/7oK9VyNzrYvRFo7nQEYkWN'
p1670
sg8
S'Mr. Brightside'
p1671
ssS'4iYRa2btalAzPZoSYfROqF'
p1672
(dp1673
g3
S'Kendrick Lamar'
p1674
sg5
I2
sg6
S'https://open.spotify.com/track/4iYRa2btalAzPZoSYfROqF'
p1675
sg8
S'XXX. FEAT. U2.'
p1676
ssS'2jYmK1cb3Uya6FFsocdpzO'
p1677
(dp1678
g3
S'Sabrina Carpenter'
p1679
sg5
I10
sg6
S'https://open.spotify.com/track/2jYmK1cb3Uya6FFsocdpzO'
p1680
sg8
S'Why'
p1681
ssS'5OOkp4U9P9oL23maHFHL1h'
p1682
(dp1683
g3
S'Desiigner'
p1684
sg5
I25
sg6
S'https://open.spotify.com/track/5OOkp4U9P9oL23maHFHL1h'
p1685
sg8
S'Panda'
p1686
ssS'3qmvK8QARSPkFTuKeIXSbs'
p1687
(dp1688
g3
S'Linkin Park'
p1689
sg5
I4
sg6
S'https://open.spotify.com/track/3qmvK8QARSPkFTuKeIXSbs'
p1690
sg8
S'Bleed It Out'
p1691
ssS'3FBDn9uYUpCAS8svJwJ7ux'
p1692
(dp1693
g3
S'D\xc4\x9btsk\xc3\xbd sbor Camerata'
p1694
sg5
I1
sg6
S'https://open.spotify.com/track/3FBDn9uYUpCAS8svJwJ7ux'
p1695
sg8
S'Nesem V\xc3\xa1m noviny'
p1696
ssS'3cFsmM51N5zMAuu1nNY4Tw'
p1697
(dp1698
g3
S'Sean Paul'
p1699
sg5
I39
sg6
S'https://open.spotify.com/track/3cFsmM51N5zMAuu1nNY4Tw'
p1700
sg8
S'No Lie'
p1701
ssS'4TJPMkXhoRBUDi4hT82YWg'
p1702
(dp1703
g3
S'Paulie Garand'
p1704
sg5
I7
sg6
S'https://open.spotify.com/track/4TJPMkXhoRBUDi4hT82YWg'
p1705
sg8
S'Bali'
p1706
ssS'79cuOz3SPQTuFrp8WgftAu'
p1707
(dp1708
g3
S'Shawn Mendes'
p1709
sg5
I25
sg6
S'https://open.spotify.com/track/79cuOz3SPQTuFrp8WgftAu'
p1710
sg8
S"There's Nothing Holdin' Me Back"
p1711
ssS'4c2W3VKsOFoIg2SFaO6DY5'
p1712
(dp1713
g3
S'Rita Ora'
p1714
sg5
I20
sg6
S'https://open.spotify.com/track/4c2W3VKsOFoIg2SFaO6DY5'
p1715
sg8
S'Your Song'
p1716
ssS'0lmdsH1MIoLsMymnNpd6HU'
p1717
(dp1718
g3
S'Dante Klein'
p1719
sg5
I7
sg6
S'https://open.spotify.com/track/0lmdsH1MIoLsMymnNpd6HU'
p1720
sg8
S'Let Me Hold You (Turn Me On)'
p1721
ssS'66PgdfTt6mgNRTuwJ4mnou'
p1722
(dp1723
g3
S'Renne Dang'
p1724
sg5
I2
sg6
S'https://open.spotify.com/track/66PgdfTt6mgNRTuwJ4mnou'
p1725
sg8
S'M\xc3\xa1ma'
p1726
ssS'6ZX2qXkhaueabbzp6vfabS'
p1727
(dp1728
g3
S'ALMA'
p1729
sg5
I1
sg6
S'https://open.spotify.com/track/6ZX2qXkhaueabbzp6vfabS'
p1730
sg8
S'Phases'
p1731
ssS'3UjJP4ludb74a29P5EHEIo'
p1732
(dp1733
g3
S'Sabrina Carpenter'
p1734
sg5
I13
sg6
S'https://open.spotify.com/track/3UjJP4ludb74a29P5EHEIo'
p1735
sg8
S'Thumbs'
p1736
ssS'3eR23VReFzcdmS7TYCrhCe'
p1737
(dp1738
g3
S'Kygo'
p1739
sg5
I33
sg6
S'https://open.spotify.com/track/3eR23VReFzcdmS7TYCrhCe'
p1740
sg8
S"It Ain't Me (with Selena Gomez)"
p1741
ssS'6a9vKVMFfNBi741DVSit3H'
p1742
(dp1743
g3
S'Felix Jaehn'
p1744
sg5
I9
sg6
S'https://open.spotify.com/track/6a9vKVMFfNBi741DVSit3H'
p1745
sg8
S'Feel Good'
p1746
ssS'2eAZfqOm4EnOF9VvN50Tyc'
p1747
(dp1748
g3
S'Lil Uzi Vert'
p1749
sg5
I5
sg6
S'https://open.spotify.com/track/2eAZfqOm4EnOF9VvN50Tyc'
p1750
sg8
S'The Way Life Goes'
p1751
ssS'6gJCQaOE1TXD1BRLlAPXQb'
p1752
(dp1753
g3
S'Ben Cristovao'
p1754
sg5
I6
sg6
S'https://open.spotify.com/track/6gJCQaOE1TXD1BRLlAPXQb'
p1755
sg8
S'Posledn\xc3\xad'
p1756
ssS'2VGK3M21IXwyhP4U1tQIga'
p1757
(dp1758
g3
S'Yzomandias'
p1759
sg5
I6
sg6
S'https://open.spotify.com/track/2VGK3M21IXwyhP4U1tQIga'
p1760
sg8
S'Aloha'
p1761
ssS'3aYBjxTMvrEOP0A0UXg9ER'
p1762
(dp1763
g3
S'Linkin Park'
p1764
sg5
I1
sg6
S'https://open.spotify.com/track/3aYBjxTMvrEOP0A0UXg9ER'
p1765
sg8
S'Final Masquerade'
p1766
ssS'5fUsSQu2vgYKZOlU6xm1s2'
p1767
(dp1768
g3
S'Marpo'
p1769
sg5
I8
sg6
S'https://open.spotify.com/track/5fUsSQu2vgYKZOlU6xm1s2'
p1770
sg8
S'Dead Man Walking'
p1771
ssS'4GzUweW06XQdj7CUBYPS7b'
p1772
(dp1773
g3
S'Renne Dang'
p1774
sg5
I2
sg6
S'https://open.spotify.com/track/4GzUweW06XQdj7CUBYPS7b'
p1775
sg8
S'Yin Yang'
p1776
ssS'5LXj9Ch3O9ATm1NoHT8GXn'
p1777
(dp1778
g3
S'Coldplay'
p1779
sg5
I1
sg6
S'https://open.spotify.com/track/5LXj9Ch3O9ATm1NoHT8GXn'
p1780
sg8
S'Hypnotised'
p1781
ssS'1AhDOtG9vPSOmsWgNW0BEY'
p1782
(dp1783
g3
S'Queen'
p1784
sg5
I1
sg6
S'https://open.spotify.com/track/1AhDOtG9vPSOmsWgNW0BEY'
p1785
sg8
S'Bohemian Rhapsody - Remastered 2011'
p1786
ssS'76DUNn1GcfOxuXJjJWPt9x'
p1787
(dp1788
g3
S'Yzomandias'
p1789
sg5
I2
sg6
S'https://open.spotify.com/track/76DUNn1GcfOxuXJjJWPt9x'
p1790
sg8
S'Vr\xc3\xa1na K Vr\xc3\xa1n\xc4\x9b (feat. Hasan)'
p1791
ssS'5bZtRlMBU76vHuDOb1GM5u'
p1792
(dp1793
g3
S'Jonas Blue'
p1794
sg5
I7
sg6
S'https://open.spotify.com/track/5bZtRlMBU76vHuDOb1GM5u'
p1795
sg8
S'Perfect Strangers'
p1796
ssS'2OWKDTonST8HNko3dBlPPp'
p1797
(dp1798
g3
S'Dua Lipa'
p1799
sg5
I1
sg6
S'https://open.spotify.com/track/2OWKDTonST8HNko3dBlPPp'
p1800
sg8
S'Lost In Your Light (feat. Miguel)'
p1801
ssS'32lgtADX2cB9I4KFs1Y1py'
p1802
(dp1803
g3
S'The Weeknd'
p1804
sg5
I1
sg6
S'https://open.spotify.com/track/32lgtADX2cB9I4KFs1Y1py'
p1805
sg8
S'False Alarm'
p1806
ssS'6TIU9Ehmi6dMzZK73Ym4yj'
p1807
(dp1808
g3
S'Ed Sheeran'
p1809
sg5
I5
sg6
S'https://open.spotify.com/track/6TIU9Ehmi6dMzZK73Ym4yj'
p1810
sg8
S'Save Myself'
p1811
ssS'7taXf5odg9xCAZERYfyOkS'
p1812
(dp1813
g3
S'Jos\xc3\xa9 Feliciano'
p1814
sg5
I1
sg6
S'https://open.spotify.com/track/7taXf5odg9xCAZERYfyOkS'
p1815
sg8
S'Feliz Navidad'
p1816
ssS'7nXk8UzwYn0bKNH8NVz6xO'
p1817
(dp1818
g3
S'Imagine Dragons'
p1819
sg5
I4
sg6
S'https://open.spotify.com/track/7nXk8UzwYn0bKNH8NVz6xO'
p1820
sg8
S'Yesterday'
p1821
ssS'6GeD5g9vZTz25Egf8kxoIY'
p1822
(dp1823
g3
S'The Chainsmokers'
p1824
sg5
I1
sg6
S'https://open.spotify.com/track/6GeD5g9vZTz25Egf8kxoIY'
p1825
sg8
S'Last Day Alive'
p1826
ssS'3wnSkikz2xzpf03UEDgTj9'
p1827
(dp1828
g3
S'Chinaski'
p1829
sg5
I8
sg6
S'https://open.spotify.com/track/3wnSkikz2xzpf03UEDgTj9'
p1830
sg8
S'Potkal Jsem T\xc4\x9b Po Letech'
p1831
ssS'2mfUa8bLs2s5N4VaqJZ4lZ'
p1832
(dp1833
g3
S'Hailee Steinfeld'
p1834
sg5
I24
sg6
S'https://open.spotify.com/track/2mfUa8bLs2s5N4VaqJZ4lZ'
p1835
sg8
S'Most Girls'
p1836
ssS'4aWmUDTfIPGksMNLV2rQP2'
p1837
(dp1838
g3
S'Luis Fonsi'
p1839
sg5
I38
sg6
S'https://open.spotify.com/track/4aWmUDTfIPGksMNLV2rQP2'
p1840
sg8
S'Despacito (Featuring Daddy Yankee)'
p1841
ssS'58zsLZPvfflaiIbNWoA22O'
p1842
(dp1843
g3
S"Rag'n'Bone Man"
p1844
sg5
I42
sg6
S'https://open.spotify.com/track/58zsLZPvfflaiIbNWoA22O'
p1845
sg8
S'Human'
p1846
ssS'5dKyZWlgjWw1oJgLa4GCZD'
p1847
(dp1848
g3
S'Tove Lo'
p1849
sg5
I4
sg6
S'https://open.spotify.com/track/5dKyZWlgjWw1oJgLa4GCZD'
p1850
sg8
S'Cool Girl'
p1851
ssS'60APt5N2NRaKWf5xzJdzyC'
p1852
(dp1853
g3
S'Calvin Harris'
p1854
sg5
I5
sg6
S'https://open.spotify.com/track/60APt5N2NRaKWf5xzJdzyC'
p1855
sg8
S'Heatstroke'
p1856
ssS'25C5CowdsfXld2jJanbiex'
p1857
(dp1858
g3
S'Demi Lovato'
p1859
sg5
I12
sg6
S'https://open.spotify.com/track/25C5CowdsfXld2jJanbiex'
p1860
sg8
S'Sorry Not Sorry'
p1861
ssS'6IcrwGdIvRsrImOnoYfG9Z'
p1862
(dp1863
g3
S'Wiz Khalifa'
p1864
sg5
I1
sg6
S'https://open.spotify.com/track/6IcrwGdIvRsrImOnoYfG9Z'
p1865
sg8
S'See You Again (feat. Charlie Puth) - From Furious 7'
p1866
ssS'2JTUKmfb7EXv33nYvZWxV5'
p1867
(dp1868
g3
S'Nik Tendo'
p1869
sg5
I1
sg6
S'https://open.spotify.com/track/2JTUKmfb7EXv33nYvZWxV5'
p1870
sg8
S'Gold'
p1871
ssS'0azC730Exh71aQlOt9Zj3y'
p1872
(dp1873
g3
S'Calvin Harris'
p1874
sg5
I19
sg6
S'https://open.spotify.com/track/0azC730Exh71aQlOt9Zj3y'
p1875
sg8
S'This Is What You Came For'
p1876
ssS'2Z8WuEywRWYTKe1NybPQEW'
p1877
(dp1878
g3
S'Twenty One Pilots'
p1879
sg5
I36
sg6
S'https://open.spotify.com/track/2Z8WuEywRWYTKe1NybPQEW'
p1880
sg8
S'Ride'
p1881
ssS'0fleayKMRTvoxwx7UERf1C'
p1882
(dp1883
g3
S'Viktor Sheen'
p1884
sg5
I2
sg6
S'https://open.spotify.com/track/0fleayKMRTvoxwx7UERf1C'
p1885
sg8
S'V D\xc3\xbdmu'
p1886
ssS'27gUeiai56GKF6TxvmPJut'
p1887
(dp1888
g3
S'Linkin Park'
p1889
sg5
I1
sg6
S'https://open.spotify.com/track/27gUeiai56GKF6TxvmPJut'
p1890
sg8
S"Don't Stay"
p1891
ssS'6JV2JOEocMgcZxYSZelKcc'
p1892
(dp1893
g3
S'Justin Timberlake'
p1894
sg5
I42
sg6
S'https://open.spotify.com/track/6JV2JOEocMgcZxYSZelKcc'
p1895
sg8
S"CAN'T STOP THE FEELING! (Original Song from DreamWorks Animation's TROLLS)"
p1896
ssS'05KOgYg8PGeJyyWBPi5ja8'
p1897
(dp1898
g3
S'Drake'
p1899
sg5
I2
sg6
S'https://open.spotify.com/track/05KOgYg8PGeJyyWBPi5ja8'
p1900
sg8
S'Free Smoke'
p1901
ssS'6De0lHrwBfPfrhorm9q1Xl'
p1902
(dp1903
g3
S'Danny Ocean'
p1904
sg5
I12
sg6
S'https://open.spotify.com/track/6De0lHrwBfPfrhorm9q1Xl'
p1905
sg8
S'Me Reh\xc3\xbaso'
p1906
ssS'3GVkPk8mqxz0itaAriG1L7'
p1907
(dp1908
g3
S'XXXTENTACION'
p1909
sg5
I3
sg6
S'https://open.spotify.com/track/3GVkPk8mqxz0itaAriG1L7'
p1910
sg8
S'Everybody Dies In Their Nightmares'
p1911
ssS'7aV2mflaASUmGhCErm7kBO'
p1912
(dp1913
g3
S'Nevada'
p1914
sg5
I10
sg6
S'https://open.spotify.com/track/7aV2mflaASUmGhCErm7kBO'
p1915
sg8
S'The Mack'
p1916
ssS'0bYg9bo50gSsH3LtXe2SQn'
p1917
(dp1918
g3
S'Mariah Carey'
p1919
sg5
I1
sg6
S'https://open.spotify.com/track/0bYg9bo50gSsH3LtXe2SQn'
p1920
sg8
S'All I Want for Christmas Is You'
p1921
ssS'2YMyVYNLmFDD0KGtNkkgFa'
p1922
(dp1923
g3
S'DNCE'
p1924
sg5
I8
sg6
S'https://open.spotify.com/track/2YMyVYNLmFDD0KGtNkkgFa'
p1925
sg8
S'Kissing Strangers'
p1926
ssS'6sDQ4uiWw9OdVrCXFLSlZt'
p1927
(dp1928
g3
S'Eminem'
p1929
sg5
I2
sg6
S'https://open.spotify.com/track/6sDQ4uiWw9OdVrCXFLSlZt'
p1930
sg8
S'Rap God'
p1931
ssS'1JTtpzotOU0SHNIX7tv0M5'
p1932
(dp1933
g3
S'D\xc4\x9btsk\xc3\xbd sbor'
p1934
sg5
I1
sg6
S'https://open.spotify.com/track/1JTtpzotOU0SHNIX7tv0M5'
p1935
sg8
S'\xc5\xa0t\xc4\x9bdrej ve\xc4\x8der nastal'
p1936
ssS'2nYwV62UABTH0NanrwVIdQ'
p1937
(dp1938
g3
S'Rae Sremmurd'
p1939
sg5
I1
sg6
S'https://open.spotify.com/track/2nYwV62UABTH0NanrwVIdQ'
p1940
sg8
S'Perplexing Pegasus'
p1941
ssS'3rOSwuTsUlJp0Pu0MkN8r8'
p1942
(dp1943
g3
S'Future'
p1944
sg5
I30
sg6
S'https://open.spotify.com/track/3rOSwuTsUlJp0Pu0MkN8r8'
p1945
sg8
S'Mask Off'
p1946
ssS'6N7dpilf9EhmR0iOkcIQnT'
p1947
(dp1948
g3
S'Kry\xc5\xa1tof'
p1949
sg5
I15
sg6
S'https://open.spotify.com/track/6N7dpilf9EhmR0iOkcIQnT'
p1950
sg8
S'\xc5\xa0\xc5\x88\xc5\xafry'
p1951
ssS'1qOLh0tI7trd1zdDKxYZTe'
p1952
(dp1953
g3
S'Hailee Steinfeld'
p1954
sg5
I35
sg6
S'https://open.spotify.com/track/1qOLh0tI7trd1zdDKxYZTe'
p1955
sg8
S'Starving'
p1956
ssS'0cqRj7pUJDkTCEsJkx8snD'
p1957
(dp1958
g3
S'Taylor Swift'
p1959
sg5
I2
sg6
S'https://open.spotify.com/track/0cqRj7pUJDkTCEsJkx8snD'
p1960
sg8
S'Shake It Off'
p1961
ssS'3HVr6jTVwBHBa2flM0eURR'
p1962
(dp1963
g3
S'Macklemore'
p1964
sg5
I13
sg6
S'https://open.spotify.com/track/3HVr6jTVwBHBa2flM0eURR'
p1965
sg8
S'Glorious (feat. Skylar Grey)'
p1966
ssS'7inXu0Eaeg02VsM8kHNvzM'
p1967
(dp1968
g3
S'Frank Sinatra'
p1969
sg5
I1
sg6
S'https://open.spotify.com/track/7inXu0Eaeg02VsM8kHNvzM'
p1970
sg8
S'Let It Snow! Let It Snow! Let It Snow!'
p1971
ssS'0JiVRyTJcJnmlwCZ854K4p'
p1972
(dp1973
g3
S'Alan Walker'
p1974
sg5
I42
sg6
S'https://open.spotify.com/track/0JiVRyTJcJnmlwCZ854K4p'
p1975
sg8
S'Alone'
p1976
ssS'1cG0umU5TKStygKsPFZ9pY'
p1977
(dp1978
g3
S'Robin Schulz'
p1979
sg5
I40
sg6
S'https://open.spotify.com/track/1cG0umU5TKStygKsPFZ9pY'
p1980
sg8
S'Shed a Light'
p1981
ssS'6520aj0B4FSKGVuKNsOCOi'
p1982
(dp1983
g3
S'Katy Perry'
p1984
sg5
I26
sg6
S'https://open.spotify.com/track/6520aj0B4FSKGVuKNsOCOi'
p1985
sg8
S'Chained To The Rhythm'
p1986
ssS'3caMfJGFp53NAH2TuigdNj'
p1987
(dp1988
g3
S'Galantis'
p1989
sg5
I19
sg6
S'https://open.spotify.com/track/3caMfJGFp53NAH2TuigdNj'
p1990
sg8
S'Hunter'
p1991
ssS'6EpRaXYhGOB3fj4V2uDkMJ'
p1992
(dp1993
g3
S'Liam Payne'
p1994
sg5
I21
sg6
S'https://open.spotify.com/track/6EpRaXYhGOB3fj4V2uDkMJ'
p1995
sg8
S'Strip That Down'
p1996
ssS'5ChkMS8OtdzJeqyybCc9R5'
p1997
(dp1998
g3
S'Michael Jackson'
p1999
sg5
I1
sg6
S'https://open.spotify.com/track/5ChkMS8OtdzJeqyybCc9R5'
p2000
sg8
S'Billie Jean'
p2001
ssS'65MOTX6uSFAnqXl7dlAuId'
p2002
(dp2003
g3
S'Demi Lovato'
p2004
sg5
I1
sg6
S'https://open.spotify.com/track/65MOTX6uSFAnqXl7dlAuId'
p2005
sg8
S'Tell Me You Love Me'
p2006
ssS'3Db8OhBMmNPLv2rHYoP7Wf'
p2007
(dp2008
g3
S'John Gibbons'
p2009
sg5
I15
sg6
S'https://open.spotify.com/track/3Db8OhBMmNPLv2rHYoP7Wf'
p2010
sg8
S'P.Y.T. (Pretty Young Thing)'
p2011
ssS'19WjVVgXjdKXfLXoaDPwTM'
p2012
(dp2013
g3
S'Taylor Swift'
p2014
sg5
I5
sg6
S'https://open.spotify.com/track/19WjVVgXjdKXfLXoaDPwTM'
p2015
sg8
S'...Ready For It?'
p2016
ssS'1wjzFQodRWrPcQ0AnYnvQ9'
p2017
(dp2018
g3
S'Lauv'
p2019
sg5
I19
sg6
S'https://open.spotify.com/track/1wjzFQodRWrPcQ0AnYnvQ9'
p2020
sg8
S'I Like Me Better'
p2021
ssS'4O4xuKdvJvl7HpFlYGwudS'
p2022
(dp2023
g3
S'The xx'
p2024
sg5
I1
sg6
S'https://open.spotify.com/track/4O4xuKdvJvl7HpFlYGwudS'
p2025
sg8
S'Replica'
p2026
ssS'4PdJSsESm34djLfBde9Pr2'
p2027
(dp2028
g3
S'David Guetta'
p2029
sg5
I29
sg6
S'https://open.spotify.com/track/4PdJSsESm34djLfBde9Pr2'
p2030
sg8
S'Would I Lie To You - Radio Edit'
p2031
ssS'7A7AwRWcxWbmOYaMNvhs0J'
p2032
(dp2033
g3
S'Paulie Garand'
p2034
sg5
I6
sg6
S'https://open.spotify.com/track/7A7AwRWcxWbmOYaMNvhs0J'
p2035
sg8
S'Play'
p2036
ssS'7iDa6hUg2VgEL1o1HjmfBn'
p2037
(dp2038
g3
S'Bebe Rexha'
p2039
sg5
I4
sg6
S'https://open.spotify.com/track/7iDa6hUg2VgEL1o1HjmfBn'
p2040
sg8
S'Meant to Be (feat. Florida Georgia Line)'
p2041
ssS'7abpmGpF7PGep2rDU68GBR'
p2042
(dp2043
g3
S'Burak Yeter'
p2044
sg5
I39
sg6
S'https://open.spotify.com/track/7abpmGpF7PGep2rDU68GBR'
p2045
sg8
S'Tuesday'
p2046
ssS'0qYTZCo5Bwh1nsUFGZP3zn'
p2047
(dp2048
g3
S'Maluma'
p2049
sg5
I16
sg6
S'https://open.spotify.com/track/0qYTZCo5Bwh1nsUFGZP3zn'
p2050
sg8
S'Felices los 4'
p2051
ssS'3GPI7hYiqD6enLRobhkBm8'
p2052
(dp2053
g3
S'ItaloBrothers'
p2054
sg5
I15
sg6
S'https://open.spotify.com/track/3GPI7hYiqD6enLRobhkBm8'
p2055
sg8
S'Summer Air'
p2056
ssS'1KqvRRQd3lfM0pAlkGPrgD'
p2057
(dp2058
g3
S'Ed Sheeran'
p2059
sg5
I1
sg6
S'https://open.spotify.com/track/1KqvRRQd3lfM0pAlkGPrgD'
p2060
sg8
S'Shape of You (Major Lazer Remix) [feat. Nyla & Kranium]'
p2061
ssS'2XMTqoHHSH0lvuXrvIEdco'
p2062
(dp2063
g3
S'FRENSHIP'
p2064
sg5
I21
sg6
S'https://open.spotify.com/track/2XMTqoHHSH0lvuXrvIEdco'
p2065
sg8
S'Capsize'
p2066
ssS'5MFzQMkrl1FOOng9tq6R9r'
p2067
(dp2068
g3
S'Maroon 5'
p2069
sg5
I23
sg6
S'https://open.spotify.com/track/5MFzQMkrl1FOOng9tq6R9r'
p2070
sg8
S"Don't Wanna Know"
p2071
ssS'5Z3GHaZ6ec9bsiI5BenrbY'
p2072
(dp2073
g3
S'Khalid'
p2074
sg5
I15
sg6
S'https://open.spotify.com/track/5Z3GHaZ6ec9bsiI5BenrbY'
p2075
sg8
S'Young Dumb & Broke'
p2076
ssS'0js77PVp734uKomKp4Sf4F'
p2077
(dp2078
g3
S'Paulie Garand'
p2079
sg5
I2
sg6
S'https://open.spotify.com/track/0js77PVp734uKomKp4Sf4F'
p2080
sg8
S'Se Mnou'
p2081
ssS'7fcaKBW9xwxp0dsaQ6LwPe'
p2082
(dp2083
g3
S'Yzomandias'
p2084
sg5
I1
sg6
S'https://open.spotify.com/track/7fcaKBW9xwxp0dsaQ6LwPe'
p2085
sg8
S'217 (feat. Nik Tendo)'
p2086
ssS'3FDrI0FLKzrYQiWxPhqV2W'
p2087
(dp2088
g3
S'Calvin Harris'
p2089
sg5
I4
sg6
S'https://open.spotify.com/track/3FDrI0FLKzrYQiWxPhqV2W'
p2090
sg8
S'Rollin'
p2091
ssS'1FgmP7AOTcn7MGYmImj0kn'
p2092
(dp2093
g3
S'Macklemore'
p2094
sg5
I2
sg6
S'https://open.spotify.com/track/1FgmP7AOTcn7MGYmImj0kn'
p2095
sg8
S"Ain't Gonna Die Tonight (feat. Eric Nally)"
p2096
ssS'1WP1r7fuvRqZRnUaTi2I1Q'
p2097
(dp2098
g3
S'Shawn Mendes'
p2099
sg5
I13
sg6
S'https://open.spotify.com/track/1WP1r7fuvRqZRnUaTi2I1Q'
p2100
sg8
S'Stitches'
p2101
ssS'6Nm0PIjQHqW8OxQlNB2ze9'
p2102
(dp2103
g3
S'Sondr'
p2104
sg5
I1
sg6
S'https://open.spotify.com/track/6Nm0PIjQHqW8OxQlNB2ze9'
p2105
sg8
S'Live Love Learn'
p2106
ssS'32OlwWuMpZ6b0aN2RZOeMS'
p2107
(dp2108
g3
S'Mark Ronson'
p2109
sg5
I2
sg6
S'https://open.spotify.com/track/32OlwWuMpZ6b0aN2RZOeMS'
p2110
sg8
S'Uptown Funk'
p2111
ssS'0IFV9VPRBvqpUP52ksLzzE'
p2112
(dp2113
g3
S'Porter Robinson & Madeon'
p2114
sg5
I1
sg6
S'https://open.spotify.com/track/0IFV9VPRBvqpUP52ksLzzE'
p2115
sg8
S'\xe3\x82\xb7\xe3\x82\xa7\xe3\x83\xab\xe3\x82\xbf\xe3\x83\xbc'
p2116
ssS'0IqKeD8ZSP72KbGYyzEcAs'
p2117
(dp2118
g3
S'Hozier'
p2119
sg5
I22
sg6
S'https://open.spotify.com/track/0IqKeD8ZSP72KbGYyzEcAs'
p2120
sg8
S'Take Me To Church'
p2121
ssS'33bURv895AN4FkBvgFo2dx'
p2122
(dp2123
g3
S'Harry Styles'
p2124
sg5
I1
sg6
S'https://open.spotify.com/track/33bURv895AN4FkBvgFo2dx'
p2125
sg8
S'Woman'
p2126
ssS'5QqyRUZeBE04yJxsD1OC0I'
p2127
(dp2128
g3
S'Lana Del Rey'
p2129
sg5
I1
sg6
S'https://open.spotify.com/track/5QqyRUZeBE04yJxsD1OC0I'
p2130
sg8
S'Summer Bummer (feat. A$AP Rocky & Playboi Carti)'
p2131
ssS'2jTujnt0y344ai1rNOywgr'
p2132
(dp2133
g3
S'Drake'
p2134
sg5
I1
sg6
S'https://open.spotify.com/track/2jTujnt0y344ai1rNOywgr'
p2135
sg8
S'KMT'
p2136
ssS'6pVW5LRWgeLaHudxauOTJU'
p2137
(dp2138
g3
S'Daryl Hall & John Oates'
p2139
sg5
I1
sg6
S'https://open.spotify.com/track/6pVW5LRWgeLaHudxauOTJU'
p2140
sg8
S'Jingle Bell Rock from Daryl'
p2141
ssS'1uNHkz9TfnDAjWNRMmQBS5'
p2142
(dp2143
g3
S'Viktor Sheen'
p2144
sg5
I2
sg6
S'https://open.spotify.com/track/1uNHkz9TfnDAjWNRMmQBS5'
p2145
sg8
S'Spr\xc3\xa1vnej Stav'
p2146
ssS'1ipE3bBLWeLkIvxWUaxpSu'
p2147
(dp2148
g3
S'P!nk'
p2149
sg5
I1
sg6
S'https://open.spotify.com/track/1ipE3bBLWeLkIvxWUaxpSu'
p2150
sg8
S'Beautiful Trauma'
p2151
ssS'7zgqtptZvhf8GEmdsM2vp2'
p2152
(dp2153
g3
S'Taylor Swift'
p2154
sg5
I1
sg6
S'https://open.spotify.com/track/7zgqtptZvhf8GEmdsM2vp2'
p2155
sg8
S'...Ready For It?'
p2156
ssS'5oAgI7Pzg6vxuKrfapg3Pi'
p2157
(dp2158
g3
S'Martin Garrix'
p2159
sg5
I1
sg6
S'https://open.spotify.com/track/5oAgI7Pzg6vxuKrfapg3Pi'
p2160
sg8
S'Pizza'
p2161
ssS'7AQim7LbvFVZJE3O8TYgf2'
p2162
(dp2163
g3
S'XXXTENTACION'
p2164
sg5
I5
sg6
S'https://open.spotify.com/track/7AQim7LbvFVZJE3O8TYgf2'
p2165
sg8
S'Fuck Love (feat. Trippie Redd)'
p2166
ssS'4fhVodXZARPX0oTuQh8V9l'
p2167
(dp2168
g3
S'Astrid S'
p2169
sg5
I4
sg6
S'https://open.spotify.com/track/4fhVodXZARPX0oTuQh8V9l'
p2170
sg8
S'Breathe'
p2171
ssS'6cPyTS0Kk2sc4xQwC93kOg'
p2172
(dp2173
g3
S'The Chainsmokers'
p2174
sg5
I8
sg6
S'https://open.spotify.com/track/6cPyTS0Kk2sc4xQwC93kOg'
p2175
sg8
S'Break Up Every Night'
p2176
ssS'5edBgVtRD0fvWk140Sl21T'
p2177
(dp2178
g3
S'OneRepublic'
p2179
sg5
I18
sg6
S'https://open.spotify.com/track/5edBgVtRD0fvWk140Sl21T'
p2180
sg8
S'Counting Stars'
p2181
ssS'7s25THrKz86DM225dOYwnr'
p2182
(dp2183
g3
S'Aretha Franklin'
p2184
sg5
I1
sg6
S'https://open.spotify.com/track/7s25THrKz86DM225dOYwnr'
p2185
sg8
S'Respect'
p2186
ssS'1DV19MDjWkpndPCQrkCXX9'
p2187
(dp2188
g3
S'Paulie Garand'
p2189
sg5
I2
sg6
S'https://open.spotify.com/track/1DV19MDjWkpndPCQrkCXX9'
p2190
sg8
S'Alcatraz'
p2191
ssS'0PDUDa38GO8lMxLCRc4lL1'
p2192
(dp2193
g3
S'ZAYN'
p2194
sg5
I5
sg6
S'https://open.spotify.com/track/0PDUDa38GO8lMxLCRc4lL1'
p2195
sg8
S'PILLOWTALK'
p2196
ssS'7iypwu1yQ4GftHl3nbUgK6'
p2197
(dp2198
g3
S'P!nk'
p2199
sg5
I1
sg6
S'https://open.spotify.com/track/7iypwu1yQ4GftHl3nbUgK6'
p2200
sg8
S'Whatever You Want'
p2201
ssS'3pC1ILr9KzmQLMe8Kn5QBG'
p2202
(dp2203
g3
S'DJ Khaled'
p2204
sg5
I1
sg6
S'https://open.spotify.com/track/3pC1ILr9KzmQLMe8Kn5QBG'
p2205
sg8
S'To the Max'
p2206
ssS'0V9cosR5jWa4fr2koARmhD'
p2207
(dp2208
g3
S'ItaloBrothers'
p2209
sg5
I5
sg6
S'https://open.spotify.com/track/0V9cosR5jWa4fr2koARmhD'
p2210
sg8
S'Summer Air'
p2211
ssS'0zCfmceT1YvtZXGbR6Roht'
p2212
(dp2213
g3
S'La La Land Cast'
p2214
sg5
I4
sg6
S'https://open.spotify.com/track/0zCfmceT1YvtZXGbR6Roht'
p2215
sg8
S'Another Day Of Sun - From La La Land Soundtrack'
p2216
ssS'35QZaWQRkmnAVqBF1TLCxQ'
p2217
(dp2218
g3
S'Ed Sheeran'
p2219
sg5
I8
sg6
S'https://open.spotify.com/track/35QZaWQRkmnAVqBF1TLCxQ'
p2220
sg8
S'Nancy Mulligan'
p2221
ssS'5q4BpnMrYEFzLO0dYODj6J'
p2222
(dp2223
g3
S'Lorde'
p2224
sg5
I1
sg6
S'https://open.spotify.com/track/5q4BpnMrYEFzLO0dYODj6J'
p2225
sg8
S'The Louvre'
p2226
ssS'3VRk65lHSwqd90TAkQqhvB'
p2227
(dp2228
g3
S'Katy Perry'
p2229
sg5
I2
sg6
S'https://open.spotify.com/track/3VRk65lHSwqd90TAkQqhvB'
p2230
sg8
S'Swish Swish'
p2231
ssS'5eqK0tbzUPo2SoeZsov04s'
p2232
(dp2233
g3
S'21 Savage'
p2234
sg5
I8
sg6
S'https://open.spotify.com/track/5eqK0tbzUPo2SoeZsov04s'
p2235
sg8
S'Bank Account'
p2236
ssS'1a5Yu5L18qNxVhXx38njON'
p2237
(dp2238
g3
S'Alok'
p2239
sg5
I32
sg6
S'https://open.spotify.com/track/1a5Yu5L18qNxVhXx38njON'
p2240
sg8
S'Hear Me Now'
p2241
ssS'3kxfsdsCpFgN412fpnW85Y'
p2242
(dp2243
g3
S'Childish Gambino'
p2244
sg5
I13
sg6
S'https://open.spotify.com/track/3kxfsdsCpFgN412fpnW85Y'
p2245
sg8
S'Redbone'
p2246
ssS'3qyeNnFY67zX6VmmIbzPsL'
p2247
(dp2248
g3
S'Mike Perry'
p2249
sg5
I8
sg6
S'https://open.spotify.com/track/3qyeNnFY67zX6VmmIbzPsL'
p2250
sg8
S'Body to Body'
p2251
ssS'0vbbhcA6okLzvsy6WSTlLg'
p2252
(dp2253
g3
S'Rudimental'
p2254
sg5
I4
sg6
S'https://open.spotify.com/track/0vbbhcA6okLzvsy6WSTlLg'
p2255
sg8
S'Lay It All On Me (feat. Ed Sheeran)'
p2256
ssS'4sPmO7WMQUAf45kwMOtONw'
p2257
(dp2258
g3
S'Adele'
p2259
sg5
I16
sg6
S'https://open.spotify.com/track/4sPmO7WMQUAf45kwMOtONw'
p2260
sg8
S'Hello'
p2261
ssS'1j4kHkkpqZRBwE0A4CN4Yv'
p2262
(dp2263
g3
S'ZAYN'
p2264
sg5
I5
sg6
S'https://open.spotify.com/track/1j4kHkkpqZRBwE0A4CN4Yv'
p2265
sg8
S'Dusk Till Dawn - Radio Edit'
p2266
ssS'3agtg0x11wPvLIWkYR39nZ'
p2267
(dp2268
g3
S'Linkin Park'
p2269
sg5
I2
sg6
S'https://open.spotify.com/track/3agtg0x11wPvLIWkYR39nZ'
p2270
sg8
S'Somewhere I Belong'
p2271
ssS'5p3NP9mQblDsVJLdfNZJ3I'
p2272
(dp2273
g3
S'Kendrick Lamar'
p2274
sg5
I1
sg6
S'https://open.spotify.com/track/5p3NP9mQblDsVJLdfNZJ3I'
p2275
sg8
S'GOD.'
p2276
ssS'6BaCraQ9xeLYg4Sb9TBT2X'
p2277
(dp2278
g3
S'Calvin Harris'
p2279
sg5
I1
sg6
S'https://open.spotify.com/track/6BaCraQ9xeLYg4Sb9TBT2X'
p2280
sg8
S'Feels'
p2281
ssS'7ARveOiD31w2Nq0n5FsSf8'
p2282
(dp2283
g3
S'Lorde'
p2284
sg5
I1
sg6
S'https://open.spotify.com/track/7ARveOiD31w2Nq0n5FsSf8'
p2285
sg8
S'Perfect Places'
p2286
ssS'6875MeXyCW0wLyT72Eetmo'
p2287
(dp2288
g3
S'Hailee Steinfeld'
p2289
sg5
I2
sg6
S'https://open.spotify.com/track/6875MeXyCW0wLyT72Eetmo'
p2290
sg8
S'Starving'
p2291
ssS'0XB2gWwiwH5A6nkmNwxYPR'
p2292
(dp2293
g3
S'Ben Cristovao'
p2294
sg5
I10
sg6
S'https://open.spotify.com/track/0XB2gWwiwH5A6nkmNwxYPR'
p2295
sg8
S'Program'
p2296
ssS'6Knv6wdA0luoMUuuoYi2i1'
p2297
(dp2298
g3
S'Flo Rida'
p2299
sg5
I7
sg6
S'https://open.spotify.com/track/6Knv6wdA0luoMUuuoYi2i1'
p2300
sg8
S'My House'
p2301
ssS'6gTJaPuj8DT8RjuDJyBgzP'
p2302
(dp2303
g3
S'Ed Sheeran'
p2304
sg5
I10
sg6
S'https://open.spotify.com/track/6gTJaPuj8DT8RjuDJyBgzP'
p2305
sg8
S"Don't"
p2306
ssS'3T7dNA7O8c3Axj5WyDNcH3'
p2307
(dp2308
g3
S'Brenda Lee'
p2309
sg5
I1
sg6
S'https://open.spotify.com/track/3T7dNA7O8c3Axj5WyDNcH3'
p2310
sg8
S"Rockin' Around The Christmas Tree - Single Version"
p2311
ssS'5q5gzmbBS5yQzos2BvVr1t'
p2312
(dp2313
g3
S'M\xc3\x98'
p2314
sg5
I18
sg6
S'https://open.spotify.com/track/5q5gzmbBS5yQzos2BvVr1t'
p2315
sg8
S'Nights With You'
p2316
ssS'3DXncPQOG4VBw3QHh3S817'
p2317
(dp2318
g3
S'DJ Khaled'
p2319
sg5
I20
sg6
S'https://open.spotify.com/track/3DXncPQOG4VBw3QHh3S817'
p2320
sg8
S"I'm the One"
p2321
ssS'5Lbsc65org0b85kNsPkluY'
p2322
(dp2323
g3
S'Harry Styles'
p2324
sg5
I1
sg6
S'https://open.spotify.com/track/5Lbsc65org0b85kNsPkluY'
p2325
sg8
S'Only Angel'
p2326
ssS'6mapJIPnQ23RTAevUoE0DL'
p2327
(dp2328
g3
S'Rae Sremmurd'
p2329
sg5
I3
sg6
S'https://open.spotify.com/track/6mapJIPnQ23RTAevUoE0DL'
p2330
sg8
S'Swang'
p2331
ssS'6mORGLOz79w6VsCRLWYYuK'
p2332
(dp2333
g3
S'Lord Huron'
p2334
sg5
I26
sg6
S'https://open.spotify.com/track/6mORGLOz79w6VsCRLWYYuK'
p2335
sg8
S'The Night We Met'
p2336
ssS'0fahA9dmQv3lASCRvmsmG7'
p2337
(dp2338
g3
S'Yzomandias'
p2339
sg5
I2
sg6
S'https://open.spotify.com/track/0fahA9dmQv3lASCRvmsmG7'
p2340
sg8
S'Vr\xc3\xa1na K Vr\xc3\xa1n\xc4\x9b (feat. Hasan)'
p2341
ssS'5aAx2yezTd8zXrkmtKl66Z'
p2342
(dp2343
g3
S'The Weeknd'
p2344
sg5
I40
sg6
S'https://open.spotify.com/track/5aAx2yezTd8zXrkmtKl66Z'
p2345
sg8
S'Starboy'
p2346
ssS'0T5jmrsHOyQszMTzAnhXJP'
p2347
(dp2348
g3
S'Viktor Sheen'
p2349
sg5
I3
sg6
S'https://open.spotify.com/track/0T5jmrsHOyQszMTzAnhXJP'
p2350
sg8
S'Kostry'
p2351
ssS'2BrzlUj1u1CtvaJDGIKpsP'
p2352
(dp2353
g3
S'Noah Cyrus'
p2354
sg5
I12
sg6
S'https://open.spotify.com/track/2BrzlUj1u1CtvaJDGIKpsP'
p2355
sg8
S'Make Me (Cry)'
p2356
ssS'1SJtlNRJDeYHioymcvsqev'
p2357
(dp2358
g3
S'Camila Cabello'
p2359
sg5
I21
sg6
S'https://open.spotify.com/track/1SJtlNRJDeYHioymcvsqev'
p2360
sg8
S'Crying in the Club'
p2361
ssS'0Wv5wuenRLI3BcwgT3HPIP'
p2362
(dp2363
g3
S'DJ Snake'
p2364
sg5
I3
sg6
S'https://open.spotify.com/track/0Wv5wuenRLI3BcwgT3HPIP'
p2365
sg8
S'A Different Way (with Lauv)'
p2366
ssS'04DwTuZ2VBdJCCC5TROn7L'
p2367
(dp2368
g3
S'Martin Garrix'
p2369
sg5
I42
sg6
S'https://open.spotify.com/track/04DwTuZ2VBdJCCC5TROn7L'
p2370
sg8
S'In the Name of Love'
p2371
ssS'0m2orA1i5lLZUOt9XLwSd0'
p2372
(dp2373
g3
S'Fifth Harmony'
p2374
sg5
I1
sg6
S'https://open.spotify.com/track/0m2orA1i5lLZUOt9XLwSd0'
p2375
sg8
S'He Like That'
p2376
ssS'6tt0QkZlKcP85Tx5F3baO6'
p2377
(dp2378
g3
S'Halloran & Kate'
p2379
sg5
I1
sg6
S'https://open.spotify.com/track/6tt0QkZlKcP85Tx5F3baO6'
p2380
sg8
S'Weak - Boonz Tropical Remix'
p2381
ssS'4JAyIDXOqNM6qHuZML01uX'
p2382
(dp2383
g3
g442
sg5
I1
sg6
S'https://open.spotify.com/track/4JAyIDXOqNM6qHuZML01uX'
p2384
sg8
g442
ssS'5NSqv9B3C3476pLaFmwJm1'
p2385
(dp2386
g3
S'Yzomandias'
p2387
sg5
I5
sg6
S'https://open.spotify.com/track/5NSqv9B3C3476pLaFmwJm1'
p2388
sg8
S'Aztmj (feat. Robin Zoot)'
p2389
ssS'56fCI6qlI3HOE2rjp9SKAm'
p2390
(dp2391
g3
S'Marcus & Martinus'
p2392
sg5
I1
sg6
S'https://open.spotify.com/track/56fCI6qlI3HOE2rjp9SKAm'
p2393
sg8
S'Like It Like It'
p2394
ssS'6SznMYPQJHzr3IwsAHLId2'
p2395
(dp2396
g3
S'Ed Sheeran'
p2397
sg5
I5
sg6
S'https://open.spotify.com/track/6SznMYPQJHzr3IwsAHLId2'
p2398
sg8
S'Bibia Be Ye Ye'
p2399
ssS'2Za1AlJNvksouPPWbXpR2X'
p2400
(dp2401
g3
S'Macklemore'
p2402
sg5
I3
sg6
S'https://open.spotify.com/track/2Za1AlJNvksouPPWbXpR2X'
p2403
sg8
S'Good Old Days (feat. Kesha)'
p2404
ssS'46NBoIAHrmR7qcUGCIFEjR'
p2405
(dp2406
g3
S'David Guetta'
p2407
sg5
I3
sg6
S'https://open.spotify.com/track/46NBoIAHrmR7qcUGCIFEjR'
p2408
sg8
S"This One's For You (feat. Zara Larsson) - Official Song UEFA EURO 2016"
p2409
ssS'56MJIxgJAYjdUKEe6FGBei'
p2410
(dp2411
g3
S'Ben Cristovao'
p2412
sg5
I5
sg6
S'https://open.spotify.com/track/56MJIxgJAYjdUKEe6FGBei'
p2413
sg8
S'V\xc3\xbdhled'
p2414
ssS'2H6dHxAxGq5oQ9EiinNpXT'
p2415
(dp2416
g3
S'The Strumbellas'
p2417
sg5
I5
sg6
S'https://open.spotify.com/track/2H6dHxAxGq5oQ9EiinNpXT'
p2418
sg8
S'Spirits'
p2419
ssS'0hFJbq9BugegnbxberNRHQ'
p2420
(dp2421
g3
S'Annet Charitonov\xc3\xa1'
p2422
sg5
I5
sg6
S'https://open.spotify.com/track/0hFJbq9BugegnbxberNRHQ'
p2423
sg8
S'Taktomabyt'
p2424
ssS'5egqKwgK5r5rvGD1LrtR7J'
p2425
(dp2426
g3
S'Linkin Park'
p2427
sg5
I1
sg6
S'https://open.spotify.com/track/5egqKwgK5r5rvGD1LrtR7J'
p2428
sg8
S'Points Of Authority'
p2429
ssS'1eyrmeiDpdTkOmA839nPVQ'
p2430
(dp2431
g3
S'Robin Schulz'
p2432
sg5
I2
sg6
S'https://open.spotify.com/track/1eyrmeiDpdTkOmA839nPVQ'
p2433
sg8
S'Shed a Light'
p2434
ssS'0sZfuG1rArPovx9CdZ40vZ'
p2435
(dp2436
g3
S'Tove Styrke'
p2437
sg5
I1
sg6
S'https://open.spotify.com/track/0sZfuG1rArPovx9CdZ40vZ'
p2438
sg8
S'Mistakes'
p2439
ssS'5UJshy5HDHdNEVqlJwzsQB'
p2440
(dp2441
g3
S'Bruno Mars'
p2442
sg5
I2
sg6
S'https://open.spotify.com/track/5UJshy5HDHdNEVqlJwzsQB'
p2443
sg8
S'Versace On The Floor (Bruno Mars vs. David Guetta)'
p2444
ssS'6K3ZFmdKfpPweNyWRgAW4S'
p2445
(dp2446
g3
S'Nik Tendo'
p2447
sg5
I3
sg6
S'https://open.spotify.com/track/6K3ZFmdKfpPweNyWRgAW4S'
p2448
sg8
S'Most Wanted (feat. Yzomandias)'
p2449
ssS'5pYvnF2XIAKIWimjFBtGoT'
p2450
(dp2451
g3
S'Pavel Callta'
p2452
sg5
I13
sg6
S'https://open.spotify.com/track/5pYvnF2XIAKIWimjFBtGoT'
p2453
sg8
S'Pisem si svuj sen - feat. Leos Mares'
p2454
ssS'6eGMMPRVYzpssGgednRvzU'
p2455
(dp2456
g3
S'Lana Del Rey'
p2457
sg5
I1
sg6
S'https://open.spotify.com/track/6eGMMPRVYzpssGgednRvzU'
p2458
sg8
S'Cherry'
p2459
ssS'1n4jwRVXdkK2U34nBDUKKT'
p2460
(dp2461
g3
S'Kendrick Lamar'
p2462
sg5
I1
sg6
S'https://open.spotify.com/track/1n4jwRVXdkK2U34nBDUKKT'
p2463
sg8
S'BLOOD.'
p2464
ssS'7ynCQo1KpBOyTdTdAnjSLZ'
p2465
(dp2466
g3
S'Sia'
p2467
sg5
I1
sg6
S'https://open.spotify.com/track/7ynCQo1KpBOyTdTdAnjSLZ'
p2468
sg8
S'Move Your Body - Single Mix'
p2469
ssS'1sYSP7gKa5kdKIfhANfori'
p2470
(dp2471
g3
S'MAX'
p2472
sg5
I13
sg6
S'https://open.spotify.com/track/1sYSP7gKa5kdKIfhANfori'
p2473
sg8
S'Lights Down Low'
p2474
ssS'5Ohxk2dO5COHF1krpoPigN'
p2475
(dp2476
g3
S'Harry Styles'
p2477
sg5
I27
sg6
S'https://open.spotify.com/track/5Ohxk2dO5COHF1krpoPigN'
p2478
sg8
S'Sign of the Times'
p2479
ssS'7uKSil5r7uHexnM9lukPTc'
p2480
(dp2481
g3
S'Macklemore'
p2482
sg5
I1
sg6
S'https://open.spotify.com/track/7uKSil5r7uHexnM9lukPTc'
p2483
sg8
S'Willy Wonka (feat. Offset)'
p2484
ssS'6O85MfGECKBqAK2MgSbCaj'
p2485
(dp2486
g3
S'Martin Solveig'
p2487
sg5
I18
sg6
S'https://open.spotify.com/track/6O85MfGECKBqAK2MgSbCaj'
p2488
sg8
S'Places'
p2489
ssS'7FCfMXYTIiQ9b4hDYs4Iol'
p2490
(dp2491
g3
S'Dua Lipa'
p2492
sg5
I14
sg6
S'https://open.spotify.com/track/7FCfMXYTIiQ9b4hDYs4Iol'
p2493
sg8
S'Be The One'
p2494
ssS'4JqJofEjChNytY6MMTJsi7'
p2495
(dp2496
g3
S'Hearts & Colors'
p2497
sg5
I1
sg6
S'https://open.spotify.com/track/4JqJofEjChNytY6MMTJsi7'
p2498
sg8
S'Shame'
p2499
ssS'4mxWSdf71VFO52qFeY0fZt'
p2500
(dp2501
g3
S'Maroon 5'
p2502
sg5
I6
sg6
S'https://open.spotify.com/track/4mxWSdf71VFO52qFeY0fZt'
p2503
sg8
S'What Lovers Do (feat. SZA)'
p2504
ssS'1ADjWm8QNhgNV8yCNNgQ1T'
p2505
(dp2506
g3
S'Ariana Grande'
p2507
sg5
I1
sg6
S'https://open.spotify.com/track/1ADjWm8QNhgNV8yCNNgQ1T'
p2508
sg8
S'Santa Tell Me'
p2509
ssS'4Hf7WnR761jpxPr5D46Bcd'
p2510
(dp2511
g3
S'Shawn Mendes'
p2512
sg5
I42
sg6
S'https://open.spotify.com/track/4Hf7WnR761jpxPr5D46Bcd'
p2513
sg8
S'Treat You Better'
p2514
ssS'3AEZUABDXNtecAOSC1qTfo'
p2515
(dp2516
g3
S'CNCO'
p2517
sg5
I6
sg6
S'https://open.spotify.com/track/3AEZUABDXNtecAOSC1qTfo'
p2518
sg8
S'Reggaet\xc3\xb3n Lento (Bailemos)'
p2519
ssS'4Z1fbYp0HuxLBje4MOZcSD'
p2520
(dp2521
g3
S'The Beatles'
p2522
sg5
I1
sg6
S'https://open.spotify.com/track/4Z1fbYp0HuxLBje4MOZcSD'
p2523
sg8
S'Twist And Shout - Remastered 2009'
p2524
ssS'4mq14Qa6OehdiyZFtHcdCH'
p2525
(dp2526
g3
S'Lana Del Rey'
p2527
sg5
I1
sg6
S'https://open.spotify.com/track/4mq14Qa6OehdiyZFtHcdCH'
p2528
sg8
S'13 Beaches'
p2529
ssS'0dXNQ8dckG4eYfEtq9zcva'
p2530
(dp2531
g3
S'The Vamps'
p2532
sg5
I1
sg6
S'https://open.spotify.com/track/0dXNQ8dckG4eYfEtq9zcva'
p2533
sg8
S'All Night'
p2534
ssS'5AE6VJEZFAjFEX7zMOnjrW'
p2535
(dp2536
g3
S'DJ Wich'
p2537
sg5
I8
sg6
S'https://open.spotify.com/track/5AE6VJEZFAjFEX7zMOnjrW'
p2538
sg8
S'Tma (feat. Viktor Sheen)'
p2539
ssS'1Tt4sE4pXi57mTD1GCzsqm'
p2540
(dp2541
g3
S'Rihanna'
p2542
sg5
I4
sg6
S'https://open.spotify.com/track/1Tt4sE4pXi57mTD1GCzsqm'
p2543
sg8
S'Needed Me'
p2544
ssS'3CJvmtWw2bJsudbAC5uCQk'
p2545
(dp2546
g3
S'Selena Gomez'
p2547
sg5
I2
sg6
S'https://open.spotify.com/track/3CJvmtWw2bJsudbAC5uCQk'
p2548
sg8
S'Hands To Myself'
p2549
ssS'6qPI3aH7jpx8dQ6UwQ2dX4'
p2550
(dp2551
g3
S'Gladys Knight & The Pips'
p2552
sg5
I1
sg6
S'https://open.spotify.com/track/6qPI3aH7jpx8dQ6UwQ2dX4'
p2553
sg8
S'When a Child Is Born (Soleado)'
p2554
ssS'3ItptgD9sIYajMFljaULtH'
p2555
(dp2556
g3
S'Ben Cristovao'
p2557
sg5
I2
sg6
S'https://open.spotify.com/track/3ItptgD9sIYajMFljaULtH'
p2558
sg8
S'Nejlep\xc5\xa1\xc3\xad'
p2559
ssS'2zYzyRzz6pRmhPzyfMEC8s'
p2560
(dp2561
g3
S'AC/DC'
p2562
sg5
I6
sg6
S'https://open.spotify.com/track/2zYzyRzz6pRmhPzyfMEC8s'
p2563
sg8
S'Highway to Hell'
p2564
ssS'1MksGqIztTT6M9R1ErKVs8'
p2565
(dp2566
g3
S'Big Sean'
p2567
sg5
I2
sg6
S'https://open.spotify.com/track/1MksGqIztTT6M9R1ErKVs8'
p2568
sg8
S'No Favors'
p2569
ssS'1EaKU4dMbesXXd3BrLCtYG'
p2570
(dp2571
g3
S'Kendrick Lamar'
p2572
sg5
I4
sg6
S'https://open.spotify.com/track/1EaKU4dMbesXXd3BrLCtYG'
p2573
sg8
S'ELEMENT.'
p2574
ssS'5ysL31dJXdNK1OCI5Hlqe7'
p2575
(dp2576
g3
S'Welshly Arms'
p2577
sg5
I7
sg6
S'https://open.spotify.com/track/5ysL31dJXdNK1OCI5Hlqe7'
p2578
sg8
S'Legendary'
p2579
ssS'7xHWNBFm6ObGEQPaUxHuKO'
p2580
(dp2581
g3
S'Sia'
p2582
sg5
I18
sg6
S'https://open.spotify.com/track/7xHWNBFm6ObGEQPaUxHuKO'
p2583
sg8
S'The Greatest'
p2584
ssS'2Inz7gGPGgieN0CTw9TOOs'
p2585
(dp2586
g3
S'JP Cooper'
p2587
sg5
I1
sg6
S'https://open.spotify.com/track/2Inz7gGPGgieN0CTw9TOOs'
p2588
sg8
S'September Song'
p2589
ssS'5knuzwU65gJK7IF5yJsuaW'
p2590
(dp2591
g3
S'Clean Bandit'
p2592
sg5
I42
sg6
S'https://open.spotify.com/track/5knuzwU65gJK7IF5yJsuaW'
p2593
sg8
S'Rockabye (feat. Sean Paul & Anne-Marie)'
p2594
ssS'7aF09WaavZAmAWuUeYxlYD'
p2595
(dp2596
g3
S'OneRepublic'
p2597
sg5
I13
sg6
S'https://open.spotify.com/track/7aF09WaavZAmAWuUeYxlYD'
p2598
sg8
S'Rich Love (with Seeb)'
p2599
ssS'3bWAqKDWg6u1davspr5IkS'
p2600
(dp2601
g3
S'Robin Schulz'
p2602
sg5
I21
sg6
S'https://open.spotify.com/track/3bWAqKDWg6u1davspr5IkS'
p2603
sg8
S'OK'
p2604
ssS'14WWzenpaEgQZlqPq2nk4v'
p2605
(dp2606
g3
S'Rihanna'
p2607
sg5
I3
sg6
S'https://open.spotify.com/track/14WWzenpaEgQZlqPq2nk4v'
p2608
sg8
S'Work'
p2609
ssS'4tHqQMWSqmL6YjXwsqthDI'
p2610
(dp2611
g3
S'Mykola Dmytrovych Leontovych'
p2612
sg5
I1
sg6
S'https://open.spotify.com/track/4tHqQMWSqmL6YjXwsqthDI'
p2613
sg8
S'Carol of the Bells'
p2614
ssS'36YCdzT57us0LhDmCYtrNE'
p2615
(dp2616
g3
S'The Weeknd'
p2617
sg5
I1
sg6
S'https://open.spotify.com/track/36YCdzT57us0LhDmCYtrNE'
p2618
sg8
S'Rockin\xe2\x80\x99'
p2619
ssS'6b8Be6ljOzmkOmFslEb23P'
p2620
(dp2621
g3
S'Bruno Mars'
p2622
sg5
I18
sg6
S'https://open.spotify.com/track/6b8Be6ljOzmkOmFslEb23P'
p2623
sg8
S'24K Magic'
p2624
ssS'1IF5UcqRO42D12vYwceOY6'
p2625
(dp2626
g3
S'Harry Styles'
p2627
sg5
I1
sg6
S'https://open.spotify.com/track/1IF5UcqRO42D12vYwceOY6'
p2628
sg8
S'From the Dining Table'
p2629
ssS'4uFfxAJQ9M4lEq85Lb5aBW'
p2630
(dp2631
g3
S'Viktor Sheen'
p2632
sg5
I1
sg6
S'https://open.spotify.com/track/4uFfxAJQ9M4lEq85Lb5aBW'
p2633
sg8
S'Frekvence'
p2634
ssS'0yhPEz5KxlDwckGJaMlZqM'
p2635
(dp2636
g3
S'Fall Out Boy'
p2637
sg5
I2
sg6
S'https://open.spotify.com/track/0yhPEz5KxlDwckGJaMlZqM'
p2638
sg8
S'Centuries'
p2639
ssS'6Ep6BzIOB9tz3P4sWqiiAB'
p2640
(dp2641
g3
S'Imagine Dragons'
p2642
sg5
I42
sg6
S'https://open.spotify.com/track/6Ep6BzIOB9tz3P4sWqiiAB'
p2643
sg8
S'Radioactive'
p2644
ssS'7cQMJ0wDqVS5iM0JIvP6Ay'
p2645
(dp2646
g3
S'Fall Out Boy'
p2647
sg5
I4
sg6
S'https://open.spotify.com/track/7cQMJ0wDqVS5iM0JIvP6Ay'
p2648
sg8
S'The Last Of The Real Ones'
p2649
ssS'3d9JucRI60arArgQXqtfjJ'
p2650
(dp2651
g3
S'Alesso'
p2652
sg5
I4
sg6
S'https://open.spotify.com/track/3d9JucRI60arArgQXqtfjJ'
p2653
sg8
S'Falling'
p2654
ssS'5UizfcYOo1vEphlELALNka'
p2655
(dp2656
g3
S'Renne Dang'
p2657
sg5
I1
sg6
S'https://open.spotify.com/track/5UizfcYOo1vEphlELALNka'
p2658
sg8
S'Cvak'
p2659
ssS'4PE1WEQB9aezA9aRV7gWRz'
p2660
(dp2661
g3
S'Paulie Garand'
p2662
sg5
I2
sg6
S'https://open.spotify.com/track/4PE1WEQB9aezA9aRV7gWRz'
p2663
sg8
S'Nirvana'
p2664
ssS'4so0Wek9Ig1p6CRCHuINwW'
p2665
(dp2666
g3
S'Bing Crosby'
p2667
sg5
I1
sg6
S'https://open.spotify.com/track/4so0Wek9Ig1p6CRCHuINwW'
p2668
sg8
S'White Christmas'
p2669
ssS'4u9Y4Z9i9VaAbBK7rW1Rha'
p2670
(dp2671
g3
S'Harry Styles'
p2672
sg5
I1
sg6
S'https://open.spotify.com/track/4u9Y4Z9i9VaAbBK7rW1Rha'
p2673
sg8
S'Meet Me in the Hallway'
p2674
ssS'23luOrEVHMfoX0AhfbQuS6'
p2675
(dp2676
g3
S'Kendrick Lamar'
p2677
sg5
I1
sg6
S'https://open.spotify.com/track/23luOrEVHMfoX0AhfbQuS6'
p2678
sg8
S'FEAR.'
p2679
ssS'458ESscRcqCVX1xbllEmPn'
p2680
(dp2681
g3
S'NEIKED'
p2682
sg5
I1
sg6
S'https://open.spotify.com/track/458ESscRcqCVX1xbllEmPn'
p2683
sg8
S'Call Me'
p2684
ssS'5DA77EqppDmCTWGovd4oTP'
p2685
(dp2686
g3
S'Cheat Codes'
p2687
sg5
I10
sg6
S'https://open.spotify.com/track/5DA77EqppDmCTWGovd4oTP'
p2688
sg8
S'Sex'
p2689
ssS'60rvB3iatTs9yP8XIQMd0Y'
p2690
(dp2691
g3
S'DeeThane'
p2692
sg5
I4
sg6
S'https://open.spotify.com/track/60rvB3iatTs9yP8XIQMd0Y'
p2693
sg8
S'Zdvo\xc5\x99il\xc3\xbd Gangster'
p2694
ssS'29Xp9qXcl1LBpGMFtfUZ4O'
p2695
(dp2696
g3
S'Junge Junge'
p2697
sg5
I6
sg6
S'https://open.spotify.com/track/29Xp9qXcl1LBpGMFtfUZ4O'
p2698
sg8
S'Run Run Run'
p2699
ssS'4h90qkbnW1Qq6pBhoPvwko'
p2700
(dp2701
g3
S'The Weeknd'
p2702
sg5
I2
sg6
S'https://open.spotify.com/track/4h90qkbnW1Qq6pBhoPvwko'
p2703
sg8
S'Sidewalks'
p2704
ssS'6HZILIRieu8S0iqY8kIKhj'
p2705
(dp2706
g3
S'Kendrick Lamar'
p2707
sg5
I14
sg6
S'https://open.spotify.com/track/6HZILIRieu8S0iqY8kIKhj'
p2708
sg8
S'DNA.'
p2709
ssS'2A17f6I4fh6GqYX0J8noGr'
p2710
(dp2711
g3
S'Ed Sheeran'
p2712
sg5
I5
sg6
S'https://open.spotify.com/track/2A17f6I4fh6GqYX0J8noGr'
p2713
sg8
S'Galway Girl - Martin Jensen Remix'
p2714
ssS'37rXzyNXedHoCRluAKE3Yh'
p2715
(dp2716
g3
S'LYSA'
p2717
sg5
I1
sg6
S'https://open.spotify.com/track/37rXzyNXedHoCRluAKE3Yh'
p2718
sg8
S'Beats And Battle Drums'
p2719
ssS'4gqMQftUs22F8pOGVn5Acr'
p2720
(dp2721
g3
S'Shawn Hook'
p2722
sg5
I9
sg6
S'https://open.spotify.com/track/4gqMQftUs22F8pOGVn5Acr'
p2723
sg8
S'Reminding Me'
p2724
ssS'7F9vK8hNFMml4GtHsaXui6'
p2725
(dp2726
g3
S'Louis Tomlinson'
p2727
sg5
I12
sg6
S'https://open.spotify.com/track/7F9vK8hNFMml4GtHsaXui6'
p2728
sg8
S'Back to You (feat. Bebe Rexha & Digital Farm Animals)'
p2729
ssS'5u9SlTV7leZFNpE7ukfE6F'
p2730
(dp2731
g3
S'D\xc4\x9btsk\xc3\xbd sbor Camerata'
p2732
sg5
I1
sg6
S'https://open.spotify.com/track/5u9SlTV7leZFNpE7ukfE6F'
p2733
sg8
S'J\xc3\xa1 bych r\xc3\xa1d k Betl\xc3\xa9mu'
p2734
ssS'11Fo4dAH31K7UZHGqCkCmE'
p2735
(dp2736
g3
S'Axwell /\\ Ingrosso'
p2737
sg5
I16
sg6
S'https://open.spotify.com/track/11Fo4dAH31K7UZHGqCkCmE'
p2738
sg8
S'I Love You'
p2739
ssS'0z1CMKaMiADrQHYMkZY2Tq'
p2740
(dp2741
g3
S'Viktor Sheen'
p2742
sg5
I2
sg6
S'https://open.spotify.com/track/0z1CMKaMiADrQHYMkZY2Tq'
p2743
sg8
S'Soriyako'
p2744
ssS'7yq4Qj7cqayVTp3FF9CWbm'
p2745
(dp2746
g3
S'Vance Joy'
p2747
sg5
I18
sg6
S'https://open.spotify.com/track/7yq4Qj7cqayVTp3FF9CWbm'
p2748
sg8
S'Riptide'
p2749
ssS'2H3ZUSE54pST4ubRd5FzFR'
p2750
(dp2751
g3
S'Marvin Gaye'
p2752
sg5
I11
sg6
S'https://open.spotify.com/track/2H3ZUSE54pST4ubRd5FzFR'
p2753
sg8
S"Ain't No Mountain High Enough"
p2754
ssS'0B48113ZG9UfkWWt7qD9xX'
p2755
(dp2756
g3
S'Miley Cyrus'
p2757
sg5
I3
sg6
S'https://open.spotify.com/track/0B48113ZG9UfkWWt7qD9xX'
p2758
sg8
S'Younger Now'
p2759
ssS'2EEeOnHehOozLq4aS0n6SL'
p2760
(dp2761
g3
S'KYLE'
p2762
sg5
I18
sg6
S'https://open.spotify.com/track/2EEeOnHehOozLq4aS0n6SL'
p2763
sg8
S'iSpy (feat. Lil Yachty)'
p2764
ssS'4Hvfm9oEs8pI2l7T9Vnhmr'
p2765
(dp2766
g3
S'DJ Wich'
p2767
sg5
I3
sg6
S'https://open.spotify.com/track/4Hvfm9oEs8pI2l7T9Vnhmr'
p2768
sg8
S'In\xc3\xa1 (feat. Elpe & Ego)'
p2769
ssS'2H3wWrnO758y0fPH7Ilerg'
p2770
(dp2771
g3
S'XXXTENTACION'
p2772
sg5
I1
sg6
S'https://open.spotify.com/track/2H3wWrnO758y0fPH7Ilerg'
p2773
sg8
S'Depression & Obsession'
p2774
ssS'7F1LWA9sIlTorHUo4amGqk'
p2775
(dp2776
g3
S'The Weeknd'
p2777
sg5
I1
sg6
S'https://open.spotify.com/track/7F1LWA9sIlTorHUo4amGqk'
p2778
sg8
S'Reminder - Remix'
p2779
ssS'6gpcs5eMhJwax4mIfKDYQk'
p2780
(dp2781
g3
S'Calvin Harris'
p2782
sg5
I4
sg6
S'https://open.spotify.com/track/6gpcs5eMhJwax4mIfKDYQk'
p2783
sg8
S'Slide'
p2784
ssS'3abKAw6reL2U3vhAe98ZsY'
p2785
(dp2786
g3
S'Julia Michaels'
p2787
sg5
I1
sg6
S'https://open.spotify.com/track/3abKAw6reL2U3vhAe98ZsY'
p2788
sg8
S'Issues - Alan Walker Remix'
p2789
ssS'0QsvXIfqM0zZoerQfsI9lm'
p2790
(dp2791
g3
S'The Chainsmokers'
p2792
sg5
I42
sg6
S'https://open.spotify.com/track/0QsvXIfqM0zZoerQfsI9lm'
p2793
sg8
S"Don't Let Me Down"
p2794
ssS'7w87IxuO7BDcJ3YUqCyMTT'
p2795
(dp2796
g3
S'Foster The People'
p2797
sg5
I10
sg6
S'https://open.spotify.com/track/7w87IxuO7BDcJ3YUqCyMTT'
p2798
sg8
S'Pumped Up Kicks'
p2799
ssS'1wpMaYV9V3Fwhv1VTCMWMZ'
p2800
(dp2801
g3
S'D\xc4\x9btsk\xc3\xbd sbor'
p2802
sg5
I1
sg6
S'https://open.spotify.com/track/1wpMaYV9V3Fwhv1VTCMWMZ'
p2803
sg8
S'Cht\xc3\xadc aby spal'
p2804
ssS'4qqArAiTPueDxIp7cf87h7'
p2805
(dp2806
g3
S'M\xc3\x98'
p2807
sg5
I16
sg6
S'https://open.spotify.com/track/4qqArAiTPueDxIp7cf87h7'
p2808
sg8
S'Final Song'
p2809
ssS'5hslUAKq9I9CG2bAulFkHN'
p2810
(dp2811
g3
S'Andy Williams'
p2812
sg5
I1
sg6
S'https://open.spotify.com/track/5hslUAKq9I9CG2bAulFkHN'
p2813
sg8
S"It's the Most Wonderful Time of the Year"
p2814
ssS'3Dwq1oiOFys6Sxr5SslmXw'
p2815
(dp2816
g3
S'Harry Styles'
p2817
sg5
I2
sg6
S'https://open.spotify.com/track/3Dwq1oiOFys6Sxr5SslmXw'
p2818
sg8
S'Carolina'
p2819
ssS'2nLtzopw4rPReszdYBJU6h'
p2820
(dp2821
g3
S'Linkin Park'
p2822
sg5
I34
sg6
S'https://open.spotify.com/track/2nLtzopw4rPReszdYBJU6h'
p2823
sg8
S'Numb'
p2824
ssS'2PpruBYCo4H7WOBJ7Q2EwM'
p2825
(dp2826
g3
S'OutKast'
p2827
sg5
I1
sg6
S'https://open.spotify.com/track/2PpruBYCo4H7WOBJ7Q2EwM'
p2828
sg8
S'Hey Ya! - Radio Mix / Club Mix'
p2829
ssS'4U9arGcc4ATa7shChhLQP0'
p2830
(dp2831
g3
S'Thirty Seconds To Mars'
p2832
sg5
I7
sg6
S'https://open.spotify.com/track/4U9arGcc4ATa7shChhLQP0'
p2833
sg8
S'Walk On Water'
p2834
ssS'3a1lNhkSLSkpJE4MSHpDu9'
p2835
(dp2836
g3
S'Post Malone'
p2837
sg5
I35
sg6
S'https://open.spotify.com/track/3a1lNhkSLSkpJE4MSHpDu9'
p2838
sg8
S'Congratulations'
p2839
ssS'1vWT2IkRfgNC1wUT0cNAKx'
p2840
(dp2841
g3
S'Viktor Sheen'
p2842
sg5
I1
sg6
S'https://open.spotify.com/track/1vWT2IkRfgNC1wUT0cNAKx'
p2843
sg8
S'Planeta Opic'
p2844
ssS'0dyiHoYbYjYaOEXLpmzQZG'
p2845
(dp2846
g3
S'Lorde'
p2847
sg5
I1
sg6
S'https://open.spotify.com/track/0dyiHoYbYjYaOEXLpmzQZG'
p2848
sg8
S'Supercut'
p2849
ssS'2EH0wgH1NGMJC5auYVlrf8'
p2850
(dp2851
g3
S'MikeJePan'
p2852
sg5
I2
sg6
S'https://open.spotify.com/track/2EH0wgH1NGMJC5auYVlrf8'
p2853
sg8
S'POHODA - v\xc3\xa1no\xc4\x8dn\xc3\xad koleda'
p2854
ssS'6yr8GiTHWvFfi4o6Q5ebdT'
p2855
(dp2856
g3
S'Eminem'
p2857
sg5
I42
sg6
S'https://open.spotify.com/track/6yr8GiTHWvFfi4o6Q5ebdT'
p2858
sg8
S"'Till I Collapse"
p2859
ssS'0U1bWpYC5uiUDX9ALasOvA'
p2860
(dp2861
g3
S'D\xc4\x9btsk\xc3\xbd sbor Camerata'
p2862
sg5
I1
sg6
S'https://open.spotify.com/track/0U1bWpYC5uiUDX9ALasOvA'
p2863
sg8
S'Jak jsi kr\xc3\xa1sn\xc3\xa9 nevi\xc5\x88\xc3\xa1tko'
p2864
ssS'2fkeWbM6iqTw7oGHTYm2lw'
p2865
(dp2866
g3
S'Drake'
p2867
sg5
I1
sg6
S'https://open.spotify.com/track/2fkeWbM6iqTw7oGHTYm2lw'
p2868
sg8
S'4422'
p2869
ssS'0ofbQMrRDsUaVKq2mGLEAb'
p2870
(dp2871
g3
S'Camila Cabello'
p2872
sg5
I10
sg6
S'https://open.spotify.com/track/0ofbQMrRDsUaVKq2mGLEAb'
p2873
sg8
S'Havana'
p2874
ssS'4vv1KjUzPwrtDbozizSfQc'
p2875
(dp2876
g3
S'DJ Khaled'
p2877
sg5
I1
sg6
S'https://open.spotify.com/track/4vv1KjUzPwrtDbozizSfQc'
p2878
sg8
S"Don't Quit"
p2879
ssS'6bLopGnirdrilrpdVB6Um1'
p2880
(dp2881
g3
S'Sia'
p2882
sg5
I7
sg6
S'https://open.spotify.com/track/6bLopGnirdrilrpdVB6Um1'
p2883
sg8
S'The Greatest'
p2884
ssS'6uJwPeBGb3swi85TSr9iIz'
p2885
(dp2886
g3
S'Coldplay'
p2887
sg5
I1
sg6
S'https://open.spotify.com/track/6uJwPeBGb3swi85TSr9iIz'
p2888
sg8
S'Miracles (Someone Special)'
p2889
ssS'31MkGwj0SWgZaTvEt5Hgxv'
p2890
(dp2891
g3
S'P!nk'
p2892
sg5
I9
sg6
S'https://open.spotify.com/track/31MkGwj0SWgZaTvEt5Hgxv'
p2893
sg8
S'What About Us'
p2894
ssS'2z5RYBnZ3wfN5n9eUKMw7L'
p2895
(dp2896
g3
S'PJAY CZ/SK'
p2897
sg5
I2
sg6
S'https://open.spotify.com/track/2z5RYBnZ3wfN5n9eUKMw7L'
p2898
sg8
S'BCKTS'
p2899
ssS'1vvNmPOiUuyCbgWmtc6yfm'
p2900
(dp2901
g3
S'Calvin Harris'
p2902
sg5
I35
sg6
S'https://open.spotify.com/track/1vvNmPOiUuyCbgWmtc6yfm'
p2903
sg8
S'My Way'
p2904
ssS'7DQXiMeLqiQsy1uqHSk0xc'
p2905
(dp2906
g3
S'Shawn Hook'
p2907
sg5
I3
sg6
S'https://open.spotify.com/track/7DQXiMeLqiQsy1uqHSk0xc'
p2908
sg8
S'Reminding Me'
p2909
ssS'3V9DfRoS7JfSkuTyNEsCxQ'
p2910
(dp2911
g3
S'Martin Jensen'
p2912
sg5
I4
sg6
S'https://open.spotify.com/track/3V9DfRoS7JfSkuTyNEsCxQ'
p2913
sg8
S'Wait'
p2914
ssS'60IkVf7UfQXmt5CwkpcX8a'
p2915
(dp2916
g3
S'Linkin Park'
p2917
sg5
I1
sg6
S'https://open.spotify.com/track/60IkVf7UfQXmt5CwkpcX8a'
p2918
sg8
S'From The Inside'
p2919
ssS'1Sl3njkhhz8nrSPZroDQ82'
p2920
(dp2921
g3
S'Dimitri Vegas & Like Mike'
p2922
sg5
I11
sg6
S'https://open.spotify.com/track/1Sl3njkhhz8nrSPZroDQ82'
p2923
sg8
S'Complicated (feat. Kiiara)'
p2924
ssS'5xMzazov0IHYllrc8U2K6F'
p2925
(dp2926
g3
S'Jennifer Lopez'
p2927
sg5
I4
sg6
S'https://open.spotify.com/track/5xMzazov0IHYllrc8U2K6F'
p2928
sg8
S'Ni T\xc3\xba Ni Yo'
p2929
ssS'57BrRMwf9LrcmuOsyGilwr'
p2930
(dp2931
g3
S'Linkin Park'
p2932
sg5
I3
sg6
S'https://open.spotify.com/track/57BrRMwf9LrcmuOsyGilwr'
p2933
sg8
S'Crawling'
p2934
ssS'0afhq8XCExXpqazXczTSve'
p2935
(dp2936
g3
S'Ed Sheeran'
p2937
sg5
I32
sg6
S'https://open.spotify.com/track/0afhq8XCExXpqazXczTSve'
p2938
sg8
S'Galway Girl'
p2939
ssS'2ZE3DJuizYTad2S4CvRRhK'
p2940
(dp2941
g3
S'Lauv'
p2942
sg5
I1
sg6
S'https://open.spotify.com/track/2ZE3DJuizYTad2S4CvRRhK'
p2943
sg8
S'Easy Love'
p2944
ssS'72S2txh7mwEI3WgeS6PcE0'
p2945
(dp2946
g3
S'Cavalier'
p2947
sg5
I1
sg6
S'https://open.spotify.com/track/72S2txh7mwEI3WgeS6PcE0'
p2948
sg8
S'Cht\xc4\x9bli By Ji M\xc3\xadt'
p2949
ssS'0VvwmisQKlu1zqmANZTrDb'
p2950
(dp2951
g3
S'Lenny'
p2952
sg5
I11
sg6
S'https://open.spotify.com/track/0VvwmisQKlu1zqmANZTrDb'
p2953
sg8
S'Hell.o'
p2954
ssS'1NDxZ7cFAo481dtYWdrUnR'
p2955
(dp2956
g3
S'Maggie Lindemann'
p2957
sg5
I28
sg6
S'https://open.spotify.com/track/1NDxZ7cFAo481dtYWdrUnR'
p2958
sg8
S'Pretty Girl - Cheat Codes X CADE Remix'
p2959
ssS'2aFiaMXmWsM3Vj72F9ksBl'
p2960
(dp2961
g3
S'DNCE'
p2962
sg5
I25
sg6
S'https://open.spotify.com/track/2aFiaMXmWsM3Vj72F9ksBl'
p2963
sg8
S'Cake By The Ocean'
p2964
ssS'152lZdxL1OR0ZMW6KquMif'
p2965
(dp2966
g3
S'Khalid'
p2967
sg5
I23
sg6
S'https://open.spotify.com/track/152lZdxL1OR0ZMW6KquMif'
p2968
sg8
S'Location'
p2969
ssS'2dOTkLZFbpNXrhc24CnTFd'
p2970
(dp2971
g3
S'David Guetta'
p2972
sg5
I1
sg6
S'https://open.spotify.com/track/2dOTkLZFbpNXrhc24CnTFd'
p2973
sg8
S'Titanium (feat. Sia) - feat. Sia'
p2974
ssS'4TZy1wLyHec06pwgFYDh1a'
p2975
(dp2976
g3
S'Shawn Mendes'
p2977
sg5
I41
sg6
S'https://open.spotify.com/track/4TZy1wLyHec06pwgFYDh1a'
p2978
sg8
S'Mercy'
p2979
ssS'79NlESqzFSW0hdBWgls4FX'
p2980
(dp2981
g3
S'Kesha'
p2982
sg5
I5
sg6
S'https://open.spotify.com/track/79NlESqzFSW0hdBWgls4FX'
p2983
sg8
S'Praying'
p2984
ssS'1HxvdVlvQH5NUPi1wsq5L1'
p2985
(dp2986
g3
S'Welshly Arms'
p2987
sg5
I4
sg6
S'https://open.spotify.com/track/1HxvdVlvQH5NUPi1wsq5L1'
p2988
sg8
S'Legendary'
p2989
ssS'4q8PHoRsPUB52LFylX8Ulz'
p2990
(dp2991
g3
S'Axwell /\\ Ingrosso'
p2992
sg5
I9
sg6
S'https://open.spotify.com/track/4q8PHoRsPUB52LFylX8Ulz'
p2993
sg8
S'More Than You Know'
p2994
ssS'3RXkboS74UYzN14xTqzPyY'
p2995
(dp2996
g3
g442
sg5
I1
sg6
S'https://open.spotify.com/track/3RXkboS74UYzN14xTqzPyY'
p2997
sg8
g442
ssS'4Q3N4Ct4zCuIHuZ65E3BD4'
p2998
(dp2999
g3
S'Kodak Black'
p3000
sg5
I2
sg6
S'https://open.spotify.com/track/4Q3N4Ct4zCuIHuZ65E3BD4'
p3001
sg8
S'Tunnel Vision'
p3002
ssS'20H2Hd5AkUcRjB4yL3UQtJ'
p3003
(dp3004
g3
S'Fifth Harmony'
p3005
sg5
I3
sg6
S'https://open.spotify.com/track/20H2Hd5AkUcRjB4yL3UQtJ'
p3006
sg8
S'Down'
p3007
ssS'3LncIWO9ghrVIltaNjdOp5'
p3008
(dp3009
g3
S'Ektor'
p3010
sg5
I14
sg6
S'https://open.spotify.com/track/3LncIWO9ghrVIltaNjdOp5'
p3011
sg8
S'Hled\xc3\xa1m Si Tu Pravou'
p3012
ssS'1FUViuNSldssMIawrOXF2i'
p3013
(dp3014
g3
S'Bebe Rexha'
p3015
sg5
I31
sg6
S'https://open.spotify.com/track/1FUViuNSldssMIawrOXF2i'
p3016
sg8
S'I Got You'
p3017
ssS'7ohDUXs6SsU3XjTI9pcKTS'
p3018
(dp3019
g3
S'LP'
p3020
sg5
I1
sg6
S'https://open.spotify.com/track/7ohDUXs6SsU3XjTI9pcKTS'
p3021
sg8
S"When We're High"
p3022
ssS'1kt4DlkW0BbgAXIVCeDg8o'
p3023
(dp3024
g3
S'Yzomandias'
p3025
sg5
I21
sg6
S'https://open.spotify.com/track/1kt4DlkW0BbgAXIVCeDg8o'
p3026
sg8
S'Holly Molly (feat. Lvcas Dope)'
p3027
ssS'0aeqKS6ZINIFIreJUv6Dw2'
p3028
(dp3029
g3
S'D\xc4\x9btsk\xc3\xbd sbor Camerata'
p3030
sg5
I1
sg6
S'https://open.spotify.com/track/0aeqKS6ZINIFIreJUv6Dw2'
p3031
sg8
S'Radostn\xc4\x9b budem zp\xc3\xadvat'
p3032
ssS'7z9fYY91viukL6MKPhWcON'
p3033
(dp3034
g3
S'Viktor Sheen'
p3035
sg5
I1
sg6
S'https://open.spotify.com/track/7z9fYY91viukL6MKPhWcON'
p3036
sg8
S'Vibe'
p3037
ssS'03hqMhmCZiNKMSPmVabPLP'
p3038
(dp3039
g3
S'Lana Del Rey'
p3040
sg5
I1
sg6
S'https://open.spotify.com/track/03hqMhmCZiNKMSPmVabPLP'
p3041
sg8
S'Groupie Love (feat. A$AP Rocky)'
p3042
ssS'3cNjgVBKTJ1SvKhunrCdVy'
p3043
(dp3044
g3
S'Joel Adams'
p3045
sg5
I16
sg6
S'https://open.spotify.com/track/3cNjgVBKTJ1SvKhunrCdVy'
p3046
sg8
S"Please Don't Go"
p3047
ssS'3BmjRmFTESgWZLPSVGp8aG'
p3048
(dp3049
g3
S'Linkin Park'
p3050
sg5
I1
sg6
S'https://open.spotify.com/track/3BmjRmFTESgWZLPSVGp8aG'
p3051
sg8
S'Lying From You'
p3052
ssS'6OuV4vfyb8v3vGGGksqyKf'
p3053
(dp3054
g3
S'AJR'
p3055
sg5
I2
sg6
S'https://open.spotify.com/track/6OuV4vfyb8v3vGGGksqyKf'
p3056
sg8
S'Weak'
p3057
ssS'2XKpEtHwo6soAhRfVt8WJ6'
p3058
(dp3059
g3
S'Calin'
p3060
sg5
I1
sg6
S'https://open.spotify.com/track/2XKpEtHwo6soAhRfVt8WJ6'
p3061
sg8
S'Med'
p3062
ssS'542Xd5qDeLBvgXZXhfW7LE'
p3063
(dp3064
g3
S'Vice'
p3065
sg5
I3
sg6
S'https://open.spotify.com/track/542Xd5qDeLBvgXZXhfW7LE'
p3066
sg8
S'Obsession (feat. Jon Bellion)'
p3067
ssS'4Q4jmPHwu0wrJvqrld0FQ6'
p3068
(dp3069
g3
S'Zara Larsson'
p3070
sg5
I14
sg6
S'https://open.spotify.com/track/4Q4jmPHwu0wrJvqrld0FQ6'
p3071
sg8
S'I Would Like'
p3072
ssS'6rQSrBHf7HlZjtcMZ4S4bO'
p3073
(dp3074
g3
S'J Balvin'
p3075
sg5
I1
sg6
S'https://open.spotify.com/track/6rQSrBHf7HlZjtcMZ4S4bO'
p3076
sg8
S'Safari'
p3077
ssS'7yyRTcZmCiyzzJlNzGC9Ol'
p3078
(dp3079
g3
S'DRAM'
p3080
sg5
I5
sg6
S'https://open.spotify.com/track/7yyRTcZmCiyzzJlNzGC9Ol'
p3081
sg8
S'Broccoli (feat. Lil Yachty)'
p3082
ssS'6JSryEdVJTZq6YBn3wK2sn'
p3083
(dp3084
g3
S'Foo Fighters'
p3085
sg5
I1
sg6
S'https://open.spotify.com/track/6JSryEdVJTZq6YBn3wK2sn'
p3086
sg8
S'Arrows'
p3087
ssS'3zHq9ouUJQFQRf3cm1rRLu'
p3088
(dp3089
g3
S'Ellie Goulding'
p3090
sg5
I4
sg6
S'https://open.spotify.com/track/3zHq9ouUJQFQRf3cm1rRLu'
p3091
sg8
S'Love Me Like You Do - From Fifty Shades Of Grey'
p3092
ssS'3B93qC9oACECVx8Txh0GPX'
p3093
(dp3094
g3
S'Renne Dang'
p3095
sg5
I1
sg6
S'https://open.spotify.com/track/3B93qC9oACECVx8Txh0GPX'
p3096
sg8
S'Jednou'
p3097
ssS'2Fjz5ZC5BvFdCqcnTZ3ilH'
p3098
(dp3099
g3
S'Alan Walker'
p3100
sg5
I12
sg6
S'https://open.spotify.com/track/2Fjz5ZC5BvFdCqcnTZ3ilH'
p3101
sg8
S'Sing Me to Sleep'
p3102
ssS'4ricyQVd20UQde1jpXCSuJ'
p3103
(dp3104
g3
S'Tony Bennett'
p3105
sg5
I1
sg6
S'https://open.spotify.com/track/4ricyQVd20UQde1jpXCSuJ'
p3106
sg8
S'Winter Wonderland'
p3107
ssS'2771LMNxwf62FTAdpJMQfM'
p3108
(dp3109
g3
S'Cardi B'
p3110
sg5
I8
sg6
S'https://open.spotify.com/track/2771LMNxwf62FTAdpJMQfM'
p3111
sg8
S'Bodak Yellow'
p3112
ssS'51Bpjq1BdQlS3V852vJCw7'
p3113
(dp3114
g3
S'Macklemore'
p3115
sg5
I1
sg6
S'https://open.spotify.com/track/51Bpjq1BdQlS3V852vJCw7'
p3116
sg8
S'Intentions (feat. Dan Caplen)'
p3117
ssS'1onfcprzpSGh2LqrBh17AA'
p3118
(dp3119
g3
S'The xx'
p3120
sg5
I1
sg6
S'https://open.spotify.com/track/1onfcprzpSGh2LqrBh17AA'
p3121
sg8
S'Lips'
p3122
ssS'51PIvodunv6NmX5250zxAh'
p3123
(dp3124
g3
S'Lady Gaga'
p3125
sg5
I13
sg6
S'https://open.spotify.com/track/51PIvodunv6NmX5250zxAh'
p3126
sg8
S'The Cure'
p3127
ssS'5LABCxgmP7DATATIJXOh6n'
p3128
(dp3129
g3
S'Harry Styles'
p3130
sg5
I1
sg6
S'https://open.spotify.com/track/5LABCxgmP7DATATIJXOh6n'
p3131
sg8
S'Ever Since New York'
p3132
ssS'5pvVAwQbuFoR7LkcicrKnk'
p3133
(dp3134
g3
S'Vice'
p3135
sg5
I12
sg6
S'https://open.spotify.com/track/5pvVAwQbuFoR7LkcicrKnk'
p3136
sg8
S'Obsession (feat. Jon Bellion)'
p3137
ssS'5ev0Z2lFzmhjlQCWpRAWiG'
p3138
(dp3139
g3
S'Sigala'
p3140
sg5
I21
sg6
S'https://open.spotify.com/track/5ev0Z2lFzmhjlQCWpRAWiG'
p3141
sg8
S'Only One - Radio Edit'
p3142
ssS'104buTcnP2AsxqB7U1FIZ4'
p3143
(dp3144
g3
S'Linkin Park'
p3145
sg5
I34
sg6
S'https://open.spotify.com/track/104buTcnP2AsxqB7U1FIZ4'
p3146
sg8
S'Heavy (feat. Kiiara)'
p3147
ssS'3hRZsdTF5uyGA2uhNqEuhm'
p3148
(dp3149
g3
S'Niall Horan'
p3150
sg5
I4
sg6
S'https://open.spotify.com/track/3hRZsdTF5uyGA2uhNqEuhm'
p3151
sg8
S'Too Much To Ask'
p3152
ssS'2GJe3VWibWUCqxdXLhA1xv'
p3153
(dp3154
g3
S'Ben Cristovao'
p3155
sg5
I8
sg6
S'https://open.spotify.com/track/2GJe3VWibWUCqxdXLhA1xv'
p3156
sg8
S'Posledn\xc3\xad'
p3157
ssS'3iAaExberFeJSKfsV2loCd'
p3158
(dp3159
g3
S'Kry\xc5\xa1tof'
p3160
sg5
I1
sg6
S'https://open.spotify.com/track/3iAaExberFeJSKfsV2loCd'
p3161
sg8
S'Z\xc5\xafsta\xc5\x88 tu se mnou (Za sny)'
p3162
ssS'43jBqV3j3Xi1g6wO0bhIMd'
p3163
(dp3164
g3
S'Sage The Gemini'
p3165
sg5
I11
sg6
S'https://open.spotify.com/track/43jBqV3j3Xi1g6wO0bhIMd'
p3166
sg8
S'Now and Later'
p3167
ssS'650OeHTLxZAQmb4aEbGmaA'
p3168
(dp3169
g3
S'Linkin Park'
p3170
sg5
I15
sg6
S'https://open.spotify.com/track/650OeHTLxZAQmb4aEbGmaA'
p3171
sg8
S'Good Goodbye (feat. Pusha T and Stormzy)'
p3172
ssS'1PSBzsahR2AKwLJgx8ehBj'
p3173
(dp3174
g3
S'Machine Gun Kelly'
p3175
sg5
I23
sg6
S'https://open.spotify.com/track/1PSBzsahR2AKwLJgx8ehBj'
p3176
sg8
S'Bad Things (with Camila Cabello)'
p3177
ssS'53mrVsi49rLHIaKBiSvElG'
p3178
(dp3179
g3
S'blackbear'
p3180
sg5
I10
sg6
S'https://open.spotify.com/track/53mrVsi49rLHIaKBiSvElG'
p3181
sg8
S'do re mi (feat. Gucci Mane)'
p3182
ssS'7KOlJ92bu51cltsD9KU5I7'
p3183
(dp3184
g3
S'Migos'
p3185
sg5
I5
sg6
S'https://open.spotify.com/track/7KOlJ92bu51cltsD9KU5I7'
p3186
sg8
S'T-Shirt'
p3187
ssS'0D8ZpOXVjapLXrjz5VfZSD'
p3188
(dp3189
g3
S'Sam Smith'
p3190
sg5
I1
sg6
S'https://open.spotify.com/track/0D8ZpOXVjapLXrjz5VfZSD'
p3191
sg8
S'Pray'
p3192
ssS'1My0Hfu5dTCbYisBk9ZRGr'
p3193
(dp3194
g3
S'Galantis'
p3195
sg5
I4
sg6
S'https://open.spotify.com/track/1My0Hfu5dTCbYisBk9ZRGr'
p3196
sg8
S'Hunter'
p3197
ssS'6MDnIl9Cer85wIGDFFSUxP'
p3198
(dp3199
g3
S'Mandrage'
p3200
sg5
I2
sg6
S'https://open.spotify.com/track/6MDnIl9Cer85wIGDFFSUxP'
p3201
sg8
S'Travolta'
p3202
ssS'3kMNvdUIubKSlHvSTrMivo'
p3203
(dp3204
g3
S'Johny Machette'
p3205
sg5
I1
sg6
S'https://open.spotify.com/track/3kMNvdUIubKSlHvSTrMivo'
p3206
sg8
S'Vanocni (feat. Teri Blitzen)'
p3207
ssS'3SGWp9fJCzgK0WcpcKSQdy'
p3208
(dp3209
g3
S'Stanaj'
p3210
sg5
I16
sg6
S'https://open.spotify.com/track/3SGWp9fJCzgK0WcpcKSQdy'
p3211
sg8
S'Romantic - NOTD Remix'
p3212
ssS'2Vhd5uZB4brKHmM0MNxkZo'
p3213
(dp3214
g3
S'Kygo'
p3215
sg5
I11
sg6
S'https://open.spotify.com/track/2Vhd5uZB4brKHmM0MNxkZo'
p3216
sg8
S'Raging'
p3217
ssS'1Vej0qeQ3ioKwpI6FUbRv1'
p3218
(dp3219
g3
S'Linkin Park'
p3220
sg5
I1
sg6
S'https://open.spotify.com/track/1Vej0qeQ3ioKwpI6FUbRv1'
p3221
sg8
S'Papercut'
p3222
ssS'4C5ewaZ05vyXM23jFJdwd4'
p3223
(dp3224
g3
S'Halsey'
p3225
sg5
I1
sg6
S'https://open.spotify.com/track/4C5ewaZ05vyXM23jFJdwd4'
p3226
sg8
S'Strangers'
p3227
ssS'661bbtA19xopO3lH0J4Qvr'
p3228
(dp3229
g3
S'The xx'
p3230
sg5
I1
sg6
S'https://open.spotify.com/track/661bbtA19xopO3lH0J4Qvr'
p3231
sg8
S'A Violent Noise'
p3232
ssS'3ebXMykcMXOcLeJ9xZ17XH'
p3233
(dp3234
g3
S'Martin Garrix'
p3235
sg5
I37
sg6
S'https://open.spotify.com/track/3ebXMykcMXOcLeJ9xZ17XH'
p3236
sg8
S'Scared to Be Lonely'
p3237
ssS'6fujklziTHa8uoM5OQSfIo'
p3238
(dp3239
g3
S'Rae Sremmurd'
p3240
sg5
I21
sg6
S'https://open.spotify.com/track/6fujklziTHa8uoM5OQSfIo'
p3241
sg8
S'Black Beatles'
p3242
ssS'7KxhSJOYiqCDclXDBNlFSZ'
p3243
(dp3244
g3
S'Selena Gomez'
p3245
sg5
I10
sg6
S'https://open.spotify.com/track/7KxhSJOYiqCDclXDBNlFSZ'
p3246
sg8
S'Kill Em With Kindness'
p3247
ssS'2JKESXARvGZkVpmhZ2NxrF'
p3248
(dp3249
g3
S'Renne Dang'
p3250
sg5
I2
sg6
S'https://open.spotify.com/track/2JKESXARvGZkVpmhZ2NxrF'
p3251
sg8
S'Priority'
p3252
ssS'12ICn4rnCpjHspEXrlc5ex'
p3253
(dp3254
g3
S'Renne Dang'
p3255
sg5
I2
sg6
S'https://open.spotify.com/track/12ICn4rnCpjHspEXrlc5ex'
p3256
sg8
S'Nepochopen'
p3257
ssS'6UjfByV1lDLW0SOVQA4NAi'
p3258
(dp3259
g3
S'Drake'
p3260
sg5
I2
sg6
S'https://open.spotify.com/track/6UjfByV1lDLW0SOVQA4NAi'
p3261
sg8
S'Gyalchester'
p3262
ssS'6XoT947MA4YP2L1eF6EQTE'
p3263
(dp3264
g3
S'Renne Dang'
p3265
sg5
I2
sg6
S'https://open.spotify.com/track/6XoT947MA4YP2L1eF6EQTE'
p3266
sg8
S'Schody'
p3267
ssS'3PEgB3fkiojxms35ntsTgs'
p3268
(dp3269
g3
S'Axwell /\\ Ingrosso'
p3270
sg5
I11
sg6
S'https://open.spotify.com/track/3PEgB3fkiojxms35ntsTgs'
p3271
sg8
S'More Than You Know'
p3272
ssS'7oVEtyuv9NBmnytsCIsY5I'
p3273
(dp3274
g3
S'Linkin Park'
p3275
sg5
I2
sg6
S'https://open.spotify.com/track/7oVEtyuv9NBmnytsCIsY5I'
p3276
sg8
S'BURN IT DOWN'
p3277
ssS'0Clb9aiXWa0dvVff5aN4VN'
p3278
(dp3279
g3
S'Astrid S'
p3280
sg5
I2
sg6
S'https://open.spotify.com/track/0Clb9aiXWa0dvVff5aN4VN'
p3281
sg8
S'Think Before I Talk'
p3282
ssS'6k0FFbdikaefJGV2443iNv'
p3283
(dp3284
g3
S'LP'
p3285
sg5
I1
sg6
S'https://open.spotify.com/track/6k0FFbdikaefJGV2443iNv'
p3286
sg8
S'Muddy Waters'
p3287
ssS'6CfrYuD3YRDYdYvH9jNtXY'
p3288
(dp3289
g3
S'Drake'
p3290
sg5
I1
sg6
S'https://open.spotify.com/track/6CfrYuD3YRDYdYvH9jNtXY'
p3291
sg8
S'No Long Talk'
p3292
ssS'6SUocL0caib4mLHe8ZrZzi'
p3293
(dp3294
g3
S'Rudimental'
p3295
sg5
I15
sg6
S'https://open.spotify.com/track/6SUocL0caib4mLHe8ZrZzi'
p3296
sg8
S'Sun Comes Up'
p3297
ssS'1XRTXNP8eLpWXfso8Q4dC5'
p3298
(dp3299
g3
S'Mike Perry'
p3300
sg5
I3
sg6
S'https://open.spotify.com/track/1XRTXNP8eLpWXfso8Q4dC5'
p3301
sg8
S'Talk About It'
p3302
ssS'5vFshmrfuOng89bVtW33J9'
p3303
(dp3304
g3
S'Foo Fighters'
p3305
sg5
I1
sg6
S'https://open.spotify.com/track/5vFshmrfuOng89bVtW33J9'
p3306
sg8
S'The Sky Is A Neighborhood'
p3307
ssS'48nNnmvzt0ODM90fHBpxrg'
p3308
(dp3309
g3
S'D\xc4\x9btsk\xc3\xbd sbor'
p3310
sg5
I1
sg6
S'https://open.spotify.com/track/48nNnmvzt0ODM90fHBpxrg'
p3311
sg8
S'J\xc3\xa1 mal\xc3\xbd p\xc5\x99ich\xc3\xa1z\xc3\xadm koledovat'
p3312
ssS'26g6FFoDfV1ArdnIy28uST'
p3313
(dp3314
g3
S'Sad Eye'
p3315
sg5
I9
sg6
S'https://open.spotify.com/track/26g6FFoDfV1ArdnIy28uST'
p3316
sg8
S'Come Home'
p3317
ssS'3NzOcWuLEr8Rt8V3DDkK5d'
p3318
(dp3319
g3
S'D\xc4\x9btsk\xc3\xbd sbor Camerata'
p3320
sg5
I1
sg6
S'https://open.spotify.com/track/3NzOcWuLEr8Rt8V3DDkK5d'
p3321
sg8
S'Dej b\xc5\xafh \xc5\xa1t\xc4\x9bst\xc3\xad'
p3322
ssS'45yEy5WJywhJ3sDI28ajTm'
p3323
(dp3324
g3
S'The Beatles'
p3325
sg5
I22
sg6
S'https://open.spotify.com/track/45yEy5WJywhJ3sDI28ajTm'
p3326
sg8
S'Here Comes The Sun - Remastered'
p3327
ssS'3SqvR3HYLlCTYzbDXJ52OC'
p3328
(dp3329
g3
S'LP'
p3330
sg5
I42
sg6
S'https://open.spotify.com/track/3SqvR3HYLlCTYzbDXJ52OC'
p3331
sg8
S'Lost on You'
p3332
ssS'0UeYCHOETPfai02uskjJ3x'
p3333
(dp3334
g3
S'Bag Raiders'
p3335
sg5
I1
sg6
S'https://open.spotify.com/track/0UeYCHOETPfai02uskjJ3x'
p3336
sg8
S'Shooting Stars'
p3337
ssS'59j7J5kHrBIbNPwUljHXnE'
p3338
(dp3339
g3
S'Paulie Garand'
p3340
sg5
I2
sg6
S'https://open.spotify.com/track/59j7J5kHrBIbNPwUljHXnE'
p3341
sg8
S'Bar(Bar)'
p3342
ssS'0B8B8cVRFIG1yznoQe7c9s'
p3343
(dp3344
g3
S'The Chainsmokers'
p3345
sg5
I9
sg6
S'https://open.spotify.com/track/0B8B8cVRFIG1yznoQe7c9s'
p3346
sg8
S'Setting Fires'
p3347
ssS'4CJVkjo5WpmUAKp3R44LNb'
p3348
(dp3349
g3
S'Lynyrd Skynyrd'
p3350
sg5
I5
sg6
S'https://open.spotify.com/track/4CJVkjo5WpmUAKp3R44LNb'
p3351
sg8
S'Sweet Home Alabama'
p3352
ssS'02WacdrRpm4zlP8H7X6bnQ'
p3353
(dp3354
g3
S'Calum Scott'
p3355
sg5
I1
sg6
S'https://open.spotify.com/track/02WacdrRpm4zlP8H7X6bnQ'
p3356
sg8
S'Dancing On My Own'
p3357
ssS'1mDGDb2fUmUMdqV3tb8VKQ'
p3358
(dp3359
g3
S'Halsey'
p3360
sg5
I1
sg6
S'https://open.spotify.com/track/1mDGDb2fUmUMdqV3tb8VKQ'
p3361
sg8
S'Now Or Never'
p3362
ssS'7qs2GAglLWfxEfmO8u2u0A'
p3363
(dp3364
g3
S'Loote'
p3365
sg5
I10
sg6
S'https://open.spotify.com/track/7qs2GAglLWfxEfmO8u2u0A'
p3366
sg8
S'High Without Your Love'
p3367
ssS'42NpUvd0I2kdIuMXX4nobE'
p3368
(dp3369
g3
S'Nick Jonas'
p3370
sg5
I1
sg6
S'https://open.spotify.com/track/42NpUvd0I2kdIuMXX4nobE'
p3371
sg8
S'Remember I Told You'
p3372
ssS'0A2J5TumCpT4aJVvQHNEQW'
p3373
(dp3374
g3
S'Ed Sheeran'
p3375
sg5
I1
sg6
S'https://open.spotify.com/track/0A2J5TumCpT4aJVvQHNEQW'
p3376
sg8
S'One'
p3377
ssS'6OZh916QF8XNunWaP97WEZ'
p3378
(dp3379
g3
S'Jonas Blue'
p3380
sg5
I20
sg6
S'https://open.spotify.com/track/6OZh916QF8XNunWaP97WEZ'
p3381
sg8
S'Fast Car'
p3382
ssS'2rizacJSyD9S1IQUxUxnsK'
p3383
(dp3384
g3
S'The Chainsmokers'
p3385
sg5
I20
sg6
S'https://open.spotify.com/track/2rizacJSyD9S1IQUxUxnsK'
p3386
sg8
S'All We Know'
p3387
ssS'0DhGZDTUovEpn10fmabAa8'
p3388
(dp3389
g3
S'Renne Dang'
p3390
sg5
I1
sg6
S'https://open.spotify.com/track/0DhGZDTUovEpn10fmabAa8'
p3391
sg8
S'Ch\xc3\xa1pe\xc5\xa1'
p3392
ssS'6RsWqX8zABZLhZydXxEFOm'
p3393
(dp3394
g3
S'The Weeknd'
p3395
sg5
I1
sg6
S'https://open.spotify.com/track/6RsWqX8zABZLhZydXxEFOm'
p3396
sg8
S"Can't Feel My Face"
p3397
ssS'6PjKz8ykMstLgFvtI0V0d8'
p3398
(dp3399
g3
S'Renne Dang'
p3400
sg5
I2
sg6
S'https://open.spotify.com/track/6PjKz8ykMstLgFvtI0V0d8'
p3401
sg8
S'P\xc3\xad\xc5\xa1u Ti'
p3402
ssS'0tgVpDi06FyKpA1z0VMD4v'
p3403
(dp3404
g3
S'Ed Sheeran'
p3405
sg5
I32
sg6
S'https://open.spotify.com/track/0tgVpDi06FyKpA1z0VMD4v'
p3406
sg8
S'Perfect'
p3407
ssS'46pF1zFimM582ss1PrMy68'
p3408
(dp3409
g3
S'Darlene Love'
p3410
sg5
I1
sg6
S'https://open.spotify.com/track/46pF1zFimM582ss1PrMy68'
p3411
sg8
S'Christmas (Baby Please Come Home)'
p3412
ssS'3Cc3ssgsvdSaEbFT6KHBAv'
p3413
(dp3414
g3
S'HEDEGAARD'
p3415
sg5
I6
sg6
S'https://open.spotify.com/track/3Cc3ssgsvdSaEbFT6KHBAv'
p3416
sg8
S'That\xc2\xb4s Me'
p3417
ssS'0dPBlz8N0veeceejtuvpPz'
p3418
(dp3419
g3
S'LANY'
p3420
sg5
I1
sg6
S'https://open.spotify.com/track/0dPBlz8N0veeceejtuvpPz'
p3421
sg8
S'ILYSB'
p3422
ssS'0MqAHIgelRYOg7iSxRgxfw'
p3423
(dp3424
g3
S'Yzomandias'
p3425
sg5
I5
sg6
S'https://open.spotify.com/track/0MqAHIgelRYOg7iSxRgxfw'
p3426
sg8
S'Fabie'
p3427
ssS'6cAKeFFYW2aClZSUyvqAEW'
p3428
(dp3429
g3
S'Isaiah'
p3430
sg5
I14
sg6
S'https://open.spotify.com/track/6cAKeFFYW2aClZSUyvqAEW'
p3431
sg8
S"It's Gotta Be You"
p3432
ssS'26hcyzSE154xMZCbFdtInA'
p3433
(dp3434
g3
S'KREAM'
p3435
sg5
I8
sg6
S'https://open.spotify.com/track/26hcyzSE154xMZCbFdtInA'
p3436
sg8
S'Taped Up Heart (feat. Clara Mae)'
p3437
ssS'23p213eOdk87LJ7OC8WjYL'
p3438
(dp3439
g3
S'Yzomandias'
p3440
sg5
I3
sg6
S'https://open.spotify.com/track/23p213eOdk87LJ7OC8WjYL'
p3441
sg8
S'Hcb (feat. Nik Tendo & Yeezuz2020)'
p3442
ssS'34i4yxPrHWquuR4kjiivFO'
p3443
(dp3444
g3
S'V\xc3\x89RIT\xc3\x89'
p3445
sg5
I8
sg6
S'https://open.spotify.com/track/34i4yxPrHWquuR4kjiivFO'
p3446
sg8
S'Somebody Else'
p3447
ssS'5vMwmfhNcMi3pgGwfutVqI'
p3448
(dp3449
g3
S'Chris Tyson'
p3450
sg5
I1
sg6
S'https://open.spotify.com/track/5vMwmfhNcMi3pgGwfutVqI'
p3451
sg8
S'Back Flip'
p3452
ssS'7aiVBCp1ibIWE5GeHkbtxr'
p3453
(dp3454
g3
S'Britney Spears'
p3455
sg5
I1
sg6
S'https://open.spotify.com/track/7aiVBCp1ibIWE5GeHkbtxr'
p3456
sg8
S'My Only Wish (This Year)'
p3457
ssS'7w1JDEjmXYw2DwllK1EwCg'
p3458
(dp3459
g3
S'Machine Gun Kelly'
p3460
sg5
I1
sg6
S'https://open.spotify.com/track/7w1JDEjmXYw2DwllK1EwCg'
p3461
sg8
S'Go For Broke (feat. James Arthur)'
p3462
ssS'2wDjpPW3HZdA9quPPmZAMu'
p3463
(dp3464
g3
S'Cashmere Cat'
p3465
sg5
I7
sg6
S'https://open.spotify.com/track/2wDjpPW3HZdA9quPPmZAMu'
p3466
sg8
S'Trust Nobody (feat. Selena Gomez & Tory Lanez)'
p3467
ssS'54ucfuN596MU25jQD3KjCL'
p3468
(dp3469
g3
S'Lorde'
p3470
sg5
I1
sg6
S'https://open.spotify.com/track/54ucfuN596MU25jQD3KjCL'
p3471
sg8
S'Sober II (Melodrama)'
p3472
ssS'3b0EOvScbZUc0qJx0E1L2z'
p3473
(dp3474
g3
S'The Jackson 5'
p3475
sg5
I2
sg6
S'https://open.spotify.com/track/3b0EOvScbZUc0qJx0E1L2z'
p3476
sg8
S'I Want You Back'
p3477
ssS'72Q0FQQo32KJloivv5xge2'
p3478
(dp3479
g3
S'DJ Khaled'
p3480
sg5
I3
sg6
S'https://open.spotify.com/track/72Q0FQQo32KJloivv5xge2'
p3481
sg8
S"I'm the One"
p3482
ssS'5xDHcOKg3tPuFlRpYowaKt'
p3483
(dp3484
g3
S'Yzomandias'
p3485
sg5
I3
sg6
S'https://open.spotify.com/track/5xDHcOKg3tPuFlRpYowaKt'
p3486
sg8
S'Flip (feat. Jickson)'
p3487
ssS'49EgauTc1cGkHwPGCaHh1f'
p3488
(dp3489
g3
S'Lil Yachty'
p3490
sg5
I1
sg6
S'https://open.spotify.com/track/49EgauTc1cGkHwPGCaHh1f'
p3491
sg8
S'Better'
p3492
ssS'0hNduWmlWmEmuwEFcYvRu1'
p3493
(dp3494
g3
S'Petit Biscuit'
p3495
sg5
I24
sg6
S'https://open.spotify.com/track/0hNduWmlWmEmuwEFcYvRu1'
p3496
sg8
S'Sunset Lover'
p3497
ssS'1x5sYLZiu9r5E43kMlt9f8'
p3498
(dp3499
g3
S'Clean Bandit'
p3500
sg5
I30
sg6
S'https://open.spotify.com/track/1x5sYLZiu9r5E43kMlt9f8'
p3501
sg8
S'Symphony (feat. Zara Larsson)'
p3502
ssS'3B54sVLJ402zGa6Xm4YGNe'
p3503
(dp3504
g3
S'French Montana'
p3505
sg5
I14
sg6
S'https://open.spotify.com/track/3B54sVLJ402zGa6Xm4YGNe'
p3506
sg8
S'Unforgettable'
p3507
ssS'6IeK3Ap5m3HabwJxgI6eSE'
p3508
(dp3509
g3
S'Perry Como'
p3510
sg5
I1
sg6
S'https://open.spotify.com/track/6IeK3Ap5m3HabwJxgI6eSE'
p3511
sg8
S"It's Beginning to Look a Lot Like Christmas"
p3512
ssS'2I1dZfAe4mgC3WtKWpgKAo'
p3513
(dp3514
g3
S'Lucie'
p3515
sg5
I2
sg6
S'https://open.spotify.com/track/2I1dZfAe4mgC3WtKWpgKAo'
p3516
sg8
S'Chci zas v tobe spat - Mastered by 2013'
p3517
ssS'5SE57ljOIUJ1ybL9U6CuBH'
p3518
(dp3519
g3
S'BTS'
p3520
sg5
I4
sg6
S'https://open.spotify.com/track/5SE57ljOIUJ1ybL9U6CuBH'
p3521
sg8
S'DNA'
p3522
ssS'6fTsxhIosAU6zXTAhSaemI'
p3523
(dp3524
g3
S'ALMA'
p3525
sg5
I2
sg6
S'https://open.spotify.com/track/6fTsxhIosAU6zXTAhSaemI'
p3526
sg8
S'Chasing Highs'
p3527
ssS'43nTSCqFZJTaBSsWCLJfx3'
p3528
(dp3529
g3
S'Viktor Sheen'
p3530
sg5
I5
sg6
S'https://open.spotify.com/track/43nTSCqFZJTaBSsWCLJfx3'
p3531
sg8
S'Nescaf\xc3\xa9'
p3532
ssS'6SwRhMLwNqEi6alNPVG00n'
p3533
(dp3534
g3
S'Kendrick Lamar'
p3535
sg5
I4
sg6
S'https://open.spotify.com/track/6SwRhMLwNqEi6alNPVG00n'
p3536
sg8
S'LOYALTY. FEAT. RIHANNA.'
p3537
ssS'2HzfRSfCogBSsgW2CckVA2'
p3538
(dp3539
g3
S'Luke Christopher'
p3540
sg5
I1
sg6
S'https://open.spotify.com/track/2HzfRSfCogBSsgW2CckVA2'
p3541
sg8
S'Lot to Learn'
p3542
ssS'0IYbYGGVKQGlcaIu9Bs1Iz'
p3543
(dp3544
g3
S'Noah Cyrus'
p3545
sg5
I1
sg6
S'https://open.spotify.com/track/0IYbYGGVKQGlcaIu9Bs1Iz'
p3546
sg8
S"I'm Stuck"
p3547
ssS'0tKcYR2II1VCQWT79i5NrW'
p3548
(dp3549
g3
S'Imagine Dragons'
p3550
sg5
I21
sg6
S'https://open.spotify.com/track/0tKcYR2II1VCQWT79i5NrW'
p3551
sg8
S'Thunder'
p3552
ssS'4EhEj41vlK9mIP2rjffcRu'
p3553
(dp3554
g3
S'Pil C'
p3555
sg5
I3
sg6
S'https://open.spotify.com/track/4EhEj41vlK9mIP2rjffcRu'
p3556
sg8
S'Silent Hill (feat. Calin & Special Beatz)'
p3557
ssS'6DNtNfH8hXkqOX1sjqmI7p'
p3558
(dp3559
g3
S'Major Lazer'
p3560
sg5
I29
sg6
S'https://open.spotify.com/track/6DNtNfH8hXkqOX1sjqmI7p'
p3561
sg8
S'Cold Water (feat. Justin Bieber & M\xc3\x98)'
p3562
ssS'2ytH5wDuqhgLTiDVYioteq'
p3563
(dp3564
g3
S'Jax Jones'
p3565
sg5
I2
sg6
S'https://open.spotify.com/track/2ytH5wDuqhgLTiDVYioteq'
p3566
sg8
S'Instruction'
p3567
ssS'5NNlUMcOEOdoOIwwaWXv0k'
p3568
(dp3569
g3
S'Maroon 5'
p3570
sg5
I22
sg6
S'https://open.spotify.com/track/5NNlUMcOEOdoOIwwaWXv0k'
p3571
sg8
S'Cold'
p3572
ssS'5R4HqXCZ6uTjxxnGdLt2S6'
p3573
(dp3574
g3
S'Noah Cyrus'
p3575
sg5
I1
sg6
S'https://open.spotify.com/track/5R4HqXCZ6uTjxxnGdLt2S6'
p3576
sg8
S'Stay Together'
p3577
ssS'5bcTCxgc7xVfSaMV3RuVke'
p3578
(dp3579
g3
S'Calvin Harris'
p3580
sg5
I16
sg6
S'https://open.spotify.com/track/5bcTCxgc7xVfSaMV3RuVke'
p3581
sg8
S'Feels'
p3582
ssS'5XQMr19TL7Mfksq9zihbOu'
p3583
(dp3584
g3
S'Chris Brown'
p3585
sg5
I7
sg6
S'https://open.spotify.com/track/5XQMr19TL7Mfksq9zihbOu'
p3586
sg8
S'Questions'
p3587
ssS'1sXUWdKx03aP9Gmzft58rt'
p3588
(dp3589
g3
S'Julia Michaels'
p3590
sg5
I28
sg6
S'https://open.spotify.com/track/1sXUWdKx03aP9Gmzft58rt'
p3591
sg8
S'Issues'
p3592
ssS'1eq1wUnLVLg4pdEfx9kajC'
p3593
(dp3594
g3
S'Adele'
p3595
sg5
I1
sg6
S'https://open.spotify.com/track/1eq1wUnLVLg4pdEfx9kajC'
p3596
sg8
S'Rolling In The Deep'
p3597
ssS'6FemVsNUb2lzWsDRm14FUJ'
p3598
(dp3599
g3
S'The Script'
p3600
sg5
I2
sg6
S'https://open.spotify.com/track/6FemVsNUb2lzWsDRm14FUJ'
p3601
sg8
S'Rain'
p3602
ssS'3QiAAp20rPC3dcAtKtMaqQ'
p3603
(dp3604
g3
S'Elvis Presley'
p3605
sg5
I1
sg6
S'https://open.spotify.com/track/3QiAAp20rPC3dcAtKtMaqQ'
p3606
sg8
S'Blue Christmas'
p3607
ssS'7IWkJwX9C0J7tHurTD7ViL'
p3608
(dp3609
g3
S'Adele'
p3610
sg5
I4
sg6
S'https://open.spotify.com/track/7IWkJwX9C0J7tHurTD7ViL'
p3611
sg8
S'When We Were Young'
p3612
ssS'2Oehrcv4Kov0SuIgWyQY9e'
p3613
(dp3614
g3
S'Imagine Dragons'
p3615
sg5
I42
sg6
S'https://open.spotify.com/track/2Oehrcv4Kov0SuIgWyQY9e'
p3616
sg8
S'Demons'
p3617
ssS'1zayuwd1YLZsYDArkruHdL'
p3618
(dp3619
g3
S'Kendrick Lamar'
p3620
sg5
I1
sg6
S'https://open.spotify.com/track/1zayuwd1YLZsYDArkruHdL'
p3621
sg8
S'The Heart Part 4'
p3622
ssS'0vFuvf86DBX86mgp4ATufb'
p3623
(dp3624
g3
S'D\xc4\x9btsk\xc3\xbd sbor Camerata'
p3625
sg5
I1
sg6
S'https://open.spotify.com/track/0vFuvf86DBX86mgp4ATufb'
p3626
sg8
S'Pujdem spolu do Betl\xc3\xa9ma'
p3627
ssS'14oOKFGuXu8DqvOe1W8vao'
p3628
(dp3629
g3
S'Katy Perry'
p3630
sg5
I2
sg6
S'https://open.spotify.com/track/14oOKFGuXu8DqvOe1W8vao'
p3631
sg8
S'Bon App\xc3\xa9tit'
p3632
ssS'4BHSjbYylfOH5WAGusDyni'
p3633
(dp3634
g3
S'Kendrick Lamar'
p3635
sg5
I2
sg6
S'https://open.spotify.com/track/4BHSjbYylfOH5WAGusDyni'
p3636
sg8
S'YAH.'
p3637
ssS'4uoumbAMEMaKdtiv763jKz'
p3638
(dp3639
g3
S'Zara Larsson'
p3640
sg5
I24
sg6
S'https://open.spotify.com/track/4uoumbAMEMaKdtiv763jKz'
p3641
sg8
S'TG4M'
p3642
ssS'6WhzFzROw3aq3rPWjgYlxr'
p3643
(dp3644
g3
S'Kiiara'
p3645
sg5
I3
sg6
S'https://open.spotify.com/track/6WhzFzROw3aq3rPWjgYlxr'
p3646
sg8
S'Gold'
p3647
ssS'2ISl1zekPsc26sUQpVt8UB'
p3648
(dp3649
g3
S"Shakin' Stevens"
p3650
sg5
I1
sg6
S'https://open.spotify.com/track/2ISl1zekPsc26sUQpVt8UB'
p3651
sg8
S'Merry Christmas Everyone - Remastered'
p3652
ssS'5masKPHeAOVNgxdLebIcK7'
p3653
(dp3654
g3
S'Kygo'
p3655
sg5
I7
sg6
S'https://open.spotify.com/track/5masKPHeAOVNgxdLebIcK7'
p3656
sg8
S'Stole the Show'
p3657
ssS'2leGzrAt1q4j8UOrjqj5NT'
p3658
(dp3659
g3
S'D\xc4\x9btsk\xc3\xbd sbor'
p3660
sg5
I1
sg6
S'https://open.spotify.com/track/2leGzrAt1q4j8UOrjqj5NT'
p3661
sg8
S'U Betl\xc3\xa9ma dnes Maria'
p3662
ssS'6y2Kaz9QI01XBKJ8mTb7Pf'
p3663
(dp3664
g3
S"Rag'n'Bone Man"
p3665
sg5
I36
sg6
S'https://open.spotify.com/track/6y2Kaz9QI01XBKJ8mTb7Pf'
p3666
sg8
S'Skin'
p3667
ssS'494OU6M7NOf4ICYb4zWCf5'
p3668
(dp3669
g3
S'Maroon 5'
p3670
sg5
I1
sg6
S'https://open.spotify.com/track/494OU6M7NOf4ICYb4zWCf5'
p3671
sg8
S'Sugar'
p3672
ssS'1Slwb6dOYkBlWal1PGtnNg'
p3673
(dp3674
g3
S'Ed Sheeran'
p3675
sg5
I42
sg6
S'https://open.spotify.com/track/1Slwb6dOYkBlWal1PGtnNg'
p3676
sg8
S'Thinking Out Loud'
p3677
ssS'2mNbgyi0gori4b1rFSPgIb'
p3678
(dp3679
g3
S'Lorde'
p3680
sg5
I2
sg6
S'https://open.spotify.com/track/2mNbgyi0gori4b1rFSPgIb'
p3681
sg8
S'Sober'
p3682
ssS'3zoYkqS4y2BsGVShPL2nTE'
p3683
(dp3684
g3
S'CNCO'
p3685
sg5
I8
sg6
S'https://open.spotify.com/track/3zoYkqS4y2BsGVShPL2nTE'
p3686
sg8
S'Reggaet\xc3\xb3n Lento (Remix) [CNCO & Little Mix]'
p3687
ssS'2fGxYYMQbVqgIdaqfz2OwA'
p3688
(dp3689
g3
S'Miley Cyrus'
p3690
sg5
I1
sg6
S'https://open.spotify.com/track/2fGxYYMQbVqgIdaqfz2OwA'
p3691
sg8
S'Younger Now'
p3692
ssS'1UZOjK1BwmwWU14Erba9CZ'
p3693
(dp3694
g3
S'Miley Cyrus'
p3695
sg5
I2
sg6
S'https://open.spotify.com/track/1UZOjK1BwmwWU14Erba9CZ'
p3696
sg8
S'Malibu'
p3697
ssS'2habSXqcJGExM6JJyskY7O'
p3698
(dp3699
g3
S'Miley Cyrus'
p3700
sg5
I20
sg6
S'https://open.spotify.com/track/2habSXqcJGExM6JJyskY7O'
p3701
sg8
S'Malibu'
p3702
ssS'5Ua3GXyHwiSfpNTMjq6m2z'
p3703
(dp3704
g3
S'Little Mix'
p3705
sg5
I22
sg6
S'https://open.spotify.com/track/5Ua3GXyHwiSfpNTMjq6m2z'
p3706
sg8
S'Touch'
p3707
ssS'6i0V12jOa3mr6uu4WYhUBr'
p3708
(dp3709
g3
S'Twenty One Pilots'
p3710
sg5
I42
sg6
S'https://open.spotify.com/track/6i0V12jOa3mr6uu4WYhUBr'
p3711
sg8
S'Heathens'
p3712
ssS'1louJpMmzEicAn7lzDalPW'
p3713
(dp3714
g3
S'Cheat Codes'
p3715
sg5
I28
sg6
S'https://open.spotify.com/track/1louJpMmzEicAn7lzDalPW'
p3716
sg8
S'No Promises (feat. Demi Lovato)'
p3717
ssS'6zQMbR8e1AQyRDmKUBxoz5'
p3718
(dp3719
g3
S'Marcus & Martinus'
p3720
sg5
I1
sg6
S'https://open.spotify.com/track/6zQMbR8e1AQyRDmKUBxoz5'
p3721
sg8
S'Make You Believe In Love'
p3722
ssS'40UroIGvsMPLPBYwH8rMNA'
p3723
(dp3724
g3
S'Vice'
p3725
sg5
I9
sg6
S'https://open.spotify.com/track/40UroIGvsMPLPBYwH8rMNA'
p3726
sg8
S'Steady 1234 (feat. Jasmine Thompson & Skizzy Mars)'
p3727
ssS'5nA67Y0XX9JipZwYxX7Gl7'
p3728
(dp3729
g3
S'Niall Horan'
p3730
sg5
I8
sg6
S'https://open.spotify.com/track/5nA67Y0XX9JipZwYxX7Gl7'
p3731
sg8
S'This Town'
p3732
ssS'5153LWKMJiMNIRCChGN4Ja'
p3733
(dp3734
g3
S'Mike Perry'
p3735
sg5
I6
sg6
S'https://open.spotify.com/track/5153LWKMJiMNIRCChGN4Ja'
p3736
sg8
S'Hands'
p3737
ssS'0SuG9kyzGRpDqrCWtgD6Lq'
p3738
(dp3739
g3
S'Ed Sheeran'
p3740
sg5
I2
sg6
S'https://open.spotify.com/track/0SuG9kyzGRpDqrCWtgD6Lq'
p3741
sg8
S'Give Me Love'
p3742
ssS'2pJZ1v8HezrAoZ0Fhzby92'
p3743
(dp3744
g3
S'Ed Sheeran'
p3745
sg5
I19
sg6
S'https://open.spotify.com/track/2pJZ1v8HezrAoZ0Fhzby92'
p3746
sg8
S'What Do I Know?'
p3747
ssS'2ovyLyq404NDoMBERnKCli'
p3748
(dp3749
g3
S'Separ'
p3750
sg5
I2
sg6
S'https://open.spotify.com/track/2ovyLyq404NDoMBERnKCli'
p3751
sg8
S'Pancier'
p3752
ssS'4chgBnYTuTMTytBrNhO6IO'
p3753
(dp3754
g3
S'Sofi Tukker'
p3755
sg5
I1
sg6
S'https://open.spotify.com/track/4chgBnYTuTMTytBrNhO6IO'
p3756
sg8
S'Fuck They'
p3757
ssS'7wiESxCGoUkRdgZF2JOLZu'
p3758
(dp3759
g3
S'Phil Spector'
p3760
sg5
I1
sg6
S'https://open.spotify.com/track/7wiESxCGoUkRdgZF2JOLZu'
p3761
sg8
S'Sleigh Ride'
p3762
ssS'1BdVivE0XJICA4HCnHWyps'
p3763
(dp3764
g3
S'Calin'
p3765
sg5
I7
sg6
S'https://open.spotify.com/track/1BdVivE0XJICA4HCnHWyps'
p3766
sg8
S'Play Time'
p3767
ssS'0KKkJNfGyhkQ5aFogxQAPU'
p3768
(dp3769
g3
S'Bruno Mars'
p3770
sg5
I30
sg6
S'https://open.spotify.com/track/0KKkJNfGyhkQ5aFogxQAPU'
p3771
sg8
S"That's What I Like"
p3772
ssS'0w5Bdu51Ka25Pf3hojsKHh'
p3773
(dp3774
g3
S'Paramore'
p3775
sg5
I4
sg6
S'https://open.spotify.com/track/0w5Bdu51Ka25Pf3hojsKHh'
p3776
sg8
S'Hard Times'
p3777
ssS'3w7JbcQtOiBmPuZ2IQc129'
p3778
(dp3779
g3
S'Vadak'
p3780
sg5
I6
sg6
S'https://open.spotify.com/track/3w7JbcQtOiBmPuZ2IQc129'
p3781
sg8
S'Druh\xc3\xa1 Tv\xc3\xa1\xc5\x99 (feat. T-Jay)'
p3782
ssS'1VdZ0vKfR5jneCmWIUAMxK'
p3783
(dp3784
g3
S'Ed Sheeran'
p3785
sg5
I5
sg6
S'https://open.spotify.com/track/1VdZ0vKfR5jneCmWIUAMxK'
p3786
sg8
S'The A Team'
p3787
ssS'1wur1SW656paPv7EyTqWu4'
p3788
(dp3789
g3
S'C\xc3\xa9line Dion'
p3790
sg5
I1
sg6
S'https://open.spotify.com/track/1wur1SW656paPv7EyTqWu4'
p3791
sg8
S'Happy Xmas (War Is Over)'
p3792
ssS'7xE4vKvjqUTtHyJ9zi0k1q'
p3793
(dp3794
g3
S'Emma Stone'
p3795
sg5
I1
sg6
S'https://open.spotify.com/track/7xE4vKvjqUTtHyJ9zi0k1q'
p3796
sg8
S'Someone In The Crowd - From La La Land Soundtrack'
p3797
ssS'6nxQdXa1uAL0rY72wPZu89'
p3798
(dp3799
g3
S'John Legend'
p3800
sg5
I12
sg6
S'https://open.spotify.com/track/6nxQdXa1uAL0rY72wPZu89'
p3801
sg8
S'Love Me Now'
p3802
ssS'4L7Y2OAPiY2I2GndZjAs5K'
p3803
(dp3804
g3
S'Lana Del Rey'
p3805
sg5
I2
sg6
S'https://open.spotify.com/track/4L7Y2OAPiY2I2GndZjAs5K'
p3806
sg8
S'Lust For Life (with The Weeknd)'
p3807
ssS'6kex4EBAj0WHXDKZMEJaaF'
p3808
(dp3809
g3
S'Jason Derulo'
p3810
sg5
I32
sg6
S'https://open.spotify.com/track/6kex4EBAj0WHXDKZMEJaaF'
p3811
sg8
S'Swalla (feat. Nicki Minaj & Ty Dolla $ign)'
p3812
ssS'1s7voXUxRTw98pmy1J8urv'
p3813
(dp3814
g3
S'Mike Perry'
p3815
sg5
I1
sg6
S'https://open.spotify.com/track/1s7voXUxRTw98pmy1J8urv'
p3816
sg8
S'Hands'
p3817
ssS'10JBIfvldDR2TnT5sphGc2'
p3818
(dp3819
g3
S'Train'
p3820
sg5
I1
sg6
S'https://open.spotify.com/track/10JBIfvldDR2TnT5sphGc2'
p3821
sg8
S'Shake up Christmas'
p3822
ssS'54h8xHewdRPnYzmbEHBhOO'
p3823
(dp3824
g3
S'Imagine Dragons'
p3825
sg5
I6
sg6
S'https://open.spotify.com/track/54h8xHewdRPnYzmbEHBhOO'
p3826
sg8
S'I\xe2\x80\x99ll Make It Up To You'
p3827
ssS'2jfCy43LsFbCQoB6HyetlY'
p3828
(dp3829
g3
S'SJUR'
p3830
sg5
I8
sg6
S'https://open.spotify.com/track/2jfCy43LsFbCQoB6HyetlY'
p3831
sg8
S'Let Me Love You'
p3832
ssS'6OocN63GLU7NF0wHdewhID'
p3833
(dp3834
g3
S'Linkin Park'
p3835
sg5
I4
sg6
S'https://open.spotify.com/track/6OocN63GLU7NF0wHdewhID'
p3836
sg8
S'Invisible'
p3837
ssS'54LGxQGf5LPXNGjtzDZ5IE'
p3838
(dp3839
g3
S'Zara Larsson'
p3840
sg5
I2
sg6
S'https://open.spotify.com/track/54LGxQGf5LPXNGjtzDZ5IE'
p3841
sg8
S'So Good'
p3842
ssS'08WPvDEsHvTFuB9w8tC2OS'
p3843
(dp3844
g3
S'Sage The Gemini'
p3845
sg5
I1
sg6
S'https://open.spotify.com/track/08WPvDEsHvTFuB9w8tC2OS'
p3846
sg8
S'Now and Later'
p3847
ssS'5lXcSvHRVjQJ3LB2rLKQog'
p3848
(dp3849
g3
S'Stevie Wonder'
p3850
sg5
I1
sg6
S'https://open.spotify.com/track/5lXcSvHRVjQJ3LB2rLKQog'
p3851
sg8
S'Superstition - Single Version'
p3852
ssS'4ZJPwET9Jrgpkqi4Vo3Yg8'
p3853
(dp3854
g3
S'Bebe Rexha'
p3855
sg5
I9
sg6
S'https://open.spotify.com/track/4ZJPwET9Jrgpkqi4Vo3Yg8'
p3856
sg8
S'Bad Bitch (feat. Ty Dolla $ign)'
p3857
ssS'1VoHrSS3QQ6TbpabLrFiYb'
p3858
(dp3859
g3
S'Alvaro Soler'
p3860
sg5
I37
sg6
S'https://open.spotify.com/track/1VoHrSS3QQ6TbpabLrFiYb'
p3861
sg8
S'Sofia'
p3862
ssS'1YW369EbVyjpeLE3YbsjKQ'
p3863
(dp3864
g3
S'Robbie Williams'
p3865
sg5
I1
sg6
S'https://open.spotify.com/track/1YW369EbVyjpeLE3YbsjKQ'
p3866
sg8
S'Love My Life'
p3867
ssS'1Dp7JGFNjvg8Nk0CtMCcnr'
p3868
(dp3869
g3
S'Lorde'
p3870
sg5
I1
sg6
S'https://open.spotify.com/track/1Dp7JGFNjvg8Nk0CtMCcnr'
p3871
sg8
S'Hard Feelings/Loveless'
p3872
ssS'0Fv5N0cHBsl4bzCbollCAS'
p3873
(dp3874
g3
S'Big Sean'
p3875
sg5
I1
sg6
S'https://open.spotify.com/track/0Fv5N0cHBsl4bzCbollCAS'
p3876
sg8
S'Moves'
p3877
ssS'7KXjTSCq5nL1LoYtL7XAwS'
p3878
(dp3879
g3
S'Kendrick Lamar'
p3880
sg5
I28
sg6
S'https://open.spotify.com/track/7KXjTSCq5nL1LoYtL7XAwS'
p3881
sg8
S'HUMBLE.'
p3882
ssS'5CgDWL4LtAejgMmbOwIUui'
p3883
(dp3884
g3
S'Viktor Sheen'
p3885
sg5
I1
sg6
S'https://open.spotify.com/track/5CgDWL4LtAejgMmbOwIUui'
p3886
sg8
S'Soriyako'
p3887
ssS'2Ae5awwKvQpTBKQHr1TYCg'
p3888
(dp3889
g3
S'Nause'
p3890
sg5
I14
sg6
S'https://open.spotify.com/track/2Ae5awwKvQpTBKQHr1TYCg'
p3891
sg8
S'Dynamite (feat. Pretty Sister)'
p3892
ssS'1KvyBpAxgllKW7bQb0GYCR'
p3893
(dp3894
g3
S'Linkin Park'
p3895
sg5
I3
sg6
S'https://open.spotify.com/track/1KvyBpAxgllKW7bQb0GYCR'
p3896
sg8
S'Halfway Right'
p3897
ssS'73VrGWg4I2DJiWXtbseyiG'
p3898
(dp3899
g3
S'U2'
p3900
sg5
I1
sg6
S'https://open.spotify.com/track/73VrGWg4I2DJiWXtbseyiG'
p3901
sg8
S'You\xe2\x80\x99re The Best Thing About Me'
p3902
ssS'1jYiIOC5d6soxkJP81fxq2'
p3903
(dp3904
g3
S'DJ Khaled'
p3905
sg5
I1
sg6
S'https://open.spotify.com/track/1jYiIOC5d6soxkJP81fxq2'
p3906
sg8
S"I'm the One"
p3907
ssS'1wDfQ3eLZb51M8jCkNwbyx'
p3908
(dp3909
g3
S'Daya'
p3910
sg5
I1
sg6
S'https://open.spotify.com/track/1wDfQ3eLZb51M8jCkNwbyx'
p3911
sg8
S'Words'
p3912
ssS'6Na5uKk5SsqZimk0hAWo8y'
p3913
(dp3914
g3
S'Drake'
p3915
sg5
I2
sg6
S'https://open.spotify.com/track/6Na5uKk5SsqZimk0hAWo8y'
p3916
sg8
S'Signs'
p3917
ssS'74ODGXs4byLTRdnKGM4s6E'
p3918
(dp3919
g3
S'LANY'
p3920
sg5
I12
sg6
S'https://open.spotify.com/track/74ODGXs4byLTRdnKGM4s6E'
p3921
sg8
S'Super Far'
p3922
ssS'35AOGxEzcsgAdzhFLutbXO'
p3923
(dp3924
g3
S'SEASIDE HIGHLIFE'
p3925
sg5
I6
sg6
S'https://open.spotify.com/track/35AOGxEzcsgAdzhFLutbXO'
p3926
sg8
S'Sideways'
p3927
ssS'71pE0tfIU0gTbXD7EdPyyC'
p3928
(dp3929
g3
S'Chinaski'
p3930
sg5
I2
sg6
S'https://open.spotify.com/track/71pE0tfIU0gTbXD7EdPyyC'
p3931
sg8
S'Kazdy rano'
p3932
ssS'0n2bvWvMwr0gbjcuTm92eW'
p3933
(dp3934
g3
S'Lana Del Rey'
p3935
sg5
I9
sg6
S'https://open.spotify.com/track/0n2bvWvMwr0gbjcuTm92eW'
p3936
sg8
S'Love'
p3937
ssS'3AsAuGTaDQzavZZThyYlop'
p3938
(dp3939
g3
S'NEIKED'
p3940
sg5
I10
sg6
S'https://open.spotify.com/track/3AsAuGTaDQzavZZThyYlop'
p3941
sg8
S'Sexual'
p3942
ssS'3Lfiu5sZ4M4B6JaKMBc0FU'
p3943
(dp3944
g3
S'Ed Sheeran'
p3945
sg5
I10
sg6
S'https://open.spotify.com/track/3Lfiu5sZ4M4B6JaKMBc0FU'
p3946
sg8
S'Barcelona'
p3947
ssS'2nuveZFpiOildSCxXuL44C'
p3948
(dp3949
g3
S'JP Cooper'
p3950
sg5
I1
sg6
S'https://open.spotify.com/track/2nuveZFpiOildSCxXuL44C'
p3951
sg8
S"She's On My Mind"
p3952
ssS'4kfm1uI9QGaoN9qm6CkAMn'
p3953
(dp3954
g3
S'Linkin Park'
p3955
sg5
I12
sg6
S'https://open.spotify.com/track/4kfm1uI9QGaoN9qm6CkAMn'
p3956
sg8
S"What I've Done"
p3957
ssS'69bp2EbF7Q2rqc5N3ylezZ'
p3958
(dp3959
g3
S'Justin Bieber'
p3960
sg5
I20
sg6
S'https://open.spotify.com/track/69bp2EbF7Q2rqc5N3ylezZ'
p3961
sg8
S'Sorry'
p3962
ssS'5JwLhFNrXw49pn3HQqu02G'
p3963
(dp3964
g3
S'Lana Del Rey'
p3965
sg5
I1
sg6
S'https://open.spotify.com/track/5JwLhFNrXw49pn3HQqu02G'
p3966
sg8
S'Summer Bummer (feat. A$AP Rocky & Playboi Carti)'
p3967
ssS'7vTynhHj2lM4YMpkU4igLp'
p3968
(dp3969
g3
S'Viktor Sheen'
p3970
sg5
I1
sg6
S'https://open.spotify.com/track/7vTynhHj2lM4YMpkU4igLp'
p3971
sg8
S'Vibe'
p3972
ssS'6eUncuJutsFi9BGO1JaBHh'
p3973
(dp3974
g3
S'Jason Derulo'
p3975
sg5
I6
sg6
S'https://open.spotify.com/track/6eUncuJutsFi9BGO1JaBHh'
p3976
sg8
S"If I'm Lucky"
p3977
ssS'5gxETSZwYHAaVBJ0Ae8fif'
p3978
(dp3979
g3
S'Renne Dang'
p3980
sg5
I2
sg6
S'https://open.spotify.com/track/5gxETSZwYHAaVBJ0Ae8fif'
p3981
sg8
S'S Ex'
p3982
ssS'1NDeibq7Gcknv9Pz0xGEXQ'
p3983
(dp3984
g3
S'Paulie Garand'
p3985
sg5
I4
sg6
S'https://open.spotify.com/track/1NDeibq7Gcknv9Pz0xGEXQ'
p3986
sg8
S'Loyalty'
p3987
ssS'2dLLR6qlu5UJ5gk0dKz0h3'
p3988
(dp3989
g3
S'Lorde'
p3990
sg5
I1
sg6
S'https://open.spotify.com/track/2dLLR6qlu5UJ5gk0dKz0h3'
p3991
sg8
S'Royals'
p3992
ssS'2dqLk7ezV15LEJEwUmEbXB'
p3993
(dp3994
g3
S'Marian Hill'
p3995
sg5
I1
sg6
S'https://open.spotify.com/track/2dqLk7ezV15LEJEwUmEbXB'
p3996
sg8
S'Down'
p3997
ssS'4iLqG9SeJSnt0cSPICSjxv'
p3998
(dp3999
g3
S'Charlie Puth'
p4000
sg5
I25
sg6
S'https://open.spotify.com/track/4iLqG9SeJSnt0cSPICSjxv'
p4001
sg8
S'Attention'
p4002
ssS'6JyuJFedEvPmdWQW0PkbGJ'
p4003
(dp4004
g3
S'Skrillex'
p4005
sg5
I7
sg6
S'https://open.spotify.com/track/6JyuJFedEvPmdWQW0PkbGJ'
p4006
sg8
S'Purple Lamborghini (with Rick Ross)'
p4007
ssS'4tCtwWceOPWzenK2HAIJSb'
p4008
(dp4009
g3
S'Fifth Harmony'
p4010
sg5
I25
sg6
S'https://open.spotify.com/track/4tCtwWceOPWzenK2HAIJSb'
p4011
sg8
S'Work from Home'
p4012
ssS'6RUKPb4LETWmmr3iAEQktW'
p4013
(dp4014
g3
S'The Chainsmokers'
p4015
sg5
I34
sg6
S'https://open.spotify.com/track/6RUKPb4LETWmmr3iAEQktW'
p4016
sg8
S'Something Just Like This'
p4017
ssS'3FQCJI2t5LTbsRPfYVBSVB'
p4018
(dp4019
g3
S'Linkin Park'
p4020
sg5
I19
sg6
S'https://open.spotify.com/track/3FQCJI2t5LTbsRPfYVBSVB'
p4021
sg8
S'Battle Symphony'
p4022
ssS'7M16mAuWuFA5rC9HvkXaGx'
p4023
(dp4024
g3
S'Jax Jones'
p4025
sg5
I5
sg6
S'https://open.spotify.com/track/7M16mAuWuFA5rC9HvkXaGx'
p4026
sg8
S"You Don't Know Me - Radio Edit"
p4027
ssS'5T8EDUDqKcs6OSOwEsfqG7'
p4028
(dp4029
g3
S'Queen'
p4030
sg5
I1
sg6
S'https://open.spotify.com/track/5T8EDUDqKcs6OSOwEsfqG7'
p4031
sg8
S"Don't Stop Me Now - Remastered 2011"
p4032
ssS'0VhgEqMTNZwYL1ARDLLNCX'
p4033
(dp4034
g3
S'James Arthur'
p4035
sg5
I11
sg6
S'https://open.spotify.com/track/0VhgEqMTNZwYL1ARDLLNCX'
p4036
sg8
S'Can I Be Him'
p4037
ssS'2CPqh63wRVscbceKcPxwvv'
p4038
(dp4039
g3
S'Mike Perry'
p4040
sg5
I42
sg6
S'https://open.spotify.com/track/2CPqh63wRVscbceKcPxwvv'
p4041
sg8
S'The Ocean'
p4042
ssS'5abwHwUhywLGNli5NDcEN7'
p4043
(dp4044
g3
S'Thomas Gold'
p4045
sg5
I6
sg6
S'https://open.spotify.com/track/5abwHwUhywLGNli5NDcEN7'
p4046
sg8
S'Magic'
p4047
ssS'3jg0pqNp5AmHhh6WPp1mqn'
p4048
(dp4049
g3
S'Yzomandias'
p4050
sg5
I4
sg6
S'https://open.spotify.com/track/3jg0pqNp5AmHhh6WPp1mqn'
p4051
sg8
S'Den-Jeden'
p4052
ssS'4bHsxqR3GMrXTxEPLuK5ue'
p4053
(dp4054
g3
S'Journey'
p4055
sg5
I5
sg6
S'https://open.spotify.com/track/4bHsxqR3GMrXTxEPLuK5ue'
p4056
sg8
S"Don't Stop Believin'"
p4057
ssS'5GXAXm5YOmYT0kL5jHvYBt'
p4058
(dp4059
g3
S'The Weeknd'
p4060
sg5
I30
sg6
S'https://open.spotify.com/track/5GXAXm5YOmYT0kL5jHvYBt'
p4061
sg8
S'I Feel It Coming'
p4062
ssS'4Dl5bzNIO0mxRDslZE9QH0'
p4063
(dp4064
g3
S'DeeThane'
p4065
sg5
I1
sg6
S'https://open.spotify.com/track/4Dl5bzNIO0mxRDslZE9QH0'
p4066
sg8
S'Detektiv Thanedee'
p4067
ssS'6IZvVAP7VPPnsGX6bvgkqg'
p4068
(dp4069
g3
S'Kendrick Lamar'
p4070
sg5
I2
sg6
S'https://open.spotify.com/track/6IZvVAP7VPPnsGX6bvgkqg'
p4071
sg8
S'PRIDE.'
p4072
ssS'0lMbuWUpfTWhEmOKxppEau'
p4073
(dp4074
g3
S'Calvin Harris'
p4075
sg5
I10
sg6
S'https://open.spotify.com/track/0lMbuWUpfTWhEmOKxppEau'
p4076
sg8
S'Rollin'
p4077
ssS'62TrBJ1LtoCDrR1ndR1eGg'
p4078
(dp4079
g3
S'Yzomandias'
p4080
sg5
I3
sg6
S'https://open.spotify.com/track/62TrBJ1LtoCDrR1ndR1eGg'
p4081
sg8
S'N\xc4\x9bco Se Bude D\xc3\xadt (feat. Karlo)'
p4082
ssS'2nMeu6UenVvwUktBCpLMK9'
p4083
(dp4084
g3
S'Lana Del Rey'
p4085
sg5
I11
sg6
S'https://open.spotify.com/track/2nMeu6UenVvwUktBCpLMK9'
p4086
sg8
S'Young And Beautiful'
p4087
ssS'41kE0bBBpwPUZEZKxSIROh'
p4088
(dp4089
g3
S'Urban Cone'
p4090
sg5
I5
sg6
S'https://open.spotify.com/track/41kE0bBBpwPUZEZKxSIROh'
p4091
sg8
S'Old School'
p4092
ssS'0ZiRSqlSsDlY0UyDYU9CTE'
p4093
(dp4094
g3
S'Thomas Rhett'
p4095
sg5
I3
sg6
S'https://open.spotify.com/track/0ZiRSqlSsDlY0UyDYU9CTE'
p4096
sg8
S'Unforgettable'
p4097
ssS'4sQMalN597HdggTu196aL0'
p4098
(dp4099
g3
S'Flume'
p4100
sg5
I2
sg6
S'https://open.spotify.com/track/4sQMalN597HdggTu196aL0'
p4101
sg8
S'Say It (feat. Tove Lo)'
p4102
ssS'51ChrwmUPDJvedPQnIU8Ls'
p4103
(dp4104
g3
S'Ed Sheeran'
p4105
sg5
I19
sg6
S'https://open.spotify.com/track/51ChrwmUPDJvedPQnIU8Ls'
p4106
sg8
S'Dive'
p4107
ssS'4B1rpPmQXwj78wk6aIGwwU'
p4108
(dp4109
g3
S'Harry Styles'
p4110
sg5
I1
sg6
S'https://open.spotify.com/track/4B1rpPmQXwj78wk6aIGwwU'
p4111
sg8
S'Two Ghosts'
p4112
ssS'6jA8HL9i4QGzsj6fjoxp8Y'
p4113
(dp4114
g3
S'Martin Garrix'
p4115
sg5
I20
sg6
S'https://open.spotify.com/track/6jA8HL9i4QGzsj6fjoxp8Y'
p4116
sg8
S'There for You'
p4117
ssS'1CUVN2kn7mW5FjkqXTR2W1'
p4118
(dp4119
g3
S'Jonas Blue'
p4120
sg5
I27
sg6
S'https://open.spotify.com/track/1CUVN2kn7mW5FjkqXTR2W1'
p4121
sg8
S'Perfect Strangers'
p4122
ssS'7mkm8ry8rZEzJ9C5wQZZrY'
p4123
(dp4124
g3
S'Basic Tape'
p4125
sg5
I2
sg6
S'https://open.spotify.com/track/7mkm8ry8rZEzJ9C5wQZZrY'
p4126
sg8
S'No Matter (Basic Tape vs. Frances)'
p4127
ssS'0SGkqnVQo9KPytSri1H6cF'
p4128
(dp4129
g3
S'Big Sean'
p4130
sg5
I11
sg6
S'https://open.spotify.com/track/0SGkqnVQo9KPytSri1H6cF'
p4131
sg8
S'Bounce Back'
p4132
ssS'0Tel1fmuCxEFV6wBLXsEdk'
p4133
(dp4134
g3
S'Ed Sheeran'
p4135
sg5
I1
sg6
S'https://open.spotify.com/track/0Tel1fmuCxEFV6wBLXsEdk'
p4136
sg8
S'Kiss Me'
p4137
ssS'7nKBxz47S9SD79N086fuhn'
p4138
(dp4139
g3
S'Enrique Iglesias'
p4140
sg5
I33
sg6
S'https://open.spotify.com/track/7nKBxz47S9SD79N086fuhn'
p4141
sg8
S'SUBEME LA RADIO'
p4142
ssS'044qU7kwVZaDwzWnRsmVVL'
p4143
(dp4144
g3
S'The xx'
p4145
sg5
I1
sg6
S'https://open.spotify.com/track/044qU7kwVZaDwzWnRsmVVL'
p4146
sg8
S'I Dare You'
p4147
ssS'27SdWb2rFzO6GWiYDBTD9j'
p4148
(dp4149
g3
S'Sia'
p4150
sg5
I42
sg6
S'https://open.spotify.com/track/27SdWb2rFzO6GWiYDBTD9j'
p4151
sg8
S'Cheap Thrills'
p4152
ssS'4J2RaG4UH2HCThcqzDpeAF'
p4153
(dp4154
g3
S'Imagine Dragons'
p4155
sg5
I2
sg6
S'https://open.spotify.com/track/4J2RaG4UH2HCThcqzDpeAF'
p4156
sg8
S'Start Over'
p4157
ssS'3vgNmjuRDnGLxUFGCLkwpm'
p4158
(dp4159
g3
S'David Guetta'
p4160
sg5
I1
sg6
S'https://open.spotify.com/track/3vgNmjuRDnGLxUFGCLkwpm'
p4161
sg8
S'Light My Body Up (feat. Nicki Minaj & Lil Wayne)'
p4162
ssS'5xhJmd0I15jFcEdqxfCzKk'
p4163
(dp4164
g3
S'The Chainsmokers'
p4165
sg5
I1
sg6
S'https://open.spotify.com/track/5xhJmd0I15jFcEdqxfCzKk'
p4166
sg8
S"It Won't Kill Ya"
p4167
ssS'5dQJKDx0x73seZbwSORa1T'
p4168
(dp4169
g3
S'The Vamps'
p4170
sg5
I5
sg6
S'https://open.spotify.com/track/5dQJKDx0x73seZbwSORa1T'
p4171
sg8
S'Middle Of The Night'
p4172
ssS'6PJ8FF6UR8FZXfEvpHkIVN'
p4173
(dp4174
g3
S'Ed Sheeran'
p4175
sg5
I10
sg6
S'https://open.spotify.com/track/6PJ8FF6UR8FZXfEvpHkIVN'
p4176
sg8
S'How Would You Feel (Paean)'
p4177
ssS'2Pn76oik9rWyoBShTSNY9Q'
p4178
(dp4179
g3
S'Lana Del Rey'
p4180
sg5
I1
sg6
S'https://open.spotify.com/track/2Pn76oik9rWyoBShTSNY9Q'
p4181
sg8
S'White Mustang'
p4182
ssS'3kdMzXOcrDIdSWLdONHNK5'
p4183
(dp4184
g3
S'Foo Fighters'
p4185
sg5
I2
sg6
S'https://open.spotify.com/track/3kdMzXOcrDIdSWLdONHNK5'
p4186
sg8
S'The Sky Is A Neighborhood'
p4187
ssS'5ndfVSDyPq90jaIUhNPeby'
p4188
(dp4189
g3
S'Katy Perry'
p4190
sg5
I2
sg6
S'https://open.spotify.com/track/5ndfVSDyPq90jaIUhNPeby'
p4191
sg8
S'Chained To The Rhythm'
p4192
ssS'5uCax9HTNlzGybIStD3vDh'
p4193
(dp4194
g3
S'James Arthur'
p4195
sg5
I42
sg6
S'https://open.spotify.com/track/5uCax9HTNlzGybIStD3vDh'
p4196
sg8
S"Say You Won't Let Go"
p4197
ssS'7qiZfU4dY1lWllzX7mPBI3'
p4198
(dp4199
g3
S'Ed Sheeran'
p4200
sg5
I40
sg6
S'https://open.spotify.com/track/7qiZfU4dY1lWllzX7mPBI3'
p4201
sg8
S'Shape of You'
p4202
ssS'6LOCAhFzZiavHcLJucLuDy'
p4203
(dp4204
g3
S'DJ Khaled'
p4205
sg5
I1
sg6
S'https://open.spotify.com/track/6LOCAhFzZiavHcLJucLuDy'
p4206
sg8
S"Don't Quit"
p4207
ssS'40TGqpPS1DvxjVhB9EUV28'
p4208
(dp4209
g3
S'Paulie Garand'
p4210
sg5
I2
sg6
S'https://open.spotify.com/track/40TGqpPS1DvxjVhB9EUV28'
p4211
sg8
S'V Zrcadle'
p4212
ssS'0iV9yfj1knFNOSEiuTHZwl'
p4213
(dp4214
g3
S'Christina Aguilera'
p4215
sg5
I1
sg6
S'https://open.spotify.com/track/0iV9yfj1knFNOSEiuTHZwl'
p4216
sg8
S'Have Yourself a Merry Little Christmas'
p4217
ssS'6CUBgX8bXC5YQCkdgRHqyg'
p4218
(dp4219
g3
S'blackbear'
p4220
sg5
I2
sg6
S'https://open.spotify.com/track/6CUBgX8bXC5YQCkdgRHqyg'
p4221
sg8
S'do re mi'
p4222
ssS'0wfbD5rAksdXUzRvMfM3x5'
p4223
(dp4224
g3
S'The Chainsmokers'
p4225
sg5
I18
sg6
S'https://open.spotify.com/track/0wfbD5rAksdXUzRvMfM3x5'
p4226
sg8
S'The One'
p4227
ssS'1ALL550OX4NZ84q8EMVd2M'
p4228
(dp4229
g3
S'Ian Erix'
p4230
sg5
I1
sg6
S'https://open.spotify.com/track/1ALL550OX4NZ84q8EMVd2M'
p4231
sg8
S'Footprints in the Sand'
p4232
ssS'0q75NwOoFiARAVp4EXU4Bs'
p4233
(dp4234
g3
S'SZA'
p4235
sg5
I9
sg6
S'https://open.spotify.com/track/0q75NwOoFiARAVp4EXU4Bs'
p4236
sg8
S'Love Galore'
p4237
ssS'2fQrGHiQOvpL9UgPvtYy6G'
p4238
(dp4239
g3
S'21 Savage'
p4240
sg5
I3
sg6
S'https://open.spotify.com/track/2fQrGHiQOvpL9UgPvtYy6G'
p4241
sg8
S'Bank Account'
p4242
ssS'3BxTVuBJiijRTncDl8F3h4'
p4243
(dp4244
g3
S'DJ Wich'
p4245
sg5
I1
sg6
S'https://open.spotify.com/track/3BxTVuBJiijRTncDl8F3h4'
p4246
sg8
S'Neopakovateln\xc3\xa1 (feat. Prago Union)'
p4247
ssS'1yFiaFeSLpw4nDYTeErRZ6'
p4248
(dp4249
g3
S'Linkin Park'
p4250
sg5
I1
sg6
S'https://open.spotify.com/track/1yFiaFeSLpw4nDYTeErRZ6'
p4251
sg8
S'Leave Out All The Rest'
p4252
ssS'0LGCloCfw3fk1XQh0zbrs1'
p4253
(dp4254
g3
S'Mike Perry'
p4255
sg5
I1
sg6
S'https://open.spotify.com/track/0LGCloCfw3fk1XQh0zbrs1'
p4256
sg8
S'Hands'
p4257
ssS'2FiSTH0GYpIioUgjfzMIja'
p4258
(dp4259
g3
S'Kygo'
p4260
sg5
I6
sg6
S'https://open.spotify.com/track/2FiSTH0GYpIioUgjfzMIja'
p4261
sg8
S'Stay'
p4262
ssS'5kWL19nVvI06VpeGQOYvQU'
p4263
(dp4264
g3
S'Renne Dang'
p4265
sg5
I3
sg6
S'https://open.spotify.com/track/5kWL19nVvI06VpeGQOYvQU'
p4266
sg8
S'Revival'
p4267
ssS'5ghIJDpPoe3CfHMGu71E6T'
p4268
(dp4269
g3
S'Nirvana'
p4270
sg5
I13
sg6
S'https://open.spotify.com/track/5ghIJDpPoe3CfHMGu71E6T'
p4271
sg8
S'Smells Like Teen Spirit'
p4272
ssS'1F2HXIJrE2Xn81OzT2zZvW'
p4273
(dp4274
g3
S'French Montana'
p4275
sg5
I11
sg6
S'https://open.spotify.com/track/1F2HXIJrE2Xn81OzT2zZvW'
p4276
sg8
S'Unforgettable'
p4277
ssS'6QgjcU0zLnzq5OrUoSZ3OK'
p4278
(dp4279
g3
S'Portugal. The Man'
p4280
sg5
I14
sg6
S'https://open.spotify.com/track/6QgjcU0zLnzq5OrUoSZ3OK'
p4281
sg8
S'Feel It Still'
p4282
ssS'6Yk3pZPw8hlUBMTeLLLRC1'
p4283
(dp4284
g3
S'The Boy Next Door'
p4285
sg5
I2
sg6
S'https://open.spotify.com/track/6Yk3pZPw8hlUBMTeLLLRC1'
p4286
sg8
S'La Colegiala'
p4287
ssS'7jltqRIyxLXBDNZ1QlmnBp'
p4288
(dp4289
g3
S'Ryan Gosling'
p4290
sg5
I1
sg6
S'https://open.spotify.com/track/7jltqRIyxLXBDNZ1QlmnBp'
p4291
sg8
S'City Of Stars - From La La Land Soundtrack/Pier'
p4292
ssS'78rIJddV4X0HkNAInEcYde'
p4293
(dp4294
g3
S'Starley'
p4295
sg5
I42
sg6
S'https://open.spotify.com/track/78rIJddV4X0HkNAInEcYde'
p4296
sg8
S'Call On Me - Ryan Riback Extended Remix'
p4297
ssS'0L7loeTIg6akW84aEQZpCT'
p4298
(dp4299
g3
S'Major Lazer'
p4300
sg5
I28
sg6
S'https://open.spotify.com/track/0L7loeTIg6akW84aEQZpCT'
p4301
sg8
S'Light It Up (feat. Nyla & Fuse ODG) - Remix'
p4302
ssS'4Q5yMlwAfAoitqg4r9oZHN'
p4303
(dp4304
g3
S'Cashmere Cat'
p4305
sg5
I8
sg6
S'https://open.spotify.com/track/4Q5yMlwAfAoitqg4r9oZHN'
p4306
sg8
S'Quit (feat. Ariana Grande)'
p4307
ssS'7o2CTH4ctstm8TNelqjb51'
p4308
(dp4309
g3
S"Guns N' Roses"
p4310
sg5
I2
sg6
S'https://open.spotify.com/track/7o2CTH4ctstm8TNelqjb51'
p4311
sg8
S"Sweet Child O' Mine"
p4312
ssS'1Bqxj0aH5KewYHKUg1IdrF'
p4313
(dp4314
g3
S'G-Eazy'
p4315
sg5
I10
sg6
S'https://open.spotify.com/track/1Bqxj0aH5KewYHKUg1IdrF'
p4316
sg8
S'Some Kind Of Drug'
p4317
ssS'05MpiOfgNwFgYZCYWPVqfb'
p4318
(dp4319
g3
S'Paulie Garand'
p4320
sg5
I1
sg6
S'https://open.spotify.com/track/05MpiOfgNwFgYZCYWPVqfb'
p4321
sg8
S'Neony'
p4322
ssS'5TXDeTFVRVY7Cvt0Dw4vWW'
p4323
(dp4324
g3
S'XXXTENTACION'
p4325
sg5
I1
sg6
S'https://open.spotify.com/track/5TXDeTFVRVY7Cvt0Dw4vWW'
p4326
sg8
S'Revenge'
p4327
ssS'62FbLMpG27j0z43nd1Hs2I'
p4328
(dp4329
g3
S'DJ Envy'
p4330
sg5
I1
sg6
S'https://open.spotify.com/track/62FbLMpG27j0z43nd1Hs2I'
p4331
sg8
S'Text Ur Number (feat. DJ Sliink & Fetty Wap)'
p4332
ssS'167NczpNbRF7oWakJaY3Hh'
p4333
(dp4334
g3
S'Niall Horan'
p4335
sg5
I23
sg6
S'https://open.spotify.com/track/167NczpNbRF7oWakJaY3Hh'
p4336
sg8
S'Slow Hands'
p4337
ssS'11EDhDAVDtGPoSar6ootYA'
p4338
(dp4339
g3
S'Halsey'
p4340
sg5
I1
sg6
S'https://open.spotify.com/track/11EDhDAVDtGPoSar6ootYA'
p4341
sg8
S'Strangers'
p4342
ssS'2EadNtMlpFIVWvBsNASNJW'
p4343
(dp4344
g3
S'Chinaski'
p4345
sg5
I15
sg6
S'https://open.spotify.com/track/2EadNtMlpFIVWvBsNASNJW'
p4346
sg8
S'Ka\xc5\xbed\xc3\xbd R\xc3\xa1no'
p4347
ssS'5rAxhWcgFng3s570sGO2F8'
p4348
(dp4349
g3
S'Linkin Park'
p4350
sg5
I1
sg6
S'https://open.spotify.com/track/5rAxhWcgFng3s570sGO2F8'
p4351
sg8
S'A Place For My Head'
p4352
ssS'6bJ1rkeKujVpRPIwJjq6e0'
p4353
(dp4354
g3
S'Anna Naklab'
p4355
sg5
I1
sg6
S'https://open.spotify.com/track/6bJ1rkeKujVpRPIwJjq6e0'
p4356
sg8
S'Supergirl - Radio Edit'
p4357
ssS'0or0gNaKAXYYCsOrpvRzAu'
p4358
(dp4359
g3
S'Lorde'
p4360
sg5
I3
sg6
S'https://open.spotify.com/track/0or0gNaKAXYYCsOrpvRzAu'
p4361
sg8
S'Liability'
p4362
ssS'2aksifNn5ph8igDOkPBA02'
p4363
(dp4364
g3
S'Rihanna'
p4365
sg5
I6
sg6
S'https://open.spotify.com/track/2aksifNn5ph8igDOkPBA02'
p4366
sg8
S'Love On The Brain'
p4367
ssS'6cREm4bV7V79Yxdilx9HDo'
p4368
(dp4369
g3
S'Timeflies'
p4370
sg5
I1
sg6
S'https://open.spotify.com/track/6cREm4bV7V79Yxdilx9HDo'
p4371
sg8
S'Once In a While'
p4372
ssS'7FWYtyjRWtuMnDlzo4yMPw'
p4373
(dp4374
g3
S'V\xc4\x9bra \xc5\xa0pinarov\xc3\xa1'
p4375
sg5
I1
sg6
S'https://open.spotify.com/track/7FWYtyjRWtuMnDlzo4yMPw'
p4376
sg8
S'Jednoho dne se vr\xc3\xa1t\xc3\xad\xc5\xa1 (Un jour tu reviendras)'
p4377
ssS'0xG0SHshCStMEyNbNC5d4k'
p4378
(dp4379
g3
S'Julia Michaels'
p4380
sg5
I9
sg6
S'https://open.spotify.com/track/0xG0SHshCStMEyNbNC5d4k'
p4381
sg8
S'Issues'
p4382
ssS'7yHEDfrJNd0zWOfXwydNH0'
p4383
(dp4384
g3
S'Ariana Grande'
p4385
sg5
I8
sg6
S'https://open.spotify.com/track/7yHEDfrJNd0zWOfXwydNH0'
p4386
sg8
S'Into You'
p4387
ssS'1lntL1cI2UIWlxjL5QiN8g'
p4388
(dp4389
g3
S'Lauv'
p4390
sg5
I15
sg6
S'https://open.spotify.com/track/1lntL1cI2UIWlxjL5QiN8g'
p4391
sg8
S'The Other'
p4392
ssS'0LtVx5vsq9nfpGsWgjUin6'
p4393
(dp4394
g3
S'Ryan Gosling'
p4395
sg5
I6
sg6
S'https://open.spotify.com/track/0LtVx5vsq9nfpGsWgjUin6'
p4396
sg8
S'City Of Stars - From La La Land Soundtrack'
p4397
ssS'6nlXWOyoCPLXXWaklOyQcb'
p4398
(dp4399
g3
S'Julia Michaels'
p4400
sg5
I14
sg6
S'https://open.spotify.com/track/6nlXWOyoCPLXXWaklOyQcb'
p4401
sg8
S'Issues - Alan Walker Remix'
p4402
ssS'0Y4TzGi4YdW5dhFrFczpS0'
p4403
(dp4404
g3
S'Yzomandias'
p4405
sg5
I21
sg6
S'https://open.spotify.com/track/0Y4TzGi4YdW5dhFrFczpS0'
p4406
sg8
S'Kawasaki (feat. Nik Tendo)'
p4407
ssS'15dnkAHcHC0vrIUlbiPiqU'
p4408
(dp4409
g3
S'Imagine Dragons'
p4410
sg5
I11
sg6
S'https://open.spotify.com/track/15dnkAHcHC0vrIUlbiPiqU'
p4411
sg8
S'I Don\xe2\x80\x99t Know Why'
p4412
ssS'5Db9VIdDsN5yu3Eu7CT0i4'
p4413
(dp4414
g3
S'Sam Smith'
p4415
sg5
I15
sg6
S'https://open.spotify.com/track/5Db9VIdDsN5yu3Eu7CT0i4'
p4416
sg8
S'Stay With Me'
p4417
ssS'7nY0TjOsD1BZehkZgLiOxO'
p4418
(dp4419
g3
S'Katy Perry'
p4420
sg5
I2
sg6
S'https://open.spotify.com/track/7nY0TjOsD1BZehkZgLiOxO'
p4421
sg8
S'Hey Hey Hey'
p4422
ssS'11KJSRSgaDxqydKYiD2Jew'
p4423
(dp4424
g3
S'Drake'
p4425
sg5
I1
sg6
S'https://open.spotify.com/track/11KJSRSgaDxqydKYiD2Jew'
p4426
sg8
S'Too Good'
p4427
ssS'7pYFPMeK0TnaTGdS6qOtEr'
p4428
(dp4429
g3
S'Stargate'
p4430
sg5
I1
sg6
S'https://open.spotify.com/track/7pYFPMeK0TnaTGdS6qOtEr'
p4431
sg8
S'Waterfall'
p4432
ssS'1yNyoWWWikbLhwIGWjZuDW'
p4433
(dp4434
g3
S'The Vamps'
p4435
sg5
I27
sg6
S'https://open.spotify.com/track/1yNyoWWWikbLhwIGWjZuDW'
p4436
sg8
S'All Night'
p4437
ssS'26AuyrZGzWWiYZPSd3XBIg'
p4438
(dp4439
g3
S'The Chainsmokers'
p4440
sg5
I1
sg6
S'https://open.spotify.com/track/26AuyrZGzWWiYZPSd3XBIg'
p4441
sg8
S'Bloodstream'
p4442
ssS'0WZFWGPpCBvuC9zfQtJzED'
p4443
(dp4444
g3
S'Rest'
p4445
sg5
I2
sg6
S'https://open.spotify.com/track/0WZFWGPpCBvuC9zfQtJzED'
p4446
sg8
S'V\xc3\xadc Klidu'
p4447
ssS'6fxVffaTuwjgEk5h9QyRjy'
p4448
(dp4449
g3
S'Ed Sheeran'
p4450
sg5
I42
sg6
S'https://open.spotify.com/track/6fxVffaTuwjgEk5h9QyRjy'
p4451
sg8
S'Photograph'
p4452
ssS'4vb4mFvYsr2h6enhjJsq9Y'
p4453
(dp4454
g3
S'Adele'
p4455
sg5
I21
sg6
S'https://open.spotify.com/track/4vb4mFvYsr2h6enhjJsq9Y'
p4456
sg8
S'Water Under the Bridge'
p4457
ssS'2kVHAQKVtczchKctctzbtK'
p4458
(dp4459
g3
S'Katy Perry'
p4460
sg5
I15
sg6
S'https://open.spotify.com/track/2kVHAQKVtczchKctctzbtK'
p4461
sg8
S'Swish Swish'
p4462
ssS'17Fd6Yb7mSbinKG8LoWfFl'
p4463
(dp4464
g3
S'Mike Posner'
p4465
sg5
I33
sg6
S'https://open.spotify.com/track/17Fd6Yb7mSbinKG8LoWfFl'
p4466
sg8
S'I Took A Pill In Ibiza - Seeb Remix'
p4467
ssS'7zTx8ePYAmPFQuxP3xlXZn'
p4468
(dp4469
g3
S'San Holo'
p4470
sg5
I9
sg6
S'https://open.spotify.com/track/7zTx8ePYAmPFQuxP3xlXZn'
p4471
sg8
S'Light'
p4472
ssS'2C2xbxwRdvbyMUXR35rtyf'
p4473
(dp4474
g3
S'DJ Wich'
p4475
sg5
I2
sg6
S'https://open.spotify.com/track/2C2xbxwRdvbyMUXR35rtyf'
p4476
sg8
S'Zved\xc3\xa1m Strop (feat. Renne Dang)'
p4477
ssS'6O9no4Us7U9OrAgvBGgrHT'
p4478
(dp4479
g3
S'Paulie Garand'
p4480
sg5
I1
sg6
S'https://open.spotify.com/track/6O9no4Us7U9OrAgvBGgrHT'
p4481
sg8
S'Vajgly'
p4482
ssS'7mldq42yDuxiUNn08nvzHO'
p4483
(dp4484
g3
S'Sam Hunt'
p4485
sg5
I24
sg6
S'https://open.spotify.com/track/7mldq42yDuxiUNn08nvzHO'
p4486
sg8
S'Body Like A Back Road'
p4487
ssS'4f5KtFAD5GIMLedoru8Het'
p4488
(dp4489
g3
S'DeeThane'
p4490
sg5
I1
sg6
S'https://open.spotify.com/track/4f5KtFAD5GIMLedoru8Het'
p4491
sg8
S'Tanec Mezi Torn\xc3\xa1dy'
p4492
ssS'3hB5DgAiMAQ4DzYbsMq1IT'
p4493
(dp4494
g3
S'Justin Bieber'
p4495
sg5
I30
sg6
S'https://open.spotify.com/track/3hB5DgAiMAQ4DzYbsMq1IT'
p4496
sg8
S'Love Yourself'
p4497
ssS'1foCxQtxBweJtZmdxhEHVO'
p4498
(dp4499
g3
S'Eartha Kitt'
p4500
sg5
I1
sg6
S'https://open.spotify.com/track/1foCxQtxBweJtZmdxhEHVO'
p4501
sg8
S'Santa Baby'
p4502
ssS'32OWobmyAz8J2qA8iWekyS'
p4503
(dp4504
g3
S'Justin Bieber'
p4505
sg5
I1
sg6
S'https://open.spotify.com/track/32OWobmyAz8J2qA8iWekyS'
p4506
sg8
S'Mistletoe'
p4507
ssS'6XOYVSmNDjKUNMXooU4s4z'
p4508
(dp4509
g3
S'OneRepublic'
p4510
sg5
I24
sg6
S'https://open.spotify.com/track/6XOYVSmNDjKUNMXooU4s4z'
p4511
sg8
S'No Vacancy'
p4512
ssS'60xaS8mYBKUW4VQQ666N0T'
p4513
(dp4514
g3
S'Chance The Rapper'
p4515
sg5
I5
sg6
S'https://open.spotify.com/track/60xaS8mYBKUW4VQQ666N0T'
p4516
sg8
S'All Night (feat. Knox Fortune)'
p4517
ssS'1TfqLAPs4K3s2rJMoCokcS'
p4518
(dp4519
g3
S'Eurythmics'
p4520
sg5
I9
sg6
S'https://open.spotify.com/track/1TfqLAPs4K3s2rJMoCokcS'
p4521
sg8
S'Sweet Dreams (Are Made of This) - Remastered'
p4522
ssS'1839RWzPRZCVgvamu4sHSN'
p4523
(dp4524
g3
S'Cash Cash'
p4525
sg5
I7
sg6
S'https://open.spotify.com/track/1839RWzPRZCVgvamu4sHSN'
p4526
sg8
S'All My Love (feat. Conor Maynard)'
p4527
ssS'3bidbhpOYeV4knp8AIu8Xn'
p4528
(dp4529
g3
S'Macklemore & Ryan Lewis'
p4530
sg5
I31
sg6
S'https://open.spotify.com/track/3bidbhpOYeV4knp8AIu8Xn'
p4531
sg8
S"Can't Hold Us - feat. Ray Dalton"
p4532
ssS'5z6sckDWV2hhOLQHOpWFxg'
p4533
(dp4534
g3
S'Paulie Garand'
p4535
sg5
I3
sg6
S'https://open.spotify.com/track/5z6sckDWV2hhOLQHOpWFxg'
p4536
sg8
S'Re-Generace'
p4537
ssS'6PGoSes0D9eUDeeAafB2As'
p4538
(dp4539
g3
S'Kendrick Lamar'
p4540
sg5
I5
sg6
S'https://open.spotify.com/track/6PGoSes0D9eUDeeAafB2As'
p4541
sg8
S'LOVE. FEAT. ZACARI.'
p4542
ssS'5ZRcp3KMbqF3KXIEJ7Pg6K'
p4543
(dp4544
g3
S'Mahmut Orhan'
p4545
sg5
I1
sg6
S'https://open.spotify.com/track/5ZRcp3KMbqF3KXIEJ7Pg6K'
p4546
sg8
S'Save Me'
p4547
ss.