(dp0
S'0mel2N9Ws9r4yLQn5QE21Y'
p1
(dp2
S'artistName'
p3
S'Sam Smith'
p4
sS'weeksOnChart'
p5
I5
sS'track_href'
p6
S'https://open.spotify.com/track/0mel2N9Ws9r4yLQn5QE21Y'
p7
sS'songName'
p8
S'Too Good At Goodbyes'
p9
ssS'58EQDn2K9Gyj68YIckOLrN'
p10
(dp11
g3
S'Reykon'
p12
sg5
I15
sg6
S'https://open.spotify.com/track/58EQDn2K9Gyj68YIckOLrN'
p13
sg8
S'El Chisme (feat. J Alvarez & Kevin Roldan) - Remix'
p14
ssS'60a0Rd6pjrkxjPbaKzXjfq'
p15
(dp16
g3
S'Linkin Park'
p17
sg5
I7
sg6
S'https://open.spotify.com/track/60a0Rd6pjrkxjPbaKzXjfq'
p18
sg8
S'In The End'
p19
ssS'0prNGof3XqfTvNDxHonvdK'
p20
(dp21
g3
S'Alessia Cara'
p22
sg5
I6
sg6
S'https://open.spotify.com/track/0prNGof3XqfTvNDxHonvdK'
p23
sg8
S'Scars To Your Beautiful'
p24
ssS'6HUnnBwYZqcED1eQztxMBN'
p25
(dp26
g3
S'Martin Jensen'
p27
sg5
I18
sg6
S'https://open.spotify.com/track/6HUnnBwYZqcED1eQztxMBN'
p28
sg8
S'Solo Dance'
p29
ssS'1qRbIT7dCBd8crDyfiXIFN'
p30
(dp31
g3
S'CNCO'
p32
sg5
I1
sg6
S'https://open.spotify.com/track/1qRbIT7dCBd8crDyfiXIFN'
p33
sg8
S'Primera Cita'
p34
ssS'2aksifNn5ph8igDOkPBA02'
p35
(dp36
g3
S'Rihanna'
p37
sg5
I3
sg6
S'https://open.spotify.com/track/2aksifNn5ph8igDOkPBA02'
p38
sg8
S'Love On The Brain'
p39
ssS'4b4KcovePX8Ke2cLIQTLM0'
p40
(dp41
g3
S'The Vamps'
p42
sg5
I1
sg6
S'https://open.spotify.com/track/4b4KcovePX8Ke2cLIQTLM0'
p43
sg8
S'All Night'
p44
ssS'7wGoVu4Dady5GV0Sv4UIsx'
p45
(dp46
g3
S'Post Malone'
p47
sg5
I1
sg6
S'https://open.spotify.com/track/7wGoVu4Dady5GV0Sv4UIsx'
p48
sg8
S'rockstar'
p49
ssS'1CnPYaKxTVb4LWOtiGOm0m'
p50
(dp51
g3
S'Jon Bellion'
p52
sg5
I10
sg6
S'https://open.spotify.com/track/1CnPYaKxTVb4LWOtiGOm0m'
p53
sg8
S'All Time Low'
p54
ssS'4OZEu0Vwq0RB2LAq14v99n'
p55
(dp56
g3
S'DJ Snake'
p57
sg5
I36
sg6
S'https://open.spotify.com/track/4OZEu0Vwq0RB2LAq14v99n'
p58
sg8
S'Middle'
p59
ssS'1RwoXmQ3RvIdfG8bLeX65g'
p60
(dp61
g3
S'Mario Bautista'
p62
sg5
I12
sg6
S'https://open.spotify.com/track/1RwoXmQ3RvIdfG8bLeX65g'
p63
sg8
S'No Digas Nada'
p64
ssS'70lnL3QaSOIIyMa2X9aVRL'
p65
(dp66
g3
S'Shakira'
p67
sg5
I19
sg6
S'https://open.spotify.com/track/70lnL3QaSOIIyMa2X9aVRL'
p68
sg8
S'Perro Fiel'
p69
ssS'46HdsiK0uR26B2dY9QPzda'
p70
(dp71
g3
S'Prince Royce'
p72
sg5
I32
sg6
S'https://open.spotify.com/track/46HdsiK0uR26B2dY9QPzda'
p73
sg8
S'Deja vu'
p74
ssS'0EPxmvsG1BY5td4aTOkWBF'
p75
(dp76
g3
S'MC G15'
p77
sg5
I26
sg6
S'https://open.spotify.com/track/0EPxmvsG1BY5td4aTOkWBF'
p78
sg8
S'Deu Onda'
p79
ssS'46lFttIf5hnUZMGvjK0Wxo'
p80
(dp81
g3
S'Galantis'
p82
sg5
I2
sg6
S'https://open.spotify.com/track/46lFttIf5hnUZMGvjK0Wxo'
p83
sg8
S'Runaway (U & I)'
p84
ssS'2bdD0eYH8XirjVAXq68JAN'
p85
(dp86
g3
S'Yandel'
p87
sg5
I18
sg6
S'https://open.spotify.com/track/2bdD0eYH8XirjVAXq68JAN'
p88
sg8
S'Mi Religi\xc3\xb3n'
p89
ssS'2bJvI42r8EF3wxjOuDav4r'
p90
(dp91
g3
S'Pitbull'
p92
sg5
I2
sg6
S'https://open.spotify.com/track/2bJvI42r8EF3wxjOuDav4r'
p93
sg8
S'Time of Our Lives'
p94
ssS'7tr2za8SQg2CI8EDgrdtNl'
p95
(dp96
g3
S'Calvin Harris'
p97
sg5
I21
sg6
S'https://open.spotify.com/track/7tr2za8SQg2CI8EDgrdtNl'
p98
sg8
S'Slide'
p99
ssS'7cIkMEpDhT7Vpw1FHOQqKC'
p100
(dp101
g3
S'Justin Quiles'
p102
sg5
I2
sg6
S'https://open.spotify.com/track/7cIkMEpDhT7Vpw1FHOQqKC'
p103
sg8
S'Si Ella Quisiera'
p104
ssS'1TxgZRcy3kZ7JaEp88MDbC'
p105
(dp106
g3
S'CNCO'
p107
sg5
I42
sg6
S'https://open.spotify.com/track/1TxgZRcy3kZ7JaEp88MDbC'
p108
sg8
S'Tan F\xc3\xa1cil'
p109
ssS'2kAe8s00cKth2AfcLEbFi9'
p110
(dp111
g3
S'CNCO'
p112
sg5
I9
sg6
S'https://open.spotify.com/track/2kAe8s00cKth2AfcLEbFi9'
p113
sg8
S'Hey DJ - Pop Version'
p114
ssS'20ZAJdsKB5IGbGj4ilRt2o'
p115
(dp116
g3
S'Ozuna'
p117
sg5
I35
sg6
S'https://open.spotify.com/track/20ZAJdsKB5IGbGj4ilRt2o'
p118
sg8
S'Dile Que Tu Me Quieres'
p119
ssS'4pLwZjInHj3SimIyN9SnOz'
p120
(dp121
g3
S'Ariana Grande'
p122
sg5
I36
sg6
S'https://open.spotify.com/track/4pLwZjInHj3SimIyN9SnOz'
p123
sg8
S'Side To Side'
p124
ssS'4qknM1pQz53QOyfDVTjcM9'
p125
(dp126
g3
S'Shakira'
p127
sg5
I27
sg6
S'https://open.spotify.com/track/4qknM1pQz53QOyfDVTjcM9'
p128
sg8
S'Me Enamor\xc3\xa9'
p129
ssS'3E2Zh20GDCR9B1EYjfXWyv'
p130
(dp131
g3
S'AJR'
p132
sg5
I10
sg6
S'https://open.spotify.com/track/3E2Zh20GDCR9B1EYjfXWyv'
p133
sg8
S'Weak'
p134
ssS'0OEQGwBfL4b9KX0RwfOiW6'
p135
(dp136
g3
S'Don Omar'
p137
sg5
I8
sg6
S'https://open.spotify.com/track/0OEQGwBfL4b9KX0RwfOiW6'
p138
sg8
S'Encanto'
p139
ssS'6ciFFQZcrCwSiUBZvEZrJc'
p140
(dp141
g3
S'Major Lazer'
p142
sg5
I7
sg6
S'https://open.spotify.com/track/6ciFFQZcrCwSiUBZvEZrJc'
p143
sg8
S'Know No Better (feat. Travis Scott & Quavo) - Bad Bunny Remix'
p144
ssS'4BHzQ9C00ceJxfG16AlNWb'
p145
(dp146
g3
S'Adele'
p147
sg5
I4
sg6
S'https://open.spotify.com/track/4BHzQ9C00ceJxfG16AlNWb'
p148
sg8
S'Send My Love (To Your New Lover)'
p149
ssS'4Km5HrUvYTaSUfiSGPJeQR'
p150
(dp151
g3
S'Migos'
p152
sg5
I8
sg6
S'https://open.spotify.com/track/4Km5HrUvYTaSUfiSGPJeQR'
p153
sg8
S'Bad and Boujee (feat. Lil Uzi Vert)'
p154
ssS'50PWlIBU7PlGGwzgN8TiFJ'
p155
(dp156
g3
S'Lady Gaga'
p157
sg5
I3
sg6
S'https://open.spotify.com/track/50PWlIBU7PlGGwzgN8TiFJ'
p158
sg8
S'Million Reasons'
p159
ssS'2RttW7RAu5nOAfq6YFvApB'
p160
(dp161
g3
S'Ed Sheeran'
p162
sg5
I7
sg6
S'https://open.spotify.com/track/2RttW7RAu5nOAfq6YFvApB'
p163
sg8
S'Happier'
p164
ssS'7BEI30TTNhwnkCyNUDmFrr'
p165
(dp166
g3
S'Daddy Yankee'
p167
sg5
I22
sg6
S'https://open.spotify.com/track/7BEI30TTNhwnkCyNUDmFrr'
p168
sg8
S'Hula Hoop'
p169
ssS'3EmmCZoqpWOTY1g2GBwJoR'
p170
(dp171
g3
S'Steve Aoki'
p172
sg5
I30
sg6
S'https://open.spotify.com/track/3EmmCZoqpWOTY1g2GBwJoR'
p173
sg8
S'Just Hold On'
p174
ssS'2Ce5IyMlVRVvN997ZJjJJA'
p175
(dp176
g3
S'Future'
p177
sg5
I2
sg6
S'https://open.spotify.com/track/2Ce5IyMlVRVvN997ZJjJJA'
p178
sg8
S'Selfish'
p179
ssS'1G0xFA3KNiKdbjhT2asL43'
p180
(dp181
g3
S'Danny Ocean'
p182
sg5
I10
sg6
S'https://open.spotify.com/track/1G0xFA3KNiKdbjhT2asL43'
p183
sg8
S"Baby I Won't"
p184
ssS'6Zosz8w6CmdGMZM6p4JlbQ'
p185
(dp186
g3
S'Danny Ocean'
p187
sg5
I2
sg6
S'https://open.spotify.com/track/6Zosz8w6CmdGMZM6p4JlbQ'
p188
sg8
S'Me Reh\xc3\xbaso'
p189
ssS'0mvocLIWUnT10znvIXwHGr'
p190
(dp191
g3
S'Man\xc3\xa1'
p192
sg5
I7
sg6
S'https://open.spotify.com/track/0mvocLIWUnT10znvIXwHGr'
p193
sg8
S'En El Muelle De San Blas'
p194
ssS'3eFJqPe8VUYrABbFjSauuj'
p195
(dp196
g3
S''
p197
sg5
I1
sg6
S'https://open.spotify.com/track/3eFJqPe8VUYrABbFjSauuj'
p198
sg8
g197
ssS'3iDPALl8BoUbuXZgy6EOWY'
p199
(dp200
g3
S'Gigolo Y La Exce'
p201
sg5
I6
sg6
S'https://open.spotify.com/track/3iDPALl8BoUbuXZgy6EOWY'
p202
sg8
S'Sexto Sentido (feat. Bad Bunny)'
p203
ssS'03h8eaVgdJJ14cCKiO4ONX'
p204
(dp205
g3
S'Joey Montana'
p206
sg5
I10
sg6
S'https://open.spotify.com/track/03h8eaVgdJJ14cCKiO4ONX'
p207
sg8
S'Hola'
p208
ssS'4xlrALxuaCf9yZBHJeTSG6'
p209
(dp210
g3
S'Jonas Blue'
p211
sg5
I6
sg6
S'https://open.spotify.com/track/4xlrALxuaCf9yZBHJeTSG6'
p212
sg8
S'Mama'
p213
ssS'3RXkboS74UYzN14xTqzPyY'
p214
(dp215
g3
g197
sg5
I1
sg6
S'https://open.spotify.com/track/3RXkboS74UYzN14xTqzPyY'
p216
sg8
g197
ssS'0fm7fJ4aZv6Wx0klIcyXPz'
p217
(dp218
g3
S'Juan Mag\xc3\xa1n'
p219
sg5
I3
sg6
S'https://open.spotify.com/track/0fm7fJ4aZv6Wx0klIcyXPz'
p220
sg8
S'Quiero Que Sepas'
p221
ssS'7FfpP3YZ6fOWMdxkIAtud9'
p222
(dp223
g3
S'Farruko'
p224
sg5
I4
sg6
S'https://open.spotify.com/track/7FfpP3YZ6fOWMdxkIAtud9'
p225
sg8
S'Krippy Kush'
p226
ssS'3pzjHKrQSvXGHQ98dx18HI'
p227
(dp228
g3
S'Justin Bieber'
p229
sg5
I4
sg6
S'https://open.spotify.com/track/3pzjHKrQSvXGHQ98dx18HI'
p230
sg8
S'What Do You Mean?'
p231
ssS'000xQL6tZNLJzIrtIgxqSl'
p232
(dp233
g3
S'ZAYN'
p234
sg5
I15
sg6
S'https://open.spotify.com/track/000xQL6tZNLJzIrtIgxqSl'
p235
sg8
S'Still Got Time'
p236
ssS'2FBUoWkIuQXwayw2RNo5l6'
p237
(dp238
g3
S'Drake'
p239
sg5
I4
sg6
S'https://open.spotify.com/track/2FBUoWkIuQXwayw2RNo5l6'
p240
sg8
S'Hotline Bling'
p241
ssS'1D3ODoXHBLpdxolZRHWV1j'
p242
(dp243
g3
S'Jonas Blue'
p244
sg5
I14
sg6
S'https://open.spotify.com/track/1D3ODoXHBLpdxolZRHWV1j'
p245
sg8
S'By Your Side'
p246
ssS'09QOedW1xozFDsXUI7jTeV'
p247
(dp248
g3
S'Ozuna'
p249
sg5
I4
sg6
S'https://open.spotify.com/track/09QOedW1xozFDsXUI7jTeV'
p250
sg8
S'Dile Que Tu Me Quieres Remix (feat. Yandel)'
p251
ssS'4QsPTKvdpgkA7mBAvclZTa'
p252
(dp253
g3
S'Maluma'
p254
sg5
I15
sg6
S'https://open.spotify.com/track/4QsPTKvdpgkA7mBAvclZTa'
p255
sg8
S'El Perdedor - The Remix'
p256
ssS'4yN6xPLopmTLvc27pO9LIE'
p257
(dp258
g3
S'Nicky Jam'
p259
sg5
I34
sg6
S'https://open.spotify.com/track/4yN6xPLopmTLvc27pO9LIE'
p260
sg8
S'Si T\xc3\xba La Ves'
p261
ssS'5CtI0qwDJkDQGwXD1H1cLb'
p262
(dp263
g3
S'Luis Fonsi'
p264
sg5
I26
sg6
S'https://open.spotify.com/track/5CtI0qwDJkDQGwXD1H1cLb'
p265
sg8
S'Despacito - Remix'
p266
ssS'7m9OqQk4RVRkw9JJdeAw96'
p267
(dp268
g3
S'XXXTENTACION'
p269
sg5
I6
sg6
S'https://open.spotify.com/track/7m9OqQk4RVRkw9JJdeAw96'
p270
sg8
S'Jocelyn Flores'
p271
ssS'1PGENMzwUy16wlpZiuLS65'
p272
(dp273
g3
S'Karol G'
p274
sg5
I1
sg6
S'https://open.spotify.com/track/1PGENMzwUy16wlpZiuLS65'
p275
sg8
S'Hello'
p276
ssS'3WM3XDNCzEsLvtp59D9oF7'
p277
(dp278
g3
S'Yandel'
p279
sg5
I3
sg6
S'https://open.spotify.com/track/3WM3XDNCzEsLvtp59D9oF7'
p280
sg8
S'S\xc3\xb3lo M\xc3\xada'
p281
ssS'7LABrQFfRYcZUqUwng0Heb'
p282
(dp283
g3
S'Yandel'
p284
sg5
I6
sg6
S'https://open.spotify.com/track/7LABrQFfRYcZUqUwng0Heb'
p285
sg8
S'Encantadora'
p286
ssS'53Y0kdCa1CZ9gRqEuknfwy'
p287
(dp288
g3
S'David Guetta'
p289
sg5
I1
sg6
S'https://open.spotify.com/track/53Y0kdCa1CZ9gRqEuknfwy'
p290
sg8
S'Bang My Head (feat. Sia & Fetty Wap)'
p291
ssS'1Eck97uRMlprKOOJN9oO1E'
p292
(dp293
g3
S'G-Eazy'
p294
sg5
I8
sg6
S'https://open.spotify.com/track/1Eck97uRMlprKOOJN9oO1E'
p295
sg8
S'Good Life (with G-Eazy & Kehlani)'
p296
ssS'2ekn2ttSfGqwhhate0LSR0'
p297
(dp298
g3
S'Dua Lipa'
p299
sg5
I13
sg6
S'https://open.spotify.com/track/2ekn2ttSfGqwhhate0LSR0'
p300
sg8
S'New Rules'
p301
ssS'1sCxVKWImDZSZKvG0U9B23'
p302
(dp303
g3
S'Selena Gomez'
p304
sg5
I18
sg6
S'https://open.spotify.com/track/1sCxVKWImDZSZKvG0U9B23'
p305
sg8
S'Bad Liar'
p306
ssS'6jmngk8Fwup05JZ6kgXEGX'
p307
(dp308
g3
S'Imagine Dragons'
p309
sg5
I1
sg6
S'https://open.spotify.com/track/6jmngk8Fwup05JZ6kgXEGX'
p310
sg8
S'Walking The Wire'
p311
ssS'4vlbjBSMqycZk6t4HVRpnC'
p312
(dp313
g3
S'Ozuna'
p314
sg5
I20
sg6
S'https://open.spotify.com/track/4vlbjBSMqycZk6t4HVRpnC'
p315
sg8
S'No Quiere Enamorarse (Remix) [feat. Daddy Yankee]'
p316
ssS'7oVEtyuv9NBmnytsCIsY5I'
p317
(dp318
g3
S'Linkin Park'
p319
sg5
I1
sg6
S'https://open.spotify.com/track/7oVEtyuv9NBmnytsCIsY5I'
p320
sg8
S'BURN IT DOWN'
p321
ssS'3dQDid3IUNhZy1OehIfYfE'
p322
(dp323
g3
S'Wisin'
p324
sg5
I42
sg6
S'https://open.spotify.com/track/3dQDid3IUNhZy1OehIfYfE'
p325
sg8
S'Vacaciones'
p326
ssS'4VrWlk8IQxevMvERoX08iC'
p327
(dp328
g3
S'Sia'
p329
sg5
I12
sg6
S'https://open.spotify.com/track/4VrWlk8IQxevMvERoX08iC'
p330
sg8
S'Chandelier'
p331
ssS'4hiUYb2nb6NlfTP9CD38Pe'
p332
(dp333
g3
S'Ti\xc3\xabsto'
p334
sg5
I14
sg6
S'https://open.spotify.com/track/4hiUYb2nb6NlfTP9CD38Pe'
p335
sg8
S'On My Way'
p336
ssS'2rrWhFrcSZcZQ2SDKPGKQ6'
p337
(dp338
g3
S'Marama'
p339
sg5
I6
sg6
S'https://open.spotify.com/track/2rrWhFrcSZcZQ2SDKPGKQ6'
p340
sg8
S'Todo Comenz\xc3\xb3 Bailando'
p341
ssS'6O6M7pJLABmfBRoGZMu76Y'
p342
(dp343
g3
S'The Chainsmokers'
p344
sg5
I2
sg6
S'https://open.spotify.com/track/6O6M7pJLABmfBRoGZMu76Y'
p345
sg8
S'Roses'
p346
ssS'2Zw7rSucHm0MIph9gmNiSn'
p347
(dp348
g3
S'Alejandro Fernandez'
p349
sg5
I18
sg6
S'https://open.spotify.com/track/2Zw7rSucHm0MIph9gmNiSn'
p350
sg8
S'Quiero Que Vuelvas'
p351
ssS'3n58u3LOFw8mITLvfPvQBz'
p352
(dp353
g3
S'Cosculluela'
p354
sg5
I19
sg6
S'https://open.spotify.com/track/3n58u3LOFw8mITLvfPvQBz'
p355
sg8
S'Manicomio'
p356
ssS'7vGuf3Y35N4wmASOKLUVVU'
p357
(dp358
g3
S'Marshmello'
p359
sg5
I8
sg6
S'https://open.spotify.com/track/7vGuf3Y35N4wmASOKLUVVU'
p360
sg8
S'Silence'
p361
ssS'5hEM0JchdVzQ5PwvSfITeX'
p362
(dp363
g3
S'Piso 21'
p364
sg5
I42
sg6
S'https://open.spotify.com/track/5hEM0JchdVzQ5PwvSfITeX'
p365
sg8
S'Me Llamas (feat. Maluma) - Remix'
p366
ssS'7129iqBafaphfc3WPCGC0L'
p367
(dp368
g3
S'Lukas Graham'
p369
sg5
I15
sg6
S'https://open.spotify.com/track/7129iqBafaphfc3WPCGC0L'
p370
sg8
S'7 Years'
p371
ssS'4WjH9Bzt3kx7z8kl0awxh4'
p372
(dp373
g3
S'Major Lazer'
p374
sg5
I17
sg6
S'https://open.spotify.com/track/4WjH9Bzt3kx7z8kl0awxh4'
p375
sg8
S'Lean On (feat. M\xc3\x98 & DJ Snake)'
p376
ssS'57p8CBvPOxrvyCbn6ttl5r'
p377
(dp378
g3
S'Skrillex'
p379
sg5
I9
sg6
S'https://open.spotify.com/track/57p8CBvPOxrvyCbn6ttl5r'
p380
sg8
S'Would You Ever'
p381
ssS'2HNBSacyB6jm04n9dX2Mse'
p382
(dp383
g3
S'Marama'
p384
sg5
I4
sg6
S'https://open.spotify.com/track/2HNBSacyB6jm04n9dX2Mse'
p385
sg8
S'La Quiero Conocer'
p386
ssS'43jBqV3j3Xi1g6wO0bhIMd'
p387
(dp388
g3
S'Sage The Gemini'
p389
sg5
I9
sg6
S'https://open.spotify.com/track/43jBqV3j3Xi1g6wO0bhIMd'
p390
sg8
S'Now and Later'
p391
ssS'7oolFzHipTMg2nL7shhdz2'
p392
(dp393
g3
S'Ed Sheeran'
p394
sg5
I2
sg6
S'https://open.spotify.com/track/7oolFzHipTMg2nL7shhdz2'
p395
sg8
S'Eraser'
p396
ssS'4Yf5bqU3NK4kNOypcrLYwU'
p397
(dp398
g3
S'Linkin Park'
p399
sg5
I1
sg6
S'https://open.spotify.com/track/4Yf5bqU3NK4kNOypcrLYwU'
p400
sg8
S'Faint'
p401
ssS'1ei3g2hMYh1VKvik9FoUQR'
p402
(dp403
g3
S'Yandel'
p404
sg5
I2
sg6
S'https://open.spotify.com/track/1ei3g2hMYh1VKvik9FoUQR'
p405
sg8
S'S\xc3\xb3lo M\xc3\xada'
p406
ssS'0ERbK7qVqveCaBWIiYCrl3'
p407
(dp408
g3
S'Romeo Santos'
p409
sg5
I12
sg6
S'https://open.spotify.com/track/0ERbK7qVqveCaBWIiYCrl3'
p410
sg8
S'Bella y Sensual'
p411
ssS'3NdDpSvN911VPGivFlV5d0'
p412
(dp413
g3
S'ZAYN'
p414
sg5
I41
sg6
S'https://open.spotify.com/track/3NdDpSvN911VPGivFlV5d0'
p415
sg8
S'I Don\xe2\x80\x99t Wanna Live Forever (Fifty Shades Darker) - From Fifty Shades Darker (Original Motion Picture Soundtrack)'
p416
ssS'1iRvhKiXRElIH2Uf4gd95P'
p417
(dp418
g3
S'Jesse & Joy'
p419
sg5
I35
sg6
S'https://open.spotify.com/track/1iRvhKiXRElIH2Uf4gd95P'
p420
sg8
S'Dueles'
p421
ssS'2nnsC44cFHGgIXvKLadXUK'
p422
(dp423
g3
S'Bonny Lovy'
p424
sg5
I20
sg6
S'https://open.spotify.com/track/2nnsC44cFHGgIXvKLadXUK'
p425
sg8
S'Noche en Hawaii'
p426
ssS'0gb1J5UrTpzaU1s3nupgCd'
p427
(dp428
g3
S'Galantis'
p429
sg5
I7
sg6
S'https://open.spotify.com/track/0gb1J5UrTpzaU1s3nupgCd'
p430
sg8
S'No Money'
p431
ssS'03gvX91BuMzzXPyMjlYhAk'
p432
(dp433
g3
S'Los Angeles Azules'
p434
sg5
I1
sg6
S'https://open.spotify.com/track/03gvX91BuMzzXPyMjlYhAk'
p435
sg8
S'Mi Ni\xc3\xb1a Mujer'
p436
ssS'2eMwDehkIC1j68U6FA3Eiq'
p437
(dp438
g3
S'Lil Uzi Vert'
p439
sg5
I12
sg6
S'https://open.spotify.com/track/2eMwDehkIC1j68U6FA3Eiq'
p440
sg8
S'XO TOUR Llif3'
p441
ssS'0Nhu3zSYbEz32IYiobV75e'
p442
(dp443
g3
S'Halsey'
p444
sg5
I8
sg6
S'https://open.spotify.com/track/0Nhu3zSYbEz32IYiobV75e'
p445
sg8
S'Now Or Never'
p446
ssS'3CRDbSIZ4r5MsZ0YwxuEkn'
p447
(dp448
g3
S'Twenty One Pilots'
p449
sg5
I42
sg6
S'https://open.spotify.com/track/3CRDbSIZ4r5MsZ0YwxuEkn'
p450
sg8
S'Stressed Out'
p451
ssS'6mICuAdrwEjh6Y6lroV2Kg'
p452
(dp453
g3
S'Shakira'
p454
sg5
I42
sg6
S'https://open.spotify.com/track/6mICuAdrwEjh6Y6lroV2Kg'
p455
sg8
S'Chantaje'
p456
ssS'02IJFWVjLSM811RsySQusA'
p457
(dp458
g3
S'Melendi'
p459
sg5
I2
sg6
S'https://open.spotify.com/track/02IJFWVjLSM811RsySQusA'
p460
sg8
S'Destino o Casualidad'
p461
ssS'4okba5wu9mMLXx79DXLKi3'
p462
(dp463
g3
S'Daddy Yankee'
p464
sg5
I38
sg6
S'https://open.spotify.com/track/4okba5wu9mMLXx79DXLKi3'
p465
sg8
S'La Rompe Corazones'
p466
ssS'2tergQtVsHUBYlL76Kx93c'
p467
(dp468
g3
S'Jennifer Lopez'
p469
sg5
I4
sg6
S'https://open.spotify.com/track/2tergQtVsHUBYlL76Kx93c'
p470
sg8
S'Olv\xc3\xaddame y Pega la Vuelta'
p471
ssS'0s6yB0ZFl1LvYHAnGhXFga'
p472
(dp473
g3
S'Alejandro Sanz'
p474
sg5
I20
sg6
S'https://open.spotify.com/track/0s6yB0ZFl1LvYHAnGhXFga'
p475
sg8
S'Deja Que Te Bese'
p476
ssS'00lNx0OcTJrS3MKHcB80HY'
p477
(dp478
g3
S'Jax Jones'
p479
sg5
I6
sg6
S'https://open.spotify.com/track/00lNx0OcTJrS3MKHcB80HY'
p480
sg8
S"You Don't Know Me - Radio Edit"
p481
ssS'32DGGj6KlNuBr6WaqRxpxi'
p482
(dp483
g3
S'Charlie Puth'
p484
sg5
I1
sg6
S'https://open.spotify.com/track/32DGGj6KlNuBr6WaqRxpxi'
p485
sg8
S'How Long'
p486
ssS'7JNh1cfm0eXjqFVOzKLyau'
p487
(dp488
g3
S'Becky G'
p489
sg5
I13
sg6
S'https://open.spotify.com/track/7JNh1cfm0eXjqFVOzKLyau'
p490
sg8
S'Mayores'
p491
ssS'0tGAPnTFwRJA6FZgYZ0BAe'
p492
(dp493
g3
S'CHANO'
p494
sg5
I42
sg6
S'https://open.spotify.com/track/0tGAPnTFwRJA6FZgYZ0BAe'
p495
sg8
S'Carnavalintro'
p496
ssS'3noN1TxpjbjjmKqssghvg8'
p497
(dp498
g3
S'Cosculluela'
p499
sg5
I30
sg6
S'https://open.spotify.com/track/3noN1TxpjbjjmKqssghvg8'
p500
sg8
S'Si Me Dices Que Si (feat. Nicky Jam)'
p501
ssS'3umS4y3uQDkqekNjVpiRUs'
p502
(dp503
g3
S'Nicky Jam'
p504
sg5
I39
sg6
S'https://open.spotify.com/track/3umS4y3uQDkqekNjVpiRUs'
p505
sg8
S'El Amante'
p506
ssS'6uFsE1JgZ20EXyU0JQZbUR'
p507
(dp508
g3
S'Taylor Swift'
p509
sg5
I7
sg6
S'https://open.spotify.com/track/6uFsE1JgZ20EXyU0JQZbUR'
p510
sg8
S'Look What You Made Me Do'
p511
ssS'6SIrNxmmdbv1KUbFBu1PaN'
p512
(dp513
g3
S'Ozuna'
p514
sg5
I14
sg6
S'https://open.spotify.com/track/6SIrNxmmdbv1KUbFBu1PaN'
p515
sg8
S'Bebe (feat. Anuel AA)'
p516
ssS'6rQSrBHf7HlZjtcMZ4S4bO'
p517
(dp518
g3
S'J Balvin'
p519
sg5
I42
sg6
S'https://open.spotify.com/track/6rQSrBHf7HlZjtcMZ4S4bO'
p520
sg8
S'Safari'
p521
ssS'0L87MffumRNWrY2SNUFcvs'
p522
(dp523
g3
S'Milky Chance'
p524
sg5
I1
sg6
S'https://open.spotify.com/track/0L87MffumRNWrY2SNUFcvs'
p525
sg8
S'Cocoon'
p526
ssS'4xBjsLUSjcx2h7PcRikpQp'
p527
(dp528
g3
S'Camila Cabello'
p529
sg5
I1
sg6
S'https://open.spotify.com/track/4xBjsLUSjcx2h7PcRikpQp'
p530
sg8
S'OMG'
p531
ssS'1HCw8XKtTgWWU3JlEUR0qQ'
p532
(dp533
g3
S'Deorro'
p534
sg5
I1
sg6
S'https://open.spotify.com/track/1HCw8XKtTgWWU3JlEUR0qQ'
p535
sg8
S'Bailar - Radio Edit'
p536
ssS'7GX5flRQZVHRAGd6B4TmDO'
p537
(dp538
g3
S'Lil Uzi Vert'
p539
sg5
I7
sg6
S'https://open.spotify.com/track/7GX5flRQZVHRAGd6B4TmDO'
p540
sg8
S'XO TOUR Llif3'
p541
ssS'4F7A0DXBrmUAkp32uenhZt'
p542
(dp543
g3
S'The Weeknd'
p544
sg5
I1
sg6
S'https://open.spotify.com/track/4F7A0DXBrmUAkp32uenhZt'
p545
sg8
S'Party Monster'
p546
ssS'1fiwHsiitsbudIjFgmzrM4'
p547
(dp548
g3
S'Juan Mag\xc3\xa1n'
p549
sg5
I7
sg6
S'https://open.spotify.com/track/1fiwHsiitsbudIjFgmzrM4'
p550
sg8
S'S\xc3\xadgueme Bailando'
p551
ssS'5kRPPEWFJIMox5qIkQkiz5'
p552
(dp553
g3
S'Harry Styles'
p554
sg5
I1
sg6
S'https://open.spotify.com/track/5kRPPEWFJIMox5qIkQkiz5'
p555
sg8
S'Sweet Creature'
p556
ssS'0CokSRCu5hZgPxcZBaEzVE'
p557
(dp558
g3
S'Macklemore'
p559
sg5
I3
sg6
S'https://open.spotify.com/track/0CokSRCu5hZgPxcZBaEzVE'
p560
sg8
S'Glorious (feat. Skylar Grey)'
p561
ssS'4z3GJkrtH97Bj6fRta983T'
p562
(dp563
g3
S'Carlos Vives'
p564
sg5
I11
sg6
S'https://open.spotify.com/track/4z3GJkrtH97Bj6fRta983T'
p565
sg8
S'Robarte un Beso'
p566
ssS'7BKLCZ1jbUBVqRi2FVlTVw'
p567
(dp568
g3
S'The Chainsmokers'
p569
sg5
I42
sg6
S'https://open.spotify.com/track/7BKLCZ1jbUBVqRi2FVlTVw'
p570
sg8
S'Closer'
p571
ssS'7hDc8b7IXETo14hHIHdnhd'
p572
(dp573
g3
S'Drake'
p574
sg5
I18
sg6
S'https://open.spotify.com/track/7hDc8b7IXETo14hHIHdnhd'
p575
sg8
S'Passionfruit'
p576
ssS'2webQDZmtGioeu3zUUi9We'
p577
(dp578
g3
S'Sebastian Yatra'
p579
sg5
I34
sg6
S'https://open.spotify.com/track/2webQDZmtGioeu3zUUi9We'
p580
sg8
S'Traicionera - Remix'
p581
ssS'3RiPr603aXAoi4GHyXx0uy'
p582
(dp583
g3
S'Coldplay'
p584
sg5
I8
sg6
S'https://open.spotify.com/track/3RiPr603aXAoi4GHyXx0uy'
p585
sg8
S'Hymn For The Weekend'
p586
ssS'7IRuf7FrdQvOGs0g9mSNGr'
p587
(dp588
g3
S'Carlos Vives'
p589
sg5
I9
sg6
S'https://open.spotify.com/track/7IRuf7FrdQvOGs0g9mSNGr'
p590
sg8
S'La Bicicleta - Remix'
p591
ssS'0tICYNayWWhH9GPeFrfjfD'
p592
(dp593
g3
S'Kungs'
p594
sg5
I7
sg6
S'https://open.spotify.com/track/0tICYNayWWhH9GPeFrfjfD'
p595
sg8
S"This Girl (Kungs Vs. Cookin' On 3 Burners) - Kungs Vs. Cookin' On 3 Burners"
p596
ssS'5EnYT6F7wEcdege6mDHEfO'
p597
(dp598
g3
S'Drake'
p599
sg5
I6
sg6
S'https://open.spotify.com/track/5EnYT6F7wEcdege6mDHEfO'
p600
sg8
S'Signs'
p601
ssS'0XLOf9LhyazPX9Ld8jPiUq'
p602
(dp603
g3
S'Selena Gomez'
p604
sg5
I10
sg6
S'https://open.spotify.com/track/0XLOf9LhyazPX9Ld8jPiUq'
p605
sg8
S'Fetish (feat. Gucci Mane)'
p606
ssS'0PE1dlvMZeBqEbm4BtVVSZ'
p607
(dp608
g3
S'Gente De Zona'
p609
sg5
I22
sg6
S'https://open.spotify.com/track/0PE1dlvMZeBqEbm4BtVVSZ'
p610
sg8
S'Si No Vuelves'
p611
ssS'1p7m9H4H8s0Y7SgRm7j3ED'
p612
(dp613
g3
S'Andr\xc3\xa9s Calamaro'
p614
sg5
I2
sg6
S'https://open.spotify.com/track/1p7m9H4H8s0Y7SgRm7j3ED'
p615
sg8
S'Flaca'
p616
ssS'3xXBsjrbG1xQIm1xv1cKOt'
p617
(dp618
g3
S'Linkin Park'
p619
sg5
I1
sg6
S'https://open.spotify.com/track/3xXBsjrbG1xQIm1xv1cKOt'
p620
sg8
S'One More Light'
p621
ssS'6puxHBNwu2Nmm7uD3Rd2MP'
p622
(dp623
g3
S'C. Tangana'
p624
sg5
I11
sg6
S'https://open.spotify.com/track/6puxHBNwu2Nmm7uD3Rd2MP'
p625
sg8
S'Mala Mujer'
p626
ssS'3A7qX2QjDlPnazUsRk5y0M'
p627
(dp628
g3
S'David Guetta'
p629
sg5
I17
sg6
S'https://open.spotify.com/track/3A7qX2QjDlPnazUsRk5y0M'
p630
sg8
S'2U (feat. Justin Bieber)'
p631
ssS'2OALaHcDdKkjYEpAr0Qzab'
p632
(dp633
g3
S'Avicii'
p634
sg5
I8
sg6
S'https://open.spotify.com/track/2OALaHcDdKkjYEpAr0Qzab'
p635
sg8
S'Lonely Together (feat. Rita Ora)'
p636
ssS'2d8rQXA25Yk5ZE3XW1eTXs'
p637
(dp638
g3
S'Kevin Roldan'
p639
sg5
I2
sg6
S'https://open.spotify.com/track/2d8rQXA25Yk5ZE3XW1eTXs'
p640
sg8
S'Me Gustas'
p641
ssS'56lBX2WHqfGuoeZxZvUnVj'
p642
(dp643
g3
S'Imagine Dragons'
p644
sg5
I3
sg6
S'https://open.spotify.com/track/56lBX2WHqfGuoeZxZvUnVj'
p645
sg8
S'Thunder'
p646
ssS'5nCtCCB5i1OfbADvynNw0i'
p647
(dp648
g3
S'Ed Sheeran'
p649
sg5
I23
sg6
S'https://open.spotify.com/track/5nCtCCB5i1OfbADvynNw0i'
p650
sg8
S'Shape of You (Latin Remix) [feat. Zion & Lennox]'
p651
ssS'5qqabIl2vWzo9ApSC317sa'
p652
(dp653
g3
S'Oasis'
p654
sg5
I23
sg6
S'https://open.spotify.com/track/5qqabIl2vWzo9ApSC317sa'
p655
sg8
S'Wonderwall - Remastered'
p656
ssS'4IWAyPf1KMq7JCyGeCjTeH'
p657
(dp658
g3
S'Imagine Dragons'
p659
sg5
I2
sg6
S'https://open.spotify.com/track/4IWAyPf1KMq7JCyGeCjTeH'
p660
sg8
S'Whatever It Takes'
p661
ssS'2mfUa8bLs2s5N4VaqJZ4lZ'
p662
(dp663
g3
S'Hailee Steinfeld'
p664
sg5
I1
sg6
S'https://open.spotify.com/track/2mfUa8bLs2s5N4VaqJZ4lZ'
p665
sg8
S'Most Girls'
p666
ssS'7fwXWKdDNI5IutOMc5OKYw'
p667
(dp668
g3
S'J Balvin'
p669
sg5
I2
sg6
S'https://open.spotify.com/track/7fwXWKdDNI5IutOMc5OKYw'
p670
sg8
S'Mi Gente (feat. Beyonc\xc3\xa9)'
p671
ssS'6YZdkObH88npeKrrkb8Ggf'
p672
(dp673
g3
S'Enrique Iglesias'
p674
sg5
I30
sg6
S'https://open.spotify.com/track/6YZdkObH88npeKrrkb8Ggf'
p675
sg8
S'DUELE EL CORAZON'
p676
ssS'0Pjsm4AaJGPOXHoB6xCgJB'
p677
(dp678
g3
S'Man\xc3\xa1'
p679
sg5
I5
sg6
S'https://open.spotify.com/track/0Pjsm4AaJGPOXHoB6xCgJB'
p680
sg8
S'Mariposa traicionera'
p681
ssS'6nsLzJfvp5OLd4mgqUJkpq'
p682
(dp683
g3
S'Avicii'
p684
sg5
I4
sg6
S'https://open.spotify.com/track/6nsLzJfvp5OLd4mgqUJkpq'
p685
sg8
S'Waiting For Love'
p686
ssS'7LEydI5NfjY6mZfKwYIptZ'
p687
(dp688
g3
S'Fifth Harmony'
p689
sg5
I1
sg6
S'https://open.spotify.com/track/7LEydI5NfjY6mZfKwYIptZ'
p690
sg8
S'Down'
p691
ssS'3FiE2d325mIOc4YjkSLVJR'
p692
(dp693
g3
S'Ariana Grande'
p694
sg5
I3
sg6
S'https://open.spotify.com/track/3FiE2d325mIOc4YjkSLVJR'
p695
sg8
S'Everyday'
p696
ssS'3dnOHn0A5q3ny1LLLnSAty'
p697
(dp698
g3
S'Yandel'
p699
sg5
I5
sg6
S'https://open.spotify.com/track/3dnOHn0A5q3ny1LLLnSAty'
p700
sg8
S'Mi Religi\xc3\xb3n'
p701
ssS'51dNexiESqcJLsGLrmg1Nv'
p702
(dp703
g3
S'Los Angeles Azules'
p704
sg5
I1
sg6
S'https://open.spotify.com/track/51dNexiESqcJLsGLrmg1Nv'
p705
sg8
S'C\xc3\xb3mo Te Voy A Olvidar'
p706
ssS'1OmcAT5Y8eg5bUPv9qJT4R'
p707
(dp708
g3
S'Post Malone'
p709
sg5
I3
sg6
S'https://open.spotify.com/track/1OmcAT5Y8eg5bUPv9qJT4R'
p710
sg8
S'rockstar'
p711
ssS'0azC730Exh71aQlOt9Zj3y'
p712
(dp713
g3
S'Calvin Harris'
p714
sg5
I24
sg6
S'https://open.spotify.com/track/0azC730Exh71aQlOt9Zj3y'
p715
sg8
S'This Is What You Came For'
p716
ssS'2Gl0FzuLxflY6nPifJp5Dr'
p717
(dp718
g3
S'Kygo'
p719
sg5
I19
sg6
S'https://open.spotify.com/track/2Gl0FzuLxflY6nPifJp5Dr'
p720
sg8
S'First Time'
p721
ssS'7i2DJ88J7jQ8K7zqFX2fW8'
p722
(dp723
g3
S'Halsey'
p724
sg5
I2
sg6
S'https://open.spotify.com/track/7i2DJ88J7jQ8K7zqFX2fW8'
p725
sg8
S'Now Or Never'
p726
ssS'6stYbAJgTszHAHZMPxWWCY'
p727
(dp728
g3
S'IAmChino'
p729
sg5
I42
sg6
S'https://open.spotify.com/track/6stYbAJgTszHAHZMPxWWCY'
p730
sg8
S'Ay Mi Dios'
p731
ssS'5sNESr6pQfIhL3krM8CtZn'
p732
(dp733
g3
S'JAY Z'
p734
sg5
I1
sg6
S'https://open.spotify.com/track/5sNESr6pQfIhL3krM8CtZn'
p735
sg8
S'Numb / Encore'
p736
ssS'7LFLJWIQFHsaDw5FOltT5Z'
p737
(dp738
g3
S'Xantos'
p739
sg5
I15
sg6
S'https://open.spotify.com/track/7LFLJWIQFHsaDw5FOltT5Z'
p740
sg8
S'Bailame despacio - Piso 21 Remix'
p741
ssS'68EMU2RD1ECNeOeJ5qAXCV'
p742
(dp743
g3
S'Charlie Puth'
p744
sg5
I42
sg6
S'https://open.spotify.com/track/68EMU2RD1ECNeOeJ5qAXCV'
p745
sg8
S"We Don't Talk Anymore (feat. Selena Gomez)"
p746
ssS'19CAKZdXVNyZrfmF60RAj3'
p747
(dp748
g3
S'Romeo Santos'
p749
sg5
I4
sg6
S'https://open.spotify.com/track/19CAKZdXVNyZrfmF60RAj3'
p750
sg8
S'Imitadora'
p751
ssS'77a9893yxuz36cBUmBzA8E'
p752
(dp753
g3
S'Carlos Vives'
p754
sg5
I23
sg6
S'https://open.spotify.com/track/77a9893yxuz36cBUmBzA8E'
p755
sg8
S'Al Filo de Tu Amor'
p756
ssS'1j4kHkkpqZRBwE0A4CN4Yv'
p757
(dp758
g3
S'ZAYN'
p759
sg5
I5
sg6
S'https://open.spotify.com/track/1j4kHkkpqZRBwE0A4CN4Yv'
p760
sg8
S'Dusk Till Dawn - Radio Edit'
p761
ssS'3DXncPQOG4VBw3QHh3S817'
p762
(dp763
g3
S'DJ Khaled'
p764
sg5
I20
sg6
S'https://open.spotify.com/track/3DXncPQOG4VBw3QHh3S817'
p765
sg8
S"I'm the One"
p766
ssS'2q6tgiA9tpb6DMguABwCWE'
p767
(dp768
g3
S'John Legend'
p769
sg5
I39
sg6
S'https://open.spotify.com/track/2q6tgiA9tpb6DMguABwCWE'
p770
sg8
S'All of Me'
p771
ssS'4VuS959DSpr82t3qBqCrWG'
p772
(dp773
g3
S'Ed Sheeran'
p774
sg5
I2
sg6
S'https://open.spotify.com/track/4VuS959DSpr82t3qBqCrWG'
p775
sg8
S'Supermarket Flowers'
p776
ssS'3nqrj9bM1clIkejk7BVPtX'
p777
(dp778
g3
S'Karol G'
p779
sg5
I21
sg6
S'https://open.spotify.com/track/3nqrj9bM1clIkejk7BVPtX'
p780
sg8
S'A Ella'
p781
ssS'0Zx8khUcEfCFK2AEoIhC92'
p782
(dp783
g3
S'Snakehips'
p784
sg5
I4
sg6
S'https://open.spotify.com/track/0Zx8khUcEfCFK2AEoIhC92'
p785
sg8
S"Don't Leave"
p786
ssS'2LsbizbOeNa4x6qsi2jAMb'
p787
(dp788
g3
S'Jarabe De Palo'
p789
sg5
I2
sg6
S'https://open.spotify.com/track/2LsbizbOeNa4x6qsi2jAMb'
p790
sg8
S'La flaca'
p791
ssS'3mxWDt0eKXfl4C1e4oIP0J'
p792
(dp793
g3
S'Ozuna'
p794
sg5
I1
sg6
S'https://open.spotify.com/track/3mxWDt0eKXfl4C1e4oIP0J'
p795
sg8
S'Se Prepar\xc3\xb3'
p796
ssS'7MMRoGvm7uhoUVhGvHJ3yW'
p797
(dp798
g3
S'Manuel Turizo'
p799
sg5
I10
sg6
S'https://open.spotify.com/track/7MMRoGvm7uhoUVhGvHJ3yW'
p800
sg8
S'Una Lady Como T\xc3\xba - Remix'
p801
ssS'61HHDBLqF3AmSvLfHKNGd2'
p802
(dp803
g3
S'Karol G'
p804
sg5
I15
sg6
S'https://open.spotify.com/track/61HHDBLqF3AmSvLfHKNGd2'
p805
sg8
S'Ahora Me Llama'
p806
ssS'1lxswgIpzV6HhENRvkflES'
p807
(dp808
g3
S'Farruko'
p809
sg5
I42
sg6
S'https://open.spotify.com/track/1lxswgIpzV6HhENRvkflES'
p810
sg8
S'Chillax'
p811
ssS'10nQ3Pj0o1XotcikgJPVKD'
p812
(dp813
g3
S'Bad Bunny'
p814
sg5
I9
sg6
S'https://open.spotify.com/track/10nQ3Pj0o1XotcikgJPVKD'
p815
sg8
S'Tu No Metes Cabra'
p816
ssS'6k2AsDKvvip54F59DIn1Mv'
p817
(dp818
g3
S'Man\xc3\xa1'
p819
sg5
I1
sg6
S'https://open.spotify.com/track/6k2AsDKvvip54F59DIn1Mv'
p820
sg8
S'Se me olvid\xc3\xb3 otra vez (unplugged)'
p821
ssS'61WbtB6ujkpNAsAf5LjF4b'
p822
(dp823
g3
S'Katy Perry'
p824
sg5
I10
sg6
S'https://open.spotify.com/track/61WbtB6ujkpNAsAf5LjF4b'
p825
sg8
S'Bon app\xc3\xa9tit'
p826
ssS'7ofxPmTNMj2GP07g1VZa0O'
p827
(dp828
g3
S'Alex Sensation'
p829
sg5
I10
sg6
S'https://open.spotify.com/track/7ofxPmTNMj2GP07g1VZa0O'
p830
sg8
S'Que Va'
p831
ssS'5tf1VVWniHgryyumXyJM7w'
p832
(dp833
g3
S'Robin Schulz'
p834
sg5
I1
sg6
S'https://open.spotify.com/track/5tf1VVWniHgryyumXyJM7w'
p835
sg8
S'Sugar (feat. Francesco Yates)'
p836
ssS'6WMYFEd4MJDIjJARHnOxoN'
p837
(dp838
g3
S'Major Lazer'
p839
sg5
I10
sg6
S'https://open.spotify.com/track/6WMYFEd4MJDIjJARHnOxoN'
p840
sg8
S'Buscando Huellas (feat. J Balvin & Sean Paul)'
p841
ssS'3BY2mafsbsoKGqS380Xnuz'
p842
(dp843
g3
S'Don Omar'
p844
sg5
I42
sg6
S'https://open.spotify.com/track/3BY2mafsbsoKGqS380Xnuz'
p845
sg8
S'Te Quiero Pa\xc2\xb4Mi'
p846
ssS'4JAyIDXOqNM6qHuZML01uX'
p847
(dp848
g3
g197
sg5
I1
sg6
S'https://open.spotify.com/track/4JAyIDXOqNM6qHuZML01uX'
p849
sg8
g197
ssS'0EpFfFZpCuqYFzHvxOtrZS'
p850
(dp851
g3
S'Yandel'
p852
sg5
I28
sg6
S'https://open.spotify.com/track/0EpFfFZpCuqYFzHvxOtrZS'
p853
sg8
S'Encantadora - Remix'
p854
ssS'5LYQSNHZxEA880URXFHg6h'
p855
(dp856
g3
S'Lana Del Rey'
p857
sg5
I6
sg6
S'https://open.spotify.com/track/5LYQSNHZxEA880URXFHg6h'
p858
sg8
S'Lust for Life (with The Weeknd)'
p859
ssS'7JpzzaCzljQdfnG7wPRqSe'
p860
(dp861
g3
S'Prince Royce'
p862
sg5
I22
sg6
S'https://open.spotify.com/track/7JpzzaCzljQdfnG7wPRqSe'
p863
sg8
S'Ganas Locas'
p864
ssS'5hYTyyh2odQKphUbMqc5gN'
p865
(dp866
g3
S'Alessia Cara'
p867
sg5
I14
sg6
S'https://open.spotify.com/track/5hYTyyh2odQKphUbMqc5gN'
p868
sg8
S"How Far I'll Go - From Moana"
p869
ssS'72jbDTw1piOOj770jWNeaG'
p870
(dp871
g3
S'The Chainsmokers'
p872
sg5
I35
sg6
S'https://open.spotify.com/track/72jbDTw1piOOj770jWNeaG'
p873
sg8
S'Paris'
p874
ssS'3YmA3gZqlXl0MkwhkVKxRy'
p875
(dp876
g3
S'Man\xc3\xa1'
p877
sg5
I9
sg6
S'https://open.spotify.com/track/3YmA3gZqlXl0MkwhkVKxRy'
p878
sg8
S'Mi verdad - feat. Shakira'
p879
ssS'02yD6Wmpx5kLAoXLQOnuEb'
p880
(dp881
g3
S'Jesse & Joy'
p882
sg5
I4
sg6
S'https://open.spotify.com/track/02yD6Wmpx5kLAoXLQOnuEb'
p883
sg8
S'Me soltaste'
p884
ssS'6vBeZiyYQmb0eD1Fj3RThI'
p885
(dp886
g3
S'CHANO'
p887
sg5
I1
sg6
S'https://open.spotify.com/track/6vBeZiyYQmb0eD1Fj3RThI'
p888
sg8
S'Naistumichiu'
p889
ssS'1VUm0rdXGDjAOApxFxGFJ4'
p890
(dp891
g3
S'Osmani Garcia La Voz'
p892
sg5
I17
sg6
S'https://open.spotify.com/track/1VUm0rdXGDjAOApxFxGFJ4'
p893
sg8
S'Baila Toma'
p894
ssS'0dA2Mk56wEzDgegdC6R17g'
p895
(dp896
g3
S'Zedd'
p897
sg5
I29
sg6
S'https://open.spotify.com/track/0dA2Mk56wEzDgegdC6R17g'
p898
sg8
S'Stay (with Alessia Cara)'
p899
ssS'3Ytr1SUCUi6J3L9dRFx5iH'
p900
(dp901
g3
S'Major Lazer'
p902
sg5
I17
sg6
S'https://open.spotify.com/track/3Ytr1SUCUi6J3L9dRFx5iH'
p903
sg8
S'Know No Better (feat. Quavo)'
p904
ssS'7nZmah2llfvLDiUjm0kiyz'
p905
(dp906
g3
S'Justin Bieber'
p907
sg5
I8
sg6
S'https://open.spotify.com/track/7nZmah2llfvLDiUjm0kiyz'
p908
sg8
S'Friends (with BloodPop\xc2\xae)'
p909
ssS'5Hiu520lWG4YPrMugnNnkP'
p910
(dp911
g3
S'Tommy Torres'
p912
sg5
I6
sg6
S'https://open.spotify.com/track/5Hiu520lWG4YPrMugnNnkP'
p913
sg8
S'Tu y Yo (feat. Daddy Yankee)'
p914
ssS'2SmgFAhQkQCQPyBiBxR6Te'
p915
(dp916
g3
S'Natti Natasha'
p917
sg5
I6
sg6
S'https://open.spotify.com/track/2SmgFAhQkQCQPyBiBxR6Te'
p918
sg8
S'Criminal'
p919
ssS'7MHN1aCFtLXjownGhvEQlF'
p920
(dp921
g3
S'Manuel Turizo'
p922
sg5
I24
sg6
S'https://open.spotify.com/track/7MHN1aCFtLXjownGhvEQlF'
p923
sg8
S'Una Lady Como T\xc3\xba'
p924
ssS'7mePSuy5mUOuCvzQaIKULW'
p925
(dp926
g3
S'Bonny Lovy'
p927
sg5
I12
sg6
S'https://open.spotify.com/track/7mePSuy5mUOuCvzQaIKULW'
p928
sg8
S'Quien Ser\xc3\xa1'
p929
ssS'22eADXu8DfOAUEDw4vU8qy'
p930
(dp931
g3
S'Chris Jeday'
p932
sg5
I29
sg6
S'https://open.spotify.com/track/22eADXu8DfOAUEDw4vU8qy'
p933
sg8
S'Ahora Dice'
p934
ssS'347TStOSY6IOqMB84Rpxwk'
p935
(dp936
g3
S'Marama'
p937
sg5
I8
sg6
S'https://open.spotify.com/track/347TStOSY6IOqMB84Rpxwk'
p938
sg8
S'Nena'
p939
ssS'2BesEfIHzUb7viZwUkSAhE'
p940
(dp941
g3
S'Alexis & Fido'
p942
sg5
I6
sg6
S'https://open.spotify.com/track/2BesEfIHzUb7viZwUkSAhE'
p943
sg8
S'Una en un Mill\xc3\xb3n - Remix'
p944
ssS'2dfHh7ECGxfNqZTQno09Vk'
p945
(dp946
g3
S'Ed Sheeran'
p947
sg5
I2
sg6
S'https://open.spotify.com/track/2dfHh7ECGxfNqZTQno09Vk'
p948
sg8
S"Hearts Don't Break Around Here"
p949
ssS'6lanRgr6wXibZr8KgzXxBl'
p950
(dp951
g3
S'Christina Perri'
p952
sg5
I19
sg6
S'https://open.spotify.com/track/6lanRgr6wXibZr8KgzXxBl'
p953
sg8
S'A Thousand Years'
p954
ssS'0H7cz1bR7w9PulJL7Na774'
p955
(dp956
g3
S'Felipe Pel\xc3\xa1ez'
p957
sg5
I13
sg6
S'https://open.spotify.com/track/0H7cz1bR7w9PulJL7Na774'
p958
sg8
S'Vivo Pensando En Ti'
p959
ssS'0B38YZydPDJz9N4uR9hULg'
p960
(dp961
g3
S'Bonny Lovy'
p962
sg5
I40
sg6
S'https://open.spotify.com/track/0B38YZydPDJz9N4uR9hULg'
p963
sg8
S'Muchachita'
p964
ssS'67HFddjbFiRAIMllaZoZ7d'
p965
(dp966
g3
S'Diego Merritt'
p967
sg5
I2
sg6
S'https://open.spotify.com/track/67HFddjbFiRAIMllaZoZ7d'
p968
sg8
S'S\xc3\xb3lo quiero darte amor'
p969
ssS'7l9CE3wmEGOUYw1j4ETjnL'
p970
(dp971
g3
S'Gorillaz'
p972
sg5
I1
sg6
S'https://open.spotify.com/track/7l9CE3wmEGOUYw1j4ETjnL'
p973
sg8
S'Saturnz Barz (feat. Popcaan)'
p974
ssS'7MQyW8aDApcAVBhwj1mJTU'
p975
(dp976
g3
S'Luis Vega'
p977
sg5
I2
sg6
S'https://open.spotify.com/track/7MQyW8aDApcAVBhwj1mJTU'
p978
sg8
S'Baby no llores'
p979
ssS'343YBumqHu19cGoGARUTsd'
p980
(dp981
g3
S'Drake'
p982
sg5
I14
sg6
S'https://open.spotify.com/track/343YBumqHu19cGoGARUTsd'
p983
sg8
S'Fake Love'
p984
ssS'5HDPtsnyb3maFmPL8LLUTG'
p985
(dp986
g3
S'Ed Sheeran'
p987
sg5
I3
sg6
S'https://open.spotify.com/track/5HDPtsnyb3maFmPL8LLUTG'
p988
sg8
S'New Man'
p989
ssS'6WbADFqMvR8N5u0BvtsWQE'
p990
(dp991
g3
S'Avicii'
p992
sg5
I9
sg6
S'https://open.spotify.com/track/6WbADFqMvR8N5u0BvtsWQE'
p993
sg8
S'Without You (feat. Sandro Cavazza)'
p994
ssS'75JFxkI2RXiU7L9VXzMkle'
p995
(dp996
g3
S'Coldplay'
p997
sg5
I42
sg6
S'https://open.spotify.com/track/75JFxkI2RXiU7L9VXzMkle'
p998
sg8
S'The Scientist'
p999
ssS'4pdPtRcBmOSQDlJ3Fk945m'
p1000
(dp1001
g3
S'DJ Snake'
p1002
sg5
I42
sg6
S'https://open.spotify.com/track/4pdPtRcBmOSQDlJ3Fk945m'
p1003
sg8
S'Let Me Love You'
p1004
ssS'7lRsNbdOGykkMAgsqs4R1C'
p1005
(dp1006
g3
S'Nacho'
p1007
sg5
I26
sg6
S'https://open.spotify.com/track/7lRsNbdOGykkMAgsqs4R1C'
p1008
sg8
S'B\xc3\xa1ilame'
p1009
ssS'4OaTpLJIa2harufGxfOPUu'
p1010
(dp1011
g3
S'Xantos'
p1012
sg5
I42
sg6
S'https://open.spotify.com/track/4OaTpLJIa2harufGxfOPUu'
p1013
sg8
S'Bailame Despacio'
p1014
ssS'5N8nNuTmIzkZOfcxXlygUw'
p1015
(dp1016
g3
S'J Balvin'
p1017
sg5
I11
sg6
S'https://open.spotify.com/track/5N8nNuTmIzkZOfcxXlygUw'
p1018
sg8
S'Ginza'
p1019
ssS'3QwBODjSEzelZyVjxPOHdq'
p1020
(dp1021
g3
S'Zion & Lennox'
p1022
sg5
I42
sg6
S'https://open.spotify.com/track/3QwBODjSEzelZyVjxPOHdq'
p1023
sg8
S'Otra Vez (feat. J Balvin)'
p1024
ssS'1OAiWI2oPmglaOiv9fdioU'
p1025
(dp1026
g3
S'Coldplay'
p1027
sg5
I18
sg6
S'https://open.spotify.com/track/1OAiWI2oPmglaOiv9fdioU'
p1028
sg8
S'Hymn For The Weekend - Seeb Remix'
p1029
ssS'209gZgcfLq2aUuu51vOWBl'
p1030
(dp1031
g3
S'CNCO'
p1032
sg5
I27
sg6
S'https://open.spotify.com/track/209gZgcfLq2aUuu51vOWBl'
p1033
sg8
S'Hey DJ'
p1034
ssS'3g8HfTlZYA72i9V2JPwXOb'
p1035
(dp1036
g3
S'Daddy Yankee'
p1037
sg5
I1
sg6
S'https://open.spotify.com/track/3g8HfTlZYA72i9V2JPwXOb'
p1038
sg8
S'Otra Cosa'
p1039
ssS'5P45f6HakSHDwdFj5dO5K5'
p1040
(dp1041
g3
S'Wisin'
p1042
sg5
I13
sg6
S'https://open.spotify.com/track/5P45f6HakSHDwdFj5dO5K5'
p1043
sg8
S'Esc\xc3\xa1pate Conmigo - Remix'
p1044
ssS'5OOkp4U9P9oL23maHFHL1h'
p1045
(dp1046
g3
S'Desiigner'
p1047
sg5
I7
sg6
S'https://open.spotify.com/track/5OOkp4U9P9oL23maHFHL1h'
p1048
sg8
S'Panda'
p1049
ssS'72Q0FQQo32KJloivv5xge2'
p1050
(dp1051
g3
S'DJ Khaled'
p1052
sg5
I3
sg6
S'https://open.spotify.com/track/72Q0FQQo32KJloivv5xge2'
p1053
sg8
S"I'm the One"
p1054
ssS'6urlj8N8TL3MK0ATNGIZYW'
p1055
(dp1056
g3
S'Major Lazer'
p1057
sg5
I7
sg6
S'https://open.spotify.com/track/6urlj8N8TL3MK0ATNGIZYW'
p1058
sg8
S'Buscando Huellas (feat. J Balvin & Sean Paul)'
p1059
ssS'0u13src3QcditRU5VPduML'
p1060
(dp1061
g3
S'Mon Laferte'
p1062
sg5
I30
sg6
S'https://open.spotify.com/track/0u13src3QcditRU5VPduML'
p1063
sg8
S'Am\xc3\xa1rrame'
p1064
ssS'3qmvK8QARSPkFTuKeIXSbs'
p1065
(dp1066
g3
S'Linkin Park'
p1067
sg5
I1
sg6
S'https://open.spotify.com/track/3qmvK8QARSPkFTuKeIXSbs'
p1068
sg8
S'Bleed It Out'
p1069
ssS'0d9wwtTyMxYzIFJs8CKbiz'
p1070
(dp1071
g3
S'Major Lazer'
p1072
sg5
I1
sg6
S'https://open.spotify.com/track/0d9wwtTyMxYzIFJs8CKbiz'
p1073
sg8
S'Know No Better (feat. Travis Scott & Quavo) - Bad Bunny Remix'
p1074
ssS'3cFsmM51N5zMAuu1nNY4Tw'
p1075
(dp1076
g3
S'Sean Paul'
p1077
sg5
I12
sg6
S'https://open.spotify.com/track/3cFsmM51N5zMAuu1nNY4Tw'
p1078
sg8
S'No Lie'
p1079
ssS'79cuOz3SPQTuFrp8WgftAu'
p1080
(dp1081
g3
S'Shawn Mendes'
p1082
sg5
I25
sg6
S'https://open.spotify.com/track/79cuOz3SPQTuFrp8WgftAu'
p1083
sg8
S"There's Nothing Holdin' Me Back"
p1084
ssS'0lmdsH1MIoLsMymnNpd6HU'
p1085
(dp1086
g3
S'Dante Klein'
p1087
sg5
I7
sg6
S'https://open.spotify.com/track/0lmdsH1MIoLsMymnNpd6HU'
p1088
sg8
S'Let Me Hold You (Turn Me On)'
p1089
ssS'7AtlMCIauSQZqiXSlbBPW6'
p1090
(dp1091
g3
S'J Balvin'
p1092
sg5
I29
sg6
S'https://open.spotify.com/track/7AtlMCIauSQZqiXSlbBPW6'
p1093
sg8
S'Bobo'
p1094
ssS'2xjcDF21U2ccgE2LEeiMbf'
p1095
(dp1096
g3
S'Marama'
p1097
sg5
I19
sg6
S'https://open.spotify.com/track/2xjcDF21U2ccgE2LEeiMbf'
p1098
sg8
S'Loquita'
p1099
ssS'0gzcET27nREY6aD8LJU9wD'
p1100
(dp1101
g3
S'Marama'
p1102
sg5
I36
sg6
S'https://open.spotify.com/track/0gzcET27nREY6aD8LJU9wD'
p1103
sg8
S'Noche Loca'
p1104
ssS'3eR23VReFzcdmS7TYCrhCe'
p1105
(dp1106
g3
S'Kygo'
p1107
sg5
I33
sg6
S'https://open.spotify.com/track/3eR23VReFzcdmS7TYCrhCe'
p1108
sg8
S"It Ain't Me (with Selena Gomez)"
p1109
ssS'78DVpEWwmJFC25KGz8fJuE'
p1110
(dp1111
g3
S'Man\xc3\xa1'
p1112
sg5
I4
sg6
S'https://open.spotify.com/track/78DVpEWwmJFC25KGz8fJuE'
p1113
sg8
S'Clavado en un bar'
p1114
ssS'1WOJTQfNUEkLlsinPP95VM'
p1115
(dp1116
g3
S'Zion & Lennox'
p1117
sg5
I13
sg6
S'https://open.spotify.com/track/1WOJTQfNUEkLlsinPP95VM'
p1118
sg8
S'Embri\xc3\xa1game (feat. Don Omar) - Remix'
p1119
ssS'772io14jrMTxGJbijtDccQ'
p1120
(dp1121
g3
S'Juan Mag\xc3\xa1n'
p1122
sg5
I12
sg6
S'https://open.spotify.com/track/772io14jrMTxGJbijtDccQ'
p1123
sg8
S'Baila Conmigo'
p1124
ssS'62clthR0fZmLbxeqxVJatQ'
p1125
(dp1126
g3
S'Sin Bandera'
p1127
sg5
I1
sg6
S'https://open.spotify.com/track/62clthR0fZmLbxeqxVJatQ'
p1128
sg8
S'Que Lloro'
p1129
ssS'58IL315gMSTD37DOZPJ2hf'
p1130
(dp1131
g3
S'Daddy Yankee'
p1132
sg5
I33
sg6
S'https://open.spotify.com/track/58IL315gMSTD37DOZPJ2hf'
p1133
sg8
S'Shaky Shaky'
p1134
ssS'77KHmKnBmVGTjRCeMVXpWH'
p1135
(dp1136
g3
S'Kevin Roldan'
p1137
sg5
I10
sg6
S'https://open.spotify.com/track/77KHmKnBmVGTjRCeMVXpWH'
p1138
sg8
S'Ruleta Rusa'
p1139
ssS'1AhDOtG9vPSOmsWgNW0BEY'
p1140
(dp1141
g3
S'Queen'
p1142
sg5
I27
sg6
S'https://open.spotify.com/track/1AhDOtG9vPSOmsWgNW0BEY'
p1143
sg8
S'Bohemian Rhapsody - Remastered 2011'
p1144
ssS'5bZtRlMBU76vHuDOb1GM5u'
p1145
(dp1146
g3
S'Jonas Blue'
p1147
sg5
I1
sg6
S'https://open.spotify.com/track/5bZtRlMBU76vHuDOb1GM5u'
p1148
sg8
S'Perfect Strangers'
p1149
ssS'0Zbbxnx4SGGHoIow4PpISP'
p1150
(dp1151
g3
S'Kygo'
p1152
sg5
I2
sg6
S'https://open.spotify.com/track/0Zbbxnx4SGGHoIow4PpISP'
p1153
sg8
S'Stargazing'
p1154
ssS'3GpvoKKWZyTwgbLEM9RmWM'
p1155
(dp1156
g3
S'Cali Y El Dandee'
p1157
sg5
I42
sg6
S'https://open.spotify.com/track/3GpvoKKWZyTwgbLEM9RmWM'
p1158
sg8
S'Por Fin Te Encontr\xc3\xa9'
p1159
ssS'0JiVRyTJcJnmlwCZ854K4p'
p1160
(dp1161
g3
S'Alan Walker'
p1162
sg5
I22
sg6
S'https://open.spotify.com/track/0JiVRyTJcJnmlwCZ854K4p'
p1163
sg8
S'Alone'
p1164
ssS'2SSYqDX8KTgy01NlqtUo0F'
p1165
(dp1166
g3
S'Reik'
p1167
sg5
I42
sg6
S'https://open.spotify.com/track/2SSYqDX8KTgy01NlqtUo0F'
p1168
sg8
S'Ya Me Enter\xc3\xa9 (feat. Nicky Jam) - Urban Version'
p1169
ssS'3hRZsdTF5uyGA2uhNqEuhm'
p1170
(dp1171
g3
S'Niall Horan'
p1172
sg5
I4
sg6
S'https://open.spotify.com/track/3hRZsdTF5uyGA2uhNqEuhm'
p1173
sg8
S'Too Much To Ask'
p1174
ssS'6sMPwcpYtxm1mlgYbp1B0t'
p1175
(dp1176
g3
S'Jacob Forever'
p1177
sg5
I10
sg6
S'https://open.spotify.com/track/6sMPwcpYtxm1mlgYbp1B0t'
p1178
sg8
S'Hasta Que Se Seque el Malec\xc3\xb3n - Remix'
p1179
ssS'4aWmUDTfIPGksMNLV2rQP2'
p1180
(dp1181
g3
S'Luis Fonsi'
p1182
sg5
I39
sg6
S'https://open.spotify.com/track/4aWmUDTfIPGksMNLV2rQP2'
p1183
sg8
S'Despacito (Featuring Daddy Yankee)'
p1184
ssS'35QZaWQRkmnAVqBF1TLCxQ'
p1185
(dp1186
g3
S'Ed Sheeran'
p1187
sg5
I1
sg6
S'https://open.spotify.com/track/35QZaWQRkmnAVqBF1TLCxQ'
p1188
sg8
S'Nancy Mulligan'
p1189
ssS'25C5CowdsfXld2jJanbiex'
p1190
(dp1191
g3
S'Demi Lovato'
p1192
sg5
I11
sg6
S'https://open.spotify.com/track/25C5CowdsfXld2jJanbiex'
p1193
sg8
S'Sorry Not Sorry'
p1194
ssS'2Z8WuEywRWYTKe1NybPQEW'
p1195
(dp1196
g3
S'Twenty One Pilots'
p1197
sg5
I42
sg6
S'https://open.spotify.com/track/2Z8WuEywRWYTKe1NybPQEW'
p1198
sg8
S'Ride'
p1199
ssS'0EhyUkKRh4olNJY0lJ9rhG'
p1200
(dp1201
g3
S'Xantos'
p1202
sg5
I3
sg6
S'https://open.spotify.com/track/0EhyUkKRh4olNJY0lJ9rhG'
p1203
sg8
S'Bailame Despacio - Piso 21 Remix'
p1204
ssS'6JV2JOEocMgcZxYSZelKcc'
p1205
(dp1206
g3
S'Justin Timberlake'
p1207
sg5
I26
sg6
S'https://open.spotify.com/track/6JV2JOEocMgcZxYSZelKcc'
p1208
sg8
S"CAN'T STOP THE FEELING! (Original Song from DreamWorks Animation's TROLLS)"
p1209
ssS'6De0lHrwBfPfrhorm9q1Xl'
p1210
(dp1211
g3
S'Danny Ocean'
p1212
sg5
I40
sg6
S'https://open.spotify.com/track/6De0lHrwBfPfrhorm9q1Xl'
p1213
sg8
S'Me Reh\xc3\xbaso'
p1214
ssS'7aV2mflaASUmGhCErm7kBO'
p1215
(dp1216
g3
S'Nevada'
p1217
sg5
I3
sg6
S'https://open.spotify.com/track/7aV2mflaASUmGhCErm7kBO'
p1218
sg8
S'The Mack'
p1219
ssS'33F4IHQ2JcXWSDXNA9b4tK'
p1220
(dp1221
g3
S'Maluma'
p1222
sg5
I4
sg6
S'https://open.spotify.com/track/33F4IHQ2JcXWSDXNA9b4tK'
p1223
sg8
S'Felices los 4 - Salsa Version'
p1224
ssS'0bYg9bo50gSsH3LtXe2SQn'
p1225
(dp1226
g3
S'Mariah Carey'
p1227
sg5
I1
sg6
S'https://open.spotify.com/track/0bYg9bo50gSsH3LtXe2SQn'
p1228
sg8
S'All I Want for Christmas Is You'
p1229
ssS'4SCH5CuivFcShLpTg8lYOf'
p1230
(dp1231
g3
S"Mc's Zaac & Jerry Smith"
p1232
sg5
I2
sg6
S'https://open.spotify.com/track/4SCH5CuivFcShLpTg8lYOf'
p1233
sg8
S'Bumbum Granada'
p1234
ssS'1CKd1PnqfYx0H12V9MSaIY'
p1235
(dp1236
g3
S'Zedd'
p1237
sg5
I13
sg6
S'https://open.spotify.com/track/1CKd1PnqfYx0H12V9MSaIY'
p1238
sg8
S'Get Low (with Liam Payne)'
p1239
ssS'3rOSwuTsUlJp0Pu0MkN8r8'
p1240
(dp1241
g3
S'Future'
p1242
sg5
I15
sg6
S'https://open.spotify.com/track/3rOSwuTsUlJp0Pu0MkN8r8'
p1243
sg8
S'Mask Off'
p1244
ssS'5jMvnSyOgGY8JpvHqeyVOg'
p1245
(dp1246
g3
S'Rombai'
p1247
sg5
I21
sg6
S'https://open.spotify.com/track/5jMvnSyOgGY8JpvHqeyVOg'
p1248
sg8
S'Locuras contigo'
p1249
ssS'1qOLh0tI7trd1zdDKxYZTe'
p1250
(dp1251
g3
S'Hailee Steinfeld'
p1252
sg5
I20
sg6
S'https://open.spotify.com/track/1qOLh0tI7trd1zdDKxYZTe'
p1253
sg8
S'Starving'
p1254
ssS'3HVr6jTVwBHBa2flM0eURR'
p1255
(dp1256
g3
S'Macklemore'
p1257
sg5
I8
sg6
S'https://open.spotify.com/track/3HVr6jTVwBHBa2flM0eURR'
p1258
sg8
S'Glorious (feat. Skylar Grey)'
p1259
ssS'7taXf5odg9xCAZERYfyOkS'
p1260
(dp1261
g3
S'Jos\xc3\xa9 Feliciano'
p1262
sg5
I1
sg6
S'https://open.spotify.com/track/7taXf5odg9xCAZERYfyOkS'
p1263
sg8
S'Feliz Navidad'
p1264
ssS'1cG0umU5TKStygKsPFZ9pY'
p1265
(dp1266
g3
S'Robin Schulz'
p1267
sg5
I23
sg6
S'https://open.spotify.com/track/1cG0umU5TKStygKsPFZ9pY'
p1268
sg8
S'Shed a Light'
p1269
ssS'6520aj0B4FSKGVuKNsOCOi'
p1270
(dp1271
g3
S'Katy Perry'
p1272
sg5
I18
sg6
S'https://open.spotify.com/track/6520aj0B4FSKGVuKNsOCOi'
p1273
sg8
S'Chained To The Rhythm'
p1274
ssS'4q8PHoRsPUB52LFylX8Ulz'
p1275
(dp1276
g3
S'Axwell /\\ Ingrosso'
p1277
sg5
I6
sg6
S'https://open.spotify.com/track/4q8PHoRsPUB52LFylX8Ulz'
p1278
sg8
S'More Than You Know'
p1279
ssS'6EpRaXYhGOB3fj4V2uDkMJ'
p1280
(dp1281
g3
S'Liam Payne'
p1282
sg5
I21
sg6
S'https://open.spotify.com/track/6EpRaXYhGOB3fj4V2uDkMJ'
p1283
sg8
S'Strip That Down'
p1284
ssS'1wjzFQodRWrPcQ0AnYnvQ9'
p1285
(dp1286
g3
S'Lauv'
p1287
sg5
I12
sg6
S'https://open.spotify.com/track/1wjzFQodRWrPcQ0AnYnvQ9'
p1288
sg8
S'I Like Me Better'
p1289
ssS'51PIvodunv6NmX5250zxAh'
p1290
(dp1291
g3
S'Lady Gaga'
p1292
sg5
I10
sg6
S'https://open.spotify.com/track/51PIvodunv6NmX5250zxAh'
p1293
sg8
S'The Cure'
p1294
ssS'4PdJSsESm34djLfBde9Pr2'
p1295
(dp1296
g3
S'David Guetta'
p1297
sg5
I1
sg6
S'https://open.spotify.com/track/4PdJSsESm34djLfBde9Pr2'
p1298
sg8
S'Would I Lie To You - Radio Edit'
p1299
ssS'7DM4BPaS7uofFul3ywMe46'
p1300
(dp1301
g3
S'Ricky Martin'
p1302
sg5
I42
sg6
S'https://open.spotify.com/track/7DM4BPaS7uofFul3ywMe46'
p1303
sg8
S"Vente Pa' Ca"
p1304
ssS'0qYTZCo5Bwh1nsUFGZP3zn'
p1305
(dp1306
g3
S'Maluma'
p1307
sg5
I25
sg6
S'https://open.spotify.com/track/0qYTZCo5Bwh1nsUFGZP3zn'
p1308
sg8
S'Felices los 4'
p1309
ssS'5MFzQMkrl1FOOng9tq6R9r'
p1310
(dp1311
g3
S'Maroon 5'
p1312
sg5
I42
sg6
S'https://open.spotify.com/track/5MFzQMkrl1FOOng9tq6R9r'
p1313
sg8
S"Don't Wanna Know"
p1314
ssS'5Z3GHaZ6ec9bsiI5BenrbY'
p1315
(dp1316
g3
S'Khalid'
p1317
sg5
I7
sg6
S'https://open.spotify.com/track/5Z3GHaZ6ec9bsiI5BenrbY'
p1318
sg8
S'Young Dumb & Broke'
p1319
ssS'3FDrI0FLKzrYQiWxPhqV2W'
p1320
(dp1321
g3
S'Calvin Harris'
p1322
sg5
I2
sg6
S'https://open.spotify.com/track/3FDrI0FLKzrYQiWxPhqV2W'
p1323
sg8
S'Rollin'
p1324
ssS'3c8h1GHA8u6F82ky6CE3LX'
p1325
(dp1326
g3
S'Piso 21'
p1327
sg5
I23
sg6
S'https://open.spotify.com/track/3c8h1GHA8u6F82ky6CE3LX'
p1328
sg8
S'Qu\xc3\xadtate la Pena'
p1329
ssS'4r3itKA9HEJo48RG65OEnt'
p1330
(dp1331
g3
S'J Balvin'
p1332
sg5
I3
sg6
S'https://open.spotify.com/track/4r3itKA9HEJo48RG65OEnt'
p1333
sg8
S'Pierde Los Modales'
p1334
ssS'4zii9cq9ZgxYJFnaxM3Tul'
p1335
(dp1336
g3
S'French Montana'
p1337
sg5
I3
sg6
S'https://open.spotify.com/track/4zii9cq9ZgxYJFnaxM3Tul'
p1338
sg8
S'Unforgettable - Latin Remix'
p1339
ssS'5i50gKdLAjjIr7UxRT5IVy'
p1340
(dp1341
g3
S'Sebastian Yatra'
p1342
sg5
I35
sg6
S'https://open.spotify.com/track/5i50gKdLAjjIr7UxRT5IVy'
p1343
sg8
S'Alguien Robo'
p1344
ssS'1WP1r7fuvRqZRnUaTi2I1Q'
p1345
(dp1346
g3
S'Shawn Mendes'
p1347
sg5
I21
sg6
S'https://open.spotify.com/track/1WP1r7fuvRqZRnUaTi2I1Q'
p1348
sg8
S'Stitches'
p1349
ssS'7dl4Nfi0EJsLNieDYQCFv1'
p1350
(dp1351
g3
S'Major Lazer'
p1352
sg5
I1
sg6
S'https://open.spotify.com/track/7dl4Nfi0EJsLNieDYQCFv1'
p1353
sg8
S'Buscando Huellas (feat. J Balvin & Sean Paul)'
p1354
ssS'1jYiIOC5d6soxkJP81fxq2'
p1355
(dp1356
g3
S'DJ Khaled'
p1357
sg5
I1
sg6
S'https://open.spotify.com/track/1jYiIOC5d6soxkJP81fxq2'
p1358
sg8
S"I'm the One"
p1359
ssS'0yyZN5ASdrYu0XYWFzfxUu'
p1360
(dp1361
g3
S'Jesse & Joy'
p1362
sg5
I8
sg6
S'https://open.spotify.com/track/0yyZN5ASdrYu0XYWFzfxUu'
p1363
sg8
S'3 A.M.'
p1364
ssS'4Kzk0koKwzCMiIx4rAqCZp'
p1365
(dp1366
g3
S'Marama'
p1367
sg5
I9
sg6
S'https://open.spotify.com/track/4Kzk0koKwzCMiIx4rAqCZp'
p1368
sg8
S'Lo Intentamos'
p1369
ssS'6p3yxt0uJJshAS3CT0znQg'
p1370
(dp1371
g3
S'Natalia Lafourcade'
p1372
sg5
I14
sg6
S'https://open.spotify.com/track/6p3yxt0uJJshAS3CT0znQg'
p1373
sg8
S'T\xc3\xba S\xc3\xad Sabes Quererme'
p1374
ssS'3Gqj86AgnD8EiIOFIGLubs'
p1375
(dp1376
g3
S'OneRepublic'
p1377
sg5
I15
sg6
S'https://open.spotify.com/track/3Gqj86AgnD8EiIOFIGLubs'
p1378
sg8
S'No Vacancy (with Sebasti\xc3\xa1n Yatra)'
p1379
ssS'3dINUTtt8noTn16rHcpTTp'
p1380
(dp1381
g3
S'Natti Natasha'
p1382
sg5
I1
sg6
S'https://open.spotify.com/track/3dINUTtt8noTn16rHcpTTp'
p1383
sg8
S'Criminal'
p1384
ssS'1oNtIPC2XBWpE7A1x9YjQi'
p1385
(dp1386
g3
S'Yandel'
p1387
sg5
I1
sg6
S'https://open.spotify.com/track/1oNtIPC2XBWpE7A1x9YjQi'
p1388
sg8
S'Muy Personal'
p1389
ssS'0a9b4sUavOWgyc9jeScv7Y'
p1390
(dp1391
g3
S'Chyno Miranda'
p1392
sg5
I17
sg6
S'https://open.spotify.com/track/0a9b4sUavOWgyc9jeScv7Y'
p1393
sg8
S'Qu\xc3\xa9date Conmigo'
p1394
ssS'7zgqtptZvhf8GEmdsM2vp2'
p1395
(dp1396
g3
S'Taylor Swift'
p1397
sg5
I1
sg6
S'https://open.spotify.com/track/7zgqtptZvhf8GEmdsM2vp2'
p1398
sg8
S'...Ready For It?'
p1399
ssS'2uWg6P3lEsS1qQ2qg11TUx'
p1400
(dp1401
g3
S'Sebastian Yatra'
p1402
sg5
I17
sg6
S'https://open.spotify.com/track/2uWg6P3lEsS1qQ2qg11TUx'
p1403
sg8
S'Devu\xc3\xa9lveme El Coraz\xc3\xb3n'
p1404
ssS'7DhYjNLksXZhbRQeheAums'
p1405
(dp1406
g3
S'Bacilos'
p1407
sg5
I38
sg6
S'https://open.spotify.com/track/7DhYjNLksXZhbRQeheAums'
p1408
sg8
S'Caraluna'
p1409
ssS'7jzpAD8q77nwEmSsqUeUjy'
p1410
(dp1411
g3
S'Reykon'
p1412
sg5
I26
sg6
S'https://open.spotify.com/track/7jzpAD8q77nwEmSsqUeUjy'
p1413
sg8
S'D\xc3\xa9jame te explico'
p1414
ssS'2C0KFbb4v9CNWR5c9jWcKC'
p1415
(dp1416
g3
S'Gorillaz'
p1417
sg5
I1
sg6
S'https://open.spotify.com/track/2C0KFbb4v9CNWR5c9jWcKC'
p1418
sg8
S'Andromeda (feat. DRAM)'
p1419
ssS'2FIm6YsSGL5acOqSuJDh5s'
p1420
(dp1421
g3
S'Arcangel'
p1422
sg5
I11
sg6
S'https://open.spotify.com/track/2FIm6YsSGL5acOqSuJDh5s'
p1423
sg8
S'Me Acostumbre (feat. Bad Bunny)'
p1424
ssS'13X0XdLMOdtbXVtAj2ox4h'
p1425
(dp1426
g3
S'Piso 21'
p1427
sg5
I25
sg6
S'https://open.spotify.com/track/13X0XdLMOdtbXVtAj2ox4h'
p1428
sg8
S'Bes\xc3\xa1ndote'
p1429
ssS'6cPyTS0Kk2sc4xQwC93kOg'
p1430
(dp1431
g3
S'The Chainsmokers'
p1432
sg5
I1
sg6
S'https://open.spotify.com/track/6cPyTS0Kk2sc4xQwC93kOg'
p1433
sg8
S'Break Up Every Night'
p1434
ssS'5edBgVtRD0fvWk140Sl21T'
p1435
(dp1436
g3
S'OneRepublic'
p1437
sg5
I20
sg6
S'https://open.spotify.com/track/5edBgVtRD0fvWk140Sl21T'
p1438
sg8
S'Counting Stars'
p1439
ssS'6r46lnXFbE9fr2d3KNaGbe'
p1440
(dp1441
g3
S'Romeo Santos'
p1442
sg5
I12
sg6
S'https://open.spotify.com/track/6r46lnXFbE9fr2d3KNaGbe'
p1443
sg8
S'Imitadora'
p1444
ssS'3lJA6dGqvaKtVxqHbTtQiQ'
p1445
(dp1446
g3
S'Pitbull'
p1447
sg5
I2
sg6
S'https://open.spotify.com/track/3lJA6dGqvaKtVxqHbTtQiQ'
p1448
sg8
S'Greenlight'
p1449
ssS'0PDUDa38GO8lMxLCRc4lL1'
p1450
(dp1451
g3
S'ZAYN'
p1452
sg5
I1
sg6
S'https://open.spotify.com/track/0PDUDa38GO8lMxLCRc4lL1'
p1453
sg8
S'PILLOWTALK'
p1454
ssS'1OAh8uOEOvTDqkKFsKksCi'
p1455
(dp1456
g3
S'DJ Khaled'
p1457
sg5
I17
sg6
S'https://open.spotify.com/track/1OAh8uOEOvTDqkKFsKksCi'
p1458
sg8
S'Wild Thoughts'
p1459
ssS'3VRk65lHSwqd90TAkQqhvB'
p1460
(dp1461
g3
S'Katy Perry'
p1462
sg5
I2
sg6
S'https://open.spotify.com/track/3VRk65lHSwqd90TAkQqhvB'
p1463
sg8
S'Swish Swish'
p1464
ssS'1a5Yu5L18qNxVhXx38njON'
p1465
(dp1466
g3
S'Alok'
p1467
sg5
I42
sg6
S'https://open.spotify.com/track/1a5Yu5L18qNxVhXx38njON'
p1468
sg8
S'Hear Me Now'
p1469
ssS'09S64DUkxIX9EwIaULu6yN'
p1470
(dp1471
g3
S'Maluma'
p1472
sg5
I32
sg6
S'https://open.spotify.com/track/09S64DUkxIX9EwIaULu6yN'
p1473
sg8
S'Sin Contrato'
p1474
ssS'2naJy8SKJ27gj6ZhRPDKaz'
p1475
(dp1476
g3
S'Rvssian'
p1477
sg5
I9
sg6
S'https://open.spotify.com/track/2naJy8SKJ27gj6ZhRPDKaz'
p1478
sg8
S'Si Tu Lo Dejas'
p1479
ssS'4sPmO7WMQUAf45kwMOtONw'
p1480
(dp1481
g3
S'Adele'
p1482
sg5
I5
sg6
S'https://open.spotify.com/track/4sPmO7WMQUAf45kwMOtONw'
p1483
sg8
S'Hello'
p1484
ssS'3agtg0x11wPvLIWkYR39nZ'
p1485
(dp1486
g3
S'Linkin Park'
p1487
sg5
I1
sg6
S'https://open.spotify.com/track/3agtg0x11wPvLIWkYR39nZ'
p1488
sg8
S'Somewhere I Belong'
p1489
ssS'6BaCraQ9xeLYg4Sb9TBT2X'
p1490
(dp1491
g3
S'Calvin Harris'
p1492
sg5
I1
sg6
S'https://open.spotify.com/track/6BaCraQ9xeLYg4Sb9TBT2X'
p1493
sg8
S'Feels'
p1494
ssS'0RFFFGtPn6a58RHY3ccVYX'
p1495
(dp1496
g3
S'J Balvin'
p1497
sg5
I32
sg6
S'https://open.spotify.com/track/0RFFFGtPn6a58RHY3ccVYX'
p1498
sg8
S'Si Tu Novio Te Deja Sola'
p1499
ssS'5dH7o4TP3HYLvCjo4QAhhv'
p1500
(dp1501
g3
S'Sak Noel & Salvi'
p1502
sg5
I18
sg6
S'https://open.spotify.com/track/5dH7o4TP3HYLvCjo4QAhhv'
p1503
sg8
S'Trumpets'
p1504
ssS'378iszndTZAR4dH8kwsLC6'
p1505
(dp1506
g3
S'Sia'
p1507
sg5
I8
sg6
S'https://open.spotify.com/track/378iszndTZAR4dH8kwsLC6'
p1508
sg8
S'Cheap Thrills'
p1509
ssS'3nUNwSYEUv9bmUc3de0Owv'
p1510
(dp1511
g3
S'Chayanne'
p1512
sg5
I24
sg6
S'https://open.spotify.com/track/3nUNwSYEUv9bmUc3de0Owv'
p1513
sg8
S'Qu\xc3\xa9 Me Has Hecho'
p1514
ssS'6mORGLOz79w6VsCRLWYYuK'
p1515
(dp1516
g3
S'Lord Huron'
p1517
sg5
I13
sg6
S'https://open.spotify.com/track/6mORGLOz79w6VsCRLWYYuK'
p1518
sg8
S'The Night We Met'
p1519
ssS'5aAx2yezTd8zXrkmtKl66Z'
p1520
(dp1521
g3
S'The Weeknd'
p1522
sg5
I42
sg6
S'https://open.spotify.com/track/5aAx2yezTd8zXrkmtKl66Z'
p1523
sg8
S'Starboy'
p1524
ssS'1SJtlNRJDeYHioymcvsqev'
p1525
(dp1526
g3
S'Camila Cabello'
p1527
sg5
I13
sg6
S'https://open.spotify.com/track/1SJtlNRJDeYHioymcvsqev'
p1528
sg8
S'Crying in the Club'
p1529
ssS'04DwTuZ2VBdJCCC5TROn7L'
p1530
(dp1531
g3
S'Martin Garrix'
p1532
sg5
I42
sg6
S'https://open.spotify.com/track/04DwTuZ2VBdJCCC5TROn7L'
p1533
sg8
S'In the Name of Love'
p1534
ssS'6VHdcVbiKLYYOcMbIqBcuK'
p1535
(dp1536
g3
S'Cali Y El Dandee'
p1537
sg5
I38
sg6
S'https://open.spotify.com/track/6VHdcVbiKLYYOcMbIqBcuK'
p1538
sg8
S'Lumbra'
p1539
ssS'7Ckhk1XW5NV2k4jpqtQNlz'
p1540
(dp1541
g3
S'Valentino'
p1542
sg5
I18
sg6
S'https://open.spotify.com/track/7Ckhk1XW5NV2k4jpqtQNlz'
p1543
sg8
S'Besame'
p1544
ssS'5o35aPa2xPLLC3rw7Hoc83'
p1545
(dp1546
g3
S'Nicky Jam'
p1547
sg5
I2
sg6
S'https://open.spotify.com/track/5o35aPa2xPLLC3rw7Hoc83'
p1548
sg8
S'Superh\xc3\xa9roe'
p1549
ssS'5hKjEpYrJIJs6uPl7zw6Y6'
p1550
(dp1551
g3
S'Jory Boy'
p1552
sg5
I15
sg6
S'https://open.spotify.com/track/5hKjEpYrJIJs6uPl7zw6Y6'
p1553
sg8
S'No Te Hagas'
p1554
ssS'3VSt7R9LHTomKGP1RhkvuT'
p1555
(dp1556
g3
S'Rombai'
p1557
sg5
I13
sg6
S'https://open.spotify.com/track/3VSt7R9LHTomKGP1RhkvuT'
p1558
sg8
S'Una y Otra Vez'
p1559
ssS'4VXejnj5WgM6H72ct2fSgQ'
p1560
(dp1561
g3
S'Reykon'
p1562
sg5
I42
sg6
S'https://open.spotify.com/track/4VXejnj5WgM6H72ct2fSgQ'
p1563
sg8
S'El Chisme'
p1564
ssS'6VRghJeP6I0w1KxkdWFfIh'
p1565
(dp1566
g3
S'Imagine Dragons'
p1567
sg5
I3
sg6
S'https://open.spotify.com/track/6VRghJeP6I0w1KxkdWFfIh'
p1568
sg8
S'Believer'
p1569
ssS'6SznMYPQJHzr3IwsAHLId2'
p1570
(dp1571
g3
S'Ed Sheeran'
p1572
sg5
I1
sg6
S'https://open.spotify.com/track/6SznMYPQJHzr3IwsAHLId2'
p1573
sg8
S'Bibia Be Ye Ye'
p1574
ssS'5J1c3M4EldCfNxXwrwt8mT'
p1575
(dp1576
g3
S'Sebastian Yatra'
p1577
sg5
I42
sg6
S'https://open.spotify.com/track/5J1c3M4EldCfNxXwrwt8mT'
p1578
sg8
S'Traicionera'
p1579
ssS'5zSOVwaY3sVjnmLhuEfsuf'
p1580
(dp1581
g3
S'Ozuna'
p1582
sg5
I7
sg6
S'https://open.spotify.com/track/5zSOVwaY3sVjnmLhuEfsuf'
p1583
sg8
S'T\xc3\xba Foto'
p1584
ssS'46NBoIAHrmR7qcUGCIFEjR'
p1585
(dp1586
g3
S'David Guetta'
p1587
sg5
I3
sg6
S'https://open.spotify.com/track/46NBoIAHrmR7qcUGCIFEjR'
p1588
sg8
S"This One's For You (feat. Zara Larsson) - Official Song UEFA EURO 2016"
p1589
ssS'1agufzwnjHgd8MMJzHM1Lz'
p1590
(dp1591
g3
S'Japiaguar'
p1592
sg5
I22
sg6
S'https://open.spotify.com/track/1agufzwnjHgd8MMJzHM1Lz'
p1593
sg8
S'Sexy Lady'
p1594
ssS'0NiXXAI876aGImAd6rTj8w'
p1595
(dp1596
g3
S'Jonas Blue'
p1597
sg5
I14
sg6
S'https://open.spotify.com/track/0NiXXAI876aGImAd6rTj8w'
p1598
sg8
S'Mama'
p1599
ssS'0A2h9QjoPdbVwa9LFiijqM'
p1600
(dp1601
g3
S'Justin Quiles'
p1602
sg5
I11
sg6
S'https://open.spotify.com/track/0A2h9QjoPdbVwa9LFiijqM'
p1603
sg8
S'Si Ella Quisiera - Remix'
p1604
ssS'2LW4Zu7FcrwjWm3t5Rv3Oq'
p1605
(dp1606
g3
S'Ozuna'
p1607
sg5
I1
sg6
S'https://open.spotify.com/track/2LW4Zu7FcrwjWm3t5Rv3Oq'
p1608
sg8
S'El Farsante'
p1609
ssS'00kIWJu9IHiQ6i0qJAU0Z9'
p1610
(dp1611
g3
S'Mon Laferte'
p1612
sg5
I1
sg6
S'https://open.spotify.com/track/00kIWJu9IHiQ6i0qJAU0Z9'
p1613
sg8
S'Amor Completo'
p1614
ssS'0B6GRS3vGtzu6w5BQXqWMq'
p1615
(dp1616
g3
S'Dasoul'
p1617
sg5
I22
sg6
S'https://open.spotify.com/track/0B6GRS3vGtzu6w5BQXqWMq'
p1618
sg8
S'Kung Fu'
p1619
ssS'5Ohxk2dO5COHF1krpoPigN'
p1620
(dp1621
g3
S'Harry Styles'
p1622
sg5
I27
sg6
S'https://open.spotify.com/track/5Ohxk2dO5COHF1krpoPigN'
p1623
sg8
S'Sign of the Times'
p1624
ssS'5Fim1gaXBgsiFfsQAfQSDS'
p1625
(dp1626
g3
S'Nicky Jam'
p1627
sg5
I34
sg6
S'https://open.spotify.com/track/5Fim1gaXBgsiFfsQAfQSDS'
p1628
sg8
S'Hasta el Amanecer'
p1629
ssS'6wHm04cn5HxK6pE2ITEdUS'
p1630
(dp1631
g3
S'Cosculluela'
p1632
sg5
I6
sg6
S'https://open.spotify.com/track/6wHm04cn5HxK6pE2ITEdUS'
p1633
sg8
S'Te Busco (feat. Nicky Jam)'
p1634
ssS'4mxWSdf71VFO52qFeY0fZt'
p1635
(dp1636
g3
S'Maroon 5'
p1637
sg5
I6
sg6
S'https://open.spotify.com/track/4mxWSdf71VFO52qFeY0fZt'
p1638
sg8
S'What Lovers Do (feat. SZA)'
p1639
ssS'4Hf7WnR761jpxPr5D46Bcd'
p1640
(dp1641
g3
S'Shawn Mendes'
p1642
sg5
I42
sg6
S'https://open.spotify.com/track/4Hf7WnR761jpxPr5D46Bcd'
p1643
sg8
S'Treat You Better'
p1644
ssS'3AEZUABDXNtecAOSC1qTfo'
p1645
(dp1646
g3
S'CNCO'
p1647
sg5
I42
sg6
S'https://open.spotify.com/track/3AEZUABDXNtecAOSC1qTfo'
p1648
sg8
S'Reggaet\xc3\xb3n Lento (Bailemos)'
p1649
ssS'5fqE4mcMADOX0qTuIlpLZL'
p1650
(dp1651
g3
S'Cali Y El Dandee'
p1652
sg5
I11
sg6
S'https://open.spotify.com/track/5fqE4mcMADOX0qTuIlpLZL'
p1653
sg8
S'La Estrategia'
p1654
ssS'1T45DsQ4HFLJgthyedAa8V'
p1655
(dp1656
g3
S'CNCO'
p1657
sg5
I13
sg6
S'https://open.spotify.com/track/1T45DsQ4HFLJgthyedAa8V'
p1658
sg8
S'Reggaet\xc3\xb3n Lento (Bailemos) - Remix'
p1659
ssS'7xHWNBFm6ObGEQPaUxHuKO'
p1660
(dp1661
g3
S'Sia'
p1662
sg5
I13
sg6
S'https://open.spotify.com/track/7xHWNBFm6ObGEQPaUxHuKO'
p1663
sg8
S'The Greatest'
p1664
ssS'6m2LNopVJKsvBB9l7Z1rwn'
p1665
(dp1666
g3
S'MC Kevinho'
p1667
sg5
I33
sg6
S'https://open.spotify.com/track/6m2LNopVJKsvBB9l7Z1rwn'
p1668
sg8
S'Olha a Explos\xc3\xa3o'
p1669
ssS'5knuzwU65gJK7IF5yJsuaW'
p1670
(dp1671
g3
S'Clean Bandit'
p1672
sg5
I42
sg6
S'https://open.spotify.com/track/5knuzwU65gJK7IF5yJsuaW'
p1673
sg8
S'Rockabye (feat. Sean Paul & Anne-Marie)'
p1674
ssS'7aF09WaavZAmAWuUeYxlYD'
p1675
(dp1676
g3
S'OneRepublic'
p1677
sg5
I1
sg6
S'https://open.spotify.com/track/7aF09WaavZAmAWuUeYxlYD'
p1678
sg8
S'Rich Love (with Seeb)'
p1679
ssS'14WWzenpaEgQZlqPq2nk4v'
p1680
(dp1681
g3
S'Rihanna'
p1682
sg5
I11
sg6
S'https://open.spotify.com/track/14WWzenpaEgQZlqPq2nk4v'
p1683
sg8
S'Work'
p1684
ssS'2HqlnQkOtLFLyQgOVYqWkU'
p1685
(dp1686
g3
S'Juanes'
p1687
sg5
I3
sg6
S'https://open.spotify.com/track/2HqlnQkOtLFLyQgOVYqWkU'
p1688
sg8
S'El Ratico'
p1689
ssS'6b8Be6ljOzmkOmFslEb23P'
p1690
(dp1691
g3
S'Bruno Mars'
p1692
sg5
I42
sg6
S'https://open.spotify.com/track/6b8Be6ljOzmkOmFslEb23P'
p1693
sg8
S'24K Magic'
p1694
ssS'04f13iELcsYpY2yeLiAcfq'
p1695
(dp1696
g3
S'Nicky Jam'
p1697
sg5
I15
sg6
S'https://open.spotify.com/track/04f13iELcsYpY2yeLiAcfq'
p1698
sg8
S'El Amante - Remix'
p1699
ssS'2CkHE54EH44Qj945ynQRw7'
p1700
(dp1701
g3
S'Man\xc3\xa1'
p1702
sg5
I30
sg6
S'https://open.spotify.com/track/2CkHE54EH44Qj945ynQRw7'
p1703
sg8
S'De Pies a Cabeza'
p1704
ssS'3tWeAH4IYIrxV2jrUk9Ab3'
p1705
(dp1706
g3
S'J Alvarez'
p1707
sg5
I18
sg6
S'https://open.spotify.com/track/3tWeAH4IYIrxV2jrUk9Ab3'
p1708
sg8
S'Esa Boquita'
p1709
ssS'5DA77EqppDmCTWGovd4oTP'
p1710
(dp1711
g3
S'Cheat Codes'
p1712
sg5
I6
sg6
S'https://open.spotify.com/track/5DA77EqppDmCTWGovd4oTP'
p1713
sg8
S'Sex'
p1714
ssS'7F9vK8hNFMml4GtHsaXui6'
p1715
(dp1716
g3
S'Louis Tomlinson'
p1717
sg5
I12
sg6
S'https://open.spotify.com/track/7F9vK8hNFMml4GtHsaXui6'
p1718
sg8
S'Back to You (feat. Bebe Rexha & Digital Farm Animals)'
p1719
ssS'6NSMQFKgjpQb0KkjMDYIK0'
p1720
(dp1721
g3
S'Arcangel'
p1722
sg5
I8
sg6
S'https://open.spotify.com/track/6NSMQFKgjpQb0KkjMDYIK0'
p1723
sg8
S'Tu No Vive Asi (feat. Mambo Kingz & DJ Luian)'
p1724
ssS'3B54sVLJ402zGa6Xm4YGNe'
p1725
(dp1726
g3
S'French Montana'
p1727
sg5
I14
sg6
S'https://open.spotify.com/track/3B54sVLJ402zGa6Xm4YGNe'
p1728
sg8
S'Unforgettable'
p1729
ssS'1rIKgCH4H52lrvDcz50hS8'
p1730
(dp1731
g3
S'Zara Larsson'
p1732
sg5
I3
sg6
S'https://open.spotify.com/track/1rIKgCH4H52lrvDcz50hS8'
p1733
sg8
S'Lush Life'
p1734
ssS'5OqaLWo9WbNPWDilrwNwzt'
p1735
(dp1736
g3
S'Marama'
p1737
sg5
I6
sg6
S'https://open.spotify.com/track/5OqaLWo9WbNPWDilrwNwzt'
p1738
sg8
S'Era Tranquila'
p1739
ssS'5bcTCxgc7xVfSaMV3RuVke'
p1740
(dp1741
g3
S'Calvin Harris'
p1742
sg5
I16
sg6
S'https://open.spotify.com/track/5bcTCxgc7xVfSaMV3RuVke'
p1743
sg8
S'Feels'
p1744
ssS'0QsvXIfqM0zZoerQfsI9lm'
p1745
(dp1746
g3
S'The Chainsmokers'
p1747
sg5
I40
sg6
S'https://open.spotify.com/track/0QsvXIfqM0zZoerQfsI9lm'
p1748
sg8
S"Don't Let Me Down"
p1749
ssS'7w87IxuO7BDcJ3YUqCyMTT'
p1750
(dp1751
g3
S'Foster The People'
p1752
sg5
I24
sg6
S'https://open.spotify.com/track/7w87IxuO7BDcJ3YUqCyMTT'
p1753
sg8
S'Pumped Up Kicks'
p1754
ssS'4qqArAiTPueDxIp7cf87h7'
p1755
(dp1756
g3
S'M\xc3\x98'
p1757
sg5
I3
sg6
S'https://open.spotify.com/track/4qqArAiTPueDxIp7cf87h7'
p1758
sg8
S'Final Song'
p1759
ssS'2nLtzopw4rPReszdYBJU6h'
p1760
(dp1761
g3
S'Linkin Park'
p1762
sg5
I3
sg6
S'https://open.spotify.com/track/2nLtzopw4rPReszdYBJU6h'
p1763
sg8
S'Numb'
p1764
ssS'3a1lNhkSLSkpJE4MSHpDu9'
p1765
(dp1766
g3
S'Post Malone'
p1767
sg5
I15
sg6
S'https://open.spotify.com/track/3a1lNhkSLSkpJE4MSHpDu9'
p1768
sg8
S'Congratulations'
p1769
ssS'0ZzVPCGdkpKcxAzMNDD5UZ'
p1770
(dp1771
g3
S'Marama'
p1772
sg5
I3
sg6
S'https://open.spotify.com/track/0ZzVPCGdkpKcxAzMNDD5UZ'
p1773
sg8
S'Pasarla Bien'
p1774
ssS'0ofbQMrRDsUaVKq2mGLEAb'
p1775
(dp1776
g3
S'Camila Cabello'
p1777
sg5
I8
sg6
S'https://open.spotify.com/track/0ofbQMrRDsUaVKq2mGLEAb'
p1778
sg8
S'Havana'
p1779
ssS'5a9pr1jMpFgOL9o8HHZU7z'
p1780
(dp1781
g3
S'Bonny Lovy'
p1782
sg5
I15
sg6
S'https://open.spotify.com/track/5a9pr1jMpFgOL9o8HHZU7z'
p1783
sg8
S'Ando'
p1784
ssS'6v3QCw4ca5cR4VkzpG0PHy'
p1785
(dp1786
g3
S'Alkilados'
p1787
sg5
I4
sg6
S'https://open.spotify.com/track/6v3QCw4ca5cR4VkzpG0PHy'
p1788
sg8
S'Una Cita - Remix'
p1789
ssS'6bLopGnirdrilrpdVB6Um1'
p1790
(dp1791
g3
S'Sia'
p1792
sg5
I8
sg6
S'https://open.spotify.com/track/6bLopGnirdrilrpdVB6Um1'
p1793
sg8
S'The Greatest'
p1794
ssS'3uhBIQ7tv8j1FME8cFGEfG'
p1795
(dp1796
g3
S'John Legend'
p1797
sg5
I2
sg6
S'https://open.spotify.com/track/3uhBIQ7tv8j1FME8cFGEfG'
p1798
sg8
S'All of Me'
p1799
ssS'1AkTW13ysu0AJrwuM6UY0I'
p1800
(dp1801
g3
S'Charly Black'
p1802
sg5
I42
sg6
S'https://open.spotify.com/track/1AkTW13ysu0AJrwuM6UY0I'
p1803
sg8
S'Gyal You A Party Animal - Remix'
p1804
ssS'7cCRlUf8ayOJtTlWN7g8Ni'
p1805
(dp1806
g3
S'R\xc3\xado Roma'
p1807
sg5
I6
sg6
S'https://open.spotify.com/track/7cCRlUf8ayOJtTlWN7g8Ni'
p1808
sg8
S'Caminar de Tu Mano'
p1809
ssS'7DRP2VOMpy1rrk3iYFLCW9'
p1810
(dp1811
g3
S'Dennis DJ'
p1812
sg5
I17
sg6
S'https://open.spotify.com/track/7DRP2VOMpy1rrk3iYFLCW9'
p1813
sg8
S'Malandramente'
p1814
ssS'1vvNmPOiUuyCbgWmtc6yfm'
p1815
(dp1816
g3
S'Calvin Harris'
p1817
sg5
I36
sg6
S'https://open.spotify.com/track/1vvNmPOiUuyCbgWmtc6yfm'
p1818
sg8
S'My Way'
p1819
ssS'5ommnX8qOlbjRspCEFkn57'
p1820
(dp1821
g3
S'Alexis & Fido'
p1822
sg5
I1
sg6
S'https://open.spotify.com/track/5ommnX8qOlbjRspCEFkn57'
p1823
sg8
S'La C\xc3\xb3mplice'
p1824
ssS'3B21fRFqPLmTd9zAlK0I8A'
p1825
(dp1826
g3
S'CNCO'
p1827
sg5
I21
sg6
S'https://open.spotify.com/track/3B21fRFqPLmTd9zAlK0I8A'
p1828
sg8
S'Para Enamorarte'
p1829
ssS'5k5HXMmbU31I6cMOWnMgSQ'
p1830
(dp1831
g3
S'Paulina Rubio'
p1832
sg5
I8
sg6
S'https://open.spotify.com/track/5k5HXMmbU31I6cMOWnMgSQ'
p1833
sg8
S'Me Quema'
p1834
ssS'1Sl3njkhhz8nrSPZroDQ82'
p1835
(dp1836
g3
S'Dimitri Vegas & Like Mike'
p1837
sg5
I3
sg6
S'https://open.spotify.com/track/1Sl3njkhhz8nrSPZroDQ82'
p1838
sg8
S'Complicated (feat. Kiiara)'
p1839
ssS'5vZfgeDfNhlkKeJqjzSAmg'
p1840
(dp1841
g3
S'Alejandro Fernandez'
p1842
sg5
I36
sg6
S'https://open.spotify.com/track/5vZfgeDfNhlkKeJqjzSAmg'
p1843
sg8
S'S\xc3\xa9 Que Te Duele'
p1844
ssS'57BrRMwf9LrcmuOsyGilwr'
p1845
(dp1846
g3
S'Linkin Park'
p1847
sg5
I1
sg6
S'https://open.spotify.com/track/57BrRMwf9LrcmuOsyGilwr'
p1848
sg8
S'Crawling'
p1849
ssS'5u5MvmVtitax9R1Mxh3reC'
p1850
(dp1851
g3
S'Ozuna'
p1852
sg5
I7
sg6
S'https://open.spotify.com/track/5u5MvmVtitax9R1Mxh3reC'
p1853
sg8
S'Dile Que Tu Me Quieres'
p1854
ssS'5YzA563GXTuwQaRq24z1k5'
p1855
(dp1856
g3
S'Yandel'
p1857
sg5
I5
sg6
S'https://open.spotify.com/track/5YzA563GXTuwQaRq24z1k5'
p1858
sg8
S'Como Antes'
p1859
ssS'0afhq8XCExXpqazXczTSve'
p1860
(dp1861
g3
S'Ed Sheeran'
p1862
sg5
I20
sg6
S'https://open.spotify.com/track/0afhq8XCExXpqazXczTSve'
p1863
sg8
S'Galway Girl'
p1864
ssS'6F35s1d7QRKjbjBbpccVQp'
p1865
(dp1866
g3
S'CD9'
p1867
sg5
I8
sg6
S'https://open.spotify.com/track/6F35s1d7QRKjbjBbpccVQp'
p1868
sg8
S'No Le Hablen de Amor (Remix)'
p1869
ssS'1NDxZ7cFAo481dtYWdrUnR'
p1870
(dp1871
g3
S'Maggie Lindemann'
p1872
sg5
I8
sg6
S'https://open.spotify.com/track/1NDxZ7cFAo481dtYWdrUnR'
p1873
sg8
S'Pretty Girl - Cheat Codes X CADE Remix'
p1874
ssS'5TysCiZtv1HnSWcTcUFusI'
p1875
(dp1876
g3
S'Joey Montana'
p1877
sg5
I6
sg6
S'https://open.spotify.com/track/5TysCiZtv1HnSWcTcUFusI'
p1878
sg8
S'Suena El Dembow'
p1879
ssS'2aFiaMXmWsM3Vj72F9ksBl'
p1880
(dp1881
g3
S'DNCE'
p1882
sg5
I30
sg6
S'https://open.spotify.com/track/2aFiaMXmWsM3Vj72F9ksBl'
p1883
sg8
S'Cake By The Ocean'
p1884
ssS'152lZdxL1OR0ZMW6KquMif'
p1885
(dp1886
g3
S'Khalid'
p1887
sg5
I2
sg6
S'https://open.spotify.com/track/152lZdxL1OR0ZMW6KquMif'
p1888
sg8
S'Location'
p1889
ssS'4J1e3hbf0e5YUZjkxyJWD3'
p1890
(dp1891
g3
S'Anuel Aa'
p1892
sg5
I12
sg6
S'https://open.spotify.com/track/4J1e3hbf0e5YUZjkxyJWD3'
p1893
sg8
S'La \xc3\x9altima Vez'
p1894
ssS'4TZy1wLyHec06pwgFYDh1a'
p1895
(dp1896
g3
S'Shawn Mendes'
p1897
sg5
I23
sg6
S'https://open.spotify.com/track/4TZy1wLyHec06pwgFYDh1a'
p1898
sg8
S'Mercy'
p1899
ssS'5ZbxyKp49vtZMOXYoMr8o8'
p1900
(dp1901
g3
S'OneRepublic'
p1902
sg5
I2
sg6
S'https://open.spotify.com/track/5ZbxyKp49vtZMOXYoMr8o8'
p1903
sg8
S'No Vacancy (with Sebasti\xc3\xa1n Yatra)'
p1904
ssS'4llK75pXNWZz6KAho2Gp16'
p1905
(dp1906
g3
S'Maroon 5'
p1907
sg5
I4
sg6
S'https://open.spotify.com/track/4llK75pXNWZz6KAho2Gp16'
p1908
sg8
S'She Will Be Loved - Radio Mix'
p1909
ssS'4sA0dk2U5tJiPYtx3ZrbIf'
p1910
(dp1911
g3
S'Jacob Forever'
p1912
sg5
I1
sg6
S'https://open.spotify.com/track/4sA0dk2U5tJiPYtx3ZrbIf'
p1913
sg8
S'Qui\xc3\xa9reme'
p1914
ssS'5HABnFSYvl6mTmg8nSdzHa'
p1915
(dp1916
g3
S'Zion & Lennox'
p1917
sg5
I36
sg6
S'https://open.spotify.com/track/5HABnFSYvl6mTmg8nSdzHa'
p1918
sg8
S'Mi Tesoro (feat. Nicky Jam)'
p1919
ssS'1mSzZKMIPZIkn3jFV7v62b'
p1920
(dp1921
g3
S'Charly Black'
p1922
sg5
I26
sg6
S'https://open.spotify.com/track/1mSzZKMIPZIkn3jFV7v62b'
p1923
sg8
S'Gyal You A Party Animal'
p1924
ssS'1FUViuNSldssMIawrOXF2i'
p1925
(dp1926
g3
S'Bebe Rexha'
p1927
sg5
I15
sg6
S'https://open.spotify.com/track/1FUViuNSldssMIawrOXF2i'
p1928
sg8
S'I Got You'
p1929
ssS'0bMRpUsk1IWi5O2NIkWsqR'
p1930
(dp1931
g3
S'Luny Tunes'
p1932
sg5
I4
sg6
S'https://open.spotify.com/track/0bMRpUsk1IWi5O2NIkWsqR'
p1933
sg8
S'Mayor Que Yo 3'
p1934
ssS'4efQTJSX6Jca1hHZNi74Zd'
p1935
(dp1936
g3
S'Carlos Baute'
p1937
sg5
I33
sg6
S'https://open.spotify.com/track/4efQTJSX6Jca1hHZNi74Zd'
p1938
sg8
S'Amor y dolor'
p1939
ssS'2OxUtaKYeahAGNaBiahXtR'
p1940
(dp1941
g3
S'Farruko'
p1942
sg5
I9
sg6
S'https://open.spotify.com/track/2OxUtaKYeahAGNaBiahXtR'
p1943
sg8
S'Diabla - Official Remix'
p1944
ssS'4Q4jmPHwu0wrJvqrld0FQ6'
p1945
(dp1946
g3
S'Zara Larsson'
p1947
sg5
I8
sg6
S'https://open.spotify.com/track/4Q4jmPHwu0wrJvqrld0FQ6'
p1948
sg8
S'I Would Like'
p1949
ssS'1MpKZi1zTXpERKwxmOu1PH'
p1950
(dp1951
g3
S'Rombai'
p1952
sg5
I42
sg6
S'https://open.spotify.com/track/1MpKZi1zTXpERKwxmOu1PH'
p1953
sg8
S'Cuando Se Pone a Bailar'
p1954
ssS'3jpqMaJREkmVDYlRvW1qWC'
p1955
(dp1956
g3
S'Piso 21'
p1957
sg5
I29
sg6
S'https://open.spotify.com/track/3jpqMaJREkmVDYlRvW1qWC'
p1958
sg8
S'Me llamas'
p1959
ssS'7yyRTcZmCiyzzJlNzGC9Ol'
p1960
(dp1961
g3
S'DRAM'
p1962
sg5
I3
sg6
S'https://open.spotify.com/track/7yyRTcZmCiyzzJlNzGC9Ol'
p1963
sg8
S'Broccoli (feat. Lil Yachty)'
p1964
ssS'1m69ELEgE6k5ZWsap40ozt'
p1965
(dp1966
g3
S'Ozuna'
p1967
sg5
I7
sg6
S'https://open.spotify.com/track/1m69ELEgE6k5ZWsap40ozt'
p1968
sg8
S'Se Prepar\xc3\xb3'
p1969
ssS'4tPL9PeVZY4c0jUPtSD5nx'
p1970
(dp1971
g3
S'Joey Montana'
p1972
sg5
I7
sg6
S'https://open.spotify.com/track/4tPL9PeVZY4c0jUPtSD5nx'
p1973
sg8
S'Picky'
p1974
ssS'3ktSe2NHl8RO1Fjh7mcvam'
p1975
(dp1976
g3
S'Juanes'
p1977
sg5
I14
sg6
S'https://open.spotify.com/track/3ktSe2NHl8RO1Fjh7mcvam'
p1978
sg8
S'Es Tarde'
p1979
ssS'5EId1m4DNwTf3at31w8bPJ'
p1980
(dp1981
g3
S'Ozuna'
p1982
sg5
I7
sg6
S'https://open.spotify.com/track/5EId1m4DNwTf3at31w8bPJ'
p1983
sg8
S'El Farsante'
p1984
ssS'6PCUP3dWmTjcTtXY02oFdT'
p1985
(dp1986
g3
S'Ed Sheeran'
p1987
sg5
I18
sg6
S'https://open.spotify.com/track/6PCUP3dWmTjcTtXY02oFdT'
p1988
sg8
S'Castle on the Hill'
p1989
ssS'4CTjql34LKCJy5WOSgEhvA'
p1990
(dp1991
g3
S'Silvestre Dangond'
p1992
sg5
I9
sg6
S'https://open.spotify.com/track/4CTjql34LKCJy5WOSgEhvA'
p1993
sg8
S'Ya No Me Duele M\xc3\xa1s - Remix'
p1994
ssS'42QpgFFhu8SIKFK2dp0kUj'
p1995
(dp1996
g3
S'Wisin'
p1997
sg5
I5
sg6
S'https://open.spotify.com/track/42QpgFFhu8SIKFK2dp0kUj'
p1998
sg8
S'Vacaciones - Remix'
p1999
ssS'2wgDAPgBhFA7pnIbm0YOhP'
p2000
(dp2001
g3
S'Bad Bunny'
p2002
sg5
I11
sg6
S'https://open.spotify.com/track/2wgDAPgBhFA7pnIbm0YOhP'
p2003
sg8
S'Me Mata'
p2004
ssS'4N1c5rmWOzRmB9SMacr5wB'
p2005
(dp2006
g3
S'Abraham Mateo'
p2007
sg5
I16
sg6
S'https://open.spotify.com/track/4N1c5rmWOzRmB9SMacr5wB'
p2008
sg8
S'Loco Enamorado'
p2009
ssS'104buTcnP2AsxqB7U1FIZ4'
p2010
(dp2011
g3
S'Linkin Park'
p2012
sg5
I2
sg6
S'https://open.spotify.com/track/104buTcnP2AsxqB7U1FIZ4'
p2013
sg8
S'Heavy (feat. Kiiara)'
p2014
ssS'0CcQNd8CINkwQfe1RDtGV6'
p2015
(dp2016
g3
S'Imagine Dragons'
p2017
sg5
I33
sg6
S'https://open.spotify.com/track/0CcQNd8CINkwQfe1RDtGV6'
p2018
sg8
S'Believer'
p2019
ssS'650OeHTLxZAQmb4aEbGmaA'
p2020
(dp2021
g3
S'Linkin Park'
p2022
sg5
I1
sg6
S'https://open.spotify.com/track/650OeHTLxZAQmb4aEbGmaA'
p2023
sg8
S'Good Goodbye (feat. Pusha T and Stormzy)'
p2024
ssS'1PSBzsahR2AKwLJgx8ehBj'
p2025
(dp2026
g3
S'Machine Gun Kelly'
p2027
sg5
I11
sg6
S'https://open.spotify.com/track/1PSBzsahR2AKwLJgx8ehBj'
p2028
sg8
S'Bad Things (with Camila Cabello)'
p2029
ssS'5gFAT2DbEt4TOMXyAMEixG'
p2030
(dp2031
g3
S'Brytiago'
p2032
sg5
I7
sg6
S'https://open.spotify.com/track/5gFAT2DbEt4TOMXyAMEixG'
p2033
sg8
S'Netflixxx'
p2034
ssS'0sXvAOmXgjR2QUqLK1MltU'
p2035
(dp2036
g3
S'Carlos Vives'
p2037
sg5
I42
sg6
S'https://open.spotify.com/track/0sXvAOmXgjR2QUqLK1MltU'
p2038
sg8
S'La Bicicleta'
p2039
ssS'3m660poUr1chesgkkjQM7P'
p2040
(dp2041
g3
S'Demi Lovato'
p2042
sg5
I2
sg6
S'https://open.spotify.com/track/3m660poUr1chesgkkjQM7P'
p2043
sg8
S'Sorry Not Sorry'
p2044
ssS'7pueb0FHOYlKAJPXhVhwml'
p2045
(dp2046
g3
S'Alkilados'
p2047
sg5
I14
sg6
S'https://open.spotify.com/track/7pueb0FHOYlKAJPXhVhwml'
p2048
sg8
S'Me Gusta - Remix'
p2049
ssS'3K4HG9evC7dg3N0R9cYqk4'
p2050
(dp2051
g3
S'Linkin Park'
p2052
sg5
I1
sg6
S'https://open.spotify.com/track/3K4HG9evC7dg3N0R9cYqk4'
p2053
sg8
S'One Step Closer'
p2054
ssS'05ZXXyeZFhZtA6DAP3Aw7x'
p2055
(dp2056
g3
S'Maite Perroni'
p2057
sg5
I21
sg6
S'https://open.spotify.com/track/05ZXXyeZFhZtA6DAP3Aw7x'
p2058
sg8
S'Loca (feat. Cali Y El Dandee)'
p2059
ssS'3ebXMykcMXOcLeJ9xZ17XH'
p2060
(dp2061
g3
S'Martin Garrix'
p2062
sg5
I37
sg6
S'https://open.spotify.com/track/3ebXMykcMXOcLeJ9xZ17XH'
p2063
sg8
S'Scared to Be Lonely'
p2064
ssS'6fujklziTHa8uoM5OQSfIo'
p2065
(dp2066
g3
S'Rae Sremmurd'
p2067
sg5
I9
sg6
S'https://open.spotify.com/track/6fujklziTHa8uoM5OQSfIo'
p2068
sg8
S'Black Beatles'
p2069
ssS'7KxhSJOYiqCDclXDBNlFSZ'
p2070
(dp2071
g3
S'Selena Gomez'
p2072
sg5
I9
sg6
S'https://open.spotify.com/track/7KxhSJOYiqCDclXDBNlFSZ'
p2073
sg8
S'Kill Em With Kindness'
p2074
ssS'19WjVVgXjdKXfLXoaDPwTM'
p2075
(dp2076
g3
S'Taylor Swift'
p2077
sg5
I3
sg6
S'https://open.spotify.com/track/19WjVVgXjdKXfLXoaDPwTM'
p2078
sg8
S'...Ready For It?'
p2079
ssS'0JoHqmlqE0W0i9prt6kcHR'
p2080
(dp2081
g3
S'Maluma'
p2082
sg5
I42
sg6
S'https://open.spotify.com/track/0JoHqmlqE0W0i9prt6kcHR'
p2083
sg8
S'Cuatro Babys'
p2084
ssS'7pyEd6g5y7SYdKNgRtleEB'
p2085
(dp2086
g3
S'Yandel'
p2087
sg5
I17
sg6
S'https://open.spotify.com/track/7pyEd6g5y7SYdKNgRtleEB'
p2088
sg8
S'Nunca Me Olvides - Remix'
p2089
ssS'3PEgB3fkiojxms35ntsTgs'
p2090
(dp2091
g3
S'Axwell /\\ Ingrosso'
p2092
sg5
I11
sg6
S'https://open.spotify.com/track/3PEgB3fkiojxms35ntsTgs'
p2093
sg8
S'More Than You Know'
p2094
ssS'2yvjjJrWzVzA2zg4VsoEmo'
p2095
(dp2096
g3
S'Prince Royce'
p2097
sg5
I2
sg6
S'https://open.spotify.com/track/2yvjjJrWzVzA2zg4VsoEmo'
p2098
sg8
S'La Carretera'
p2099
ssS'2yajAy8Va9VTk3yhF9B3ET'
p2100
(dp2101
g3
S'Pablo Albor\xc3\xa1n'
p2102
sg5
I4
sg6
S'https://open.spotify.com/track/2yajAy8Va9VTk3yhF9B3ET'
p2103
sg8
S'No vaya a ser'
p2104
ssS'3H179O48ynsu9q8LOnFQZY'
p2105
(dp2106
g3
S'Reik'
p2107
sg5
I42
sg6
S'https://open.spotify.com/track/3H179O48ynsu9q8LOnFQZY'
p2108
sg8
S'Qu\xc3\xa9 Gano Olvid\xc3\xa1ndote - Versi\xc3\xb3n Urbana'
p2109
ssS'1nL1mBYze38LCOIXqbB4Nj'
p2110
(dp2111
g3
S'Mayte Flores'
p2112
sg5
I2
sg6
S'https://open.spotify.com/track/1nL1mBYze38LCOIXqbB4Nj'
p2113
sg8
S'Beishu - Mastercard'
p2114
ssS'0UeYCHOETPfai02uskjJ3x'
p2115
(dp2116
g3
S'Bag Raiders'
p2117
sg5
I6
sg6
S'https://open.spotify.com/track/0UeYCHOETPfai02uskjJ3x'
p2118
sg8
S'Shooting Stars'
p2119
ssS'48yAM9xWBwT4Ac9G1y20rw'
p2120
(dp2121
g3
S'Yandel'
p2122
sg5
I4
sg6
S'https://open.spotify.com/track/48yAM9xWBwT4Ac9G1y20rw'
p2123
sg8
S'Expl\xc3\xadcale'
p2124
ssS'0B8B8cVRFIG1yznoQe7c9s'
p2125
(dp2126
g3
S'The Chainsmokers'
p2127
sg5
I5
sg6
S'https://open.spotify.com/track/0B8B8cVRFIG1yznoQe7c9s'
p2128
sg8
S'Setting Fires'
p2129
ssS'3rgjBiAMVGnxmsTDmUy8vb'
p2130
(dp2131
g3
S'Farruko'
p2132
sg5
I6
sg6
S'https://open.spotify.com/track/3rgjBiAMVGnxmsTDmUy8vb'
p2133
sg8
S'Krippy Kush'
p2134
ssS'6041gM9Th1ViQcnzkIxnuv'
p2135
(dp2136
g3
S'Ozuna'
p2137
sg5
I7
sg6
S'https://open.spotify.com/track/6041gM9Th1ViQcnzkIxnuv'
p2138
sg8
S'Me Ama Me Odia'
p2139
ssS'1mDGDb2fUmUMdqV3tb8VKQ'
p2140
(dp2141
g3
S'Halsey'
p2142
sg5
I1
sg6
S'https://open.spotify.com/track/1mDGDb2fUmUMdqV3tb8VKQ'
p2143
sg8
S'Now Or Never'
p2144
ssS'0lJCqIx5BhZtf6QtYI2fbv'
p2145
(dp2146
g3
S'Daddy Yankee'
p2147
sg5
I2
sg6
S'https://open.spotify.com/track/0lJCqIx5BhZtf6QtYI2fbv'
p2148
sg8
S'Vuelve'
p2149
ssS'6OZh916QF8XNunWaP97WEZ'
p2150
(dp2151
g3
S'Jonas Blue'
p2152
sg5
I5
sg6
S'https://open.spotify.com/track/6OZh916QF8XNunWaP97WEZ'
p2153
sg8
S'Fast Car'
p2154
ssS'2rizacJSyD9S1IQUxUxnsK'
p2155
(dp2156
g3
S'The Chainsmokers'
p2157
sg5
I16
sg6
S'https://open.spotify.com/track/2rizacJSyD9S1IQUxUxnsK'
p2158
sg8
S'All We Know'
p2159
ssS'6RsWqX8zABZLhZydXxEFOm'
p2160
(dp2161
g3
S'The Weeknd'
p2162
sg5
I4
sg6
S'https://open.spotify.com/track/6RsWqX8zABZLhZydXxEFOm'
p2163
sg8
S"Can't Feel My Face"
p2164
ssS'0tgVpDi06FyKpA1z0VMD4v'
p2165
(dp2166
g3
S'Ed Sheeran'
p2167
sg5
I32
sg6
S'https://open.spotify.com/track/0tgVpDi06FyKpA1z0VMD4v'
p2168
sg8
S'Perfect'
p2169
ssS'2Vdub5mY4lad7w64bFPUez'
p2170
(dp2171
g3
S'Pitbull'
p2172
sg5
I31
sg6
S'https://open.spotify.com/track/2Vdub5mY4lad7w64bFPUez'
p2173
sg8
S'Hey Ma (with Pitbull & J Balvin feat. Camila Cabello) - Spanish Version'
p2174
ssS'4PCVVIrUDldF5r7RXtOB5W'
p2175
(dp2176
g3
S'Rombai'
p2177
sg5
I1
sg6
S'https://open.spotify.com/track/4PCVVIrUDldF5r7RXtOB5W'
p2178
sg8
S'Curiosidad'
p2179
ssS'69uxyAqqPIsUyTO8txoP2M'
p2180
(dp2181
g3
S'Coldplay'
p2182
sg5
I8
sg6
S'https://open.spotify.com/track/69uxyAqqPIsUyTO8txoP2M'
p2183
sg8
S'Adventure Of A Lifetime'
p2184
ssS'1zRqRmZyE0bgXkSoVVaCwK'
p2185
(dp2186
g3
S'Sin Bandera'
p2187
sg5
I8
sg6
S'https://open.spotify.com/track/1zRqRmZyE0bgXkSoVVaCwK'
p2188
sg8
S'En \xc3\x89sta No'
p2189
ssS'7BqBn9nzAq8spo5e7cZ0dJ'
p2190
(dp2191
g3
S'Bruno Mars'
p2192
sg5
I2
sg6
S'https://open.spotify.com/track/7BqBn9nzAq8spo5e7cZ0dJ'
p2193
sg8
S'Just the Way You Are'
p2194
ssS'1x5sYLZiu9r5E43kMlt9f8'
p2195
(dp2196
g3
S'Clean Bandit'
p2197
sg5
I24
sg6
S'https://open.spotify.com/track/1x5sYLZiu9r5E43kMlt9f8'
p2198
sg8
S'Symphony (feat. Zara Larsson)'
p2199
ssS'2rb5MvYT7ZIxbKW5hfcHx8'
p2200
(dp2201
g3
S'J Balvin'
p2202
sg5
I15
sg6
S'https://open.spotify.com/track/2rb5MvYT7ZIxbKW5hfcHx8'
p2203
sg8
S'Mi Gente'
p2204
ssS'5SE57ljOIUJ1ybL9U6CuBH'
p2205
(dp2206
g3
S'BTS'
p2207
sg5
I3
sg6
S'https://open.spotify.com/track/5SE57ljOIUJ1ybL9U6CuBH'
p2208
sg8
S'DNA'
p2209
ssS'3FaqBbYj8arTCdhVABY8mB'
p2210
(dp2211
g3
S'Karol G'
p2212
sg5
I1
sg6
S'https://open.spotify.com/track/3FaqBbYj8arTCdhVABY8mB'
p2213
sg8
S'Ahora Me Llama - Remix'
p2214
ssS'1pWYnQIlqxTh5bxuPmTG4E'
p2215
(dp2216
g3
S'Thal\xc3\xada'
p2217
sg5
I33
sg6
S'https://open.spotify.com/track/1pWYnQIlqxTh5bxuPmTG4E'
p2218
sg8
S'Desde Esa Noche'
p2219
ssS'6SwRhMLwNqEi6alNPVG00n'
p2220
(dp2221
g3
S'Kendrick Lamar'
p2222
sg5
I1
sg6
S'https://open.spotify.com/track/6SwRhMLwNqEi6alNPVG00n'
p2223
sg8
S'LOYALTY. FEAT. RIHANNA.'
p2224
ssS'0V78U6QU3RJ8kjW41OBmRw'
p2225
(dp2226
g3
S'Becky G'
p2227
sg5
I1
sg6
S'https://open.spotify.com/track/0V78U6QU3RJ8kjW41OBmRw'
p2228
sg8
S'Todo Cambio'
p2229
ssS'1GZZELGFwWsi2oLE1v1eyQ'
p2230
(dp2231
g3
S'Nicky Jam'
p2232
sg5
I1
sg6
S'https://open.spotify.com/track/1GZZELGFwWsi2oLE1v1eyQ'
p2233
sg8
S'Por el Momento'
p2234
ssS'1denQBP7H6fh9BXaTIgvQy'
p2235
(dp2236
g3
S'Feid'
p2237
sg5
I17
sg6
S'https://open.spotify.com/track/1denQBP7H6fh9BXaTIgvQy'
p2238
sg8
S'911'
p2239
ssS'0tKcYR2II1VCQWT79i5NrW'
p2240
(dp2241
g3
S'Imagine Dragons'
p2242
sg5
I21
sg6
S'https://open.spotify.com/track/0tKcYR2II1VCQWT79i5NrW'
p2243
sg8
S'Thunder'
p2244
ssS'6gpcs5eMhJwax4mIfKDYQk'
p2245
(dp2246
g3
S'Calvin Harris'
p2247
sg5
I4
sg6
S'https://open.spotify.com/track/6gpcs5eMhJwax4mIfKDYQk'
p2248
sg8
S'Slide'
p2249
ssS'6DNtNfH8hXkqOX1sjqmI7p'
p2250
(dp2251
g3
S'Major Lazer'
p2252
sg5
I32
sg6
S'https://open.spotify.com/track/6DNtNfH8hXkqOX1sjqmI7p'
p2253
sg8
S'Cold Water (feat. Justin Bieber & M\xc3\x98)'
p2254
ssS'5NNlUMcOEOdoOIwwaWXv0k'
p2255
(dp2256
g3
S'Maroon 5'
p2257
sg5
I28
sg6
S'https://open.spotify.com/track/5NNlUMcOEOdoOIwwaWXv0k'
p2258
sg8
S'Cold'
p2259
ssS'5R4HqXCZ6uTjxxnGdLt2S6'
p2260
(dp2261
g3
S'Noah Cyrus'
p2262
sg5
I3
sg6
S'https://open.spotify.com/track/5R4HqXCZ6uTjxxnGdLt2S6'
p2263
sg8
S'Stay Together'
p2264
ssS'1sXUWdKx03aP9Gmzft58rt'
p2265
(dp2266
g3
S'Julia Michaels'
p2267
sg5
I25
sg6
S'https://open.spotify.com/track/1sXUWdKx03aP9Gmzft58rt'
p2268
sg8
S'Issues'
p2269
ssS'3bVbQvGVIe4n24AzyXovXh'
p2270
(dp2271
g3
g197
sg5
I1
sg6
S'https://open.spotify.com/track/3bVbQvGVIe4n24AzyXovXh'
p2272
sg8
g197
ssS'14oOKFGuXu8DqvOe1W8vao'
p2273
(dp2274
g3
S'Katy Perry'
p2275
sg5
I2
sg6
S'https://open.spotify.com/track/14oOKFGuXu8DqvOe1W8vao'
p2276
sg8
S'Bon App\xc3\xa9tit'
p2277
ssS'66gNNRsKkmECPQUrvpMQtS'
p2278
(dp2279
g3
S'DJ Jonathan'
p2280
sg5
I1
sg6
S'https://open.spotify.com/track/66gNNRsKkmECPQUrvpMQtS'
p2281
sg8
S'El Farsante'
p2282
ssS'6f4UPdDBQONKJBRqwZGjaJ'
p2283
(dp2284
g3
S'Silvestre Dangond'
p2285
sg5
I4
sg6
S'https://open.spotify.com/track/6f4UPdDBQONKJBRqwZGjaJ'
p2286
sg8
S'C\xc3\xa1sate Conmigo'
p2287
ssS'1louJpMmzEicAn7lzDalPW'
p2288
(dp2289
g3
S'Cheat Codes'
p2290
sg5
I23
sg6
S'https://open.spotify.com/track/1louJpMmzEicAn7lzDalPW'
p2291
sg8
S'No Promises (feat. Demi Lovato)'
p2292
ssS'2h0iSG7htO0V4IvuwbTBf3'
p2293
(dp2294
g3
S'Sin Bandera'
p2295
sg5
I1
sg6
S'https://open.spotify.com/track/2h0iSG7htO0V4IvuwbTBf3'
p2296
sg8
S'Entra en Mi Vida'
p2297
ssS'2pJZ1v8HezrAoZ0Fhzby92'
p2298
(dp2299
g3
S'Ed Sheeran'
p2300
sg5
I2
sg6
S'https://open.spotify.com/track/2pJZ1v8HezrAoZ0Fhzby92'
p2301
sg8
S'What Do I Know?'
p2302
ssS'0KKkJNfGyhkQ5aFogxQAPU'
p2303
(dp2304
g3
S'Bruno Mars'
p2305
sg5
I35
sg6
S'https://open.spotify.com/track/0KKkJNfGyhkQ5aFogxQAPU'
p2306
sg8
S"That's What I Like"
p2307
ssS'2twUPIYOTqVivev47pf7bU'
p2308
(dp2309
g3
S'Ozuna'
p2310
sg5
I18
sg6
S'https://open.spotify.com/track/2twUPIYOTqVivev47pf7bU'
p2311
sg8
S'Te Vas'
p2312
ssS'494OU6M7NOf4ICYb4zWCf5'
p2313
(dp2314
g3
S'Maroon 5'
p2315
sg5
I29
sg6
S'https://open.spotify.com/track/494OU6M7NOf4ICYb4zWCf5'
p2316
sg8
S'Sugar'
p2317
ssS'1Slwb6dOYkBlWal1PGtnNg'
p2318
(dp2319
g3
S'Ed Sheeran'
p2320
sg5
I42
sg6
S'https://open.spotify.com/track/1Slwb6dOYkBlWal1PGtnNg'
p2321
sg8
S'Thinking Out Loud'
p2322
ssS'3VClLWqNn80Llv0PJOsKgr'
p2323
(dp2324
g3
S'Nacho'
p2325
sg5
I10
sg6
S'https://open.spotify.com/track/3VClLWqNn80Llv0PJOsKgr'
p2326
sg8
S'B\xc3\xa1ilame - Remix'
p2327
ssS'29csiYMOfBmLmGwxmISrMy'
p2328
(dp2329
g3
S'Ricardo Arjona'
p2330
sg5
I1
sg6
S'https://open.spotify.com/track/29csiYMOfBmLmGwxmISrMy'
p2331
sg8
S'Fuiste T\xc3\xba'
p2332
ssS'3kg9JvQe6QJFKUQCN1oIQz'
p2333
(dp2334
g3
S'Feid'
p2335
sg5
I11
sg6
S'https://open.spotify.com/track/3kg9JvQe6QJFKUQCN1oIQz'
p2336
sg8
S'Que Raro'
p2337
ssS'5Jt4zdXTd9y1zxihiNYQI1'
p2338
(dp2339
g3
S'Farruko'
p2340
sg5
I5
sg6
S'https://open.spotify.com/track/5Jt4zdXTd9y1zxihiNYQI1'
p2341
sg8
S'Obsesionado'
p2342
ssS'3pI6VigoXHkcL3VYLJfBhq'
p2343
(dp2344
g3
S'Ricky Martin'
p2345
sg5
I6
sg6
S'https://open.spotify.com/track/3pI6VigoXHkcL3VYLJfBhq'
p2346
sg8
S"Vente Pa' Ca - Urban Remix"
p2347
ssS'4Ofg5uuH7qqDIXpAJMpXZV'
p2348
(dp2349
g3
S'Man\xc3\xa1'
p2350
sg5
I2
sg6
S'https://open.spotify.com/track/4Ofg5uuH7qqDIXpAJMpXZV'
p2351
sg8
S'Rayando el sol'
p2352
ssS'5rBWtDMRu3sxei9aQBXaRJ'
p2353
(dp2354
g3
S'Don Miguelo'
p2355
sg5
I10
sg6
S'https://open.spotify.com/track/5rBWtDMRu3sxei9aQBXaRJ'
p2356
sg8
S'Dimelo (feat. Wason Brazoban)'
p2357
ssS'0B7wvvmu9EISAwZnOpjhNI'
p2358
(dp2359
g3
S'Bruno Mars'
p2360
sg5
I42
sg6
S'https://open.spotify.com/track/0B7wvvmu9EISAwZnOpjhNI'
p2361
sg8
S'When I Was Your Man'
p2362
ssS'6TIU9Ehmi6dMzZK73Ym4yj'
p2363
(dp2364
g3
S'Ed Sheeran'
p2365
sg5
I1
sg6
S'https://open.spotify.com/track/6TIU9Ehmi6dMzZK73Ym4yj'
p2366
sg8
S'Save Myself'
p2367
ssS'3H0Vda4LvcNlwRQpNd8MHJ'
p2368
(dp2369
g3
S'Juanes'
p2370
sg5
I7
sg6
S'https://open.spotify.com/track/3H0Vda4LvcNlwRQpNd8MHJ'
p2371
sg8
S'Hermosa Ingrata'
p2372
ssS'4pOzYeieOMPD1xTQuDgELK'
p2373
(dp2374
g3
S'Yandel'
p2375
sg5
I1
sg6
S'https://open.spotify.com/track/4pOzYeieOMPD1xTQuDgELK'
p2376
sg8
S'Muy Personal'
p2377
ssS'4XCQtUoRSh22Ep18ULmDnT'
p2378
(dp2379
g3
S'De La Ghetto'
p2380
sg5
I4
sg6
S'https://open.spotify.com/track/4XCQtUoRSh22Ep18ULmDnT'
p2381
sg8
S'La Formula (feat. Chris Jeday)'
p2382
ssS'0N4jis8aNOjiIfkBl4mGje'
p2383
(dp2384
g3
S'R\xc3\xado Roma'
p2385
sg5
I23
sg6
S'https://open.spotify.com/track/0N4jis8aNOjiIfkBl4mGje'
p2386
sg8
S'Princesa'
p2387
ssS'0lPXFrKyl8HkdQ2E6NmNja'
p2388
(dp2389
g3
S'Reik'
p2390
sg5
I26
sg6
S'https://open.spotify.com/track/0lPXFrKyl8HkdQ2E6NmNja'
p2391
sg8
S'Ya Me Enter\xc3\xa9'
p2392
ssS'693iqPOQvhI7PobtR8CC8v'
p2393
(dp2394
g3
S'J Balvin'
p2395
sg5
I19
sg6
S'https://open.spotify.com/track/693iqPOQvhI7PobtR8CC8v'
p2396
sg8
S'Bonita'
p2397
ssS'05rJdH2MRLJ3sQoEUO78qs'
p2398
(dp2399
g3
S'Anitta'
p2400
sg5
I9
sg6
S'https://open.spotify.com/track/05rJdH2MRLJ3sQoEUO78qs'
p2401
sg8
S'Paradinha'
p2402
ssS'3WpUm0g3LnhZcdMDmaj3XM'
p2403
(dp2404
g3
S'Sin Bandera'
p2405
sg5
I1
sg6
S'https://open.spotify.com/track/3WpUm0g3LnhZcdMDmaj3XM'
p2406
sg8
S'Te Vi Venir'
p2407
ssS'6fxVffaTuwjgEk5h9QyRjy'
p2408
(dp2409
g3
S'Ed Sheeran'
p2410
sg5
I42
sg6
S'https://open.spotify.com/track/6fxVffaTuwjgEk5h9QyRjy'
p2411
sg8
S'Photograph'
p2412
ssS'2kVHAQKVtczchKctctzbtK'
p2413
(dp2414
g3
S'Katy Perry'
p2415
sg5
I15
sg6
S'https://open.spotify.com/track/2kVHAQKVtczchKctctzbtK'
p2416
sg8
S'Swish Swish'
p2417
ssS'21lnmphofXWWeSSx0PEMjc'
p2418
(dp2419
g3
S'Bryant Myers'
p2420
sg5
I2
sg6
S'https://open.spotify.com/track/21lnmphofXWWeSSx0PEMjc'
p2421
sg8
S'Un Ratito Mas'
p2422
ssS'6nxQdXa1uAL0rY72wPZu89'
p2423
(dp2424
g3
S'John Legend'
p2425
sg5
I8
sg6
S'https://open.spotify.com/track/6nxQdXa1uAL0rY72wPZu89'
p2426
sg8
S'Love Me Now'
p2427
ssS'6kex4EBAj0WHXDKZMEJaaF'
p2428
(dp2429
g3
S'Jason Derulo'
p2430
sg5
I30
sg6
S'https://open.spotify.com/track/6kex4EBAj0WHXDKZMEJaaF'
p2431
sg8
S'Swalla (feat. Nicki Minaj & Ty Dolla $ign)'
p2432
ssS'4skuEIloXWuxxgekKupkEH'
p2433
(dp2434
g3
S'Mon Laferte'
p2435
sg5
I18
sg6
S'https://open.spotify.com/track/4skuEIloXWuxxgekKupkEH'
p2436
sg8
S'Tu Falta De Querer'
p2437
ssS'1iEwyiSLAunPR6uouANE0O'
p2438
(dp2439
g3
S'Maluma'
p2440
sg5
I13
sg6
S'https://open.spotify.com/track/1iEwyiSLAunPR6uouANE0O'
p2441
sg8
S'El Perdedor'
p2442
ssS'79Bm3DTEYuQsDpUVHbSRsL'
p2443
(dp2444
g3
S'Sofia Reyes'
p2445
sg5
I15
sg6
S'https://open.spotify.com/track/79Bm3DTEYuQsDpUVHbSRsL'
p2446
sg8
S'Llegaste t\xc3\xba (feat. Reykon)'
p2447
ssS'0gbBzIqrECJOEPvQJIBFs5'
p2448
(dp2449
g3
S'Lorde'
p2450
sg5
I8
sg6
S'https://open.spotify.com/track/0gbBzIqrECJOEPvQJIBFs5'
p2451
sg8
S'Green Light'
p2452
ssS'08WPvDEsHvTFuB9w8tC2OS'
p2453
(dp2454
g3
S'Sage The Gemini'
p2455
sg5
I1
sg6
S'https://open.spotify.com/track/08WPvDEsHvTFuB9w8tC2OS'
p2456
sg8
S'Now and Later'
p2457
ssS'4iPV0gcc8keTFl6qxqP73M'
p2458
(dp2459
g3
S'CNCO'
p2460
sg5
I36
sg6
S'https://open.spotify.com/track/4iPV0gcc8keTFl6qxqP73M'
p2461
sg8
S'Quisiera'
p2462
ssS'7KXjTSCq5nL1LoYtL7XAwS'
p2463
(dp2464
g3
S'Kendrick Lamar'
p2465
sg5
I28
sg6
S'https://open.spotify.com/track/7KXjTSCq5nL1LoYtL7XAwS'
p2466
sg8
S'HUMBLE.'
p2467
ssS'2JBs412fpVUuzIaIp3CyIs'
p2468
(dp2469
g3
S'Man\xc3\xa1'
p2470
sg5
I1
sg6
S'https://open.spotify.com/track/2JBs412fpVUuzIaIp3CyIs'
p2471
sg8
S'Bendita Tu Luz'
p2472
ssS'5MT96Zz0ymUJNm8obKZQr0'
p2473
(dp2474
g3
S'Bad Bunny'
p2475
sg5
I35
sg6
S'https://open.spotify.com/track/5MT96Zz0ymUJNm8obKZQr0'
p2476
sg8
S'Soy Peor'
p2477
ssS'6Na5uKk5SsqZimk0hAWo8y'
p2478
(dp2479
g3
S'Drake'
p2480
sg5
I1
sg6
S'https://open.spotify.com/track/6Na5uKk5SsqZimk0hAWo8y'
p2481
sg8
S'Signs'
p2482
ssS'7cSzVyvsFzHOGIxX540DVd'
p2483
(dp2484
g3
S'Bonny Lovy'
p2485
sg5
I5
sg6
S'https://open.spotify.com/track/7cSzVyvsFzHOGIxX540DVd'
p2486
sg8
S'Desde Que la Vi'
p2487
ssS'7BwJtE8KSbCQKOCTIAY3jX'
p2488
(dp2489
g3
S'Carlos Baute'
p2490
sg5
I42
sg6
S'https://open.spotify.com/track/7BwJtE8KSbCQKOCTIAY3jX'
p2491
sg8
S'Ando buscando'
p2492
ssS'0Szp49tpFasIjX04Mcsydp'
p2493
(dp2494
g3
S'Ozuna'
p2495
sg5
I17
sg6
S'https://open.spotify.com/track/0Szp49tpFasIjX04Mcsydp'
p2496
sg8
S'Tu Foto'
p2497
ssS'0n2bvWvMwr0gbjcuTm92eW'
p2498
(dp2499
g3
S'Lana Del Rey'
p2500
sg5
I2
sg6
S'https://open.spotify.com/track/0n2bvWvMwr0gbjcuTm92eW'
p2501
sg8
S'Love'
p2502
ssS'4C1opPFRPafp6yj4AJPBRB'
p2503
(dp2504
g3
S'Leslie Grace'
p2505
sg5
I1
sg6
S'https://open.spotify.com/track/4C1opPFRPafp6yj4AJPBRB'
p2506
sg8
S'D\xc3\xadganle'
p2507
ssS'3Lfiu5sZ4M4B6JaKMBc0FU'
p2508
(dp2509
g3
S'Ed Sheeran'
p2510
sg5
I2
sg6
S'https://open.spotify.com/track/3Lfiu5sZ4M4B6JaKMBc0FU'
p2511
sg8
S'Barcelona'
p2512
ssS'7iXRsjttPa62GpOcqsx1aE'
p2513
(dp2514
g3
S'Reik'
p2515
sg5
I14
sg6
S'https://open.spotify.com/track/7iXRsjttPa62GpOcqsx1aE'
p2516
sg8
S'Qu\xc3\xa9 Gano Olvid\xc3\xa1ndote'
p2517
ssS'4kfm1uI9QGaoN9qm6CkAMn'
p2518
(dp2519
g3
S'Linkin Park'
p2520
sg5
I2
sg6
S'https://open.spotify.com/track/4kfm1uI9QGaoN9qm6CkAMn'
p2521
sg8
S"What I've Done"
p2522
ssS'69bp2EbF7Q2rqc5N3ylezZ'
p2523
(dp2524
g3
S'Justin Bieber'
p2525
sg5
I18
sg6
S'https://open.spotify.com/track/69bp2EbF7Q2rqc5N3ylezZ'
p2526
sg8
S'Sorry'
p2527
ssS'2cnKEkpVUSV4wnjQiTWfH6'
p2528
(dp2529
g3
S'Wisin'
p2530
sg5
I29
sg6
S'https://open.spotify.com/track/2cnKEkpVUSV4wnjQiTWfH6'
p2531
sg8
S'Esc\xc3\xa1pate Conmigo'
p2532
ssS'6qDF4wWL49CAVbgT7yuHl8'
p2533
(dp2534
g3
S'J Balvin'
p2535
sg5
I39
sg6
S'https://open.spotify.com/track/6qDF4wWL49CAVbgT7yuHl8'
p2536
sg8
S'Sigo Extra\xc3\xb1\xc3\xa1ndote'
p2537
ssS'4iLqG9SeJSnt0cSPICSjxv'
p2538
(dp2539
g3
S'Charlie Puth'
p2540
sg5
I25
sg6
S'https://open.spotify.com/track/4iLqG9SeJSnt0cSPICSjxv'
p2541
sg8
S'Attention'
p2542
ssS'15dnkAHcHC0vrIUlbiPiqU'
p2543
(dp2544
g3
S'Imagine Dragons'
p2545
sg5
I1
sg6
S'https://open.spotify.com/track/15dnkAHcHC0vrIUlbiPiqU'
p2546
sg8
S'I Don\xe2\x80\x99t Know Why'
p2547
ssS'6RUKPb4LETWmmr3iAEQktW'
p2548
(dp2549
g3
S'The Chainsmokers'
p2550
sg5
I34
sg6
S'https://open.spotify.com/track/6RUKPb4LETWmmr3iAEQktW'
p2551
sg8
S'Something Just Like This'
p2552
ssS'3FQCJI2t5LTbsRPfYVBSVB'
p2553
(dp2554
g3
S'Linkin Park'
p2555
sg5
I1
sg6
S'https://open.spotify.com/track/3FQCJI2t5LTbsRPfYVBSVB'
p2556
sg8
S'Battle Symphony'
p2557
ssS'0MIcPSq9n2z5H8TAfEstri'
p2558
(dp2559
g3
S'Ozuna'
p2560
sg5
I3
sg6
S'https://open.spotify.com/track/0MIcPSq9n2z5H8TAfEstri'
p2561
sg8
S'Quiero Repetir'
p2562
ssS'2CPqh63wRVscbceKcPxwvv'
p2563
(dp2564
g3
S'Mike Perry'
p2565
sg5
I1
sg6
S'https://open.spotify.com/track/2CPqh63wRVscbceKcPxwvv'
p2566
sg8
S'The Ocean'
p2567
ssS'733ybNEEEXHYxfk8sK6MRO'
p2568
(dp2569
g3
S'Chino & Nacho'
p2570
sg5
I4
sg6
S'https://open.spotify.com/track/733ybNEEEXHYxfk8sK6MRO'
p2571
sg8
S'Andas En Mi Cabeza - Remix'
p2572
ssS'7qCAVkHWZkF44OzOUKf8Cr'
p2573
(dp2574
g3
S'Nicky Jam'
p2575
sg5
I26
sg6
S'https://open.spotify.com/track/7qCAVkHWZkF44OzOUKf8Cr'
p2576
sg8
S'El Perd\xc3\xb3n'
p2577
ssS'1xznGGDReH1oQq0xzbwXa3'
p2578
(dp2579
g3
S'Drake'
p2580
sg5
I42
sg6
S'https://open.spotify.com/track/1xznGGDReH1oQq0xzbwXa3'
p2581
sg8
S'One Dance'
p2582
ssS'5GXAXm5YOmYT0kL5jHvYBt'
p2583
(dp2584
g3
S'The Weeknd'
p2585
sg5
I42
sg6
S'https://open.spotify.com/track/5GXAXm5YOmYT0kL5jHvYBt'
p2586
sg8
S'I Feel It Coming'
p2587
ssS'2habSXqcJGExM6JJyskY7O'
p2588
(dp2589
g3
S'Miley Cyrus'
p2590
sg5
I17
sg6
S'https://open.spotify.com/track/2habSXqcJGExM6JJyskY7O'
p2591
sg8
S'Malibu'
p2592
ssS'0lMbuWUpfTWhEmOKxppEau'
p2593
(dp2594
g3
S'Calvin Harris'
p2595
sg5
I5
sg6
S'https://open.spotify.com/track/0lMbuWUpfTWhEmOKxppEau'
p2596
sg8
S'Rollin'
p2597
ssS'5Ua3GXyHwiSfpNTMjq6m2z'
p2598
(dp2599
g3
S'Little Mix'
p2600
sg5
I1
sg6
S'https://open.spotify.com/track/5Ua3GXyHwiSfpNTMjq6m2z'
p2601
sg8
S'Touch'
p2602
ssS'6i0V12jOa3mr6uu4WYhUBr'
p2603
(dp2604
g3
S'Twenty One Pilots'
p2605
sg5
I30
sg6
S'https://open.spotify.com/track/6i0V12jOa3mr6uu4WYhUBr'
p2606
sg8
S'Heathens'
p2607
ssS'7gHs73wELdeycvS48JfIos'
p2608
(dp2609
g3
S'Alan Walker'
p2610
sg5
I42
sg6
S'https://open.spotify.com/track/7gHs73wELdeycvS48JfIos'
p2611
sg8
S'Faded'
p2612
ssS'51ChrwmUPDJvedPQnIU8Ls'
p2613
(dp2614
g3
S'Ed Sheeran'
p2615
sg5
I8
sg6
S'https://open.spotify.com/track/51ChrwmUPDJvedPQnIU8Ls'
p2616
sg8
S'Dive'
p2617
ssS'4B1rpPmQXwj78wk6aIGwwU'
p2618
(dp2619
g3
S'Harry Styles'
p2620
sg5
I1
sg6
S'https://open.spotify.com/track/4B1rpPmQXwj78wk6aIGwwU'
p2621
sg8
S'Two Ghosts'
p2622
ssS'6jA8HL9i4QGzsj6fjoxp8Y'
p2623
(dp2624
g3
S'Martin Garrix'
p2625
sg5
I20
sg6
S'https://open.spotify.com/track/6jA8HL9i4QGzsj6fjoxp8Y'
p2626
sg8
S'There for You'
p2627
ssS'6Pur3hWy6Nzc27ilmsp5HA'
p2628
(dp2629
g3
S'Los Enanitos Verdes'
p2630
sg5
I2
sg6
S'https://open.spotify.com/track/6Pur3hWy6Nzc27ilmsp5HA'
p2631
sg8
S'Lamento Boliviano'
p2632
ssS'42MoYJb42qprlpJU0OEhAT'
p2633
(dp2634
g3
S'Jencarlos'
p2635
sg5
I10
sg6
S'https://open.spotify.com/track/42MoYJb42qprlpJU0OEhAT'
p2636
sg8
S'Dure Dure'
p2637
ssS'1CUVN2kn7mW5FjkqXTR2W1'
p2638
(dp2639
g3
S'Jonas Blue'
p2640
sg5
I22
sg6
S'https://open.spotify.com/track/1CUVN2kn7mW5FjkqXTR2W1'
p2641
sg8
S'Perfect Strangers'
p2642
ssS'7nKBxz47S9SD79N086fuhn'
p2643
(dp2644
g3
S'Enrique Iglesias'
p2645
sg5
I33
sg6
S'https://open.spotify.com/track/7nKBxz47S9SD79N086fuhn'
p2646
sg8
S'SUBEME LA RADIO'
p2647
ssS'27SdWb2rFzO6GWiYDBTD9j'
p2648
(dp2649
g3
S'Sia'
p2650
sg5
I40
sg6
S'https://open.spotify.com/track/27SdWb2rFzO6GWiYDBTD9j'
p2651
sg8
S'Cheap Thrills'
p2652
ssS'3ibRxEv4KkcU9e259eyNJA'
p2653
(dp2654
g3
S'Major Lazer'
p2655
sg5
I10
sg6
S'https://open.spotify.com/track/3ibRxEv4KkcU9e259eyNJA'
p2656
sg8
S'Sua Cara (feat. Anitta & Pabllo Vittar)'
p2657
ssS'6PJ8FF6UR8FZXfEvpHkIVN'
p2658
(dp2659
g3
S'Ed Sheeran'
p2660
sg5
I5
sg6
S'https://open.spotify.com/track/6PJ8FF6UR8FZXfEvpHkIVN'
p2661
sg8
S'How Would You Feel (Paean)'
p2662
ssS'3hB5DgAiMAQ4DzYbsMq1IT'
p2663
(dp2664
g3
S'Justin Bieber'
p2665
sg5
I29
sg6
S'https://open.spotify.com/track/3hB5DgAiMAQ4DzYbsMq1IT'
p2666
sg8
S'Love Yourself'
p2667
ssS'5ndfVSDyPq90jaIUhNPeby'
p2668
(dp2669
g3
S'Katy Perry'
p2670
sg5
I2
sg6
S'https://open.spotify.com/track/5ndfVSDyPq90jaIUhNPeby'
p2671
sg8
S'Chained To The Rhythm'
p2672
ssS'0mwPE0lPOgnWf2bo14xedJ'
p2673
(dp2674
g3
S'Juanes'
p2675
sg5
I29
sg6
S'https://open.spotify.com/track/0mwPE0lPOgnWf2bo14xedJ'
p2676
sg8
S'Fuego'
p2677
ssS'5uCax9HTNlzGybIStD3vDh'
p2678
(dp2679
g3
S'James Arthur'
p2680
sg5
I37
sg6
S'https://open.spotify.com/track/5uCax9HTNlzGybIStD3vDh'
p2681
sg8
S"Say You Won't Let Go"
p2682
ssS'7qiZfU4dY1lWllzX7mPBI3'
p2683
(dp2684
g3
S'Ed Sheeran'
p2685
sg5
I40
sg6
S'https://open.spotify.com/track/7qiZfU4dY1lWllzX7mPBI3'
p2686
sg8
S'Shape of You'
p2687
ssS'0wfbD5rAksdXUzRvMfM3x5'
p2688
(dp2689
g3
S'The Chainsmokers'
p2690
sg5
I8
sg6
S'https://open.spotify.com/track/0wfbD5rAksdXUzRvMfM3x5'
p2691
sg8
S'The One'
p2692
ssS'1yFiaFeSLpw4nDYTeErRZ6'
p2693
(dp2694
g3
S'Linkin Park'
p2695
sg5
I1
sg6
S'https://open.spotify.com/track/1yFiaFeSLpw4nDYTeErRZ6'
p2696
sg8
S'Leave Out All The Rest'
p2697
ssS'2jVJYU4X3aD8hlTco3MlsN'
p2698
(dp2699
g3
S'Brytiago'
p2700
sg5
I14
sg6
S'https://open.spotify.com/track/2jVJYU4X3aD8hlTco3MlsN'
p2701
sg8
S'Beb\xc3\xa9 - Remix'
p2702
ssS'1F2HXIJrE2Xn81OzT2zZvW'
p2703
(dp2704
g3
S'French Montana'
p2705
sg5
I9
sg6
S'https://open.spotify.com/track/1F2HXIJrE2Xn81OzT2zZvW'
p2706
sg8
S'Unforgettable'
p2707
ssS'78rIJddV4X0HkNAInEcYde'
p2708
(dp2709
g3
S'Starley'
p2710
sg5
I28
sg6
S'https://open.spotify.com/track/78rIJddV4X0HkNAInEcYde'
p2711
sg8
S'Call On Me - Ryan Riback Extended Remix'
p2712
ssS'0L7loeTIg6akW84aEQZpCT'
p2713
(dp2714
g3
S'Major Lazer'
p2715
sg5
I26
sg6
S'https://open.spotify.com/track/0L7loeTIg6akW84aEQZpCT'
p2716
sg8
S'Light It Up (feat. Nyla & Fuse ODG) - Remix'
p2717
ssS'4Q5yMlwAfAoitqg4r9oZHN'
p2718
(dp2719
g3
S'Cashmere Cat'
p2720
sg5
I2
sg6
S'https://open.spotify.com/track/4Q5yMlwAfAoitqg4r9oZHN'
p2721
sg8
S'Quit (feat. Ariana Grande)'
p2722
ssS'2EEeOnHehOozLq4aS0n6SL'
p2723
(dp2724
g3
S'KYLE'
p2725
sg5
I11
sg6
S'https://open.spotify.com/track/2EEeOnHehOozLq4aS0n6SL'
p2726
sg8
S'iSpy (feat. Lil Yachty)'
p2727
ssS'0VjbN2rfs40mHQ5mZN9UCE'
p2728
(dp2729
g3
S'Paulina Rubio'
p2730
sg5
I1
sg6
S'https://open.spotify.com/track/0VjbN2rfs40mHQ5mZN9UCE'
p2731
sg8
S'Me Quema'
p2732
ssS'6DUdDIRgLqCGq1DwkNWQTN'
p2733
(dp2734
g3
S'Maluma'
p2735
sg5
I42
sg6
S'https://open.spotify.com/track/6DUdDIRgLqCGq1DwkNWQTN'
p2736
sg8
S'Borro Cassette'
p2737
ssS'167NczpNbRF7oWakJaY3Hh'
p2738
(dp2739
g3
S'Niall Horan'
p2740
sg5
I18
sg6
S'https://open.spotify.com/track/167NczpNbRF7oWakJaY3Hh'
p2741
sg8
S'Slow Hands'
p2742
ssS'1LszjjoVwDDZcWUQbzeDLG'
p2743
(dp2744
g3
S'Yandel'
p2745
sg5
I5
sg6
S'https://open.spotify.com/track/1LszjjoVwDDZcWUQbzeDLG'
p2746
sg8
S'Expl\xc3\xadcale'
p2747
ssS'5mey7CLLuFToM2P68Qu1gF'
p2748
(dp2749
g3
S'Chino & Nacho'
p2750
sg5
I42
sg6
S'https://open.spotify.com/track/5mey7CLLuFToM2P68Qu1gF'
p2751
sg8
S'Andas En Mi Cabeza'
p2752
ssS'32lm3769IRfcnrQV11LO4E'
p2753
(dp2754
g3
S'Enrique Iglesias'
p2755
sg5
I9
sg6
S'https://open.spotify.com/track/32lm3769IRfcnrQV11LO4E'
p2756
sg8
S'Bailando - Spanish Version'
p2757
ssS'35OC6rMxa8lJi8eDiUVShS'
p2758
(dp2759
g3
S'De La Ghetto'
p2760
sg5
I16
sg6
S'https://open.spotify.com/track/35OC6rMxa8lJi8eDiUVShS'
p2761
sg8
S'Ac\xc3\xa9rcate (feat. Nicky Jam) - Remix'
p2762
ssS'7yHEDfrJNd0zWOfXwydNH0'
p2763
(dp2764
g3
S'Ariana Grande'
p2765
sg5
I6
sg6
S'https://open.spotify.com/track/7yHEDfrJNd0zWOfXwydNH0'
p2766
sg8
S'Into You'
p2767
ssS'0LtVx5vsq9nfpGsWgjUin6'
p2768
(dp2769
g3
S'Ryan Gosling'
p2770
sg5
I2
sg6
S'https://open.spotify.com/track/0LtVx5vsq9nfpGsWgjUin6'
p2771
sg8
S'City Of Stars - From La La Land Soundtrack'
p2772
ssS'5Db9VIdDsN5yu3Eu7CT0i4'
p2773
(dp2774
g3
S'Sam Smith'
p2775
sg5
I1
sg6
S'https://open.spotify.com/track/5Db9VIdDsN5yu3Eu7CT0i4'
p2776
sg8
S'Stay With Me'
p2777
ssS'626rYyBfeAeleh1F5t4B70'
p2778
(dp2779
g3
S'Revol'
p2780
sg5
I16
sg6
S'https://open.spotify.com/track/626rYyBfeAeleh1F5t4B70'
p2781
sg8
S'Caile (feat. Zion & De La Ghetto)'
p2782
ssS'11KJSRSgaDxqydKYiD2Jew'
p2783
(dp2784
g3
S'Drake'
p2785
sg5
I8
sg6
S'https://open.spotify.com/track/11KJSRSgaDxqydKYiD2Jew'
p2786
sg8
S'Too Good'
p2787
ssS'3zoYkqS4y2BsGVShPL2nTE'
p2788
(dp2789
g3
S'CNCO'
p2790
sg5
I8
sg6
S'https://open.spotify.com/track/3zoYkqS4y2BsGVShPL2nTE'
p2791
sg8
S'Reggaet\xc3\xb3n Lento (Remix) [CNCO & Little Mix]'
p2792
ssS'2xt2piJx6jlFkjS77YiqpL'
p2793
(dp2794
g3
S'Audioslave'
p2795
sg5
I1
sg6
S'https://open.spotify.com/track/2xt2piJx6jlFkjS77YiqpL'
p2796
sg8
S'Like a Stone'
p2797
ssS'1yNyoWWWikbLhwIGWjZuDW'
p2798
(dp2799
g3
S'The Vamps'
p2800
sg5
I13
sg6
S'https://open.spotify.com/track/1yNyoWWWikbLhwIGWjZuDW'
p2801
sg8
S'All Night'
p2802
ssS'5xMzazov0IHYllrc8U2K6F'
p2803
(dp2804
g3
S'Jennifer Lopez'
p2805
sg5
I14
sg6
S'https://open.spotify.com/track/5xMzazov0IHYllrc8U2K6F'
p2806
sg8
S'Ni T\xc3\xba Ni Yo'
p2807
ssS'2z0EshEO4XptiepEb9j3Og'
p2808
(dp2809
g3
S'Morat'
p2810
sg5
I6
sg6
S'https://open.spotify.com/track/2z0EshEO4XptiepEb9j3Og'
p2811
sg8
S'C\xc3\xb3mo Te Atreves'
p2812
ssS'4vb4mFvYsr2h6enhjJsq9Y'
p2813
(dp2814
g3
S'Adele'
p2815
sg5
I12
sg6
S'https://open.spotify.com/track/4vb4mFvYsr2h6enhjJsq9Y'
p2816
sg8
S'Water Under the Bridge'
p2817
ssS'2xNZeeqmwMPVKnD7FSQfgt'
p2818
(dp2819
g3
S'Maluma'
p2820
sg5
I18
sg6
S'https://open.spotify.com/track/2xNZeeqmwMPVKnD7FSQfgt'
p2821
sg8
S'Sin Contrato - Remix'
p2822
ssS'17Fd6Yb7mSbinKG8LoWfFl'
p2823
(dp2824
g3
S'Mike Posner'
p2825
sg5
I42
sg6
S'https://open.spotify.com/track/17Fd6Yb7mSbinKG8LoWfFl'
p2826
sg8
S'I Took A Pill In Ibiza - Seeb Remix'
p2827
ssS'0fg8CqpjdojMyXLNzM2PaJ'
p2828
(dp2829
g3
S'Major Lazer'
p2830
sg5
I17
sg6
S'https://open.spotify.com/track/0fg8CqpjdojMyXLNzM2PaJ'
p2831
sg8
S'Run Up (feat. PARTYNEXTDOOR & Nicki Minaj)'
p2832
ssS'4tCtwWceOPWzenK2HAIJSb'
p2833
(dp2834
g3
S'Fifth Harmony'
p2835
sg5
I22
sg6
S'https://open.spotify.com/track/4tCtwWceOPWzenK2HAIJSb'
p2836
sg8
S'Work from Home'
p2837
ssS'5ZF3889W92eTBOROe0lPNN'
p2838
(dp2839
g3
S'Anuel Aa'
p2840
sg5
I12
sg6
S'https://open.spotify.com/track/5ZF3889W92eTBOROe0lPNN'
p2841
sg8
S'Ayer 2'
p2842
ssS'27ebni0DfbT5Owz6W42HP8'
p2843
(dp2844
g3
S'Yandel'
p2845
sg5
I8
sg6
S'https://open.spotify.com/track/27ebni0DfbT5Owz6W42HP8'
p2846
sg8
S'Nunca Me Olvides'
p2847
ssS'6RFJxVj9tL0Xrd3Jve4Vo4'
p2848
(dp2849
g3
S'Romeo Santos'
p2850
sg5
I1
sg6
S'https://open.spotify.com/track/6RFJxVj9tL0Xrd3Jve4Vo4'
p2851
sg8
S'H\xc3\xa9roe Favorito'
p2852
ssS'072YgF7J2clpY8DsWOpEri'
p2853
(dp2854
g3
S'Sin Bandera'
p2855
sg5
I4
sg6
S'https://open.spotify.com/track/072YgF7J2clpY8DsWOpEri'
p2856
sg8
S'Mientes Tan Bien'
p2857
ssS'6XOYVSmNDjKUNMXooU4s4z'
p2858
(dp2859
g3
S'OneRepublic'
p2860
sg5
I3
sg6
S'https://open.spotify.com/track/6XOYVSmNDjKUNMXooU4s4z'
p2861
sg8
S'No Vacancy'
p2862
ssS'7hydwXc3IVJIItIif6ZuLH'
p2863
(dp2864
g3
S'Ricardo Arjona'
p2865
sg5
I1
sg6
S'https://open.spotify.com/track/7hydwXc3IVJIItIif6ZuLH'
p2866
sg8
S'Ella'
p2867
ssS'5g7sDjBhZ4I3gcFIpkrLuI'
p2868
(dp2869
g3
S'Bruno Mars'
p2870
sg5
I2
sg6
S'https://open.spotify.com/track/5g7sDjBhZ4I3gcFIpkrLuI'
p2871
sg8
S'Locked Out Of Heaven'
p2872
ssS'3AJwUDP919kvQ9QcozQPxg'
p2873
(dp2874
g3
S'Coldplay'
p2875
sg5
I2
sg6
S'https://open.spotify.com/track/3AJwUDP919kvQ9QcozQPxg'
p2876
sg8
S'Yellow'
p2877
ssS'6ZvmnulA6jJY3lvveuCz77'
p2878
(dp2879
g3
S'CNCO'
p2880
sg5
I13
sg6
S'https://open.spotify.com/track/6ZvmnulA6jJY3lvveuCz77'
p2881
sg8
S'Tan F\xc3\xa1cil - Urban Remix'
p2882
ssS'0OMRAvrtLWE2TvcXorRiB9'
p2883
(dp2884
g3
S'Gente De Zona'
p2885
sg5
I31
sg6
S'https://open.spotify.com/track/0OMRAvrtLWE2TvcXorRiB9'
p2886
sg8
S'La Gozadera'
p2887
ssS'31MkGwj0SWgZaTvEt5Hgxv'
p2888
(dp2889
g3
S'P!nk'
p2890
sg5
I2
sg6
S'https://open.spotify.com/track/31MkGwj0SWgZaTvEt5Hgxv'
p2891
sg8
S'What About Us'
p2892
ssS'5tz69p7tJuGPeMGwNTxYuV'
p2893
(dp2894
g3
S'Logic'
p2895
sg5
I11
sg6
S'https://open.spotify.com/track/5tz69p7tJuGPeMGwNTxYuV'
p2896
sg8
S'1-800-273-8255'
p2897
ss.