(dp0
S'0mel2N9Ws9r4yLQn5QE21Y'
p1
(dp2
S'artistName'
p3
S'Sam Smith'
p4
sS'weeksOnChart'
p5
I5
sS'track_href'
p6
S'https://open.spotify.com/track/0mel2N9Ws9r4yLQn5QE21Y'
p7
sS'songName'
p8
S'Too Good At Goodbyes'
p9
ssS'728zbo72kOoYdGR3AhNsyF'
p10
(dp11
g3
S'The xx'
p12
sg5
I6
sg6
S'https://open.spotify.com/track/728zbo72kOoYdGR3AhNsyF'
p13
sg8
S'Say Something Loving'
p14
ssS'6G0WvujZuBfEcV3qnWYjTa'
p15
(dp16
g3
S'Angemi'
p17
sg5
I8
sg6
S'https://open.spotify.com/track/6G0WvujZuBfEcV3qnWYjTa'
p18
sg8
S"I'll Catch You - Original Mix"
p19
ssS'0jdny0dhgjUwoIp5GkqEaA'
p20
(dp21
g3
S'Kesha'
p22
sg5
I5
sg6
S'https://open.spotify.com/track/0jdny0dhgjUwoIp5GkqEaA'
p23
sg8
S'Praying'
p24
ssS'2p6U0PmCLvSEIuGMdfKVd2'
p25
(dp26
g3
S'Henri PFR'
p27
sg5
I5
sg6
S'https://open.spotify.com/track/2p6U0PmCLvSEIuGMdfKVd2'
p28
sg8
S'Flames'
p29
ssS'0prNGof3XqfTvNDxHonvdK'
p30
(dp31
g3
S'Alessia Cara'
p32
sg5
I13
sg6
S'https://open.spotify.com/track/0prNGof3XqfTvNDxHonvdK'
p33
sg8
S'Scars To Your Beautiful'
p34
ssS'6HUnnBwYZqcED1eQztxMBN'
p35
(dp36
g3
S'Martin Jensen'
p37
sg5
I42
sg6
S'https://open.spotify.com/track/6HUnnBwYZqcED1eQztxMBN'
p38
sg8
S'Solo Dance'
p39
ssS'0RYXEibxMami3QuT8kn4Iz'
p40
(dp41
g3
S'Macklemore'
p42
sg5
I4
sg6
S'https://open.spotify.com/track/0RYXEibxMami3QuT8kn4Iz'
p43
sg8
S'Marmalade (feat. Lil Yachty)'
p44
ssS'0F1Rc18rZcJOALxIIQPTYd'
p45
(dp46
g3
S'Maty Noyes'
p47
sg5
I1
sg6
S'https://open.spotify.com/track/0F1Rc18rZcJOALxIIQPTYd'
p48
sg8
S'in my miNd'
p49
ssS'3QWjljChcOMkRDYSzF33Qr'
p50
(dp51
g3
S'Kiiara'
p52
sg5
I12
sg6
S'https://open.spotify.com/track/3QWjljChcOMkRDYSzF33Qr'
p53
sg8
S'Whippin (feat. Felix Snow)'
p54
ssS'1aj4GXfmEYXfdVZohCpNKu'
p55
(dp56
g3
S'Otis Redding'
p57
sg5
I1
sg6
S'https://open.spotify.com/track/1aj4GXfmEYXfdVZohCpNKu'
p58
sg8
S'Stand By Me'
p59
ssS'0lLdorYw7lVrJydTINhWdI'
p60
(dp61
g3
S'Michael Bubl\xc3\xa9'
p62
sg5
I1
sg6
S'https://open.spotify.com/track/0lLdorYw7lVrJydTINhWdI'
p63
sg8
S"It's Beginning To Look A Lot Like Christmas"
p64
ssS'1OAh8uOEOvTDqkKFsKksCi'
p65
(dp66
g3
S'DJ Khaled'
p67
sg5
I17
sg6
S'https://open.spotify.com/track/1OAh8uOEOvTDqkKFsKksCi'
p68
sg8
S'Wild Thoughts'
p69
ssS'2aksifNn5ph8igDOkPBA02'
p70
(dp71
g3
S'Rihanna'
p72
sg5
I19
sg6
S'https://open.spotify.com/track/2aksifNn5ph8igDOkPBA02'
p73
sg8
S'Love On The Brain'
p74
ssS'4b4KcovePX8Ke2cLIQTLM0'
p75
(dp76
g3
S'The Vamps'
p77
sg5
I4
sg6
S'https://open.spotify.com/track/4b4KcovePX8Ke2cLIQTLM0'
p78
sg8
S'All Night'
p79
ssS'7wGoVu4Dady5GV0Sv4UIsx'
p80
(dp81
g3
S'Post Malone'
p82
sg5
I1
sg6
S'https://open.spotify.com/track/7wGoVu4Dady5GV0Sv4UIsx'
p83
sg8
S'rockstar'
p84
ssS'7KcGEssn7BnJdTgildK5y0'
p85
(dp86
g3
S'Nicki Minaj'
p87
sg5
I1
sg6
S'https://open.spotify.com/track/7KcGEssn7BnJdTgildK5y0'
p88
sg8
S'No Frauds'
p89
ssS'3ActvlxYR8Jrqe7rxDHm7q'
p90
(dp91
g3
S'London Grammar'
p92
sg5
I1
sg6
S'https://open.spotify.com/track/3ActvlxYR8Jrqe7rxDHm7q'
p93
sg8
S'Oh Woman Oh Man'
p94
ssS'1CnPYaKxTVb4LWOtiGOm0m'
p95
(dp96
g3
S'Jon Bellion'
p97
sg5
I16
sg6
S'https://open.spotify.com/track/1CnPYaKxTVb4LWOtiGOm0m'
p98
sg8
S'All Time Low'
p99
ssS'0fBxgiQe76HZFFqN2FUUpw'
p100
(dp101
g3
S'Damso'
p102
sg5
I6
sg6
S'https://open.spotify.com/track/0fBxgiQe76HZFFqN2FUUpw'
p103
sg8
S'\xce\x97. Gova'
p104
ssS'4OZEu0Vwq0RB2LAq14v99n'
p105
(dp106
g3
S'DJ Snake'
p107
sg5
I1
sg6
S'https://open.spotify.com/track/4OZEu0Vwq0RB2LAq14v99n'
p108
sg8
S'Middle'
p109
ssS'5Ber68jZ7ytegr2UISEdb7'
p110
(dp111
g3
S'Michael Bubl\xc3\xa9'
p112
sg5
I1
sg6
S'https://open.spotify.com/track/5Ber68jZ7ytegr2UISEdb7'
p113
sg8
S'Santa Claus Is Coming To Town'
p114
ssS'21kmoGx5vYvHRxlCuMZ5Vq'
p115
(dp116
g3
S'Dr Phunk'
p117
sg5
I1
sg6
S'https://open.spotify.com/track/21kmoGx5vYvHRxlCuMZ5Vq'
p118
sg8
S'Kind van de Duivel - Radio Edit'
p119
ssS'6Pw3Gvw4wNMZfTYZa6IQal'
p120
(dp121
g3
S'Bebe Rexha'
p122
sg5
I6
sg6
S'https://open.spotify.com/track/6Pw3Gvw4wNMZfTYZa6IQal'
p123
sg8
S'The Way I Are (Dance With Somebody) [feat. Lil Wayne]'
p124
ssS'1wLQwg0mloy3yXjL0jPE0N'
p125
(dp126
g3
S'Foo Fighters'
p127
sg5
I1
sg6
S'https://open.spotify.com/track/1wLQwg0mloy3yXjL0jPE0N'
p128
sg8
S'Run'
p129
ssS'0L0T4tMAaGqLgIVj1MOj9t'
p130
(dp131
g3
S'George Michael'
p132
sg5
I1
sg6
S'https://open.spotify.com/track/0L0T4tMAaGqLgIVj1MOj9t'
p133
sg8
S'Father Figure - Remastered'
p134
ssS'11J4dd5TvAssZlXhimOc5w'
p135
(dp136
g3
S'Sevn Alias'
p137
sg5
I1
sg6
S'https://open.spotify.com/track/11J4dd5TvAssZlXhimOc5w'
p138
sg8
S'Blessed'
p139
ssS'3qLwtC9jEWugjkzyZlYgeg'
p140
(dp141
g3
S'The xx'
p142
sg5
I2
sg6
S'https://open.spotify.com/track/3qLwtC9jEWugjkzyZlYgeg'
p143
sg8
S'Test Me'
p144
ssS'2FRnf9qhLbvw8fu4IBXx78'
p145
(dp146
g3
S'Wham!'
p147
sg5
I2
sg6
S'https://open.spotify.com/track/2FRnf9qhLbvw8fu4IBXx78'
p148
sg8
S'Last Christmas'
p149
ssS'61VEcQZQZUF4o7QgXsOFjB'
p150
(dp151
g3
S'Henri PFR'
p152
sg5
I20
sg6
S'https://open.spotify.com/track/61VEcQZQZUF4o7QgXsOFjB'
p153
sg8
S'Until the End'
p154
ssS'7tr2za8SQg2CI8EDgrdtNl'
p155
(dp156
g3
S'Calvin Harris'
p157
sg5
I29
sg6
S'https://open.spotify.com/track/7tr2za8SQg2CI8EDgrdtNl'
p158
sg8
S'Slide'
p159
ssS'2MuVUXT1AaM2LBmek3YTNs'
p160
(dp161
g3
S'Natalia'
p162
sg5
I3
sg6
S'https://open.spotify.com/track/2MuVUXT1AaM2LBmek3YTNs'
p163
sg8
S"You've Got a Friend (Je Hebt Een Vriend - Uit Liefde Voor Muziek)"
p164
ssS'4z9ezcrPW0lTXpzQoPHE8M'
p165
(dp166
g3
S'Birdy'
p167
sg5
I7
sg6
S'https://open.spotify.com/track/4z9ezcrPW0lTXpzQoPHE8M'
p168
sg8
S'Skinny Love'
p169
ssS'0fTplmWthCsXFIWIFaZY5a'
p170
(dp171
g3
S"Lil' Kleine"
p172
sg5
I3
sg6
S'https://open.spotify.com/track/0fTplmWthCsXFIWIFaZY5a'
p173
sg8
S'Succesvol'
p174
ssS'5VWSnSob84NAxS4ohVX9nd'
p175
(dp176
g3
S'Boef'
p177
sg5
I7
sg6
S'https://open.spotify.com/track/5VWSnSob84NAxS4ohVX9nd'
p178
sg8
S'Werken'
p179
ssS'3gfmFoJgmn9LiIj5mV8oSS'
p180
(dp181
g3
S'R3HAB'
p182
sg5
I4
sg6
S'https://open.spotify.com/track/3gfmFoJgmn9LiIj5mV8oSS'
p183
sg8
S"I Just Can't"
p184
ssS'25khomWgBVamSdKw7hzm3l'
p185
(dp186
g3
S'The Weeknd'
p187
sg5
I1
sg6
S'https://open.spotify.com/track/25khomWgBVamSdKw7hzm3l'
p188
sg8
S'The Hills'
p189
ssS'06FCvd7rrRcF3DdvWH5Isp'
p190
(dp191
g3
S'Kendrick Lamar'
p192
sg5
I2
sg6
S'https://open.spotify.com/track/06FCvd7rrRcF3DdvWH5Isp'
p193
sg8
S'LUST.'
p194
ssS'4pLwZjInHj3SimIyN9SnOz'
p195
(dp196
g3
S'Ariana Grande'
p197
sg5
I20
sg6
S'https://open.spotify.com/track/4pLwZjInHj3SimIyN9SnOz'
p198
sg8
S'Side To Side'
p199
ssS'4qknM1pQz53QOyfDVTjcM9'
p200
(dp201
g3
S'Shakira'
p202
sg5
I14
sg6
S'https://open.spotify.com/track/4qknM1pQz53QOyfDVTjcM9'
p203
sg8
S'Me Enamor\xc3\xa9'
p204
ssS'3E2Zh20GDCR9B1EYjfXWyv'
p205
(dp206
g3
S'AJR'
p207
sg5
I40
sg6
S'https://open.spotify.com/track/3E2Zh20GDCR9B1EYjfXWyv'
p208
sg8
S'Weak'
p209
ssS'2Gl0FzuLxflY6nPifJp5Dr'
p210
(dp211
g3
S'Kygo'
p212
sg5
I24
sg6
S'https://open.spotify.com/track/2Gl0FzuLxflY6nPifJp5Dr'
p213
sg8
S'First Time'
p214
ssS'0xl1w2q4VLojeXp4JfazPL'
p215
(dp216
g3
S'Drake'
p217
sg5
I2
sg6
S'https://open.spotify.com/track/0xl1w2q4VLojeXp4JfazPL'
p218
sg8
S'Sacrifices'
p219
ssS'2glGP8kEfACgJdZ86kWxhN'
p220
(dp221
g3
S'Lost Frequencies'
p222
sg5
I3
sg6
S'https://open.spotify.com/track/2glGP8kEfACgJdZ86kWxhN'
p223
sg8
S'Are You With Me - Radio Edit'
p224
ssS'4BHzQ9C00ceJxfG16AlNWb'
p225
(dp226
g3
S'Adele'
p227
sg5
I12
sg6
S'https://open.spotify.com/track/4BHzQ9C00ceJxfG16AlNWb'
p228
sg8
S'Send My Love (To Your New Lover)'
p229
ssS'4Km5HrUvYTaSUfiSGPJeQR'
p230
(dp231
g3
S'Migos'
p232
sg5
I25
sg6
S'https://open.spotify.com/track/4Km5HrUvYTaSUfiSGPJeQR'
p233
sg8
S'Bad and Boujee (feat. Lil Uzi Vert)'
p234
ssS'3WrG9BpOPQWUus3FjA1Tny'
p235
(dp236
g3
S"Destiny's Child"
p237
sg5
I1
sg6
S'https://open.spotify.com/track/3WrG9BpOPQWUus3FjA1Tny'
p238
sg8
S'8 Days of Christmas - Live'
p239
ssS'2RttW7RAu5nOAfq6YFvApB'
p240
(dp241
g3
S'Ed Sheeran'
p242
sg5
I17
sg6
S'https://open.spotify.com/track/2RttW7RAu5nOAfq6YFvApB'
p243
sg8
S'Happier'
p244
ssS'0z18wqbjuXTxzaNm4oegU2'
p245
(dp246
g3
S'Lacrim'
p247
sg5
I4
sg6
S'https://open.spotify.com/track/0z18wqbjuXTxzaNm4oegU2'
p248
sg8
S'Oh bah oui'
p249
ssS'3EmmCZoqpWOTY1g2GBwJoR'
p250
(dp251
g3
S'Steve Aoki'
p252
sg5
I18
sg6
S'https://open.spotify.com/track/3EmmCZoqpWOTY1g2GBwJoR'
p253
sg8
S'Just Hold On'
p254
ssS'2Ce5IyMlVRVvN997ZJjJJA'
p255
(dp256
g3
S'Future'
p257
sg5
I15
sg6
S'https://open.spotify.com/track/2Ce5IyMlVRVvN997ZJjJJA'
p258
sg8
S'Selfish'
p259
ssS'63qapUS8yLKz0tb0eOgOTF'
p260
(dp261
g3
S'Lo\xc3\xafc Nottet'
p262
sg5
I17
sg6
S'https://open.spotify.com/track/63qapUS8yLKz0tb0eOgOTF'
p263
sg8
S'Million Eyes'
p264
ssS'3sJHkcxojoJD2Ytbo1yLLF'
p265
(dp266
g3
S'Moon Taxi'
p267
sg5
I12
sg6
S'https://open.spotify.com/track/3sJHkcxojoJD2Ytbo1yLLF'
p268
sg8
S'Two High'
p269
ssS'3ysiD7ZgsPc3xgGJ59DpS7'
p270
(dp271
g3
S'The National'
p272
sg5
I1
sg6
S'https://open.spotify.com/track/3ysiD7ZgsPc3xgGJ59DpS7'
p273
sg8
S'Day I Die'
p274
ssS'0gbBzIqrECJOEPvQJIBFs5'
p275
(dp276
g3
S'Lorde'
p277
sg5
I18
sg6
S'https://open.spotify.com/track/0gbBzIqrECJOEPvQJIBFs5'
p278
sg8
S'Green Light'
p279
ssS'0Ub2WcpO3sjeDPZhc1iRoa'
p280
(dp281
g3
S"Lil' Kleine"
p282
sg5
I16
sg6
S'https://open.spotify.com/track/0Ub2WcpO3sjeDPZhc1iRoa'
p283
sg8
S'Kleine Jongen'
p284
ssS'4vv1KjUzPwrtDbozizSfQc'
p285
(dp286
g3
S'DJ Khaled'
p287
sg5
I1
sg6
S'https://open.spotify.com/track/4vv1KjUzPwrtDbozizSfQc'
p288
sg8
S"Don't Quit"
p289
ssS'3LVYyIwOw16nmkzvLK7mAF'
p290
(dp291
g3
S'Mister V'
p292
sg5
I1
sg6
S'https://open.spotify.com/track/3LVYyIwOw16nmkzvLK7mAF'
p293
sg8
S'Gville'
p294
ssS'52uHpw5tjtvml4jadVpG8X'
p295
(dp296
g3
S"Lil' Kleine"
p297
sg5
I3
sg6
S'https://open.spotify.com/track/52uHpw5tjtvml4jadVpG8X'
p298
sg8
S'Krantenwijk'
p299
ssS'5kRPPEWFJIMox5qIkQkiz5'
p300
(dp301
g3
S'Harry Styles'
p302
sg5
I3
sg6
S'https://open.spotify.com/track/5kRPPEWFJIMox5qIkQkiz5'
p303
sg8
S'Sweet Creature'
p304
ssS'5tz69p7tJuGPeMGwNTxYuV'
p305
(dp306
g3
S'Logic'
p307
sg5
I23
sg6
S'https://open.spotify.com/track/5tz69p7tJuGPeMGwNTxYuV'
p308
sg8
S'1-800-273-8255'
p309
ssS'4iYRa2btalAzPZoSYfROqF'
p310
(dp311
g3
S'Kendrick Lamar'
p312
sg5
I3
sg6
S'https://open.spotify.com/track/4iYRa2btalAzPZoSYfROqF'
p313
sg8
S'XXX. FEAT. U2.'
p314
ssS'2ar7h324zj4zNLHQa3Dipm'
p315
(dp316
g3
S'SBMG'
p317
sg5
I3
sg6
S'https://open.spotify.com/track/2ar7h324zj4zNLHQa3Dipm'
p318
sg8
S'Pull Up Game Strong'
p319
ssS'4xlrALxuaCf9yZBHJeTSG6'
p320
(dp321
g3
S'Jonas Blue'
p322
sg5
I8
sg6
S'https://open.spotify.com/track/4xlrALxuaCf9yZBHJeTSG6'
p323
sg8
S'Mama'
p324
ssS'6Nle9hKrkL1wQpwNfEkxjh'
p325
(dp326
g3
S'Frank Ocean'
p327
sg5
I1
sg6
S'https://open.spotify.com/track/6Nle9hKrkL1wQpwNfEkxjh'
p328
sg8
S'Chanel'
p329
ssS'00vk0sEfb6mr2ehwSw0Uhn'
p330
(dp331
g3
S'Imany'
p332
sg5
I10
sg6
S'https://open.spotify.com/track/00vk0sEfb6mr2ehwSw0Uhn'
p333
sg8
S"Don't Be So Shy - Filatov & Karas Remix"
p334
ssS'37YNulvDhyzULfhHycmhEl'
p335
(dp336
g3
S'Sadek'
p337
sg5
I2
sg6
S'https://open.spotify.com/track/37YNulvDhyzULfhHycmhEl'
p338
sg8
S'Madre mia (feat. Ninho)'
p339
ssS'0GrklkkWttHKbQ8XXka0Zc'
p340
(dp341
g3
S'Ronnie Flex'
p342
sg5
I4
sg6
S'https://open.spotify.com/track/0GrklkkWttHKbQ8XXka0Zc'
p343
sg8
S'Energie - New Version'
p344
ssS'3pzjHKrQSvXGHQ98dx18HI'
p345
(dp346
g3
S'Justin Bieber'
p347
sg5
I2
sg6
S'https://open.spotify.com/track/3pzjHKrQSvXGHQ98dx18HI'
p348
sg8
S'What Do You Mean?'
p349
ssS'000xQL6tZNLJzIrtIgxqSl'
p350
(dp351
g3
S'ZAYN'
p352
sg5
I21
sg6
S'https://open.spotify.com/track/000xQL6tZNLJzIrtIgxqSl'
p353
sg8
S'Still Got Time'
p354
ssS'2FBUoWkIuQXwayw2RNo5l6'
p355
(dp356
g3
S'Drake'
p357
sg5
I1
sg6
S'https://open.spotify.com/track/2FBUoWkIuQXwayw2RNo5l6'
p358
sg8
S'Hotline Bling'
p359
ssS'1D3ODoXHBLpdxolZRHWV1j'
p360
(dp361
g3
S'Jonas Blue'
p362
sg5
I19
sg6
S'https://open.spotify.com/track/1D3ODoXHBLpdxolZRHWV1j'
p363
sg8
S'By Your Side'
p364
ssS'1CKd1PnqfYx0H12V9MSaIY'
p365
(dp366
g3
S'Zedd'
p367
sg5
I12
sg6
S'https://open.spotify.com/track/1CKd1PnqfYx0H12V9MSaIY'
p368
sg8
S'Get Low (with Liam Payne)'
p369
ssS'5c4tB0saSkNHX5CyDosuF7'
p370
(dp371
g3
S'Burak Yeter'
p372
sg5
I2
sg6
S'https://open.spotify.com/track/5c4tB0saSkNHX5CyDosuF7'
p373
sg8
S'Tuesday'
p374
ssS'0KKkJNfGyhkQ5aFogxQAPU'
p375
(dp376
g3
S'Bruno Mars'
p377
sg5
I33
sg6
S'https://open.spotify.com/track/0KKkJNfGyhkQ5aFogxQAPU'
p378
sg8
S"That's What I Like"
p379
ssS'042x9bsUBWW2fJgJ6fUh61'
p380
(dp381
g3
S'DVBBS'
p382
sg5
I10
sg6
S'https://open.spotify.com/track/042x9bsUBWW2fJgJ6fUh61'
p383
sg8
S'Not Going Home'
p384
ssS'5Z01UMMf7V1o0MzF86s6WJ'
p385
(dp386
g3
S'Eminem'
p387
sg5
I24
sg6
S'https://open.spotify.com/track/5Z01UMMf7V1o0MzF86s6WJ'
p388
sg8
S'Lose Yourself - Soundtrack Version'
p389
ssS'2hsXObNR4ye4nZzf8VePvn'
p390
(dp391
g3
S'Sevn Alias'
p392
sg5
I1
sg6
S'https://open.spotify.com/track/2hsXObNR4ye4nZzf8VePvn'
p393
sg8
S'Blessed'
p394
ssS'5CtI0qwDJkDQGwXD1H1cLb'
p395
(dp396
g3
S'Luis Fonsi'
p397
sg5
I26
sg6
S'https://open.spotify.com/track/5CtI0qwDJkDQGwXD1H1cLb'
p398
sg8
S'Despacito - Remix'
p399
ssS'7m9OqQk4RVRkw9JJdeAw96'
p400
(dp401
g3
S'XXXTENTACION'
p402
sg5
I7
sg6
S'https://open.spotify.com/track/7m9OqQk4RVRkw9JJdeAw96'
p403
sg8
S'Jocelyn Flores'
p404
ssS'1N90cV79gbBgO0bOs74Y0t'
p405
(dp406
g3
S'Calvin Harris'
p407
sg5
I1
sg6
S'https://open.spotify.com/track/1N90cV79gbBgO0bOs74Y0t'
p408
sg8
S'Heatstroke'
p409
ssS'0NyOeqzqjVM9j7IuWp2oJ6'
p410
(dp411
g3
S'Gryffin'
p412
sg5
I10
sg6
S'https://open.spotify.com/track/0NyOeqzqjVM9j7IuWp2oJ6'
p413
sg8
S'Feel Good (feat. Daya)'
p414
ssS'3kxfsdsCpFgN412fpnW85Y'
p415
(dp416
g3
S'Childish Gambino'
p417
sg5
I25
sg6
S'https://open.spotify.com/track/3kxfsdsCpFgN412fpnW85Y'
p418
sg8
S'Redbone'
p419
ssS'3zJw3rugfpVrmBeDDnUYzy'
p420
(dp421
g3
S'John Lennon'
p422
sg5
I1
sg6
S'https://open.spotify.com/track/3zJw3rugfpVrmBeDDnUYzy'
p423
sg8
S'Happy Xmas (War Is Over) - 2010 Digital Remaster'
p424
ssS'2MHCiOohBZEQuLgDTPvSzF'
p425
(dp426
g3
S'Galantis'
p427
sg5
I12
sg6
S'https://open.spotify.com/track/2MHCiOohBZEQuLgDTPvSzF'
p428
sg8
S'Love On Me'
p429
ssS'1Eck97uRMlprKOOJN9oO1E'
p430
(dp431
g3
S'G-Eazy'
p432
sg5
I14
sg6
S'https://open.spotify.com/track/1Eck97uRMlprKOOJN9oO1E'
p433
sg8
S'Good Life (with G-Eazy & Kehlani)'
p434
ssS'0HrL5W7vPZlJzyRw1KXq4L'
p435
(dp436
g3
S'Lijpe'
p437
sg5
I1
sg6
S'https://open.spotify.com/track/0HrL5W7vPZlJzyRw1KXq4L'
p438
sg8
S'Heimwee'
p439
ssS'00cGr3oLNjjESBJ3OQyyCE'
p440
(dp441
g3
S"Lil' Kleine"
p442
sg5
I1
sg6
S'https://open.spotify.com/track/00cGr3oLNjjESBJ3OQyyCE'
p443
sg8
S'Batterij'
p444
ssS'0y1QJc3SJVPKJ1OvFmFqe6'
p445
(dp446
g3
S'Kaleo'
p447
sg5
I22
sg6
S'https://open.spotify.com/track/0y1QJc3SJVPKJ1OvFmFqe6'
p448
sg8
S'Way Down We Go'
p449
ssS'5humEOJehpAwMJEJmb0JJ2'
p450
(dp451
g3
S'Nat King Cole'
p452
sg5
I1
sg6
S'https://open.spotify.com/track/5humEOJehpAwMJEJmb0JJ2'
p453
sg8
S'The Christmas Song (Merry Christmas To You)'
p454
ssS'2dfqS3MRtbLZSZA1IL8xY5'
p455
(dp456
g3
S'Drake'
p457
sg5
I2
sg6
S'https://open.spotify.com/track/2dfqS3MRtbLZSZA1IL8xY5'
p458
sg8
S'Skepta Interlude'
p459
ssS'1sCxVKWImDZSZKvG0U9B23'
p460
(dp461
g3
S'Selena Gomez'
p462
sg5
I16
sg6
S'https://open.spotify.com/track/1sCxVKWImDZSZKvG0U9B23'
p463
sg8
S'Bad Liar'
p464
ssS'6jmngk8Fwup05JZ6kgXEGX'
p465
(dp466
g3
S'Imagine Dragons'
p467
sg5
I1
sg6
S'https://open.spotify.com/track/6jmngk8Fwup05JZ6kgXEGX'
p468
sg8
S'Walking The Wire'
p469
ssS'4NqJPY7gqdMIZwl4O3mLYb'
p470
(dp471
g3
S'Boef'
p472
sg5
I7
sg6
S'https://open.spotify.com/track/4NqJPY7gqdMIZwl4O3mLYb'
p473
sg8
S'Coca\xc3\xafne'
p474
ssS'2nUJvBO87SkxCViQsLc9Zr'
p475
(dp476
g3
S'Big Shaq'
p477
sg5
I2
sg6
S'https://open.spotify.com/track/2nUJvBO87SkxCViQsLc9Zr'
p478
sg8
S"Man's Not Hot"
p479
ssS'6cHYdlHO65h3Dtt2pPKmBF'
p480
(dp481
g3
S'Armin van Buuren'
p482
sg5
I5
sg6
S'https://open.spotify.com/track/6cHYdlHO65h3Dtt2pPKmBF'
p483
sg8
S'Sunny Days'
p484
ssS'2uSLx5uwRIhiA3sJJraNqX'
p485
(dp486
g3
S'Maroon 5'
p487
sg5
I1
sg6
S'https://open.spotify.com/track/2uSLx5uwRIhiA3sJJraNqX'
p488
sg8
S'Help Me Out (with Julia Michaels)'
p489
ssS'0ADG9OgdVTL7fgREP75BrZ'
p490
(dp491
g3
S'Zara Larsson'
p492
sg5
I11
sg6
S'https://open.spotify.com/track/0ADG9OgdVTL7fgREP75BrZ'
p493
sg8
S"Ain't My Fault"
p494
ssS'0vwd2PdzIUfVJvQAv2Aai0'
p495
(dp496
g3
S"Lil' Kleine"
p497
sg5
I1
sg6
S'https://open.spotify.com/track/0vwd2PdzIUfVJvQAv2Aai0'
p498
sg8
S'1.5'
p499
ssS'5UCsGZSezdlGA1bY3QMgXG'
p500
(dp501
g3
S'The xx'
p502
sg5
I2
sg6
S'https://open.spotify.com/track/5UCsGZSezdlGA1bY3QMgXG'
p503
sg8
S'Performance'
p504
ssS'2Ybq4O3JksrB02I1glWh65'
p505
(dp506
g3
S'Lacrim'
p507
sg5
I2
sg6
S'https://open.spotify.com/track/2Ybq4O3JksrB02I1glWh65'
p508
sg8
S'Tristi'
p509
ssS'6s2wpWPFPAgKg2LXxi1Oee'
p510
(dp511
g3
S'Bruce Springsteen'
p512
sg5
I1
sg6
S'https://open.spotify.com/track/6s2wpWPFPAgKg2LXxi1Oee'
p513
sg8
S"Santa Claus Is Comin' to Town - Single Version"
p514
ssS'6O6M7pJLABmfBRoGZMu76Y'
p515
(dp516
g3
S'The Chainsmokers'
p517
sg5
I2
sg6
S'https://open.spotify.com/track/6O6M7pJLABmfBRoGZMu76Y'
p518
sg8
S'Roses'
p519
ssS'1rIKgCH4H52lrvDcz50hS8'
p520
(dp521
g3
S'Zara Larsson'
p522
sg5
I17
sg6
S'https://open.spotify.com/track/1rIKgCH4H52lrvDcz50hS8'
p523
sg8
S'Lush Life'
p524
ssS'76gUmNLXGQVOsGhfcshkFP'
p525
(dp526
g3
S'Drake'
p527
sg5
I3
sg6
S'https://open.spotify.com/track/76gUmNLXGQVOsGhfcshkFP'
p528
sg8
S'Madiba Riddim'
p529
ssS'7vGuf3Y35N4wmASOKLUVVU'
p530
(dp531
g3
S'Marshmello'
p532
sg5
I9
sg6
S'https://open.spotify.com/track/7vGuf3Y35N4wmASOKLUVVU'
p533
sg8
S'Silence'
p534
ssS'4hkaPHXpf0QyuEuitgvWMI'
p535
(dp536
g3
S'Lacrim'
p537
sg5
I1
sg6
S'https://open.spotify.com/track/4hkaPHXpf0QyuEuitgvWMI'
p538
sg8
S'Laisse-les'
p539
ssS'3EfugazgSddQvzZpkof5I4'
p540
(dp541
g3
S'Anne-Marie'
p542
sg5
I25
sg6
S'https://open.spotify.com/track/3EfugazgSddQvzZpkof5I4'
p543
sg8
S'Ciao Adios'
p544
ssS'0xPaZrF25ltzvz1a2Pm5DQ'
p545
(dp546
g3
S'Michael Bubl\xc3\xa9'
p547
sg5
I1
sg6
S'https://open.spotify.com/track/0xPaZrF25ltzvz1a2Pm5DQ'
p548
sg8
S'All I Want For Christmas Is You'
p549
ssS'7129iqBafaphfc3WPCGC0L'
p550
(dp551
g3
S'Lukas Graham'
p552
sg5
I26
sg6
S'https://open.spotify.com/track/7129iqBafaphfc3WPCGC0L'
p553
sg8
S'7 Years'
p554
ssS'4WjH9Bzt3kx7z8kl0awxh4'
p555
(dp556
g3
S'Major Lazer'
p557
sg5
I37
sg6
S'https://open.spotify.com/track/4WjH9Bzt3kx7z8kl0awxh4'
p558
sg8
S'Lean On (feat. M\xc3\x98 & DJ Snake)'
p559
ssS'57p8CBvPOxrvyCbn6ttl5r'
p560
(dp561
g3
S'Skrillex'
p562
sg5
I11
sg6
S'https://open.spotify.com/track/57p8CBvPOxrvyCbn6ttl5r'
p563
sg8
S'Would You Ever'
p564
ssS'32VAEczWfk1FyU8AGCY2wi'
p565
(dp566
g3
S'Equalz'
p567
sg5
I4
sg6
S'https://open.spotify.com/track/32VAEczWfk1FyU8AGCY2wi'
p568
sg8
S'Op De Weg'
p569
ssS'0CcQNd8CINkwQfe1RDtGV6'
p570
(dp571
g3
S'Imagine Dragons'
p572
sg5
I33
sg6
S'https://open.spotify.com/track/0CcQNd8CINkwQfe1RDtGV6'
p573
sg8
S'Believer'
p574
ssS'7oolFzHipTMg2nL7shhdz2'
p575
(dp576
g3
S'Ed Sheeran'
p577
sg5
I6
sg6
S'https://open.spotify.com/track/7oolFzHipTMg2nL7shhdz2'
p578
sg8
S'Eraser'
p579
ssS'6ymKsfbFtQ12mmPJxPAamb'
p580
(dp581
g3
S'SCH'
p582
sg5
I1
sg6
S'https://open.spotify.com/track/6ymKsfbFtQ12mmPJxPAamb'
p583
sg8
S'Poup\xc3\xa9e russe'
p584
ssS'5YCqzqb6yN6TsMOHb4FSVw'
p585
(dp586
g3
S'Kristian Kostov'
p587
sg5
I1
sg6
S'https://open.spotify.com/track/5YCqzqb6yN6TsMOHb4FSVw'
p588
sg8
S'Beautiful Mess'
p589
ssS'2pYvd6cHcAIMAM6xMD6nok'
p590
(dp591
g3
S'Bonobo'
p592
sg5
I1
sg6
S'https://open.spotify.com/track/2pYvd6cHcAIMAM6xMD6nok'
p593
sg8
S'Break Apart'
p594
ssS'3B7udSGy2PfgoCniMSb523'
p595
(dp596
g3
S'Ed Sheeran'
p597
sg5
I10
sg6
S'https://open.spotify.com/track/3B7udSGy2PfgoCniMSb523'
p598
sg8
S'I See Fire'
p599
ssS'6MbH1QiphMCPTqVEVC7UYi'
p600
(dp601
g3
S'Drake'
p602
sg5
I1
sg6
S'https://open.spotify.com/track/6MbH1QiphMCPTqVEVC7UYi'
p603
sg8
S'Nothings Into Somethings'
p604
ssS'7BKLCZ1jbUBVqRi2FVlTVw'
p605
(dp606
g3
S'The Chainsmokers'
p607
sg5
I42
sg6
S'https://open.spotify.com/track/7BKLCZ1jbUBVqRi2FVlTVw'
p608
sg8
S'Closer'
p609
ssS'3NdDpSvN911VPGivFlV5d0'
p610
(dp611
g3
S'ZAYN'
p612
sg5
I42
sg6
S'https://open.spotify.com/track/3NdDpSvN911VPGivFlV5d0'
p613
sg8
S'I Don\xe2\x80\x99t Wanna Live Forever (Fifty Shades Darker) - From Fifty Shades Darker (Original Motion Picture Soundtrack)'
p614
ssS'70pawVquAjfvQjm1vq2RJk'
p615
(dp616
g3
S'Oscar and the Wolf'
p617
sg5
I1
sg6
S'https://open.spotify.com/track/70pawVquAjfvQjm1vq2RJk'
p618
sg8
S'Exotic'
p619
ssS'45OfR7ugJMgbFDuNOVpIq3'
p620
(dp621
g3
S'Matoma'
p622
sg5
I9
sg6
S'https://open.spotify.com/track/45OfR7ugJMgbFDuNOVpIq3'
p623
sg8
S'Party On The West Coast (feat. Snoop Dogg)'
p624
ssS'0bXpmJyHHYPk6QBFj25bYF'
p625
(dp626
g3
S'The xx'
p627
sg5
I1
sg6
S'https://open.spotify.com/track/0bXpmJyHHYPk6QBFj25bYF'
p628
sg8
S'Intro'
p629
ssS'37F0uwRSrdzkBiuj0D5UHI'
p630
(dp631
g3
S'The Weeknd'
p632
sg5
I4
sg6
S'https://open.spotify.com/track/37F0uwRSrdzkBiuj0D5UHI'
p633
sg8
S'Reminder'
p634
ssS'0ban5QRXUveaKtQPGuaoQ9'
p635
(dp636
g3
S'Kaaris'
p637
sg5
I15
sg6
S'https://open.spotify.com/track/0ban5QRXUveaKtQPGuaoQ9'
p638
sg8
S'Tchoin'
p639
ssS'6wV12xIUb8oFY7lBy4KuQe'
p640
(dp641
g3
S'Aaron Carter'
p642
sg5
I10
sg6
S'https://open.spotify.com/track/6wV12xIUb8oFY7lBy4KuQe'
p643
sg8
S'Sooner Or Later'
p644
ssS'53e5O0USYgSCv4md0CXpMY'
p645
(dp646
g3
S'The xx'
p647
sg5
I2
sg6
S'https://open.spotify.com/track/53e5O0USYgSCv4md0CXpMY'
p648
sg8
S'Brave For You'
p649
ssS'1UZOjK1BwmwWU14Erba9CZ'
p650
(dp651
g3
S'Miley Cyrus'
p652
sg5
I2
sg6
S'https://open.spotify.com/track/1UZOjK1BwmwWU14Erba9CZ'
p653
sg8
S'Malibu'
p654
ssS'2eMwDehkIC1j68U6FA3Eiq'
p655
(dp656
g3
S'Lil Uzi Vert'
p657
sg5
I20
sg6
S'https://open.spotify.com/track/2eMwDehkIC1j68U6FA3Eiq'
p658
sg8
S'XO TOUR Llif3'
p659
ssS'3ACvYZqgoP36dURFeovOR8'
p660
(dp661
g3
S'Booba'
p662
sg5
I2
sg6
S'https://open.spotify.com/track/3ACvYZqgoP36dURFeovOR8'
p663
sg8
S'Nougat'
p664
ssS'2om7S1vVngM5vDO6tLufdj'
p665
(dp666
g3
S'Lacrim'
p667
sg5
I1
sg6
S'https://open.spotify.com/track/2om7S1vVngM5vDO6tLufdj'
p668
sg8
S'20 bouteilles'
p669
ssS'0qF6fYxFtR6QocCLiv7W5S'
p670
(dp671
g3
S'Regi'
p672
sg5
I12
sg6
S'https://open.spotify.com/track/0qF6fYxFtR6QocCLiv7W5S'
p673
sg8
S'Where Did You Go (Summer Love)'
p674
ssS'2KklXplRtxMsBYo474Es0w'
p675
(dp676
g3
S'Ofenbach'
p677
sg5
I17
sg6
S'https://open.spotify.com/track/2KklXplRtxMsBYo474Es0w'
p678
sg8
S'Be Mine'
p679
ssS'4HvYhaXDmmAW6ZmPcgPZca'
p680
(dp681
g3
S'Damso'
p682
sg5
I21
sg6
S'https://open.spotify.com/track/4HvYhaXDmmAW6ZmPcgPZca'
p683
sg8
S'B. #QuedusaalVie'
p684
ssS'5v9N8Rx3QsFvr50cxyQcA3'
p685
(dp686
g3
S'Mura Masa'
p687
sg5
I9
sg6
S'https://open.spotify.com/track/5v9N8Rx3QsFvr50cxyQcA3'
p688
sg8
S'Love$ick'
p689
ssS'7Hz6LLOVxrojLPIHJJ1S0E'
p690
(dp691
g3
S'Sam Smith'
p692
sg5
I1
sg6
S'https://open.spotify.com/track/7Hz6LLOVxrojLPIHJJ1S0E'
p693
sg8
S'Have Yourself A Merry Little Christmas'
p694
ssS'3CRDbSIZ4r5MsZ0YwxuEkn'
p695
(dp696
g3
S'Twenty One Pilots'
p697
sg5
I19
sg6
S'https://open.spotify.com/track/3CRDbSIZ4r5MsZ0YwxuEkn'
p698
sg8
S'Stressed Out'
p699
ssS'6mICuAdrwEjh6Y6lroV2Kg'
p700
(dp701
g3
S'Shakira'
p702
sg5
I36
sg6
S'https://open.spotify.com/track/6mICuAdrwEjh6Y6lroV2Kg'
p703
sg8
S'Chantaje'
p704
ssS'6z6pKIQXM3Myh8evBkD5EJ'
p705
(dp706
g3
S'Wally'
p707
sg5
I10
sg6
S'https://open.spotify.com/track/6z6pKIQXM3Myh8evBkD5EJ'
p708
sg8
S'Mis\xc3\xa8re'
p709
ssS'6F609ICg9Spjrw1epsAnpa'
p710
(dp711
g3
S'Drake'
p712
sg5
I13
sg6
S'https://open.spotify.com/track/6F609ICg9Spjrw1epsAnpa'
p713
sg8
S'Controlla'
p714
ssS'2pnPe4pJtq7689i5ydzvJJ'
p715
(dp716
g3
S'Chuck Berry'
p717
sg5
I1
sg6
S'https://open.spotify.com/track/2pnPe4pJtq7689i5ydzvJJ'
p718
sg8
S'Run Rudolph Run - Single Version'
p719
ssS'1WC5UN1U79gJlxGLYDGIO7'
p720
(dp721
g3
S'Lorde'
p722
sg5
I2
sg6
S'https://open.spotify.com/track/1WC5UN1U79gJlxGLYDGIO7'
p723
sg8
S'Green Light'
p724
ssS'7gHs73wELdeycvS48JfIos'
p725
(dp726
g3
S'Alan Walker'
p727
sg5
I33
sg6
S'https://open.spotify.com/track/7gHs73wELdeycvS48JfIos'
p728
sg8
S'Faded'
p729
ssS'0fsmTJldWyMkaCWTWt68yq'
p730
(dp731
g3
S'Ronnie Flex'
p732
sg5
I1
sg6
S'https://open.spotify.com/track/0fsmTJldWyMkaCWTWt68yq'
p733
sg8
S'Is Dit Over'
p734
ssS'3UJVVnKnkwPUBJOdpH8GB1'
p735
(dp736
g3
S'Lacrim'
p737
sg5
I1
sg6
S'https://open.spotify.com/track/3UJVVnKnkwPUBJOdpH8GB1'
p738
sg8
S'\xc3\x87a paie pas'
p739
ssS'74O9npfj7FDvH0quYbBeQ3'
p740
(dp741
g3
S'Showtek'
p742
sg5
I1
sg6
S'https://open.spotify.com/track/74O9npfj7FDvH0quYbBeQ3'
p743
sg8
S'On Our Own'
p744
ssS'52okn5MNA47tk87PeZJLEL'
p745
(dp746
g3
S'NF'
p747
sg5
I1
sg6
S'https://open.spotify.com/track/52okn5MNA47tk87PeZJLEL'
p748
sg8
S'Let You Down'
p749
ssS'00lNx0OcTJrS3MKHcB80HY'
p750
(dp751
g3
S'Jax Jones'
p752
sg5
I33
sg6
S'https://open.spotify.com/track/00lNx0OcTJrS3MKHcB80HY'
p753
sg8
S"You Don't Know Me - Radio Edit"
p754
ssS'2s76aKBWKShlwPC4xTtEEE'
p755
(dp756
g3
S'State of Sound'
p757
sg5
I7
sg6
S'https://open.spotify.com/track/2s76aKBWKShlwPC4xTtEEE'
p758
sg8
S'Wake Up Where You Are'
p759
ssS'6t2ubAB4iSYOuIpRAOGd4t'
p760
(dp761
g3
S'Flo Rida'
p762
sg5
I14
sg6
S'https://open.spotify.com/track/6t2ubAB4iSYOuIpRAOGd4t'
p763
sg8
S'Cake'
p764
ssS'35AOGxEzcsgAdzhFLutbXO'
p765
(dp766
g3
S'SEASIDE HIGHLIFE'
p767
sg5
I2
sg6
S'https://open.spotify.com/track/35AOGxEzcsgAdzhFLutbXO'
p768
sg8
S'Sideways'
p769
ssS'5XntxhFTQA3AFsREzI2H1p'
p770
(dp771
g3
S'Boef'
p772
sg5
I6
sg6
S'https://open.spotify.com/track/5XntxhFTQA3AFsREzI2H1p'
p773
sg8
S'Beckham'
p774
ssS'0fg8CqpjdojMyXLNzM2PaJ'
p775
(dp776
g3
S'Major Lazer'
p777
sg5
I23
sg6
S'https://open.spotify.com/track/0fg8CqpjdojMyXLNzM2PaJ'
p778
sg8
S'Run Up (feat. PARTYNEXTDOOR & Nicki Minaj)'
p779
ssS'3umS4y3uQDkqekNjVpiRUs'
p780
(dp781
g3
S'Nicky Jam'
p782
sg5
I9
sg6
S'https://open.spotify.com/track/3umS4y3uQDkqekNjVpiRUs'
p783
sg8
S'El Amante'
p784
ssS'7syABtsvHvD3nO7OG91Ani'
p785
(dp786
g3
S'Sofiane'
p787
sg5
I3
sg6
S'https://open.spotify.com/track/7syABtsvHvD3nO7OG91Ani'
p788
sg8
S"Tout l'monde s'en fout"
p789
ssS'2GdIKPluDT6hT3xBxxKiUK'
p790
(dp791
g3
S'Ilinca'
p792
sg5
I1
sg6
S'https://open.spotify.com/track/2GdIKPluDT6hT3xBxxKiUK'
p793
sg8
S'Yodel it!'
p794
ssS'73y1LV0U4ybMNDyO8S4fwW'
p795
(dp796
g3
S'Sara Gold'
p797
sg5
I11
sg6
S'https://open.spotify.com/track/73y1LV0U4ybMNDyO8S4fwW'
p798
sg8
S'Lonely Place'
p799
ssS'6rQSrBHf7HlZjtcMZ4S4bO'
p800
(dp801
g3
S'J Balvin'
p802
sg5
I1
sg6
S'https://open.spotify.com/track/6rQSrBHf7HlZjtcMZ4S4bO'
p803
sg8
S'Safari'
p804
ssS'5CPqOpKSk0QcJ3dGdaWcRB'
p805
(dp806
g3
S'The xx'
p807
sg5
I14
sg6
S'https://open.spotify.com/track/5CPqOpKSk0QcJ3dGdaWcRB'
p808
sg8
S'On Hold'
p809
ssS'7JRXJ6sAIbs2VC4q03xS10'
p810
(dp811
g3
S"Lil' Kleine"
p812
sg5
I1
sg6
S'https://open.spotify.com/track/7JRXJ6sAIbs2VC4q03xS10'
p813
sg8
S'Opladen / Loslaten'
p814
ssS'0L87MffumRNWrY2SNUFcvs'
p815
(dp816
g3
S'Milky Chance'
p817
sg5
I1
sg6
S'https://open.spotify.com/track/0L87MffumRNWrY2SNUFcvs'
p818
sg8
S'Cocoon'
p819
ssS'5rRGbD1s7gQWnWwn0O3no2'
p820
(dp821
g3
S'Van Echelpoel'
p822
sg5
I12
sg6
S'https://open.spotify.com/track/5rRGbD1s7gQWnWwn0O3no2'
p823
sg8
S'Ziet Em Duun - Regi & Lester Williams Remix'
p824
ssS'4xBjsLUSjcx2h7PcRikpQp'
p825
(dp826
g3
S'Camila Cabello'
p827
sg5
I10
sg6
S'https://open.spotify.com/track/4xBjsLUSjcx2h7PcRikpQp'
p828
sg8
S'OMG'
p829
ssS'1HCw8XKtTgWWU3JlEUR0qQ'
p830
(dp831
g3
S'Deorro'
p832
sg5
I1
sg6
S'https://open.spotify.com/track/1HCw8XKtTgWWU3JlEUR0qQ'
p833
sg8
S'Bailar - Radio Edit'
p834
ssS'7GX5flRQZVHRAGd6B4TmDO'
p835
(dp836
g3
S'Lil Uzi Vert'
p837
sg5
I7
sg6
S'https://open.spotify.com/track/7GX5flRQZVHRAGd6B4TmDO'
p838
sg8
S'XO TOUR Llif3'
p839
ssS'4F7A0DXBrmUAkp32uenhZt'
p840
(dp841
g3
S'The Weeknd'
p842
sg5
I12
sg6
S'https://open.spotify.com/track/4F7A0DXBrmUAkp32uenhZt'
p843
sg8
S'Party Monster'
p844
ssS'5hIR7SX1fSrr5evIAPDY5o'
p845
(dp846
g3
S'Lost Frequencies'
p847
sg5
I12
sg6
S'https://open.spotify.com/track/5hIR7SX1fSrr5evIAPDY5o'
p848
sg8
S'What Is Love 2016'
p849
ssS'74uwCAsygJyUBgy09Oi2Fq'
p850
(dp851
g3
S'Lacrim'
p852
sg5
I1
sg6
S'https://open.spotify.com/track/74uwCAsygJyUBgy09Oi2Fq'
p853
sg8
S'Cohiba'
p854
ssS'1qmUCkWgVz0BImACt1rxjW'
p855
(dp856
g3
S'Netsky'
p857
sg5
I1
sg6
S'https://open.spotify.com/track/1qmUCkWgVz0BImACt1rxjW'
p858
sg8
S'Who Knows'
p859
ssS'2rBK5QsEAaDP2BNTZ9zuTs'
p860
(dp861
g3
S'Oscar and the Wolf'
p862
sg5
I1
sg6
S'https://open.spotify.com/track/2rBK5QsEAaDP2BNTZ9zuTs'
p863
sg8
S'Queen'
p864
ssS'4qBejt9FeqLI9blHI1Nq1x'
p865
(dp866
g3
S'Michael Bubl\xc3\xa9'
p867
sg5
I1
sg6
S'https://open.spotify.com/track/4qBejt9FeqLI9blHI1Nq1x'
p868
sg8
S'Jingle Bells (feat. The Puppini Sisters)'
p869
ssS'75ZvA4QfFiZvzhj2xkaWAh'
p870
(dp871
g3
S'Post Malone'
p872
sg5
I2
sg6
S'https://open.spotify.com/track/75ZvA4QfFiZvzhj2xkaWAh'
p873
sg8
S'I Fall Apart'
p874
ssS'1sTUEdVO85YU8Ymk2jeAls'
p875
(dp876
g3
S'MiC LOWRY'
p877
sg5
I5
sg6
S'https://open.spotify.com/track/1sTUEdVO85YU8Ymk2jeAls'
p878
sg8
S'Oh Lord'
p879
ssS'4kflIGfjdZJW4ot2ioixTB'
p880
(dp881
g3
S'Adele'
p882
sg5
I11
sg6
S'https://open.spotify.com/track/4kflIGfjdZJW4ot2ioixTB'
p883
sg8
S'Someone Like You'
p884
ssS'7hDc8b7IXETo14hHIHdnhd'
p885
(dp886
g3
S'Drake'
p887
sg5
I28
sg6
S'https://open.spotify.com/track/7hDc8b7IXETo14hHIHdnhd'
p888
sg8
S'Passionfruit'
p889
ssS'6YzvFfzQNxAUZWYjDOHo6H'
p890
(dp891
g3
S'James Hype'
p892
sg5
I1
sg6
S'https://open.spotify.com/track/6YzvFfzQNxAUZWYjDOHo6H'
p893
sg8
S'More Than Friends (feat. Kelli-Leigh)'
p894
ssS'3RiPr603aXAoi4GHyXx0uy'
p895
(dp896
g3
S'Coldplay'
p897
sg5
I2
sg6
S'https://open.spotify.com/track/3RiPr603aXAoi4GHyXx0uy'
p898
sg8
S'Hymn For The Weekend'
p899
ssS'3vcHPShfJAFP3TtAAsTHsV'
p900
(dp901
g3
S'Sunstroke Project'
p902
sg5
I8
sg6
S'https://open.spotify.com/track/3vcHPShfJAFP3TtAAsTHsV'
p903
sg8
S'Hey Mamma - Radio Edit'
p904
ssS'0tICYNayWWhH9GPeFrfjfD'
p905
(dp906
g3
S'Kungs'
p907
sg5
I37
sg6
S'https://open.spotify.com/track/0tICYNayWWhH9GPeFrfjfD'
p908
sg8
S"This Girl (Kungs Vs. Cookin' On 3 Burners) - Kungs Vs. Cookin' On 3 Burners"
p909
ssS'0Z9HQ8YvHqdeOjTwsR3cS7'
p910
(dp911
g3
S'Moon Taxi'
p912
sg5
I7
sg6
S'https://open.spotify.com/track/0Z9HQ8YvHqdeOjTwsR3cS7'
p913
sg8
S'Two High'
p914
ssS'3Lfiu5sZ4M4B6JaKMBc0FU'
p915
(dp916
g3
S'Ed Sheeran'
p917
sg5
I8
sg6
S'https://open.spotify.com/track/3Lfiu5sZ4M4B6JaKMBc0FU'
p918
sg8
S'Barcelona'
p919
ssS'2LTlO3NuNVN70lp2ZbVswF'
p920
(dp921
g3
S'Kendrick Lamar'
p922
sg5
I2
sg6
S'https://open.spotify.com/track/2LTlO3NuNVN70lp2ZbVswF'
p923
sg8
S'FEEL.'
p924
ssS'5ULRlgiSPSKTaJN1vU9yso'
p925
(dp926
g3
S'Ed Sheeran'
p927
sg5
I2
sg6
S'https://open.spotify.com/track/5ULRlgiSPSKTaJN1vU9yso'
p928
sg8
S'Shape of You - Acoustic'
p929
ssS'2ZE3DJuizYTad2S4CvRRhK'
p930
(dp931
g3
S'Lauv'
p932
sg5
I1
sg6
S'https://open.spotify.com/track/2ZE3DJuizYTad2S4CvRRhK'
p933
sg8
S'Easy Love'
p934
ssS'4YDuN2wT9oCQDPvES6MwVv'
p935
(dp936
g3
S'Nassi'
p937
sg5
I7
sg6
S'https://open.spotify.com/track/4YDuN2wT9oCQDPvES6MwVv'
p938
sg8
S'La vie est belle'
p939
ssS'0GaSolMcA26ZUpOqpWeNt9'
p940
(dp941
g3
S'Riton'
p942
sg5
I9
sg6
S'https://open.spotify.com/track/0GaSolMcA26ZUpOqpWeNt9'
p943
sg8
S'Money'
p944
ssS'5jGuAvPX3Ufo55DIZlCaHq'
p945
(dp946
g3
S'Nekfeu'
p947
sg5
I4
sg6
S'https://open.spotify.com/track/5jGuAvPX3Ufo55DIZlCaHq'
p948
sg8
S'R\xc3\xa9alit\xc3\xa9 augment\xc3\xa9e'
p949
ssS'65Q2mv3UlVi9eO70OpsmSe'
p950
(dp951
g3
S'Burl Ives'
p952
sg5
I1
sg6
S'https://open.spotify.com/track/65Q2mv3UlVi9eO70OpsmSe'
p953
sg8
S'A Holly Jolly Christmas - Single Version'
p954
ssS'0XLOf9LhyazPX9Ld8jPiUq'
p955
(dp956
g3
S'Selena Gomez'
p957
sg5
I11
sg6
S'https://open.spotify.com/track/0XLOf9LhyazPX9Ld8jPiUq'
p958
sg8
S'Fetish (feat. Gucci Mane)'
p959
ssS'2eAAEa8pxKF7My0EO4rFgR'
p960
(dp961
g3
S'Dua Lipa'
p962
sg5
I3
sg6
S'https://open.spotify.com/track/2eAAEa8pxKF7My0EO4rFgR'
p963
sg8
S'Blow Your Mind (Mwah)'
p964
ssS'1yxgsra98r3qAtxqiGZPiX'
p965
(dp966
g3
S'Travis Scott'
p967
sg5
I16
sg6
S'https://open.spotify.com/track/1yxgsra98r3qAtxqiGZPiX'
p968
sg8
S'Butterfly Effect'
p969
ssS'550rQQCGkrTzvp4SfpOPzx'
p970
(dp971
g3
S'Pentatonix'
p972
sg5
I1
sg6
S'https://open.spotify.com/track/550rQQCGkrTzvp4SfpOPzx'
p973
sg8
S'Hallelujah'
p974
ssS'0bqobxfnRM3SCawjPdBLsU'
p975
(dp976
g3
S'Djamila'
p977
sg5
I1
sg6
S'https://open.spotify.com/track/0bqobxfnRM3SCawjPdBLsU'
p978
sg8
S'Brickwall'
p979
ssS'3A7qX2QjDlPnazUsRk5y0M'
p980
(dp981
g3
S'David Guetta'
p982
sg5
I17
sg6
S'https://open.spotify.com/track/3A7qX2QjDlPnazUsRk5y0M'
p983
sg8
S'2U (feat. Justin Bieber)'
p984
ssS'0OwX5aROoW1Iip8FV51Efg'
p985
(dp986
g3
S'Anne-Marie'
p987
sg5
I7
sg6
S'https://open.spotify.com/track/0OwX5aROoW1Iip8FV51Efg'
p988
sg8
S'Alarm'
p989
ssS'6A8dnC0xkiuWN4BshmTB2I'
p990
(dp991
g3
S'A R I Z O N A'
p992
sg5
I21
sg6
S'https://open.spotify.com/track/6A8dnC0xkiuWN4BshmTB2I'
p993
sg8
S'Oceans Away'
p994
ssS'65ExBcuMthmxRVnPVvWCe3'
p995
(dp996
g3
S'SFB'
p997
sg5
I1
sg6
S'https://open.spotify.com/track/65ExBcuMthmxRVnPVvWCe3'
p998
sg8
S'Lovely Body'
p999
ssS'4fwtP5khM1iEoa6BP1QQsX'
p1000
(dp1001
g3
S'Lartiste'
p1002
sg5
I23
sg6
S'https://open.spotify.com/track/4fwtP5khM1iEoa6BP1QQsX'
p1003
sg8
S'Chocolat (feat. Awa)'
p1004
ssS'6WBPdOrzwCo3AXg2kGGD7x'
p1005
(dp1006
g3
S'Van Echelpoel'
p1007
sg5
I21
sg6
S'https://open.spotify.com/track/6WBPdOrzwCo3AXg2kGGD7x'
p1008
sg8
S'Ziet Em Duun'
p1009
ssS'56lBX2WHqfGuoeZxZvUnVj'
p1010
(dp1011
g3
S'Imagine Dragons'
p1012
sg5
I3
sg6
S'https://open.spotify.com/track/56lBX2WHqfGuoeZxZvUnVj'
p1013
sg8
S'Thunder'
p1014
ssS'0XfOi87h82i09rQjWYG0Bm'
p1015
(dp1016
g3
S'Jax Jones'
p1017
sg5
I10
sg6
S'https://open.spotify.com/track/0XfOi87h82i09rQjWYG0Bm'
p1018
sg8
S'Instruction (feat. Demi Lovato & Stefflon Don)'
p1019
ssS'5qqabIl2vWzo9ApSC317sa'
p1020
(dp1021
g3
S'Oasis'
p1022
sg5
I25
sg6
S'https://open.spotify.com/track/5qqabIl2vWzo9ApSC317sa'
p1023
sg8
S'Wonderwall - Remastered'
p1024
ssS'28irpKCCK9nn9DZSik2zEx'
p1025
(dp1026
g3
S'Drake'
p1027
sg5
I1
sg6
S'https://open.spotify.com/track/28irpKCCK9nn9DZSik2zEx'
p1028
sg8
S'Glow'
p1029
ssS'5JUu0unA8VwhTZ9LkMWUVI'
p1030
(dp1031
g3
S'Drake'
p1032
sg5
I1
sg6
S'https://open.spotify.com/track/5JUu0unA8VwhTZ9LkMWUVI'
p1033
sg8
S'Since Way Back'
p1034
ssS'4IWAyPf1KMq7JCyGeCjTeH'
p1035
(dp1036
g3
S'Imagine Dragons'
p1037
sg5
I7
sg6
S'https://open.spotify.com/track/4IWAyPf1KMq7JCyGeCjTeH'
p1038
sg8
S'Whatever It Takes'
p1039
ssS'7zFa37tBPunbIwhfdoVOzF'
p1040
(dp1041
g3
S'Killer Kamal'
p1042
sg5
I1
sg6
S'https://open.spotify.com/track/7zFa37tBPunbIwhfdoVOzF'
p1043
sg8
S'Hier'
p1044
ssS'0ZExP2I5Ej92PsnG4G1jVG'
p1045
(dp1046
g3
S'Julia Michaels'
p1047
sg5
I3
sg6
S'https://open.spotify.com/track/0ZExP2I5Ej92PsnG4G1jVG'
p1048
sg8
S'Uh Huh'
p1049
ssS'5oF1TuOLbzhAvYZnIycfa5'
p1050
(dp1051
g3
S'Sylver'
p1052
sg5
I14
sg6
S'https://open.spotify.com/track/5oF1TuOLbzhAvYZnIycfa5'
p1053
sg8
S'Turn Your Love Around - Radio Edit'
p1054
ssS'6YZdkObH88npeKrrkb8Ggf'
p1055
(dp1056
g3
S'Enrique Iglesias'
p1057
sg5
I5
sg6
S'https://open.spotify.com/track/6YZdkObH88npeKrrkb8Ggf'
p1058
sg8
S'DUELE EL CORAZON'
p1059
ssS'2jYmK1cb3Uya6FFsocdpzO'
p1060
(dp1061
g3
S'Sabrina Carpenter'
p1062
sg5
I9
sg6
S'https://open.spotify.com/track/2jYmK1cb3Uya6FFsocdpzO'
p1063
sg8
S'Why'
p1064
ssS'50PWlIBU7PlGGwzgN8TiFJ'
p1065
(dp1066
g3
S'Lady Gaga'
p1067
sg5
I7
sg6
S'https://open.spotify.com/track/50PWlIBU7PlGGwzgN8TiFJ'
p1068
sg8
S'Million Reasons'
p1069
ssS'0WCEaydwN65cvwaW8aqptF'
p1070
(dp1071
g3
S'Olivia Holt'
p1072
sg5
I22
sg6
S'https://open.spotify.com/track/0WCEaydwN65cvwaW8aqptF'
p1073
sg8
S'History'
p1074
ssS'6KjbNLbRjuoa8rEq5yNA6H'
p1075
(dp1076
g3
S'The Chainsmokers'
p1077
sg5
I1
sg6
S'https://open.spotify.com/track/6KjbNLbRjuoa8rEq5yNA6H'
p1078
sg8
S'Honest'
p1079
ssS'3FiE2d325mIOc4YjkSLVJR'
p1080
(dp1081
g3
S'Ariana Grande'
p1082
sg5
I7
sg6
S'https://open.spotify.com/track/3FiE2d325mIOc4YjkSLVJR'
p1083
sg8
S'Everyday'
p1084
ssS'0Wv5wuenRLI3BcwgT3HPIP'
p1085
(dp1086
g3
S'DJ Snake'
p1087
sg5
I3
sg6
S'https://open.spotify.com/track/0Wv5wuenRLI3BcwgT3HPIP'
p1088
sg8
S'A Different Way (with Lauv)'
p1089
ssS'5ZgA4F6aJ3nxKKYZq6KWco'
p1090
(dp1091
g3
S'Jebroer'
p1092
sg5
I15
sg6
S'https://open.spotify.com/track/5ZgA4F6aJ3nxKKYZq6KWco'
p1093
sg8
S'Engeltje'
p1094
ssS'2bjwRfXMk4uRgOD9IBYl9h'
p1095
(dp1096
g3
S'Drake'
p1097
sg5
I11
sg6
S'https://open.spotify.com/track/2bjwRfXMk4uRgOD9IBYl9h'
p1098
sg8
S'Portland'
p1099
ssS'0FuTx2s3YH1ppmtiM6l0zI'
p1100
(dp1101
g3
S'JP Cooper'
p1102
sg5
I40
sg6
S'https://open.spotify.com/track/0FuTx2s3YH1ppmtiM6l0zI'
p1103
sg8
S'September Song'
p1104
ssS'1X8py2jInjgIQ9Y9roDQZC'
p1105
(dp1106
g3
S"Lil' Kleine"
p1107
sg5
I16
sg6
S'https://open.spotify.com/track/1X8py2jInjgIQ9Y9roDQZC'
p1108
sg8
S'Krantenwijk'
p1109
ssS'359buFCogBGX23Dgdqcrws'
p1110
(dp1111
g3
S'Niska'
p1112
sg5
I3
sg6
S'https://open.spotify.com/track/359buFCogBGX23Dgdqcrws'
p1113
sg8
S'Ah bon ?'
p1114
ssS'1OmcAT5Y8eg5bUPv9qJT4R'
p1115
(dp1116
g3
S'Post Malone'
p1117
sg5
I3
sg6
S'https://open.spotify.com/track/1OmcAT5Y8eg5bUPv9qJT4R'
p1118
sg8
S'rockstar'
p1119
ssS'5GFDrUTLGJix84sNhjCG0g'
p1120
(dp1121
g3
S'Amin\xc3\xa9'
p1122
sg5
I5
sg6
S'https://open.spotify.com/track/5GFDrUTLGJix84sNhjCG0g'
p1123
sg8
S'Caroline'
p1124
ssS'33B2QbtAj8mbDpwvGTOnBt'
p1125
(dp1126
g3
S'The xx'
p1127
sg5
I3
sg6
S'https://open.spotify.com/track/33B2QbtAj8mbDpwvGTOnBt'
p1128
sg8
S'Dangerous'
p1129
ssS'0azC730Exh71aQlOt9Zj3y'
p1130
(dp1131
g3
S'Calvin Harris'
p1132
sg5
I22
sg6
S'https://open.spotify.com/track/0azC730Exh71aQlOt9Zj3y'
p1133
sg8
S'This Is What You Came For'
p1134
ssS'4MbrdTZFLCP2LLQEL42KIH'
p1135
(dp1136
g3
S'The Magician'
p1137
sg5
I7
sg6
S'https://open.spotify.com/track/4MbrdTZFLCP2LLQEL42KIH'
p1138
sg8
S'Tied Up'
p1139
ssS'57Y51hxqMn2j3dosW75R6n'
p1140
(dp1141
g3
S'Robin Bengtsson'
p1142
sg5
I1
sg6
S'https://open.spotify.com/track/57Y51hxqMn2j3dosW75R6n'
p1143
sg8
S'I Can\xc2\xb4t Go On'
p1144
ssS'2jyjhRf6DVbMPU5zxagN2h'
p1145
(dp1146
g3
S'Passenger'
p1147
sg5
I24
sg6
S'https://open.spotify.com/track/2jyjhRf6DVbMPU5zxagN2h'
p1148
sg8
S'Let Her Go'
p1149
ssS'7i2DJ88J7jQ8K7zqFX2fW8'
p1150
(dp1151
g3
S'Halsey'
p1152
sg5
I9
sg6
S'https://open.spotify.com/track/7i2DJ88J7jQ8K7zqFX2fW8'
p1153
sg8
S'Now Or Never'
p1154
ssS'43ZyHQITOjhciSUUNPVRHc'
p1155
(dp1156
g3
S'Lil Pump'
p1157
sg5
I1
sg6
S'https://open.spotify.com/track/43ZyHQITOjhciSUUNPVRHc'
p1158
sg8
S'Gucci Gang'
p1159
ssS'78DktVruMrKYyv6rjdKDMM'
p1160
(dp1161
g3
S'Ninho'
p1162
sg5
I5
sg6
S'https://open.spotify.com/track/78DktVruMrKYyv6rjdKDMM'
p1163
sg8
S"Elle m'a eu"
p1164
ssS'5sNESr6pQfIhL3krM8CtZn'
p1165
(dp1166
g3
S'JAY Z'
p1167
sg5
I1
sg6
S'https://open.spotify.com/track/5sNESr6pQfIhL3krM8CtZn'
p1168
sg8
S'Numb / Encore'
p1169
ssS'1OzsRthSmpTEcm2jBwknEP'
p1170
(dp1171
g3
S'Bazart'
p1172
sg5
I1
sg6
S'https://open.spotify.com/track/1OzsRthSmpTEcm2jBwknEP'
p1173
sg8
S'Echo'
p1174
ssS'68EMU2RD1ECNeOeJ5qAXCV'
p1175
(dp1176
g3
S'Charlie Puth'
p1177
sg5
I34
sg6
S'https://open.spotify.com/track/68EMU2RD1ECNeOeJ5qAXCV'
p1178
sg8
S"We Don't Talk Anymore (feat. Selena Gomez)"
p1179
ssS'6ybGElyQcnkaMLqy8X3FPL'
p1180
(dp1181
g3
S'Oscar and the Wolf'
p1182
sg5
I1
sg6
S'https://open.spotify.com/track/6ybGElyQcnkaMLqy8X3FPL'
p1183
sg8
S'Touch Down'
p1184
ssS'3b5Li4QKDVBx1x7fQuu54a'
p1185
(dp1186
g3
S'Alan Walker'
p1187
sg5
I17
sg6
S'https://open.spotify.com/track/3b5Li4QKDVBx1x7fQuu54a'
p1188
sg8
S'Tired'
p1189
ssS'42v5gFv5NMk89gbjqqDuSD'
p1190
(dp1191
g3
S'Fedde Le Grand'
p1192
sg5
I1
sg6
S'https://open.spotify.com/track/42v5gFv5NMk89gbjqqDuSD'
p1193
sg8
S"Coco's Miracle"
p1194
ssS'7G0zCTiFXuMsLovPWU3BPQ'
p1195
(dp1196
g3
S'Chris Brown'
p1197
sg5
I1
sg6
S'https://open.spotify.com/track/7G0zCTiFXuMsLovPWU3BPQ'
p1198
sg8
S'This Christmas'
p1199
ssS'6vSwxzO2Qf4BinHSXRwZJe'
p1200
(dp1201
g3
S'Ed Sheeran'
p1202
sg5
I9
sg6
S'https://open.spotify.com/track/6vSwxzO2Qf4BinHSXRwZJe'
p1203
sg8
S'Tenerife Sea'
p1204
ssS'5XiZK7m9PLppgIzJBpw2x5'
p1205
(dp1206
g3
S'Martin Jensen'
p1207
sg5
I4
sg6
S'https://open.spotify.com/track/5XiZK7m9PLppgIzJBpw2x5'
p1208
sg8
S'Wait'
p1209
ssS'1cImYkHOQMFE7AZC9aOk4y'
p1210
(dp1211
g3
S'Bobby Helms'
p1212
sg5
I1
sg6
S'https://open.spotify.com/track/1cImYkHOQMFE7AZC9aOk4y'
p1213
sg8
S'Jingle Bell Rock'
p1214
ssS'2mFVt6vCOcR71lw3kY2UZB'
p1215
(dp1216
g3
S'Major Lazer'
p1217
sg5
I4
sg6
S'https://open.spotify.com/track/2mFVt6vCOcR71lw3kY2UZB'
p1218
sg8
S'Believer'
p1219
ssS'2BFH1TOQzViOltkQvRTzhu'
p1220
(dp1221
g3
S"Lil' Kleine"
p1222
sg5
I1
sg6
S'https://open.spotify.com/track/2BFH1TOQzViOltkQvRTzhu'
p1223
sg8
S'Nooit Meer / Ooit Weer'
p1224
ssS'4VuS959DSpr82t3qBqCrWG'
p1225
(dp1226
g3
S'Ed Sheeran'
p1227
sg5
I8
sg6
S'https://open.spotify.com/track/4VuS959DSpr82t3qBqCrWG'
p1228
sg8
S'Supermarket Flowers'
p1229
ssS'5QdB0HJmTHkPvyJhKfQLM1'
p1230
(dp1231
g3
S'Lost Frequencies'
p1232
sg5
I11
sg6
S'https://open.spotify.com/track/5QdB0HJmTHkPvyJhKfQLM1'
p1233
sg8
S'Beautiful Life'
p1234
ssS'7bJwvubZZaoGE1AGEfu8Fi'
p1235
(dp1236
g3
S'Ariana Grande'
p1237
sg5
I2
sg6
S'https://open.spotify.com/track/7bJwvubZZaoGE1AGEfu8Fi'
p1238
sg8
S'One Last Time'
p1239
ssS'2Za1AlJNvksouPPWbXpR2X'
p1240
(dp1241
g3
S'Macklemore'
p1242
sg5
I3
sg6
S'https://open.spotify.com/track/2Za1AlJNvksouPPWbXpR2X'
p1243
sg8
S'Good Old Days (feat. Kesha)'
p1244
ssS'1Zu1IfKUQsuhARjy6DmUGc'
p1245
(dp1246
g3
S'Kaaris'
p1247
sg5
I1
sg6
S'https://open.spotify.com/track/1Zu1IfKUQsuhARjy6DmUGc'
p1248
sg8
S'Dozo'
p1249
ssS'4lJa7Wd4tol3IyQyjEuvJp'
p1250
(dp1251
g3
S'Gers Pardoel'
p1252
sg5
I13
sg6
S'https://open.spotify.com/track/4lJa7Wd4tol3IyQyjEuvJp'
p1253
sg8
S'Zo Bijzonder - Uit Liefde Voor Muziek'
p1254
ssS'0Zx8khUcEfCFK2AEoIhC92'
p1255
(dp1256
g3
S'Snakehips'
p1257
sg5
I19
sg6
S'https://open.spotify.com/track/0Zx8khUcEfCFK2AEoIhC92'
p1258
sg8
S"Don't Leave"
p1259
ssS'3qmvK8QARSPkFTuKeIXSbs'
p1260
(dp1261
g3
S'Linkin Park'
p1262
sg5
I1
sg6
S'https://open.spotify.com/track/3qmvK8QARSPkFTuKeIXSbs'
p1263
sg8
S'Bleed It Out'
p1264
ssS'5wNJY5ICnoVqzrfZMfHx7l'
p1265
(dp1266
g3
S'Tim Arisu'
p1267
sg5
I2
sg6
S'https://open.spotify.com/track/5wNJY5ICnoVqzrfZMfHx7l'
p1268
sg8
S'Fires (feat. Scarlett Quinn)'
p1269
ssS'4QXLXEcGPl18ghSz4cSEzP'
p1270
(dp1271
g3
S'Sevn Alias'
p1272
sg5
I1
sg6
S'https://open.spotify.com/track/4QXLXEcGPl18ghSz4cSEzP'
p1273
sg8
S'In Amsterdam'
p1274
ssS'2UZW9WOPXdxw9YMG1bebS8'
p1275
(dp1276
g3
S'Damso'
p1277
sg5
I24
sg6
S'https://open.spotify.com/track/2UZW9WOPXdxw9YMG1bebS8'
p1278
sg8
S'\xce\x98. Macarena'
p1279
ssS'05bXOQTUxou0BaZ6XteJo0'
p1280
(dp1281
g3
S"Lil' Kleine"
p1282
sg5
I1
sg6
S'https://open.spotify.com/track/05bXOQTUxou0BaZ6XteJo0'
p1283
sg8
S'Krantenwijk'
p1284
ssS'0gb1J5UrTpzaU1s3nupgCd'
p1285
(dp1286
g3
S'Galantis'
p1287
sg5
I8
sg6
S'https://open.spotify.com/track/0gb1J5UrTpzaU1s3nupgCd'
p1288
sg8
S'No Money'
p1289
ssS'6n3HGiq4v35D6eFOSwqYuo'
p1290
(dp1291
g3
S'Drake'
p1292
sg5
I3
sg6
S'https://open.spotify.com/track/6n3HGiq4v35D6eFOSwqYuo'
p1293
sg8
S'Teenage Fever'
p1294
ssS'3abKAw6reL2U3vhAe98ZsY'
p1295
(dp1296
g3
S'Julia Michaels'
p1297
sg5
I1
sg6
S'https://open.spotify.com/track/3abKAw6reL2U3vhAe98ZsY'
p1298
sg8
S'Issues - Alan Walker Remix'
p1299
ssS'2q7vWE2hIS1Kj3ShkcKkIS'
p1300
(dp1301
g3
S'Dimitri Vegas & Like Mike'
p1302
sg5
I4
sg6
S'https://open.spotify.com/track/2q7vWE2hIS1Kj3ShkcKkIS'
p1303
sg8
S'Hey Baby - Mattn vs. Regi Remix'
p1304
ssS'2bBMODHVTXGwE2aZYfbgCt'
p1305
(dp1306
g3
S'Gorillaz'
p1307
sg5
I1
sg6
S'https://open.spotify.com/track/2bBMODHVTXGwE2aZYfbgCt'
p1308
sg8
S'Ascension (feat. Vince Staples)'
p1309
ssS'0YHUITU3w6ws1v8ehT264g'
p1310
(dp1311
g3
S'Little Mix'
p1312
sg5
I12
sg6
S'https://open.spotify.com/track/0YHUITU3w6ws1v8ehT264g'
p1313
sg8
S'Shout Out to My Ex'
p1314
ssS'4IUHilW22vLDSWvVArQ7gZ'
p1315
(dp1316
g3
S'Walid Sevran'
p1317
sg5
I1
sg6
S'https://open.spotify.com/track/4IUHilW22vLDSWvVArQ7gZ'
p1318
sg8
S'La cour des grands'
p1319
ssS'1kusepF3AacIEtUTYrw4GV'
p1320
(dp1321
g3
S'M.I.A.'
p1322
sg5
I1
sg6
S'https://open.spotify.com/track/1kusepF3AacIEtUTYrw4GV'
p1323
sg8
S'Paper Planes'
p1324
ssS'0hKnOY47hN0PpVJARo0e37'
p1325
(dp1326
g3
S'Sem Thomasson'
p1327
sg5
I2
sg6
S'https://open.spotify.com/track/0hKnOY47hN0PpVJARo0e37'
p1328
sg8
S'Icebear'
p1329
ssS'1Vw6ZJSBG4BL0C318rkh3J'
p1330
(dp1331
g3
S"Lil' Kleine"
p1332
sg5
I3
sg6
S'https://open.spotify.com/track/1Vw6ZJSBG4BL0C318rkh3J'
p1333
sg8
S'Wat Een Tijd Om Te Leven'
p1334
ssS'2ey5jG9boqrojvpZC3SGVR'
p1335
(dp1336
g3
S'Curtis Alto'
p1337
sg5
I7
sg6
S'https://open.spotify.com/track/2ey5jG9boqrojvpZC3SGVR'
p1338
sg8
S'Afraid'
p1339
ssS'5tf1VVWniHgryyumXyJM7w'
p1340
(dp1341
g3
S'Robin Schulz'
p1342
sg5
I6
sg6
S'https://open.spotify.com/track/5tf1VVWniHgryyumXyJM7w'
p1343
sg8
S'Sugar (feat. Francesco Yates)'
p1344
ssS'32DGGj6KlNuBr6WaqRxpxi'
p1345
(dp1346
g3
S'Charlie Puth'
p1347
sg5
I1
sg6
S'https://open.spotify.com/track/32DGGj6KlNuBr6WaqRxpxi'
p1348
sg8
S'How Long'
p1349
ssS'00cbRAOr6wTPE9WBMejhiM'
p1350
(dp1351
g3
S'Mister V'
p1352
sg5
I3
sg6
S'https://open.spotify.com/track/00cbRAOr6wTPE9WBMejhiM'
p1353
sg8
S'Space Jam'
p1354
ssS'2XlHu0HcujBCkWMdIAvrqt'
p1355
(dp1356
g3
S'Drake'
p1357
sg5
I6
sg6
S'https://open.spotify.com/track/2XlHu0HcujBCkWMdIAvrqt'
p1358
sg8
S'Blem'
p1359
ssS'5f5r2N4Lp9WoULWPH9zp2W'
p1360
(dp1361
g3
S'Drake'
p1362
sg5
I1
sg6
S'https://open.spotify.com/track/5f5r2N4Lp9WoULWPH9zp2W'
p1363
sg8
S"Can't Have Everything"
p1364
ssS'2QWP8NYYplOqEFBYGCcq0S'
p1365
(dp1366
g3
S'The Script'
p1367
sg5
I6
sg6
S'https://open.spotify.com/track/2QWP8NYYplOqEFBYGCcq0S'
p1368
sg8
S'Rain'
p1369
ssS'3vqjXbhl94arOKzVZSBMsL'
p1370
(dp1371
g3
S"Lil' Kleine"
p1372
sg5
I4
sg6
S'https://open.spotify.com/track/3vqjXbhl94arOKzVZSBMsL'
p1373
sg8
S'Halen & Trekken'
p1374
ssS'2OALaHcDdKkjYEpAr0Qzab'
p1375
(dp1376
g3
S'Avicii'
p1377
sg5
I9
sg6
S'https://open.spotify.com/track/2OALaHcDdKkjYEpAr0Qzab'
p1378
sg8
S'Lonely Together (feat. Rita Ora)'
p1379
ssS'5LYQSNHZxEA880URXFHg6h'
p1380
(dp1381
g3
S'Lana Del Rey'
p1382
sg5
I2
sg6
S'https://open.spotify.com/track/5LYQSNHZxEA880URXFHg6h'
p1383
sg8
S'Lust for Life (with The Weeknd)'
p1384
ssS'1QH6Irlx3h57TyLjJmNufU'
p1385
(dp1386
g3
S'Ninho'
p1387
sg5
I1
sg6
S'https://open.spotify.com/track/1QH6Irlx3h57TyLjJmNufU'
p1388
sg8
S'Ce soir (feat. Alonzo)'
p1389
ssS'7nAfXgeHfDO50upcOjJOaq'
p1390
(dp1391
g3
S'Linkin Park'
p1392
sg5
I1
sg6
S'https://open.spotify.com/track/7nAfXgeHfDO50upcOjJOaq'
p1393
sg8
S'Talking to Myself'
p1394
ssS'3tIF7WC5lSAzBtFLP8LxQP'
p1395
(dp1396
g3
S'Boef'
p1397
sg5
I6
sg6
S'https://open.spotify.com/track/3tIF7WC5lSAzBtFLP8LxQP'
p1398
sg8
S'Kopzorgen'
p1399
ssS'5hYTyyh2odQKphUbMqc5gN'
p1400
(dp1401
g3
S'Alessia Cara'
p1402
sg5
I29
sg6
S'https://open.spotify.com/track/5hYTyyh2odQKphUbMqc5gN'
p1403
sg8
S"How Far I'll Go - From Moana"
p1404
ssS'1sBhJGPUKrdRycgKxve70v'
p1405
(dp1406
g3
S'Felix Jaehn'
p1407
sg5
I19
sg6
S'https://open.spotify.com/track/1sBhJGPUKrdRycgKxve70v'
p1408
sg8
S'Hot2Touch'
p1409
ssS'72jbDTw1piOOj770jWNeaG'
p1410
(dp1411
g3
S'The Chainsmokers'
p1412
sg5
I39
sg6
S'https://open.spotify.com/track/72jbDTw1piOOj770jWNeaG'
p1413
sg8
S'Paris'
p1414
ssS'12REd1n8PeiHHWOh066tpr'
p1415
(dp1416
g3
S'Flume'
p1417
sg5
I12
sg6
S'https://open.spotify.com/track/12REd1n8PeiHHWOh066tpr'
p1418
sg8
S'Never Be Like You'
p1419
ssS'6G41AeVgQkpvEbTxN5fNkW'
p1420
(dp1421
g3
S'Boef'
p1422
sg5
I30
sg6
S'https://open.spotify.com/track/6G41AeVgQkpvEbTxN5fNkW'
p1423
sg8
S'Habiba'
p1424
ssS'0xG0SHshCStMEyNbNC5d4k'
p1425
(dp1426
g3
S'Julia Michaels'
p1427
sg5
I9
sg6
S'https://open.spotify.com/track/0xG0SHshCStMEyNbNC5d4k'
p1428
sg8
S'Issues'
p1429
ssS'11EDhDAVDtGPoSar6ootYA'
p1430
(dp1431
g3
S'Halsey'
p1432
sg5
I1
sg6
S'https://open.spotify.com/track/11EDhDAVDtGPoSar6ootYA'
p1433
sg8
S'Strangers'
p1434
ssS'2JB7PvDV0R3Vwbq0iy1WPe'
p1435
(dp1436
g3
S'Queens of the Stone Age'
p1437
sg5
I1
sg6
S'https://open.spotify.com/track/2JB7PvDV0R3Vwbq0iy1WPe'
p1438
sg8
S"Feet Don't Fail Me"
p1439
ssS'4tNpAeDH7S7cJGEo28Ogi4'
p1440
(dp1441
g3
S'Sevn Alias'
p1442
sg5
I1
sg6
S'https://open.spotify.com/track/4tNpAeDH7S7cJGEo28Ogi4'
p1443
sg8
S'Patsergedrag'
p1444
ssS'6FemVsNUb2lzWsDRm14FUJ'
p1445
(dp1446
g3
S'The Script'
p1447
sg5
I4
sg6
S'https://open.spotify.com/track/6FemVsNUb2lzWsDRm14FUJ'
p1448
sg8
S'Rain'
p1449
ssS'6x8j5V85ZJHtvOSjSamcVc'
p1450
(dp1451
g3
S'MHD'
p1452
sg5
I20
sg6
S'https://open.spotify.com/track/6x8j5V85ZJHtvOSjSamcVc'
p1453
sg8
S'Afro Trap Pt. 7 (La puissance)'
p1454
ssS'5worwsPaNQw2TdVYkE3iXm'
p1455
(dp1456
g3
S'Gers Pardoel'
p1457
sg5
I1
sg6
S'https://open.spotify.com/track/5worwsPaNQw2TdVYkE3iXm'
p1458
sg8
S'Zo Bijzonder - Live'
p1459
ssS'5b88tNINg4Q4nrRbrCXUmg'
p1460
(dp1461
g3
S'Pharrell Williams'
p1462
sg5
I2
sg6
S'https://open.spotify.com/track/5b88tNINg4Q4nrRbrCXUmg'
p1463
sg8
S'Happy - From Despicable Me 2'
p1464
ssS'6Zosz8w6CmdGMZM6p4JlbQ'
p1465
(dp1466
g3
S'Danny Ocean'
p1467
sg5
I1
sg6
S'https://open.spotify.com/track/6Zosz8w6CmdGMZM6p4JlbQ'
p1468
sg8
S'Me Reh\xc3\xbaso'
p1469
ssS'12o6dxWGk29uIAP3OWY0pM'
p1470
(dp1471
g3
S'Lorde'
p1472
sg5
I4
sg6
S'https://open.spotify.com/track/12o6dxWGk29uIAP3OWY0pM'
p1473
sg8
S'Homemade Dynamite'
p1474
ssS'2KpmOVO2DofdsN2riMuNq1'
p1475
(dp1476
g3
S'Oscar and the Wolf'
p1477
sg5
I1
sg6
S'https://open.spotify.com/track/2KpmOVO2DofdsN2riMuNq1'
p1478
sg8
S'Pretty Infiniti'
p1479
ssS'6YnzBV7YkaXZNCK3tlnCfg'
p1480
(dp1481
g3
S'Boney M.'
p1482
sg5
I1
sg6
S'https://open.spotify.com/track/6YnzBV7YkaXZNCK3tlnCfg'
p1483
sg8
S"Mary's Boy Child / Oh My Lord"
p1484
ssS'6p8NuHm8uCGnn2Dtbtf7zE'
p1485
(dp1486
g3
S'Migos'
p1487
sg5
I1
sg6
S'https://open.spotify.com/track/6p8NuHm8uCGnn2Dtbtf7zE'
p1488
sg8
S'Slippery (feat. Gucci Mane)'
p1489
ssS'2KvHC9z14GSl4YpkNMX384'
p1490
(dp1491
g3
S'Drake'
p1492
sg5
I2
sg6
S'https://open.spotify.com/track/2KvHC9z14GSl4YpkNMX384'
p1493
sg8
S'Do Not Disturb'
p1494
ssS'7bTwYGhBdSQ8vuXc76Xint'
p1495
(dp1496
g3
S'The Lumineers'
p1497
sg5
I8
sg6
S'https://open.spotify.com/track/7bTwYGhBdSQ8vuXc76Xint'
p1498
sg8
S'Ophelia'
p1499
ssS'2gbCG4Rt9984UZ7Tc0dIFd'
p1500
(dp1501
g3
S'Michael Bubl\xc3\xa9'
p1502
sg5
I1
sg6
S'https://open.spotify.com/track/2gbCG4Rt9984UZ7Tc0dIFd'
p1503
sg8
S'White Christmas (Duet With Shania Twain)'
p1504
ssS'3gO8sS8nMNuVwqMyJKRs3b'
p1505
(dp1506
g3
S'Niska'
p1507
sg5
I3
sg6
S'https://open.spotify.com/track/3gO8sS8nMNuVwqMyJKRs3b'
p1508
sg8
S'Versus'
p1509
ssS'77lGafvlU68CeHgB2pkHC9'
p1510
(dp1511
g3
S'Machine Gun Kelly'
p1512
sg5
I9
sg6
S'https://open.spotify.com/track/77lGafvlU68CeHgB2pkHC9'
p1513
sg8
S'At My Best (feat. Hailee Steinfeld)'
p1514
ssS'4GCIYE1x1TWJCChPkpy9by'
p1515
(dp1516
g3
S'PNL'
p1517
sg5
I10
sg6
S'https://open.spotify.com/track/4GCIYE1x1TWJCChPkpy9by'
p1518
sg8
S'Onizuka'
p1519
ssS'0dA2Mk56wEzDgegdC6R17g'
p1520
(dp1521
g3
S'Zedd'
p1522
sg5
I33
sg6
S'https://open.spotify.com/track/0dA2Mk56wEzDgegdC6R17g'
p1523
sg8
S'Stay (with Alessia Cara)'
p1524
ssS'4FbcVWgOjljdetmSqzM7NN'
p1525
(dp1526
g3
S'D5R'
p1527
sg5
I3
sg6
S'https://open.spotify.com/track/4FbcVWgOjljdetmSqzM7NN'
p1528
sg8
S'If You Believe'
p1529
ssS'3kGfazcbVvVkuZunzlLgTD'
p1530
(dp1531
g3
S'Sigala'
p1532
sg5
I18
sg6
S'https://open.spotify.com/track/3kGfazcbVvVkuZunzlLgTD'
p1533
sg8
S'Came Here for Love'
p1534
ssS'6pA3kqOWAQBbAzLfQK2oiR'
p1535
(dp1536
g3
S'Emma Bale'
p1537
sg5
I3
sg6
S'https://open.spotify.com/track/6pA3kqOWAQBbAzLfQK2oiR'
p1538
sg8
S'Worth It'
p1539
ssS'68qTD5PAoqFgrkw5W2DHL5'
p1540
(dp1541
g3
S'Kraantje Pappie'
p1542
sg5
I19
sg6
S'https://open.spotify.com/track/68qTD5PAoqFgrkw5W2DHL5'
p1543
sg8
S'De Manier'
p1544
ssS'3Ytr1SUCUi6J3L9dRFx5iH'
p1545
(dp1546
g3
S'Major Lazer'
p1547
sg5
I19
sg6
S'https://open.spotify.com/track/3Ytr1SUCUi6J3L9dRFx5iH'
p1548
sg8
S'Know No Better (feat. Quavo)'
p1549
ssS'1sl5tSzfK1JrcQIcA8rYDy'
p1550
(dp1551
g3
S'Grey'
p1552
sg5
I5
sg6
S'https://open.spotify.com/track/1sl5tSzfK1JrcQIcA8rYDy'
p1553
sg8
S'I Miss You'
p1554
ssS'5zhTxSctAPGFmXSZ7RPmxG'
p1555
(dp1556
g3
S'Boef'
p1557
sg5
I19
sg6
S'https://open.spotify.com/track/5zhTxSctAPGFmXSZ7RPmxG'
p1558
sg8
S'Salam'
p1559
ssS'5ZnJsoJGkQ5K15W7Rcr5JO'
p1560
(dp1561
g3
S'Little Mix'
p1562
sg5
I7
sg6
S'https://open.spotify.com/track/5ZnJsoJGkQ5K15W7Rcr5JO'
p1563
sg8
S'No More Sad Songs (feat. Machine Gun Kelly)'
p1564
ssS'7nZmah2llfvLDiUjm0kiyz'
p1565
(dp1566
g3
S'Justin Bieber'
p1567
sg5
I8
sg6
S'https://open.spotify.com/track/7nZmah2llfvLDiUjm0kiyz'
p1568
sg8
S'Friends (with BloodPop\xc2\xae)'
p1569
ssS'13HVjjWUZFaWilh2QUJKsP'
p1570
(dp1571
g3
S'James Bay'
p1572
sg5
I17
sg6
S'https://open.spotify.com/track/13HVjjWUZFaWilh2QUJKsP'
p1573
sg8
S'Let It Go'
p1574
ssS'3s5vPRJOl71dtZ8SjU8SnN'
p1575
(dp1576
g3
S'Sevn Alias'
p1577
sg5
I1
sg6
S'https://open.spotify.com/track/3s5vPRJOl71dtZ8SjU8SnN'
p1578
sg8
S'Mufasa'
p1579
ssS'0y9uTzK9cNKSAEHnpeRG8C'
p1580
(dp1581
g3
S'Kendrick Lamar'
p1582
sg5
I2
sg6
S'https://open.spotify.com/track/0y9uTzK9cNKSAEHnpeRG8C'
p1583
sg8
S'DUCKWORTH.'
p1584
ssS'3eFJqPe8VUYrABbFjSauuj'
p1585
(dp1586
g3
S''
p1587
sg5
I1
sg6
S'https://open.spotify.com/track/3eFJqPe8VUYrABbFjSauuj'
p1588
sg8
g1587
ssS'1yZeAbEbUz2mCSqnMvCwtC'
p1589
(dp1590
g3
S'Sevn Alias'
p1591
sg5
I1
sg6
S'https://open.spotify.com/track/1yZeAbEbUz2mCSqnMvCwtC'
p1592
sg8
S'Money Like We'
p1593
ssS'53mrVsi49rLHIaKBiSvElG'
p1594
(dp1595
g3
S'blackbear'
p1596
sg5
I10
sg6
S'https://open.spotify.com/track/53mrVsi49rLHIaKBiSvElG'
p1597
sg8
S'do re mi (feat. Gucci Mane)'
p1598
ssS'6p2bt2xM6mf25q3wAmI5kd'
p1599
(dp1600
g3
S'Damso'
p1601
sg5
I4
sg6
S'https://open.spotify.com/track/6p2bt2xM6mf25q3wAmI5kd'
p1602
sg8
S'\xce\x9c. Noob Saibot'
p1603
ssS'6uFsE1JgZ20EXyU0JQZbUR'
p1604
(dp1605
g3
S'Taylor Swift'
p1606
sg5
I7
sg6
S'https://open.spotify.com/track/6uFsE1JgZ20EXyU0JQZbUR'
p1607
sg8
S'Look What You Made Me Do'
p1608
ssS'7fwXWKdDNI5IutOMc5OKYw'
p1609
(dp1610
g3
S'J Balvin'
p1611
sg5
I2
sg6
S'https://open.spotify.com/track/7fwXWKdDNI5IutOMc5OKYw'
p1612
sg8
S'Mi Gente (feat. Beyonc\xc3\xa9)'
p1613
ssS'7of1slAJIWrXxP8ikAHxje'
p1614
(dp1615
g3
S'James Hersey'
p1616
sg5
I3
sg6
S'https://open.spotify.com/track/7of1slAJIWrXxP8ikAHxje'
p1617
sg8
S'Miss You'
p1618
ssS'28KYBZXnvRk560ty8mdVIQ'
p1619
(dp1620
g3
S'Foo Fighters'
p1621
sg5
I1
sg6
S'https://open.spotify.com/track/28KYBZXnvRk560ty8mdVIQ'
p1622
sg8
S'Run'
p1623
ssS'2yDIoGRF99SdAdepskhTsC'
p1624
(dp1625
g3
S'Gers Pardoel'
p1626
sg5
I21
sg6
S'https://open.spotify.com/track/2yDIoGRF99SdAdepskhTsC'
p1627
sg8
S'Boeng - Boom - Uit Liefde Voor Muziek'
p1628
ssS'3hRZsdTF5uyGA2uhNqEuhm'
p1629
(dp1630
g3
S'Niall Horan'
p1631
sg5
I4
sg6
S'https://open.spotify.com/track/3hRZsdTF5uyGA2uhNqEuhm'
p1632
sg8
S'Too Much To Ask'
p1633
ssS'2dfHh7ECGxfNqZTQno09Vk'
p1634
(dp1635
g3
S'Ed Sheeran'
p1636
sg5
I6
sg6
S'https://open.spotify.com/track/2dfHh7ECGxfNqZTQno09Vk'
p1637
sg8
S"Hearts Don't Break Around Here"
p1638
ssS'0JdKB06zZsPXmfvQVeJS35'
p1639
(dp1640
g3
S"Lil' Kleine"
p1641
sg5
I1
sg6
S'https://open.spotify.com/track/0JdKB06zZsPXmfvQVeJS35'
p1642
sg8
S'Loterij'
p1643
ssS'7gn0MfkV4ZuMkqbPlmhIlx'
p1644
(dp1645
g3
S'alt-J'
p1646
sg5
I1
sg6
S'https://open.spotify.com/track/7gn0MfkV4ZuMkqbPlmhIlx'
p1647
sg8
S'Deadcrush'
p1648
ssS'60rndNMhEUgIR3G1uhlDwg'
p1649
(dp1650
g3
S'Niska'
p1651
sg5
I3
sg6
S'https://open.spotify.com/track/60rndNMhEUgIR3G1uhlDwg'
p1652
sg8
S'La wewer'
p1653
ssS'6D0b04NJIKfEMg040WioJQ'
p1654
(dp1655
g3
S'Julia Michaels'
p1656
sg5
I2
sg6
S'https://open.spotify.com/track/6D0b04NJIKfEMg040WioJQ'
p1657
sg8
S'Issues'
p1658
ssS'4BwcvkALEWX18xXDgXSVb6'
p1659
(dp1660
g3
S'Niska'
p1661
sg5
I3
sg6
S'https://open.spotify.com/track/4BwcvkALEWX18xXDgXSVb6'
p1662
sg8
S'Amour X'
p1663
ssS'20I6sIOMTCkB6w7ryavxtO'
p1664
(dp1665
g3
S'Carly Rae Jepsen'
p1666
sg5
I1
sg6
S'https://open.spotify.com/track/20I6sIOMTCkB6w7ryavxtO'
p1667
sg8
S'Call Me Maybe'
p1668
ssS'3Q3myFA7q4Op95DOpHplaY'
p1669
(dp1670
g3
S'blackbear'
p1671
sg5
I7
sg6
S'https://open.spotify.com/track/3Q3myFA7q4Op95DOpHplaY'
p1672
sg8
S'do re mi'
p1673
ssS'7l9CE3wmEGOUYw1j4ETjnL'
p1674
(dp1675
g3
S'Gorillaz'
p1676
sg5
I2
sg6
S'https://open.spotify.com/track/7l9CE3wmEGOUYw1j4ETjnL'
p1677
sg8
S'Saturnz Barz (feat. Popcaan)'
p1678
ssS'5fc6rQgAKiLutfUYWQ6QnJ'
p1679
(dp1680
g3
S'Sia'
p1681
sg5
I9
sg6
S'https://open.spotify.com/track/5fc6rQgAKiLutfUYWQ6QnJ'
p1682
sg8
S'Helium - From Fifty Shades Darker (Original Motion Picture Soundtrack)'
p1683
ssS'0NiXXAI876aGImAd6rTj8w'
p1684
(dp1685
g3
S'Jonas Blue'
p1686
sg5
I14
sg6
S'https://open.spotify.com/track/0NiXXAI876aGImAd6rTj8w'
p1687
sg8
S'Mama'
p1688
ssS'343YBumqHu19cGoGARUTsd'
p1689
(dp1690
g3
S'Drake'
p1691
sg5
I25
sg6
S'https://open.spotify.com/track/343YBumqHu19cGoGARUTsd'
p1692
sg8
S'Fake Love'
p1693
ssS'5HDPtsnyb3maFmPL8LLUTG'
p1694
(dp1695
g3
S'Ed Sheeran'
p1696
sg5
I7
sg6
S'https://open.spotify.com/track/5HDPtsnyb3maFmPL8LLUTG'
p1697
sg8
S'New Man'
p1698
ssS'2S2od3hT7ceytw7d1pTRuE'
p1699
(dp1700
g3
S'Noah Cyrus'
p1701
sg5
I1
sg6
S'https://open.spotify.com/track/2S2od3hT7ceytw7d1pTRuE'
p1702
sg8
S'Again'
p1703
ssS'299lFlaAsNQdgbIZNPmIA0'
p1704
(dp1705
g3
S'Vince Guaraldi Trio'
p1706
sg5
I1
sg6
S'https://open.spotify.com/track/299lFlaAsNQdgbIZNPmIA0'
p1707
sg8
S'Christmas Time Is Here - Vocal'
p1708
ssS'3aLSrx8qhssXrh5yjB6oy9'
p1709
(dp1710
g3
S'Martin Solveig'
p1711
sg5
I9
sg6
S'https://open.spotify.com/track/3aLSrx8qhssXrh5yjB6oy9'
p1712
sg8
S'All Stars'
p1713
ssS'6WbADFqMvR8N5u0BvtsWQE'
p1714
(dp1715
g3
S'Avicii'
p1716
sg5
I9
sg6
S'https://open.spotify.com/track/6WbADFqMvR8N5u0BvtsWQE'
p1717
sg8
S'Without You (feat. Sandro Cavazza)'
p1718
ssS'75JFxkI2RXiU7L9VXzMkle'
p1719
(dp1720
g3
S'Coldplay'
p1721
sg5
I17
sg6
S'https://open.spotify.com/track/75JFxkI2RXiU7L9VXzMkle'
p1722
sg8
S'The Scientist'
p1723
ssS'4pdPtRcBmOSQDlJ3Fk945m'
p1724
(dp1725
g3
S'DJ Snake'
p1726
sg5
I37
sg6
S'https://open.spotify.com/track/4pdPtRcBmOSQDlJ3Fk945m'
p1727
sg8
S'Let Me Love You'
p1728
ssS'1oWQ8tQnoJTXQsn1Il2uMX'
p1729
(dp1730
g3
S'Dimitri Vegas & Like Mike'
p1731
sg5
I14
sg6
S'https://open.spotify.com/track/1oWQ8tQnoJTXQsn1Il2uMX'
p1732
sg8
S'Ready For Action - Radio Mix'
p1733
ssS'28co1mTCrGIGOeGzqLjSat'
p1734
(dp1735
g3
S'Lacrim'
p1736
sg5
I5
sg6
S'https://open.spotify.com/track/28co1mTCrGIGOeGzqLjSat'
p1737
sg8
S'Grande arm\xc3\xa9e'
p1738
ssS'5EnYT6F7wEcdege6mDHEfO'
p1739
(dp1740
g3
S'Drake'
p1741
sg5
I10
sg6
S'https://open.spotify.com/track/5EnYT6F7wEcdege6mDHEfO'
p1742
sg8
S'Signs'
p1743
ssS'7sDshqjhKiysLt5gcXYoLo'
p1744
(dp1745
g3
S'Bigflo & Oli'
p1746
sg5
I3
sg6
S'https://open.spotify.com/track/7sDshqjhKiysLt5gcXYoLo'
p1747
sg8
S'Dommage'
p1748
ssS'7w5qasfXTQByndpqaaTQEH'
p1749
(dp1750
g3
S'Curtis Alto'
p1751
sg5
I2
sg6
S'https://open.spotify.com/track/7w5qasfXTQByndpqaaTQEH'
p1752
sg8
S'You Might'
p1753
ssS'1OAiWI2oPmglaOiv9fdioU'
p1754
(dp1755
g3
S'Coldplay'
p1756
sg5
I10
sg6
S'https://open.spotify.com/track/1OAiWI2oPmglaOiv9fdioU'
p1757
sg8
S'Hymn For The Weekend - Seeb Remix'
p1758
ssS'7GikqtK826hJgqpcFU4sVM'
p1759
(dp1760
g3
S"Lil' Kleine"
p1761
sg5
I2
sg6
S'https://open.spotify.com/track/7GikqtK826hJgqpcFU4sVM'
p1762
sg8
S'Gemaakt Voor Dit'
p1763
ssS'7LEydI5NfjY6mZfKwYIptZ'
p1764
(dp1765
g3
S'Fifth Harmony'
p1766
sg5
I12
sg6
S'https://open.spotify.com/track/7LEydI5NfjY6mZfKwYIptZ'
p1767
sg8
S'Down'
p1768
ssS'2r0ECFc7nWPdRosmgo84pl'
p1769
(dp1770
g3
S'Mister V'
p1771
sg5
I1
sg6
S'https://open.spotify.com/track/2r0ECFc7nWPdRosmgo84pl'
p1772
sg8
S'Venice'
p1773
ssS'7y9iMe8SOB6z3NoHE2OfXl'
p1774
(dp1775
g3
S'Halsey'
p1776
sg5
I7
sg6
S'https://open.spotify.com/track/7y9iMe8SOB6z3NoHE2OfXl'
p1777
sg8
S'Bad At Love'
p1778
ssS'2Na0z2gfN67Rzf0vp74Wi3'
p1779
(dp1780
g3
S'Drake'
p1781
sg5
I1
sg6
S'https://open.spotify.com/track/2Na0z2gfN67Rzf0vp74Wi3'
p1782
sg8
S'Lose You'
p1783
ssS'3K4HG9evC7dg3N0R9cYqk4'
p1784
(dp1785
g3
S'Linkin Park'
p1786
sg5
I1
sg6
S'https://open.spotify.com/track/3K4HG9evC7dg3N0R9cYqk4'
p1787
sg8
S'One Step Closer'
p1788
ssS'2RCp9QBnFSxdKe8RD4xF8s'
p1789
(dp1790
g3
S'Gorillaz'
p1791
sg5
I1
sg6
S'https://open.spotify.com/track/2RCp9QBnFSxdKe8RD4xF8s'
p1792
sg8
S'Momentz (feat. De La Soul)'
p1793
ssS'5FbSvv0HzsnWLmblb2djf3'
p1794
(dp1795
g3
S'R. Kelly'
p1796
sg5
I1
sg6
S'https://open.spotify.com/track/5FbSvv0HzsnWLmblb2djf3'
p1797
sg8
S'World Christmas'
p1798
ssS'7oK9VyNzrYvRFo7nQEYkWN'
p1799
(dp1800
g3
S'The Killers'
p1801
sg5
I2
sg6
S'https://open.spotify.com/track/7oK9VyNzrYvRFo7nQEYkWN'
p1802
sg8
S'Mr. Brightside'
p1803
ssS'2Pu2Kcm1cwFg4dDSdmFip4'
p1804
(dp1805
g3
S'Niska'
p1806
sg5
I11
sg6
S'https://open.spotify.com/track/2Pu2Kcm1cwFg4dDSdmFip4'
p1807
sg8
S'R\xc3\xa9seaux'
p1808
ssS'5d4E871YLQjYkUtTYdvwpl'
p1809
(dp1810
g3
S'Soufiane Eddyani'
p1811
sg5
I2
sg6
S'https://open.spotify.com/track/5d4E871YLQjYkUtTYdvwpl'
p1812
sg8
S'Zina'
p1813
ssS'6K15vbGia4CiKLoqO6ANE9'
p1814
(dp1815
g3
S"Lil' Kleine"
p1816
sg5
I1
sg6
S'https://open.spotify.com/track/6K15vbGia4CiKLoqO6ANE9'
p1817
sg8
S'Jij & Ik'
p1818
ssS'5OOkp4U9P9oL23maHFHL1h'
p1819
(dp1820
g3
S'Desiigner'
p1821
sg5
I18
sg6
S'https://open.spotify.com/track/5OOkp4U9P9oL23maHFHL1h'
p1822
sg8
S'Panda'
p1823
ssS'3p4bezMTUHn0u1D8C1uJrz'
p1824
(dp1825
g3
S'Ninho'
p1826
sg5
I2
sg6
S'https://open.spotify.com/track/3p4bezMTUHn0u1D8C1uJrz'
p1827
sg8
S'Chino'
p1828
ssS'72Q0FQQo32KJloivv5xge2'
p1829
(dp1830
g3
S'DJ Khaled'
p1831
sg5
I3
sg6
S'https://open.spotify.com/track/72Q0FQQo32KJloivv5xge2'
p1832
sg8
S"I'm the One"
p1833
ssS'2xQIYUIQ4Hob10c5u8tVb7'
p1834
(dp1835
g3
S"Lil' Kleine"
p1836
sg5
I1
sg6
S'https://open.spotify.com/track/2xQIYUIQ4Hob10c5u8tVb7'
p1837
sg8
S'Liegen Voor Jou'
p1838
ssS'7y6c07pgjZvtHI9kuMVqk1'
p1839
(dp1840
g3
S'Drake'
p1841
sg5
I4
sg6
S'https://open.spotify.com/track/7y6c07pgjZvtHI9kuMVqk1'
p1842
sg8
S'Get It Together'
p1843
ssS'3ldfGgw7IoLHbaqmspX3ME'
p1844
(dp1845
g3
S'Ninho'
p1846
sg5
I5
sg6
S'https://open.spotify.com/track/3ldfGgw7IoLHbaqmspX3ME'
p1847
sg8
S"De l'autre c\xc3\xb4t\xc3\xa9 (feat. Nekfeu)"
p1848
ssS'3cFsmM51N5zMAuu1nNY4Tw'
p1849
(dp1850
g3
S'Sean Paul'
p1851
sg5
I15
sg6
S'https://open.spotify.com/track/3cFsmM51N5zMAuu1nNY4Tw'
p1852
sg8
S'No Lie'
p1853
ssS'69pRsGt2ZkevuMoqnRPGv8'
p1854
(dp1855
g3
S"Lil' Kleine"
p1856
sg5
I1
sg6
S'https://open.spotify.com/track/69pRsGt2ZkevuMoqnRPGv8'
p1857
sg8
S'Alleen'
p1858
ssS'79cuOz3SPQTuFrp8WgftAu'
p1859
(dp1860
g3
S'Shawn Mendes'
p1861
sg5
I25
sg6
S'https://open.spotify.com/track/79cuOz3SPQTuFrp8WgftAu'
p1862
sg8
S"There's Nothing Holdin' Me Back"
p1863
ssS'4c2W3VKsOFoIg2SFaO6DY5'
p1864
(dp1865
g3
S'Rita Ora'
p1866
sg5
I20
sg6
S'https://open.spotify.com/track/4c2W3VKsOFoIg2SFaO6DY5'
p1867
sg8
S'Your Song'
p1868
ssS'0lmdsH1MIoLsMymnNpd6HU'
p1869
(dp1870
g3
S'Dante Klein'
p1871
sg5
I6
sg6
S'https://open.spotify.com/track/0lmdsH1MIoLsMymnNpd6HU'
p1872
sg8
S'Let Me Hold You (Turn Me On)'
p1873
ssS'4ARPvK8DHLwt4oX65ZAFMw'
p1874
(dp1875
g3
S'XXXTENTACION'
p1876
sg5
I2
sg6
S'https://open.spotify.com/track/4ARPvK8DHLwt4oX65ZAFMw'
p1877
sg8
S'Look At Me!'
p1878
ssS'11hj8c8BCRd5ND3CRhZSvt'
p1879
(dp1880
g3
S'Nekfeu'
p1881
sg5
I7
sg6
S'https://open.spotify.com/track/11hj8c8BCRd5ND3CRhZSvt'
p1882
sg8
S'Squa'
p1883
ssS'51ChrwmUPDJvedPQnIU8Ls'
p1884
(dp1885
g3
S'Ed Sheeran'
p1886
sg5
I12
sg6
S'https://open.spotify.com/track/51ChrwmUPDJvedPQnIU8Ls'
p1887
sg8
S'Dive'
p1888
ssS'4Ln4KAwk37peyCh2QpqYnP'
p1889
(dp1890
g3
S'Ninho'
p1891
sg5
I5
sg6
S'https://open.spotify.com/track/4Ln4KAwk37peyCh2QpqYnP'
p1892
sg8
S'Rose'
p1893
ssS'3UjJP4ludb74a29P5EHEIo'
p1894
(dp1895
g3
S'Sabrina Carpenter'
p1896
sg5
I10
sg6
S'https://open.spotify.com/track/3UjJP4ludb74a29P5EHEIo'
p1897
sg8
S'Thumbs'
p1898
ssS'2xI4CmkT6Bl4s5b4qggcgU'
p1899
(dp1900
g3
S'Isaiah'
p1901
sg5
I1
sg6
S'https://open.spotify.com/track/2xI4CmkT6Bl4s5b4qggcgU'
p1902
sg8
S"Don't Come Easy"
p1903
ssS'4HJ3RCdktBHvejYUP70Fh0'
p1904
(dp1905
g3
S'DJ Licious'
p1906
sg5
I1
sg6
S'https://open.spotify.com/track/4HJ3RCdktBHvejYUP70Fh0'
p1907
sg8
S'I Hear You Calling'
p1908
ssS'3eR23VReFzcdmS7TYCrhCe'
p1909
(dp1910
g3
S'Kygo'
p1911
sg5
I33
sg6
S'https://open.spotify.com/track/3eR23VReFzcdmS7TYCrhCe'
p1912
sg8
S"It Ain't Me (with Selena Gomez)"
p1913
ssS'5NbMimOzRykGsE1tVHDtKV'
p1914
(dp1915
g3
S'Queens of the Stone Age'
p1916
sg5
I1
sg6
S'https://open.spotify.com/track/5NbMimOzRykGsE1tVHDtKV'
p1917
sg8
S'Domesticated Animals'
p1918
ssS'5Xc74Dn1ZKH6H8XaVGOHXG'
p1919
(dp1920
g3
S'Disciples'
p1921
sg5
I20
sg6
S'https://open.spotify.com/track/5Xc74Dn1ZKH6H8XaVGOHXG'
p1922
sg8
S'On My Mind'
p1923
ssS'0zMzyHAeMvwq5CRstru1Fp'
p1924
(dp1925
g3
S'Ruth B.'
p1926
sg5
I5
sg6
S'https://open.spotify.com/track/0zMzyHAeMvwq5CRstru1Fp'
p1927
sg8
S'Lost Boy'
p1928
ssS'4dN4THqbmDUY9RGao4pcu8'
p1929
(dp1930
g3
S'Soulwax'
p1931
sg5
I1
sg6
S'https://open.spotify.com/track/4dN4THqbmDUY9RGao4pcu8'
p1932
sg8
S'Missing Wires'
p1933
ssS'6jA8HL9i4QGzsj6fjoxp8Y'
p1934
(dp1935
g3
S'Martin Garrix'
p1936
sg5
I20
sg6
S'https://open.spotify.com/track/6jA8HL9i4QGzsj6fjoxp8Y'
p1937
sg8
S'There for You'
p1938
ssS'4ksAbWG96D1yaQ0onQNlb5'
p1939
(dp1940
g3
S'Lacrim'
p1941
sg5
I2
sg6
S'https://open.spotify.com/track/4ksAbWG96D1yaQ0onQNlb5'
p1942
sg8
S'Colonel Carrillo'
p1943
ssS'1MUxJxub6ovS0rzTHRgyoF'
p1944
(dp1945
g3
S'MHD'
p1946
sg5
I9
sg6
S'https://open.spotify.com/track/1MUxJxub6ovS0rzTHRgyoF'
p1947
sg8
S'Afro Trap Pt. 8 (Never)'
p1948
ssS'1AhDOtG9vPSOmsWgNW0BEY'
p1949
(dp1950
g3
S'Queen'
p1951
sg5
I2
sg6
S'https://open.spotify.com/track/1AhDOtG9vPSOmsWgNW0BEY'
p1952
sg8
S'Bohemian Rhapsody - Remastered 2011'
p1953
ssS'5bZtRlMBU76vHuDOb1GM5u'
p1954
(dp1955
g3
S'Jonas Blue'
p1956
sg5
I7
sg6
S'https://open.spotify.com/track/5bZtRlMBU76vHuDOb1GM5u'
p1957
sg8
S'Perfect Strangers'
p1958
ssS'0Zbbxnx4SGGHoIow4PpISP'
p1959
(dp1960
g3
S'Kygo'
p1961
sg5
I3
sg6
S'https://open.spotify.com/track/0Zbbxnx4SGGHoIow4PpISP'
p1962
sg8
S'Stargazing'
p1963
ssS'0bWzmIbEKh0xFRb1pTSQAw'
p1964
(dp1965
g3
S'Ronnie Flex'
p1966
sg5
I18
sg6
S'https://open.spotify.com/track/0bWzmIbEKh0xFRb1pTSQAw'
p1967
sg8
S'Come Again'
p1968
ssS'6TIU9Ehmi6dMzZK73Ym4yj'
p1969
(dp1970
g3
S'Ed Sheeran'
p1971
sg5
I5
sg6
S'https://open.spotify.com/track/6TIU9Ehmi6dMzZK73Ym4yj'
p1972
sg8
S'Save Myself'
p1973
ssS'3B23etXBXxq1aCmFB8dby9'
p1974
(dp1975
g3
S'Kraantje Pappie'
p1976
sg5
I34
sg6
S'https://open.spotify.com/track/3B23etXBXxq1aCmFB8dby9'
p1977
sg8
S'Pompen'
p1978
ssS'7taXf5odg9xCAZERYfyOkS'
p1979
(dp1980
g3
S'Jos\xc3\xa9 Feliciano'
p1981
sg5
I1
sg6
S'https://open.spotify.com/track/7taXf5odg9xCAZERYfyOkS'
p1982
sg8
S'Feliz Navidad'
p1983
ssS'13e6f8t7RKXuxZ0JdaaJRG'
p1984
(dp1985
g3
S'Drake'
p1986
sg5
I2
sg6
S'https://open.spotify.com/track/13e6f8t7RKXuxZ0JdaaJRG'
p1987
sg8
S'Jorja Interlude'
p1988
ssS'5yjEDJNnBbHU3TLAiPvwJs'
p1989
(dp1990
g3
S'Clouseau'
p1991
sg5
I7
sg6
S'https://open.spotify.com/track/5yjEDJNnBbHU3TLAiPvwJs'
p1992
sg8
S'Ik Wil Je Terug (Uit Liefde Voor Muziek)'
p1993
ssS'260azNxQzQIloG7OpjQtTC'
p1994
(dp1995
g3
S"Lil' Kleine"
p1996
sg5
I15
sg6
S'https://open.spotify.com/track/260azNxQzQIloG7OpjQtTC'
p1997
sg8
S'Loterij'
p1998
ssS'1VDFn1PCpp8EOXLMURS8kP'
p1999
(dp2000
g3
S"Lil' Kleine"
p2001
sg5
I22
sg6
S'https://open.spotify.com/track/1VDFn1PCpp8EOXLMURS8kP'
p2002
sg8
S'Alleen'
p2003
ssS'6fowps7eXfuZUjSfrp2AlQ'
p2004
(dp2005
g3
S'Niska'
p2006
sg5
I3
sg6
S'https://open.spotify.com/track/6fowps7eXfuZUjSfrp2AlQ'
p2007
sg8
S"Twerk dans l'binks"
p2008
ssS'2Vd1vVQaBilW0O6nmU5BkH'
p2009
(dp2010
g3
S'Vianney'
p2011
sg5
I15
sg6
S'https://open.spotify.com/track/2Vd1vVQaBilW0O6nmU5BkH'
p2012
sg8
S"Je m'en vais"
p2013
ssS'2mfUa8bLs2s5N4VaqJZ4lZ'
p2014
(dp2015
g3
S'Hailee Steinfeld'
p2016
sg5
I18
sg6
S'https://open.spotify.com/track/2mfUa8bLs2s5N4VaqJZ4lZ'
p2017
sg8
S'Most Girls'
p2018
ssS'0cqRj7pUJDkTCEsJkx8snD'
p2019
(dp2020
g3
S'Taylor Swift'
p2021
sg5
I1
sg6
S'https://open.spotify.com/track/0cqRj7pUJDkTCEsJkx8snD'
p2022
sg8
S'Shake It Off'
p2023
ssS'7floNISpH8VF4z4459Qo18'
p2024
(dp2025
g3
S'XXXTENTACION'
p2026
sg5
I1
sg6
S'https://open.spotify.com/track/7floNISpH8VF4z4459Qo18'
p2027
sg8
S'Look At Me!'
p2028
ssS'4aWmUDTfIPGksMNLV2rQP2'
p2029
(dp2030
g3
S'Luis Fonsi'
p2031
sg5
I38
sg6
S'https://open.spotify.com/track/4aWmUDTfIPGksMNLV2rQP2'
p2032
sg8
S'Despacito (Featuring Daddy Yankee)'
p2033
ssS'58zsLZPvfflaiIbNWoA22O'
p2034
(dp2035
g3
S"Rag'n'Bone Man"
p2036
sg5
I40
sg6
S'https://open.spotify.com/track/58zsLZPvfflaiIbNWoA22O'
p2037
sg8
S'Human'
p2038
ssS'6JMdhGfyz9C4kA4mTc6y9C'
p2039
(dp2040
g3
S'SCH'
p2041
sg5
I2
sg6
S'https://open.spotify.com/track/6JMdhGfyz9C4kA4mTc6y9C'
p2042
sg8
S'Comme si'
p2043
ssS'5dKyZWlgjWw1oJgLa4GCZD'
p2044
(dp2045
g3
S'Tove Lo'
p2046
sg5
I1
sg6
S'https://open.spotify.com/track/5dKyZWlgjWw1oJgLa4GCZD'
p2047
sg8
S'Cool Girl'
p2048
ssS'60APt5N2NRaKWf5xzJdzyC'
p2049
(dp2050
g3
S'Calvin Harris'
p2051
sg5
I7
sg6
S'https://open.spotify.com/track/60APt5N2NRaKWf5xzJdzyC'
p2052
sg8
S'Heatstroke'
p2053
ssS'1g1RmSl6D0I6m6MEtDvxYn'
p2054
(dp2055
g3
S'Arcade Fire'
p2056
sg5
I1
sg6
S'https://open.spotify.com/track/1g1RmSl6D0I6m6MEtDvxYn'
p2057
sg8
S'Signs of Life'
p2058
ssS'25C5CowdsfXld2jJanbiex'
p2059
(dp2060
g3
S'Demi Lovato'
p2061
sg5
I11
sg6
S'https://open.spotify.com/track/25C5CowdsfXld2jJanbiex'
p2062
sg8
S'Sorry Not Sorry'
p2063
ssS'36hJijGKl67dsUof8JiwbC'
p2064
(dp2065
g3
S"Lil' Kleine"
p2066
sg5
I12
sg6
S'https://open.spotify.com/track/36hJijGKl67dsUof8JiwbC'
p2067
sg8
S'Volume'
p2068
ssS'4SJV1vSExjyi70x0UV0ZBX'
p2069
(dp2070
g3
S'Double Pleasure'
p2071
sg5
I12
sg6
S'https://open.spotify.com/track/4SJV1vSExjyi70x0UV0ZBX'
p2072
sg8
S'Tucan'
p2073
ssS'1riPE3NCV1OBmSXqpYiMJY'
p2074
(dp2075
g3
S'Ronnie Flex'
p2076
sg5
I26
sg6
S'https://open.spotify.com/track/1riPE3NCV1OBmSXqpYiMJY'
p2077
sg8
S'Energie'
p2078
ssS'3PiDnD8RhPrlmzMpAgF9xK'
p2079
(dp2080
g3
S'Boef'
p2081
sg5
I30
sg6
S'https://open.spotify.com/track/3PiDnD8RhPrlmzMpAgF9xK'
p2082
sg8
S'Slapend Rijk'
p2083
ssS'6nGSXuZrE5P7gSvtJs4unC'
p2084
(dp2085
g3
S'Damso'
p2086
sg5
I9
sg6
S'https://open.spotify.com/track/6nGSXuZrE5P7gSvtJs4unC'
p2087
sg8
S'\xce\x9a. Kin la belle'
p2088
ssS'1E3zyoTHtJzsu5CjwIFIhY'
p2089
(dp2090
g3
S'Damso'
p2091
sg5
I24
sg6
S'https://open.spotify.com/track/1E3zyoTHtJzsu5CjwIFIhY'
p2092
sg8
S'\xce\x93. Mosa\xc3\xafque solitaire'
p2093
ssS'6JV2JOEocMgcZxYSZelKcc'
p2094
(dp2095
g3
S'Justin Timberlake'
p2096
sg5
I40
sg6
S'https://open.spotify.com/track/6JV2JOEocMgcZxYSZelKcc'
p2097
sg8
S"CAN'T STOP THE FEELING! (Original Song from DreamWorks Animation's TROLLS)"
p2098
ssS'4rrzxq356QDANDVd0SB1Dq'
p2099
(dp2100
g3
S'Mister V'
p2101
sg5
I2
sg6
S'https://open.spotify.com/track/4rrzxq356QDANDVd0SB1Dq'
p2102
sg8
S'Top album'
p2103
ssS'05KOgYg8PGeJyyWBPi5ja8'
p2104
(dp2105
g3
S'Drake'
p2106
sg5
I4
sg6
S'https://open.spotify.com/track/05KOgYg8PGeJyyWBPi5ja8'
p2107
sg8
S'Free Smoke'
p2108
ssS'6De0lHrwBfPfrhorm9q1Xl'
p2109
(dp2110
g3
S'Danny Ocean'
p2111
sg5
I21
sg6
S'https://open.spotify.com/track/6De0lHrwBfPfrhorm9q1Xl'
p2112
sg8
S'Me Reh\xc3\xbaso'
p2113
ssS'1Fv767CH5YFrjo6HwzHnpR'
p2114
(dp2115
g3
S'Ninho'
p2116
sg5
I2
sg6
S'https://open.spotify.com/track/1Fv767CH5YFrjo6HwzHnpR'
p2117
sg8
S'Laisse pas tra\xc3\xaener ton fils (feat. Sofiane)'
p2118
ssS'7aV2mflaASUmGhCErm7kBO'
p2119
(dp2120
g3
S'Nevada'
p2121
sg5
I8
sg6
S'https://open.spotify.com/track/7aV2mflaASUmGhCErm7kBO'
p2122
sg8
S'The Mack'
p2123
ssS'20H2Hd5AkUcRjB4yL3UQtJ'
p2124
(dp2125
g3
S'Fifth Harmony'
p2126
sg5
I3
sg6
S'https://open.spotify.com/track/20H2Hd5AkUcRjB4yL3UQtJ'
p2127
sg8
S'Down'
p2128
ssS'2h5CXy8Pme1lTY3CUAEI1i'
p2129
(dp2130
g3
S'The War On Drugs'
p2131
sg5
I1
sg6
S'https://open.spotify.com/track/2h5CXy8Pme1lTY3CUAEI1i'
p2132
sg8
S'Holding On'
p2133
ssS'0bYg9bo50gSsH3LtXe2SQn'
p2134
(dp2135
g3
S'Mariah Carey'
p2136
sg5
I2
sg6
S'https://open.spotify.com/track/0bYg9bo50gSsH3LtXe2SQn'
p2137
sg8
S'All I Want for Christmas Is You'
p2138
ssS'2nYwV62UABTH0NanrwVIdQ'
p2139
(dp2140
g3
S'Rae Sremmurd'
p2141
sg5
I2
sg6
S'https://open.spotify.com/track/2nYwV62UABTH0NanrwVIdQ'
p2142
sg8
S'Perplexing Pegasus'
p2143
ssS'3rOSwuTsUlJp0Pu0MkN8r8'
p2144
(dp2145
g3
S'Future'
p2146
sg5
I34
sg6
S'https://open.spotify.com/track/3rOSwuTsUlJp0Pu0MkN8r8'
p2147
sg8
S'Mask Off'
p2148
ssS'5wbELbOJDwV9tU1wZYJdkz'
p2149
(dp2150
g3
S'Boef'
p2151
sg5
I6
sg6
S'https://open.spotify.com/track/5wbELbOJDwV9tU1wZYJdkz'
p2152
sg8
S'Slecht Blijft (Bonus)'
p2153
ssS'1qOLh0tI7trd1zdDKxYZTe'
p2154
(dp2155
g3
S'Hailee Steinfeld'
p2156
sg5
I30
sg6
S'https://open.spotify.com/track/1qOLh0tI7trd1zdDKxYZTe'
p2157
sg8
S'Starving'
p2158
ssS'2KiHXiqQA2dHiLfeSxtTeP'
p2159
(dp2160
g3
S'KeBlack'
p2161
sg5
I11
sg6
S'https://open.spotify.com/track/2KiHXiqQA2dHiLfeSxtTeP'
p2162
sg8
S'Bazard\xc3\xa9e'
p2163
ssS'3AqwdLkl62kRTE8TwXxeIM'
p2164
(dp2165
g3
S'Ninho'
p2166
sg5
I2
sg6
S'https://open.spotify.com/track/3AqwdLkl62kRTE8TwXxeIM'
p2167
sg8
S'Comme pr\xc3\xa9vu'
p2168
ssS'3HVr6jTVwBHBa2flM0eURR'
p2169
(dp2170
g3
S'Macklemore'
p2171
sg5
I12
sg6
S'https://open.spotify.com/track/3HVr6jTVwBHBa2flM0eURR'
p2172
sg8
S'Glorious (feat. Skylar Grey)'
p2173
ssS'7inXu0Eaeg02VsM8kHNvzM'
p2174
(dp2175
g3
S'Frank Sinatra'
p2176
sg5
I1
sg6
S'https://open.spotify.com/track/7inXu0Eaeg02VsM8kHNvzM'
p2177
sg8
S'Let It Snow! Let It Snow! Let It Snow!'
p2178
ssS'33dLYyEIRqEipCuLb8z1l0'
p2179
(dp2180
g3
S'Lacrim'
p2181
sg5
I1
sg6
S'https://open.spotify.com/track/33dLYyEIRqEipCuLb8z1l0'
p2182
sg8
S'La dolce vita'
p2183
ssS'0JiVRyTJcJnmlwCZ854K4p'
p2184
(dp2185
g3
S'Alan Walker'
p2186
sg5
I21
sg6
S'https://open.spotify.com/track/0JiVRyTJcJnmlwCZ854K4p'
p2187
sg8
S'Alone'
p2188
ssS'1cG0umU5TKStygKsPFZ9pY'
p2189
(dp2190
g3
S'Robin Schulz'
p2191
sg5
I40
sg6
S'https://open.spotify.com/track/1cG0umU5TKStygKsPFZ9pY'
p2192
sg8
S'Shed a Light'
p2193
ssS'6520aj0B4FSKGVuKNsOCOi'
p2194
(dp2195
g3
S'Katy Perry'
p2196
sg5
I21
sg6
S'https://open.spotify.com/track/6520aj0B4FSKGVuKNsOCOi'
p2197
sg8
S'Chained To The Rhythm'
p2198
ssS'3caMfJGFp53NAH2TuigdNj'
p2199
(dp2200
g3
S'Galantis'
p2201
sg5
I18
sg6
S'https://open.spotify.com/track/3caMfJGFp53NAH2TuigdNj'
p2202
sg8
S'Hunter'
p2203
ssS'6EpRaXYhGOB3fj4V2uDkMJ'
p2204
(dp2205
g3
S'Liam Payne'
p2206
sg5
I21
sg6
S'https://open.spotify.com/track/6EpRaXYhGOB3fj4V2uDkMJ'
p2207
sg8
S'Strip That Down'
p2208
ssS'5ChkMS8OtdzJeqyybCc9R5'
p2209
(dp2210
g3
S'Michael Jackson'
p2211
sg5
I2
sg6
S'https://open.spotify.com/track/5ChkMS8OtdzJeqyybCc9R5'
p2212
sg8
S'Billie Jean'
p2213
ssS'3Db8OhBMmNPLv2rHYoP7Wf'
p2214
(dp2215
g3
S'John Gibbons'
p2216
sg5
I4
sg6
S'https://open.spotify.com/track/3Db8OhBMmNPLv2rHYoP7Wf'
p2217
sg8
S'P.Y.T. (Pretty Young Thing)'
p2218
ssS'1wjzFQodRWrPcQ0AnYnvQ9'
p2219
(dp2220
g3
S'Lauv'
p2221
sg5
I19
sg6
S'https://open.spotify.com/track/1wjzFQodRWrPcQ0AnYnvQ9'
p2222
sg8
S'I Like Me Better'
p2223
ssS'4O4xuKdvJvl7HpFlYGwudS'
p2224
(dp2225
g3
S'The xx'
p2226
sg5
I2
sg6
S'https://open.spotify.com/track/4O4xuKdvJvl7HpFlYGwudS'
p2227
sg8
S'Replica'
p2228
ssS'4PdJSsESm34djLfBde9Pr2'
p2229
(dp2230
g3
S'David Guetta'
p2231
sg5
I1
sg6
S'https://open.spotify.com/track/4PdJSsESm34djLfBde9Pr2'
p2232
sg8
S'Would I Lie To You - Radio Edit'
p2233
ssS'35gJuqfvrdlCA2MmAtaD3J'
p2234
(dp2235
g3
S'Ninho'
p2236
sg5
I5
sg6
S'https://open.spotify.com/track/35gJuqfvrdlCA2MmAtaD3J'
p2237
sg8
S'Mamacita'
p2238
ssS'7iDa6hUg2VgEL1o1HjmfBn'
p2239
(dp2240
g3
S'Bebe Rexha'
p2241
sg5
I4
sg6
S'https://open.spotify.com/track/7iDa6hUg2VgEL1o1HjmfBn'
p2242
sg8
S'Meant to Be (feat. Florida Georgia Line)'
p2243
ssS'1gI6FedOWXQ7aSj4FfEiGK'
p2244
(dp2245
g3
S'Niska'
p2246
sg5
I3
sg6
S'https://open.spotify.com/track/1gI6FedOWXQ7aSj4FfEiGK'
p2247
sg8
S'Medell\xc3\xadn'
p2248
ssS'7abpmGpF7PGep2rDU68GBR'
p2249
(dp2250
g3
S'Burak Yeter'
p2251
sg5
I30
sg6
S'https://open.spotify.com/track/7abpmGpF7PGep2rDU68GBR'
p2252
sg8
S'Tuesday'
p2253
ssS'2uFaJJtFpPDc5Pa95XzTvg'
p2254
(dp2255
g3
S'Dean Martin'
p2256
sg5
I1
sg6
S'https://open.spotify.com/track/2uFaJJtFpPDc5Pa95XzTvg'
p2257
sg8
S'Let It Snow! Let It Snow! Let It Snow!'
p2258
ssS'4GUyhTID6mBssYE4nz3DG1'
p2259
(dp2260
g3
S'Boef'
p2261
sg5
I6
sg6
S'https://open.spotify.com/track/4GUyhTID6mBssYE4nz3DG1'
p2262
sg8
S'Speciaal'
p2263
ssS'2gDV65ofr1HA7iJPWnsXxs'
p2264
(dp2265
g3
S"Lil' Kleine"
p2266
sg5
I1
sg6
S'https://open.spotify.com/track/2gDV65ofr1HA7iJPWnsXxs'
p2267
sg8
S'Vliegtuig'
p2268
ssS'0qYTZCo5Bwh1nsUFGZP3zn'
p2269
(dp2270
g3
S'Maluma'
p2271
sg5
I21
sg6
S'https://open.spotify.com/track/0qYTZCo5Bwh1nsUFGZP3zn'
p2272
sg8
S'Felices los 4'
p2273
ssS'03aduXwm6cTqO9bb4XFQ2b'
p2274
(dp2275
g3
S'Damso'
p2276
sg5
I24
sg6
S'https://open.spotify.com/track/03aduXwm6cTqO9bb4XFQ2b'
p2277
sg8
S'\xce\x95. Signaler'
p2278
ssS'3GPI7hYiqD6enLRobhkBm8'
p2279
(dp2280
g3
S'ItaloBrothers'
p2281
sg5
I14
sg6
S'https://open.spotify.com/track/3GPI7hYiqD6enLRobhkBm8'
p2282
sg8
S'Summer Air'
p2283
ssS'1KqvRRQd3lfM0pAlkGPrgD'
p2284
(dp2285
g3
S'Ed Sheeran'
p2286
sg5
I1
sg6
S'https://open.spotify.com/track/1KqvRRQd3lfM0pAlkGPrgD'
p2287
sg8
S'Shape of You (Major Lazer Remix) [feat. Nyla & Kranium]'
p2288
ssS'2XMTqoHHSH0lvuXrvIEdco'
p2289
(dp2290
g3
S'FRENSHIP'
p2291
sg5
I15
sg6
S'https://open.spotify.com/track/2XMTqoHHSH0lvuXrvIEdco'
p2292
sg8
S'Capsize'
p2293
ssS'5MFzQMkrl1FOOng9tq6R9r'
p2294
(dp2295
g3
S'Maroon 5'
p2296
sg5
I20
sg6
S'https://open.spotify.com/track/5MFzQMkrl1FOOng9tq6R9r'
p2297
sg8
S"Don't Wanna Know"
p2298
ssS'5Z3GHaZ6ec9bsiI5BenrbY'
p2299
(dp2300
g3
S'Khalid'
p2301
sg5
I14
sg6
S'https://open.spotify.com/track/5Z3GHaZ6ec9bsiI5BenrbY'
p2302
sg8
S'Young Dumb & Broke'
p2303
ssS'0lkQfsTMmtDA37tjjew9n0'
p2304
(dp2305
g3
S'PNL'
p2306
sg5
I4
sg6
S'https://open.spotify.com/track/0lkQfsTMmtDA37tjjew9n0'
p2307
sg8
S'Naha'
p2308
ssS'1e817MPGhdAlN7hyXgWoA5'
p2309
(dp2310
g3
S'Oscar and the Wolf'
p2311
sg5
I2
sg6
S'https://open.spotify.com/track/1e817MPGhdAlN7hyXgWoA5'
p2312
sg8
S'Runaway'
p2313
ssS'4vEaXY95aExfle99vJgXzU'
p2314
(dp2315
g3
S'Hornet La Frappe'
p2316
sg5
I2
sg6
S'https://open.spotify.com/track/4vEaXY95aExfle99vJgXzU'
p2317
sg8
S'Je pense \xc3\xa0 toi'
p2318
ssS'3FDrI0FLKzrYQiWxPhqV2W'
p2319
(dp2320
g3
S'Calvin Harris'
p2321
sg5
I4
sg6
S'https://open.spotify.com/track/3FDrI0FLKzrYQiWxPhqV2W'
p2322
sg8
S'Rollin'
p2323
ssS'0VYKnG61teH9SpMqE3WBM8'
p2324
(dp2325
g3
S'Boef'
p2326
sg5
I6
sg6
S'https://open.spotify.com/track/0VYKnG61teH9SpMqE3WBM8'
p2327
sg8
S'Wie Praat Die Gaat'
p2328
ssS'4fuhLKAuSxRY5OO2hwARlY'
p2329
(dp2330
g3
S'Ninho'
p2331
sg5
I5
sg6
S'https://open.spotify.com/track/4fuhLKAuSxRY5OO2hwARlY'
p2332
sg8
S'Caramelo'
p2333
ssS'7Kq16WtEJzdRSNQgdXsn7Y'
p2334
(dp2335
g3
S'Mura Masa'
p2336
sg5
I2
sg6
S'https://open.spotify.com/track/7Kq16WtEJzdRSNQgdXsn7Y'
p2337
sg8
S'Love$ick (feat. A$AP Rocky)'
p2338
ssS'7LQtFOR1rnk9T8cKtByX7k'
p2339
(dp2340
g3
S'Boef'
p2341
sg5
I23
sg6
S'https://open.spotify.com/track/7LQtFOR1rnk9T8cKtByX7k'
p2342
sg8
S'Ik Ga Weg'
p2343
ssS'1WP1r7fuvRqZRnUaTi2I1Q'
p2344
(dp2345
g3
S'Shawn Mendes'
p2346
sg5
I6
sg6
S'https://open.spotify.com/track/1WP1r7fuvRqZRnUaTi2I1Q'
p2347
sg8
S'Stitches'
p2348
ssS'6Nm0PIjQHqW8OxQlNB2ze9'
p2349
(dp2350
g3
S'Sondr'
p2351
sg5
I1
sg6
S'https://open.spotify.com/track/6Nm0PIjQHqW8OxQlNB2ze9'
p2352
sg8
S'Live Love Learn'
p2353
ssS'7wlOhy1jqGtCinBYOhd7z8'
p2354
(dp2355
g3
S"Lil' Kleine"
p2356
sg5
I1
sg6
S'https://open.spotify.com/track/7wlOhy1jqGtCinBYOhd7z8'
p2357
sg8
S'Laat Me'
p2358
ssS'32OlwWuMpZ6b0aN2RZOeMS'
p2359
(dp2360
g3
S'Mark Ronson'
p2361
sg5
I1
sg6
S'https://open.spotify.com/track/32OlwWuMpZ6b0aN2RZOeMS'
p2362
sg8
S'Uptown Funk'
p2363
ssS'1jYiIOC5d6soxkJP81fxq2'
p2364
(dp2365
g3
S'DJ Khaled'
p2366
sg5
I1
sg6
S'https://open.spotify.com/track/1jYiIOC5d6soxkJP81fxq2'
p2367
sg8
S"I'm the One"
p2368
ssS'00wxIcA1PPbqEzATkHT4e1'
p2369
(dp2370
g3
S'Francesco Gabbani'
p2371
sg5
I1
sg6
S'https://open.spotify.com/track/00wxIcA1PPbqEzATkHT4e1'
p2372
sg8
S"Occidentali's Karma - Radio Edit"
p2373
ssS'0IqKeD8ZSP72KbGYyzEcAs'
p2374
(dp2375
g3
S'Hozier'
p2376
sg5
I18
sg6
S'https://open.spotify.com/track/0IqKeD8ZSP72KbGYyzEcAs'
p2377
sg8
S'Take Me To Church'
p2378
ssS'2jTujnt0y344ai1rNOywgr'
p2379
(dp2380
g3
S'Drake'
p2381
sg5
I2
sg6
S'https://open.spotify.com/track/2jTujnt0y344ai1rNOywgr'
p2382
sg8
S'KMT'
p2383
ssS'6pVW5LRWgeLaHudxauOTJU'
p2384
(dp2385
g3
S'Daryl Hall & John Oates'
p2386
sg5
I1
sg6
S'https://open.spotify.com/track/6pVW5LRWgeLaHudxauOTJU'
p2387
sg8
S'Jingle Bell Rock from Daryl'
p2388
ssS'4wGLLGgnMtd5zGDUmdS2tY'
p2389
(dp2390
g3
S'SFB'
p2391
sg5
I1
sg6
S'https://open.spotify.com/track/4wGLLGgnMtd5zGDUmdS2tY'
p2392
sg8
S'Way It Goes'
p2393
ssS'1mea3bSkSGXuIRvnydlB5b'
p2394
(dp2395
g3
S'Coldplay'
p2396
sg5
I5
sg6
S'https://open.spotify.com/track/1mea3bSkSGXuIRvnydlB5b'
p2397
sg8
S'Viva La Vida'
p2398
ssS'6gBFPUFcJLzWGx4lenP6h2'
p2399
(dp2400
g3
S'Travis Scott'
p2401
sg5
I17
sg6
S'https://open.spotify.com/track/6gBFPUFcJLzWGx4lenP6h2'
p2402
sg8
S'goosebumps'
p2403
ssS'7zgqtptZvhf8GEmdsM2vp2'
p2404
(dp2405
g3
S'Taylor Swift'
p2406
sg5
I1
sg6
S'https://open.spotify.com/track/7zgqtptZvhf8GEmdsM2vp2'
p2407
sg8
S'...Ready For It?'
p2408
ssS'6DB2KOEwHnjkgEnBt5SdeJ'
p2409
(dp2410
g3
S'Future'
p2411
sg5
I3
sg6
S'https://open.spotify.com/track/6DB2KOEwHnjkgEnBt5SdeJ'
p2412
sg8
S'Mask Off - Remix'
p2413
ssS'2374M0fQpWi3dLnB54qaLX'
p2414
(dp2415
g3
S'Toto'
p2416
sg5
I3
sg6
S'https://open.spotify.com/track/2374M0fQpWi3dLnB54qaLX'
p2417
sg8
S'Africa'
p2418
ssS'0iRf0UTth80CIlXxSLoKSa'
p2419
(dp2420
g3
S'Oscar and the Wolf'
p2421
sg5
I2
sg6
S'https://open.spotify.com/track/0iRf0UTth80CIlXxSLoKSa'
p2422
sg8
S'Breathing'
p2423
ssS'7AQim7LbvFVZJE3O8TYgf2'
p2424
(dp2425
g3
S'XXXTENTACION'
p2426
sg5
I5
sg6
S'https://open.spotify.com/track/7AQim7LbvFVZJE3O8TYgf2'
p2427
sg8
S'Fuck Love (feat. Trippie Redd)'
p2428
ssS'7vFoFDWqTX0mHzLfrF1Cfy'
p2429
(dp2430
g3
S'OMI'
p2431
sg5
I2
sg6
S'https://open.spotify.com/track/7vFoFDWqTX0mHzLfrF1Cfy'
p2432
sg8
S'Cheerleader - Felix Jaehn Remix Radio Edit'
p2433
ssS'6v3xCVgM73PGb0JIlF264a'
p2434
(dp2435
g3
S'Bee Gees'
p2436
sg5
I1
sg6
S'https://open.spotify.com/track/6v3xCVgM73PGb0JIlF264a'
p2437
sg8
S"Stayin' Alive"
p2438
ssS'7jygHjEkj18EeZGn7CbX30'
p2439
(dp2440
g3
S"Lil' Kleine"
p2441
sg5
I1
sg6
S'https://open.spotify.com/track/7jygHjEkj18EeZGn7CbX30'
p2442
sg8
S'Kleine Jongen'
p2443
ssS'0Nhu3zSYbEz32IYiobV75e'
p2444
(dp2445
g3
S'Halsey'
p2446
sg5
I10
sg6
S'https://open.spotify.com/track/0Nhu3zSYbEz32IYiobV75e'
p2447
sg8
S'Now Or Never'
p2448
ssS'6eUncuJutsFi9BGO1JaBHh'
p2449
(dp2450
g3
S'Jason Derulo'
p2451
sg5
I6
sg6
S'https://open.spotify.com/track/6eUncuJutsFi9BGO1JaBHh'
p2452
sg8
S"If I'm Lucky"
p2453
ssS'7s25THrKz86DM225dOYwnr'
p2454
(dp2455
g3
S'Aretha Franklin'
p2456
sg5
I1
sg6
S'https://open.spotify.com/track/7s25THrKz86DM225dOYwnr'
p2457
sg8
S'Respect'
p2458
ssS'31MkGwj0SWgZaTvEt5Hgxv'
p2459
(dp2460
g3
S'P!nk'
p2461
sg5
I9
sg6
S'https://open.spotify.com/track/31MkGwj0SWgZaTvEt5Hgxv'
p2462
sg8
S'What About Us'
p2463
ssS'60a0Rd6pjrkxjPbaKzXjfq'
p2464
(dp2465
g3
S'Linkin Park'
p2466
sg5
I12
sg6
S'https://open.spotify.com/track/60a0Rd6pjrkxjPbaKzXjfq'
p2467
sg8
S'In The End'
p2468
ssS'3pC1ILr9KzmQLMe8Kn5QBG'
p2469
(dp2470
g3
S'DJ Khaled'
p2471
sg5
I1
sg6
S'https://open.spotify.com/track/3pC1ILr9KzmQLMe8Kn5QBG'
p2472
sg8
S'To the Max'
p2473
ssS'0V9cosR5jWa4fr2koARmhD'
p2474
(dp2475
g3
S'ItaloBrothers'
p2476
sg5
I5
sg6
S'https://open.spotify.com/track/0V9cosR5jWa4fr2koARmhD'
p2477
sg8
S'Summer Air'
p2478
ssS'2SdXCB4OPo6J6Yc7V249pS'
p2479
(dp2480
g3
S"Lil' Kleine"
p2481
sg5
I15
sg6
S'https://open.spotify.com/track/2SdXCB4OPo6J6Yc7V249pS'
p2482
sg8
S'Net Iets Meer'
p2483
ssS'0zCfmceT1YvtZXGbR6Roht'
p2484
(dp2485
g3
S'La La Land Cast'
p2486
sg5
I6
sg6
S'https://open.spotify.com/track/0zCfmceT1YvtZXGbR6Roht'
p2487
sg8
S'Another Day Of Sun - From La La Land Soundtrack'
p2488
ssS'35QZaWQRkmnAVqBF1TLCxQ'
p2489
(dp2490
g3
S'Ed Sheeran'
p2491
sg5
I6
sg6
S'https://open.spotify.com/track/35QZaWQRkmnAVqBF1TLCxQ'
p2492
sg8
S'Nancy Mulligan'
p2493
ssS'5Mt7Dzj8Ak3Z3iFN0O8sxm'
p2494
(dp2495
g3
S'Soufiane Eddyani'
p2496
sg5
I4
sg6
S'https://open.spotify.com/track/5Mt7Dzj8Ak3Z3iFN0O8sxm'
p2497
sg8
S'Een Dief Als Broer'
p2498
ssS'0dXNQ8dckG4eYfEtq9zcva'
p2499
(dp2500
g3
S'The Vamps'
p2501
sg5
I1
sg6
S'https://open.spotify.com/track/0dXNQ8dckG4eYfEtq9zcva'
p2502
sg8
S'All Night'
p2503
ssS'3VRk65lHSwqd90TAkQqhvB'
p2504
(dp2505
g3
S'Katy Perry'
p2506
sg5
I2
sg6
S'https://open.spotify.com/track/3VRk65lHSwqd90TAkQqhvB'
p2507
sg8
S'Swish Swish'
p2508
ssS'5eqK0tbzUPo2SoeZsov04s'
p2509
(dp2510
g3
S'21 Savage'
p2511
sg5
I8
sg6
S'https://open.spotify.com/track/5eqK0tbzUPo2SoeZsov04s'
p2512
sg8
S'Bank Account'
p2513
ssS'1a5Yu5L18qNxVhXx38njON'
p2514
(dp2515
g3
S'Alok'
p2516
sg5
I18
sg6
S'https://open.spotify.com/track/1a5Yu5L18qNxVhXx38njON'
p2517
sg8
S'Hear Me Now'
p2518
ssS'5PUZLLiQzxBg6TijpzU3dH'
p2519
(dp2520
g3
S'Mister V'
p2521
sg5
I1
sg6
S'https://open.spotify.com/track/5PUZLLiQzxBg6TijpzU3dH'
p2522
sg8
S'Deutsche Qualit\xc3\xa4t'
p2523
ssS'7GnbL96pHeYnzY5Rr1nYir'
p2524
(dp2525
g3
S'Dimitri Vegas & Like Mike'
p2526
sg5
I2
sg6
S'https://open.spotify.com/track/7GnbL96pHeYnzY5Rr1nYir'
p2527
sg8
S'Stay A While'
p2528
ssS'0vbbhcA6okLzvsy6WSTlLg'
p2529
(dp2530
g3
S'Rudimental'
p2531
sg5
I1
sg6
S'https://open.spotify.com/track/0vbbhcA6okLzvsy6WSTlLg'
p2532
sg8
S'Lay It All On Me (feat. Ed Sheeran)'
p2533
ssS'4sPmO7WMQUAf45kwMOtONw'
p2534
(dp2535
g3
S'Adele'
p2536
sg5
I21
sg6
S'https://open.spotify.com/track/4sPmO7WMQUAf45kwMOtONw'
p2537
sg8
S'Hello'
p2538
ssS'0o1cDEHf7Z2ApT9TeLkYyT'
p2539
(dp2540
g3
S'Van Echelpoel'
p2541
sg5
I13
sg6
S'https://open.spotify.com/track/0o1cDEHf7Z2ApT9TeLkYyT'
p2542
sg8
S'WADDISTJOM'
p2543
ssS'3agtg0x11wPvLIWkYR39nZ'
p2544
(dp2545
g3
S'Linkin Park'
p2546
sg5
I1
sg6
S'https://open.spotify.com/track/3agtg0x11wPvLIWkYR39nZ'
p2547
sg8
S'Somewhere I Belong'
p2548
ssS'5p3NP9mQblDsVJLdfNZJ3I'
p2549
(dp2550
g3
S'Kendrick Lamar'
p2551
sg5
I2
sg6
S'https://open.spotify.com/track/5p3NP9mQblDsVJLdfNZJ3I'
p2552
sg8
S'GOD.'
p2553
ssS'6BaCraQ9xeLYg4Sb9TBT2X'
p2554
(dp2555
g3
S'Calvin Harris'
p2556
sg5
I1
sg6
S'https://open.spotify.com/track/6BaCraQ9xeLYg4Sb9TBT2X'
p2557
sg8
S'Feels'
p2558
ssS'69c3ANqlLXcVPt80fQonP6'
p2559
(dp2560
g3
S"Lil' Kleine"
p2561
sg5
I7
sg6
S'https://open.spotify.com/track/69c3ANqlLXcVPt80fQonP6'
p2562
sg8
S'Succesvol'
p2563
ssS'2xLGWmTEfHH9kxDNEGgMNc'
p2564
(dp2565
g3
S'Kalash'
p2566
sg5
I1
sg6
S'https://open.spotify.com/track/2xLGWmTEfHH9kxDNEGgMNc'
p2567
sg8
S'Mwaka Moon'
p2568
ssS'6gTJaPuj8DT8RjuDJyBgzP'
p2569
(dp2570
g3
S'Ed Sheeran'
p2571
sg5
I4
sg6
S'https://open.spotify.com/track/6gTJaPuj8DT8RjuDJyBgzP'
p2572
sg8
S"Don't"
p2573
ssS'2nY6MRHWpW0AGXMoGDJOjX'
p2574
(dp2575
g3
S'Niska'
p2576
sg5
I3
sg6
S'https://open.spotify.com/track/2nY6MRHWpW0AGXMoGDJOjX'
p2577
sg8
S'R\xc3\xa9seaux'
p2578
ssS'3T7dNA7O8c3Axj5WyDNcH3'
p2579
(dp2580
g3
S'Brenda Lee'
p2581
sg5
I1
sg6
S'https://open.spotify.com/track/3T7dNA7O8c3Axj5WyDNcH3'
p2582
sg8
S"Rockin' Around The Christmas Tree - Single Version"
p2583
ssS'5q5gzmbBS5yQzos2BvVr1t'
p2584
(dp2585
g3
S'M\xc3\x98'
p2586
sg5
I11
sg6
S'https://open.spotify.com/track/5q5gzmbBS5yQzos2BvVr1t'
p2587
sg8
S'Nights With You'
p2588
ssS'3DXncPQOG4VBw3QHh3S817'
p2589
(dp2590
g3
S'DJ Khaled'
p2591
sg5
I20
sg6
S'https://open.spotify.com/track/3DXncPQOG4VBw3QHh3S817'
p2592
sg8
S"I'm the One"
p2593
ssS'10fcTZSwDNmpDyhK9aexg7'
p2594
(dp2595
g3
S'Bazart'
p2596
sg5
I16
sg6
S'https://open.spotify.com/track/10fcTZSwDNmpDyhK9aexg7'
p2597
sg8
S'Chaos'
p2598
ssS'2Z8WuEywRWYTKe1NybPQEW'
p2599
(dp2600
g3
S'Twenty One Pilots'
p2601
sg5
I16
sg6
S'https://open.spotify.com/track/2Z8WuEywRWYTKe1NybPQEW'
p2602
sg8
S'Ride'
p2603
ssS'6mapJIPnQ23RTAevUoE0DL'
p2604
(dp2605
g3
S'Rae Sremmurd'
p2606
sg5
I3
sg6
S'https://open.spotify.com/track/6mapJIPnQ23RTAevUoE0DL'
p2607
sg8
S'Swang'
p2608
ssS'2q6tgiA9tpb6DMguABwCWE'
p2609
(dp2610
g3
S'John Legend'
p2611
sg5
I17
sg6
S'https://open.spotify.com/track/2q6tgiA9tpb6DMguABwCWE'
p2612
sg8
S'All of Me'
p2613
ssS'6mORGLOz79w6VsCRLWYYuK'
p2614
(dp2615
g3
S'Lord Huron'
p2616
sg5
I26
sg6
S'https://open.spotify.com/track/6mORGLOz79w6VsCRLWYYuK'
p2617
sg8
S'The Night We Met'
p2618
ssS'5aAx2yezTd8zXrkmtKl66Z'
p2619
(dp2620
g3
S'The Weeknd'
p2621
sg5
I40
sg6
S'https://open.spotify.com/track/5aAx2yezTd8zXrkmtKl66Z'
p2622
sg8
S'Starboy'
p2623
ssS'2BrzlUj1u1CtvaJDGIKpsP'
p2624
(dp2625
g3
S'Noah Cyrus'
p2626
sg5
I12
sg6
S'https://open.spotify.com/track/2BrzlUj1u1CtvaJDGIKpsP'
p2627
sg8
S'Make Me (Cry)'
p2628
ssS'1SJtlNRJDeYHioymcvsqev'
p2629
(dp2630
g3
S'Camila Cabello'
p2631
sg5
I21
sg6
S'https://open.spotify.com/track/1SJtlNRJDeYHioymcvsqev'
p2632
sg8
S'Crying in the Club'
p2633
ssS'43VkpPE5b7rfbU02EsUTgy'
p2634
(dp2635
g3
S'Dimitri Vegas & Like Mike'
p2636
sg5
I2
sg6
S'https://open.spotify.com/track/43VkpPE5b7rfbU02EsUTgy'
p2637
sg8
S'Hey Baby - Lost Frequencies Remix'
p2638
ssS'6Arx9MNkbozTj35MCFiyro'
p2639
(dp2640
g3
S"Lil' Kleine"
p2641
sg5
I3
sg6
S'https://open.spotify.com/track/6Arx9MNkbozTj35MCFiyro'
p2642
sg8
S'Kleine Jongen'
p2643
ssS'04DwTuZ2VBdJCCC5TROn7L'
p2644
(dp2645
g3
S'Martin Garrix'
p2646
sg5
I39
sg6
S'https://open.spotify.com/track/04DwTuZ2VBdJCCC5TROn7L'
p2647
sg8
S'In the Name of Love'
p2648
ssS'4fzyvSu73BhGvi96p2zwjL'
p2649
(dp2650
g3
S'Coldplay'
p2651
sg5
I1
sg6
S'https://open.spotify.com/track/4fzyvSu73BhGvi96p2zwjL'
p2652
sg8
S'Christmas Lights'
p2653
ssS'0IrzlAmB2W08MZynOctOhI'
p2654
(dp2655
g3
S'Ninho'
p2656
sg5
I1
sg6
S'https://open.spotify.com/track/0IrzlAmB2W08MZynOctOhI'
p2657
sg8
S'HLM ou Palace'
p2658
ssS'5FOl0F9XKGpGO8lrOjU7nX'
p2659
(dp2660
g3
S"Lil' Kleine"
p2661
sg5
I3
sg6
S'https://open.spotify.com/track/5FOl0F9XKGpGO8lrOjU7nX'
p2662
sg8
S'Liegen Voor Jou'
p2663
ssS'7bJ4mu7MHa3rHiNyKjOoSl'
p2664
(dp2665
g3
S'Drake'
p2666
sg5
I1
sg6
S'https://open.spotify.com/track/7bJ4mu7MHa3rHiNyKjOoSl'
p2667
sg8
S'Ice Melts'
p2668
ssS'4JAyIDXOqNM6qHuZML01uX'
p2669
(dp2670
g3
g1587
sg5
I1
sg6
S'https://open.spotify.com/track/4JAyIDXOqNM6qHuZML01uX'
p2671
sg8
g1587
ssS'6VRghJeP6I0w1KxkdWFfIh'
p2672
(dp2673
g3
S'Imagine Dragons'
p2674
sg5
I3
sg6
S'https://open.spotify.com/track/6VRghJeP6I0w1KxkdWFfIh'
p2675
sg8
S'Believer'
p2676
ssS'7ccCDGX1Vxv1XuHl2VYG2M'
p2677
(dp2678
g3
S"Lil' Kleine"
p2679
sg5
I1
sg6
S'https://open.spotify.com/track/7ccCDGX1Vxv1XuHl2VYG2M'
p2680
sg8
S'Succesvol'
p2681
ssS'6SznMYPQJHzr3IwsAHLId2'
p2682
(dp2683
g3
S'Ed Sheeran'
p2684
sg5
I5
sg6
S'https://open.spotify.com/track/6SznMYPQJHzr3IwsAHLId2'
p2685
sg8
S'Bibia Be Ye Ye'
p2686
ssS'6T31DOFxLA77NBXEmdwbcC'
p2687
(dp2688
g3
S'The War On Drugs'
p2689
sg5
I5
sg6
S'https://open.spotify.com/track/6T31DOFxLA77NBXEmdwbcC'
p2690
sg8
S'Thinking Of A Place'
p2691
ssS'6xImOq7J8ty2xMj3AhPZTq'
p2692
(dp2693
g3
S'Ronnie Flex'
p2694
sg5
I4
sg6
S'https://open.spotify.com/track/6xImOq7J8ty2xMj3AhPZTq'
p2695
sg8
S'Come Again'
p2696
ssS'46NBoIAHrmR7qcUGCIFEjR'
p2697
(dp2698
g3
S'David Guetta'
p2699
sg5
I4
sg6
S'https://open.spotify.com/track/46NBoIAHrmR7qcUGCIFEjR'
p2700
sg8
S"This One's For You (feat. Zara Larsson) - Official Song UEFA EURO 2016"
p2701
ssS'4LQ0lpEPEOvPLtGmRqe8n6'
p2702
(dp2703
g3
S'Lost Frequencies'
p2704
sg5
I2
sg6
S'https://open.spotify.com/track/4LQ0lpEPEOvPLtGmRqe8n6'
p2705
sg8
S'What Is Love 2016 - Regi & Lester Williams Remix'
p2706
ssS'6zcSWREy1vcJ4aWt7bzBW3'
p2707
(dp2708
g3
S'Dopebwoy'
p2709
sg5
I13
sg6
S'https://open.spotify.com/track/6zcSWREy1vcJ4aWt7bzBW3'
p2710
sg8
S'Cartier'
p2711
ssS'2H6dHxAxGq5oQ9EiinNpXT'
p2712
(dp2713
g3
S'The Strumbellas'
p2714
sg5
I5
sg6
S'https://open.spotify.com/track/2H6dHxAxGq5oQ9EiinNpXT'
p2715
sg8
S'Spirits'
p2716
ssS'0P8n6AIBVc88gxbliu0lej'
p2717
(dp2718
g3
S'Mister V'
p2719
sg5
I1
sg6
S'https://open.spotify.com/track/0P8n6AIBVc88gxbliu0lej'
p2720
sg8
S'Apollo13'
p2721
ssS'1eyrmeiDpdTkOmA839nPVQ'
p2722
(dp2723
g3
S'Robin Schulz'
p2724
sg5
I1
sg6
S'https://open.spotify.com/track/1eyrmeiDpdTkOmA839nPVQ'
p2725
sg8
S'Shed a Light'
p2726
ssS'6PHw2YOUTaxRyROKv1rypp'
p2727
(dp2728
g3
S"Lil' Kleine"
p2729
sg5
I3
sg6
S'https://open.spotify.com/track/6PHw2YOUTaxRyROKv1rypp'
p2730
sg8
S'Volume'
p2731
ssS'1EaKU4dMbesXXd3BrLCtYG'
p2732
(dp2733
g3
S'Kendrick Lamar'
p2734
sg5
I5
sg6
S'https://open.spotify.com/track/1EaKU4dMbesXXd3BrLCtYG'
p2735
sg8
S'ELEMENT.'
p2736
ssS'6yc377A8qxHIjPUcjGD4ET'
p2737
(dp2738
g3
S'Dimitri Vegas & Like Mike'
p2739
sg5
I1
sg6
S'https://open.spotify.com/track/6yc377A8qxHIjPUcjGD4ET'
p2740
sg8
S'Hey Baby'
p2741
ssS'3mRNVlRKAgymByDGPqV7Sw'
p2742
(dp2743
g3
S'Laura Tesoro'
p2744
sg5
I18
sg6
S'https://open.spotify.com/track/3mRNVlRKAgymByDGPqV7Sw'
p2745
sg8
S'Higher'
p2746
ssS'5UJshy5HDHdNEVqlJwzsQB'
p2747
(dp2748
g3
S'Bruno Mars'
p2749
sg5
I2
sg6
S'https://open.spotify.com/track/5UJshy5HDHdNEVqlJwzsQB'
p2750
sg8
S'Versace On The Floor (Bruno Mars vs. David Guetta)'
p2751
ssS'1n4jwRVXdkK2U34nBDUKKT'
p2752
(dp2753
g3
S'Kendrick Lamar'
p2754
sg5
I2
sg6
S'https://open.spotify.com/track/1n4jwRVXdkK2U34nBDUKKT'
p2755
sg8
S'BLOOD.'
p2756
ssS'3GVkPk8mqxz0itaAriG1L7'
p2757
(dp2758
g3
S'XXXTENTACION'
p2759
sg5
I5
sg6
S'https://open.spotify.com/track/3GVkPk8mqxz0itaAriG1L7'
p2760
sg8
S'Everybody Dies In Their Nightmares'
p2761
ssS'1sYSP7gKa5kdKIfhANfori'
p2762
(dp2763
g3
S'MAX'
p2764
sg5
I13
sg6
S'https://open.spotify.com/track/1sYSP7gKa5kdKIfhANfori'
p2765
sg8
S'Lights Down Low'
p2766
ssS'5Ohxk2dO5COHF1krpoPigN'
p2767
(dp2768
g3
S'Harry Styles'
p2769
sg5
I27
sg6
S'https://open.spotify.com/track/5Ohxk2dO5COHF1krpoPigN'
p2770
sg8
S'Sign of the Times'
p2771
ssS'048uWGSGTnQhaZFjTCVPZX'
p2772
(dp2773
g3
S'Lijpe'
p2774
sg5
I1
sg6
S'https://open.spotify.com/track/048uWGSGTnQhaZFjTCVPZX'
p2775
sg8
S'Heimwee'
p2776
ssS'1lQBpwzlkwNiRyCiifKtRA'
p2777
(dp2778
g3
S'Damso'
p2779
sg5
I4
sg6
S'https://open.spotify.com/track/1lQBpwzlkwNiRyCiifKtRA'
p2780
sg8
S"\xce\x99. Peur d'\xc3\xaatre p\xc3\xa8re"
p2781
ssS'5yJ7tCEbgBC8ewZzUy0dBF'
p2782
(dp2783
g3
S'Ninho'
p2784
sg5
I1
sg6
S'https://open.spotify.com/track/5yJ7tCEbgBC8ewZzUy0dBF'
p2785
sg8
S'Dita (feat. H\xc3\xb6s)'
p2786
ssS'0uBu60Wd7yzm2sFrj2hSr6'
p2787
(dp2788
g3
S'Niska'
p2789
sg5
I3
sg6
S'https://open.spotify.com/track/0uBu60Wd7yzm2sFrj2hSr6'
p2790
sg8
S'Sal\xc3\xa9'
p2791
ssS'6O85MfGECKBqAK2MgSbCaj'
p2792
(dp2793
g3
S'Martin Solveig'
p2794
sg5
I34
sg6
S'https://open.spotify.com/track/6O85MfGECKBqAK2MgSbCaj'
p2795
sg8
S'Places'
p2796
ssS'7FCfMXYTIiQ9b4hDYs4Iol'
p2797
(dp2798
g3
S'Dua Lipa'
p2799
sg5
I15
sg6
S'https://open.spotify.com/track/7FCfMXYTIiQ9b4hDYs4Iol'
p2800
sg8
S'Be The One'
p2801
ssS'26LK30839pwfdnTYnDUxU3'
p2802
(dp2803
g3
S'Niska'
p2804
sg5
I1
sg6
S'https://open.spotify.com/track/26LK30839pwfdnTYnDUxU3'
p2805
sg8
S'D.M.B'
p2806
ssS'4mxWSdf71VFO52qFeY0fZt'
p2807
(dp2808
g3
S'Maroon 5'
p2809
sg5
I6
sg6
S'https://open.spotify.com/track/4mxWSdf71VFO52qFeY0fZt'
p2810
sg8
S'What Lovers Do (feat. SZA)'
p2811
ssS'1ADjWm8QNhgNV8yCNNgQ1T'
p2812
(dp2813
g3
S'Ariana Grande'
p2814
sg5
I1
sg6
S'https://open.spotify.com/track/1ADjWm8QNhgNV8yCNNgQ1T'
p2815
sg8
S'Santa Tell Me'
p2816
ssS'3xzsLvCaodpR7YRvKlcxXM'
p2817
(dp2818
g3
S'Lacrim'
p2819
sg5
I1
sg6
S'https://open.spotify.com/track/3xzsLvCaodpR7YRvKlcxXM'
p2820
sg8
S'Rockefeller'
p2821
ssS'4Hf7WnR761jpxPr5D46Bcd'
p2822
(dp2823
g3
S'Shawn Mendes'
p2824
sg5
I38
sg6
S'https://open.spotify.com/track/4Hf7WnR761jpxPr5D46Bcd'
p2825
sg8
S'Treat You Better'
p2826
ssS'5ghIJDpPoe3CfHMGu71E6T'
p2827
(dp2828
g3
S'Nirvana'
p2829
sg5
I1
sg6
S'https://open.spotify.com/track/5ghIJDpPoe3CfHMGu71E6T'
p2830
sg8
S'Smells Like Teen Spirit'
p2831
ssS'3AEZUABDXNtecAOSC1qTfo'
p2832
(dp2833
g3
S'CNCO'
p2834
sg5
I6
sg6
S'https://open.spotify.com/track/3AEZUABDXNtecAOSC1qTfo'
p2835
sg8
S'Reggaet\xc3\xb3n Lento (Bailemos)'
p2836
ssS'4mq14Qa6OehdiyZFtHcdCH'
p2837
(dp2838
g3
S'Lana Del Rey'
p2839
sg5
I1
sg6
S'https://open.spotify.com/track/4mq14Qa6OehdiyZFtHcdCH'
p2840
sg8
S'13 Beaches'
p2841
ssS'4kKJ5CjwCtksszPMntho4N'
p2842
(dp2843
g3
S'Nekfeu'
p2844
sg5
I9
sg6
S'https://open.spotify.com/track/4kKJ5CjwCtksszPMntho4N'
p2845
sg8
S'Mauvaise graine'
p2846
ssS'1Tt4sE4pXi57mTD1GCzsqm'
p2847
(dp2848
g3
S'Rihanna'
p2849
sg5
I5
sg6
S'https://open.spotify.com/track/1Tt4sE4pXi57mTD1GCzsqm'
p2850
sg8
S'Needed Me'
p2851
ssS'6qPI3aH7jpx8dQ6UwQ2dX4'
p2852
(dp2853
g3
S'Gladys Knight & The Pips'
p2854
sg5
I1
sg6
S'https://open.spotify.com/track/6qPI3aH7jpx8dQ6UwQ2dX4'
p2855
sg8
S'When a Child Is Born (Soleado)'
p2856
ssS'3cr07R8m2voOPbk1yQj1DI'
p2857
(dp2858
g3
S'Boef'
p2859
sg5
I6
sg6
S'https://open.spotify.com/track/3cr07R8m2voOPbk1yQj1DI'
p2860
sg8
S'Zeg Mij'
p2861
ssS'69uxyAqqPIsUyTO8txoP2M'
p2862
(dp2863
g3
S'Coldplay'
p2864
sg5
I2
sg6
S'https://open.spotify.com/track/69uxyAqqPIsUyTO8txoP2M'
p2865
sg8
S'Adventure Of A Lifetime'
p2866
ssS'1MksGqIztTT6M9R1ErKVs8'
p2867
(dp2868
g3
S'Big Sean'
p2869
sg5
I2
sg6
S'https://open.spotify.com/track/1MksGqIztTT6M9R1ErKVs8'
p2870
sg8
S'No Favors'
p2871
ssS'4hXAK3mjFVFOOiJQ3rKAXi'
p2872
(dp2873
g3
S'Burl Ives'
p2874
sg5
I1
sg6
S'https://open.spotify.com/track/4hXAK3mjFVFOOiJQ3rKAXi'
p2875
sg8
S'Rudolph The Red-Nosed Reindeer'
p2876
ssS'7xHWNBFm6ObGEQPaUxHuKO'
p2877
(dp2878
g3
S'Sia'
p2879
sg5
I11
sg6
S'https://open.spotify.com/track/7xHWNBFm6ObGEQPaUxHuKO'
p2880
sg8
S'The Greatest'
p2881
ssS'2fXH2iei02pBaSIdn5X4zJ'
p2882
(dp2883
g3
S'Ryan Gosling'
p2884
sg5
I1
sg6
S'https://open.spotify.com/track/2fXH2iei02pBaSIdn5X4zJ'
p2885
sg8
S'A Lovely Night - From La La Land Soundtrack'
p2886
ssS'2Inz7gGPGgieN0CTw9TOOs'
p2887
(dp2888
g3
S'JP Cooper'
p2889
sg5
I1
sg6
S'https://open.spotify.com/track/2Inz7gGPGgieN0CTw9TOOs'
p2890
sg8
S'September Song'
p2891
ssS'5knuzwU65gJK7IF5yJsuaW'
p2892
(dp2893
g3
S'Clean Bandit'
p2894
sg5
I42
sg6
S'https://open.spotify.com/track/5knuzwU65gJK7IF5yJsuaW'
p2895
sg8
S'Rockabye (feat. Sean Paul & Anne-Marie)'
p2896
ssS'7aF09WaavZAmAWuUeYxlYD'
p2897
(dp2898
g3
S'OneRepublic'
p2899
sg5
I13
sg6
S'https://open.spotify.com/track/7aF09WaavZAmAWuUeYxlYD'
p2900
sg8
S'Rich Love (with Seeb)'
p2901
ssS'3bWAqKDWg6u1davspr5IkS'
p2902
(dp2903
g3
S'Robin Schulz'
p2904
sg5
I21
sg6
S'https://open.spotify.com/track/3bWAqKDWg6u1davspr5IkS'
p2905
sg8
S'OK'
p2906
ssS'14WWzenpaEgQZlqPq2nk4v'
p2907
(dp2908
g3
S'Rihanna'
p2909
sg5
I10
sg6
S'https://open.spotify.com/track/14WWzenpaEgQZlqPq2nk4v'
p2910
sg8
S'Work'
p2911
ssS'4tHqQMWSqmL6YjXwsqthDI'
p2912
(dp2913
g3
S'Mykola Dmytrovych Leontovych'
p2914
sg5
I1
sg6
S'https://open.spotify.com/track/4tHqQMWSqmL6YjXwsqthDI'
p2915
sg8
S'Carol of the Bells'
p2916
ssS'6b8Be6ljOzmkOmFslEb23P'
p2917
(dp2918
g3
S'Bruno Mars'
p2919
sg5
I34
sg6
S'https://open.spotify.com/track/6b8Be6ljOzmkOmFslEb23P'
p2920
sg8
S'24K Magic'
p2921
ssS'1hWQvA6oGVJ2mAVsZ59AaV'
p2922
(dp2923
g3
S'Nathaniel Rateliff & The Night Sweats'
p2924
sg5
I2
sg6
S'https://open.spotify.com/track/1hWQvA6oGVJ2mAVsZ59AaV'
p2925
sg8
S'S.O.B.'
p2926
ssS'6w8TtnuyVPUiEHt3JOcmvN'
p2927
(dp2928
g3
S'Sevn Alias'
p2929
sg5
I1
sg6
S'https://open.spotify.com/track/6w8TtnuyVPUiEHt3JOcmvN'
p2930
sg8
S'Voor Alle Soldiers'
p2931
ssS'6Ep6BzIOB9tz3P4sWqiiAB'
p2932
(dp2933
g3
S'Imagine Dragons'
p2934
sg5
I1
sg6
S'https://open.spotify.com/track/6Ep6BzIOB9tz3P4sWqiiAB'
p2935
sg8
S'Radioactive'
p2936
ssS'7cQMJ0wDqVS5iM0JIvP6Ay'
p2937
(dp2938
g3
S'Fall Out Boy'
p2939
sg5
I3
sg6
S'https://open.spotify.com/track/7cQMJ0wDqVS5iM0JIvP6Ay'
p2940
sg8
S'The Last Of The Real Ones'
p2941
ssS'6uJwPeBGb3swi85TSr9iIz'
p2942
(dp2943
g3
S'Coldplay'
p2944
sg5
I1
sg6
S'https://open.spotify.com/track/6uJwPeBGb3swi85TSr9iIz'
p2945
sg8
S'Miracles (Someone Special)'
p2946
ssS'5urhEtesorARjZhjSaFntn'
p2947
(dp2948
g3
S'Damso'
p2949
sg5
I12
sg6
S'https://open.spotify.com/track/5urhEtesorARjZhjSaFntn'
p2950
sg8
S'\xce\x96. Kietu'
p2951
ssS'4so0Wek9Ig1p6CRCHuINwW'
p2952
(dp2953
g3
S'Bing Crosby'
p2954
sg5
I1
sg6
S'https://open.spotify.com/track/4so0Wek9Ig1p6CRCHuINwW'
p2955
sg8
S'White Christmas'
p2956
ssS'3fHXUNVKNZQ4WaUGLwWxHP'
p2957
(dp2958
g3
S'Damso'
p2959
sg5
I1
sg6
S'https://open.spotify.com/track/3fHXUNVKNZQ4WaUGLwWxHP'
p2960
sg8
S"Paris c'est loin"
p2961
ssS'23luOrEVHMfoX0AhfbQuS6'
p2962
(dp2963
g3
S'Kendrick Lamar'
p2964
sg5
I2
sg6
S'https://open.spotify.com/track/23luOrEVHMfoX0AhfbQuS6'
p2965
sg8
S'FEAR.'
p2966
ssS'458ESscRcqCVX1xbllEmPn'
p2967
(dp2968
g3
S'NEIKED'
p2969
sg5
I1
sg6
S'https://open.spotify.com/track/458ESscRcqCVX1xbllEmPn'
p2970
sg8
S'Call Me'
p2971
ssS'3TRFq09DUgYj1mug6RRqJW'
p2972
(dp2973
g3
S'Luke Christopher'
p2974
sg5
I15
sg6
S'https://open.spotify.com/track/3TRFq09DUgYj1mug6RRqJW'
p2975
sg8
S'Lot to Learn'
p2976
ssS'5DA77EqppDmCTWGovd4oTP'
p2977
(dp2978
g3
S'Cheat Codes'
p2979
sg5
I8
sg6
S'https://open.spotify.com/track/5DA77EqppDmCTWGovd4oTP'
p2980
sg8
S'Sex'
p2981
ssS'5ta5PNyQ2FquafJ8BxUs3k'
p2982
(dp2983
g3
S"Lil' Kleine"
p2984
sg5
I2
sg6
S'https://open.spotify.com/track/5ta5PNyQ2FquafJ8BxUs3k'
p2985
sg8
S'Jongens Van De Stad'
p2986
ssS'4h90qkbnW1Qq6pBhoPvwko'
p2987
(dp2988
g3
S'The Weeknd'
p2989
sg5
I2
sg6
S'https://open.spotify.com/track/4h90qkbnW1Qq6pBhoPvwko'
p2990
sg8
S'Sidewalks'
p2991
ssS'6HZILIRieu8S0iqY8kIKhj'
p2992
(dp2993
g3
S'Kendrick Lamar'
p2994
sg5
I22
sg6
S'https://open.spotify.com/track/6HZILIRieu8S0iqY8kIKhj'
p2995
sg8
S'DNA.'
p2996
ssS'2A17f6I4fh6GqYX0J8noGr'
p2997
(dp2998
g3
S'Ed Sheeran'
p2999
sg5
I3
sg6
S'https://open.spotify.com/track/2A17f6I4fh6GqYX0J8noGr'
p3000
sg8
S'Galway Girl - Martin Jensen Remix'
p3001
ssS'6oZuSPBQySlwY33BhdIm11'
p3002
(dp3003
g3
S'Boef'
p3004
sg5
I27
sg6
S'https://open.spotify.com/track/6oZuSPBQySlwY33BhdIm11'
p3005
sg8
S'Wejoow'
p3006
ssS'4Q5yMlwAfAoitqg4r9oZHN'
p3007
(dp3008
g3
S'Cashmere Cat'
p3009
sg5
I8
sg6
S'https://open.spotify.com/track/4Q5yMlwAfAoitqg4r9oZHN'
p3010
sg8
S'Quit (feat. Ariana Grande)'
p3011
ssS'7F9vK8hNFMml4GtHsaXui6'
p3012
(dp3013
g3
S'Louis Tomlinson'
p3014
sg5
I12
sg6
S'https://open.spotify.com/track/7F9vK8hNFMml4GtHsaXui6'
p3015
sg8
S'Back to You (feat. Bebe Rexha & Digital Farm Animals)'
p3016
ssS'11Fo4dAH31K7UZHGqCkCmE'
p3017
(dp3018
g3
S'Axwell /\\ Ingrosso'
p3019
sg5
I16
sg6
S'https://open.spotify.com/track/11Fo4dAH31K7UZHGqCkCmE'
p3020
sg8
S'I Love You'
p3021
ssS'0ikz6tENMONtK6qGkOrU3c'
p3022
(dp3023
g3
S'Wham!'
p3024
sg5
I2
sg6
S'https://open.spotify.com/track/0ikz6tENMONtK6qGkOrU3c'
p3025
sg8
S'Wake Me up Before You Go-Go'
p3026
ssS'6SUocL0caib4mLHe8ZrZzi'
p3027
(dp3028
g3
S'Rudimental'
p3029
sg5
I13
sg6
S'https://open.spotify.com/track/6SUocL0caib4mLHe8ZrZzi'
p3030
sg8
S'Sun Comes Up'
p3031
ssS'2H3ZUSE54pST4ubRd5FzFR'
p3032
(dp3033
g3
S'Marvin Gaye'
p3034
sg5
I3
sg6
S'https://open.spotify.com/track/2H3ZUSE54pST4ubRd5FzFR'
p3035
sg8
S"Ain't No Mountain High Enough"
p3036
ssS'0B48113ZG9UfkWWt7qD9xX'
p3037
(dp3038
g3
S'Miley Cyrus'
p3039
sg5
I1
sg6
S'https://open.spotify.com/track/0B48113ZG9UfkWWt7qD9xX'
p3040
sg8
S'Younger Now'
p3041
ssS'2EEeOnHehOozLq4aS0n6SL'
p3042
(dp3043
g3
S'KYLE'
p3044
sg5
I20
sg6
S'https://open.spotify.com/track/2EEeOnHehOozLq4aS0n6SL'
p3045
sg8
S'iSpy (feat. Lil Yachty)'
p3046
ssS'3b0EOvScbZUc0qJx0E1L2z'
p3047
(dp3048
g3
S'The Jackson 5'
p3049
sg5
I1
sg6
S'https://open.spotify.com/track/3b0EOvScbZUc0qJx0E1L2z'
p3050
sg8
S'I Want You Back'
p3051
ssS'4mU5iXHeLgbR94siF7p1sY'
p3052
(dp3053
g3
S'The Weeknd'
p3054
sg5
I1
sg6
S'https://open.spotify.com/track/4mU5iXHeLgbR94siF7p1sY'
p3055
sg8
S'Six Feet Under'
p3056
ssS'6gpcs5eMhJwax4mIfKDYQk'
p3057
(dp3058
g3
S'Calvin Harris'
p3059
sg5
I4
sg6
S'https://open.spotify.com/track/6gpcs5eMhJwax4mIfKDYQk'
p3060
sg8
S'Slide'
p3061
ssS'5bcTCxgc7xVfSaMV3RuVke'
p3062
(dp3063
g3
S'Calvin Harris'
p3064
sg5
I16
sg6
S'https://open.spotify.com/track/5bcTCxgc7xVfSaMV3RuVke'
p3065
sg8
S'Feels'
p3066
ssS'0QsvXIfqM0zZoerQfsI9lm'
p3067
(dp3068
g3
S'The Chainsmokers'
p3069
sg5
I41
sg6
S'https://open.spotify.com/track/0QsvXIfqM0zZoerQfsI9lm'
p3070
sg8
S"Don't Let Me Down"
p3071
ssS'7w87IxuO7BDcJ3YUqCyMTT'
p3072
(dp3073
g3
S'Foster The People'
p3074
sg5
I1
sg6
S'https://open.spotify.com/track/7w87IxuO7BDcJ3YUqCyMTT'
p3075
sg8
S'Pumped Up Kicks'
p3076
ssS'4qqArAiTPueDxIp7cf87h7'
p3077
(dp3078
g3
S'M\xc3\x98'
p3079
sg5
I12
sg6
S'https://open.spotify.com/track/4qqArAiTPueDxIp7cf87h7'
p3080
sg8
S'Final Song'
p3081
ssS'6X3U6O4adFSanohAaUxViv'
p3082
(dp3083
g3
S'Lacrim'
p3084
sg5
I1
sg6
S'https://open.spotify.com/track/6X3U6O4adFSanohAaUxViv'
p3085
sg8
S'2 Pac'
p3086
ssS'5hslUAKq9I9CG2bAulFkHN'
p3087
(dp3088
g3
S'Andy Williams'
p3089
sg5
I1
sg6
S'https://open.spotify.com/track/5hslUAKq9I9CG2bAulFkHN'
p3090
sg8
S"It's the Most Wonderful Time of the Year"
p3091
ssS'2nLtzopw4rPReszdYBJU6h'
p3092
(dp3093
g3
S'Linkin Park'
p3094
sg5
I7
sg6
S'https://open.spotify.com/track/2nLtzopw4rPReszdYBJU6h'
p3095
sg8
S'Numb'
p3096
ssS'2MZUMdIakjQxl03yT1UlmQ'
p3097
(dp3098
g3
S'Queens of the Stone Age'
p3099
sg5
I1
sg6
S'https://open.spotify.com/track/2MZUMdIakjQxl03yT1UlmQ'
p3100
sg8
S'Fortress'
p3101
ssS'2PpruBYCo4H7WOBJ7Q2EwM'
p3102
(dp3103
g3
S'OutKast'
p3104
sg5
I1
sg6
S'https://open.spotify.com/track/2PpruBYCo4H7WOBJ7Q2EwM'
p3105
sg8
S'Hey Ya! - Radio Mix / Club Mix'
p3106
ssS'73jpyh5skC2tbah8eAzaAi'
p3107
(dp3108
g3
S'Josylvio'
p3109
sg5
I2
sg6
S'https://open.spotify.com/track/73jpyh5skC2tbah8eAzaAi'
p3110
sg8
S'Westside'
p3111
ssS'3a1lNhkSLSkpJE4MSHpDu9'
p3112
(dp3113
g3
S'Post Malone'
p3114
sg5
I35
sg6
S'https://open.spotify.com/track/3a1lNhkSLSkpJE4MSHpDu9'
p3115
sg8
S'Congratulations'
p3116
ssS'61WbtB6ujkpNAsAf5LjF4b'
p3117
(dp3118
g3
S'Katy Perry'
p3119
sg5
I13
sg6
S'https://open.spotify.com/track/61WbtB6ujkpNAsAf5LjF4b'
p3120
sg8
S'Bon app\xc3\xa9tit'
p3121
ssS'6jTEKtJvIoECSQMEZoLmjR'
p3122
(dp3123
g3
S'Hornet La Frappe'
p3124
sg5
I4
sg6
S'https://open.spotify.com/track/6jTEKtJvIoECSQMEZoLmjR'
p3125
sg8
S'Je pense \xc3\xa0 toi'
p3126
ssS'6yr8GiTHWvFfi4o6Q5ebdT'
p3127
(dp3128
g3
S'Eminem'
p3129
sg5
I1
sg6
S'https://open.spotify.com/track/6yr8GiTHWvFfi4o6Q5ebdT'
p3130
sg8
S"'Till I Collapse"
p3131
ssS'2fkeWbM6iqTw7oGHTYm2lw'
p3132
(dp3133
g3
S'Drake'
p3134
sg5
I2
sg6
S'https://open.spotify.com/track/2fkeWbM6iqTw7oGHTYm2lw'
p3135
sg8
S'4422'
p3136
ssS'7fwWB6u2BAVKdrTudi5MZt'
p3137
(dp3138
g3
S"Lil' Kleine"
p3139
sg5
I1
sg6
S'https://open.spotify.com/track/7fwWB6u2BAVKdrTudi5MZt'
p3140
sg8
S'Net Iets Meer'
p3141
ssS'6I6NX6tjGsxFAsIfGzY9lJ'
p3142
(dp3143
g3
S'J. Cole'
p3144
sg5
I2
sg6
S'https://open.spotify.com/track/6I6NX6tjGsxFAsIfGzY9lJ'
p3145
sg8
S'Deja Vu'
p3146
ssS'1fxdSIUrAwrLK5J2uyOwk9'
p3147
(dp3148
g3
S'alt-J'
p3149
sg5
I1
sg6
S'https://open.spotify.com/track/1fxdSIUrAwrLK5J2uyOwk9'
p3150
sg8
S'Adeline'
p3151
ssS'6QysMrr6baSsfz6ChHB25Y'
p3152
(dp3153
g3
S"Lil' Kleine"
p3154
sg5
I3
sg6
S'https://open.spotify.com/track/6QysMrr6baSsfz6ChHB25Y'
p3155
sg8
S'Nooit Meer / Ooit Weer'
p3156
ssS'1Q8SXHvQmJp7jGf3DZolDa'
p3157
(dp3158
g3
S'Soufiane Eddyani'
p3159
sg5
I3
sg6
S'https://open.spotify.com/track/1Q8SXHvQmJp7jGf3DZolDa'
p3160
sg8
S'Zina'
p3161
ssS'0PEvNecmiHz8PsegFXXmcF'
p3162
(dp3163
g3
S'Damso'
p3164
sg5
I4
sg6
S'https://open.spotify.com/track/0PEvNecmiHz8PsegFXXmcF'
p3165
sg8
S'\xce\x9e. Une \xc3\xa2me pour deux'
p3166
ssS'6bLopGnirdrilrpdVB6Um1'
p3167
(dp3168
g3
S'Sia'
p3169
sg5
I5
sg6
S'https://open.spotify.com/track/6bLopGnirdrilrpdVB6Um1'
p3170
sg8
S'The Greatest'
p3171
ssS'1dOToSr1Vjb5ncjoCV2JeB'
p3172
(dp3173
g3
S"Lil' Kleine"
p3174
sg5
I1
sg6
S'https://open.spotify.com/track/1dOToSr1Vjb5ncjoCV2JeB'
p3175
sg8
S'Volume'
p3176
ssS'1HAzsv7VCvbgqrpenTRWj1'
p3177
(dp3178
g3
S'The National'
p3179
sg5
I1
sg6
S'https://open.spotify.com/track/1HAzsv7VCvbgqrpenTRWj1'
p3180
sg8
S'The System Only Dreams in Total Darkness'
p3181
ssS'6iTVIAqZpHmCK9jrpDyDVo'
p3182
(dp3183
g3
S'Kungs'
p3184
sg5
I1
sg6
S'https://open.spotify.com/track/6iTVIAqZpHmCK9jrpDyDVo'
p3185
sg8
S'I Feel So Bad'
p3186
ssS'1vvNmPOiUuyCbgWmtc6yfm'
p3187
(dp3188
g3
S'Calvin Harris'
p3189
sg5
I23
sg6
S'https://open.spotify.com/track/1vvNmPOiUuyCbgWmtc6yfm'
p3190
sg8
S'My Way'
p3191
ssS'7DQXiMeLqiQsy1uqHSk0xc'
p3192
(dp3193
g3
S'Shawn Hook'
p3194
sg5
I3
sg6
S'https://open.spotify.com/track/7DQXiMeLqiQsy1uqHSk0xc'
p3195
sg8
S'Reminding Me'
p3196
ssS'04CbLJRm3XwOsGZt8mDqbj'
p3197
(dp3198
g3
S'Lacrim'
p3199
sg5
I1
sg6
S'https://open.spotify.com/track/04CbLJRm3XwOsGZt8mDqbj'
p3200
sg8
S'Judy Moncada'
p3201
ssS'4WrS6vezaPwOafKJmHqMEU'
p3202
(dp3203
g3
S'Jax Jones'
p3204
sg5
I1
sg6
S'https://open.spotify.com/track/4WrS6vezaPwOafKJmHqMEU'
p3205
sg8
S"You Don't Know Me - Radio Edit"
p3206
ssS'1Sl3njkhhz8nrSPZroDQ82'
p3207
(dp3208
g3
S'Dimitri Vegas & Like Mike'
p3209
sg5
I11
sg6
S'https://open.spotify.com/track/1Sl3njkhhz8nrSPZroDQ82'
p3210
sg8
S'Complicated (feat. Kiiara)'
p3211
ssS'5xMzazov0IHYllrc8U2K6F'
p3212
(dp3213
g3
S'Jennifer Lopez'
p3214
sg5
I1
sg6
S'https://open.spotify.com/track/5xMzazov0IHYllrc8U2K6F'
p3215
sg8
S'Ni T\xc3\xba Ni Yo'
p3216
ssS'57BrRMwf9LrcmuOsyGilwr'
p3217
(dp3218
g3
S'Linkin Park'
p3219
sg5
I1
sg6
S'https://open.spotify.com/track/57BrRMwf9LrcmuOsyGilwr'
p3220
sg8
S'Crawling'
p3221
ssS'4myoVer3cPAUqBzDigYf7A'
p3222
(dp3223
g3
S'Damso'
p3224
sg5
I7
sg6
S'https://open.spotify.com/track/4myoVer3cPAUqBzDigYf7A'
p3225
sg8
S'\xce\x9b. Lov\xc3\xa9'
p3226
ssS'0afhq8XCExXpqazXczTSve'
p3227
(dp3228
g3
S'Ed Sheeran'
p3229
sg5
I32
sg6
S'https://open.spotify.com/track/0afhq8XCExXpqazXczTSve'
p3230
sg8
S'Galway Girl'
p3231
ssS'7yM1SgjMVurpxrUsaKkeOb'
p3232
(dp3233
g3
S"Lil' Kleine"
p3234
sg5
I3
sg6
S'https://open.spotify.com/track/7yM1SgjMVurpxrUsaKkeOb'
p3235
sg8
S'Halen & Trekken'
p3236
ssS'2rb5MvYT7ZIxbKW5hfcHx8'
p3237
(dp3238
g3
S'J Balvin'
p3239
sg5
I15
sg6
S'https://open.spotify.com/track/2rb5MvYT7ZIxbKW5hfcHx8'
p3240
sg8
S'Mi Gente'
p3241
ssS'1NDxZ7cFAo481dtYWdrUnR'
p3242
(dp3243
g3
S'Maggie Lindemann'
p3244
sg5
I28
sg6
S'https://open.spotify.com/track/1NDxZ7cFAo481dtYWdrUnR'
p3245
sg8
S'Pretty Girl - Cheat Codes X CADE Remix'
p3246
ssS'2aFiaMXmWsM3Vj72F9ksBl'
p3247
(dp3248
g3
S'DNCE'
p3249
sg5
I2
sg6
S'https://open.spotify.com/track/2aFiaMXmWsM3Vj72F9ksBl'
p3250
sg8
S'Cake By The Ocean'
p3251
ssS'3V9DfRoS7JfSkuTyNEsCxQ'
p3252
(dp3253
g3
S'Martin Jensen'
p3254
sg5
I2
sg6
S'https://open.spotify.com/track/3V9DfRoS7JfSkuTyNEsCxQ'
p3255
sg8
S'Wait'
p3256
ssS'152lZdxL1OR0ZMW6KquMif'
p3257
(dp3258
g3
S'Khalid'
p3259
sg5
I26
sg6
S'https://open.spotify.com/track/152lZdxL1OR0ZMW6KquMif'
p3260
sg8
S'Location'
p3261
ssS'2dOTkLZFbpNXrhc24CnTFd'
p3262
(dp3263
g3
S'David Guetta'
p3264
sg5
I1
sg6
S'https://open.spotify.com/track/2dOTkLZFbpNXrhc24CnTFd'
p3265
sg8
S'Titanium (feat. Sia) - feat. Sia'
p3266
ssS'4TZy1wLyHec06pwgFYDh1a'
p3267
(dp3268
g3
S'Shawn Mendes'
p3269
sg5
I27
sg6
S'https://open.spotify.com/track/4TZy1wLyHec06pwgFYDh1a'
p3270
sg8
S'Mercy'
p3271
ssS'43fQGKwvhrwM8groZxcCc1'
p3272
(dp3273
g3
S'Oscar and the Wolf'
p3274
sg5
I1
sg6
S'https://open.spotify.com/track/43fQGKwvhrwM8groZxcCc1'
p3275
sg8
S'So Real'
p3276
ssS'4q8PHoRsPUB52LFylX8Ulz'
p3277
(dp3278
g3
S'Axwell /\\ Ingrosso'
p3279
sg5
I9
sg6
S'https://open.spotify.com/track/4q8PHoRsPUB52LFylX8Ulz'
p3280
sg8
S'More Than You Know'
p3281
ssS'3RXkboS74UYzN14xTqzPyY'
p3282
(dp3283
g3
g1587
sg5
I1
sg6
S'https://open.spotify.com/track/3RXkboS74UYzN14xTqzPyY'
p3284
sg8
g1587
ssS'4Q3N4Ct4zCuIHuZ65E3BD4'
p3285
(dp3286
g3
S'Kodak Black'
p3287
sg5
I11
sg6
S'https://open.spotify.com/track/4Q3N4Ct4zCuIHuZ65E3BD4'
p3288
sg8
S'Tunnel Vision'
p3289
ssS'3ZxYruWUtA4WNlWvO2gDPW'
p3290
(dp3291
g3
S'Oscar and the Wolf'
p3292
sg5
I15
sg6
S'https://open.spotify.com/track/3ZxYruWUtA4WNlWvO2gDPW'
p3293
sg8
S'Breathing'
p3294
ssS'1cjB8Rt70JyzznPMEHzK96'
p3295
(dp3296
g3
S'Oscar and the Wolf'
p3297
sg5
I1
sg6
S'https://open.spotify.com/track/1cjB8Rt70JyzznPMEHzK96'
p3298
sg8
S'So Real'
p3299
ssS'7EnD0lx98FL3jCDVqjyaBw'
p3300
(dp3301
g3
S'Lacrim'
p3302
sg5
I1
sg6
S'https://open.spotify.com/track/7EnD0lx98FL3jCDVqjyaBw'
p3303
sg8
S'Kim Jong Un'
p3304
ssS'0HEmnAUT8PHznIAAmVXqFJ'
p3305
(dp3306
g3
S'George Michael'
p3307
sg5
I1
sg6
S'https://open.spotify.com/track/0HEmnAUT8PHznIAAmVXqFJ'
p3308
sg8
S'Faith - Remastered'
p3309
ssS'1FUViuNSldssMIawrOXF2i'
p3310
(dp3311
g3
S'Bebe Rexha'
p3312
sg5
I21
sg6
S'https://open.spotify.com/track/1FUViuNSldssMIawrOXF2i'
p3313
sg8
S'I Got You'
p3314
ssS'0CokSRCu5hZgPxcZBaEzVE'
p3315
(dp3316
g3
S'Macklemore'
p3317
sg5
I3
sg6
S'https://open.spotify.com/track/0CokSRCu5hZgPxcZBaEzVE'
p3318
sg8
S'Glorious (feat. Skylar Grey)'
p3319
ssS'2Y7vHNr6cQhfmqplHqSHJJ'
p3320
(dp3321
g3
S'SFB'
p3322
sg5
I1
sg6
S'https://open.spotify.com/track/2Y7vHNr6cQhfmqplHqSHJJ'
p3323
sg8
S'Hope & Pray'
p3324
ssS'3cNjgVBKTJ1SvKhunrCdVy'
p3325
(dp3326
g3
S'Joel Adams'
p3327
sg5
I11
sg6
S'https://open.spotify.com/track/3cNjgVBKTJ1SvKhunrCdVy'
p3328
sg8
S"Please Don't Go"
p3329
ssS'6OuV4vfyb8v3vGGGksqyKf'
p3330
(dp3331
g3
S'AJR'
p3332
sg5
I2
sg6
S'https://open.spotify.com/track/6OuV4vfyb8v3vGGGksqyKf'
p3333
sg8
S'Weak'
p3334
ssS'2ekn2ttSfGqwhhate0LSR0'
p3335
(dp3336
g3
S'Dua Lipa'
p3337
sg5
I14
sg6
S'https://open.spotify.com/track/2ekn2ttSfGqwhhate0LSR0'
p3338
sg8
S'New Rules'
p3339
ssS'1EifJutqv2tG7Cwwaq2ud4'
p3340
(dp3341
g3
S'Ninho'
p3342
sg5
I2
sg6
S'https://open.spotify.com/track/1EifJutqv2tG7Cwwaq2ud4'
p3343
sg8
S'Roro'
p3344
ssS'542Xd5qDeLBvgXZXhfW7LE'
p3345
(dp3346
g3
S'Vice'
p3347
sg5
I2
sg6
S'https://open.spotify.com/track/542Xd5qDeLBvgXZXhfW7LE'
p3348
sg8
S'Obsession (feat. Jon Bellion)'
p3349
ssS'4Q4jmPHwu0wrJvqrld0FQ6'
p3350
(dp3351
g3
S'Zara Larsson'
p3352
sg5
I18
sg6
S'https://open.spotify.com/track/4Q4jmPHwu0wrJvqrld0FQ6'
p3353
sg8
S'I Would Like'
p3354
ssS'5VEuraNSVxMTzDTtrmL3lQ'
p3355
(dp3356
g3
S'Bing Crosby'
p3357
sg5
I1
sg6
S'https://open.spotify.com/track/5VEuraNSVxMTzDTtrmL3lQ'
p3358
sg8
S'Winter Wonderland'
p3359
ssS'7yyRTcZmCiyzzJlNzGC9Ol'
p3360
(dp3361
g3
S'DRAM'
p3362
sg5
I10
sg6
S'https://open.spotify.com/track/7yyRTcZmCiyzzJlNzGC9Ol'
p3363
sg8
S'Broccoli (feat. Lil Yachty)'
p3364
ssS'6HViP4DVYa8gQtxLndmhwu'
p3365
(dp3366
g3
S'M\xc3\xb8me'
p3367
sg5
I6
sg6
S'https://open.spotify.com/track/6HViP4DVYa8gQtxLndmhwu'
p3368
sg8
S'Aloha'
p3369
ssS'3zHq9ouUJQFQRf3cm1rRLu'
p3370
(dp3371
g3
S'Ellie Goulding'
p3372
sg5
I1
sg6
S'https://open.spotify.com/track/3zHq9ouUJQFQRf3cm1rRLu'
p3373
sg8
S'Love Me Like You Do - From Fifty Shades Of Grey'
p3374
ssS'2jBleFNl3YK8lyJc1OvxXt'
p3375
(dp3376
g3
S'PNL'
p3377
sg5
I5
sg6
S'https://open.spotify.com/track/2jBleFNl3YK8lyJc1OvxXt'
p3378
sg8
S"Jusqu'au dernier gramme"
p3379
ssS'2CvOqDpQIMw69cCzWqr5yr'
p3380
(dp3381
g3
S'Beyonc\xc3\xa9'
p3382
sg5
I4
sg6
S'https://open.spotify.com/track/2CvOqDpQIMw69cCzWqr5yr'
p3383
sg8
S'Halo'
p3384
ssS'50msFiNJjsBfECIXyPMYxG'
p3385
(dp3386
g3
S"Lil' Kleine"
p3387
sg5
I3
sg6
S'https://open.spotify.com/track/50msFiNJjsBfECIXyPMYxG'
p3388
sg8
S'Commotie'
p3389
ssS'4ricyQVd20UQde1jpXCSuJ'
p3390
(dp3391
g3
S'Tony Bennett'
p3392
sg5
I1
sg6
S'https://open.spotify.com/track/4ricyQVd20UQde1jpXCSuJ'
p3393
sg8
S'Winter Wonderland'
p3394
ssS'2771LMNxwf62FTAdpJMQfM'
p3395
(dp3396
g3
S'Cardi B'
p3397
sg5
I8
sg6
S'https://open.spotify.com/track/2771LMNxwf62FTAdpJMQfM'
p3398
sg8
S'Bodak Yellow'
p3399
ssS'6PCUP3dWmTjcTtXY02oFdT'
p3400
(dp3401
g3
S'Ed Sheeran'
p3402
sg5
I40
sg6
S'https://open.spotify.com/track/6PCUP3dWmTjcTtXY02oFdT'
p3403
sg8
S'Castle on the Hill'
p3404
ssS'1wsnCfewxZlCs7cJxkaMZM'
p3405
(dp3406
g3
S'Queens of the Stone Age'
p3407
sg5
I1
sg6
S'https://open.spotify.com/track/1wsnCfewxZlCs7cJxkaMZM'
p3408
sg8
S'The Way You Used to Do'
p3409
ssS'5EUkhFOOwnJ0F4JPIor5m8'
p3410
(dp3411
g3
S'Ronnie Flex'
p3412
sg5
I1
sg6
S'https://open.spotify.com/track/5EUkhFOOwnJ0F4JPIor5m8'
p3413
sg8
S'Come Again'
p3414
ssS'51PIvodunv6NmX5250zxAh'
p3415
(dp3416
g3
S'Lady Gaga'
p3417
sg5
I13
sg6
S'https://open.spotify.com/track/51PIvodunv6NmX5250zxAh'
p3418
sg8
S'The Cure'
p3419
ssS'0jeJR3LdrC2QJNviq7wjzp'
p3420
(dp3421
g3
S'alt-J'
p3422
sg5
I1
sg6
S'https://open.spotify.com/track/0jeJR3LdrC2QJNviq7wjzp'
p3423
sg8
S'In Cold Blood'
p3424
ssS'5pvVAwQbuFoR7LkcicrKnk'
p3425
(dp3426
g3
S'Vice'
p3427
sg5
I9
sg6
S'https://open.spotify.com/track/5pvVAwQbuFoR7LkcicrKnk'
p3428
sg8
S'Obsession (feat. Jon Bellion)'
p3429
ssS'104buTcnP2AsxqB7U1FIZ4'
p3430
(dp3431
g3
S'Linkin Park'
p3432
sg5
I4
sg6
S'https://open.spotify.com/track/104buTcnP2AsxqB7U1FIZ4'
p3433
sg8
S'Heavy (feat. Kiiara)'
p3434
ssS'43jBqV3j3Xi1g6wO0bhIMd'
p3435
(dp3436
g3
S'Sage The Gemini'
p3437
sg5
I11
sg6
S'https://open.spotify.com/track/43jBqV3j3Xi1g6wO0bhIMd'
p3438
sg8
S'Now and Later'
p3439
ssS'2VgAFgQobMekLk4QJk93og'
p3440
(dp3441
g3
S'OG3NE'
p3442
sg5
I1
sg6
S'https://open.spotify.com/track/2VgAFgQobMekLk4QJk93og'
p3443
sg8
S'Lights and Shadows'
p3444
ssS'650OeHTLxZAQmb4aEbGmaA'
p3445
(dp3446
g3
S'Linkin Park'
p3447
sg5
I1
sg6
S'https://open.spotify.com/track/650OeHTLxZAQmb4aEbGmaA'
p3448
sg8
S'Good Goodbye (feat. Pusha T and Stormzy)'
p3449
ssS'1PSBzsahR2AKwLJgx8ehBj'
p3450
(dp3451
g3
S'Machine Gun Kelly'
p3452
sg5
I14
sg6
S'https://open.spotify.com/track/1PSBzsahR2AKwLJgx8ehBj'
p3453
sg8
S'Bad Things (with Camila Cabello)'
p3454
ssS'3mwVeBjvU3o3NQ4LBWvN6p'
p3455
(dp3456
g3
S'Gers Pardoel'
p3457
sg5
I2
sg6
S'https://open.spotify.com/track/3mwVeBjvU3o3NQ4LBWvN6p'
p3458
sg8
S'Anne - Uit Liefde Voor Muziek'
p3459
ssS'7KOlJ92bu51cltsD9KU5I7'
p3460
(dp3461
g3
S'Migos'
p3462
sg5
I9
sg6
S'https://open.spotify.com/track/7KOlJ92bu51cltsD9KU5I7'
p3463
sg8
S'T-Shirt'
p3464
ssS'0D8ZpOXVjapLXrjz5VfZSD'
p3465
(dp3466
g3
S'Sam Smith'
p3467
sg5
I1
sg6
S'https://open.spotify.com/track/0D8ZpOXVjapLXrjz5VfZSD'
p3468
sg8
S'Pray'
p3469
ssS'6YHNKVx7gSsOX7xq6jaqeq'
p3470
(dp3471
g3
S'Nekfeu'
p3472
sg5
I4
sg6
S'https://open.spotify.com/track/6YHNKVx7gSsOX7xq6jaqeq'
p3473
sg8
S'Humano\xc3\xafde'
p3474
ssS'3m660poUr1chesgkkjQM7P'
p3475
(dp3476
g3
S'Demi Lovato'
p3477
sg5
I2
sg6
S'https://open.spotify.com/track/3m660poUr1chesgkkjQM7P'
p3478
sg8
S'Sorry Not Sorry'
p3479
ssS'3SGWp9fJCzgK0WcpcKSQdy'
p3480
(dp3481
g3
S'Stanaj'
p3482
sg5
I12
sg6
S'https://open.spotify.com/track/3SGWp9fJCzgK0WcpcKSQdy'
p3483
sg8
S'Romantic - NOTD Remix'
p3484
ssS'7DRVOwHIJLIlAFG1pWYXoS'
p3485
(dp3486
g3
S'The National'
p3487
sg5
I1
sg6
S'https://open.spotify.com/track/7DRVOwHIJLIlAFG1pWYXoS'
p3488
sg8
S'Nobody Else Will Be There'
p3489
ssS'7rPLZ8Krm6CZIbraFUlnWZ'
p3490
(dp3491
g3
S'Adele'
p3492
sg5
I5
sg6
S'https://open.spotify.com/track/7rPLZ8Krm6CZIbraFUlnWZ'
p3493
sg8
S'Make You Feel My Love'
p3494
ssS'1Vej0qeQ3ioKwpI6FUbRv1'
p3495
(dp3496
g3
S'Linkin Park'
p3497
sg5
I1
sg6
S'https://open.spotify.com/track/1Vej0qeQ3ioKwpI6FUbRv1'
p3498
sg8
S'Papercut'
p3499
ssS'08GhiNwYij4HNVkBZnJvft'
p3500
(dp3501
g3
S'Ninho'
p3502
sg5
I3
sg6
S'https://open.spotify.com/track/08GhiNwYij4HNVkBZnJvft'
p3503
sg8
S'Mamacita'
p3504
ssS'661bbtA19xopO3lH0J4Qvr'
p3505
(dp3506
g3
S'The xx'
p3507
sg5
I2
sg6
S'https://open.spotify.com/track/661bbtA19xopO3lH0J4Qvr'
p3508
sg8
S'A Violent Noise'
p3509
ssS'3ebXMykcMXOcLeJ9xZ17XH'
p3510
(dp3511
g3
S'Martin Garrix'
p3512
sg5
I37
sg6
S'https://open.spotify.com/track/3ebXMykcMXOcLeJ9xZ17XH'
p3513
sg8
S'Scared to Be Lonely'
p3514
ssS'6fujklziTHa8uoM5OQSfIo'
p3515
(dp3516
g3
S'Rae Sremmurd'
p3517
sg5
I18
sg6
S'https://open.spotify.com/track/6fujklziTHa8uoM5OQSfIo'
p3518
sg8
S'Black Beatles'
p3519
ssS'19WjVVgXjdKXfLXoaDPwTM'
p3520
(dp3521
g3
S'Taylor Swift'
p3522
sg5
I5
sg6
S'https://open.spotify.com/track/19WjVVgXjdKXfLXoaDPwTM'
p3523
sg8
S'...Ready For It?'
p3524
ssS'27PmvZoffODNFW2p7ehZTQ'
p3525
(dp3526
g3
S'Kent Jones'
p3527
sg5
I1
sg6
S'https://open.spotify.com/track/27PmvZoffODNFW2p7ehZTQ'
p3528
sg8
S"Don't Mind"
p3529
ssS'7DM4BPaS7uofFul3ywMe46'
p3530
(dp3531
g3
S'Ricky Martin'
p3532
sg5
I2
sg6
S'https://open.spotify.com/track/7DM4BPaS7uofFul3ywMe46'
p3533
sg8
S"Vente Pa' Ca"
p3534
ssS'6UjfByV1lDLW0SOVQA4NAi'
p3535
(dp3536
g3
S'Drake'
p3537
sg5
I4
sg6
S'https://open.spotify.com/track/6UjfByV1lDLW0SOVQA4NAi'
p3538
sg8
S'Gyalchester'
p3539
ssS'7dl9BHIXXkBb3zsgWjRchZ'
p3540
(dp3541
g3
S'Niska'
p3542
sg5
I3
sg6
S'https://open.spotify.com/track/7dl9BHIXXkBb3zsgWjRchZ'
p3543
sg8
S'Fav\xc3\xa9las'
p3544
ssS'4gqMQftUs22F8pOGVn5Acr'
p3545
(dp3546
g3
S'Shawn Hook'
p3547
sg5
I5
sg6
S'https://open.spotify.com/track/4gqMQftUs22F8pOGVn5Acr'
p3548
sg8
S'Reminding Me'
p3549
ssS'3PEgB3fkiojxms35ntsTgs'
p3550
(dp3551
g3
S'Axwell /\\ Ingrosso'
p3552
sg5
I11
sg6
S'https://open.spotify.com/track/3PEgB3fkiojxms35ntsTgs'
p3553
sg8
S'More Than You Know'
p3554
ssS'4HeTbgW1dDHxE8LrNL5HDP'
p3555
(dp3556
g3
S'Ninho'
p3557
sg5
I2
sg6
S'https://open.spotify.com/track/4HeTbgW1dDHxE8LrNL5HDP'
p3558
sg8
S'Lov\xc3\xa9 (feat. Gradur)'
p3559
ssS'6CfrYuD3YRDYdYvH9jNtXY'
p3560
(dp3561
g3
S'Drake'
p3562
sg5
I2
sg6
S'https://open.spotify.com/track/6CfrYuD3YRDYdYvH9jNtXY'
p3563
sg8
S'No Long Talk'
p3564
ssS'7KsZHCfOitA5V9oQYVdltG'
p3565
(dp3566
g3
S'Arcade Fire'
p3567
sg5
I9
sg6
S'https://open.spotify.com/track/7KsZHCfOitA5V9oQYVdltG'
p3568
sg8
S'Everything Now'
p3569
ssS'57U26FwUclMqyZ5ylnPpw1'
p3570
(dp3571
g3
S'Damso'
p3572
sg5
I22
sg6
S'https://open.spotify.com/track/57U26FwUclMqyZ5ylnPpw1'
p3573
sg8
S'\xce\x91. Nwaar Is The New Black'
p3574
ssS'4GhhyQRc8SVY6y54huckGP'
p3575
(dp3576
g3
S"Lil' Kleine"
p3577
sg5
I3
sg6
S'https://open.spotify.com/track/4GhhyQRc8SVY6y54huckGP'
p3578
sg8
S'Vliegtuig'
p3579
ssS'0m2orA1i5lLZUOt9XLwSd0'
p3580
(dp3581
g3
S'Fifth Harmony'
p3582
sg5
I1
sg6
S'https://open.spotify.com/track/0m2orA1i5lLZUOt9XLwSd0'
p3583
sg8
S'He Like That'
p3584
ssS'26g6FFoDfV1ArdnIy28uST'
p3585
(dp3586
g3
S'Sad Eye'
p3587
sg5
I3
sg6
S'https://open.spotify.com/track/26g6FFoDfV1ArdnIy28uST'
p3588
sg8
S'Come Home'
p3589
ssS'7aiVBCp1ibIWE5GeHkbtxr'
p3590
(dp3591
g3
S'Britney Spears'
p3592
sg5
I1
sg6
S'https://open.spotify.com/track/7aiVBCp1ibIWE5GeHkbtxr'
p3593
sg8
S'My Only Wish (This Year)'
p3594
ssS'3SqvR3HYLlCTYzbDXJ52OC'
p3595
(dp3596
g3
S'LP'
p3597
sg5
I18
sg6
S'https://open.spotify.com/track/3SqvR3HYLlCTYzbDXJ52OC'
p3598
sg8
S'Lost on You'
p3599
ssS'5lns1XJ9lTCMRBmqlhQDTZ'
p3600
(dp3601
g3
S'Niska'
p3602
sg5
I3
sg6
S'https://open.spotify.com/track/5lns1XJ9lTCMRBmqlhQDTZ'
p3603
sg8
S'B.O.C'
p3604
ssS'0UeYCHOETPfai02uskjJ3x'
p3605
(dp3606
g3
S'Bag Raiders'
p3607
sg5
I4
sg6
S'https://open.spotify.com/track/0UeYCHOETPfai02uskjJ3x'
p3608
sg8
S'Shooting Stars'
p3609
ssS'0B8B8cVRFIG1yznoQe7c9s'
p3610
(dp3611
g3
S'The Chainsmokers'
p3612
sg5
I9
sg6
S'https://open.spotify.com/track/0B8B8cVRFIG1yznoQe7c9s'
p3613
sg8
S'Setting Fires'
p3614
ssS'5jjc5eyHBxy4q3xjYgiEjw'
p3615
(dp3616
g3
S'5NAPBACK'
p3617
sg5
I2
sg6
S'https://open.spotify.com/track/5jjc5eyHBxy4q3xjYgiEjw'
p3618
sg8
S'Rain On Me feat. Mahan Moin'
p3619
ssS'02WacdrRpm4zlP8H7X6bnQ'
p3620
(dp3621
g3
S'Calum Scott'
p3622
sg5
I11
sg6
S'https://open.spotify.com/track/02WacdrRpm4zlP8H7X6bnQ'
p3623
sg8
S'Dancing On My Own'
p3624
ssS'1mDGDb2fUmUMdqV3tb8VKQ'
p3625
(dp3626
g3
S'Halsey'
p3627
sg5
I1
sg6
S'https://open.spotify.com/track/1mDGDb2fUmUMdqV3tb8VKQ'
p3628
sg8
S'Now Or Never'
p3629
ssS'1eeMYjuph7DQ1WOkMH7YA3'
p3630
(dp3631
g3
S'Lost Frequencies'
p3632
sg5
I1
sg6
S'https://open.spotify.com/track/1eeMYjuph7DQ1WOkMH7YA3'
p3633
sg8
S'Here with You'
p3634
ssS'7qs2GAglLWfxEfmO8u2u0A'
p3635
(dp3636
g3
S'Loote'
p3637
sg5
I7
sg6
S'https://open.spotify.com/track/7qs2GAglLWfxEfmO8u2u0A'
p3638
sg8
S'High Without Your Love'
p3639
ssS'6OZh916QF8XNunWaP97WEZ'
p3640
(dp3641
g3
S'Jonas Blue'
p3642
sg5
I16
sg6
S'https://open.spotify.com/track/6OZh916QF8XNunWaP97WEZ'
p3643
sg8
S'Fast Car'
p3644
ssS'2rizacJSyD9S1IQUxUxnsK'
p3645
(dp3646
g3
S'The Chainsmokers'
p3647
sg5
I15
sg6
S'https://open.spotify.com/track/2rizacJSyD9S1IQUxUxnsK'
p3648
sg8
S'All We Know'
p3649
ssS'2QXNsj3HmqbDqbw0R9F5zo'
p3650
(dp3651
g3
S'Sofiane'
p3652
sg5
I1
sg6
S'https://open.spotify.com/track/2QXNsj3HmqbDqbw0R9F5zo'
p3653
sg8
S'Toka'
p3654
ssS'6RsWqX8zABZLhZydXxEFOm'
p3655
(dp3656
g3
S'The Weeknd'
p3657
sg5
I1
sg6
S'https://open.spotify.com/track/6RsWqX8zABZLhZydXxEFOm'
p3658
sg8
S"Can't Feel My Face"
p3659
ssS'79NlESqzFSW0hdBWgls4FX'
p3660
(dp3661
g3
S'Kesha'
p3662
sg5
I5
sg6
S'https://open.spotify.com/track/79NlESqzFSW0hdBWgls4FX'
p3663
sg8
S'Praying'
p3664
ssS'0tgVpDi06FyKpA1z0VMD4v'
p3665
(dp3666
g3
S'Ed Sheeran'
p3667
sg5
I32
sg6
S'https://open.spotify.com/track/0tgVpDi06FyKpA1z0VMD4v'
p3668
sg8
S'Perfect'
p3669
ssS'46pF1zFimM582ss1PrMy68'
p3670
(dp3671
g3
S'Darlene Love'
p3672
sg5
I1
sg6
S'https://open.spotify.com/track/46pF1zFimM582ss1PrMy68'
p3673
sg8
S'Christmas (Baby Please Come Home)'
p3674
ssS'2Vdub5mY4lad7w64bFPUez'
p3675
(dp3676
g3
S'Pitbull'
p3677
sg5
I1
sg6
S'https://open.spotify.com/track/2Vdub5mY4lad7w64bFPUez'
p3678
sg8
S'Hey Ma (with Pitbull & J Balvin feat. Camila Cabello) - Spanish Version'
p3679
ssS'4Z1fbYp0HuxLBje4MOZcSD'
p3680
(dp3681
g3
S'The Beatles'
p3682
sg5
I1
sg6
S'https://open.spotify.com/track/4Z1fbYp0HuxLBje4MOZcSD'
p3683
sg8
S'Twist And Shout - Remastered 2009'
p3684
ssS'5wYLW17fs9JOolzR2W3AmM'
p3685
(dp3686
g3
S'alt-J'
p3687
sg5
I1
sg6
S'https://open.spotify.com/track/5wYLW17fs9JOolzR2W3AmM'
p3688
sg8
S'3WW'
p3689
ssS'6cAKeFFYW2aClZSUyvqAEW'
p3690
(dp3691
g3
S'Isaiah'
p3692
sg5
I11
sg6
S'https://open.spotify.com/track/6cAKeFFYW2aClZSUyvqAEW'
p3693
sg8
S"It's Gotta Be You"
p3694
ssS'26hcyzSE154xMZCbFdtInA'
p3695
(dp3696
g3
S'KREAM'
p3697
sg5
I8
sg6
S'https://open.spotify.com/track/26hcyzSE154xMZCbFdtInA'
p3698
sg8
S'Taped Up Heart (feat. Clara Mae)'
p3699
ssS'75gJj5hYRFOi5LKCstPcaD'
p3700
(dp3701
g3
S'Boef'
p3702
sg5
I7
sg6
S'https://open.spotify.com/track/75gJj5hYRFOi5LKCstPcaD'
p3703
sg8
S'Fetty Wap'
p3704
ssS'34i4yxPrHWquuR4kjiivFO'
p3705
(dp3706
g3
S'V\xc3\x89RIT\xc3\x89'
p3707
sg5
I7
sg6
S'https://open.spotify.com/track/34i4yxPrHWquuR4kjiivFO'
p3708
sg8
S'Somebody Else'
p3709
ssS'3GpH5Vdf5AOjkkf9Uo7kvd'
p3710
(dp3711
g3
S'Lijpe'
p3712
sg5
I2
sg6
S'https://open.spotify.com/track/3GpH5Vdf5AOjkkf9Uo7kvd'
p3713
sg8
S'Doe Rustig!'
p3714
ssS'1onfcprzpSGh2LqrBh17AA'
p3715
(dp3716
g3
S'The xx'
p3717
sg5
I2
sg6
S'https://open.spotify.com/track/1onfcprzpSGh2LqrBh17AA'
p3718
sg8
S'Lips'
p3719
ssS'2wDjpPW3HZdA9quPPmZAMu'
p3720
(dp3721
g3
S'Cashmere Cat'
p3722
sg5
I6
sg6
S'https://open.spotify.com/track/2wDjpPW3HZdA9quPPmZAMu'
p3723
sg8
S'Trust Nobody (feat. Selena Gomez & Tory Lanez)'
p3724
ssS'6Fha6tXHkL3r9m9nNqQG8p'
p3725
(dp3726
g3
S'Vance Joy'
p3727
sg5
I1
sg6
S'https://open.spotify.com/track/6Fha6tXHkL3r9m9nNqQG8p'
p3728
sg8
S'Georgia'
p3729
ssS'1hvpDAxZPKjKztOc72sv06'
p3730
(dp3731
g3
S'Band Aid'
p3732
sg5
I1
sg6
S'https://open.spotify.com/track/1hvpDAxZPKjKztOc72sv06'
p3733
sg8
S"Do They Know It's Christmas? - 1984 Version"
p3734
ssS'75UFzgBCaVwJJ4IVIaatpe'
p3735
(dp3736
g3
S'Damso'
p3737
sg5
I24
sg6
S'https://open.spotify.com/track/75UFzgBCaVwJJ4IVIaatpe'
p3738
sg8
S'N. J Respect R'
p3739
ssS'49EgauTc1cGkHwPGCaHh1f'
p3740
(dp3741
g3
S'Lil Yachty'
p3742
sg5
I1
sg6
S'https://open.spotify.com/track/49EgauTc1cGkHwPGCaHh1f'
p3743
sg8
S'Better'
p3744
ssS'0hNduWmlWmEmuwEFcYvRu1'
p3745
(dp3746
g3
S'Petit Biscuit'
p3747
sg5
I42
sg6
S'https://open.spotify.com/track/0hNduWmlWmEmuwEFcYvRu1'
p3748
sg8
S'Sunset Lover'
p3749
ssS'6kavAQFHkoKBukku7M68OG'
p3750
(dp3751
g3
S'MATTN'
p3752
sg5
I11
sg6
S'https://open.spotify.com/track/6kavAQFHkoKBukku7M68OG'
p3753
sg8
S'Let The Song Play'
p3754
ssS'1x5sYLZiu9r5E43kMlt9f8'
p3755
(dp3756
g3
S'Clean Bandit'
p3757
sg5
I30
sg6
S'https://open.spotify.com/track/1x5sYLZiu9r5E43kMlt9f8'
p3758
sg8
S'Symphony (feat. Zara Larsson)'
p3759
ssS'32LHcw3FjMQKNddzrQNYJ4'
p3760
(dp3761
g3
S'Boef'
p3762
sg5
I9
sg6
S'https://open.spotify.com/track/32LHcw3FjMQKNddzrQNYJ4'
p3763
sg8
S'Range Sessie (album intro)'
p3764
ssS'7sMPXHS84uuTGeb21IgXnU'
p3765
(dp3766
g3
S'Josylvio'
p3767
sg5
I3
sg6
S'https://open.spotify.com/track/7sMPXHS84uuTGeb21IgXnU'
p3768
sg8
S'Ride Or Die'
p3769
ssS'6IeK3Ap5m3HabwJxgI6eSE'
p3770
(dp3771
g3
S'Perry Como'
p3772
sg5
I1
sg6
S'https://open.spotify.com/track/6IeK3Ap5m3HabwJxgI6eSE'
p3773
sg8
S"It's Beginning to Look a Lot Like Christmas"
p3774
ssS'3QFlvwT0TgUGqgWrjDfI3G'
p3775
(dp3776
g3
S'Regi'
p3777
sg5
I4
sg6
S'https://open.spotify.com/track/3QFlvwT0TgUGqgWrjDfI3G'
p3778
sg8
S'Where Did You Go (Summer Love)'
p3779
ssS'5SE57ljOIUJ1ybL9U6CuBH'
p3780
(dp3781
g3
S'BTS'
p3782
sg5
I3
sg6
S'https://open.spotify.com/track/5SE57ljOIUJ1ybL9U6CuBH'
p3783
sg8
S'DNA'
p3784
ssS'3bVbQvGVIe4n24AzyXovXh'
p3785
(dp3786
g3
g1587
sg5
I1
sg6
S'https://open.spotify.com/track/3bVbQvGVIe4n24AzyXovXh'
p3787
sg8
g1587
ssS'2r6C2IEw533mDs3sam5Zxx'
p3788
(dp3789
g3
S'Niska'
p3790
sg5
I3
sg6
S'https://open.spotify.com/track/2r6C2IEw533mDs3sam5Zxx'
p3791
sg8
S'Tuba Life'
p3792
ssS'6SwRhMLwNqEi6alNPVG00n'
p3793
(dp3794
g3
S'Kendrick Lamar'
p3795
sg5
I7
sg6
S'https://open.spotify.com/track/6SwRhMLwNqEi6alNPVG00n'
p3796
sg8
S'LOYALTY. FEAT. RIHANNA.'
p3797
ssS'2HzfRSfCogBSsgW2CckVA2'
p3798
(dp3799
g3
S'Luke Christopher'
p3800
sg5
I1
sg6
S'https://open.spotify.com/track/2HzfRSfCogBSsgW2CckVA2'
p3801
sg8
S'Lot to Learn'
p3802
ssS'4Sd5tbNP4q8wS64abqwfkN'
p3803
(dp3804
g3
S'The War On Drugs'
p3805
sg5
I2
sg6
S'https://open.spotify.com/track/4Sd5tbNP4q8wS64abqwfkN'
p3806
sg8
S'Thinking Of A Place'
p3807
ssS'3sVLKkIEASU95IPzUx5fRp'
p3808
(dp3809
g3
S'Oscar and the Wolf'
p3810
sg5
I1
sg6
S'https://open.spotify.com/track/3sVLKkIEASU95IPzUx5fRp'
p3811
sg8
S'Honey'
p3812
ssS'0FDzzruyVECATHXKHFs9eJ'
p3813
(dp3814
g3
S'Coldplay'
p3815
sg5
I1
sg6
S'https://open.spotify.com/track/0FDzzruyVECATHXKHFs9eJ'
p3816
sg8
S'A Sky Full of Stars'
p3817
ssS'0tKcYR2II1VCQWT79i5NrW'
p3818
(dp3819
g3
S'Imagine Dragons'
p3820
sg5
I21
sg6
S'https://open.spotify.com/track/0tKcYR2II1VCQWT79i5NrW'
p3821
sg8
S'Thunder'
p3822
ssS'3yvlcIteooc31cPjyWPTw1'
p3823
(dp3824
g3
S'U2'
p3825
sg5
I1
sg6
S'https://open.spotify.com/track/3yvlcIteooc31cPjyWPTw1'
p3826
sg8
S'With Or Without You'
p3827
ssS'4Rg9TAzx7mq7MEmEFdQzIb'
p3828
(dp3829
g3
S'Lijpe'
p3830
sg5
I1
sg6
S'https://open.spotify.com/track/4Rg9TAzx7mq7MEmEFdQzIb'
p3831
sg8
S'Doe Rustig!'
p3832
ssS'6DNtNfH8hXkqOX1sjqmI7p'
p3833
(dp3834
g3
S'Major Lazer'
p3835
sg5
I25
sg6
S'https://open.spotify.com/track/6DNtNfH8hXkqOX1sjqmI7p'
p3836
sg8
S'Cold Water (feat. Justin Bieber & M\xc3\x98)'
p3837
ssS'2ytH5wDuqhgLTiDVYioteq'
p3838
(dp3839
g3
S'Jax Jones'
p3840
sg5
I2
sg6
S'https://open.spotify.com/track/2ytH5wDuqhgLTiDVYioteq'
p3841
sg8
S'Instruction'
p3842
ssS'5NNlUMcOEOdoOIwwaWXv0k'
p3843
(dp3844
g3
S'Maroon 5'
p3845
sg5
I17
sg6
S'https://open.spotify.com/track/5NNlUMcOEOdoOIwwaWXv0k'
p3846
sg8
S'Cold'
p3847
ssS'5XQMr19TL7Mfksq9zihbOu'
p3848
(dp3849
g3
S'Chris Brown'
p3850
sg5
I8
sg6
S'https://open.spotify.com/track/5XQMr19TL7Mfksq9zihbOu'
p3851
sg8
S'Questions'
p3852
ssS'1sXUWdKx03aP9Gmzft58rt'
p3853
(dp3854
g3
S'Julia Michaels'
p3855
sg5
I27
sg6
S'https://open.spotify.com/track/1sXUWdKx03aP9Gmzft58rt'
p3856
sg8
S'Issues'
p3857
ssS'7y4ELJ02ZssUMSkJiTfq2o'
p3858
(dp3859
g3
S'Niska'
p3860
sg5
I3
sg6
S'https://open.spotify.com/track/7y4ELJ02ZssUMSkJiTfq2o'
p3861
sg8
S"Chasse \xc3\xa0 l'homme"
p3862
ssS'4jH5WLjSoNW8t2GKjv3dn5'
p3863
(dp3864
g3
S'Sevn Alias'
p3865
sg5
I1
sg6
S'https://open.spotify.com/track/4jH5WLjSoNW8t2GKjv3dn5'
p3866
sg8
S'Rijk Moeten Zijn'
p3867
ssS'3QiAAp20rPC3dcAtKtMaqQ'
p3868
(dp3869
g3
S'Elvis Presley'
p3870
sg5
I1
sg6
S'https://open.spotify.com/track/3QiAAp20rPC3dcAtKtMaqQ'
p3871
sg8
S'Blue Christmas'
p3872
ssS'7IWkJwX9C0J7tHurTD7ViL'
p3873
(dp3874
g3
S'Adele'
p3875
sg5
I8
sg6
S'https://open.spotify.com/track/7IWkJwX9C0J7tHurTD7ViL'
p3876
sg8
S'When We Were Young'
p3877
ssS'5t9fmZx0pcNxLykKTv6eOe'
p3878
(dp3879
g3
S'Nekfeu'
p3880
sg5
I5
sg6
S'https://open.spotify.com/track/5t9fmZx0pcNxLykKTv6eOe'
p3881
sg8
S'Saturne'
p3882
ssS'4tM13V5qVHM6nKTx7aMWVj'
p3883
(dp3884
g3
S'Jebroer'
p3885
sg5
I32
sg6
S'https://open.spotify.com/track/4tM13V5qVHM6nKTx7aMWVj'
p3886
sg8
S'Kind Van De Duivel'
p3887
ssS'1zayuwd1YLZsYDArkruHdL'
p3888
(dp3889
g3
S'Kendrick Lamar'
p3890
sg5
I2
sg6
S'https://open.spotify.com/track/1zayuwd1YLZsYDArkruHdL'
p3891
sg8
S'The Heart Part 4'
p3892
ssS'1l0snphuGKSJPTczjmcjKH'
p3893
(dp3894
g3
S'Van Echelpoel'
p3895
sg5
I15
sg6
S'https://open.spotify.com/track/1l0snphuGKSJPTczjmcjKH'
p3896
sg8
S'Sinds Nen Dag Of 2 (38 Jaar)'
p3897
ssS'14oOKFGuXu8DqvOe1W8vao'
p3898
(dp3899
g3
S'Katy Perry'
p3900
sg5
I2
sg6
S'https://open.spotify.com/track/14oOKFGuXu8DqvOe1W8vao'
p3901
sg8
S'Bon App\xc3\xa9tit'
p3902
ssS'4BHSjbYylfOH5WAGusDyni'
p3903
(dp3904
g3
S'Kendrick Lamar'
p3905
sg5
I3
sg6
S'https://open.spotify.com/track/4BHSjbYylfOH5WAGusDyni'
p3906
sg8
S'YAH.'
p3907
ssS'4uoumbAMEMaKdtiv763jKz'
p3908
(dp3909
g3
S'Zara Larsson'
p3910
sg5
I21
sg6
S'https://open.spotify.com/track/4uoumbAMEMaKdtiv763jKz'
p3911
sg8
S'TG4M'
p3912
ssS'6WhzFzROw3aq3rPWjgYlxr'
p3913
(dp3914
g3
S'Kiiara'
p3915
sg5
I7
sg6
S'https://open.spotify.com/track/6WhzFzROw3aq3rPWjgYlxr'
p3916
sg8
S'Gold'
p3917
ssS'2ISl1zekPsc26sUQpVt8UB'
p3918
(dp3919
g3
S"Shakin' Stevens"
p3920
sg5
I1
sg6
S'https://open.spotify.com/track/2ISl1zekPsc26sUQpVt8UB'
p3921
sg8
S'Merry Christmas Everyone - Remastered'
p3922
ssS'2pJZ1v8HezrAoZ0Fhzby92'
p3923
(dp3924
g3
S'Ed Sheeran'
p3925
sg5
I10
sg6
S'https://open.spotify.com/track/2pJZ1v8HezrAoZ0Fhzby92'
p3926
sg8
S'What Do I Know?'
p3927
ssS'6y2Kaz9QI01XBKJ8mTb7Pf'
p3928
(dp3929
g3
S"Rag'n'Bone Man"
p3930
sg5
I28
sg6
S'https://open.spotify.com/track/6y2Kaz9QI01XBKJ8mTb7Pf'
p3931
sg8
S'Skin'
p3932
ssS'0LMv3sc83AI7tJCkvSWPvO'
p3933
(dp3934
g3
S'Orelsan'
p3935
sg5
I3
sg6
S'https://open.spotify.com/track/0LMv3sc83AI7tJCkvSWPvO'
p3936
sg8
S'Basique'
p3937
ssS'1Slwb6dOYkBlWal1PGtnNg'
p3938
(dp3939
g3
S'Ed Sheeran'
p3940
sg5
I42
sg6
S'https://open.spotify.com/track/1Slwb6dOYkBlWal1PGtnNg'
p3941
sg8
S'Thinking Out Loud'
p3942
ssS'3kXqUXnukwkpsxhW8emNC0'
p3943
(dp3944
g3
S'Blanche'
p3945
sg5
I26
sg6
S'https://open.spotify.com/track/3kXqUXnukwkpsxhW8emNC0'
p3946
sg8
S'City Lights'
p3947
ssS'2fgk04HR0nlgNysfX7fKF0'
p3948
(dp3949
g3
S'Lorenzo'
p3950
sg5
I8
sg6
S'https://open.spotify.com/track/2fgk04HR0nlgNysfX7fKF0'
p3951
sg8
S'Fume \xc3\xa0 fond'
p3952
ssS'3B54sVLJ402zGa6Xm4YGNe'
p3953
(dp3954
g3
S'French Montana'
p3955
sg5
I14
sg6
S'https://open.spotify.com/track/3B54sVLJ402zGa6Xm4YGNe'
p3956
sg8
S'Unforgettable'
p3957
ssS'6N9FSZAEYdWG7rhW8XXbUg'
p3958
(dp3959
g3
S'SFB'
p3960
sg5
I2
sg6
S'https://open.spotify.com/track/6N9FSZAEYdWG7rhW8XXbUg'
p3961
sg8
S'Way It Goes'
p3962
ssS'3oUZXcz9WLNO71yHAumFbH'
p3963
(dp3964
g3
S'Dimitri Vegas & Like Mike'
p3965
sg5
I17
sg6
S'https://open.spotify.com/track/3oUZXcz9WLNO71yHAumFbH'
p3966
sg8
S'Hey Baby'
p3967
ssS'3yrSvpt2l1xhsV9Em88Pul'
p3968
(dp3969
g3
S'Van Morrison'
p3970
sg5
I1
sg6
S'https://open.spotify.com/track/3yrSvpt2l1xhsV9Em88Pul'
p3971
sg8
S'Brown Eyed Girl'
p3972
ssS'2habSXqcJGExM6JJyskY7O'
p3973
(dp3974
g3
S'Miley Cyrus'
p3975
sg5
I20
sg6
S'https://open.spotify.com/track/2habSXqcJGExM6JJyskY7O'
p3976
sg8
S'Malibu'
p3977
ssS'5Ua3GXyHwiSfpNTMjq6m2z'
p3978
(dp3979
g3
S'Little Mix'
p3980
sg5
I29
sg6
S'https://open.spotify.com/track/5Ua3GXyHwiSfpNTMjq6m2z'
p3981
sg8
S'Touch'
p3982
ssS'6i0V12jOa3mr6uu4WYhUBr'
p3983
(dp3984
g3
S'Twenty One Pilots'
p3985
sg5
I22
sg6
S'https://open.spotify.com/track/6i0V12jOa3mr6uu4WYhUBr'
p3986
sg8
S'Heathens'
p3987
ssS'1louJpMmzEicAn7lzDalPW'
p3988
(dp3989
g3
S'Cheat Codes'
p3990
sg5
I28
sg6
S'https://open.spotify.com/track/1louJpMmzEicAn7lzDalPW'
p3991
sg8
S'No Promises (feat. Demi Lovato)'
p3992
ssS'4PsohxvstXN2aaYCNQrCvm'
p3993
(dp3994
g3
S'Tourist LeMC'
p3995
sg5
I11
sg6
S'https://open.spotify.com/track/4PsohxvstXN2aaYCNQrCvm'
p3996
sg8
S'Horizon'
p3997
ssS'1HTtUBEY3tuw2btgwwI2Ja'
p3998
(dp3999
g3
S'Gucci Mane'
p4000
sg5
I5
sg6
S'https://open.spotify.com/track/1HTtUBEY3tuw2btgwwI2Ja'
p4001
sg8
S'I Get The Bag (feat. Migos)'
p4002
ssS'40UroIGvsMPLPBYwH8rMNA'
p4003
(dp4004
g3
S'Vice'
p4005
sg5
I7
sg6
S'https://open.spotify.com/track/40UroIGvsMPLPBYwH8rMNA'
p4006
sg8
S'Steady 1234 (feat. Jasmine Thompson & Skizzy Mars)'
p4007
ssS'5nA67Y0XX9JipZwYxX7Gl7'
p4008
(dp4009
g3
S'Niall Horan'
p4010
sg5
I11
sg6
S'https://open.spotify.com/track/5nA67Y0XX9JipZwYxX7Gl7'
p4011
sg8
S'This Town'
p4012
ssS'6bXd0YhKLCTvlLVc4tErH9'
p4013
(dp4014
g3
S'Jul'
p4015
sg5
I5
sg6
S'https://open.spotify.com/track/6bXd0YhKLCTvlLVc4tErH9'
p4016
sg8
S'Tchikita'
p4017
ssS'5153LWKMJiMNIRCChGN4Ja'
p4018
(dp4019
g3
S'Mike Perry'
p4020
sg5
I3
sg6
S'https://open.spotify.com/track/5153LWKMJiMNIRCChGN4Ja'
p4021
sg8
S'Hands'
p4022
ssS'0SuG9kyzGRpDqrCWtgD6Lq'
p4023
(dp4024
g3
S'Ed Sheeran'
p4025
sg5
I1
sg6
S'https://open.spotify.com/track/0SuG9kyzGRpDqrCWtgD6Lq'
p4026
sg8
S'Give Me Love'
p4027
ssS'1Tdjuqth02Y1CNeVMb6UwZ'
p4028
(dp4029
g3
S"Lil' Kleine"
p4030
sg5
I16
sg6
S'https://open.spotify.com/track/1Tdjuqth02Y1CNeVMb6UwZ'
p4031
sg8
S'Liegen Voor Jou'
p4032
ssS'2YsP3FsnEeADADNxjYVMrG'
p4033
(dp4034
g3
S'Armin van Buuren'
p4035
sg5
I7
sg6
S'https://open.spotify.com/track/2YsP3FsnEeADADNxjYVMrG'
p4036
sg8
S'I Need You'
p4037
ssS'7wiESxCGoUkRdgZF2JOLZu'
p4038
(dp4039
g3
S'Phil Spector'
p4040
sg5
I1
sg6
S'https://open.spotify.com/track/7wiESxCGoUkRdgZF2JOLZu'
p4041
sg8
S'Sleigh Ride'
p4042
ssS'1YSqt7M3WZe5Fgdu5KUruc'
p4043
(dp4044
g3
S'Ninho'
p4045
sg5
I1
sg6
S'https://open.spotify.com/track/1YSqt7M3WZe5Fgdu5KUruc'
p4046
sg8
S'Carbozo'
p4047
ssS'5yQHRt2jsjQdj0WNASwvKK'
p4048
(dp4049
g3
S'The Boy Next Door'
p4050
sg5
I4
sg6
S'https://open.spotify.com/track/5yQHRt2jsjQdj0WNASwvKK'
p4051
sg8
S'La Colegiala'
p4052
ssS'6fxVffaTuwjgEk5h9QyRjy'
p4053
(dp4054
g3
S'Ed Sheeran'
p4055
sg5
I42
sg6
S'https://open.spotify.com/track/6fxVffaTuwjgEk5h9QyRjy'
p4056
sg8
S'Photograph'
p4057
ssS'2kVHAQKVtczchKctctzbtK'
p4058
(dp4059
g3
S'Katy Perry'
p4060
sg5
I17
sg6
S'https://open.spotify.com/track/2kVHAQKVtczchKctctzbtK'
p4061
sg8
S'Swish Swish'
p4062
ssS'4nomi6sWpSWVIqwS9wgZMi'
p4063
(dp4064
g3
S"Lil' Kleine"
p4065
sg5
I2
sg6
S'https://open.spotify.com/track/4nomi6sWpSWVIqwS9wgZMi'
p4066
sg8
S'Commotie'
p4067
ssS'1VdZ0vKfR5jneCmWIUAMxK'
p4068
(dp4069
g3
S'Ed Sheeran'
p4070
sg5
I9
sg6
S'https://open.spotify.com/track/1VdZ0vKfR5jneCmWIUAMxK'
p4071
sg8
S'The A Team'
p4072
ssS'2mmL1vGmZ34ZV7tQ6qo61z'
p4073
(dp4074
g3
S'Hans Zimmer'
p4075
sg5
I11
sg6
S'https://open.spotify.com/track/2mmL1vGmZ34ZV7tQ6qo61z'
p4076
sg8
S"He's a Pirate - Hans Zimmer vs Dimitri Vegas & Like Mike / Bonus Track"
p4077
ssS'1wur1SW656paPv7EyTqWu4'
p4078
(dp4079
g3
S'C\xc3\xa9line Dion'
p4080
sg5
I1
sg6
S'https://open.spotify.com/track/1wur1SW656paPv7EyTqWu4'
p4081
sg8
S'Happy Xmas (War Is Over)'
p4082
ssS'7xE4vKvjqUTtHyJ9zi0k1q'
p4083
(dp4084
g3
S'Emma Stone'
p4085
sg5
I4
sg6
S'https://open.spotify.com/track/7xE4vKvjqUTtHyJ9zi0k1q'
p4086
sg8
S'Someone In The Crowd - From La La Land Soundtrack'
p4087
ssS'6nxQdXa1uAL0rY72wPZu89'
p4088
(dp4089
g3
S'John Legend'
p4090
sg5
I20
sg6
S'https://open.spotify.com/track/6nxQdXa1uAL0rY72wPZu89'
p4091
sg8
S'Love Me Now'
p4092
ssS'4L7Y2OAPiY2I2GndZjAs5K'
p4093
(dp4094
g3
S'Lana Del Rey'
p4095
sg5
I1
sg6
S'https://open.spotify.com/track/4L7Y2OAPiY2I2GndZjAs5K'
p4096
sg8
S'Lust For Life (with The Weeknd)'
p4097
ssS'6kex4EBAj0WHXDKZMEJaaF'
p4098
(dp4099
g3
S'Jason Derulo'
p4100
sg5
I32
sg6
S'https://open.spotify.com/track/6kex4EBAj0WHXDKZMEJaaF'
p4101
sg8
S'Swalla (feat. Nicki Minaj & Ty Dolla $ign)'
p4102
ssS'1s7voXUxRTw98pmy1J8urv'
p4103
(dp4104
g3
S'Mike Perry'
p4105
sg5
I1
sg6
S'https://open.spotify.com/track/1s7voXUxRTw98pmy1J8urv'
p4106
sg8
S'Hands'
p4107
ssS'6XGddj522FQRHXEhBtjiJu'
p4108
(dp4109
g3
S'Gorillaz'
p4110
sg5
I1
sg6
S'https://open.spotify.com/track/6XGddj522FQRHXEhBtjiJu'
p4111
sg8
S'Strobelite (feat. Peven Everett)'
p4112
ssS'10JBIfvldDR2TnT5sphGc2'
p4113
(dp4114
g3
S'Train'
p4115
sg5
I1
sg6
S'https://open.spotify.com/track/10JBIfvldDR2TnT5sphGc2'
p4116
sg8
S'Shake up Christmas'
p4117
ssS'3CS95zUyP8LhcWRe4PBQNc'
p4118
(dp4119
g3
S'Ronnie Flex'
p4120
sg5
I1
sg6
S'https://open.spotify.com/track/3CS95zUyP8LhcWRe4PBQNc'
p4121
sg8
S'Energie'
p4122
ssS'7LVHVU3tWfcxj5aiPFEW4Q'
p4123
(dp4124
g3
S'Coldplay'
p4125
sg5
I2
sg6
S'https://open.spotify.com/track/7LVHVU3tWfcxj5aiPFEW4Q'
p4126
sg8
S'Fix You'
p4127
ssS'2jfCy43LsFbCQoB6HyetlY'
p4128
(dp4129
g3
S'SJUR'
p4130
sg5
I4
sg6
S'https://open.spotify.com/track/2jfCy43LsFbCQoB6HyetlY'
p4131
sg8
S'Let Me Love You'
p4132
ssS'4pz0KRMGCwgqLcZ6bgQKLB'
p4133
(dp4134
g3
S'Lacrim'
p4135
sg5
I1
sg6
S'https://open.spotify.com/track/4pz0KRMGCwgqLcZ6bgQKLB'
p4136
sg8
S'Nuit blanche'
p4137
ssS'54LGxQGf5LPXNGjtzDZ5IE'
p4138
(dp4139
g3
S'Zara Larsson'
p4140
sg5
I1
sg6
S'https://open.spotify.com/track/54LGxQGf5LPXNGjtzDZ5IE'
p4141
sg8
S'So Good'
p4142
ssS'08WPvDEsHvTFuB9w8tC2OS'
p4143
(dp4144
g3
S'Sage The Gemini'
p4145
sg5
I1
sg6
S'https://open.spotify.com/track/08WPvDEsHvTFuB9w8tC2OS'
p4146
sg8
S'Now and Later'
p4147
ssS'3IV8xIrnjv7TdJY6KUmdrD'
p4148
(dp4149
g3
S'John Denver'
p4150
sg5
I1
sg6
S'https://open.spotify.com/track/3IV8xIrnjv7TdJY6KUmdrD'
p4151
sg8
S'Rudolph the Red Nosed Reindeer'
p4152
ssS'5lXcSvHRVjQJ3LB2rLKQog'
p4153
(dp4154
g3
S'Stevie Wonder'
p4155
sg5
I1
sg6
S'https://open.spotify.com/track/5lXcSvHRVjQJ3LB2rLKQog'
p4156
sg8
S'Superstition - Single Version'
p4157
ssS'4ZJPwET9Jrgpkqi4Vo3Yg8'
p4158
(dp4159
g3
S'Bebe Rexha'
p4160
sg5
I8
sg6
S'https://open.spotify.com/track/4ZJPwET9Jrgpkqi4Vo3Yg8'
p4161
sg8
S'Bad Bitch (feat. Ty Dolla $ign)'
p4162
ssS'1VoHrSS3QQ6TbpabLrFiYb'
p4163
(dp4164
g3
S'Alvaro Soler'
p4165
sg5
I3
sg6
S'https://open.spotify.com/track/1VoHrSS3QQ6TbpabLrFiYb'
p4166
sg8
S'Sofia'
p4167
ssS'48uizmUTBowYMNMKmlkyKn'
p4168
(dp4169
g3
S"Lil' Kleine"
p4170
sg5
I2
sg6
S'https://open.spotify.com/track/48uizmUTBowYMNMKmlkyKn'
p4171
sg8
S'Nooit Meer / Ooit Weer'
p4172
ssS'27GmP9AWRs744SzKcpJsTZ'
p4173
(dp4174
g3
S'Drake'
p4175
sg5
I1
sg6
S'https://open.spotify.com/track/27GmP9AWRs744SzKcpJsTZ'
p4176
sg8
S'Jumpman'
p4177
ssS'0Fv5N0cHBsl4bzCbollCAS'
p4178
(dp4179
g3
S'Big Sean'
p4180
sg5
I1
sg6
S'https://open.spotify.com/track/0Fv5N0cHBsl4bzCbollCAS'
p4181
sg8
S'Moves'
p4182
ssS'7KXjTSCq5nL1LoYtL7XAwS'
p4183
(dp4184
g3
S'Kendrick Lamar'
p4185
sg5
I28
sg6
S'https://open.spotify.com/track/7KXjTSCq5nL1LoYtL7XAwS'
p4186
sg8
S'HUMBLE.'
p4187
ssS'6tjituizSxwSmBB5vtgHZE'
p4188
(dp4189
g3
S'Michael Bubl\xc3\xa9'
p4190
sg5
I1
sg6
S'https://open.spotify.com/track/6tjituizSxwSmBB5vtgHZE'
p4191
sg8
S'Holly Jolly Christmas'
p4192
ssS'1R8eM53yWnjsfiWktgObe7'
p4193
(dp4194
g3
S'Micar'
p4195
sg5
I8
sg6
S'https://open.spotify.com/track/1R8eM53yWnjsfiWktgObe7'
p4196
sg8
S'Burden Down'
p4197
ssS'2Ae5awwKvQpTBKQHr1TYCg'
p4198
(dp4199
g3
S'Nause'
p4200
sg5
I4
sg6
S'https://open.spotify.com/track/2Ae5awwKvQpTBKQHr1TYCg'
p4201
sg8
S'Dynamite (feat. Pretty Sister)'
p4202
ssS'4wbmLB3IZzEIgi7VGAb0lf'
p4203
(dp4204
g3
S'Ninho'
p4205
sg5
I1
sg6
S'https://open.spotify.com/track/4wbmLB3IZzEIgi7VGAb0lf'
p4206
sg8
S'Pourquoi'
p4207
ssS'1eKJI88ws6C5CrYimq9aQ6'
p4208
(dp4209
g3
S'Lauv'
p4210
sg5
I5
sg6
S'https://open.spotify.com/track/1eKJI88ws6C5CrYimq9aQ6'
p4211
sg8
S'I Like Me Better - Ryan Riback Remix'
p4212
ssS'5n6PqPeh9jHIJDrTJabsDf'
p4213
(dp4214
g3
S"Lil' Kleine"
p4215
sg5
I2
sg6
S'https://open.spotify.com/track/5n6PqPeh9jHIJDrTJabsDf'
p4216
sg8
S'Vliegtuig'
p4217
ssS'3xXBsjrbG1xQIm1xv1cKOt'
p4218
(dp4219
g3
S'Linkin Park'
p4220
sg5
I2
sg6
S'https://open.spotify.com/track/3xXBsjrbG1xQIm1xv1cKOt'
p4221
sg8
S'One More Light'
p4222
ssS'6foxplXS0YEq8cO374Lty4'
p4223
(dp4224
g3
S'Lil Pump'
p4225
sg5
I3
sg6
S'https://open.spotify.com/track/6foxplXS0YEq8cO374Lty4'
p4226
sg8
S'Gucci Gang'
p4227
ssS'6Na5uKk5SsqZimk0hAWo8y'
p4228
(dp4229
g3
S'Drake'
p4230
sg5
I2
sg6
S'https://open.spotify.com/track/6Na5uKk5SsqZimk0hAWo8y'
p4231
sg8
S'Signs'
p4232
ssS'4gavOCQdZ2g86gkvi17FM7'
p4233
(dp4234
g3
S'Paul McCartney'
p4235
sg5
I1
sg6
S'https://open.spotify.com/track/4gavOCQdZ2g86gkvi17FM7'
p4236
sg8
S'Wonderful Christmastime - Remastered 2011 / Edited Version'
p4237
ssS'0leIhGny91OrU4mjcshsjI'
p4238
(dp4239
g3
S'Mud'
p4240
sg5
I1
sg6
S'https://open.spotify.com/track/0leIhGny91OrU4mjcshsjI'
p4241
sg8
S'Lonely This Christmas'
p4242
ssS'74ODGXs4byLTRdnKGM4s6E'
p4243
(dp4244
g3
S'LANY'
p4245
sg5
I11
sg6
S'https://open.spotify.com/track/74ODGXs4byLTRdnKGM4s6E'
p4246
sg8
S'Super Far'
p4247
ssS'2VYsv42L8evwtxg2FwZpVU'
p4248
(dp4249
g3
S"Lil' Kleine"
p4250
sg5
I3
sg6
S'https://open.spotify.com/track/2VYsv42L8evwtxg2FwZpVU'
p4251
sg8
S'Alleen'
p4252
ssS'0n2bvWvMwr0gbjcuTm92eW'
p4253
(dp4254
g3
S'Lana Del Rey'
p4255
sg5
I4
sg6
S'https://open.spotify.com/track/0n2bvWvMwr0gbjcuTm92eW'
p4256
sg8
S'Love'
p4257
ssS'3AsAuGTaDQzavZZThyYlop'
p4258
(dp4259
g3
S'NEIKED'
p4260
sg5
I32
sg6
S'https://open.spotify.com/track/3AsAuGTaDQzavZZThyYlop'
p4261
sg8
S'Sexual'
p4262
ssS'0eZBeB2xFIS65jQHerispi'
p4263
(dp4264
g3
S'Disturbed'
p4265
sg5
I10
sg6
S'https://open.spotify.com/track/0eZBeB2xFIS65jQHerispi'
p4266
sg8
S'The Sound Of Silence'
p4267
ssS'4VoJMNVZWFuJ7G9qKdO7NG'
p4268
(dp4269
g3
S'Sevn Alias'
p4270
sg5
I1
sg6
S'https://open.spotify.com/track/4VoJMNVZWFuJ7G9qKdO7NG'
p4271
sg8
S'Patsergedrag'
p4272
ssS'3nd9UtBDugmxTwhSOzJE8K'
p4273
(dp4274
g3
S'Mister V'
p4275
sg5
I1
sg6
S'https://open.spotify.com/track/3nd9UtBDugmxTwhSOzJE8K'
p4276
sg8
S'Petit d\xc3\xa9jeuner'
p4277
ssS'4kfm1uI9QGaoN9qm6CkAMn'
p4278
(dp4279
g3
S'Linkin Park'
p4280
sg5
I2
sg6
S'https://open.spotify.com/track/4kfm1uI9QGaoN9qm6CkAMn'
p4281
sg8
S"What I've Done"
p4282
ssS'69bp2EbF7Q2rqc5N3ylezZ'
p4283
(dp4284
g3
S'Justin Bieber'
p4285
sg5
I15
sg6
S'https://open.spotify.com/track/69bp2EbF7Q2rqc5N3ylezZ'
p4286
sg8
S'Sorry'
p4287
ssS'6NOBQsQ2TsAK8ieuFEB0O6'
p4288
(dp4289
g3
S'Lacrim'
p4290
sg5
I7
sg6
S'https://open.spotify.com/track/6NOBQsQ2TsAK8ieuFEB0O6'
p4291
sg8
S'Tra\xc3\xaetres'
p4292
ssS'08QmhAybC6VHeG8gah84qA'
p4293
(dp4294
g3
S'NEIKED'
p4295
sg5
I1
sg6
S'https://open.spotify.com/track/08QmhAybC6VHeG8gah84qA'
p4296
sg8
S'Call Me'
p4297
ssS'04CttTezSnv71USiiG9mIo'
p4298
(dp4299
g3
S'Hearts & Colors'
p4300
sg5
I13
sg6
S'https://open.spotify.com/track/04CttTezSnv71USiiG9mIo'
p4301
sg8
S'Lighthouse - Andrelli Remix'
p4302
ssS'4iLqG9SeJSnt0cSPICSjxv'
p4303
(dp4304
g3
S'Charlie Puth'
p4305
sg5
I25
sg6
S'https://open.spotify.com/track/4iLqG9SeJSnt0cSPICSjxv'
p4306
sg8
S'Attention'
p4307
ssS'49qQQcd8wONsOy3PwnZKHB'
p4308
(dp4309
g3
S'Jul'
p4310
sg5
I1
sg6
S'https://open.spotify.com/track/49qQQcd8wONsOy3PwnZKHB'
p4311
sg8
S'Ma jolie'
p4312
ssS'15dnkAHcHC0vrIUlbiPiqU'
p4313
(dp4314
g3
S'Imagine Dragons'
p4315
sg5
I1
sg6
S'https://open.spotify.com/track/15dnkAHcHC0vrIUlbiPiqU'
p4316
sg8
S'I Don\xe2\x80\x99t Know Why'
p4317
ssS'6RUKPb4LETWmmr3iAEQktW'
p4318
(dp4319
g3
S'The Chainsmokers'
p4320
sg5
I34
sg6
S'https://open.spotify.com/track/6RUKPb4LETWmmr3iAEQktW'
p4321
sg8
S'Something Just Like This'
p4322
ssS'3FQCJI2t5LTbsRPfYVBSVB'
p4323
(dp4324
g3
S'Linkin Park'
p4325
sg5
I1
sg6
S'https://open.spotify.com/track/3FQCJI2t5LTbsRPfYVBSVB'
p4326
sg8
S'Battle Symphony'
p4327
ssS'7M16mAuWuFA5rC9HvkXaGx'
p4328
(dp4329
g3
S'Jax Jones'
p4330
sg5
I5
sg6
S'https://open.spotify.com/track/7M16mAuWuFA5rC9HvkXaGx'
p4331
sg8
S"You Don't Know Me - Radio Edit"
p4332
ssS'5T8EDUDqKcs6OSOwEsfqG7'
p4333
(dp4334
g3
S'Queen'
p4335
sg5
I1
sg6
S'https://open.spotify.com/track/5T8EDUDqKcs6OSOwEsfqG7'
p4336
sg8
S"Don't Stop Me Now - Remastered 2011"
p4337
ssS'0VhgEqMTNZwYL1ARDLLNCX'
p4338
(dp4339
g3
S'James Arthur'
p4340
sg5
I6
sg6
S'https://open.spotify.com/track/0VhgEqMTNZwYL1ARDLLNCX'
p4341
sg8
S'Can I Be Him'
p4342
ssS'2CPqh63wRVscbceKcPxwvv'
p4343
(dp4344
g3
S'Mike Perry'
p4345
sg5
I29
sg6
S'https://open.spotify.com/track/2CPqh63wRVscbceKcPxwvv'
p4346
sg8
S'The Ocean'
p4347
ssS'5abwHwUhywLGNli5NDcEN7'
p4348
(dp4349
g3
S'Thomas Gold'
p4350
sg5
I11
sg6
S'https://open.spotify.com/track/5abwHwUhywLGNli5NDcEN7'
p4351
sg8
S'Magic'
p4352
ssS'0ofbQMrRDsUaVKq2mGLEAb'
p4353
(dp4354
g3
S'Camila Cabello'
p4355
sg5
I10
sg6
S'https://open.spotify.com/track/0ofbQMrRDsUaVKq2mGLEAb'
p4356
sg8
S'Havana'
p4357
ssS'7CiatbFJpSnXnbCiVaGlm0'
p4358
(dp4359
g3
S'JOWST'
p4360
sg5
I1
sg6
S'https://open.spotify.com/track/7CiatbFJpSnXnbCiVaGlm0'
p4361
sg8
S'Grab The Moment'
p4362
ssS'1wOLYsMBvJ2NOYSudRMTSo'
p4363
(dp4364
g3
S"Lil' Kleine"
p4365
sg5
I1
sg6
S'https://open.spotify.com/track/1wOLYsMBvJ2NOYSudRMTSo'
p4366
sg8
S'Gemaakt Voor Dit'
p4367
ssS'52HSRlOSKjwxHEpn1YkBr0'
p4368
(dp4369
g3
S'Bazart'
p4370
sg5
I16
sg6
S'https://open.spotify.com/track/52HSRlOSKjwxHEpn1YkBr0'
p4371
sg8
S'Nacht'
p4372
ssS'1lqGmKAtGz2YPvYVS0DkhH'
p4373
(dp4374
g3
S'Rom\xc3\xa9o Elvis'
p4375
sg5
I7
sg6
S'https://open.spotify.com/track/1lqGmKAtGz2YPvYVS0DkhH'
p4376
sg8
S'Dr\xc3\xb4le de question'
p4377
ssS'1xznGGDReH1oQq0xzbwXa3'
p4378
(dp4379
g3
S'Drake'
p4380
sg5
I42
sg6
S'https://open.spotify.com/track/1xznGGDReH1oQq0xzbwXa3'
p4381
sg8
S'One Dance'
p4382
ssS'5GXAXm5YOmYT0kL5jHvYBt'
p4383
(dp4384
g3
S'The Weeknd'
p4385
sg5
I40
sg6
S'https://open.spotify.com/track/5GXAXm5YOmYT0kL5jHvYBt'
p4386
sg8
S'I Feel It Coming'
p4387
ssS'2z0UxeFL42USbvokDnLwmp'
p4388
(dp4389
g3
S'Niska'
p4390
sg5
I2
sg6
S'https://open.spotify.com/track/2z0UxeFL42USbvokDnLwmp'
p4391
sg8
S'H&M'
p4392
ssS'6IZvVAP7VPPnsGX6bvgkqg'
p4393
(dp4394
g3
S'Kendrick Lamar'
p4395
sg5
I2
sg6
S'https://open.spotify.com/track/6IZvVAP7VPPnsGX6bvgkqg'
p4396
sg8
S'PRIDE.'
p4397
ssS'0lMbuWUpfTWhEmOKxppEau'
p4398
(dp4399
g3
S'Calvin Harris'
p4400
sg5
I10
sg6
S'https://open.spotify.com/track/0lMbuWUpfTWhEmOKxppEau'
p4401
sg8
S'Rollin'
p4402
ssS'00O9avMuHNp6htjCyVj6e1'
p4403
(dp4404
g3
S'Oscar and the Wolf'
p4405
sg5
I1
sg6
S'https://open.spotify.com/track/00O9avMuHNp6htjCyVj6e1'
p4406
sg8
S'Susato'
p4407
ssS'0qxYx4F3vm1AOnfux6dDxP'
p4408
(dp4409
g3
S'Paul Simon'
p4410
sg5
I1
sg6
S'https://open.spotify.com/track/0qxYx4F3vm1AOnfux6dDxP'
p4411
sg8
S'You Can Call Me Al'
p4412
ssS'7shAADk9RbPvnwCSkjctFJ'
p4413
(dp4414
g3
S'Bizzey'
p4415
sg5
I6
sg6
S'https://open.spotify.com/track/7shAADk9RbPvnwCSkjctFJ'
p4416
sg8
S'Traag'
p4417
ssS'1BvCzq6ppAF8iL6duMyjdx'
p4418
(dp4419
g3
S"Lil' Kleine"
p4420
sg5
I1
sg6
S'https://open.spotify.com/track/1BvCzq6ppAF8iL6duMyjdx'
p4421
sg8
S'Halen & Trekken'
p4422
ssS'0ZiRSqlSsDlY0UyDYU9CTE'
p4423
(dp4424
g3
S'Thomas Rhett'
p4425
sg5
I1
sg6
S'https://open.spotify.com/track/0ZiRSqlSsDlY0UyDYU9CTE'
p4426
sg8
S'Unforgettable'
p4427
ssS'6Y6mUgZmUadVvfFuoGuy64'
p4428
(dp4429
g3
S'Niska'
p4430
sg5
I3
sg6
S'https://open.spotify.com/track/6Y6mUgZmUadVvfFuoGuy64'
p4431
sg8
S"Chasse \xc3\xa0 l'homme"
p4432
ssS'4sQMalN597HdggTu196aL0'
p4433
(dp4434
g3
S'Flume'
p4435
sg5
I5
sg6
S'https://open.spotify.com/track/4sQMalN597HdggTu196aL0'
p4436
sg8
S'Say It (feat. Tove Lo)'
p4437
ssS'597IVBYr60vm0HKjgOnztJ'
p4438
(dp4439
g3
S'Carpenters'
p4440
sg5
I1
sg6
S'https://open.spotify.com/track/597IVBYr60vm0HKjgOnztJ'
p4441
sg8
S'Sleigh Ride'
p4442
ssS'2R7858bg0GHuBBxjTyOL7N'
p4443
(dp4444
g3
S'George Michael'
p4445
sg5
I2
sg6
S'https://open.spotify.com/track/2R7858bg0GHuBBxjTyOL7N'
p4446
sg8
S'Careless Whisper'
p4447
ssS'1CUVN2kn7mW5FjkqXTR2W1'
p4448
(dp4449
g3
S'Jonas Blue'
p4450
sg5
I27
sg6
S'https://open.spotify.com/track/1CUVN2kn7mW5FjkqXTR2W1'
p4451
sg8
S'Perfect Strangers'
p4452
ssS'1vVNlXi8gf8tZ7OhnEs4VE'
p4453
(dp4454
g3
S'French Montana'
p4455
sg5
I1
sg6
S'https://open.spotify.com/track/1vVNlXi8gf8tZ7OhnEs4VE'
p4456
sg8
S'A Lie'
p4457
ssS'0SGkqnVQo9KPytSri1H6cF'
p4458
(dp4459
g3
S'Big Sean'
p4460
sg5
I11
sg6
S'https://open.spotify.com/track/0SGkqnVQo9KPytSri1H6cF'
p4461
sg8
S'Bounce Back'
p4462
ssS'5KfECtKYcTC7WXpu5z6SY8'
p4463
(dp4464
g3
S'Lost Frequencies'
p4465
sg5
I14
sg6
S'https://open.spotify.com/track/5KfECtKYcTC7WXpu5z6SY8'
p4466
sg8
S'Here With You'
p4467
ssS'3UjSOJ00E1eLMcayBm827Q'
p4468
(dp4469
g3
S'Salvador Sobral'
p4470
sg5
I2
sg6
S'https://open.spotify.com/track/3UjSOJ00E1eLMcayBm827Q'
p4471
sg8
S'Amar pelos Dois'
p4472
ssS'7nKBxz47S9SD79N086fuhn'
p4473
(dp4474
g3
S'Enrique Iglesias'
p4475
sg5
I32
sg6
S'https://open.spotify.com/track/7nKBxz47S9SD79N086fuhn'
p4476
sg8
S'SUBEME LA RADIO'
p4477
ssS'044qU7kwVZaDwzWnRsmVVL'
p4478
(dp4479
g3
S'The xx'
p4480
sg5
I2
sg6
S'https://open.spotify.com/track/044qU7kwVZaDwzWnRsmVVL'
p4481
sg8
S'I Dare You'
p4482
ssS'27SdWb2rFzO6GWiYDBTD9j'
p4483
(dp4484
g3
S'Sia'
p4485
sg5
I35
sg6
S'https://open.spotify.com/track/27SdWb2rFzO6GWiYDBTD9j'
p4486
sg8
S'Cheap Thrills'
p4487
ssS'7poASuTM1krLDJPpkaqBwp'
p4488
(dp4489
g3
S'Tavi Castro'
p4490
sg5
I1
sg6
S'https://open.spotify.com/track/7poASuTM1krLDJPpkaqBwp'
p4491
sg8
S'Diamond Girl (Remix)'
p4492
ssS'3vgNmjuRDnGLxUFGCLkwpm'
p4493
(dp4494
g3
S'David Guetta'
p4495
sg5
I1
sg6
S'https://open.spotify.com/track/3vgNmjuRDnGLxUFGCLkwpm'
p4496
sg8
S'Light My Body Up (feat. Nicki Minaj & Lil Wayne)'
p4497
ssS'5dQJKDx0x73seZbwSORa1T'
p4498
(dp4499
g3
S'The Vamps'
p4500
sg5
I2
sg6
S'https://open.spotify.com/track/5dQJKDx0x73seZbwSORa1T'
p4501
sg8
S'Middle Of The Night'
p4502
ssS'6PJ8FF6UR8FZXfEvpHkIVN'
p4503
(dp4504
g3
S'Ed Sheeran'
p4505
sg5
I9
sg6
S'https://open.spotify.com/track/6PJ8FF6UR8FZXfEvpHkIVN'
p4506
sg8
S'How Would You Feel (Paean)'
p4507
ssS'08O9ITh2Pj9xEA0IVRuIDV'
p4508
(dp4509
g3
S'Lo\xc3\xafc Nottet'
p4510
sg5
I6
sg6
S'https://open.spotify.com/track/08O9ITh2Pj9xEA0IVRuIDV'
p4511
sg8
S'Mud Blood'
p4512
ssS'1j4kHkkpqZRBwE0A4CN4Yv'
p4513
(dp4514
g3
S'ZAYN'
p4515
sg5
I5
sg6
S'https://open.spotify.com/track/1j4kHkkpqZRBwE0A4CN4Yv'
p4516
sg8
S'Dusk Till Dawn - Radio Edit'
p4517
ssS'6xQpigKTf8aIv19e1Bar01'
p4518
(dp4519
g3
S'Lacrim'
p4520
sg5
I1
sg6
S'https://open.spotify.com/track/6xQpigKTf8aIv19e1Bar01'
p4521
sg8
S'Pardon...'
p4522
ssS'4eFq1Nyov3HdNcVGVhwJdM'
p4523
(dp4524
g3
S"Lil' Kleine"
p4525
sg5
I1
sg6
S'https://open.spotify.com/track/4eFq1Nyov3HdNcVGVhwJdM'
p4526
sg8
S'Commotie'
p4527
ssS'3kdMzXOcrDIdSWLdONHNK5'
p4528
(dp4529
g3
S'Foo Fighters'
p4530
sg5
I1
sg6
S'https://open.spotify.com/track/3kdMzXOcrDIdSWLdONHNK5'
p4531
sg8
S'The Sky Is A Neighborhood'
p4532
ssS'5ndfVSDyPq90jaIUhNPeby'
p4533
(dp4534
g3
S'Katy Perry'
p4535
sg5
I2
sg6
S'https://open.spotify.com/track/5ndfVSDyPq90jaIUhNPeby'
p4536
sg8
S'Chained To The Rhythm'
p4537
ssS'5uCax9HTNlzGybIStD3vDh'
p4538
(dp4539
g3
S'James Arthur'
p4540
sg5
I42
sg6
S'https://open.spotify.com/track/5uCax9HTNlzGybIStD3vDh'
p4541
sg8
S"Say You Won't Let Go"
p4542
ssS'7qiZfU4dY1lWllzX7mPBI3'
p4543
(dp4544
g3
S'Ed Sheeran'
p4545
sg5
I40
sg6
S'https://open.spotify.com/track/7qiZfU4dY1lWllzX7mPBI3'
p4546
sg8
S'Shape of You'
p4547
ssS'6LOCAhFzZiavHcLJucLuDy'
p4548
(dp4549
g3
S'DJ Khaled'
p4550
sg5
I1
sg6
S'https://open.spotify.com/track/6LOCAhFzZiavHcLJucLuDy'
p4551
sg8
S"Don't Quit"
p4552
ssS'0iV9yfj1knFNOSEiuTHZwl'
p4553
(dp4554
g3
S'Christina Aguilera'
p4555
sg5
I1
sg6
S'https://open.spotify.com/track/0iV9yfj1knFNOSEiuTHZwl'
p4556
sg8
S'Have Yourself a Merry Little Christmas'
p4557
ssS'6CUBgX8bXC5YQCkdgRHqyg'
p4558
(dp4559
g3
S'blackbear'
p4560
sg5
I2
sg6
S'https://open.spotify.com/track/6CUBgX8bXC5YQCkdgRHqyg'
p4561
sg8
S'do re mi'
p4562
ssS'0wfbD5rAksdXUzRvMfM3x5'
p4563
(dp4564
g3
S'The Chainsmokers'
p4565
sg5
I14
sg6
S'https://open.spotify.com/track/0wfbD5rAksdXUzRvMfM3x5'
p4566
sg8
S'The One'
p4567
ssS'0q75NwOoFiARAVp4EXU4Bs'
p4568
(dp4569
g3
S'SZA'
p4570
sg5
I10
sg6
S'https://open.spotify.com/track/0q75NwOoFiARAVp4EXU4Bs'
p4571
sg8
S'Love Galore'
p4572
ssS'2fQrGHiQOvpL9UgPvtYy6G'
p4573
(dp4574
g3
S'21 Savage'
p4575
sg5
I3
sg6
S'https://open.spotify.com/track/2fQrGHiQOvpL9UgPvtYy6G'
p4576
sg8
S'Bank Account'
p4577
ssS'0NUvPSk4VzBW0ClqgGxNRj'
p4578
(dp4579
g3
S'Vald'
p4580
sg5
I1
sg6
S'https://open.spotify.com/track/0NUvPSk4VzBW0ClqgGxNRj'
p4581
sg8
S'Vitrine'
p4582
ssS'6XOYVSmNDjKUNMXooU4s4z'
p4583
(dp4584
g3
S'OneRepublic'
p4585
sg5
I23
sg6
S'https://open.spotify.com/track/6XOYVSmNDjKUNMXooU4s4z'
p4586
sg8
S'No Vacancy'
p4587
ssS'2FiSTH0GYpIioUgjfzMIja'
p4588
(dp4589
g3
S'Kygo'
p4590
sg5
I3
sg6
S'https://open.spotify.com/track/2FiSTH0GYpIioUgjfzMIja'
p4591
sg8
S'Stay'
p4592
ssS'2eAZfqOm4EnOF9VvN50Tyc'
p4593
(dp4594
g3
S'Lil Uzi Vert'
p4595
sg5
I5
sg6
S'https://open.spotify.com/track/2eAZfqOm4EnOF9VvN50Tyc'
p4596
sg8
S'The Way Life Goes'
p4597
ssS'1F2HXIJrE2Xn81OzT2zZvW'
p4598
(dp4599
g3
S'French Montana'
p4600
sg5
I12
sg6
S'https://open.spotify.com/track/1F2HXIJrE2Xn81OzT2zZvW'
p4601
sg8
S'Unforgettable'
p4602
ssS'6QgjcU0zLnzq5OrUoSZ3OK'
p4603
(dp4604
g3
S'Portugal. The Man'
p4605
sg5
I13
sg6
S'https://open.spotify.com/track/6QgjcU0zLnzq5OrUoSZ3OK'
p4606
sg8
S'Feel It Still'
p4607
ssS'7jltqRIyxLXBDNZ1QlmnBp'
p4608
(dp4609
g3
S'Ryan Gosling'
p4610
sg5
I3
sg6
S'https://open.spotify.com/track/7jltqRIyxLXBDNZ1QlmnBp'
p4611
sg8
S'City Of Stars - From La La Land Soundtrack/Pier'
p4612
ssS'78rIJddV4X0HkNAInEcYde'
p4613
(dp4614
g3
S'Starley'
p4615
sg5
I42
sg6
S'https://open.spotify.com/track/78rIJddV4X0HkNAInEcYde'
p4616
sg8
S'Call On Me - Ryan Riback Extended Remix'
p4617
ssS'0L7loeTIg6akW84aEQZpCT'
p4618
(dp4619
g3
S'Major Lazer'
p4620
sg5
I25
sg6
S'https://open.spotify.com/track/0L7loeTIg6akW84aEQZpCT'
p4621
sg8
S'Light It Up (feat. Nyla & Fuse ODG) - Remix'
p4622
ssS'6ATkHaUrIJUtwyhoGMmQgw'
p4623
(dp4624
g3
S'Damso'
p4625
sg5
I9
sg6
S'https://open.spotify.com/track/6ATkHaUrIJUtwyhoGMmQgw'
p4626
sg8
S'\xce\x94. Dieu ne ment jamais'
p4627
ssS'1Bqxj0aH5KewYHKUg1IdrF'
p4628
(dp4629
g3
S'G-Eazy'
p4630
sg5
I9
sg6
S'https://open.spotify.com/track/1Bqxj0aH5KewYHKUg1IdrF'
p4631
sg8
S'Some Kind Of Drug'
p4632
ssS'07Ugv4TA7PvQfoqetnmLrS'
p4633
(dp4634
g3
S'Arcade Fire'
p4635
sg5
I6
sg6
S'https://open.spotify.com/track/07Ugv4TA7PvQfoqetnmLrS'
p4636
sg8
S'Everything Now'
p4637
ssS'5TXDeTFVRVY7Cvt0Dw4vWW'
p4638
(dp4639
g3
S'XXXTENTACION'
p4640
sg5
I1
sg6
S'https://open.spotify.com/track/5TXDeTFVRVY7Cvt0Dw4vWW'
p4641
sg8
S'Revenge'
p4642
ssS'2voWPWlDfIthC6GUjaIQyV'
p4643
(dp4644
g3
S'Arcade Fire'
p4645
sg5
I1
sg6
S'https://open.spotify.com/track/2voWPWlDfIthC6GUjaIQyV'
p4646
sg8
S'Creature Comfort'
p4647
ssS'167NczpNbRF7oWakJaY3Hh'
p4648
(dp4649
g3
S'Niall Horan'
p4650
sg5
I23
sg6
S'https://open.spotify.com/track/167NczpNbRF7oWakJaY3Hh'
p4651
sg8
S'Slow Hands'
p4652
ssS'0or0gNaKAXYYCsOrpvRzAu'
p4653
(dp4654
g3
S'Lorde'
p4655
sg5
I1
sg6
S'https://open.spotify.com/track/0or0gNaKAXYYCsOrpvRzAu'
p4656
sg8
S'Liability'
p4657
ssS'1DGYmHLYkwyCmvDEL3ctti'
p4658
(dp4659
g3
S'Dido'
p4660
sg5
I1
sg6
S'https://open.spotify.com/track/1DGYmHLYkwyCmvDEL3ctti'
p4661
sg8
S'Christmas Day'
p4662
ssS'4izg6Hydc6XGErWW6nbdsV'
p4663
(dp4664
g3
S'Imagine Dragons'
p4665
sg5
I3
sg6
S'https://open.spotify.com/track/4izg6Hydc6XGErWW6nbdsV'
p4666
sg8
S'Whatever It Takes'
p4667
ssS'2C0KFbb4v9CNWR5c9jWcKC'
p4668
(dp4669
g3
S'Gorillaz'
p4670
sg5
I2
sg6
S'https://open.spotify.com/track/2C0KFbb4v9CNWR5c9jWcKC'
p4671
sg8
S'Andromeda (feat. DRAM)'
p4672
ssS'1R17cgUv6HeQFa78dzqb7s'
p4673
(dp4674
g3
S'Justin Hurwitz'
p4675
sg5
I3
sg6
S'https://open.spotify.com/track/1R17cgUv6HeQFa78dzqb7s'
p4676
sg8
S'Mia & Sebastian\xe2\x80\x99s Theme - From La La Land Soundtrack'
p4677
ssS'7yHEDfrJNd0zWOfXwydNH0'
p4678
(dp4679
g3
S'Ariana Grande'
p4680
sg5
I4
sg6
S'https://open.spotify.com/track/7yHEDfrJNd0zWOfXwydNH0'
p4681
sg8
S'Into You'
p4682
ssS'1lntL1cI2UIWlxjL5QiN8g'
p4683
(dp4684
g3
S'Lauv'
p4685
sg5
I15
sg6
S'https://open.spotify.com/track/1lntL1cI2UIWlxjL5QiN8g'
p4686
sg8
S'The Other'
p4687
ssS'2nAAFnHiXRdWhsqoeqhhnr'
p4688
(dp4689
g3
S'London Grammar'
p4690
sg5
I1
sg6
S'https://open.spotify.com/track/2nAAFnHiXRdWhsqoeqhhnr'
p4691
sg8
S'Rooting For You'
p4692
ssS'0LtVx5vsq9nfpGsWgjUin6'
p4693
(dp4694
g3
S'Ryan Gosling'
p4695
sg5
I7
sg6
S'https://open.spotify.com/track/0LtVx5vsq9nfpGsWgjUin6'
p4696
sg8
S'City Of Stars - From La La Land Soundtrack'
p4697
ssS'6nlXWOyoCPLXXWaklOyQcb'
p4698
(dp4699
g3
S'Julia Michaels'
p4700
sg5
I8
sg6
S'https://open.spotify.com/track/6nlXWOyoCPLXXWaklOyQcb'
p4701
sg8
S'Issues - Alan Walker Remix'
p4702
ssS'1839RWzPRZCVgvamu4sHSN'
p4703
(dp4704
g3
S'Cash Cash'
p4705
sg5
I7
sg6
S'https://open.spotify.com/track/1839RWzPRZCVgvamu4sHSN'
p4706
sg8
S'All My Love (feat. Conor Maynard)'
p4707
ssS'3w7JcualE0nqlKjjxRQwoU'
p4708
(dp4709
g3
S'Todiefor'
p4710
sg5
I7
sg6
S'https://open.spotify.com/track/3w7JcualE0nqlKjjxRQwoU'
p4711
sg8
S'Beautiful'
p4712
ssS'5Db9VIdDsN5yu3Eu7CT0i4'
p4713
(dp4714
g3
S'Sam Smith'
p4715
sg5
I14
sg6
S'https://open.spotify.com/track/5Db9VIdDsN5yu3Eu7CT0i4'
p4716
sg8
S'Stay With Me'
p4717
ssS'7nY0TjOsD1BZehkZgLiOxO'
p4718
(dp4719
g3
S'Katy Perry'
p4720
sg5
I1
sg6
S'https://open.spotify.com/track/7nY0TjOsD1BZehkZgLiOxO'
p4721
sg8
S'Hey Hey Hey'
p4722
ssS'6xcXAVbDuVT1pCsa2rmDHY'
p4723
(dp4724
g3
S'Siboy'
p4725
sg5
I10
sg6
S'https://open.spotify.com/track/6xcXAVbDuVT1pCsa2rmDHY'
p4726
sg8
S'Mobali'
p4727
ssS'11KJSRSgaDxqydKYiD2Jew'
p4728
(dp4729
g3
S'Drake'
p4730
sg5
I14
sg6
S'https://open.spotify.com/track/11KJSRSgaDxqydKYiD2Jew'
p4731
sg8
S'Too Good'
p4732
ssS'3zoYkqS4y2BsGVShPL2nTE'
p4733
(dp4734
g3
S'CNCO'
p4735
sg5
I8
sg6
S'https://open.spotify.com/track/3zoYkqS4y2BsGVShPL2nTE'
p4736
sg8
S'Reggaet\xc3\xb3n Lento (Remix) [CNCO & Little Mix]'
p4737
ssS'1yNyoWWWikbLhwIGWjZuDW'
p4738
(dp4739
g3
S'The Vamps'
p4740
sg5
I27
sg6
S'https://open.spotify.com/track/1yNyoWWWikbLhwIGWjZuDW'
p4741
sg8
S'All Night'
p4742
ssS'05k8JclzlJZuO6dmfFmFW6'
p4743
(dp4744
g3
S'Niska'
p4745
sg5
I3
sg6
S'https://open.spotify.com/track/05k8JclzlJZuO6dmfFmFW6'
p4746
sg8
S'Story X'
p4747
ssS'2LgBIHlcsbatLBBV2b1RIv'
p4748
(dp4749
g3
S'Sevn Alias'
p4750
sg5
I1
sg6
S'https://open.spotify.com/track/2LgBIHlcsbatLBBV2b1RIv'
p4751
sg8
S'Nachtmerrie'
p4752
ssS'3Dwq1oiOFys6Sxr5SslmXw'
p4753
(dp4754
g3
S'Harry Styles'
p4755
sg5
I1
sg6
S'https://open.spotify.com/track/3Dwq1oiOFys6Sxr5SslmXw'
p4756
sg8
S'Carolina'
p4757
ssS'4vb4mFvYsr2h6enhjJsq9Y'
p4758
(dp4759
g3
S'Adele'
p4760
sg5
I19
sg6
S'https://open.spotify.com/track/4vb4mFvYsr2h6enhjJsq9Y'
p4761
sg8
S'Water Under the Bridge'
p4762
ssS'6cPyTS0Kk2sc4xQwC93kOg'
p4763
(dp4764
g3
S'The Chainsmokers'
p4765
sg5
I8
sg6
S'https://open.spotify.com/track/6cPyTS0Kk2sc4xQwC93kOg'
p4766
sg8
S'Break Up Every Night'
p4767
ssS'17Fd6Yb7mSbinKG8LoWfFl'
p4768
(dp4769
g3
S'Mike Posner'
p4770
sg5
I34
sg6
S'https://open.spotify.com/track/17Fd6Yb7mSbinKG8LoWfFl'
p4771
sg8
S'I Took A Pill In Ibiza - Seeb Remix'
p4772
ssS'7zTx8ePYAmPFQuxP3xlXZn'
p4773
(dp4774
g3
S'San Holo'
p4775
sg5
I9
sg6
S'https://open.spotify.com/track/7zTx8ePYAmPFQuxP3xlXZn'
p4776
sg8
S'Light'
p4777
ssS'4tCtwWceOPWzenK2HAIJSb'
p4778
(dp4779
g3
S'Fifth Harmony'
p4780
sg5
I25
sg6
S'https://open.spotify.com/track/4tCtwWceOPWzenK2HAIJSb'
p4781
sg8
S'Work from Home'
p4782
ssS'00X2yv2vrtritPt2CZnUTZ'
p4783
(dp4784
g3
S'PNL'
p4785
sg5
I9
sg6
S'https://open.spotify.com/track/00X2yv2vrtritPt2CZnUTZ'
p4786
sg8
S'Ben\xc3\xa9'
p4787
ssS'2wQjy7eamu1hIS6kvigogB'
p4788
(dp4789
g3
S'Boef'
p4790
sg5
I5
sg6
S'https://open.spotify.com/track/2wQjy7eamu1hIS6kvigogB'
p4791
sg8
S'Aslan'
p4792
ssS'7mldq42yDuxiUNn08nvzHO'
p4793
(dp4794
g3
S'Sam Hunt'
p4795
sg5
I17
sg6
S'https://open.spotify.com/track/7mldq42yDuxiUNn08nvzHO'
p4796
sg8
S'Body Like A Back Road'
p4797
ssS'3hB5DgAiMAQ4DzYbsMq1IT'
p4798
(dp4799
g3
S'Justin Bieber'
p4800
sg5
I38
sg6
S'https://open.spotify.com/track/3hB5DgAiMAQ4DzYbsMq1IT'
p4801
sg8
S'Love Yourself'
p4802
ssS'1foCxQtxBweJtZmdxhEHVO'
p4803
(dp4804
g3
S'Eartha Kitt'
p4805
sg5
I1
sg6
S'https://open.spotify.com/track/1foCxQtxBweJtZmdxhEHVO'
p4806
sg8
S'Santa Baby'
p4807
ssS'32OWobmyAz8J2qA8iWekyS'
p4808
(dp4809
g3
S'Justin Bieber'
p4810
sg5
I1
sg6
S'https://open.spotify.com/track/32OWobmyAz8J2qA8iWekyS'
p4811
sg8
S'Mistletoe'
p4812
ssS'11pNf8SA2U3PXzLca8BFt6'
p4813
(dp4814
g3
S'Lost Frequencies'
p4815
sg5
I28
sg6
S'https://open.spotify.com/track/11pNf8SA2U3PXzLca8BFt6'
p4816
sg8
S'All Or Nothing'
p4817
ssS'5J59VOgvclrhLDYUoH5OaW'
p4818
(dp4819
g3
S'Bazart'
p4820
sg5
I36
sg6
S'https://open.spotify.com/track/5J59VOgvclrhLDYUoH5OaW'
p4821
sg8
S'Goud'
p4822
ssS'2r1aFwiRuXQaRXYyGF2Uha'
p4823
(dp4824
g3
S'Sevn Alias'
p4825
sg5
I1
sg6
S'https://open.spotify.com/track/2r1aFwiRuXQaRXYyGF2Uha'
p4826
sg8
S'Flu & Tip'
p4827
ssS'2GmVap1TUXocIewXZRaRo7'
p4828
(dp4829
g3
S'SBMG'
p4830
sg5
I23
sg6
S'https://open.spotify.com/track/2GmVap1TUXocIewXZRaRo7'
p4831
sg8
S'4x Duurder'
p4832
ssS'60xaS8mYBKUW4VQQ666N0T'
p4833
(dp4834
g3
S'Chance The Rapper'
p4835
sg5
I6
sg6
S'https://open.spotify.com/track/60xaS8mYBKUW4VQQ666N0T'
p4836
sg8
S'All Night (feat. Knox Fortune)'
p4837
ssS'1TfqLAPs4K3s2rJMoCokcS'
p4838
(dp4839
g3
S'Eurythmics'
p4840
sg5
I4
sg6
S'https://open.spotify.com/track/1TfqLAPs4K3s2rJMoCokcS'
p4841
sg8
S'Sweet Dreams (Are Made of This) - Remastered'
p4842
ssS'3bidbhpOYeV4knp8AIu8Xn'
p4843
(dp4844
g3
S'Macklemore & Ryan Lewis'
p4845
sg5
I21
sg6
S'https://open.spotify.com/track/3bidbhpOYeV4knp8AIu8Xn'
p4846
sg8
S"Can't Hold Us - feat. Ray Dalton"
p4847
ssS'5VaLhE67iBHeuPKbyGS2wk'
p4848
(dp4849
g3
S'Mike Perry'
p4850
sg5
I3
sg6
S'https://open.spotify.com/track/5VaLhE67iBHeuPKbyGS2wk'
p4851
sg8
S'Hands'
p4852
ssS'6PGoSes0D9eUDeeAafB2As'
p4853
(dp4854
g3
S'Kendrick Lamar'
p4855
sg5
I6
sg6
S'https://open.spotify.com/track/6PGoSes0D9eUDeeAafB2As'
p4856
sg8
S'LOVE. FEAT. ZACARI.'
p4857
ssS'1lItf5ZXJc1by9SbPeljFd'
p4858
(dp4859
g3
S'Zay Hilfigerrr'
p4860
sg5
I6
sg6
S'https://open.spotify.com/track/1lItf5ZXJc1by9SbPeljFd'
p4861
sg8
S'Juju On That Beat (TZ Anthem)'
p4862
ssS'1iDQ2zCOU1uYeR8QcpqUZb'
p4863
(dp4864
g3
S'Booba'
p4865
sg5
I9
sg6
S'https://open.spotify.com/track/1iDQ2zCOU1uYeR8QcpqUZb'
p4866
sg8
S'DKR'
p4867
ssS'3F6whybjFrbMYRUvyZF60a'
p4868
(dp4869
g3
S'Boef'
p4870
sg5
I8
sg6
S'https://open.spotify.com/track/3F6whybjFrbMYRUvyZF60a'
p4871
sg8
S'Kangoeroe'
p4872
ssS'57cqTftDWbUEPhGXbDigZu'
p4873
(dp4874
g3
S'Niska'
p4875
sg5
I3
sg6
S'https://open.spotify.com/track/57cqTftDWbUEPhGXbDigZu'
p4876
sg8
S'Snapchat'
p4877
ss.