(dp0
S'0mel2N9Ws9r4yLQn5QE21Y'
p1
(dp2
S'artistName'
p3
S'Sam Smith'
p4
sS'weeksOnChart'
p5
I5
sS'track_href'
p6
S'https://open.spotify.com/track/0mel2N9Ws9r4yLQn5QE21Y'
p7
sS'songName'
p8
S'Too Good At Goodbyes'
p9
ssS'728zbo72kOoYdGR3AhNsyF'
p10
(dp11
g3
S'The xx'
p12
sg5
I1
sg6
S'https://open.spotify.com/track/728zbo72kOoYdGR3AhNsyF'
p13
sg8
S'Say Something Loving'
p14
ssS'0jdny0dhgjUwoIp5GkqEaA'
p15
(dp16
g3
S'Kesha'
p17
sg5
I9
sg6
S'https://open.spotify.com/track/0jdny0dhgjUwoIp5GkqEaA'
p18
sg8
S'Praying'
p19
ssS'60a0Rd6pjrkxjPbaKzXjfq'
p20
(dp21
g3
S'Linkin Park'
p22
sg5
I7
sg6
S'https://open.spotify.com/track/60a0Rd6pjrkxjPbaKzXjfq'
p23
sg8
S'In The End'
p24
ssS'6mzTuMlbCgEtoCitsszlqP'
p25
(dp26
g3
S'Avicii'
p27
sg5
I1
sg6
S'https://open.spotify.com/track/6mzTuMlbCgEtoCitsszlqP'
p28
sg8
S'What Would I Change It To (feat. AlunaGeorge)'
p29
ssS'0prNGof3XqfTvNDxHonvdK'
p30
(dp31
g3
S'Alessia Cara'
p32
sg5
I22
sg6
S'https://open.spotify.com/track/0prNGof3XqfTvNDxHonvdK'
p33
sg8
S'Scars To Your Beautiful'
p34
ssS'1pJQAHpD51J7GYaFrrFO9S'
p35
(dp36
g3
S'The Chainsmokers'
p37
sg5
I1
sg6
S'https://open.spotify.com/track/1pJQAHpD51J7GYaFrrFO9S'
p38
sg8
S"Don't Say"
p39
ssS'6HUnnBwYZqcED1eQztxMBN'
p40
(dp41
g3
S'Martin Jensen'
p42
sg5
I40
sg6
S'https://open.spotify.com/track/6HUnnBwYZqcED1eQztxMBN'
p43
sg8
S'Solo Dance'
p44
ssS'4pYZLpX23Vx8rwDpJCpPTA'
p45
(dp46
g3
S'Rich The Kid'
p47
sg5
I1
sg6
S'https://open.spotify.com/track/4pYZLpX23Vx8rwDpJCpPTA'
p48
sg8
S'New Freezer (feat. Kendrick Lamar)'
p49
ssS'4A4A6dwl5DqdqrZaEtKGPR'
p50
(dp51
g3
S'Taylor Swift'
p52
sg5
I1
sg6
S'https://open.spotify.com/track/4A4A6dwl5DqdqrZaEtKGPR'
p53
sg8
S'Wildest Dreams'
p54
ssS'3QWjljChcOMkRDYSzF33Qr'
p55
(dp56
g3
S'Kiiara'
p57
sg5
I5
sg6
S'https://open.spotify.com/track/3QWjljChcOMkRDYSzF33Qr'
p58
sg8
S'Whippin (feat. Felix Snow)'
p59
ssS'0lLdorYw7lVrJydTINhWdI'
p60
(dp61
g3
S'Michael Bubl\xc3\xa9'
p62
sg5
I1
sg6
S'https://open.spotify.com/track/0lLdorYw7lVrJydTINhWdI'
p63
sg8
S"It's Beginning To Look A Lot Like Christmas"
p64
ssS'1OAh8uOEOvTDqkKFsKksCi'
p65
(dp66
g3
S'DJ Khaled'
p67
sg5
I17
sg6
S'https://open.spotify.com/track/1OAh8uOEOvTDqkKFsKksCi'
p68
sg8
S'Wild Thoughts'
p69
ssS'2aksifNn5ph8igDOkPBA02'
p70
(dp71
g3
S'Rihanna'
p72
sg5
I27
sg6
S'https://open.spotify.com/track/2aksifNn5ph8igDOkPBA02'
p73
sg8
S'Love On The Brain'
p74
ssS'6yf3MxEOScNBTYCHOAIiNQ'
p75
(dp76
g3
S'Jax Jones'
p77
sg5
I1
sg6
S'https://open.spotify.com/track/6yf3MxEOScNBTYCHOAIiNQ'
p78
sg8
S'Instruction (feat. Demi Lovato & Stefflon Don)'
p79
ssS'4b4KcovePX8Ke2cLIQTLM0'
p80
(dp81
g3
S'The Vamps'
p82
sg5
I1
sg6
S'https://open.spotify.com/track/4b4KcovePX8Ke2cLIQTLM0'
p83
sg8
S'All Night'
p84
ssS'7wGoVu4Dady5GV0Sv4UIsx'
p85
(dp86
g3
S'Post Malone'
p87
sg5
I1
sg6
S'https://open.spotify.com/track/7wGoVu4Dady5GV0Sv4UIsx'
p88
sg8
S'rockstar'
p89
ssS'7LJjWqhqK594nN7qJzLVXE'
p90
(dp91
g3
S'BLACKPINK'
p92
sg5
I1
sg6
S'https://open.spotify.com/track/7LJjWqhqK594nN7qJzLVXE'
p93
sg8
S"As If It's Your Last"
p94
ssS'7KcGEssn7BnJdTgildK5y0'
p95
(dp96
g3
S'Nicki Minaj'
p97
sg5
I3
sg6
S'https://open.spotify.com/track/7KcGEssn7BnJdTgildK5y0'
p98
sg8
S'No Frauds'
p99
ssS'1CnPYaKxTVb4LWOtiGOm0m'
p100
(dp101
g3
S'Jon Bellion'
p102
sg5
I22
sg6
S'https://open.spotify.com/track/1CnPYaKxTVb4LWOtiGOm0m'
p103
sg8
S'All Time Low'
p104
ssS'4OZEu0Vwq0RB2LAq14v99n'
p105
(dp106
g3
S'DJ Snake'
p107
sg5
I8
sg6
S'https://open.spotify.com/track/4OZEu0Vwq0RB2LAq14v99n'
p108
sg8
S'Middle'
p109
ssS'5Ber68jZ7ytegr2UISEdb7'
p110
(dp111
g3
S'Michael Bubl\xc3\xa9'
p112
sg5
I1
sg6
S'https://open.spotify.com/track/5Ber68jZ7ytegr2UISEdb7'
p113
sg8
S'Santa Claus Is Coming To Town'
p114
ssS'6mw02h3qbWmuq2bJCRjRAe'
p115
(dp116
g3
S'187 Strassenbande'
p117
sg5
I1
sg6
S'https://open.spotify.com/track/6mw02h3qbWmuq2bJCRjRAe'
p118
sg8
S'Million\xc3\xa4r'
p119
ssS'60xaS8mYBKUW4VQQ666N0T'
p120
(dp121
g3
S'Chance The Rapper'
p122
sg5
I6
sg6
S'https://open.spotify.com/track/60xaS8mYBKUW4VQQ666N0T'
p123
sg8
S'All Night (feat. Knox Fortune)'
p124
ssS'6Pw3Gvw4wNMZfTYZa6IQal'
p125
(dp126
g3
S'Bebe Rexha'
p127
sg5
I5
sg6
S'https://open.spotify.com/track/6Pw3Gvw4wNMZfTYZa6IQal'
p128
sg8
S'The Way I Are (Dance With Somebody) [feat. Lil Wayne]'
p129
ssS'46HdsiK0uR26B2dY9QPzda'
p130
(dp131
g3
S'Prince Royce'
p132
sg5
I3
sg6
S'https://open.spotify.com/track/46HdsiK0uR26B2dY9QPzda'
p133
sg8
S'Deja vu'
p134
ssS'2FRnf9qhLbvw8fu4IBXx78'
p135
(dp136
g3
S'Wham!'
p137
sg5
I1
sg6
S'https://open.spotify.com/track/2FRnf9qhLbvw8fu4IBXx78'
p138
sg8
S'Last Christmas'
p139
ssS'7tr2za8SQg2CI8EDgrdtNl'
p140
(dp141
g3
S'Calvin Harris'
p142
sg5
I29
sg6
S'https://open.spotify.com/track/7tr2za8SQg2CI8EDgrdtNl'
p143
sg8
S'Slide'
p144
ssS'7zVCrzzEJU7u24sbJPXA5W'
p145
(dp146
g3
S'Kane Brown'
p147
sg5
I1
sg6
S'https://open.spotify.com/track/7zVCrzzEJU7u24sbJPXA5W'
p148
sg8
S'What Ifs'
p149
ssS'3gfmFoJgmn9LiIj5mV8oSS'
p150
(dp151
g3
S'R3HAB'
p152
sg5
I2
sg6
S'https://open.spotify.com/track/3gfmFoJgmn9LiIj5mV8oSS'
p153
sg8
S"I Just Can't"
p154
ssS'40oKW22ZNNkEdZLJTScaQI'
p155
(dp156
g3
S'Kodak Black'
p157
sg5
I8
sg6
S'https://open.spotify.com/track/40oKW22ZNNkEdZLJTScaQI'
p158
sg8
S'Roll In Peace (feat. XXXTENTACION)'
p159
ssS'20ZAJdsKB5IGbGj4ilRt2o'
p160
(dp161
g3
S'Ozuna'
p162
sg5
I19
sg6
S'https://open.spotify.com/track/20ZAJdsKB5IGbGj4ilRt2o'
p163
sg8
S'Dile Que Tu Me Quieres'
p164
ssS'25khomWgBVamSdKw7hzm3l'
p165
(dp166
g3
S'The Weeknd'
p167
sg5
I9
sg6
S'https://open.spotify.com/track/25khomWgBVamSdKw7hzm3l'
p168
sg8
S'The Hills'
p169
ssS'06FCvd7rrRcF3DdvWH5Isp'
p170
(dp171
g3
S'Kendrick Lamar'
p172
sg5
I5
sg6
S'https://open.spotify.com/track/06FCvd7rrRcF3DdvWH5Isp'
p173
sg8
S'LUST.'
p174
ssS'4pLwZjInHj3SimIyN9SnOz'
p175
(dp176
g3
S'Ariana Grande'
p177
sg5
I37
sg6
S'https://open.spotify.com/track/4pLwZjInHj3SimIyN9SnOz'
p178
sg8
S'Side To Side'
p179
ssS'4qknM1pQz53QOyfDVTjcM9'
p180
(dp181
g3
S'Shakira'
p182
sg5
I24
sg6
S'https://open.spotify.com/track/4qknM1pQz53QOyfDVTjcM9'
p183
sg8
S'Me Enamor\xc3\xa9'
p184
ssS'3E2Zh20GDCR9B1EYjfXWyv'
p185
(dp186
g3
S'AJR'
p187
sg5
I31
sg6
S'https://open.spotify.com/track/3E2Zh20GDCR9B1EYjfXWyv'
p188
sg8
S'Weak'
p189
ssS'2Gl0FzuLxflY6nPifJp5Dr'
p190
(dp191
g3
S'Kygo'
p192
sg5
I22
sg6
S'https://open.spotify.com/track/2Gl0FzuLxflY6nPifJp5Dr'
p193
sg8
S'First Time'
p194
ssS'0xl1w2q4VLojeXp4JfazPL'
p195
(dp196
g3
S'Drake'
p197
sg5
I5
sg6
S'https://open.spotify.com/track/0xl1w2q4VLojeXp4JfazPL'
p198
sg8
S'Sacrifices'
p199
ssS'4BHzQ9C00ceJxfG16AlNWb'
p200
(dp201
g3
S'Adele'
p202
sg5
I12
sg6
S'https://open.spotify.com/track/4BHzQ9C00ceJxfG16AlNWb'
p203
sg8
S'Send My Love (To Your New Lover)'
p204
ssS'4Km5HrUvYTaSUfiSGPJeQR'
p205
(dp206
g3
S'Migos'
p207
sg5
I40
sg6
S'https://open.spotify.com/track/4Km5HrUvYTaSUfiSGPJeQR'
p208
sg8
S'Bad and Boujee (feat. Lil Uzi Vert)'
p209
ssS'50PWlIBU7PlGGwzgN8TiFJ'
p210
(dp211
g3
S'Lady Gaga'
p212
sg5
I17
sg6
S'https://open.spotify.com/track/50PWlIBU7PlGGwzgN8TiFJ'
p213
sg8
S'Million Reasons'
p214
ssS'6HN5XPJEV31RQJGoyqZ81K'
p215
(dp216
g3
S'Logic'
p217
sg5
I1
sg6
S'https://open.spotify.com/track/6HN5XPJEV31RQJGoyqZ81K'
p218
sg8
S'Take It Back'
p219
ssS'2RttW7RAu5nOAfq6YFvApB'
p220
(dp221
g3
S'Ed Sheeran'
p222
sg5
I30
sg6
S'https://open.spotify.com/track/2RttW7RAu5nOAfq6YFvApB'
p223
sg8
S'Happier'
p224
ssS'0RYXEibxMami3QuT8kn4Iz'
p225
(dp226
g3
S'Macklemore'
p227
sg5
I5
sg6
S'https://open.spotify.com/track/0RYXEibxMami3QuT8kn4Iz'
p228
sg8
S'Marmalade (feat. Lil Yachty)'
p229
ssS'5LYQSNHZxEA880URXFHg6h'
p230
(dp231
g3
S'Lana Del Rey'
p232
sg5
I5
sg6
S'https://open.spotify.com/track/5LYQSNHZxEA880URXFHg6h'
p233
sg8
S'Lust for Life (with The Weeknd)'
p234
ssS'3EmmCZoqpWOTY1g2GBwJoR'
p235
(dp236
g3
S'Steve Aoki'
p237
sg5
I22
sg6
S'https://open.spotify.com/track/3EmmCZoqpWOTY1g2GBwJoR'
p238
sg8
S'Just Hold On'
p239
ssS'3YQUpKTmtgPJf8u6ooi9KA'
p240
(dp241
g3
S'Elton John'
p242
sg5
I1
sg6
S'https://open.spotify.com/track/3YQUpKTmtgPJf8u6ooi9KA'
p243
sg8
S'Step Into Christmas'
p244
ssS'6zLdXcmvIxnAXpz9sXFnIE'
p245
(dp246
g3
S'Thomas Rhett'
p247
sg5
I4
sg6
S'https://open.spotify.com/track/6zLdXcmvIxnAXpz9sXFnIE'
p248
sg8
S'Craving You'
p249
ssS'05ZXXyeZFhZtA6DAP3Aw7x'
p250
(dp251
g3
S'Maite Perroni'
p252
sg5
I5
sg6
S'https://open.spotify.com/track/05ZXXyeZFhZtA6DAP3Aw7x'
p253
sg8
S'Loca (feat. Cali Y El Dandee)'
p254
ssS'0gbBzIqrECJOEPvQJIBFs5'
p255
(dp256
g3
S'Lorde'
p257
sg5
I18
sg6
S'https://open.spotify.com/track/0gbBzIqrECJOEPvQJIBFs5'
p258
sg8
S'Green Light'
p259
ssS'20dP2DaMHIAmwWAbp7peSr'
p260
(dp261
g3
S'Young Thug'
p262
sg5
I12
sg6
S'https://open.spotify.com/track/20dP2DaMHIAmwWAbp7peSr'
p263
sg8
S'pick up the phone'
p264
ssS'5kRPPEWFJIMox5qIkQkiz5'
p265
(dp266
g3
S'Harry Styles'
p267
sg5
I4
sg6
S'https://open.spotify.com/track/5kRPPEWFJIMox5qIkQkiz5'
p268
sg8
S'Sweet Creature'
p269
ssS'5eqK0tbzUPo2SoeZsov04s'
p270
(dp271
g3
S'21 Savage'
p272
sg5
I11
sg6
S'https://open.spotify.com/track/5eqK0tbzUPo2SoeZsov04s'
p273
sg8
S'Bank Account'
p274
ssS'5tz69p7tJuGPeMGwNTxYuV'
p275
(dp276
g3
S'Logic'
p277
sg5
I22
sg6
S'https://open.spotify.com/track/5tz69p7tJuGPeMGwNTxYuV'
p278
sg8
S'1-800-273-8255'
p279
ssS'1uL78kFWxhz3umTMWJu8n5'
p280
(dp281
g3
S'Lil Uzi Vert'
p282
sg5
I7
sg6
S'https://open.spotify.com/track/1uL78kFWxhz3umTMWJu8n5'
p283
sg8
S'Sauce It Up'
p284
ssS'4iYRa2btalAzPZoSYfROqF'
p285
(dp286
g3
S'Kendrick Lamar'
p287
sg5
I6
sg6
S'https://open.spotify.com/track/4iYRa2btalAzPZoSYfROqF'
p288
sg8
S'XXX. FEAT. U2.'
p289
ssS'4xlrALxuaCf9yZBHJeTSG6'
p290
(dp291
g3
S'Jonas Blue'
p292
sg5
I7
sg6
S'https://open.spotify.com/track/4xlrALxuaCf9yZBHJeTSG6'
p293
sg8
S'Mama'
p294
ssS'6Nle9hKrkL1wQpwNfEkxjh'
p295
(dp296
g3
S'Frank Ocean'
p297
sg5
I3
sg6
S'https://open.spotify.com/track/6Nle9hKrkL1wQpwNfEkxjh'
p298
sg8
S'Chanel'
p299
ssS'4izg6Hydc6XGErWW6nbdsV'
p300
(dp301
g3
S'Imagine Dragons'
p302
sg5
I1
sg6
S'https://open.spotify.com/track/4izg6Hydc6XGErWW6nbdsV'
p303
sg8
S'Whatever It Takes'
p304
ssS'2oUuLLKS8WbF7ELJcwbqms'
p305
(dp306
g3
S'XXXTENTACION'
p307
sg5
I2
sg6
S'https://open.spotify.com/track/2oUuLLKS8WbF7ELJcwbqms'
p308
sg8
S'Look at Me!'
p309
ssS'3pzjHKrQSvXGHQ98dx18HI'
p310
(dp311
g3
S'Justin Bieber'
p312
sg5
I7
sg6
S'https://open.spotify.com/track/3pzjHKrQSvXGHQ98dx18HI'
p313
sg8
S'What Do You Mean?'
p314
ssS'000xQL6tZNLJzIrtIgxqSl'
p315
(dp316
g3
S'ZAYN'
p317
sg5
I15
sg6
S'https://open.spotify.com/track/000xQL6tZNLJzIrtIgxqSl'
p318
sg8
S'Still Got Time'
p319
ssS'2FBUoWkIuQXwayw2RNo5l6'
p320
(dp321
g3
S'Drake'
p322
sg5
I7
sg6
S'https://open.spotify.com/track/2FBUoWkIuQXwayw2RNo5l6'
p323
sg8
S'Hotline Bling'
p324
ssS'1D3ODoXHBLpdxolZRHWV1j'
p325
(dp326
g3
S'Jonas Blue'
p327
sg5
I18
sg6
S'https://open.spotify.com/track/1D3ODoXHBLpdxolZRHWV1j'
p328
sg8
S'By Your Side'
p329
ssS'1CKd1PnqfYx0H12V9MSaIY'
p330
(dp331
g3
S'Zedd'
p332
sg5
I12
sg6
S'https://open.spotify.com/track/1CKd1PnqfYx0H12V9MSaIY'
p333
sg8
S'Get Low (with Liam Payne)'
p334
ssS'0VJYhKhrHgJ7fgjGaC2k07'
p335
(dp336
g3
S'XXXTENTACION'
p337
sg5
I1
sg6
S'https://open.spotify.com/track/0VJYhKhrHgJ7fgjGaC2k07'
p338
sg8
S'The Explanation'
p339
ssS'042x9bsUBWW2fJgJ6fUh61'
p340
(dp341
g3
S'DVBBS'
p342
sg5
I9
sg6
S'https://open.spotify.com/track/042x9bsUBWW2fJgJ6fUh61'
p343
sg8
S'Not Going Home'
p344
ssS'5Z01UMMf7V1o0MzF86s6WJ'
p345
(dp346
g3
S'Eminem'
p347
sg5
I30
sg6
S'https://open.spotify.com/track/5Z01UMMf7V1o0MzF86s6WJ'
p348
sg8
S'Lose Yourself - Soundtrack Version'
p349
ssS'4yN6xPLopmTLvc27pO9LIE'
p350
(dp351
g3
S'Nicky Jam'
p352
sg5
I22
sg6
S'https://open.spotify.com/track/4yN6xPLopmTLvc27pO9LIE'
p353
sg8
S'Si T\xc3\xba La Ves'
p354
ssS'5CtI0qwDJkDQGwXD1H1cLb'
p355
(dp356
g3
S'Luis Fonsi'
p357
sg5
I24
sg6
S'https://open.spotify.com/track/5CtI0qwDJkDQGwXD1H1cLb'
p358
sg8
S'Despacito - Remix'
p359
ssS'7m9OqQk4RVRkw9JJdeAw96'
p360
(dp361
g3
S'XXXTENTACION'
p362
sg5
I7
sg6
S'https://open.spotify.com/track/7m9OqQk4RVRkw9JJdeAw96'
p363
sg8
S'Jocelyn Flores'
p364
ssS'5o4yGlG0PfeVUa6ClIyOxq'
p365
(dp366
g3
S'Charli XCX'
p367
sg5
I4
sg6
S'https://open.spotify.com/track/5o4yGlG0PfeVUa6ClIyOxq'
p368
sg8
S'Boys'
p369
ssS'3JKhmIlixlYwFLzrkc6drb'
p370
(dp371
g3
S'Kesha'
p372
sg5
I1
sg6
S'https://open.spotify.com/track/3JKhmIlixlYwFLzrkc6drb'
p373
sg8
S'Learn To Let Go'
p374
ssS'2tdq0CeAGSfhI2l4Gwkvgx'
p375
(dp376
g3
S'BTS'
p377
sg5
I2
sg6
S'https://open.spotify.com/track/2tdq0CeAGSfhI2l4Gwkvgx'
p378
sg8
S'Best Of Me'
p379
ssS'7zxRMhXxJMQCeDDg0rKAVo'
p380
(dp381
g3
S'NAV'
p382
sg5
I2
sg6
S'https://open.spotify.com/track/7zxRMhXxJMQCeDDg0rKAVo'
p383
sg8
S'Some Way'
p384
ssS'7gHs73wELdeycvS48JfIos'
p385
(dp386
g3
S'Alan Walker'
p387
sg5
I35
sg6
S'https://open.spotify.com/track/7gHs73wELdeycvS48JfIos'
p388
sg8
S'Faded'
p389
ssS'0zCfmceT1YvtZXGbR6Roht'
p390
(dp391
g3
S'La La Land Cast'
p392
sg5
I3
sg6
S'https://open.spotify.com/track/0zCfmceT1YvtZXGbR6Roht'
p393
sg8
S'Another Day Of Sun - From La La Land Soundtrack'
p394
ssS'2MHCiOohBZEQuLgDTPvSzF'
p395
(dp396
g3
S'Galantis'
p397
sg5
I9
sg6
S'https://open.spotify.com/track/2MHCiOohBZEQuLgDTPvSzF'
p398
sg8
S'Love On Me'
p399
ssS'1Eck97uRMlprKOOJN9oO1E'
p400
(dp401
g3
S'G-Eazy'
p402
sg5
I15
sg6
S'https://open.spotify.com/track/1Eck97uRMlprKOOJN9oO1E'
p403
sg8
S'Good Life (with G-Eazy & Kehlani)'
p404
ssS'7ARveOiD31w2Nq0n5FsSf8'
p405
(dp406
g3
S'Lorde'
p407
sg5
I1
sg6
S'https://open.spotify.com/track/7ARveOiD31w2Nq0n5FsSf8'
p408
sg8
S'Perfect Places'
p409
ssS'2ekn2ttSfGqwhhate0LSR0'
p410
(dp411
g3
S'Dua Lipa'
p412
sg5
I14
sg6
S'https://open.spotify.com/track/2ekn2ttSfGqwhhate0LSR0'
p413
sg8
S'New Rules'
p414
ssS'0y1QJc3SJVPKJ1OvFmFqe6'
p415
(dp416
g3
S'Kaleo'
p417
sg5
I3
sg6
S'https://open.spotify.com/track/0y1QJc3SJVPKJ1OvFmFqe6'
p418
sg8
S'Way Down We Go'
p419
ssS'5WEqjIUHkwZ5h3DSE7F9bM'
p420
(dp421
g3
S'Avicii'
p422
sg5
I1
sg6
S'https://open.spotify.com/track/5WEqjIUHkwZ5h3DSE7F9bM'
p423
sg8
S'Friend Of Mine (feat. Vargas & Lagola)'
p424
ssS'5humEOJehpAwMJEJmb0JJ2'
p425
(dp426
g3
S'Nat King Cole'
p427
sg5
I1
sg6
S'https://open.spotify.com/track/5humEOJehpAwMJEJmb0JJ2'
p428
sg8
S'The Christmas Song (Merry Christmas To You)'
p429
ssS'2dfqS3MRtbLZSZA1IL8xY5'
p430
(dp431
g3
S'Drake'
p432
sg5
I3
sg6
S'https://open.spotify.com/track/2dfqS3MRtbLZSZA1IL8xY5'
p433
sg8
S'Skepta Interlude'
p434
ssS'1sCxVKWImDZSZKvG0U9B23'
p435
(dp436
g3
S'Selena Gomez'
p437
sg5
I19
sg6
S'https://open.spotify.com/track/1sCxVKWImDZSZKvG0U9B23'
p438
sg8
S'Bad Liar'
p439
ssS'6i759FCuKx713ZnYjtpQGU'
p440
(dp441
g3
S'The Weeknd'
p442
sg5
I2
sg6
S'https://open.spotify.com/track/6i759FCuKx713ZnYjtpQGU'
p443
sg8
S'True Colors'
p444
ssS'6jmngk8Fwup05JZ6kgXEGX'
p445
(dp446
g3
S'Imagine Dragons'
p447
sg5
I1
sg6
S'https://open.spotify.com/track/6jmngk8Fwup05JZ6kgXEGX'
p448
sg8
S'Walking The Wire'
p449
ssS'2nUJvBO87SkxCViQsLc9Zr'
p450
(dp451
g3
S'Big Shaq'
p452
sg5
I1
sg6
S'https://open.spotify.com/track/2nUJvBO87SkxCViQsLc9Zr'
p453
sg8
S"Man's Not Hot"
p454
ssS'2uSLx5uwRIhiA3sJJraNqX'
p455
(dp456
g3
S'Maroon 5'
p457
sg5
I1
sg6
S'https://open.spotify.com/track/2uSLx5uwRIhiA3sJJraNqX'
p458
sg8
S'Help Me Out (with Julia Michaels)'
p459
ssS'0G149jkGWKwrPXUGkEDgWM'
p460
(dp461
g3
S'21 Savage'
p462
sg5
I2
sg6
S'https://open.spotify.com/track/0G149jkGWKwrPXUGkEDgWM'
p463
sg8
S'Numb'
p464
ssS'0ADG9OgdVTL7fgREP75BrZ'
p465
(dp466
g3
S'Zara Larsson'
p467
sg5
I6
sg6
S'https://open.spotify.com/track/0ADG9OgdVTL7fgREP75BrZ'
p468
sg8
S"Ain't My Fault"
p469
ssS'3dQDid3IUNhZy1OehIfYfE'
p470
(dp471
g3
S'Wisin'
p472
sg5
I26
sg6
S'https://open.spotify.com/track/3dQDid3IUNhZy1OehIfYfE'
p473
sg8
S'Vacaciones'
p474
ssS'6Q2FftbUG530lCtBI74bMH'
p475
(dp476
g3
S'A Boogie Wit da Hoodie'
p477
sg5
I21
sg6
S'https://open.spotify.com/track/6Q2FftbUG530lCtBI74bMH'
p478
sg8
S'Drowning (feat. Kodak Black)'
p479
ssS'7vAXN57IQ0sj049wZGIboE'
p480
(dp481
g3
S'Imagine Dragons'
p482
sg5
I1
sg6
S'https://open.spotify.com/track/7vAXN57IQ0sj049wZGIboE'
p483
sg8
S'Rise Up'
p484
ssS'4hiUYb2nb6NlfTP9CD38Pe'
p485
(dp486
g3
S'Ti\xc3\xabsto'
p487
sg5
I1
sg6
S'https://open.spotify.com/track/4hiUYb2nb6NlfTP9CD38Pe'
p488
sg8
S'On My Way'
p489
ssS'3TRFq09DUgYj1mug6RRqJW'
p490
(dp491
g3
S'Luke Christopher'
p492
sg5
I12
sg6
S'https://open.spotify.com/track/3TRFq09DUgYj1mug6RRqJW'
p493
sg8
S'Lot to Learn'
p494
ssS'6s2wpWPFPAgKg2LXxi1Oee'
p495
(dp496
g3
S'Bruce Springsteen'
p497
sg5
I1
sg6
S'https://open.spotify.com/track/6s2wpWPFPAgKg2LXxi1Oee'
p498
sg8
S"Santa Claus Is Comin' to Town - Single Version"
p499
ssS'6O6M7pJLABmfBRoGZMu76Y'
p500
(dp501
g3
S'The Chainsmokers'
p502
sg5
I6
sg6
S'https://open.spotify.com/track/6O6M7pJLABmfBRoGZMu76Y'
p503
sg8
S'Roses'
p504
ssS'1rIKgCH4H52lrvDcz50hS8'
p505
(dp506
g3
S'Zara Larsson'
p507
sg5
I12
sg6
S'https://open.spotify.com/track/1rIKgCH4H52lrvDcz50hS8'
p508
sg8
S'Lush Life'
p509
ssS'76gUmNLXGQVOsGhfcshkFP'
p510
(dp511
g3
S'Drake'
p512
sg5
I5
sg6
S'https://open.spotify.com/track/76gUmNLXGQVOsGhfcshkFP'
p513
sg8
S'Madiba Riddim'
p514
ssS'7vGuf3Y35N4wmASOKLUVVU'
p515
(dp516
g3
S'Marshmello'
p517
sg5
I9
sg6
S'https://open.spotify.com/track/7vGuf3Y35N4wmASOKLUVVU'
p518
sg8
S'Silence'
p519
ssS'3EfugazgSddQvzZpkof5I4'
p520
(dp521
g3
S'Anne-Marie'
p522
sg5
I13
sg6
S'https://open.spotify.com/track/3EfugazgSddQvzZpkof5I4'
p523
sg8
S'Ciao Adios'
p524
ssS'0xPaZrF25ltzvz1a2Pm5DQ'
p525
(dp526
g3
S'Michael Bubl\xc3\xa9'
p527
sg5
I1
sg6
S'https://open.spotify.com/track/0xPaZrF25ltzvz1a2Pm5DQ'
p528
sg8
S'All I Want For Christmas Is You'
p529
ssS'5hEM0JchdVzQ5PwvSfITeX'
p530
(dp531
g3
S'Piso 21'
p532
sg5
I40
sg6
S'https://open.spotify.com/track/5hEM0JchdVzQ5PwvSfITeX'
p533
sg8
S'Me Llamas (feat. Maluma) - Remix'
p534
ssS'7iDxZ5Cd0Yg08d4fI5WVtG'
p535
(dp536
g3
S'Calvin Harris'
p537
sg5
I1
sg6
S'https://open.spotify.com/track/7iDxZ5Cd0Yg08d4fI5WVtG'
p538
sg8
S'Skrt On Me'
p539
ssS'7129iqBafaphfc3WPCGC0L'
p540
(dp541
g3
S'Lukas Graham'
p542
sg5
I22
sg6
S'https://open.spotify.com/track/7129iqBafaphfc3WPCGC0L'
p543
sg8
S'7 Years'
p544
ssS'4WjH9Bzt3kx7z8kl0awxh4'
p545
(dp546
g3
S'Major Lazer'
p547
sg5
I28
sg6
S'https://open.spotify.com/track/4WjH9Bzt3kx7z8kl0awxh4'
p548
sg8
S'Lean On (feat. M\xc3\x98 & DJ Snake)'
p549
ssS'75ZvA4QfFiZvzhj2xkaWAh'
p550
(dp551
g3
S'Post Malone'
p552
sg5
I3
sg6
S'https://open.spotify.com/track/75ZvA4QfFiZvzhj2xkaWAh'
p553
sg8
S'I Fall Apart'
p554
ssS'57p8CBvPOxrvyCbn6ttl5r'
p555
(dp556
g3
S'Skrillex'
p557
sg5
I11
sg6
S'https://open.spotify.com/track/57p8CBvPOxrvyCbn6ttl5r'
p558
sg8
S'Would You Ever'
p559
ssS'75JFxkI2RXiU7L9VXzMkle'
p560
(dp561
g3
S'Coldplay'
p562
sg5
I16
sg6
S'https://open.spotify.com/track/75JFxkI2RXiU7L9VXzMkle'
p563
sg8
S'The Scientist'
p564
ssS'0CcQNd8CINkwQfe1RDtGV6'
p565
(dp566
g3
S'Imagine Dragons'
p567
sg5
I33
sg6
S'https://open.spotify.com/track/0CcQNd8CINkwQfe1RDtGV6'
p568
sg8
S'Believer'
p569
ssS'7oolFzHipTMg2nL7shhdz2'
p570
(dp571
g3
S'Ed Sheeran'
p572
sg5
I6
sg6
S'https://open.spotify.com/track/7oolFzHipTMg2nL7shhdz2'
p573
sg8
S'Eraser'
p574
ssS'1f5cbQtDrykjarZVrShaDI'
p575
(dp576
g3
S'A Boogie Wit da Hoodie'
p577
sg5
I2
sg6
S'https://open.spotify.com/track/1f5cbQtDrykjarZVrShaDI'
p578
sg8
S'Drowning (feat. Kodak Black)'
p579
ssS'4Yf5bqU3NK4kNOypcrLYwU'
p580
(dp581
g3
S'Linkin Park'
p582
sg5
I1
sg6
S'https://open.spotify.com/track/4Yf5bqU3NK4kNOypcrLYwU'
p583
sg8
S'Faint'
p584
ssS'2NlmmAjGYrrjAp0MED5rGx'
p585
(dp586
g3
S'Taylor Swift'
p587
sg5
I1
sg6
S'https://open.spotify.com/track/2NlmmAjGYrrjAp0MED5rGx'
p588
sg8
S'Bad Blood'
p589
ssS'3B7udSGy2PfgoCniMSb523'
p590
(dp591
g3
S'Ed Sheeran'
p592
sg5
I6
sg6
S'https://open.spotify.com/track/3B7udSGy2PfgoCniMSb523'
p593
sg8
S'I See Fire'
p594
ssS'2WQn7Yvs728KZmmY6tgWqH'
p595
(dp596
g3
S'Halsey'
p597
sg5
I1
sg6
S'https://open.spotify.com/track/2WQn7Yvs728KZmmY6tgWqH'
p598
sg8
S'Eyes Closed'
p599
ssS'3NdDpSvN911VPGivFlV5d0'
p600
(dp601
g3
S'ZAYN'
p602
sg5
I40
sg6
S'https://open.spotify.com/track/3NdDpSvN911VPGivFlV5d0'
p603
sg8
S'I Don\xe2\x80\x99t Wanna Live Forever (Fifty Shades Darker) - From Fifty Shades Darker (Original Motion Picture Soundtrack)'
p604
ssS'6fwdbPMwP1zVStm8FybmkO'
p605
(dp606
g3
S'21 Savage'
p607
sg5
I16
sg6
S'https://open.spotify.com/track/6fwdbPMwP1zVStm8FybmkO'
p608
sg8
S'X (feat. Future)'
p609
ssS'02hNDxtMMTpq72rdp1lm6v'
p610
(dp611
g3
S'2 Chainz'
p612
sg5
I1
sg6
S'https://open.spotify.com/track/02hNDxtMMTpq72rdp1lm6v'
p613
sg8
S'4 AM'
p614
ssS'37F0uwRSrdzkBiuj0D5UHI'
p615
(dp616
g3
S'The Weeknd'
p617
sg5
I10
sg6
S'https://open.spotify.com/track/37F0uwRSrdzkBiuj0D5UHI'
p618
sg8
S'Reminder'
p619
ssS'1wC93sZRGcTgKLN2UWRSwW'
p620
(dp621
g3
S'Lorde'
p622
sg5
I1
sg6
S'https://open.spotify.com/track/1wC93sZRGcTgKLN2UWRSwW'
p623
sg8
S'Perfect Places'
p624
ssS'70lnL3QaSOIIyMa2X9aVRL'
p625
(dp626
g3
S'Shakira'
p627
sg5
I1
sg6
S'https://open.spotify.com/track/70lnL3QaSOIIyMa2X9aVRL'
p628
sg8
S'Perro Fiel'
p629
ssS'3DX4Y0egvc0slLcLl31h2p'
p630
(dp631
g3
S'The Weeknd'
p632
sg5
I3
sg6
S'https://open.spotify.com/track/3DX4Y0egvc0slLcLl31h2p'
p633
sg8
S'Secrets'
p634
ssS'0gb1J5UrTpzaU1s3nupgCd'
p635
(dp636
g3
S'Galantis'
p637
sg5
I4
sg6
S'https://open.spotify.com/track/0gb1J5UrTpzaU1s3nupgCd'
p638
sg8
S'No Money'
p639
ssS'1UZOjK1BwmwWU14Erba9CZ'
p640
(dp641
g3
S'Miley Cyrus'
p642
sg5
I2
sg6
S'https://open.spotify.com/track/1UZOjK1BwmwWU14Erba9CZ'
p643
sg8
S'Malibu'
p644
ssS'2eMwDehkIC1j68U6FA3Eiq'
p645
(dp646
g3
S'Lil Uzi Vert'
p647
sg5
I20
sg6
S'https://open.spotify.com/track/2eMwDehkIC1j68U6FA3Eiq'
p648
sg8
S'XO TOUR Llif3'
p649
ssS'2KklXplRtxMsBYo474Es0w'
p650
(dp651
g3
S'Ofenbach'
p652
sg5
I12
sg6
S'https://open.spotify.com/track/2KklXplRtxMsBYo474Es0w'
p653
sg8
S'Be Mine'
p654
ssS'5v9N8Rx3QsFvr50cxyQcA3'
p655
(dp656
g3
S'Mura Masa'
p657
sg5
I8
sg6
S'https://open.spotify.com/track/5v9N8Rx3QsFvr50cxyQcA3'
p658
sg8
S'Love$ick'
p659
ssS'7Hz6LLOVxrojLPIHJJ1S0E'
p660
(dp661
g3
S'Sam Smith'
p662
sg5
I1
sg6
S'https://open.spotify.com/track/7Hz6LLOVxrojLPIHJJ1S0E'
p663
sg8
S'Have Yourself A Merry Little Christmas'
p664
ssS'3CRDbSIZ4r5MsZ0YwxuEkn'
p665
(dp666
g3
S'Twenty One Pilots'
p667
sg5
I32
sg6
S'https://open.spotify.com/track/3CRDbSIZ4r5MsZ0YwxuEkn'
p668
sg8
S'Stressed Out'
p669
ssS'4dVpf9jZjcORqGTLUaeYj9'
p670
(dp671
g3
S'A$AP Ferg'
p672
sg5
I4
sg6
S'https://open.spotify.com/track/4dVpf9jZjcORqGTLUaeYj9'
p673
sg8
S'Plain Jane'
p674
ssS'6mICuAdrwEjh6Y6lroV2Kg'
p675
(dp676
g3
S'Shakira'
p677
sg5
I40
sg6
S'https://open.spotify.com/track/6mICuAdrwEjh6Y6lroV2Kg'
p678
sg8
S'Chantaje'
p679
ssS'1nX9KhK3Fff27SnrIor2Yb'
p680
(dp681
g3
S'2 Chainz'
p682
sg5
I10
sg6
S'https://open.spotify.com/track/1nX9KhK3Fff27SnrIor2Yb'
p683
sg8
S'4 AM'
p684
ssS'5O8x1YlmLQopQHErxtDfi9'
p685
(dp686
g3
S'Lil Uzi Vert'
p687
sg5
I1
sg6
S'https://open.spotify.com/track/5O8x1YlmLQopQHErxtDfi9'
p688
sg8
S'UnFazed (feat. The Weeknd)'
p689
ssS'6F609ICg9Spjrw1epsAnpa'
p690
(dp691
g3
S'Drake'
p692
sg5
I15
sg6
S'https://open.spotify.com/track/6F609ICg9Spjrw1epsAnpa'
p693
sg8
S'Controlla'
p694
ssS'2pnPe4pJtq7689i5ydzvJJ'
p695
(dp696
g3
S'Chuck Berry'
p697
sg5
I1
sg6
S'https://open.spotify.com/track/2pnPe4pJtq7689i5ydzvJJ'
p698
sg8
S'Run Rudolph Run - Single Version'
p699
ssS'5qbcsZMwL0x46sX7VO37Ye'
p700
(dp701
g3
S'NAV'
p702
sg5
I3
sg6
S'https://open.spotify.com/track/5qbcsZMwL0x46sX7VO37Ye'
p703
sg8
S'Up'
p704
ssS'4okba5wu9mMLXx79DXLKi3'
p705
(dp706
g3
S'Daddy Yankee'
p707
sg5
I34
sg6
S'https://open.spotify.com/track/4okba5wu9mMLXx79DXLKi3'
p708
sg8
S'La Rompe Corazones'
p709
ssS'3uMB82o0qa7erhiZBW9KQC'
p710
(dp711
g3
S'Stormzy'
p712
sg5
I2
sg6
S'https://open.spotify.com/track/3uMB82o0qa7erhiZBW9KQC'
p713
sg8
S'Big For Your Boots'
p714
ssS'12ip0ceCeszDTDFxDY1AXJ'
p715
(dp716
g3
S'Avicii'
p717
sg5
I1
sg6
S'https://open.spotify.com/track/12ip0ceCeszDTDFxDY1AXJ'
p718
sg8
S'You Be Love (feat. Billy Raffoul)'
p719
ssS'3OoZagIW3YK8vjt0ws6NOI'
p720
(dp721
g3
S'DJ Khaled'
p722
sg5
I1
sg6
S'https://open.spotify.com/track/3OoZagIW3YK8vjt0ws6NOI'
p723
sg8
S'Shining'
p724
ssS'00lNx0OcTJrS3MKHcB80HY'
p725
(dp726
g3
S'Jax Jones'
p727
sg5
I30
sg6
S'https://open.spotify.com/track/00lNx0OcTJrS3MKHcB80HY'
p728
sg8
S"You Don't Know Me - Radio Edit"
p729
ssS'2s76aKBWKShlwPC4xTtEEE'
p730
(dp731
g3
S'State of Sound'
p732
sg5
I3
sg6
S'https://open.spotify.com/track/2s76aKBWKShlwPC4xTtEEE'
p733
sg8
S'Wake Up Where You Are'
p734
ssS'2SYa5Lx1uoCvyDIW4oee9b'
p735
(dp736
g3
S'BTS'
p737
sg5
I1
sg6
S'https://open.spotify.com/track/2SYa5Lx1uoCvyDIW4oee9b'
p738
sg8
S'MIC Drop'
p739
ssS'6t2ubAB4iSYOuIpRAOGd4t'
p740
(dp741
g3
S'Flo Rida'
p742
sg5
I12
sg6
S'https://open.spotify.com/track/6t2ubAB4iSYOuIpRAOGd4t'
p743
sg8
S'Cake'
p744
ssS'4nDfc6F2uVcc6wdG7kBzWO'
p745
(dp746
g3
S'Nick Jonas'
p747
sg5
I3
sg6
S'https://open.spotify.com/track/4nDfc6F2uVcc6wdG7kBzWO'
p748
sg8
S'Bom Bidi Bom - From Fifty Shades Darker (Original Motion Picture Soundtrack)'
p749
ssS'2ANLarE8yHVsLWW21nj79M'
p750
(dp751
g3
S'Lil Uzi Vert'
p752
sg5
I7
sg6
S'https://open.spotify.com/track/2ANLarE8yHVsLWW21nj79M'
p753
sg8
S'You Was Right'
p754
ssS'0dj1CtyRxZ4bnIT4Q20jNT'
p755
(dp756
g3
S'The Chainsmokers'
p757
sg5
I1
sg6
S'https://open.spotify.com/track/0dj1CtyRxZ4bnIT4Q20jNT'
p758
sg8
S'Wake Up Alone'
p759
ssS'7JNh1cfm0eXjqFVOzKLyau'
p760
(dp761
g3
S'Becky G'
p762
sg5
I11
sg6
S'https://open.spotify.com/track/7JNh1cfm0eXjqFVOzKLyau'
p763
sg8
S'Mayores'
p764
ssS'0fg8CqpjdojMyXLNzM2PaJ'
p765
(dp766
g3
S'Major Lazer'
p767
sg5
I19
sg6
S'https://open.spotify.com/track/0fg8CqpjdojMyXLNzM2PaJ'
p768
sg8
S'Run Up (feat. PARTYNEXTDOOR & Nicki Minaj)'
p769
ssS'3umS4y3uQDkqekNjVpiRUs'
p770
(dp771
g3
S'Nicky Jam'
p772
sg5
I35
sg6
S'https://open.spotify.com/track/3umS4y3uQDkqekNjVpiRUs'
p773
sg8
S'El Amante'
p774
ssS'6uFsE1JgZ20EXyU0JQZbUR'
p775
(dp776
g3
S'Taylor Swift'
p777
sg5
I7
sg6
S'https://open.spotify.com/track/6uFsE1JgZ20EXyU0JQZbUR'
p778
sg8
S'Look What You Made Me Do'
p779
ssS'6SIrNxmmdbv1KUbFBu1PaN'
p780
(dp781
g3
S'Ozuna'
p782
sg5
I3
sg6
S'https://open.spotify.com/track/6SIrNxmmdbv1KUbFBu1PaN'
p783
sg8
S'Bebe (feat. Anuel AA)'
p784
ssS'7Fa5UNizycSms5jP3SQD3F'
p785
(dp786
g3
S'DJ Khaled'
p787
sg5
I1
sg6
S'https://open.spotify.com/track/7Fa5UNizycSms5jP3SQD3F'
p788
sg8
S'Shining'
p789
ssS'5CPqOpKSk0QcJ3dGdaWcRB'
p790
(dp791
g3
S'The xx'
p792
sg5
I2
sg6
S'https://open.spotify.com/track/5CPqOpKSk0QcJ3dGdaWcRB'
p793
sg8
S'On Hold'
p794
ssS'0L87MffumRNWrY2SNUFcvs'
p795
(dp796
g3
S'Milky Chance'
p797
sg5
I5
sg6
S'https://open.spotify.com/track/0L87MffumRNWrY2SNUFcvs'
p798
sg8
S'Cocoon'
p799
ssS'4xBjsLUSjcx2h7PcRikpQp'
p800
(dp801
g3
S'Camila Cabello'
p802
sg5
I10
sg6
S'https://open.spotify.com/track/4xBjsLUSjcx2h7PcRikpQp'
p803
sg8
S'OMG'
p804
ssS'0URaKGzNTtzKRtsJN1RkA9'
p805
(dp806
g3
S'Big Sean'
p807
sg5
I1
sg6
S'https://open.spotify.com/track/0URaKGzNTtzKRtsJN1RkA9'
p808
sg8
S'Light'
p809
ssS'7GX5flRQZVHRAGd6B4TmDO'
p810
(dp811
g3
S'Lil Uzi Vert'
p812
sg5
I7
sg6
S'https://open.spotify.com/track/7GX5flRQZVHRAGd6B4TmDO'
p813
sg8
S'XO TOUR Llif3'
p814
ssS'3O7p9Itz8PXUoAjD2vmuM6'
p815
(dp816
g3
S'Lana Del Rey'
p817
sg5
I1
sg6
S'https://open.spotify.com/track/3O7p9Itz8PXUoAjD2vmuM6'
p818
sg8
S'Beautiful People Beautiful Problems (feat. Stevie Nicks)'
p819
ssS'4F7A0DXBrmUAkp32uenhZt'
p820
(dp821
g3
S'The Weeknd'
p822
sg5
I18
sg6
S'https://open.spotify.com/track/4F7A0DXBrmUAkp32uenhZt'
p823
sg8
S'Party Monster'
p824
ssS'0qYTZCo5Bwh1nsUFGZP3zn'
p825
(dp826
g3
S'Maluma'
p827
sg5
I23
sg6
S'https://open.spotify.com/track/0qYTZCo5Bwh1nsUFGZP3zn'
p828
sg8
S'Felices los 4'
p829
ssS'0CokSRCu5hZgPxcZBaEzVE'
p830
(dp831
g3
S'Macklemore'
p832
sg5
I3
sg6
S'https://open.spotify.com/track/0CokSRCu5hZgPxcZBaEzVE'
p833
sg8
S'Glorious (feat. Skylar Grey)'
p834
ssS'4nMlau89VAjmV7agkl7OY3'
p835
(dp836
g3
S'Andy Grammer'
p837
sg5
I12
sg6
S'https://open.spotify.com/track/4nMlau89VAjmV7agkl7OY3'
p838
sg8
S'Fresh Eyes'
p839
ssS'4z3GJkrtH97Bj6fRta983T'
p840
(dp841
g3
S'Carlos Vives'
p842
sg5
I10
sg6
S'https://open.spotify.com/track/4z3GJkrtH97Bj6fRta983T'
p843
sg8
S'Robarte un Beso'
p844
ssS'4qBejt9FeqLI9blHI1Nq1x'
p845
(dp846
g3
S'Michael Bubl\xc3\xa9'
p847
sg5
I1
sg6
S'https://open.spotify.com/track/4qBejt9FeqLI9blHI1Nq1x'
p848
sg8
S'Jingle Bells (feat. The Puppini Sisters)'
p849
ssS'0pJPdSVti6cTM1Q6xYGmcf'
p850
(dp851
g3
S'Calvin Harris'
p852
sg5
I1
sg6
S'https://open.spotify.com/track/0pJPdSVti6cTM1Q6xYGmcf'
p853
sg8
S'Faking It'
p854
ssS'5tVA6TkbaAH9QMITTQRrNv'
p855
(dp856
g3
S'Tom Petty'
p857
sg5
I1
sg6
S'https://open.spotify.com/track/5tVA6TkbaAH9QMITTQRrNv'
p858
sg8
S"Free Fallin'"
p859
ssS'78sr3ogs4UzITcCNbXM9cM'
p860
(dp861
g3
S'Future'
p862
sg5
I7
sg6
S'https://open.spotify.com/track/78sr3ogs4UzITcCNbXM9cM'
p863
sg8
S'Used to This'
p864
ssS'1sTUEdVO85YU8Ymk2jeAls'
p865
(dp866
g3
S'MiC LOWRY'
p867
sg5
I4
sg6
S'https://open.spotify.com/track/1sTUEdVO85YU8Ymk2jeAls'
p868
sg8
S'Oh Lord'
p869
ssS'7BKLCZ1jbUBVqRi2FVlTVw'
p870
(dp871
g3
S'The Chainsmokers'
p872
sg5
I40
sg6
S'https://open.spotify.com/track/7BKLCZ1jbUBVqRi2FVlTVw'
p873
sg8
S'Closer'
p874
ssS'39pS70eeDvyCAF3t8NAlVV'
p875
(dp876
g3
S'2 Chainz'
p877
sg5
I1
sg6
S'https://open.spotify.com/track/39pS70eeDvyCAF3t8NAlVV'
p878
sg8
S'Good Drank'
p879
ssS'7hDc8b7IXETo14hHIHdnhd'
p880
(dp881
g3
S'Drake'
p882
sg5
I28
sg6
S'https://open.spotify.com/track/7hDc8b7IXETo14hHIHdnhd'
p883
sg8
S'Passionfruit'
p884
ssS'3RiPr603aXAoi4GHyXx0uy'
p885
(dp886
g3
S'Coldplay'
p887
sg5
I3
sg6
S'https://open.spotify.com/track/3RiPr603aXAoi4GHyXx0uy'
p888
sg8
S'Hymn For The Weekend'
p889
ssS'0tICYNayWWhH9GPeFrfjfD'
p890
(dp891
g3
S'Kungs'
p892
sg5
I21
sg6
S'https://open.spotify.com/track/0tICYNayWWhH9GPeFrfjfD'
p893
sg8
S"This Girl (Kungs Vs. Cookin' On 3 Burners) - Kungs Vs. Cookin' On 3 Burners"
p894
ssS'0Z9HQ8YvHqdeOjTwsR3cS7'
p895
(dp896
g3
S'Moon Taxi'
p897
sg5
I1
sg6
S'https://open.spotify.com/track/0Z9HQ8YvHqdeOjTwsR3cS7'
p898
sg8
S'Two High'
p899
ssS'3Lfiu5sZ4M4B6JaKMBc0FU'
p900
(dp901
g3
S'Ed Sheeran'
p902
sg5
I10
sg6
S'https://open.spotify.com/track/3Lfiu5sZ4M4B6JaKMBc0FU'
p903
sg8
S'Barcelona'
p904
ssS'2LTlO3NuNVN70lp2ZbVswF'
p905
(dp906
g3
S'Kendrick Lamar'
p907
sg5
I5
sg6
S'https://open.spotify.com/track/2LTlO3NuNVN70lp2ZbVswF'
p908
sg8
S'FEEL.'
p909
ssS'59J5nzL1KniFHnU120dQzt'
p910
(dp911
g3
S'Playboi Carti'
p912
sg5
I12
sg6
S'https://open.spotify.com/track/59J5nzL1KniFHnU120dQzt'
p913
sg8
S'wokeuplikethis*'
p914
ssS'1eVRnmGhDPATPxz6kqWuCP'
p915
(dp916
g3
S'Julia Michaels'
p917
sg5
I1
sg6
S'https://open.spotify.com/track/1eVRnmGhDPATPxz6kqWuCP'
p918
sg8
S'Uh Huh'
p919
ssS'6y2Kaz9QI01XBKJ8mTb7Pf'
p920
(dp921
g3
S"Rag'n'Bone Man"
p922
sg5
I15
sg6
S'https://open.spotify.com/track/6y2Kaz9QI01XBKJ8mTb7Pf'
p923
sg8
S'Skin'
p924
ssS'6jA8HL9i4QGzsj6fjoxp8Y'
p925
(dp926
g3
S'Martin Garrix'
p927
sg5
I18
sg6
S'https://open.spotify.com/track/6jA8HL9i4QGzsj6fjoxp8Y'
p928
sg8
S'There for You'
p929
ssS'2pzuU8vLaG8W1P31X65ZP9'
p930
(dp931
g3
S'Big Sean'
p932
sg5
I1
sg6
S'https://open.spotify.com/track/2pzuU8vLaG8W1P31X65ZP9'
p933
sg8
S'Voices In My Head/Stick To The Plan'
p934
ssS'65Q2mv3UlVi9eO70OpsmSe'
p935
(dp936
g3
S'Burl Ives'
p937
sg5
I1
sg6
S'https://open.spotify.com/track/65Q2mv3UlVi9eO70OpsmSe'
p938
sg8
S'A Holly Jolly Christmas - Single Version'
p939
ssS'0XLOf9LhyazPX9Ld8jPiUq'
p940
(dp941
g3
S'Selena Gomez'
p942
sg5
I12
sg6
S'https://open.spotify.com/track/0XLOf9LhyazPX9Ld8jPiUq'
p943
sg8
S'Fetish (feat. Gucci Mane)'
p944
ssS'05Z7jet4VDNVgNQWcYHnrk'
p945
(dp946
g3
S'Chris Brown'
p947
sg5
I5
sg6
S'https://open.spotify.com/track/05Z7jet4VDNVgNQWcYHnrk'
p948
sg8
S'Party'
p949
ssS'0kN8xEmgMW9mh7UmDYHlJP'
p950
(dp951
g3
S'Bruno Mars'
p952
sg5
I22
sg6
S'https://open.spotify.com/track/0kN8xEmgMW9mh7UmDYHlJP'
p953
sg8
S'Versace On The Floor'
p954
ssS'1yxgsra98r3qAtxqiGZPiX'
p955
(dp956
g3
S'Travis Scott'
p957
sg5
I19
sg6
S'https://open.spotify.com/track/1yxgsra98r3qAtxqiGZPiX'
p958
sg8
S'Butterfly Effect'
p959
ssS'7EiZI6JVHllARrX9PUvAdX'
p960
(dp961
g3
S'Future'
p962
sg5
I12
sg6
S'https://open.spotify.com/track/7EiZI6JVHllARrX9PUvAdX'
p963
sg8
S'Low Life'
p964
ssS'0Clb9aiXWa0dvVff5aN4VN'
p965
(dp966
g3
S'Astrid S'
p967
sg5
I5
sg6
S'https://open.spotify.com/track/0Clb9aiXWa0dvVff5aN4VN'
p968
sg8
S'Think Before I Talk'
p969
ssS'550rQQCGkrTzvp4SfpOPzx'
p970
(dp971
g3
S'Pentatonix'
p972
sg5
I1
sg6
S'https://open.spotify.com/track/550rQQCGkrTzvp4SfpOPzx'
p973
sg8
S'Hallelujah'
p974
ssS'3xXBsjrbG1xQIm1xv1cKOt'
p975
(dp976
g3
S'Linkin Park'
p977
sg5
I2
sg6
S'https://open.spotify.com/track/3xXBsjrbG1xQIm1xv1cKOt'
p978
sg8
S'One More Light'
p979
ssS'3A7qX2QjDlPnazUsRk5y0M'
p980
(dp981
g3
S'David Guetta'
p982
sg5
I17
sg6
S'https://open.spotify.com/track/3A7qX2QjDlPnazUsRk5y0M'
p983
sg8
S'2U (feat. Justin Bieber)'
p984
ssS'0OwX5aROoW1Iip8FV51Efg'
p985
(dp986
g3
S'Anne-Marie'
p987
sg5
I1
sg6
S'https://open.spotify.com/track/0OwX5aROoW1Iip8FV51Efg'
p988
sg8
S'Alarm'
p989
ssS'6A8dnC0xkiuWN4BshmTB2I'
p990
(dp991
g3
S'A R I Z O N A'
p992
sg5
I10
sg6
S'https://open.spotify.com/track/6A8dnC0xkiuWN4BshmTB2I'
p993
sg8
S'Oceans Away'
p994
ssS'2OALaHcDdKkjYEpAr0Qzab'
p995
(dp996
g3
S'Avicii'
p997
sg5
I9
sg6
S'https://open.spotify.com/track/2OALaHcDdKkjYEpAr0Qzab'
p998
sg8
S'Lonely Together (feat. Rita Ora)'
p999
ssS'56lBX2WHqfGuoeZxZvUnVj'
p1000
(dp1001
g3
S'Imagine Dragons'
p1002
sg5
I1
sg6
S'https://open.spotify.com/track/56lBX2WHqfGuoeZxZvUnVj'
p1003
sg8
S'Thunder'
p1004
ssS'0XfOi87h82i09rQjWYG0Bm'
p1005
(dp1006
g3
S'Jax Jones'
p1007
sg5
I10
sg6
S'https://open.spotify.com/track/0XfOi87h82i09rQjWYG0Bm'
p1008
sg8
S'Instruction (feat. Demi Lovato & Stefflon Don)'
p1009
ssS'5qqabIl2vWzo9ApSC317sa'
p1010
(dp1011
g3
S'Oasis'
p1012
sg5
I11
sg6
S'https://open.spotify.com/track/5qqabIl2vWzo9ApSC317sa'
p1013
sg8
S'Wonderwall - Remastered'
p1014
ssS'28irpKCCK9nn9DZSik2zEx'
p1015
(dp1016
g3
S'Drake'
p1017
sg5
I3
sg6
S'https://open.spotify.com/track/28irpKCCK9nn9DZSik2zEx'
p1018
sg8
S'Glow'
p1019
ssS'5JUu0unA8VwhTZ9LkMWUVI'
p1020
(dp1021
g3
S'Drake'
p1022
sg5
I2
sg6
S'https://open.spotify.com/track/5JUu0unA8VwhTZ9LkMWUVI'
p1023
sg8
S'Since Way Back'
p1024
ssS'4IWAyPf1KMq7JCyGeCjTeH'
p1025
(dp1026
g3
S'Imagine Dragons'
p1027
sg5
I7
sg6
S'https://open.spotify.com/track/4IWAyPf1KMq7JCyGeCjTeH'
p1028
sg8
S'Whatever It Takes'
p1029
ssS'1AJQ97yAt6xfeF7nQaE1t8'
p1030
(dp1031
g3
S'Imagine Dragons'
p1032
sg5
I1
sg6
S'https://open.spotify.com/track/1AJQ97yAt6xfeF7nQaE1t8'
p1033
sg8
S'Walking The Wire'
p1034
ssS'0ZExP2I5Ej92PsnG4G1jVG'
p1035
(dp1036
g3
S'Julia Michaels'
p1037
sg5
I2
sg6
S'https://open.spotify.com/track/0ZExP2I5Ej92PsnG4G1jVG'
p1038
sg8
S'Uh Huh'
p1039
ssS'6YZdkObH88npeKrrkb8Ggf'
p1040
(dp1041
g3
S'Enrique Iglesias'
p1042
sg5
I11
sg6
S'https://open.spotify.com/track/6YZdkObH88npeKrrkb8Ggf'
p1043
sg8
S'DUELE EL CORAZON'
p1044
ssS'0WCEaydwN65cvwaW8aqptF'
p1045
(dp1046
g3
S'Olivia Holt'
p1047
sg5
I16
sg6
S'https://open.spotify.com/track/0WCEaydwN65cvwaW8aqptF'
p1048
sg8
S'History'
p1049
ssS'6KjbNLbRjuoa8rEq5yNA6H'
p1050
(dp1051
g3
S'The Chainsmokers'
p1052
sg5
I1
sg6
S'https://open.spotify.com/track/6KjbNLbRjuoa8rEq5yNA6H'
p1053
sg8
S'Honest'
p1054
ssS'3FiE2d325mIOc4YjkSLVJR'
p1055
(dp1056
g3
S'Ariana Grande'
p1057
sg5
I9
sg6
S'https://open.spotify.com/track/3FiE2d325mIOc4YjkSLVJR'
p1058
sg8
S'Everyday'
p1059
ssS'2bjwRfXMk4uRgOD9IBYl9h'
p1060
(dp1061
g3
S'Drake'
p1062
sg5
I21
sg6
S'https://open.spotify.com/track/2bjwRfXMk4uRgOD9IBYl9h'
p1063
sg8
S'Portland'
p1064
ssS'0FuTx2s3YH1ppmtiM6l0zI'
p1065
(dp1066
g3
S'JP Cooper'
p1067
sg5
I27
sg6
S'https://open.spotify.com/track/0FuTx2s3YH1ppmtiM6l0zI'
p1068
sg8
S'September Song'
p1069
ssS'0Zbbxnx4SGGHoIow4PpISP'
p1070
(dp1071
g3
S'Kygo'
p1072
sg5
I3
sg6
S'https://open.spotify.com/track/0Zbbxnx4SGGHoIow4PpISP'
p1073
sg8
S'Stargazing'
p1074
ssS'1QgTBfRN5m81a5K01qens6'
p1075
(dp1076
g3
S'Lil Uzi Vert'
p1077
sg5
I2
sg6
S'https://open.spotify.com/track/1QgTBfRN5m81a5K01qens6'
p1078
sg8
S'444+222'
p1079
ssS'5GFDrUTLGJix84sNhjCG0g'
p1080
(dp1081
g3
S'Amin\xc3\xa9'
p1082
sg5
I20
sg6
S'https://open.spotify.com/track/5GFDrUTLGJix84sNhjCG0g'
p1083
sg8
S'Caroline'
p1084
ssS'33B2QbtAj8mbDpwvGTOnBt'
p1085
(dp1086
g3
S'The xx'
p1087
sg5
I1
sg6
S'https://open.spotify.com/track/33B2QbtAj8mbDpwvGTOnBt'
p1088
sg8
S'Dangerous'
p1089
ssS'1onfcprzpSGh2LqrBh17AA'
p1090
(dp1091
g3
S'The xx'
p1092
sg5
I1
sg6
S'https://open.spotify.com/track/1onfcprzpSGh2LqrBh17AA'
p1093
sg8
S'Lips'
p1094
ssS'0m2orA1i5lLZUOt9XLwSd0'
p1095
(dp1096
g3
S'Fifth Harmony'
p1097
sg5
I1
sg6
S'https://open.spotify.com/track/0m2orA1i5lLZUOt9XLwSd0'
p1098
sg8
S'He Like That'
p1099
ssS'2jyjhRf6DVbMPU5zxagN2h'
p1100
(dp1101
g3
S'Passenger'
p1102
sg5
I9
sg6
S'https://open.spotify.com/track/2jyjhRf6DVbMPU5zxagN2h'
p1103
sg8
S'Let Her Go'
p1104
ssS'7i2DJ88J7jQ8K7zqFX2fW8'
p1105
(dp1106
g3
S'Halsey'
p1107
sg5
I15
sg6
S'https://open.spotify.com/track/7i2DJ88J7jQ8K7zqFX2fW8'
p1108
sg8
S'Now Or Never'
p1109
ssS'6stYbAJgTszHAHZMPxWWCY'
p1110
(dp1111
g3
S'IAmChino'
p1112
sg5
I25
sg6
S'https://open.spotify.com/track/6stYbAJgTszHAHZMPxWWCY'
p1113
sg8
S'Ay Mi Dios'
p1114
ssS'43ZyHQITOjhciSUUNPVRHc'
p1115
(dp1116
g3
S'Lil Pump'
p1117
sg5
I1
sg6
S'https://open.spotify.com/track/43ZyHQITOjhciSUUNPVRHc'
p1118
sg8
S'Gucci Gang'
p1119
ssS'5sNESr6pQfIhL3krM8CtZn'
p1120
(dp1121
g3
S'JAY Z'
p1122
sg5
I1
sg6
S'https://open.spotify.com/track/5sNESr6pQfIhL3krM8CtZn'
p1123
sg8
S'Numb / Encore'
p1124
ssS'68EMU2RD1ECNeOeJ5qAXCV'
p1125
(dp1126
g3
S'Charlie Puth'
p1127
sg5
I40
sg6
S'https://open.spotify.com/track/68EMU2RD1ECNeOeJ5qAXCV'
p1128
sg8
S"We Don't Talk Anymore (feat. Selena Gomez)"
p1129
ssS'3b5Li4QKDVBx1x7fQuu54a'
p1130
(dp1131
g3
S'Alan Walker'
p1132
sg5
I12
sg6
S'https://open.spotify.com/track/3b5Li4QKDVBx1x7fQuu54a'
p1133
sg8
S'Tired'
p1134
ssS'04CttTezSnv71USiiG9mIo'
p1135
(dp1136
g3
S'Hearts & Colors'
p1137
sg5
I10
sg6
S'https://open.spotify.com/track/04CttTezSnv71USiiG9mIo'
p1138
sg8
S'Lighthouse - Andrelli Remix'
p1139
ssS'6vSwxzO2Qf4BinHSXRwZJe'
p1140
(dp1141
g3
S'Ed Sheeran'
p1142
sg5
I2
sg6
S'https://open.spotify.com/track/6vSwxzO2Qf4BinHSXRwZJe'
p1143
sg8
S'Tenerife Sea'
p1144
ssS'1cImYkHOQMFE7AZC9aOk4y'
p1145
(dp1146
g3
S'Bobby Helms'
p1147
sg5
I1
sg6
S'https://open.spotify.com/track/1cImYkHOQMFE7AZC9aOk4y'
p1148
sg8
S'Jingle Bell Rock'
p1149
ssS'2q6tgiA9tpb6DMguABwCWE'
p1150
(dp1151
g3
S'John Legend'
p1152
sg5
I9
sg6
S'https://open.spotify.com/track/2q6tgiA9tpb6DMguABwCWE'
p1153
sg8
S'All of Me'
p1154
ssS'4VuS959DSpr82t3qBqCrWG'
p1155
(dp1156
g3
S'Ed Sheeran'
p1157
sg5
I10
sg6
S'https://open.spotify.com/track/4VuS959DSpr82t3qBqCrWG'
p1158
sg8
S'Supermarket Flowers'
p1159
ssS'7bJwvubZZaoGE1AGEfu8Fi'
p1160
(dp1161
g3
S'Ariana Grande'
p1162
sg5
I10
sg6
S'https://open.spotify.com/track/7bJwvubZZaoGE1AGEfu8Fi'
p1163
sg8
S'One Last Time'
p1164
ssS'1jQsKN68yE94tMYml0wHMd'
p1165
(dp1166
g3
S'Big Sean'
p1167
sg5
I1
sg6
S'https://open.spotify.com/track/1jQsKN68yE94tMYml0wHMd'
p1168
sg8
S'Jump Out The Window'
p1169
ssS'0Zx8khUcEfCFK2AEoIhC92'
p1170
(dp1171
g3
S'Snakehips'
p1172
sg5
I17
sg6
S'https://open.spotify.com/track/0Zx8khUcEfCFK2AEoIhC92'
p1173
sg8
S"Don't Leave"
p1174
ssS'1crSsvtU9wZB15dIQXV2QH'
p1175
(dp1176
g3
S'John Mayer'
p1177
sg5
I1
sg6
S'https://open.spotify.com/track/1crSsvtU9wZB15dIQXV2QH'
p1178
sg8
S'Moving On and Getting Over'
p1179
ssS'0oiCeOPwm4zhwfyIpAE37y'
p1180
(dp1181
g3
S'John Mayer'
p1182
sg5
I1
sg6
S'https://open.spotify.com/track/0oiCeOPwm4zhwfyIpAE37y'
p1183
sg8
S'Love on the Weekend'
p1184
ssS'33SNO8AaciGbNaQFkxvPrW'
p1185
(dp1186
g3
S'Harry Styles'
p1187
sg5
I2
sg6
S'https://open.spotify.com/track/33SNO8AaciGbNaQFkxvPrW'
p1188
sg8
S'Kiwi'
p1189
ssS'61HHDBLqF3AmSvLfHKNGd2'
p1190
(dp1191
g3
S'Karol G'
p1192
sg5
I10
sg6
S'https://open.spotify.com/track/61HHDBLqF3AmSvLfHKNGd2'
p1193
sg8
S'Ahora Me Llama'
p1194
ssS'1lxswgIpzV6HhENRvkflES'
p1195
(dp1196
g3
S'Farruko'
p1197
sg5
I9
sg6
S'https://open.spotify.com/track/1lxswgIpzV6HhENRvkflES'
p1198
sg8
S'Chillax'
p1199
ssS'6n3HGiq4v35D6eFOSwqYuo'
p1200
(dp1201
g3
S'Drake'
p1202
sg5
I7
sg6
S'https://open.spotify.com/track/6n3HGiq4v35D6eFOSwqYuo'
p1203
sg8
S'Teenage Fever'
p1204
ssS'61WbtB6ujkpNAsAf5LjF4b'
p1205
(dp1206
g3
S'Katy Perry'
p1207
sg5
I12
sg6
S'https://open.spotify.com/track/61WbtB6ujkpNAsAf5LjF4b'
p1208
sg8
S'Bon app\xc3\xa9tit'
p1209
ssS'2bBMODHVTXGwE2aZYfbgCt'
p1210
(dp1211
g3
S'Gorillaz'
p1212
sg5
I2
sg6
S'https://open.spotify.com/track/2bBMODHVTXGwE2aZYfbgCt'
p1213
sg8
S'Ascension (feat. Vince Staples)'
p1214
ssS'7ofxPmTNMj2GP07g1VZa0O'
p1215
(dp1216
g3
S'Alex Sensation'
p1217
sg5
I7
sg6
S'https://open.spotify.com/track/7ofxPmTNMj2GP07g1VZa0O'
p1218
sg8
S'Que Va'
p1219
ssS'0YHUITU3w6ws1v8ehT264g'
p1220
(dp1221
g3
S'Little Mix'
p1222
sg5
I11
sg6
S'https://open.spotify.com/track/0YHUITU3w6ws1v8ehT264g'
p1223
sg8
S'Shout Out to My Ex'
p1224
ssS'5yuShbu70mtHXY0yLzCQLQ'
p1225
(dp1226
g3
S'Post Malone'
p1227
sg5
I14
sg6
S'https://open.spotify.com/track/5yuShbu70mtHXY0yLzCQLQ'
p1228
sg8
S'Go Flex'
p1229
ssS'3dJj6o9o1fRgrojWjailuz'
p1230
(dp1231
g3
S'Linkin Park'
p1232
sg5
I1
sg6
S'https://open.spotify.com/track/3dJj6o9o1fRgrojWjailuz'
p1233
sg8
S'Nobody Can Save Me'
p1234
ssS'193Dm5SqYy3hTSbuzxbwKc'
p1235
(dp1236
g3
S'Lorde'
p1237
sg5
I1
sg6
S'https://open.spotify.com/track/193Dm5SqYy3hTSbuzxbwKc'
p1238
sg8
S'Writer In The Dark'
p1239
ssS'3tcoEYOZUHKB3RKNByIN13'
p1240
(dp1241
g3
S'Lil Uzi Vert'
p1242
sg5
I1
sg6
S'https://open.spotify.com/track/3tcoEYOZUHKB3RKNByIN13'
p1243
sg8
S'For Real'
p1244
ssS'5tf1VVWniHgryyumXyJM7w'
p1245
(dp1246
g3
S'Robin Schulz'
p1247
sg5
I1
sg6
S'https://open.spotify.com/track/5tf1VVWniHgryyumXyJM7w'
p1248
sg8
S'Sugar (feat. Francesco Yates)'
p1249
ssS'32DGGj6KlNuBr6WaqRxpxi'
p1250
(dp1251
g3
S'Charlie Puth'
p1252
sg5
I1
sg6
S'https://open.spotify.com/track/32DGGj6KlNuBr6WaqRxpxi'
p1253
sg8
S'How Long'
p1254
ssS'5Y3Tj0wJhKAaPbwWxXxZGS'
p1255
(dp1256
g3
S'Lil Uzi Vert'
p1257
sg5
I1
sg6
S'https://open.spotify.com/track/5Y3Tj0wJhKAaPbwWxXxZGS'
p1258
sg8
S'Feelings Mutual'
p1259
ssS'2XlHu0HcujBCkWMdIAvrqt'
p1260
(dp1261
g3
S'Drake'
p1262
sg5
I10
sg6
S'https://open.spotify.com/track/2XlHu0HcujBCkWMdIAvrqt'
p1263
sg8
S'Blem'
p1264
ssS'3BY2mafsbsoKGqS380Xnuz'
p1265
(dp1266
g3
S'Don Omar'
p1267
sg5
I25
sg6
S'https://open.spotify.com/track/3BY2mafsbsoKGqS380Xnuz'
p1268
sg8
S'Te Quiero Pa\xc2\xb4Mi'
p1269
ssS'5f5r2N4Lp9WoULWPH9zp2W'
p1270
(dp1271
g3
S'Drake'
p1272
sg5
I3
sg6
S'https://open.spotify.com/track/5f5r2N4Lp9WoULWPH9zp2W'
p1273
sg8
S"Can't Have Everything"
p1274
ssS'2QWP8NYYplOqEFBYGCcq0S'
p1275
(dp1276
g3
S'The Script'
p1277
sg5
I5
sg6
S'https://open.spotify.com/track/2QWP8NYYplOqEFBYGCcq0S'
p1278
sg8
S'Rain'
p1279
ssS'7nAfXgeHfDO50upcOjJOaq'
p1280
(dp1281
g3
S'Linkin Park'
p1282
sg5
I1
sg6
S'https://open.spotify.com/track/7nAfXgeHfDO50upcOjJOaq'
p1283
sg8
S'Talking to Myself'
p1284
ssS'5hYTyyh2odQKphUbMqc5gN'
p1285
(dp1286
g3
S'Alessia Cara'
p1287
sg5
I31
sg6
S'https://open.spotify.com/track/5hYTyyh2odQKphUbMqc5gN'
p1288
sg8
S"How Far I'll Go - From Moana"
p1289
ssS'1u8c2t2Cy7UBoG4ArRcF5g'
p1290
(dp1291
g3
S'Taylor Swift'
p1292
sg5
I1
sg6
S'https://open.spotify.com/track/1u8c2t2Cy7UBoG4ArRcF5g'
p1293
sg8
S'Blank Space'
p1294
ssS'1sBhJGPUKrdRycgKxve70v'
p1295
(dp1296
g3
S'Felix Jaehn'
p1297
sg5
I9
sg6
S'https://open.spotify.com/track/1sBhJGPUKrdRycgKxve70v'
p1298
sg8
S'Hot2Touch'
p1299
ssS'72jbDTw1piOOj770jWNeaG'
p1300
(dp1301
g3
S'The Chainsmokers'
p1302
sg5
I37
sg6
S'https://open.spotify.com/track/72jbDTw1piOOj770jWNeaG'
p1303
sg8
S'Paris'
p1304
ssS'12REd1n8PeiHHWOh066tpr'
p1305
(dp1306
g3
S'Flume'
p1307
sg5
I7
sg6
S'https://open.spotify.com/track/12REd1n8PeiHHWOh066tpr'
p1308
sg8
S'Never Be Like You'
p1309
ssS'6G41AeVgQkpvEbTxN5fNkW'
p1310
(dp1311
g3
S'Boef'
p1312
sg5
I1
sg6
S'https://open.spotify.com/track/6G41AeVgQkpvEbTxN5fNkW'
p1313
sg8
S'Habiba'
p1314
ssS'0xG0SHshCStMEyNbNC5d4k'
p1315
(dp1316
g3
S'Julia Michaels'
p1317
sg5
I9
sg6
S'https://open.spotify.com/track/0xG0SHshCStMEyNbNC5d4k'
p1318
sg8
S'Issues'
p1319
ssS'2rb5MvYT7ZIxbKW5hfcHx8'
p1320
(dp1321
g3
S'J Balvin'
p1322
sg5
I15
sg6
S'https://open.spotify.com/track/2rb5MvYT7ZIxbKW5hfcHx8'
p1323
sg8
S'Mi Gente'
p1324
ssS'12o6dxWGk29uIAP3OWY0pM'
p1325
(dp1326
g3
S'Lorde'
p1327
sg5
I5
sg6
S'https://open.spotify.com/track/12o6dxWGk29uIAP3OWY0pM'
p1328
sg8
S'Homemade Dynamite'
p1329
ssS'25oOaleife6E2MIKmFkPvg'
p1330
(dp1331
g3
S'Young Thug'
p1332
sg5
I7
sg6
S'https://open.spotify.com/track/25oOaleife6E2MIKmFkPvg'
p1333
sg8
S'Relationship (feat. Future)'
p1334
ssS'4oLuMvGQ4WJfU2s4OM6nfE'
p1335
(dp1336
g3
S'Migos'
p1337
sg5
I1
sg6
S'https://open.spotify.com/track/4oLuMvGQ4WJfU2s4OM6nfE'
p1338
sg8
S'Culture (feat. DJ Khaled)'
p1339
ssS'6YnzBV7YkaXZNCK3tlnCfg'
p1340
(dp1341
g3
S'Boney M.'
p1342
sg5
I1
sg6
S'https://open.spotify.com/track/6YnzBV7YkaXZNCK3tlnCfg'
p1343
sg8
S"Mary's Boy Child / Oh My Lord"
p1344
ssS'6p8NuHm8uCGnn2Dtbtf7zE'
p1345
(dp1346
g3
S'Migos'
p1347
sg5
I26
sg6
S'https://open.spotify.com/track/6p8NuHm8uCGnn2Dtbtf7zE'
p1348
sg8
S'Slippery (feat. Gucci Mane)'
p1349
ssS'2KvHC9z14GSl4YpkNMX384'
p1350
(dp1351
g3
S'Drake'
p1352
sg5
I5
sg6
S'https://open.spotify.com/track/2KvHC9z14GSl4YpkNMX384'
p1353
sg8
S'Do Not Disturb'
p1354
ssS'2gbCG4Rt9984UZ7Tc0dIFd'
p1355
(dp1356
g3
S'Michael Bubl\xc3\xa9'
p1357
sg5
I1
sg6
S'https://open.spotify.com/track/2gbCG4Rt9984UZ7Tc0dIFd'
p1358
sg8
S'White Christmas (Duet With Shania Twain)'
p1359
ssS'5e0RPsQUTQu0A29wqD6bZR'
p1360
(dp1361
g3
S'Future'
p1362
sg5
I1
sg6
S'https://open.spotify.com/track/5e0RPsQUTQu0A29wqD6bZR'
p1363
sg8
S'Super Trapper'
p1364
ssS'77lGafvlU68CeHgB2pkHC9'
p1365
(dp1366
g3
S'Machine Gun Kelly'
p1367
sg5
I10
sg6
S'https://open.spotify.com/track/77lGafvlU68CeHgB2pkHC9'
p1368
sg8
S'At My Best (feat. Hailee Steinfeld)'
p1369
ssS'0dA2Mk56wEzDgegdC6R17g'
p1370
(dp1371
g3
S'Zedd'
p1372
sg5
I31
sg6
S'https://open.spotify.com/track/0dA2Mk56wEzDgegdC6R17g'
p1373
sg8
S'Stay (with Alessia Cara)'
p1374
ssS'3kGfazcbVvVkuZunzlLgTD'
p1375
(dp1376
g3
S'Sigala'
p1377
sg5
I17
sg6
S'https://open.spotify.com/track/3kGfazcbVvVkuZunzlLgTD'
p1378
sg8
S'Came Here for Love'
p1379
ssS'6OQea06z3cbOqYgG2O6eOZ'
p1380
(dp1381
g3
S'Logic'
p1382
sg5
I1
sg6
S'https://open.spotify.com/track/6OQea06z3cbOqYgG2O6eOZ'
p1383
sg8
S'Killing Spree'
p1384
ssS'3Ytr1SUCUi6J3L9dRFx5iH'
p1385
(dp1386
g3
S'Major Lazer'
p1387
sg5
I18
sg6
S'https://open.spotify.com/track/3Ytr1SUCUi6J3L9dRFx5iH'
p1388
sg8
S'Know No Better (feat. Quavo)'
p1389
ssS'1sl5tSzfK1JrcQIcA8rYDy'
p1390
(dp1391
g3
S'Grey'
p1392
sg5
I1
sg6
S'https://open.spotify.com/track/1sl5tSzfK1JrcQIcA8rYDy'
p1393
sg8
S'I Miss You'
p1394
ssS'66gNNRsKkmECPQUrvpMQtS'
p1395
(dp1396
g3
S'DJ Jonathan'
p1397
sg5
I1
sg6
S'https://open.spotify.com/track/66gNNRsKkmECPQUrvpMQtS'
p1398
sg8
S'El Farsante'
p1399
ssS'5ZnJsoJGkQ5K15W7Rcr5JO'
p1400
(dp1401
g3
S'Little Mix'
p1402
sg5
I4
sg6
S'https://open.spotify.com/track/5ZnJsoJGkQ5K15W7Rcr5JO'
p1403
sg8
S'No More Sad Songs (feat. Machine Gun Kelly)'
p1404
ssS'7nZmah2llfvLDiUjm0kiyz'
p1405
(dp1406
g3
S'Justin Bieber'
p1407
sg5
I8
sg6
S'https://open.spotify.com/track/7nZmah2llfvLDiUjm0kiyz'
p1408
sg8
S'Friends (with BloodPop\xc2\xae)'
p1409
ssS'13HVjjWUZFaWilh2QUJKsP'
p1410
(dp1411
g3
S'James Bay'
p1412
sg5
I11
sg6
S'https://open.spotify.com/track/13HVjjWUZFaWilh2QUJKsP'
p1413
sg8
S'Let It Go'
p1414
ssS'0y9uTzK9cNKSAEHnpeRG8C'
p1415
(dp1416
g3
S'Kendrick Lamar'
p1417
sg5
I3
sg6
S'https://open.spotify.com/track/0y9uTzK9cNKSAEHnpeRG8C'
p1418
sg8
S'DUCKWORTH.'
p1419
ssS'2vQwlW8H1jFveGNXwZfJCV'
p1420
(dp1421
g3
S'XXXTENTACION'
p1422
sg5
I1
sg6
S'https://open.spotify.com/track/2vQwlW8H1jFveGNXwZfJCV'
p1423
sg8
S'Dead Inside (Interlude)'
p1424
ssS'3eFJqPe8VUYrABbFjSauuj'
p1425
(dp1426
g3
S''
p1427
sg5
I1
sg6
S'https://open.spotify.com/track/3eFJqPe8VUYrABbFjSauuj'
p1428
sg8
g1427
ssS'2SmgFAhQkQCQPyBiBxR6Te'
p1429
(dp1430
g3
S'Natti Natasha'
p1431
sg5
I4
sg6
S'https://open.spotify.com/track/2SmgFAhQkQCQPyBiBxR6Te'
p1432
sg8
S'Criminal'
p1433
ssS'6D0b04NJIKfEMg040WioJQ'
p1434
(dp1435
g3
S'Julia Michaels'
p1436
sg5
I2
sg6
S'https://open.spotify.com/track/6D0b04NJIKfEMg040WioJQ'
p1437
sg8
S'Issues'
p1438
ssS'7MHN1aCFtLXjownGhvEQlF'
p1439
(dp1440
g3
S'Manuel Turizo'
p1441
sg5
I18
sg6
S'https://open.spotify.com/track/7MHN1aCFtLXjownGhvEQlF'
p1442
sg8
S'Una Lady Como T\xc3\xba'
p1443
ssS'7fwXWKdDNI5IutOMc5OKYw'
p1444
(dp1445
g3
S'J Balvin'
p1446
sg5
I2
sg6
S'https://open.spotify.com/track/7fwXWKdDNI5IutOMc5OKYw'
p1447
sg8
S'Mi Gente (feat. Beyonc\xc3\xa9)'
p1448
ssS'7of1slAJIWrXxP8ikAHxje'
p1449
(dp1450
g3
S'James Hersey'
p1451
sg5
I3
sg6
S'https://open.spotify.com/track/7of1slAJIWrXxP8ikAHxje'
p1452
sg8
S'Miss You'
p1453
ssS'3hRZsdTF5uyGA2uhNqEuhm'
p1454
(dp1455
g3
S'Niall Horan'
p1456
sg5
I4
sg6
S'https://open.spotify.com/track/3hRZsdTF5uyGA2uhNqEuhm'
p1457
sg8
S'Too Much To Ask'
p1458
ssS'2dfHh7ECGxfNqZTQno09Vk'
p1459
(dp1460
g3
S'Ed Sheeran'
p1461
sg5
I7
sg6
S'https://open.spotify.com/track/2dfHh7ECGxfNqZTQno09Vk'
p1462
sg8
S"Hearts Don't Break Around Here"
p1463
ssS'6n8TMVyFKoUmDc4apxceRD'
p1464
(dp1465
g3
S'Linkin Park'
p1466
sg5
I1
sg6
S'https://open.spotify.com/track/6n8TMVyFKoUmDc4apxceRD'
p1467
sg8
S'Breaking The Habit'
p1468
ssS'76Y0gxtTxN0FyDCYh5qYQj'
p1469
(dp1470
g3
S'Migos'
p1471
sg5
I7
sg6
S'https://open.spotify.com/track/76Y0gxtTxN0FyDCYh5qYQj'
p1472
sg8
S'Get Right Witcha'
p1473
ssS'0jOfl1nZf6sVBTG08Q4brn'
p1474
(dp1475
g3
S'Migos'
p1476
sg5
I2
sg6
S'https://open.spotify.com/track/0jOfl1nZf6sVBTG08Q4brn'
p1477
sg8
S'Call Casting'
p1478
ssS'7l9CE3wmEGOUYw1j4ETjnL'
p1479
(dp1480
g3
S'Gorillaz'
p1481
sg5
I2
sg6
S'https://open.spotify.com/track/7l9CE3wmEGOUYw1j4ETjnL'
p1482
sg8
S'Saturnz Barz (feat. Popcaan)'
p1483
ssS'5fc6rQgAKiLutfUYWQ6QnJ'
p1484
(dp1485
g3
S'Sia'
p1486
sg5
I4
sg6
S'https://open.spotify.com/track/5fc6rQgAKiLutfUYWQ6QnJ'
p1487
sg8
S'Helium - From Fifty Shades Darker (Original Motion Picture Soundtrack)'
p1488
ssS'343YBumqHu19cGoGARUTsd'
p1489
(dp1490
g3
S'Drake'
p1491
sg5
I37
sg6
S'https://open.spotify.com/track/343YBumqHu19cGoGARUTsd'
p1492
sg8
S'Fake Love'
p1493
ssS'5HDPtsnyb3maFmPL8LLUTG'
p1494
(dp1495
g3
S'Ed Sheeran'
p1496
sg5
I11
sg6
S'https://open.spotify.com/track/5HDPtsnyb3maFmPL8LLUTG'
p1497
sg8
S'New Man'
p1498
ssS'4xyNG8vZR3g8FnphVkbjRo'
p1499
(dp1500
g3
S'Lana Del Rey'
p1501
sg5
I1
sg6
S'https://open.spotify.com/track/4xyNG8vZR3g8FnphVkbjRo'
p1502
sg8
S'Love'
p1503
ssS'6V9kwssTrwkKT72imgowj9'
p1504
(dp1505
g3
S'The Chainsmokers'
p1506
sg5
I1
sg6
S'https://open.spotify.com/track/6V9kwssTrwkKT72imgowj9'
p1507
sg8
S'My Type'
p1508
ssS'6WbADFqMvR8N5u0BvtsWQE'
p1509
(dp1510
g3
S'Avicii'
p1511
sg5
I9
sg6
S'https://open.spotify.com/track/6WbADFqMvR8N5u0BvtsWQE'
p1512
sg8
S'Without You (feat. Sandro Cavazza)'
p1513
ssS'5uDASfU19gDxSjW8cnCaBp'
p1514
(dp1515
g3
S'Rob $tone'
p1516
sg5
I12
sg6
S'https://open.spotify.com/track/5uDASfU19gDxSjW8cnCaBp'
p1517
sg8
S'Chill Bill'
p1518
ssS'4pdPtRcBmOSQDlJ3Fk945m'
p1519
(dp1520
g3
S'DJ Snake'
p1521
sg5
I40
sg6
S'https://open.spotify.com/track/4pdPtRcBmOSQDlJ3Fk945m'
p1522
sg8
S'Let Me Love You'
p1523
ssS'7lRsNbdOGykkMAgsqs4R1C'
p1524
(dp1525
g3
S'Nacho'
p1526
sg5
I15
sg6
S'https://open.spotify.com/track/7lRsNbdOGykkMAgsqs4R1C'
p1527
sg8
S'B\xc3\xa1ilame'
p1528
ssS'5EnYT6F7wEcdege6mDHEfO'
p1529
(dp1530
g3
S'Drake'
p1531
sg5
I14
sg6
S'https://open.spotify.com/track/5EnYT6F7wEcdege6mDHEfO'
p1532
sg8
S'Signs'
p1533
ssS'3QwBODjSEzelZyVjxPOHdq'
p1534
(dp1535
g3
S'Zion & Lennox'
p1536
sg5
I40
sg6
S'https://open.spotify.com/track/3QwBODjSEzelZyVjxPOHdq'
p1537
sg8
S'Otra Vez (feat. J Balvin)'
p1538
ssS'1uoL9GX45dTnmrWQ7Ii1Ft'
p1539
(dp1540
g3
S'Halsey'
p1541
sg5
I1
sg6
S'https://open.spotify.com/track/1uoL9GX45dTnmrWQ7Ii1Ft'
p1542
sg8
S'Not Afraid Anymore'
p1543
ssS'6zpXc7WJ3TqYWb02B6sKyF'
p1544
(dp1545
g3
S'Big Sean'
p1546
sg5
I1
sg6
S'https://open.spotify.com/track/6zpXc7WJ3TqYWb02B6sKyF'
p1547
sg8
S'Bigger Than Me'
p1548
ssS'6H0AwSQ20mo62jGlPGB8S6'
p1549
(dp1550
g3
S'2 Chainz'
p1551
sg5
I17
sg6
S'https://open.spotify.com/track/6H0AwSQ20mo62jGlPGB8S6'
p1552
sg8
S"It's A Vibe"
p1553
ssS'1OAiWI2oPmglaOiv9fdioU'
p1554
(dp1555
g3
S'Coldplay'
p1556
sg5
I10
sg6
S'https://open.spotify.com/track/1OAiWI2oPmglaOiv9fdioU'
p1557
sg8
S'Hymn For The Weekend - Seeb Remix'
p1558
ssS'209gZgcfLq2aUuu51vOWBl'
p1559
(dp1560
g3
S'CNCO'
p1561
sg5
I23
sg6
S'https://open.spotify.com/track/209gZgcfLq2aUuu51vOWBl'
p1562
sg8
S'Hey DJ'
p1563
ssS'7LEydI5NfjY6mZfKwYIptZ'
p1564
(dp1565
g3
S'Fifth Harmony'
p1566
sg5
I11
sg6
S'https://open.spotify.com/track/7LEydI5NfjY6mZfKwYIptZ'
p1567
sg8
S'Down'
p1568
ssS'7y9iMe8SOB6z3NoHE2OfXl'
p1569
(dp1570
g3
S'Halsey'
p1571
sg5
I6
sg6
S'https://open.spotify.com/track/7y9iMe8SOB6z3NoHE2OfXl'
p1572
sg8
S'Bad At Love'
p1573
ssS'2Na0z2gfN67Rzf0vp74Wi3'
p1574
(dp1575
g3
S'Drake'
p1576
sg5
I3
sg6
S'https://open.spotify.com/track/2Na0z2gfN67Rzf0vp74Wi3'
p1577
sg8
S'Lose You'
p1578
ssS'7oK9VyNzrYvRFo7nQEYkWN'
p1579
(dp1580
g3
S'The Killers'
p1581
sg5
I7
sg6
S'https://open.spotify.com/track/7oK9VyNzrYvRFo7nQEYkWN'
p1582
sg8
S'Mr. Brightside'
p1583
ssS'2jYmK1cb3Uya6FFsocdpzO'
p1584
(dp1585
g3
S'Sabrina Carpenter'
p1586
sg5
I8
sg6
S'https://open.spotify.com/track/2jYmK1cb3Uya6FFsocdpzO'
p1587
sg8
S'Why'
p1588
ssS'5OOkp4U9P9oL23maHFHL1h'
p1589
(dp1590
g3
S'Desiigner'
p1591
sg5
I28
sg6
S'https://open.spotify.com/track/5OOkp4U9P9oL23maHFHL1h'
p1592
sg8
S'Panda'
p1593
ssS'3qmvK8QARSPkFTuKeIXSbs'
p1594
(dp1595
g3
S'Linkin Park'
p1596
sg5
I1
sg6
S'https://open.spotify.com/track/3qmvK8QARSPkFTuKeIXSbs'
p1597
sg8
S'Bleed It Out'
p1598
ssS'7y6c07pgjZvtHI9kuMVqk1'
p1599
(dp1600
g3
S'Drake'
p1601
sg5
I6
sg6
S'https://open.spotify.com/track/7y6c07pgjZvtHI9kuMVqk1'
p1602
sg8
S'Get It Together'
p1603
ssS'4ckuS4Nj4FZ7i3Def3Br8W'
p1604
(dp1605
g3
S'Drake'
p1606
sg5
I13
sg6
S'https://open.spotify.com/track/4ckuS4Nj4FZ7i3Def3Br8W'
p1607
sg8
S'Sneakin\xe2\x80\x99'
p1608
ssS'5RCfvwDewu6p2x1mEI6smX'
p1609
(dp1610
g3
S'Tay-K'
p1611
sg5
I6
sg6
S'https://open.spotify.com/track/5RCfvwDewu6p2x1mEI6smX'
p1612
sg8
S'The Race'
p1613
ssS'1WIZiOuNO3woKfdlSK2gNn'
p1614
(dp1615
g3
S'Kodak Black'
p1616
sg5
I5
sg6
S'https://open.spotify.com/track/1WIZiOuNO3woKfdlSK2gNn'
p1617
sg8
S"Transportin'"
p1618
ssS'3cFsmM51N5zMAuu1nNY4Tw'
p1619
(dp1620
g3
S'Sean Paul'
p1621
sg5
I19
sg6
S'https://open.spotify.com/track/3cFsmM51N5zMAuu1nNY4Tw'
p1622
sg8
S'No Lie'
p1623
ssS'79cuOz3SPQTuFrp8WgftAu'
p1624
(dp1625
g3
S'Shawn Mendes'
p1626
sg5
I23
sg6
S'https://open.spotify.com/track/79cuOz3SPQTuFrp8WgftAu'
p1627
sg8
S"There's Nothing Holdin' Me Back"
p1628
ssS'4c2W3VKsOFoIg2SFaO6DY5'
p1629
(dp1630
g3
S'Rita Ora'
p1631
sg5
I18
sg6
S'https://open.spotify.com/track/4c2W3VKsOFoIg2SFaO6DY5'
p1632
sg8
S'Your Song'
p1633
ssS'0lmdsH1MIoLsMymnNpd6HU'
p1634
(dp1635
g3
S'Dante Klein'
p1636
sg5
I5
sg6
S'https://open.spotify.com/track/0lmdsH1MIoLsMymnNpd6HU'
p1637
sg8
S'Let Me Hold You (Turn Me On)'
p1638
ssS'4ARPvK8DHLwt4oX65ZAFMw'
p1639
(dp1640
g3
S'XXXTENTACION'
p1641
sg5
I28
sg6
S'https://open.spotify.com/track/4ARPvK8DHLwt4oX65ZAFMw'
p1642
sg8
S'Look At Me!'
p1643
ssS'5tFep7dXGd7vEJ668wTPux'
p1644
(dp1645
g3
S'Gucci Mane'
p1646
sg5
I10
sg6
S'https://open.spotify.com/track/5tFep7dXGd7vEJ668wTPux'
p1647
sg8
S'Both (feat. Drake)'
p1648
ssS'51ChrwmUPDJvedPQnIU8Ls'
p1649
(dp1650
g3
S'Ed Sheeran'
p1651
sg5
I19
sg6
S'https://open.spotify.com/track/51ChrwmUPDJvedPQnIU8Ls'
p1652
sg8
S'Dive'
p1653
ssS'3UjJP4ludb74a29P5EHEIo'
p1654
(dp1655
g3
S'Sabrina Carpenter'
p1656
sg5
I8
sg6
S'https://open.spotify.com/track/3UjJP4ludb74a29P5EHEIo'
p1657
sg8
S'Thumbs'
p1658
ssS'7FfpP3YZ6fOWMdxkIAtud9'
p1659
(dp1660
g3
S'Farruko'
p1661
sg5
I4
sg6
S'https://open.spotify.com/track/7FfpP3YZ6fOWMdxkIAtud9'
p1662
sg8
S'Krippy Kush'
p1663
ssS'3eR23VReFzcdmS7TYCrhCe'
p1664
(dp1665
g3
S'Kygo'
p1666
sg5
I31
sg6
S'https://open.spotify.com/track/3eR23VReFzcdmS7TYCrhCe'
p1667
sg8
S"It Ain't Me (with Selena Gomez)"
p1668
ssS'2eAZfqOm4EnOF9VvN50Tyc'
p1669
(dp1670
g3
S'Lil Uzi Vert'
p1671
sg5
I7
sg6
S'https://open.spotify.com/track/2eAZfqOm4EnOF9VvN50Tyc'
p1672
sg8
S'The Way Life Goes'
p1673
ssS'5wihevBA7MO9PNYyWyTfkh'
p1674
(dp1675
g3
S'Migos'
p1676
sg5
I1
sg6
S'https://open.spotify.com/track/5wihevBA7MO9PNYyWyTfkh'
p1677
sg8
S'Brown Paper Bag'
p1678
ssS'3LnOF5n1GOs01siYZXzS3p'
p1679
(dp1680
g3
S'A Boogie Wit da Hoodie'
p1681
sg5
I1
sg6
S'https://open.spotify.com/track/3LnOF5n1GOs01siYZXzS3p'
p1682
sg8
S'Drowning (feat. Kodak Black)'
p1683
ssS'22eADXu8DfOAUEDw4vU8qy'
p1684
(dp1685
g3
S'Chris Jeday'
p1686
sg5
I25
sg6
S'https://open.spotify.com/track/22eADXu8DfOAUEDw4vU8qy'
p1687
sg8
S'Ahora Dice'
p1688
ssS'58IL315gMSTD37DOZPJ2hf'
p1689
(dp1690
g3
S'Daddy Yankee'
p1691
sg5
I11
sg6
S'https://open.spotify.com/track/58IL315gMSTD37DOZPJ2hf'
p1692
sg8
S'Shaky Shaky'
p1693
ssS'02LZ1fGJE8fB56yTlCVMEV'
p1694
(dp1695
g3
S'Iggy Azalea'
p1696
sg5
I1
sg6
S'https://open.spotify.com/track/02LZ1fGJE8fB56yTlCVMEV'
p1697
sg8
S'Switch'
p1698
ssS'5LXj9Ch3O9ATm1NoHT8GXn'
p1699
(dp1700
g3
S'Coldplay'
p1701
sg5
I1
sg6
S'https://open.spotify.com/track/5LXj9Ch3O9ATm1NoHT8GXn'
p1702
sg8
S'Hypnotised'
p1703
ssS'1AhDOtG9vPSOmsWgNW0BEY'
p1704
(dp1705
g3
S'Queen'
p1706
sg5
I1
sg6
S'https://open.spotify.com/track/1AhDOtG9vPSOmsWgNW0BEY'
p1707
sg8
S'Bohemian Rhapsody - Remastered 2011'
p1708
ssS'732btJLGu7gYNHHNdzshrG'
p1709
(dp1710
g3
S'Logic'
p1711
sg5
I1
sg6
S'https://open.spotify.com/track/732btJLGu7gYNHHNdzshrG'
p1712
sg8
S'Ink Blot'
p1713
ssS'5bZtRlMBU76vHuDOb1GM5u'
p1714
(dp1715
g3
S'Jonas Blue'
p1716
sg5
I3
sg6
S'https://open.spotify.com/track/5bZtRlMBU76vHuDOb1GM5u'
p1717
sg8
S'Perfect Strangers'
p1718
ssS'1KT0xdIjm7t053xByACrrg'
p1719
(dp1720
g3
S'Ariana Grande'
p1721
sg5
I5
sg6
S'https://open.spotify.com/track/1KT0xdIjm7t053xByACrrg'
p1722
sg8
S'\xe7\xbe\x8e\xe5\xa5\xb3\xe3\x81\xa8\xe9\x87\x8e\xe7\x8d\xa3'
p1723
ssS'6TIU9Ehmi6dMzZK73Ym4yj'
p1724
(dp1725
g3
S'Ed Sheeran'
p1726
sg5
I5
sg6
S'https://open.spotify.com/track/6TIU9Ehmi6dMzZK73Ym4yj'
p1727
sg8
S'Save Myself'
p1728
ssS'7taXf5odg9xCAZERYfyOkS'
p1729
(dp1730
g3
S'Jos\xc3\xa9 Feliciano'
p1731
sg5
I1
sg6
S'https://open.spotify.com/track/7taXf5odg9xCAZERYfyOkS'
p1732
sg8
S'Feliz Navidad'
p1733
ssS'1OmcAT5Y8eg5bUPv9qJT4R'
p1734
(dp1735
g3
S'Post Malone'
p1736
sg5
I3
sg6
S'https://open.spotify.com/track/1OmcAT5Y8eg5bUPv9qJT4R'
p1737
sg8
S'rockstar'
p1738
ssS'6GeD5g9vZTz25Egf8kxoIY'
p1739
(dp1740
g3
S'The Chainsmokers'
p1741
sg5
I1
sg6
S'https://open.spotify.com/track/6GeD5g9vZTz25Egf8kxoIY'
p1742
sg8
S'Last Day Alive'
p1743
ssS'2mfUa8bLs2s5N4VaqJZ4lZ'
p1744
(dp1745
g3
S'Hailee Steinfeld'
p1746
sg5
I22
sg6
S'https://open.spotify.com/track/2mfUa8bLs2s5N4VaqJZ4lZ'
p1747
sg8
S'Most Girls'
p1748
ssS'7BpYWzZwrsljT1eIjb0TqR'
p1749
(dp1750
g3
S'Paramore'
p1751
sg5
I1
sg6
S'https://open.spotify.com/track/7BpYWzZwrsljT1eIjb0TqR'
p1752
sg8
S'Told You So'
p1753
ssS'4aWmUDTfIPGksMNLV2rQP2'
p1754
(dp1755
g3
S'Luis Fonsi'
p1756
sg5
I37
sg6
S'https://open.spotify.com/track/4aWmUDTfIPGksMNLV2rQP2'
p1757
sg8
S'Despacito (Featuring Daddy Yankee)'
p1758
ssS'58zsLZPvfflaiIbNWoA22O'
p1759
(dp1760
g3
S"Rag'n'Bone Man"
p1761
sg5
I22
sg6
S'https://open.spotify.com/track/58zsLZPvfflaiIbNWoA22O'
p1762
sg8
S'Human'
p1763
ssS'5dKyZWlgjWw1oJgLa4GCZD'
p1764
(dp1765
g3
S'Tove Lo'
p1766
sg5
I2
sg6
S'https://open.spotify.com/track/5dKyZWlgjWw1oJgLa4GCZD'
p1767
sg8
S'Cool Girl'
p1768
ssS'60APt5N2NRaKWf5xzJdzyC'
p1769
(dp1770
g3
S'Calvin Harris'
p1771
sg5
I7
sg6
S'https://open.spotify.com/track/60APt5N2NRaKWf5xzJdzyC'
p1772
sg8
S'Heatstroke'
p1773
ssS'1HTtUBEY3tuw2btgwwI2Ja'
p1774
(dp1775
g3
S'Gucci Mane'
p1776
sg5
I8
sg6
S'https://open.spotify.com/track/1HTtUBEY3tuw2btgwwI2Ja'
p1777
sg8
S'I Get The Bag (feat. Migos)'
p1778
ssS'25C5CowdsfXld2jJanbiex'
p1779
(dp1780
g3
S'Demi Lovato'
p1781
sg5
I12
sg6
S'https://open.spotify.com/track/25C5CowdsfXld2jJanbiex'
p1782
sg8
S'Sorry Not Sorry'
p1783
ssS'0azC730Exh71aQlOt9Zj3y'
p1784
(dp1785
g3
S'Calvin Harris'
p1786
sg5
I28
sg6
S'https://open.spotify.com/track/0azC730Exh71aQlOt9Zj3y'
p1787
sg8
S'This Is What You Came For'
p1788
ssS'2Z8WuEywRWYTKe1NybPQEW'
p1789
(dp1790
g3
S'Twenty One Pilots'
p1791
sg5
I30
sg6
S'https://open.spotify.com/track/2Z8WuEywRWYTKe1NybPQEW'
p1792
sg8
S'Ride'
p1793
ssS'52okn5MNA47tk87PeZJLEL'
p1794
(dp1795
g3
S'NF'
p1796
sg5
I1
sg6
S'https://open.spotify.com/track/52okn5MNA47tk87PeZJLEL'
p1797
sg8
S'Let You Down'
p1798
ssS'5SleX0NFeODNY7Xenal3gr'
p1799
(dp1800
g3
S'Zara Larsson'
p1801
sg5
I1
sg6
S'https://open.spotify.com/track/5SleX0NFeODNY7Xenal3gr'
p1802
sg8
S'Only You'
p1803
ssS'6JV2JOEocMgcZxYSZelKcc'
p1804
(dp1805
g3
S'Justin Timberlake'
p1806
sg5
I40
sg6
S'https://open.spotify.com/track/6JV2JOEocMgcZxYSZelKcc'
p1807
sg8
S"CAN'T STOP THE FEELING! (Original Song from DreamWorks Animation's TROLLS)"
p1808
ssS'05KOgYg8PGeJyyWBPi5ja8'
p1809
(dp1810
g3
S'Drake'
p1811
sg5
I7
sg6
S'https://open.spotify.com/track/05KOgYg8PGeJyyWBPi5ja8'
p1812
sg8
S'Free Smoke'
p1813
ssS'6De0lHrwBfPfrhorm9q1Xl'
p1814
(dp1815
g3
S'Danny Ocean'
p1816
sg5
I32
sg6
S'https://open.spotify.com/track/6De0lHrwBfPfrhorm9q1Xl'
p1817
sg8
S'Me Reh\xc3\xbaso'
p1818
ssS'3GVkPk8mqxz0itaAriG1L7'
p1819
(dp1820
g3
S'XXXTENTACION'
p1821
sg5
I7
sg6
S'https://open.spotify.com/track/3GVkPk8mqxz0itaAriG1L7'
p1822
sg8
S'Everybody Dies In Their Nightmares'
p1823
ssS'7aV2mflaASUmGhCErm7kBO'
p1824
(dp1825
g3
S'Nevada'
p1826
sg5
I10
sg6
S'https://open.spotify.com/track/7aV2mflaASUmGhCErm7kBO'
p1827
sg8
S'The Mack'
p1828
ssS'0bYg9bo50gSsH3LtXe2SQn'
p1829
(dp1830
g3
S'Mariah Carey'
p1831
sg5
I1
sg6
S'https://open.spotify.com/track/0bYg9bo50gSsH3LtXe2SQn'
p1832
sg8
S'All I Want for Christmas Is You'
p1833
ssS'3Q3myFA7q4Op95DOpHplaY'
p1834
(dp1835
g3
S'blackbear'
p1836
sg5
I18
sg6
S'https://open.spotify.com/track/3Q3myFA7q4Op95DOpHplaY'
p1837
sg8
S'do re mi'
p1838
ssS'3rOSwuTsUlJp0Pu0MkN8r8'
p1839
(dp1840
g3
S'Future'
p1841
sg5
I32
sg6
S'https://open.spotify.com/track/3rOSwuTsUlJp0Pu0MkN8r8'
p1842
sg8
S'Mask Off'
p1843
ssS'3ryjLm3oupIjJFGc39naNi'
p1844
(dp1845
g3
S'BTS'
p1846
sg5
I1
sg6
S'https://open.spotify.com/track/3ryjLm3oupIjJFGc39naNi'
p1847
sg8
S'dimple'
p1848
ssS'1qOLh0tI7trd1zdDKxYZTe'
p1849
(dp1850
g3
S'Hailee Steinfeld'
p1851
sg5
I33
sg6
S'https://open.spotify.com/track/1qOLh0tI7trd1zdDKxYZTe'
p1852
sg8
S'Starving'
p1853
ssS'0cqRj7pUJDkTCEsJkx8snD'
p1854
(dp1855
g3
S'Taylor Swift'
p1856
sg5
I1
sg6
S'https://open.spotify.com/track/0cqRj7pUJDkTCEsJkx8snD'
p1857
sg8
S'Shake It Off'
p1858
ssS'4KaIJ1FWXUoAAnOts1YWjD'
p1859
(dp1860
g3
S'Calvin Harris'
p1861
sg5
I1
sg6
S'https://open.spotify.com/track/4KaIJ1FWXUoAAnOts1YWjD'
p1862
sg8
S'Prayers Up'
p1863
ssS'7inXu0Eaeg02VsM8kHNvzM'
p1864
(dp1865
g3
S'Frank Sinatra'
p1866
sg5
I1
sg6
S'https://open.spotify.com/track/7inXu0Eaeg02VsM8kHNvzM'
p1867
sg8
S'Let It Snow! Let It Snow! Let It Snow!'
p1868
ssS'0JiVRyTJcJnmlwCZ854K4p'
p1869
(dp1870
g3
S'Alan Walker'
p1871
sg5
I18
sg6
S'https://open.spotify.com/track/0JiVRyTJcJnmlwCZ854K4p'
p1872
sg8
S'Alone'
p1873
ssS'1cG0umU5TKStygKsPFZ9pY'
p1874
(dp1875
g3
S'Robin Schulz'
p1876
sg5
I19
sg6
S'https://open.spotify.com/track/1cG0umU5TKStygKsPFZ9pY'
p1877
sg8
S'Shed a Light'
p1878
ssS'6520aj0B4FSKGVuKNsOCOi'
p1879
(dp1880
g3
S'Katy Perry'
p1881
sg5
I24
sg6
S'https://open.spotify.com/track/6520aj0B4FSKGVuKNsOCOi'
p1882
sg8
S'Chained To The Rhythm'
p1883
ssS'3caMfJGFp53NAH2TuigdNj'
p1884
(dp1885
g3
S'Galantis'
p1886
sg5
I13
sg6
S'https://open.spotify.com/track/3caMfJGFp53NAH2TuigdNj'
p1887
sg8
S'Hunter'
p1888
ssS'6EpRaXYhGOB3fj4V2uDkMJ'
p1889
(dp1890
g3
S'Liam Payne'
p1891
sg5
I19
sg6
S'https://open.spotify.com/track/6EpRaXYhGOB3fj4V2uDkMJ'
p1892
sg8
S'Strip That Down'
p1893
ssS'2MX30RliaxJDgmQ3C3rrJX'
p1894
(dp1895
g3
S'blackbear'
p1896
sg5
I1
sg6
S'https://open.spotify.com/track/2MX30RliaxJDgmQ3C3rrJX'
p1897
sg8
S'do re mi'
p1898
ssS'6kig1UFggPUyZBCvXD3Wod'
p1899
(dp1900
g3
S'Metro Boomin'
p1901
sg5
I13
sg6
S'https://open.spotify.com/track/6kig1UFggPUyZBCvXD3Wod'
p1902
sg8
S'No Complaints'
p1903
ssS'1r0faljjM2b876iNoaDUh5'
p1904
(dp1905
g3
S'Big Sean'
p1906
sg5
I2
sg6
S'https://open.spotify.com/track/1r0faljjM2b876iNoaDUh5'
p1907
sg8
S'Sacrifices'
p1908
ssS'1wjzFQodRWrPcQ0AnYnvQ9'
p1909
(dp1910
g3
S'Lauv'
p1911
sg5
I18
sg6
S'https://open.spotify.com/track/1wjzFQodRWrPcQ0AnYnvQ9'
p1912
sg8
S'I Like Me Better'
p1913
ssS'51PIvodunv6NmX5250zxAh'
p1914
(dp1915
g3
S'Lady Gaga'
p1916
sg5
I17
sg6
S'https://open.spotify.com/track/51PIvodunv6NmX5250zxAh'
p1917
sg8
S'The Cure'
p1918
ssS'4PdJSsESm34djLfBde9Pr2'
p1919
(dp1920
g3
S'David Guetta'
p1921
sg5
I2
sg6
S'https://open.spotify.com/track/4PdJSsESm34djLfBde9Pr2'
p1922
sg8
S'Would I Lie To You - Radio Edit'
p1923
ssS'03hqMhmCZiNKMSPmVabPLP'
p1924
(dp1925
g3
S'Lana Del Rey'
p1926
sg5
I1
sg6
S'https://open.spotify.com/track/03hqMhmCZiNKMSPmVabPLP'
p1927
sg8
S'Groupie Love (feat. A$AP Rocky)'
p1928
ssS'0utlOiJy2weVl9WTkcEWHy'
p1929
(dp1930
g3
S'J. Cole'
p1931
sg5
I5
sg6
S'https://open.spotify.com/track/0utlOiJy2weVl9WTkcEWHy'
p1932
sg8
S'Neighbors'
p1933
ssS'7DM4BPaS7uofFul3ywMe46'
p1934
(dp1935
g3
S'Ricky Martin'
p1936
sg5
I31
sg6
S'https://open.spotify.com/track/7DM4BPaS7uofFul3ywMe46'
p1937
sg8
S"Vente Pa' Ca"
p1938
ssS'67dyMPOUsbZ9Yg06PnfAAh'
p1939
(dp1940
g3
S'Future'
p1941
sg5
I1
sg6
S'https://open.spotify.com/track/67dyMPOUsbZ9Yg06PnfAAh'
p1942
sg8
S'Draco'
p1943
ssS'3GPI7hYiqD6enLRobhkBm8'
p1944
(dp1945
g3
S'ItaloBrothers'
p1946
sg5
I13
sg6
S'https://open.spotify.com/track/3GPI7hYiqD6enLRobhkBm8'
p1947
sg8
S'Summer Air'
p1948
ssS'1KqvRRQd3lfM0pAlkGPrgD'
p1949
(dp1950
g3
S'Ed Sheeran'
p1951
sg5
I1
sg6
S'https://open.spotify.com/track/1KqvRRQd3lfM0pAlkGPrgD'
p1952
sg8
S'Shape of You (Major Lazer Remix) [feat. Nyla & Kranium]'
p1953
ssS'2XMTqoHHSH0lvuXrvIEdco'
p1954
(dp1955
g3
S'FRENSHIP'
p1956
sg5
I12
sg6
S'https://open.spotify.com/track/2XMTqoHHSH0lvuXrvIEdco'
p1957
sg8
S'Capsize'
p1958
ssS'5MFzQMkrl1FOOng9tq6R9r'
p1959
(dp1960
g3
S'Maroon 5'
p1961
sg5
I28
sg6
S'https://open.spotify.com/track/5MFzQMkrl1FOOng9tq6R9r'
p1962
sg8
S"Don't Wanna Know"
p1963
ssS'5Z3GHaZ6ec9bsiI5BenrbY'
p1964
(dp1965
g3
S'Khalid'
p1966
sg5
I16
sg6
S'https://open.spotify.com/track/5Z3GHaZ6ec9bsiI5BenrbY'
p1967
sg8
S'Young Dumb & Broke'
p1968
ssS'3FDrI0FLKzrYQiWxPhqV2W'
p1969
(dp1970
g3
S'Calvin Harris'
p1971
sg5
I2
sg6
S'https://open.spotify.com/track/3FDrI0FLKzrYQiWxPhqV2W'
p1972
sg8
S'Rollin'
p1973
ssS'6eT7xZZlB2mwyzJ2sUKG6w'
p1974
(dp1975
g3
S'Post Malone'
p1976
sg5
I32
sg6
S'https://open.spotify.com/track/6eT7xZZlB2mwyzJ2sUKG6w'
p1977
sg8
S'White Iverson'
p1978
ssS'1WP1r7fuvRqZRnUaTi2I1Q'
p1979
(dp1980
g3
S'Shawn Mendes'
p1981
sg5
I12
sg6
S'https://open.spotify.com/track/1WP1r7fuvRqZRnUaTi2I1Q'
p1982
sg8
S'Stitches'
p1983
ssS'58kwvMXeOlsvzPqUlyj75Y'
p1984
(dp1985
g3
S'Logic'
p1986
sg5
I1
sg6
S'https://open.spotify.com/track/58kwvMXeOlsvzPqUlyj75Y'
p1987
sg8
S'Confess'
p1988
ssS'32OlwWuMpZ6b0aN2RZOeMS'
p1989
(dp1990
g3
S'Mark Ronson'
p1991
sg5
I1
sg6
S'https://open.spotify.com/track/32OlwWuMpZ6b0aN2RZOeMS'
p1992
sg8
S'Uptown Funk'
p1993
ssS'0v9Wz8o0BT8DU38R4ddjeH'
p1994
(dp1995
g3
S'Chance The Rapper'
p1996
sg5
I19
sg6
S'https://open.spotify.com/track/0v9Wz8o0BT8DU38R4ddjeH'
p1997
sg8
S'No Problem (feat. Lil Wayne & 2 Chainz)'
p1998
ssS'0yyZN5ASdrYu0XYWFzfxUu'
p1999
(dp2000
g3
S'Jesse & Joy'
p2001
sg5
I4
sg6
S'https://open.spotify.com/track/0yyZN5ASdrYu0XYWFzfxUu'
p2002
sg8
S'3 A.M.'
p2003
ssS'0IqKeD8ZSP72KbGYyzEcAs'
p2004
(dp2005
g3
S'Hozier'
p2006
sg5
I3
sg6
S'https://open.spotify.com/track/0IqKeD8ZSP72KbGYyzEcAs'
p2007
sg8
S'Take Me To Church'
p2008
ssS'33bURv895AN4FkBvgFo2dx'
p2009
(dp2010
g3
S'Harry Styles'
p2011
sg5
I1
sg6
S'https://open.spotify.com/track/33bURv895AN4FkBvgFo2dx'
p2012
sg8
S'Woman'
p2013
ssS'5QqyRUZeBE04yJxsD1OC0I'
p2014
(dp2015
g3
S'Lana Del Rey'
p2016
sg5
I1
sg6
S'https://open.spotify.com/track/5QqyRUZeBE04yJxsD1OC0I'
p2017
sg8
S'Summer Bummer (feat. A$AP Rocky & Playboi Carti)'
p2018
ssS'2jTujnt0y344ai1rNOywgr'
p2019
(dp2020
g3
S'Drake'
p2021
sg5
I5
sg6
S'https://open.spotify.com/track/2jTujnt0y344ai1rNOywgr'
p2022
sg8
S'KMT'
p2023
ssS'6gBFPUFcJLzWGx4lenP6h2'
p2024
(dp2025
g3
S'Travis Scott'
p2026
sg5
I39
sg6
S'https://open.spotify.com/track/6gBFPUFcJLzWGx4lenP6h2'
p2027
sg8
S'goosebumps'
p2028
ssS'7zgqtptZvhf8GEmdsM2vp2'
p2029
(dp2030
g3
S'Taylor Swift'
p2031
sg5
I1
sg6
S'https://open.spotify.com/track/7zgqtptZvhf8GEmdsM2vp2'
p2032
sg8
S'...Ready For It?'
p2033
ssS'6DB2KOEwHnjkgEnBt5SdeJ'
p2034
(dp2035
g3
S'Future'
p2036
sg5
I1
sg6
S'https://open.spotify.com/track/6DB2KOEwHnjkgEnBt5SdeJ'
p2037
sg8
S'Mask Off - Remix'
p2038
ssS'7AQim7LbvFVZJE3O8TYgf2'
p2039
(dp2040
g3
S'XXXTENTACION'
p2041
sg5
I7
sg6
S'https://open.spotify.com/track/7AQim7LbvFVZJE3O8TYgf2'
p2042
sg8
S'Fuck Love (feat. Trippie Redd)'
p2043
ssS'2C0KFbb4v9CNWR5c9jWcKC'
p2044
(dp2045
g3
S'Gorillaz'
p2046
sg5
I2
sg6
S'https://open.spotify.com/track/2C0KFbb4v9CNWR5c9jWcKC'
p2047
sg8
S'Andromeda (feat. DRAM)'
p2048
ssS'4fhVodXZARPX0oTuQh8V9l'
p2049
(dp2050
g3
S'Astrid S'
p2051
sg5
I1
sg6
S'https://open.spotify.com/track/4fhVodXZARPX0oTuQh8V9l'
p2052
sg8
S'Breathe'
p2053
ssS'13X0XdLMOdtbXVtAj2ox4h'
p2054
(dp2055
g3
S'Piso 21'
p2056
sg5
I16
sg6
S'https://open.spotify.com/track/13X0XdLMOdtbXVtAj2ox4h'
p2057
sg8
S'Bes\xc3\xa1ndote'
p2058
ssS'0Nhu3zSYbEz32IYiobV75e'
p2059
(dp2060
g3
S'Halsey'
p2061
sg5
I10
sg6
S'https://open.spotify.com/track/0Nhu3zSYbEz32IYiobV75e'
p2062
sg8
S'Now Or Never'
p2063
ssS'6eUncuJutsFi9BGO1JaBHh'
p2064
(dp2065
g3
S'Jason Derulo'
p2066
sg5
I6
sg6
S'https://open.spotify.com/track/6eUncuJutsFi9BGO1JaBHh'
p2067
sg8
S"If I'm Lucky"
p2068
ssS'2XaInsPPUkZRkY4uFJ3AHK'
p2069
(dp2070
g3
S'Gucci Mane'
p2071
sg5
I1
sg6
S'https://open.spotify.com/track/2XaInsPPUkZRkY4uFJ3AHK'
p2072
sg8
S'Met Gala (feat. Offset)'
p2073
ssS'6r46lnXFbE9fr2d3KNaGbe'
p2074
(dp2075
g3
S'Romeo Santos'
p2076
sg5
I5
sg6
S'https://open.spotify.com/track/6r46lnXFbE9fr2d3KNaGbe'
p2077
sg8
S'Imitadora'
p2078
ssS'0PDUDa38GO8lMxLCRc4lL1'
p2079
(dp2080
g3
S'ZAYN'
p2081
sg5
I12
sg6
S'https://open.spotify.com/track/0PDUDa38GO8lMxLCRc4lL1'
p2082
sg8
S'PILLOWTALK'
p2083
ssS'3pC1ILr9KzmQLMe8Kn5QBG'
p2084
(dp2085
g3
S'DJ Khaled'
p2086
sg5
I1
sg6
S'https://open.spotify.com/track/3pC1ILr9KzmQLMe8Kn5QBG'
p2087
sg8
S'To the Max'
p2088
ssS'0V9cosR5jWa4fr2koARmhD'
p2089
(dp2090
g3
S'ItaloBrothers'
p2091
sg5
I3
sg6
S'https://open.spotify.com/track/0V9cosR5jWa4fr2koARmhD'
p2092
sg8
S'Summer Air'
p2093
ssS'3zJw3rugfpVrmBeDDnUYzy'
p2094
(dp2095
g3
S'John Lennon'
p2096
sg5
I1
sg6
S'https://open.spotify.com/track/3zJw3rugfpVrmBeDDnUYzy'
p2097
sg8
S'Happy Xmas (War Is Over) - 2010 Digital Remaster'
p2098
ssS'35QZaWQRkmnAVqBF1TLCxQ'
p2099
(dp2100
g3
S'Ed Sheeran'
p2101
sg5
I7
sg6
S'https://open.spotify.com/track/35QZaWQRkmnAVqBF1TLCxQ'
p2102
sg8
S'Nancy Mulligan'
p2103
ssS'1e1JKLEDKP7hEQzJfNAgPl'
p2104
(dp2105
g3
S'Playboi Carti'
p2106
sg5
I21
sg6
S'https://open.spotify.com/track/1e1JKLEDKP7hEQzJfNAgPl'
p2107
sg8
S'Magnolia'
p2108
ssS'5q4BpnMrYEFzLO0dYODj6J'
p2109
(dp2110
g3
S'Lorde'
p2111
sg5
I1
sg6
S'https://open.spotify.com/track/5q4BpnMrYEFzLO0dYODj6J'
p2112
sg8
S'The Louvre'
p2113
ssS'7fRfIvHPH6bHdMDjPFwTMh'
p2114
(dp2115
g3
S'Logic'
p2116
sg5
I1
sg6
S'https://open.spotify.com/track/7fRfIvHPH6bHdMDjPFwTMh'
p2117
sg8
S'Hallelujah'
p2118
ssS'6E39QsoWB7JjphPF9xCQSN'
p2119
(dp2120
g3
S'Desiigner'
p2121
sg5
I1
sg6
S'https://open.spotify.com/track/6E39QsoWB7JjphPF9xCQSN'
p2122
sg8
S'Outlet'
p2123
ssS'1a5Yu5L18qNxVhXx38njON'
p2124
(dp2125
g3
S'Alok'
p2126
sg5
I32
sg6
S'https://open.spotify.com/track/1a5Yu5L18qNxVhXx38njON'
p2127
sg8
S'Hear Me Now'
p2128
ssS'3kxfsdsCpFgN412fpnW85Y'
p2129
(dp2130
g3
S'Childish Gambino'
p2131
sg5
I40
sg6
S'https://open.spotify.com/track/3kxfsdsCpFgN412fpnW85Y'
p2132
sg8
S'Redbone'
p2133
ssS'5hTpBe8h35rJ67eAWHQsJx'
p2134
(dp2135
g3
S'Amin\xc3\xa9'
p2136
sg5
I1
sg6
S'https://open.spotify.com/track/5hTpBe8h35rJ67eAWHQsJx'
p2137
sg8
S'Caroline'
p2138
ssS'19HA9J80qZfIkAnp2g8N2S'
p2139
(dp2140
g3
S'21 Savage'
p2141
sg5
I1
sg6
S'https://open.spotify.com/track/19HA9J80qZfIkAnp2g8N2S'
p2142
sg8
S'Famous'
p2143
ssS'1KeZgPUr54C8iz3FjqzVoz'
p2144
(dp2145
g3
S'The Chainsmokers'
p2146
sg5
I1
sg6
S'https://open.spotify.com/track/1KeZgPUr54C8iz3FjqzVoz'
p2147
sg8
S'Young'
p2148
ssS'4sPmO7WMQUAf45kwMOtONw'
p2149
(dp2150
g3
S'Adele'
p2151
sg5
I12
sg6
S'https://open.spotify.com/track/4sPmO7WMQUAf45kwMOtONw'
p2152
sg8
S'Hello'
p2153
ssS'1j4kHkkpqZRBwE0A4CN4Yv'
p2154
(dp2155
g3
S'ZAYN'
p2156
sg5
I5
sg6
S'https://open.spotify.com/track/1j4kHkkpqZRBwE0A4CN4Yv'
p2157
sg8
S'Dusk Till Dawn - Radio Edit'
p2158
ssS'2Za1AlJNvksouPPWbXpR2X'
p2159
(dp2160
g3
S'Macklemore'
p2161
sg5
I3
sg6
S'https://open.spotify.com/track/2Za1AlJNvksouPPWbXpR2X'
p2162
sg8
S'Good Old Days (feat. Kesha)'
p2163
ssS'3agtg0x11wPvLIWkYR39nZ'
p2164
(dp2165
g3
S'Linkin Park'
p2166
sg5
I1
sg6
S'https://open.spotify.com/track/3agtg0x11wPvLIWkYR39nZ'
p2167
sg8
S'Somewhere I Belong'
p2168
ssS'5p3NP9mQblDsVJLdfNZJ3I'
p2169
(dp2170
g3
S'Kendrick Lamar'
p2171
sg5
I4
sg6
S'https://open.spotify.com/track/5p3NP9mQblDsVJLdfNZJ3I'
p2172
sg8
S'GOD.'
p2173
ssS'6BaCraQ9xeLYg4Sb9TBT2X'
p2174
(dp2175
g3
S'Calvin Harris'
p2176
sg5
I1
sg6
S'https://open.spotify.com/track/6BaCraQ9xeLYg4Sb9TBT2X'
p2177
sg8
S'Feels'
p2178
ssS'6875MeXyCW0wLyT72Eetmo'
p2179
(dp2180
g3
S'Hailee Steinfeld'
p2181
sg5
I7
sg6
S'https://open.spotify.com/track/6875MeXyCW0wLyT72Eetmo'
p2182
sg8
S'Starving'
p2183
ssS'6Knv6wdA0luoMUuuoYi2i1'
p2184
(dp2185
g3
S'Flo Rida'
p2186
sg5
I1
sg6
S'https://open.spotify.com/track/6Knv6wdA0luoMUuuoYi2i1'
p2187
sg8
S'My House'
p2188
ssS'0RFFFGtPn6a58RHY3ccVYX'
p2189
(dp2190
g3
S'J Balvin'
p2191
sg5
I2
sg6
S'https://open.spotify.com/track/0RFFFGtPn6a58RHY3ccVYX'
p2192
sg8
S'Si Tu Novio Te Deja Sola'
p2193
ssS'6gTJaPuj8DT8RjuDJyBgzP'
p2194
(dp2195
g3
S'Ed Sheeran'
p2196
sg5
I2
sg6
S'https://open.spotify.com/track/6gTJaPuj8DT8RjuDJyBgzP'
p2197
sg8
S"Don't"
p2198
ssS'3T7dNA7O8c3Axj5WyDNcH3'
p2199
(dp2200
g3
S'Brenda Lee'
p2201
sg5
I1
sg6
S'https://open.spotify.com/track/3T7dNA7O8c3Axj5WyDNcH3'
p2202
sg8
S"Rockin' Around The Christmas Tree - Single Version"
p2203
ssS'5q5gzmbBS5yQzos2BvVr1t'
p2204
(dp2205
g3
S'M\xc3\x98'
p2206
sg5
I9
sg6
S'https://open.spotify.com/track/5q5gzmbBS5yQzos2BvVr1t'
p2207
sg8
S'Nights With You'
p2208
ssS'3DXncPQOG4VBw3QHh3S817'
p2209
(dp2210
g3
S'DJ Khaled'
p2211
sg5
I20
sg6
S'https://open.spotify.com/track/3DXncPQOG4VBw3QHh3S817'
p2212
sg8
S"I'm the One"
p2213
ssS'5Lbsc65org0b85kNsPkluY'
p2214
(dp2215
g3
S'Harry Styles'
p2216
sg5
I1
sg6
S'https://open.spotify.com/track/5Lbsc65org0b85kNsPkluY'
p2217
sg8
S'Only Angel'
p2218
ssS'6mapJIPnQ23RTAevUoE0DL'
p2219
(dp2220
g3
S'Rae Sremmurd'
p2221
sg5
I33
sg6
S'https://open.spotify.com/track/6mapJIPnQ23RTAevUoE0DL'
p2222
sg8
S'Swang'
p2223
ssS'6MbH1QiphMCPTqVEVC7UYi'
p2224
(dp2225
g3
S'Drake'
p2226
sg5
I3
sg6
S'https://open.spotify.com/track/6MbH1QiphMCPTqVEVC7UYi'
p2227
sg8
S'Nothings Into Somethings'
p2228
ssS'6mORGLOz79w6VsCRLWYYuK'
p2229
(dp2230
g3
S'Lord Huron'
p2231
sg5
I21
sg6
S'https://open.spotify.com/track/6mORGLOz79w6VsCRLWYYuK'
p2232
sg8
S'The Night We Met'
p2233
ssS'5aAx2yezTd8zXrkmtKl66Z'
p2234
(dp2235
g3
S'The Weeknd'
p2236
sg5
I40
sg6
S'https://open.spotify.com/track/5aAx2yezTd8zXrkmtKl66Z'
p2237
sg8
S'Starboy'
p2238
ssS'2BrzlUj1u1CtvaJDGIKpsP'
p2239
(dp2240
g3
S'Noah Cyrus'
p2241
sg5
I12
sg6
S'https://open.spotify.com/track/2BrzlUj1u1CtvaJDGIKpsP'
p2242
sg8
S'Make Me (Cry)'
p2243
ssS'1SJtlNRJDeYHioymcvsqev'
p2244
(dp2245
g3
S'Camila Cabello'
p2246
sg5
I19
sg6
S'https://open.spotify.com/track/1SJtlNRJDeYHioymcvsqev'
p2247
sg8
S'Crying in the Club'
p2248
ssS'0Wv5wuenRLI3BcwgT3HPIP'
p2249
(dp2250
g3
S'DJ Snake'
p2251
sg5
I3
sg6
S'https://open.spotify.com/track/0Wv5wuenRLI3BcwgT3HPIP'
p2252
sg8
S'A Different Way (with Lauv)'
p2253
ssS'04DwTuZ2VBdJCCC5TROn7L'
p2254
(dp2255
g3
S'Martin Garrix'
p2256
sg5
I36
sg6
S'https://open.spotify.com/track/04DwTuZ2VBdJCCC5TROn7L'
p2257
sg8
S'In the Name of Love'
p2258
ssS'4fzyvSu73BhGvi96p2zwjL'
p2259
(dp2260
g3
S'Coldplay'
p2261
sg5
I1
sg6
S'https://open.spotify.com/track/4fzyvSu73BhGvi96p2zwjL'
p2262
sg8
S'Christmas Lights'
p2263
ssS'7bJ4mu7MHa3rHiNyKjOoSl'
p2264
(dp2265
g3
S'Drake'
p2266
sg5
I4
sg6
S'https://open.spotify.com/track/7bJ4mu7MHa3rHiNyKjOoSl'
p2267
sg8
S'Ice Melts'
p2268
ssS'6VHdcVbiKLYYOcMbIqBcuK'
p2269
(dp2270
g3
S'Cali Y El Dandee'
p2271
sg5
I10
sg6
S'https://open.spotify.com/track/6VHdcVbiKLYYOcMbIqBcuK'
p2272
sg8
S'Lumbra'
p2273
ssS'0pSBuHjILhNEo55xK1zrRt'
p2274
(dp2275
g3
S'Ayo & Teo'
p2276
sg5
I21
sg6
S'https://open.spotify.com/track/0pSBuHjILhNEo55xK1zrRt'
p2277
sg8
S'Rolex'
p2278
ssS'4JAyIDXOqNM6qHuZML01uX'
p2279
(dp2280
g3
g1427
sg5
I1
sg6
S'https://open.spotify.com/track/4JAyIDXOqNM6qHuZML01uX'
p2281
sg8
g1427
ssS'6VRghJeP6I0w1KxkdWFfIh'
p2282
(dp2283
g3
S'Imagine Dragons'
p2284
sg5
I1
sg6
S'https://open.spotify.com/track/6VRghJeP6I0w1KxkdWFfIh'
p2285
sg8
S'Believer'
p2286
ssS'6SznMYPQJHzr3IwsAHLId2'
p2287
(dp2288
g3
S'Ed Sheeran'
p2289
sg5
I5
sg6
S'https://open.spotify.com/track/6SznMYPQJHzr3IwsAHLId2'
p2290
sg8
S'Bibia Be Ye Ye'
p2291
ssS'5J1c3M4EldCfNxXwrwt8mT'
p2292
(dp2293
g3
S'Sebastian Yatra'
p2294
sg5
I29
sg6
S'https://open.spotify.com/track/5J1c3M4EldCfNxXwrwt8mT'
p2295
sg8
S'Traicionera'
p2296
ssS'5zSOVwaY3sVjnmLhuEfsuf'
p2297
(dp2298
g3
S'Ozuna'
p2299
sg5
I7
sg6
S'https://open.spotify.com/track/5zSOVwaY3sVjnmLhuEfsuf'
p2300
sg8
S'T\xc3\xba Foto'
p2301
ssS'0NiXXAI876aGImAd6rTj8w'
p2302
(dp2303
g3
S'Jonas Blue'
p2304
sg5
I14
sg6
S'https://open.spotify.com/track/0NiXXAI876aGImAd6rTj8w'
p2305
sg8
S'Mama'
p2306
ssS'2LW4Zu7FcrwjWm3t5Rv3Oq'
p2307
(dp2308
g3
S'Ozuna'
p2309
sg5
I1
sg6
S'https://open.spotify.com/track/2LW4Zu7FcrwjWm3t5Rv3Oq'
p2310
sg8
S'El Farsante'
p2311
ssS'4BJ5T8ZZZ3UrPG7k0OVQrp'
p2312
(dp2313
g3
S'Little Mix'
p2314
sg5
I2
sg6
S'https://open.spotify.com/track/4BJ5T8ZZZ3UrPG7k0OVQrp'
p2315
sg8
S'Power (feat. Stormzy)'
p2316
ssS'6eGMMPRVYzpssGgednRvzU'
p2317
(dp2318
g3
S'Lana Del Rey'
p2319
sg5
I1
sg6
S'https://open.spotify.com/track/6eGMMPRVYzpssGgednRvzU'
p2320
sg8
S'Cherry'
p2321
ssS'1n4jwRVXdkK2U34nBDUKKT'
p2322
(dp2323
g3
S'Kendrick Lamar'
p2324
sg5
I3
sg6
S'https://open.spotify.com/track/1n4jwRVXdkK2U34nBDUKKT'
p2325
sg8
S'BLOOD.'
p2326
ssS'7oVEtyuv9NBmnytsCIsY5I'
p2327
(dp2328
g3
S'Linkin Park'
p2329
sg5
I1
sg6
S'https://open.spotify.com/track/7oVEtyuv9NBmnytsCIsY5I'
p2330
sg8
S'BURN IT DOWN'
p2331
ssS'1sYSP7gKa5kdKIfhANfori'
p2332
(dp2333
g3
S'MAX'
p2334
sg5
I9
sg6
S'https://open.spotify.com/track/1sYSP7gKa5kdKIfhANfori'
p2335
sg8
S'Lights Down Low'
p2336
ssS'5Ohxk2dO5COHF1krpoPigN'
p2337
(dp2338
g3
S'Harry Styles'
p2339
sg5
I25
sg6
S'https://open.spotify.com/track/5Ohxk2dO5COHF1krpoPigN'
p2340
sg8
S'Sign of the Times'
p2341
ssS'2NHSYwGkAvPHzCinY0KwXo'
p2342
(dp2343
g3
S'Ed Sheeran'
p2344
sg5
I2
sg6
S'https://open.spotify.com/track/2NHSYwGkAvPHzCinY0KwXo'
p2345
sg8
S'Shape of You - Stormzy Remix'
p2346
ssS'5Fim1gaXBgsiFfsQAfQSDS'
p2347
(dp2348
g3
S'Nicky Jam'
p2349
sg5
I1
sg6
S'https://open.spotify.com/track/5Fim1gaXBgsiFfsQAfQSDS'
p2350
sg8
S'Hasta el Amanecer'
p2351
ssS'2fGxYYMQbVqgIdaqfz2OwA'
p2352
(dp2353
g3
S'Miley Cyrus'
p2354
sg5
I1
sg6
S'https://open.spotify.com/track/2fGxYYMQbVqgIdaqfz2OwA'
p2355
sg8
S'Younger Now'
p2356
ssS'7FCfMXYTIiQ9b4hDYs4Iol'
p2357
(dp2358
g3
S'Dua Lipa'
p2359
sg5
I11
sg6
S'https://open.spotify.com/track/7FCfMXYTIiQ9b4hDYs4Iol'
p2360
sg8
S'Be The One'
p2361
ssS'4mxWSdf71VFO52qFeY0fZt'
p2362
(dp2363
g3
S'Maroon 5'
p2364
sg5
I6
sg6
S'https://open.spotify.com/track/4mxWSdf71VFO52qFeY0fZt'
p2365
sg8
S'What Lovers Do (feat. SZA)'
p2366
ssS'1ADjWm8QNhgNV8yCNNgQ1T'
p2367
(dp2368
g3
S'Ariana Grande'
p2369
sg5
I1
sg6
S'https://open.spotify.com/track/1ADjWm8QNhgNV8yCNNgQ1T'
p2370
sg8
S'Santa Tell Me'
p2371
ssS'4Hf7WnR761jpxPr5D46Bcd'
p2372
(dp2373
g3
S'Shawn Mendes'
p2374
sg5
I40
sg6
S'https://open.spotify.com/track/4Hf7WnR761jpxPr5D46Bcd'
p2375
sg8
S'Treat You Better'
p2376
ssS'3AEZUABDXNtecAOSC1qTfo'
p2377
(dp2378
g3
S'CNCO'
p2379
sg5
I35
sg6
S'https://open.spotify.com/track/3AEZUABDXNtecAOSC1qTfo'
p2380
sg8
S'Reggaet\xc3\xb3n Lento (Bailemos)'
p2381
ssS'4mq14Qa6OehdiyZFtHcdCH'
p2382
(dp2383
g3
S'Lana Del Rey'
p2384
sg5
I1
sg6
S'https://open.spotify.com/track/4mq14Qa6OehdiyZFtHcdCH'
p2385
sg8
S'13 Beaches'
p2386
ssS'1Tt4sE4pXi57mTD1GCzsqm'
p2387
(dp2388
g3
S'Rihanna'
p2389
sg5
I12
sg6
S'https://open.spotify.com/track/1Tt4sE4pXi57mTD1GCzsqm'
p2390
sg8
S'Needed Me'
p2391
ssS'6cAKeFFYW2aClZSUyvqAEW'
p2392
(dp2393
g3
S'Isaiah'
p2394
sg5
I12
sg6
S'https://open.spotify.com/track/6cAKeFFYW2aClZSUyvqAEW'
p2395
sg8
S"It's Gotta Be You"
p2396
ssS'1MksGqIztTT6M9R1ErKVs8'
p2397
(dp2398
g3
S'Big Sean'
p2399
sg5
I5
sg6
S'https://open.spotify.com/track/1MksGqIztTT6M9R1ErKVs8'
p2400
sg8
S'No Favors'
p2401
ssS'1EaKU4dMbesXXd3BrLCtYG'
p2402
(dp2403
g3
S'Kendrick Lamar'
p2404
sg5
I14
sg6
S'https://open.spotify.com/track/1EaKU4dMbesXXd3BrLCtYG'
p2405
sg8
S'ELEMENT.'
p2406
ssS'2Ce5IyMlVRVvN997ZJjJJA'
p2407
(dp2408
g3
S'Future'
p2409
sg5
I16
sg6
S'https://open.spotify.com/track/2Ce5IyMlVRVvN997ZJjJJA'
p2410
sg8
S'Selfish'
p2411
ssS'7xHWNBFm6ObGEQPaUxHuKO'
p2412
(dp2413
g3
S'Sia'
p2414
sg5
I13
sg6
S'https://open.spotify.com/track/7xHWNBFm6ObGEQPaUxHuKO'
p2415
sg8
S'The Greatest'
p2416
ssS'5knuzwU65gJK7IF5yJsuaW'
p2417
(dp2418
g3
S'Clean Bandit'
p2419
sg5
I40
sg6
S'https://open.spotify.com/track/5knuzwU65gJK7IF5yJsuaW'
p2420
sg8
S'Rockabye (feat. Sean Paul & Anne-Marie)'
p2421
ssS'7aF09WaavZAmAWuUeYxlYD'
p2422
(dp2423
g3
S'OneRepublic'
p2424
sg5
I13
sg6
S'https://open.spotify.com/track/7aF09WaavZAmAWuUeYxlYD'
p2425
sg8
S'Rich Love (with Seeb)'
p2426
ssS'3bWAqKDWg6u1davspr5IkS'
p2427
(dp2428
g3
S'Robin Schulz'
p2429
sg5
I19
sg6
S'https://open.spotify.com/track/3bWAqKDWg6u1davspr5IkS'
p2430
sg8
S'OK'
p2431
ssS'2UwbhMie1EAYuTZ0QXeMwl'
p2432
(dp2433
g3
S'XXXTENTACION'
p2434
sg5
I3
sg6
S'https://open.spotify.com/track/2UwbhMie1EAYuTZ0QXeMwl'
p2435
sg8
S'Save Me'
p2436
ssS'14WWzenpaEgQZlqPq2nk4v'
p2437
(dp2438
g3
S'Rihanna'
p2439
sg5
I14
sg6
S'https://open.spotify.com/track/14WWzenpaEgQZlqPq2nk4v'
p2440
sg8
S'Work'
p2441
ssS'4tHqQMWSqmL6YjXwsqthDI'
p2442
(dp2443
g3
S'Mykola Dmytrovych Leontovych'
p2444
sg5
I1
sg6
S'https://open.spotify.com/track/4tHqQMWSqmL6YjXwsqthDI'
p2445
sg8
S'Carol of the Bells'
p2446
ssS'36YCdzT57us0LhDmCYtrNE'
p2447
(dp2448
g3
S'The Weeknd'
p2449
sg5
I4
sg6
S'https://open.spotify.com/track/36YCdzT57us0LhDmCYtrNE'
p2450
sg8
S'Rockin\xe2\x80\x99'
p2451
ssS'6b8Be6ljOzmkOmFslEb23P'
p2452
(dp2453
g3
S'Bruno Mars'
p2454
sg5
I40
sg6
S'https://open.spotify.com/track/6b8Be6ljOzmkOmFslEb23P'
p2455
sg8
S'24K Magic'
p2456
ssS'1IF5UcqRO42D12vYwceOY6'
p2457
(dp2458
g3
S'Harry Styles'
p2459
sg5
I1
sg6
S'https://open.spotify.com/track/1IF5UcqRO42D12vYwceOY6'
p2460
sg8
S'From the Dining Table'
p2461
ssS'7cQMJ0wDqVS5iM0JIvP6Ay'
p2462
(dp2463
g3
S'Fall Out Boy'
p2464
sg5
I3
sg6
S'https://open.spotify.com/track/7cQMJ0wDqVS5iM0JIvP6Ay'
p2465
sg8
S'The Last Of The Real Ones'
p2466
ssS'6uJwPeBGb3swi85TSr9iIz'
p2467
(dp2468
g3
S'Coldplay'
p2469
sg5
I1
sg6
S'https://open.spotify.com/track/6uJwPeBGb3swi85TSr9iIz'
p2470
sg8
S'Miracles (Someone Special)'
p2471
ssS'2xbI8Vmyv3TkpTdywpPyNw'
p2472
(dp2473
g3
S'PnB Rock'
p2474
sg5
I2
sg6
S'https://open.spotify.com/track/2xbI8Vmyv3TkpTdywpPyNw'
p2475
sg8
S'Selfish'
p2476
ssS'4so0Wek9Ig1p6CRCHuINwW'
p2477
(dp2478
g3
S'Bing Crosby'
p2479
sg5
I1
sg6
S'https://open.spotify.com/track/4so0Wek9Ig1p6CRCHuINwW'
p2480
sg8
S'White Christmas'
p2481
ssS'4u9Y4Z9i9VaAbBK7rW1Rha'
p2482
(dp2483
g3
S'Harry Styles'
p2484
sg5
I1
sg6
S'https://open.spotify.com/track/4u9Y4Z9i9VaAbBK7rW1Rha'
p2485
sg8
S'Meet Me in the Hallway'
p2486
ssS'23luOrEVHMfoX0AhfbQuS6'
p2487
(dp2488
g3
S'Kendrick Lamar'
p2489
sg5
I4
sg6
S'https://open.spotify.com/track/23luOrEVHMfoX0AhfbQuS6'
p2490
sg8
S'FEAR.'
p2491
ssS'5DA77EqppDmCTWGovd4oTP'
p2492
(dp2493
g3
S'Cheat Codes'
p2494
sg5
I7
sg6
S'https://open.spotify.com/track/5DA77EqppDmCTWGovd4oTP'
p2495
sg8
S'Sex'
p2496
ssS'4h90qkbnW1Qq6pBhoPvwko'
p2497
(dp2498
g3
S'The Weeknd'
p2499
sg5
I8
sg6
S'https://open.spotify.com/track/4h90qkbnW1Qq6pBhoPvwko'
p2500
sg8
S'Sidewalks'
p2501
ssS'6HZILIRieu8S0iqY8kIKhj'
p2502
(dp2503
g3
S'Kendrick Lamar'
p2504
sg5
I24
sg6
S'https://open.spotify.com/track/6HZILIRieu8S0iqY8kIKhj'
p2505
sg8
S'DNA.'
p2506
ssS'4gqMQftUs22F8pOGVn5Acr'
p2507
(dp2508
g3
S'Shawn Hook'
p2509
sg5
I5
sg6
S'https://open.spotify.com/track/4gqMQftUs22F8pOGVn5Acr'
p2510
sg8
S'Reminding Me'
p2511
ssS'7F9vK8hNFMml4GtHsaXui6'
p2512
(dp2513
g3
S'Louis Tomlinson'
p2514
sg5
I12
sg6
S'https://open.spotify.com/track/7F9vK8hNFMml4GtHsaXui6'
p2515
sg8
S'Back to You (feat. Bebe Rexha & Digital Farm Animals)'
p2516
ssS'11Fo4dAH31K7UZHGqCkCmE'
p2517
(dp2518
g3
S'Axwell /\\ Ingrosso'
p2519
sg5
I9
sg6
S'https://open.spotify.com/track/11Fo4dAH31K7UZHGqCkCmE'
p2520
sg8
S'I Love You'
p2521
ssS'2nYwV62UABTH0NanrwVIdQ'
p2522
(dp2523
g3
S'Rae Sremmurd'
p2524
sg5
I9
sg6
S'https://open.spotify.com/track/2nYwV62UABTH0NanrwVIdQ'
p2525
sg8
S'Perplexing Pegasus'
p2526
ssS'0B48113ZG9UfkWWt7qD9xX'
p2527
(dp2528
g3
S'Miley Cyrus'
p2529
sg5
I1
sg6
S'https://open.spotify.com/track/0B48113ZG9UfkWWt7qD9xX'
p2530
sg8
S'Younger Now'
p2531
ssS'2EEeOnHehOozLq4aS0n6SL'
p2532
(dp2533
g3
S'KYLE'
p2534
sg5
I40
sg6
S'https://open.spotify.com/track/2EEeOnHehOozLq4aS0n6SL'
p2535
sg8
S'iSpy (feat. Lil Yachty)'
p2536
ssS'3B54sVLJ402zGa6Xm4YGNe'
p2537
(dp2538
g3
S'French Montana'
p2539
sg5
I14
sg6
S'https://open.spotify.com/track/3B54sVLJ402zGa6Xm4YGNe'
p2540
sg8
S'Unforgettable'
p2541
ssS'4mU5iXHeLgbR94siF7p1sY'
p2542
(dp2543
g3
S'The Weeknd'
p2544
sg5
I8
sg6
S'https://open.spotify.com/track/4mU5iXHeLgbR94siF7p1sY'
p2545
sg8
S'Six Feet Under'
p2546
ssS'7F1LWA9sIlTorHUo4amGqk'
p2547
(dp2548
g3
S'The Weeknd'
p2549
sg5
I2
sg6
S'https://open.spotify.com/track/7F1LWA9sIlTorHUo4amGqk'
p2550
sg8
S'Reminder - Remix'
p2551
ssS'6gpcs5eMhJwax4mIfKDYQk'
p2552
(dp2553
g3
S'Calvin Harris'
p2554
sg5
I2
sg6
S'https://open.spotify.com/track/6gpcs5eMhJwax4mIfKDYQk'
p2555
sg8
S'Slide'
p2556
ssS'5bcTCxgc7xVfSaMV3RuVke'
p2557
(dp2558
g3
S'Calvin Harris'
p2559
sg5
I16
sg6
S'https://open.spotify.com/track/5bcTCxgc7xVfSaMV3RuVke'
p2560
sg8
S'Feels'
p2561
ssS'0QsvXIfqM0zZoerQfsI9lm'
p2562
(dp2563
g3
S'The Chainsmokers'
p2564
sg5
I40
sg6
S'https://open.spotify.com/track/0QsvXIfqM0zZoerQfsI9lm'
p2565
sg8
S"Don't Let Me Down"
p2566
ssS'7w87IxuO7BDcJ3YUqCyMTT'
p2567
(dp2568
g3
S'Foster The People'
p2569
sg5
I1
sg6
S'https://open.spotify.com/track/7w87IxuO7BDcJ3YUqCyMTT'
p2570
sg8
S'Pumped Up Kicks'
p2571
ssS'7cGFbx7MP0H23iHZTZpqMM'
p2572
(dp2573
g3
S'Logic'
p2574
sg5
I6
sg6
S'https://open.spotify.com/track/7cGFbx7MP0H23iHZTZpqMM'
p2575
sg8
S'Everybody'
p2576
ssS'0fioLzGM8ngbD1w6fMmm45'
p2577
(dp2578
g3
S'Sam Smith'
p2579
sg5
I2
sg6
S'https://open.spotify.com/track/0fioLzGM8ngbD1w6fMmm45'
p2580
sg8
S"I'm Not The Only One"
p2581
ssS'4qqArAiTPueDxIp7cf87h7'
p2582
(dp2583
g3
S'M\xc3\x98'
p2584
sg5
I10
sg6
S'https://open.spotify.com/track/4qqArAiTPueDxIp7cf87h7'
p2585
sg8
S'Final Song'
p2586
ssS'5hslUAKq9I9CG2bAulFkHN'
p2587
(dp2588
g3
S'Andy Williams'
p2589
sg5
I1
sg6
S'https://open.spotify.com/track/5hslUAKq9I9CG2bAulFkHN'
p2590
sg8
S"It's the Most Wonderful Time of the Year"
p2591
ssS'2nLtzopw4rPReszdYBJU6h'
p2592
(dp2593
g3
S'Linkin Park'
p2594
sg5
I5
sg6
S'https://open.spotify.com/track/2nLtzopw4rPReszdYBJU6h'
p2595
sg8
S'Numb'
p2596
ssS'4U9arGcc4ATa7shChhLQP0'
p2597
(dp2598
g3
S'Thirty Seconds To Mars'
p2599
sg5
I1
sg6
S'https://open.spotify.com/track/4U9arGcc4ATa7shChhLQP0'
p2600
sg8
S'Walk On Water'
p2601
ssS'3a1lNhkSLSkpJE4MSHpDu9'
p2602
(dp2603
g3
S'Post Malone'
p2604
sg5
I36
sg6
S'https://open.spotify.com/track/3a1lNhkSLSkpJE4MSHpDu9'
p2605
sg8
S'Congratulations'
p2606
ssS'0dyiHoYbYjYaOEXLpmzQZG'
p2607
(dp2608
g3
S'Lorde'
p2609
sg5
I1
sg6
S'https://open.spotify.com/track/0dyiHoYbYjYaOEXLpmzQZG'
p2610
sg8
S'Supercut'
p2611
ssS'6foxplXS0YEq8cO374Lty4'
p2612
(dp2613
g3
S'Lil Pump'
p2614
sg5
I4
sg6
S'https://open.spotify.com/track/6foxplXS0YEq8cO374Lty4'
p2615
sg8
S'Gucci Gang'
p2616
ssS'6yr8GiTHWvFfi4o6Q5ebdT'
p2617
(dp2618
g3
S'Eminem'
p2619
sg5
I14
sg6
S'https://open.spotify.com/track/6yr8GiTHWvFfi4o6Q5ebdT'
p2620
sg8
S"'Till I Collapse"
p2621
ssS'6wV12xIUb8oFY7lBy4KuQe'
p2622
(dp2623
g3
S'Aaron Carter'
p2624
sg5
I9
sg6
S'https://open.spotify.com/track/6wV12xIUb8oFY7lBy4KuQe'
p2625
sg8
S'Sooner Or Later'
p2626
ssS'2fkeWbM6iqTw7oGHTYm2lw'
p2627
(dp2628
g3
S'Drake'
p2629
sg5
I4
sg6
S'https://open.spotify.com/track/2fkeWbM6iqTw7oGHTYm2lw'
p2630
sg8
S'4422'
p2631
ssS'0ofbQMrRDsUaVKq2mGLEAb'
p2632
(dp2633
g3
S'Camila Cabello'
p2634
sg5
I10
sg6
S'https://open.spotify.com/track/0ofbQMrRDsUaVKq2mGLEAb'
p2635
sg8
S'Havana'
p2636
ssS'6I6NX6tjGsxFAsIfGzY9lJ'
p2637
(dp2638
g3
S'J. Cole'
p2639
sg5
I11
sg6
S'https://open.spotify.com/track/6I6NX6tjGsxFAsIfGzY9lJ'
p2640
sg8
S'Deja Vu'
p2641
ssS'6bLopGnirdrilrpdVB6Um1'
p2642
(dp2643
g3
S'Sia'
p2644
sg5
I5
sg6
S'https://open.spotify.com/track/6bLopGnirdrilrpdVB6Um1'
p2645
sg8
S'The Greatest'
p2646
ssS'1AkTW13ysu0AJrwuM6UY0I'
p2647
(dp2648
g3
S'Charly Black'
p2649
sg5
I15
sg6
S'https://open.spotify.com/track/1AkTW13ysu0AJrwuM6UY0I'
p2650
sg8
S'Gyal You A Party Animal - Remix'
p2651
ssS'31MkGwj0SWgZaTvEt5Hgxv'
p2652
(dp2653
g3
S'P!nk'
p2654
sg5
I9
sg6
S'https://open.spotify.com/track/31MkGwj0SWgZaTvEt5Hgxv'
p2655
sg8
S'What About Us'
p2656
ssS'3HVr6jTVwBHBa2flM0eURR'
p2657
(dp2658
g3
S'Macklemore'
p2659
sg5
I11
sg6
S'https://open.spotify.com/track/3HVr6jTVwBHBa2flM0eURR'
p2660
sg8
S'Glorious (feat. Skylar Grey)'
p2661
ssS'1vvNmPOiUuyCbgWmtc6yfm'
p2662
(dp2663
g3
S'Calvin Harris'
p2664
sg5
I24
sg6
S'https://open.spotify.com/track/1vvNmPOiUuyCbgWmtc6yfm'
p2665
sg8
S'My Way'
p2666
ssS'7DQXiMeLqiQsy1uqHSk0xc'
p2667
(dp2668
g3
S'Shawn Hook'
p2669
sg5
I1
sg6
S'https://open.spotify.com/track/7DQXiMeLqiQsy1uqHSk0xc'
p2670
sg8
S'Reminding Me'
p2671
ssS'1Sl3njkhhz8nrSPZroDQ82'
p2672
(dp2673
g3
S'Dimitri Vegas & Like Mike'
p2674
sg5
I9
sg6
S'https://open.spotify.com/track/1Sl3njkhhz8nrSPZroDQ82'
p2675
sg8
S'Complicated (feat. Kiiara)'
p2676
ssS'5xMzazov0IHYllrc8U2K6F'
p2677
(dp2678
g3
S'Jennifer Lopez'
p2679
sg5
I7
sg6
S'https://open.spotify.com/track/5xMzazov0IHYllrc8U2K6F'
p2680
sg8
S'Ni T\xc3\xba Ni Yo'
p2681
ssS'57BrRMwf9LrcmuOsyGilwr'
p2682
(dp2683
g3
S'Linkin Park'
p2684
sg5
I1
sg6
S'https://open.spotify.com/track/57BrRMwf9LrcmuOsyGilwr'
p2685
sg8
S'Crawling'
p2686
ssS'6c7D34787LOtPm8tzhsLgH'
p2687
(dp2688
g3
S'Yo Gotti'
p2689
sg5
I11
sg6
S'https://open.spotify.com/track/6c7D34787LOtPm8tzhsLgH'
p2690
sg8
S'Rake It Up'
p2691
ssS'5YzA563GXTuwQaRq24z1k5'
p2692
(dp2693
g3
S'Yandel'
p2694
sg5
I4
sg6
S'https://open.spotify.com/track/5YzA563GXTuwQaRq24z1k5'
p2695
sg8
S'Como Antes'
p2696
ssS'0afhq8XCExXpqazXczTSve'
p2697
(dp2698
g3
S'Ed Sheeran'
p2699
sg5
I30
sg6
S'https://open.spotify.com/track/0afhq8XCExXpqazXczTSve'
p2700
sg8
S'Galway Girl'
p2701
ssS'2ZE3DJuizYTad2S4CvRRhK'
p2702
(dp2703
g3
S'Lauv'
p2704
sg5
I1
sg6
S'https://open.spotify.com/track/2ZE3DJuizYTad2S4CvRRhK'
p2705
sg8
S'Easy Love'
p2706
ssS'5xbrhx2tMMcN68IT3cJbhS'
p2707
(dp2708
g3
S'XXXTENTACION'
p2709
sg5
I1
sg6
S'https://open.spotify.com/track/5xbrhx2tMMcN68IT3cJbhS'
p2710
sg8
S'Ayala (Outro)'
p2711
ssS'6m9qPYXmhge2QhBLfFKnVF'
p2712
(dp2713
g3
S'Chance The Rapper'
p2714
sg5
I2
sg6
S'https://open.spotify.com/track/6m9qPYXmhge2QhBLfFKnVF'
p2715
sg8
S'Same Drugs'
p2716
ssS'1NDxZ7cFAo481dtYWdrUnR'
p2717
(dp2718
g3
S'Maggie Lindemann'
p2719
sg5
I26
sg6
S'https://open.spotify.com/track/1NDxZ7cFAo481dtYWdrUnR'
p2720
sg8
S'Pretty Girl - Cheat Codes X CADE Remix'
p2721
ssS'5TysCiZtv1HnSWcTcUFusI'
p2722
(dp2723
g3
S'Joey Montana'
p2724
sg5
I4
sg6
S'https://open.spotify.com/track/5TysCiZtv1HnSWcTcUFusI'
p2725
sg8
S'Suena El Dembow'
p2726
ssS'2aFiaMXmWsM3Vj72F9ksBl'
p2727
(dp2728
g3
S'DNCE'
p2729
sg5
I22
sg6
S'https://open.spotify.com/track/2aFiaMXmWsM3Vj72F9ksBl'
p2730
sg8
S'Cake By The Ocean'
p2731
ssS'152lZdxL1OR0ZMW6KquMif'
p2732
(dp2733
g3
S'Khalid'
p2734
sg5
I34
sg6
S'https://open.spotify.com/track/152lZdxL1OR0ZMW6KquMif'
p2735
sg8
S'Location'
p2736
ssS'4TZy1wLyHec06pwgFYDh1a'
p2737
(dp2738
g3
S'Shawn Mendes'
p2739
sg5
I39
sg6
S'https://open.spotify.com/track/4TZy1wLyHec06pwgFYDh1a'
p2740
sg8
S'Mercy'
p2741
ssS'4q8PHoRsPUB52LFylX8Ulz'
p2742
(dp2743
g3
S'Axwell /\\ Ingrosso'
p2744
sg5
I7
sg6
S'https://open.spotify.com/track/4q8PHoRsPUB52LFylX8Ulz'
p2745
sg8
S'More Than You Know'
p2746
ssS'4QdovcM8j50QPlyR7tH4xe'
p2747
(dp2748
g3
S'Marc E. Bassy'
p2749
sg5
I3
sg6
S'https://open.spotify.com/track/4QdovcM8j50QPlyR7tH4xe'
p2750
sg8
S'You & Me'
p2751
ssS'3RXkboS74UYzN14xTqzPyY'
p2752
(dp2753
g3
g1427
sg5
I1
sg6
S'https://open.spotify.com/track/3RXkboS74UYzN14xTqzPyY'
p2754
sg8
g1427
ssS'4Q3N4Ct4zCuIHuZ65E3BD4'
p2755
(dp2756
g3
S'Kodak Black'
p2757
sg5
I29
sg6
S'https://open.spotify.com/track/4Q3N4Ct4zCuIHuZ65E3BD4'
p2758
sg8
S'Tunnel Vision'
p2759
ssS'20H2Hd5AkUcRjB4yL3UQtJ'
p2760
(dp2761
g3
S'Fifth Harmony'
p2762
sg5
I3
sg6
S'https://open.spotify.com/track/20H2Hd5AkUcRjB4yL3UQtJ'
p2763
sg8
S'Down'
p2764
ssS'4ntsD33Pgsgk8rUyZLLiUV'
p2765
(dp2766
g3
S'Joey Bada$$'
p2767
sg5
I1
sg6
S'https://open.spotify.com/track/4ntsD33Pgsgk8rUyZLLiUV'
p2768
sg8
S'DEVASTATED'
p2769
ssS'0HEmnAUT8PHznIAAmVXqFJ'
p2770
(dp2771
g3
S'George Michael'
p2772
sg5
I1
sg6
S'https://open.spotify.com/track/0HEmnAUT8PHznIAAmVXqFJ'
p2773
sg8
S'Faith - Remastered'
p2774
ssS'1FUViuNSldssMIawrOXF2i'
p2775
(dp2776
g3
S'Bebe Rexha'
p2777
sg5
I19
sg6
S'https://open.spotify.com/track/1FUViuNSldssMIawrOXF2i'
p2778
sg8
S'I Got You'
p2779
ssS'3cNjgVBKTJ1SvKhunrCdVy'
p2780
(dp2781
g3
S'Joel Adams'
p2782
sg5
I2
sg6
S'https://open.spotify.com/track/3cNjgVBKTJ1SvKhunrCdVy'
p2783
sg8
S"Please Don't Go"
p2784
ssS'4Zxdw0Hno7YDu0IzvY76Qo'
p2785
(dp2786
g3
S'Future'
p2787
sg5
I2
sg6
S'https://open.spotify.com/track/4Zxdw0Hno7YDu0IzvY76Qo'
p2788
sg8
S'Rent Money'
p2789
ssS'4Q4jmPHwu0wrJvqrld0FQ6'
p2790
(dp2791
g3
S'Zara Larsson'
p2792
sg5
I15
sg6
S'https://open.spotify.com/track/4Q4jmPHwu0wrJvqrld0FQ6'
p2793
sg8
S'I Would Like'
p2794
ssS'6rQSrBHf7HlZjtcMZ4S4bO'
p2795
(dp2796
g3
S'J Balvin'
p2797
sg5
I30
sg6
S'https://open.spotify.com/track/6rQSrBHf7HlZjtcMZ4S4bO'
p2798
sg8
S'Safari'
p2799
ssS'5tRmoZRoupvMYPV1oezFrH'
p2800
(dp2801
g3
S'Lil Uzi Vert'
p2802
sg5
I2
sg6
S'https://open.spotify.com/track/5tRmoZRoupvMYPV1oezFrH'
p2803
sg8
S'X'
p2804
ssS'7yyRTcZmCiyzzJlNzGC9Ol'
p2805
(dp2806
g3
S'DRAM'
p2807
sg5
I27
sg6
S'https://open.spotify.com/track/7yyRTcZmCiyzzJlNzGC9Ol'
p2808
sg8
S'Broccoli (feat. Lil Yachty)'
p2809
ssS'1m69ELEgE6k5ZWsap40ozt'
p2810
(dp2811
g3
S'Ozuna'
p2812
sg5
I7
sg6
S'https://open.spotify.com/track/1m69ELEgE6k5ZWsap40ozt'
p2813
sg8
S'Se Prepar\xc3\xb3'
p2814
ssS'2CvOqDpQIMw69cCzWqr5yr'
p2815
(dp2816
g3
S'Beyonc\xc3\xa9'
p2817
sg5
I1
sg6
S'https://open.spotify.com/track/2CvOqDpQIMw69cCzWqr5yr'
p2818
sg8
S'Halo'
p2819
ssS'30MM5jWpUmOxtTNd9Ey5LZ'
p2820
(dp2821
g3
S'Thomas Rhett'
p2822
sg5
I4
sg6
S'https://open.spotify.com/track/30MM5jWpUmOxtTNd9Ey5LZ'
p2823
sg8
S'Unforgettable'
p2824
ssS'2771LMNxwf62FTAdpJMQfM'
p2825
(dp2826
g3
S'Cardi B'
p2827
sg5
I11
sg6
S'https://open.spotify.com/track/2771LMNxwf62FTAdpJMQfM'
p2828
sg8
S'Bodak Yellow'
p2829
ssS'7BKUWh5sdtdS17crohRe4L'
p2830
(dp2831
g3
S'Logic'
p2832
sg5
I2
sg6
S'https://open.spotify.com/track/7BKUWh5sdtdS17crohRe4L'
p2833
sg8
S'Black SpiderMan'
p2834
ssS'5EId1m4DNwTf3at31w8bPJ'
p2835
(dp2836
g3
S'Ozuna'
p2837
sg5
I7
sg6
S'https://open.spotify.com/track/5EId1m4DNwTf3at31w8bPJ'
p2838
sg8
S'El Farsante'
p2839
ssS'6PCUP3dWmTjcTtXY02oFdT'
p2840
(dp2841
g3
S'Ed Sheeran'
p2842
sg5
I38
sg6
S'https://open.spotify.com/track/6PCUP3dWmTjcTtXY02oFdT'
p2843
sg8
S'Castle on the Hill'
p2844
ssS'2LBqCSwhJGcFQeTHMVGwy3'
p2845
(dp2846
g3
S'The Weeknd'
p2847
sg5
I5
sg6
S'https://open.spotify.com/track/2LBqCSwhJGcFQeTHMVGwy3'
p2848
sg8
S'Die For You'
p2849
ssS'5LABCxgmP7DATATIJXOh6n'
p2850
(dp2851
g3
S'Harry Styles'
p2852
sg5
I1
sg6
S'https://open.spotify.com/track/5LABCxgmP7DATATIJXOh6n'
p2853
sg8
S'Ever Since New York'
p2854
ssS'5pvVAwQbuFoR7LkcicrKnk'
p2855
(dp2856
g3
S'Vice'
p2857
sg5
I7
sg6
S'https://open.spotify.com/track/5pvVAwQbuFoR7LkcicrKnk'
p2858
sg8
S'Obsession (feat. Jon Bellion)'
p2859
ssS'4N1c5rmWOzRmB9SMacr5wB'
p2860
(dp2861
g3
S'Abraham Mateo'
p2862
sg5
I10
sg6
S'https://open.spotify.com/track/4N1c5rmWOzRmB9SMacr5wB'
p2863
sg8
S'Loco Enamorado'
p2864
ssS'104buTcnP2AsxqB7U1FIZ4'
p2865
(dp2866
g3
S'Linkin Park'
p2867
sg5
I7
sg6
S'https://open.spotify.com/track/104buTcnP2AsxqB7U1FIZ4'
p2868
sg8
S'Heavy (feat. Kiiara)'
p2869
ssS'43jBqV3j3Xi1g6wO0bhIMd'
p2870
(dp2871
g3
S'Sage The Gemini'
p2872
sg5
I14
sg6
S'https://open.spotify.com/track/43jBqV3j3Xi1g6wO0bhIMd'
p2873
sg8
S'Now and Later'
p2874
ssS'650OeHTLxZAQmb4aEbGmaA'
p2875
(dp2876
g3
S'Linkin Park'
p2877
sg5
I1
sg6
S'https://open.spotify.com/track/650OeHTLxZAQmb4aEbGmaA'
p2878
sg8
S'Good Goodbye (feat. Pusha T and Stormzy)'
p2879
ssS'1PSBzsahR2AKwLJgx8ehBj'
p2880
(dp2881
g3
S'Machine Gun Kelly'
p2882
sg5
I22
sg6
S'https://open.spotify.com/track/1PSBzsahR2AKwLJgx8ehBj'
p2883
sg8
S'Bad Things (with Camila Cabello)'
p2884
ssS'53mrVsi49rLHIaKBiSvElG'
p2885
(dp2886
g3
S'blackbear'
p2887
sg5
I10
sg6
S'https://open.spotify.com/track/53mrVsi49rLHIaKBiSvElG'
p2888
sg8
S'do re mi (feat. Gucci Mane)'
p2889
ssS'7KOlJ92bu51cltsD9KU5I7'
p2890
(dp2891
g3
S'Migos'
p2892
sg5
I34
sg6
S'https://open.spotify.com/track/7KOlJ92bu51cltsD9KU5I7'
p2893
sg8
S'T-Shirt'
p2894
ssS'0D8ZpOXVjapLXrjz5VfZSD'
p2895
(dp2896
g3
S'Sam Smith'
p2897
sg5
I1
sg6
S'https://open.spotify.com/track/0D8ZpOXVjapLXrjz5VfZSD'
p2898
sg8
S'Pray'
p2899
ssS'0sXvAOmXgjR2QUqLK1MltU'
p2900
(dp2901
g3
S'Carlos Vives'
p2902
sg5
I22
sg6
S'https://open.spotify.com/track/0sXvAOmXgjR2QUqLK1MltU'
p2903
sg8
S'La Bicicleta'
p2904
ssS'3m660poUr1chesgkkjQM7P'
p2905
(dp2906
g3
S'Demi Lovato'
p2907
sg5
I2
sg6
S'https://open.spotify.com/track/3m660poUr1chesgkkjQM7P'
p2908
sg8
S'Sorry Not Sorry'
p2909
ssS'3SGWp9fJCzgK0WcpcKSQdy'
p2910
(dp2911
g3
S'Stanaj'
p2912
sg5
I9
sg6
S'https://open.spotify.com/track/3SGWp9fJCzgK0WcpcKSQdy'
p2913
sg8
S'Romantic - NOTD Remix'
p2914
ssS'3K4HG9evC7dg3N0R9cYqk4'
p2915
(dp2916
g3
S'Linkin Park'
p2917
sg5
I1
sg6
S'https://open.spotify.com/track/3K4HG9evC7dg3N0R9cYqk4'
p2918
sg8
S'One Step Closer'
p2919
ssS'1Vej0qeQ3ioKwpI6FUbRv1'
p2920
(dp2921
g3
S'Linkin Park'
p2922
sg5
I1
sg6
S'https://open.spotify.com/track/1Vej0qeQ3ioKwpI6FUbRv1'
p2923
sg8
S'Papercut'
p2924
ssS'0QV16pno66L6K3fn4W13b7'
p2925
(dp2926
g3
S'Lil Uzi Vert'
p2927
sg5
I1
sg6
S'https://open.spotify.com/track/0QV16pno66L6K3fn4W13b7'
p2928
sg8
S'No Sleep Leak'
p2929
ssS'3ebXMykcMXOcLeJ9xZ17XH'
p2930
(dp2931
g3
S'Martin Garrix'
p2932
sg5
I35
sg6
S'https://open.spotify.com/track/3ebXMykcMXOcLeJ9xZ17XH'
p2933
sg8
S'Scared to Be Lonely'
p2934
ssS'6fujklziTHa8uoM5OQSfIo'
p2935
(dp2936
g3
S'Rae Sremmurd'
p2937
sg5
I26
sg6
S'https://open.spotify.com/track/6fujklziTHa8uoM5OQSfIo'
p2938
sg8
S'Black Beatles'
p2939
ssS'19WjVVgXjdKXfLXoaDPwTM'
p2940
(dp2941
g3
S'Taylor Swift'
p2942
sg5
I5
sg6
S'https://open.spotify.com/track/19WjVVgXjdKXfLXoaDPwTM'
p2943
sg8
S'...Ready For It?'
p2944
ssS'0JoHqmlqE0W0i9prt6kcHR'
p2945
(dp2946
g3
S'Maluma'
p2947
sg5
I6
sg6
S'https://open.spotify.com/track/0JoHqmlqE0W0i9prt6kcHR'
p2948
sg8
S'Cuatro Babys'
p2949
ssS'7abpmGpF7PGep2rDU68GBR'
p2950
(dp2951
g3
S'Burak Yeter'
p2952
sg5
I28
sg6
S'https://open.spotify.com/track/7abpmGpF7PGep2rDU68GBR'
p2953
sg8
S'Tuesday'
p2954
ssS'6UjfByV1lDLW0SOVQA4NAi'
p2955
(dp2956
g3
S'Drake'
p2957
sg5
I15
sg6
S'https://open.spotify.com/track/6UjfByV1lDLW0SOVQA4NAi'
p2958
sg8
S'Gyalchester'
p2959
ssS'7floNISpH8VF4z4459Qo18'
p2960
(dp2961
g3
S'XXXTENTACION'
p2962
sg5
I2
sg6
S'https://open.spotify.com/track/7floNISpH8VF4z4459Qo18'
p2963
sg8
S'Look At Me!'
p2964
ssS'3PEgB3fkiojxms35ntsTgs'
p2965
(dp2966
g3
S'Axwell /\\ Ingrosso'
p2967
sg5
I11
sg6
S'https://open.spotify.com/track/3PEgB3fkiojxms35ntsTgs'
p2968
sg8
S'More Than You Know'
p2969
ssS'6CfrYuD3YRDYdYvH9jNtXY'
p2970
(dp2971
g3
S'Drake'
p2972
sg5
I4
sg6
S'https://open.spotify.com/track/6CfrYuD3YRDYdYvH9jNtXY'
p2973
sg8
S'No Long Talk'
p2974
ssS'7iDa6hUg2VgEL1o1HjmfBn'
p2975
(dp2976
g3
S'Bebe Rexha'
p2977
sg5
I4
sg6
S'https://open.spotify.com/track/7iDa6hUg2VgEL1o1HjmfBn'
p2978
sg8
S'Meant to Be (feat. Florida Georgia Line)'
p2979
ssS'2Xqd0wUttjueBfdcltADOv'
p2980
(dp2981
g3
S'G-Eazy'
p2982
sg5
I2
sg6
S'https://open.spotify.com/track/2Xqd0wUttjueBfdcltADOv'
p2983
sg8
S'No Limit'
p2984
ssS'0ERbK7qVqveCaBWIiYCrl3'
p2985
(dp2986
g3
S'Romeo Santos'
p2987
sg5
I11
sg6
S'https://open.spotify.com/track/0ERbK7qVqveCaBWIiYCrl3'
p2988
sg8
S'Bella y Sensual'
p2989
ssS'7aiVBCp1ibIWE5GeHkbtxr'
p2990
(dp2991
g3
S'Britney Spears'
p2992
sg5
I1
sg6
S'https://open.spotify.com/track/7aiVBCp1ibIWE5GeHkbtxr'
p2993
sg8
S'My Only Wish (This Year)'
p2994
ssS'4gmmRb6bZJffOOiww1JGTO'
p2995
(dp2996
g3
S'21 Savage'
p2997
sg5
I12
sg6
S'https://open.spotify.com/track/4gmmRb6bZJffOOiww1JGTO'
p2998
sg8
S'No Heart'
p2999
ssS'0UeYCHOETPfai02uskjJ3x'
p3000
(dp3001
g3
S'Bag Raiders'
p3002
sg5
I5
sg6
S'https://open.spotify.com/track/0UeYCHOETPfai02uskjJ3x'
p3003
sg8
S'Shooting Stars'
p3004
ssS'48yAM9xWBwT4Ac9G1y20rw'
p3005
(dp3006
g3
S'Yandel'
p3007
sg5
I1
sg6
S'https://open.spotify.com/track/48yAM9xWBwT4Ac9G1y20rw'
p3008
sg8
S'Expl\xc3\xadcale'
p3009
ssS'0B8B8cVRFIG1yznoQe7c9s'
p3010
(dp3011
g3
S'The Chainsmokers'
p3012
sg5
I8
sg6
S'https://open.spotify.com/track/0B8B8cVRFIG1yznoQe7c9s'
p3013
sg8
S'Setting Fires'
p3014
ssS'02WacdrRpm4zlP8H7X6bnQ'
p3015
(dp3016
g3
S'Calum Scott'
p3017
sg5
I9
sg6
S'https://open.spotify.com/track/02WacdrRpm4zlP8H7X6bnQ'
p3018
sg8
S'Dancing On My Own'
p3019
ssS'0Ws8D3EWUDgY962Xftb0h5'
p3020
(dp3021
g3
S'Calvin Harris'
p3022
sg5
I1
sg6
S'https://open.spotify.com/track/0Ws8D3EWUDgY962Xftb0h5'
p3023
sg8
S'Cash Out'
p3024
ssS'0lJCqIx5BhZtf6QtYI2fbv'
p3025
(dp3026
g3
S'Daddy Yankee'
p3027
sg5
I1
sg6
S'https://open.spotify.com/track/0lJCqIx5BhZtf6QtYI2fbv'
p3028
sg8
S'Vuelve'
p3029
ssS'6OZh916QF8XNunWaP97WEZ'
p3030
(dp3031
g3
S'Jonas Blue'
p3032
sg5
I10
sg6
S'https://open.spotify.com/track/6OZh916QF8XNunWaP97WEZ'
p3033
sg8
S'Fast Car'
p3034
ssS'2rizacJSyD9S1IQUxUxnsK'
p3035
(dp3036
g3
S'The Chainsmokers'
p3037
sg5
I18
sg6
S'https://open.spotify.com/track/2rizacJSyD9S1IQUxUxnsK'
p3038
sg8
S'All We Know'
p3039
ssS'2yZax79pOrYuyIFVW2cZY2'
p3040
(dp3041
g3
S'XXXTENTACION'
p3042
sg5
I3
sg6
S'https://open.spotify.com/track/2yZax79pOrYuyIFVW2cZY2'
p3043
sg8
S'Carry On'
p3044
ssS'6RsWqX8zABZLhZydXxEFOm'
p3045
(dp3046
g3
S'The Weeknd'
p3047
sg5
I3
sg6
S'https://open.spotify.com/track/6RsWqX8zABZLhZydXxEFOm'
p3048
sg8
S"Can't Feel My Face"
p3049
ssS'79NlESqzFSW0hdBWgls4FX'
p3050
(dp3051
g3
S'Kesha'
p3052
sg5
I5
sg6
S'https://open.spotify.com/track/79NlESqzFSW0hdBWgls4FX'
p3053
sg8
S'Praying'
p3054
ssS'0tgVpDi06FyKpA1z0VMD4v'
p3055
(dp3056
g3
S'Ed Sheeran'
p3057
sg5
I30
sg6
S'https://open.spotify.com/track/0tgVpDi06FyKpA1z0VMD4v'
p3058
sg8
S'Perfect'
p3059
ssS'2Vdub5mY4lad7w64bFPUez'
p3060
(dp3061
g3
S'Pitbull'
p3062
sg5
I25
sg6
S'https://open.spotify.com/track/2Vdub5mY4lad7w64bFPUez'
p3063
sg8
S'Hey Ma (with Pitbull & J Balvin feat. Camila Cabello) - Spanish Version'
p3064
ssS'5i50gKdLAjjIr7UxRT5IVy'
p3065
(dp3066
g3
S'Sebastian Yatra'
p3067
sg5
I21
sg6
S'https://open.spotify.com/track/5i50gKdLAjjIr7UxRT5IVy'
p3068
sg8
S'Alguien Robo'
p3069
ssS'69uxyAqqPIsUyTO8txoP2M'
p3070
(dp3071
g3
S'Coldplay'
p3072
sg5
I1
sg6
S'https://open.spotify.com/track/69uxyAqqPIsUyTO8txoP2M'
p3073
sg8
S'Adventure Of A Lifetime'
p3074
ssS'26hcyzSE154xMZCbFdtInA'
p3075
(dp3076
g3
S'KREAM'
p3077
sg5
I7
sg6
S'https://open.spotify.com/track/26hcyzSE154xMZCbFdtInA'
p3078
sg8
S'Taped Up Heart (feat. Clara Mae)'
p3079
ssS'34i4yxPrHWquuR4kjiivFO'
p3080
(dp3081
g3
S'V\xc3\x89RIT\xc3\x89'
p3082
sg5
I1
sg6
S'https://open.spotify.com/track/34i4yxPrHWquuR4kjiivFO'
p3083
sg8
S'Somebody Else'
p3084
ssS'5hx4FpDZOnDVYlyoG3rMks'
p3085
(dp3086
g3
S'Lil Yachty'
p3087
sg5
I1
sg6
S'https://open.spotify.com/track/5hx4FpDZOnDVYlyoG3rMks'
p3088
sg8
S'Peek A Boo'
p3089
ssS'2wDjpPW3HZdA9quPPmZAMu'
p3090
(dp3091
g3
S'Cashmere Cat'
p3092
sg5
I6
sg6
S'https://open.spotify.com/track/2wDjpPW3HZdA9quPPmZAMu'
p3093
sg8
S'Trust Nobody (feat. Selena Gomez & Tory Lanez)'
p3094
ssS'54ucfuN596MU25jQD3KjCL'
p3095
(dp3096
g3
S'Lorde'
p3097
sg5
I1
sg6
S'https://open.spotify.com/track/54ucfuN596MU25jQD3KjCL'
p3098
sg8
S'Sober II (Melodrama)'
p3099
ssS'1hvpDAxZPKjKztOc72sv06'
p3100
(dp3101
g3
S'Band Aid'
p3102
sg5
I1
sg6
S'https://open.spotify.com/track/1hvpDAxZPKjKztOc72sv06'
p3103
sg8
S"Do They Know It's Christmas? - 1984 Version"
p3104
ssS'72Q0FQQo32KJloivv5xge2'
p3105
(dp3106
g3
S'DJ Khaled'
p3107
sg5
I1
sg6
S'https://open.spotify.com/track/72Q0FQQo32KJloivv5xge2'
p3108
sg8
S"I'm the One"
p3109
ssS'0hNduWmlWmEmuwEFcYvRu1'
p3110
(dp3111
g3
S'Petit Biscuit'
p3112
sg5
I18
sg6
S'https://open.spotify.com/track/0hNduWmlWmEmuwEFcYvRu1'
p3113
sg8
S'Sunset Lover'
p3114
ssS'1x5sYLZiu9r5E43kMlt9f8'
p3115
(dp3116
g3
S'Clean Bandit'
p3117
sg5
I28
sg6
S'https://open.spotify.com/track/1x5sYLZiu9r5E43kMlt9f8'
p3118
sg8
S'Symphony (feat. Zara Larsson)'
p3119
ssS'6IeK3Ap5m3HabwJxgI6eSE'
p3120
(dp3121
g3
S'Perry Como'
p3122
sg5
I1
sg6
S'https://open.spotify.com/track/6IeK3Ap5m3HabwJxgI6eSE'
p3123
sg8
S"It's Beginning to Look a Lot Like Christmas"
p3124
ssS'5SE57ljOIUJ1ybL9U6CuBH'
p3125
(dp3126
g3
S'BTS'
p3127
sg5
I4
sg6
S'https://open.spotify.com/track/5SE57ljOIUJ1ybL9U6CuBH'
p3128
sg8
S'DNA'
p3129
ssS'3bVbQvGVIe4n24AzyXovXh'
p3130
(dp3131
g3
g1427
sg5
I1
sg6
S'https://open.spotify.com/track/3bVbQvGVIe4n24AzyXovXh'
p3132
sg8
g1427
ssS'2H3wWrnO758y0fPH7Ilerg'
p3133
(dp3134
g3
S'XXXTENTACION'
p3135
sg5
I3
sg6
S'https://open.spotify.com/track/2H3wWrnO758y0fPH7Ilerg'
p3136
sg8
S'Depression & Obsession'
p3137
ssS'6SwRhMLwNqEi6alNPVG00n'
p3138
(dp3139
g3
S'Kendrick Lamar'
p3140
sg5
I24
sg6
S'https://open.spotify.com/track/6SwRhMLwNqEi6alNPVG00n'
p3141
sg8
S'LOYALTY. FEAT. RIHANNA.'
p3142
ssS'2HzfRSfCogBSsgW2CckVA2'
p3143
(dp3144
g3
S'Luke Christopher'
p3145
sg5
I1
sg6
S'https://open.spotify.com/track/2HzfRSfCogBSsgW2CckVA2'
p3146
sg8
S'Lot to Learn'
p3147
ssS'0tKcYR2II1VCQWT79i5NrW'
p3148
(dp3149
g3
S'Imagine Dragons'
p3150
sg5
I21
sg6
S'https://open.spotify.com/track/0tKcYR2II1VCQWT79i5NrW'
p3151
sg8
S'Thunder'
p3152
ssS'3rgjBiAMVGnxmsTDmUy8vb'
p3153
(dp3154
g3
S'Farruko'
p3155
sg5
I5
sg6
S'https://open.spotify.com/track/3rgjBiAMVGnxmsTDmUy8vb'
p3156
sg8
S'Krippy Kush'
p3157
ssS'6DNtNfH8hXkqOX1sjqmI7p'
p3158
(dp3159
g3
S'Major Lazer'
p3160
sg5
I36
sg6
S'https://open.spotify.com/track/6DNtNfH8hXkqOX1sjqmI7p'
p3161
sg8
S'Cold Water (feat. Justin Bieber & M\xc3\x98)'
p3162
ssS'2ytH5wDuqhgLTiDVYioteq'
p3163
(dp3164
g3
S'Jax Jones'
p3165
sg5
I2
sg6
S'https://open.spotify.com/track/2ytH5wDuqhgLTiDVYioteq'
p3166
sg8
S'Instruction'
p3167
ssS'5NNlUMcOEOdoOIwwaWXv0k'
p3168
(dp3169
g3
S'Maroon 5'
p3170
sg5
I24
sg6
S'https://open.spotify.com/track/5NNlUMcOEOdoOIwwaWXv0k'
p3171
sg8
S'Cold'
p3172
ssS'5XQMr19TL7Mfksq9zihbOu'
p3173
(dp3174
g3
S'Chris Brown'
p3175
sg5
I8
sg6
S'https://open.spotify.com/track/5XQMr19TL7Mfksq9zihbOu'
p3176
sg8
S'Questions'
p3177
ssS'1sXUWdKx03aP9Gmzft58rt'
p3178
(dp3179
g3
S'Julia Michaels'
p3180
sg5
I26
sg6
S'https://open.spotify.com/track/1sXUWdKx03aP9Gmzft58rt'
p3181
sg8
S'Issues'
p3182
ssS'3QiAAp20rPC3dcAtKtMaqQ'
p3183
(dp3184
g3
S'Elvis Presley'
p3185
sg5
I1
sg6
S'https://open.spotify.com/track/3QiAAp20rPC3dcAtKtMaqQ'
p3186
sg8
S'Blue Christmas'
p3187
ssS'7IWkJwX9C0J7tHurTD7ViL'
p3188
(dp3189
g3
S'Adele'
p3190
sg5
I1
sg6
S'https://open.spotify.com/track/7IWkJwX9C0J7tHurTD7ViL'
p3191
sg8
S'When We Were Young'
p3192
ssS'1zayuwd1YLZsYDArkruHdL'
p3193
(dp3194
g3
S'Kendrick Lamar'
p3195
sg5
I3
sg6
S'https://open.spotify.com/track/1zayuwd1YLZsYDArkruHdL'
p3196
sg8
S'The Heart Part 4'
p3197
ssS'65kp3OFn7JXbCvkm3m2Ui2'
p3198
(dp3199
g3
S'Lil Uzi Vert'
p3200
sg5
I1
sg6
S'https://open.spotify.com/track/65kp3OFn7JXbCvkm3m2Ui2'
p3201
sg8
S'Two\xc2\xae'
p3202
ssS'4L7Y2OAPiY2I2GndZjAs5K'
p3203
(dp3204
g3
S'Lana Del Rey'
p3205
sg5
I2
sg6
S'https://open.spotify.com/track/4L7Y2OAPiY2I2GndZjAs5K'
p3206
sg8
S'Lust For Life (with The Weeknd)'
p3207
ssS'4BHSjbYylfOH5WAGusDyni'
p3208
(dp3209
g3
S'Kendrick Lamar'
p3210
sg5
I5
sg6
S'https://open.spotify.com/track/4BHSjbYylfOH5WAGusDyni'
p3211
sg8
S'YAH.'
p3212
ssS'4uoumbAMEMaKdtiv763jKz'
p3213
(dp3214
g3
S'Zara Larsson'
p3215
sg5
I8
sg6
S'https://open.spotify.com/track/4uoumbAMEMaKdtiv763jKz'
p3216
sg8
S'TG4M'
p3217
ssS'6WhzFzROw3aq3rPWjgYlxr'
p3218
(dp3219
g3
S'Kiiara'
p3220
sg5
I2
sg6
S'https://open.spotify.com/track/6WhzFzROw3aq3rPWjgYlxr'
p3221
sg8
S'Gold'
p3222
ssS'2ISl1zekPsc26sUQpVt8UB'
p3223
(dp3224
g3
S"Shakin' Stevens"
p3225
sg5
I1
sg6
S'https://open.spotify.com/track/2ISl1zekPsc26sUQpVt8UB'
p3226
sg8
S'Merry Christmas Everyone - Remastered'
p3227
ssS'2pJZ1v8HezrAoZ0Fhzby92'
p3228
(dp3229
g3
S'Ed Sheeran'
p3230
sg5
I12
sg6
S'https://open.spotify.com/track/2pJZ1v8HezrAoZ0Fhzby92'
p3231
sg8
S'What Do I Know?'
p3232
ssS'0KKkJNfGyhkQ5aFogxQAPU'
p3233
(dp3234
g3
S'Bruno Mars'
p3235
sg5
I40
sg6
S'https://open.spotify.com/track/0KKkJNfGyhkQ5aFogxQAPU'
p3236
sg8
S"That's What I Like"
p3237
ssS'4wdZdkEugVVorAfzqRqC6N'
p3238
(dp3239
g3
S'Post Malone'
p3240
sg5
I4
sg6
S'https://open.spotify.com/track/4wdZdkEugVVorAfzqRqC6N'
p3241
sg8
S'Candy Paint'
p3242
ssS'494OU6M7NOf4ICYb4zWCf5'
p3243
(dp3244
g3
S'Maroon 5'
p3245
sg5
I1
sg6
S'https://open.spotify.com/track/494OU6M7NOf4ICYb4zWCf5'
p3246
sg8
S'Sugar'
p3247
ssS'1Slwb6dOYkBlWal1PGtnNg'
p3248
(dp3249
g3
S'Ed Sheeran'
p3250
sg5
I40
sg6
S'https://open.spotify.com/track/1Slwb6dOYkBlWal1PGtnNg'
p3251
sg8
S'Thinking Out Loud'
p3252
ssS'3VClLWqNn80Llv0PJOsKgr'
p3253
(dp3254
g3
S'Nacho'
p3255
sg5
I8
sg6
S'https://open.spotify.com/track/3VClLWqNn80Llv0PJOsKgr'
p3256
sg8
S'B\xc3\xa1ilame - Remix'
p3257
ssS'2mNbgyi0gori4b1rFSPgIb'
p3258
(dp3259
g3
S'Lorde'
p3260
sg5
I1
sg6
S'https://open.spotify.com/track/2mNbgyi0gori4b1rFSPgIb'
p3261
sg8
S'Sober'
p3262
ssS'3zoYkqS4y2BsGVShPL2nTE'
p3263
(dp3264
g3
S'CNCO'
p3265
sg5
I8
sg6
S'https://open.spotify.com/track/3zoYkqS4y2BsGVShPL2nTE'
p3266
sg8
S'Reggaet\xc3\xb3n Lento (Remix) [CNCO & Little Mix]'
p3267
ssS'1u0MOgWF1bbylVxpJG2ZjB'
p3268
(dp3269
g3
S'Big Sean'
p3270
sg5
I1
sg6
S'https://open.spotify.com/track/1u0MOgWF1bbylVxpJG2ZjB'
p3271
sg8
S'Owe Me'
p3272
ssS'2habSXqcJGExM6JJyskY7O'
p3273
(dp3274
g3
S'Miley Cyrus'
p3275
sg5
I18
sg6
S'https://open.spotify.com/track/2habSXqcJGExM6JJyskY7O'
p3276
sg8
S'Malibu'
p3277
ssS'5Ua3GXyHwiSfpNTMjq6m2z'
p3278
(dp3279
g3
S'Little Mix'
p3280
sg5
I25
sg6
S'https://open.spotify.com/track/5Ua3GXyHwiSfpNTMjq6m2z'
p3281
sg8
S'Touch'
p3282
ssS'6i0V12jOa3mr6uu4WYhUBr'
p3283
(dp3284
g3
S'Twenty One Pilots'
p3285
sg5
I32
sg6
S'https://open.spotify.com/track/6i0V12jOa3mr6uu4WYhUBr'
p3286
sg8
S'Heathens'
p3287
ssS'1louJpMmzEicAn7lzDalPW'
p3288
(dp3289
g3
S'Cheat Codes'
p3290
sg5
I26
sg6
S'https://open.spotify.com/track/1louJpMmzEicAn7lzDalPW'
p3291
sg8
S'No Promises (feat. Demi Lovato)'
p3292
ssS'40UroIGvsMPLPBYwH8rMNA'
p3293
(dp3294
g3
S'Vice'
p3295
sg5
I10
sg6
S'https://open.spotify.com/track/40UroIGvsMPLPBYwH8rMNA'
p3296
sg8
S'Steady 1234 (feat. Jasmine Thompson & Skizzy Mars)'
p3297
ssS'5nA67Y0XX9JipZwYxX7Gl7'
p3298
(dp3299
g3
S'Niall Horan'
p3300
sg5
I10
sg6
S'https://open.spotify.com/track/5nA67Y0XX9JipZwYxX7Gl7'
p3301
sg8
S'This Town'
p3302
ssS'0SuG9kyzGRpDqrCWtgD6Lq'
p3303
(dp3304
g3
S'Ed Sheeran'
p3305
sg5
I1
sg6
S'https://open.spotify.com/track/0SuG9kyzGRpDqrCWtgD6Lq'
p3306
sg8
S'Give Me Love'
p3307
ssS'7wiESxCGoUkRdgZF2JOLZu'
p3308
(dp3309
g3
S'Phil Spector'
p3310
sg5
I1
sg6
S'https://open.spotify.com/track/7wiESxCGoUkRdgZF2JOLZu'
p3311
sg8
S'Sleigh Ride'
p3312
ssS'05rJdH2MRLJ3sQoEUO78qs'
p3313
(dp3314
g3
S'Anitta'
p3315
sg5
I9
sg6
S'https://open.spotify.com/track/05rJdH2MRLJ3sQoEUO78qs'
p3316
sg8
S'Paradinha'
p3317
ssS'6fxVffaTuwjgEk5h9QyRjy'
p3318
(dp3319
g3
S'Ed Sheeran'
p3320
sg5
I40
sg6
S'https://open.spotify.com/track/6fxVffaTuwjgEk5h9QyRjy'
p3321
sg8
S'Photograph'
p3322
ssS'0w5Bdu51Ka25Pf3hojsKHh'
p3323
(dp3324
g3
S'Paramore'
p3325
sg5
I5
sg6
S'https://open.spotify.com/track/0w5Bdu51Ka25Pf3hojsKHh'
p3326
sg8
S'Hard Times'
p3327
ssS'1tp1xMJ1uaOktksskS0Fzs'
p3328
(dp3329
g3
S'Gucci Mane'
p3330
sg5
I4
sg6
S'https://open.spotify.com/track/1tp1xMJ1uaOktksskS0Fzs'
p3331
sg8
S'Curve (feat. The Weeknd)'
p3332
ssS'1VdZ0vKfR5jneCmWIUAMxK'
p3333
(dp3334
g3
S'Ed Sheeran'
p3335
sg5
I1
sg6
S'https://open.spotify.com/track/1VdZ0vKfR5jneCmWIUAMxK'
p3336
sg8
S'The A Team'
p3337
ssS'13e6f8t7RKXuxZ0JdaaJRG'
p3338
(dp3339
g3
S'Drake'
p3340
sg5
I4
sg6
S'https://open.spotify.com/track/13e6f8t7RKXuxZ0JdaaJRG'
p3341
sg8
S'Jorja Interlude'
p3342
ssS'6nxQdXa1uAL0rY72wPZu89'
p3343
(dp3344
g3
S'John Legend'
p3345
sg5
I14
sg6
S'https://open.spotify.com/track/6nxQdXa1uAL0rY72wPZu89'
p3346
sg8
S'Love Me Now'
p3347
ssS'6kex4EBAj0WHXDKZMEJaaF'
p3348
(dp3349
g3
S'Jason Derulo'
p3350
sg5
I31
sg6
S'https://open.spotify.com/track/6kex4EBAj0WHXDKZMEJaaF'
p3351
sg8
S'Swalla (feat. Nicki Minaj & Ty Dolla $ign)'
p3352
ssS'0EPxmvsG1BY5td4aTOkWBF'
p3353
(dp3354
g3
S'MC G15'
p3355
sg5
I4
sg6
S'https://open.spotify.com/track/0EPxmvsG1BY5td4aTOkWBF'
p3356
sg8
S'Deu Onda'
p3357
ssS'54h8xHewdRPnYzmbEHBhOO'
p3358
(dp3359
g3
S'Imagine Dragons'
p3360
sg5
I1
sg6
S'https://open.spotify.com/track/54h8xHewdRPnYzmbEHBhOO'
p3361
sg8
S'I\xe2\x80\x99ll Make It Up To You'
p3362
ssS'3sJHkcxojoJD2Ytbo1yLLF'
p3363
(dp3364
g3
S'Moon Taxi'
p3365
sg5
I9
sg6
S'https://open.spotify.com/track/3sJHkcxojoJD2Ytbo1yLLF'
p3366
sg8
S'Two High'
p3367
ssS'54LGxQGf5LPXNGjtzDZ5IE'
p3368
(dp3369
g3
S'Zara Larsson'
p3370
sg5
I3
sg6
S'https://open.spotify.com/track/54LGxQGf5LPXNGjtzDZ5IE'
p3371
sg8
S'So Good'
p3372
ssS'08WPvDEsHvTFuB9w8tC2OS'
p3373
(dp3374
g3
S'Sage The Gemini'
p3375
sg5
I1
sg6
S'https://open.spotify.com/track/08WPvDEsHvTFuB9w8tC2OS'
p3376
sg8
S'Now and Later'
p3377
ssS'4ZJPwET9Jrgpkqi4Vo3Yg8'
p3378
(dp3379
g3
S'Bebe Rexha'
p3380
sg5
I6
sg6
S'https://open.spotify.com/track/4ZJPwET9Jrgpkqi4Vo3Yg8'
p3381
sg8
S'Bad Bitch (feat. Ty Dolla $ign)'
p3382
ssS'5wIeuNURiubue1VTcglU57'
p3383
(dp3384
g3
S'Kesha'
p3385
sg5
I1
sg6
S'https://open.spotify.com/track/5wIeuNURiubue1VTcglU57'
p3386
sg8
S'Woman'
p3387
ssS'27GmP9AWRs744SzKcpJsTZ'
p3388
(dp3389
g3
S'Drake'
p3390
sg5
I7
sg6
S'https://open.spotify.com/track/27GmP9AWRs744SzKcpJsTZ'
p3391
sg8
S'Jumpman'
p3392
ssS'1Dp7JGFNjvg8Nk0CtMCcnr'
p3393
(dp3394
g3
S'Lorde'
p3395
sg5
I1
sg6
S'https://open.spotify.com/track/1Dp7JGFNjvg8Nk0CtMCcnr'
p3396
sg8
S'Hard Feelings/Loveless'
p3397
ssS'0Fv5N0cHBsl4bzCbollCAS'
p3398
(dp3399
g3
S'Big Sean'
p3400
sg5
I17
sg6
S'https://open.spotify.com/track/0Fv5N0cHBsl4bzCbollCAS'
p3401
sg8
S'Moves'
p3402
ssS'7KXjTSCq5nL1LoYtL7XAwS'
p3403
(dp3404
g3
S'Kendrick Lamar'
p3405
sg5
I26
sg6
S'https://open.spotify.com/track/7KXjTSCq5nL1LoYtL7XAwS'
p3406
sg8
S'HUMBLE.'
p3407
ssS'6tjituizSxwSmBB5vtgHZE'
p3408
(dp3409
g3
S'Michael Bubl\xc3\xa9'
p3410
sg5
I1
sg6
S'https://open.spotify.com/track/6tjituizSxwSmBB5vtgHZE'
p3411
sg8
S'Holly Jolly Christmas'
p3412
ssS'2Ae5awwKvQpTBKQHr1TYCg'
p3413
(dp3414
g3
S'Nause'
p3415
sg5
I4
sg6
S'https://open.spotify.com/track/2Ae5awwKvQpTBKQHr1TYCg'
p3416
sg8
S'Dynamite (feat. Pretty Sister)'
p3417
ssS'2DGa7iaidT5s0qnINlwMjJ'
p3418
(dp3419
g3
S'Alan Walker'
p3420
sg5
I3
sg6
S'https://open.spotify.com/track/2DGa7iaidT5s0qnINlwMjJ'
p3421
sg8
S'The Spectre'
p3422
ssS'1jYiIOC5d6soxkJP81fxq2'
p3423
(dp3424
g3
S'DJ Khaled'
p3425
sg5
I1
sg6
S'https://open.spotify.com/track/1jYiIOC5d6soxkJP81fxq2'
p3426
sg8
S"I'm the One"
p3427
ssS'6Na5uKk5SsqZimk0hAWo8y'
p3428
(dp3429
g3
S'Drake'
p3430
sg5
I2
sg6
S'https://open.spotify.com/track/6Na5uKk5SsqZimk0hAWo8y'
p3431
sg8
S'Signs'
p3432
ssS'4gavOCQdZ2g86gkvi17FM7'
p3433
(dp3434
g3
S'Paul McCartney'
p3435
sg5
I1
sg6
S'https://open.spotify.com/track/4gavOCQdZ2g86gkvi17FM7'
p3436
sg8
S'Wonderful Christmastime - Remastered 2011 / Edited Version'
p3437
ssS'09KlDlkOYuC5x6hOaM7vaP'
p3438
(dp3439
g3
S'Fifth Harmony'
p3440
sg5
I1
sg6
S'https://open.spotify.com/track/09KlDlkOYuC5x6hOaM7vaP'
p3441
sg8
S'Angel'
p3442
ssS'74ODGXs4byLTRdnKGM4s6E'
p3443
(dp3444
g3
S'LANY'
p3445
sg5
I12
sg6
S'https://open.spotify.com/track/74ODGXs4byLTRdnKGM4s6E'
p3446
sg8
S'Super Far'
p3447
ssS'0Szp49tpFasIjX04Mcsydp'
p3448
(dp3449
g3
S'Ozuna'
p3450
sg5
I15
sg6
S'https://open.spotify.com/track/0Szp49tpFasIjX04Mcsydp'
p3451
sg8
S'Tu Foto'
p3452
ssS'0n2bvWvMwr0gbjcuTm92eW'
p3453
(dp3454
g3
S'Lana Del Rey'
p3455
sg5
I6
sg6
S'https://open.spotify.com/track/0n2bvWvMwr0gbjcuTm92eW'
p3456
sg8
S'Love'
p3457
ssS'3AsAuGTaDQzavZZThyYlop'
p3458
(dp3459
g3
S'NEIKED'
p3460
sg5
I12
sg6
S'https://open.spotify.com/track/3AsAuGTaDQzavZZThyYlop'
p3461
sg8
S'Sexual'
p3462
ssS'7JYsArznYOjX2jsrT3UEnL'
p3463
(dp3464
g3
S'Young M.A'
p3465
sg5
I5
sg6
S'https://open.spotify.com/track/7JYsArznYOjX2jsrT3UEnL'
p3466
sg8
S'OOOUUU'
p3467
ssS'1MJErNPIQUoEMu4YUUmecm'
p3468
(dp3469
g3
S'Lil Uzi Vert'
p3470
sg5
I1
sg6
S'https://open.spotify.com/track/1MJErNPIQUoEMu4YUUmecm'
p3471
sg8
S'Neon Guts (feat. Pharrell Williams)'
p3472
ssS'4kfm1uI9QGaoN9qm6CkAMn'
p3473
(dp3474
g3
S'Linkin Park'
p3475
sg5
I2
sg6
S'https://open.spotify.com/track/4kfm1uI9QGaoN9qm6CkAMn'
p3476
sg8
S"What I've Done"
p3477
ssS'69bp2EbF7Q2rqc5N3ylezZ'
p3478
(dp3479
g3
S'Justin Bieber'
p3480
sg5
I29
sg6
S'https://open.spotify.com/track/69bp2EbF7Q2rqc5N3ylezZ'
p3481
sg8
S'Sorry'
p3482
ssS'5JwLhFNrXw49pn3HQqu02G'
p3483
(dp3484
g3
S'Lana Del Rey'
p3485
sg5
I1
sg6
S'https://open.spotify.com/track/5JwLhFNrXw49pn3HQqu02G'
p3486
sg8
S'Summer Bummer (feat. A$AP Rocky & Playboi Carti)'
p3487
ssS'2cnKEkpVUSV4wnjQiTWfH6'
p3488
(dp3489
g3
S'Wisin'
p3490
sg5
I25
sg6
S'https://open.spotify.com/track/2cnKEkpVUSV4wnjQiTWfH6'
p3491
sg8
S'Esc\xc3\xa1pate Conmigo'
p3492
ssS'6qDF4wWL49CAVbgT7yuHl8'
p3493
(dp3494
g3
S'J Balvin'
p3495
sg5
I30
sg6
S'https://open.spotify.com/track/6qDF4wWL49CAVbgT7yuHl8'
p3496
sg8
S'Sigo Extra\xc3\xb1\xc3\xa1ndote'
p3497
ssS'2dqLk7ezV15LEJEwUmEbXB'
p3498
(dp3499
g3
S'Marian Hill'
p3500
sg5
I10
sg6
S'https://open.spotify.com/track/2dqLk7ezV15LEJEwUmEbXB'
p3501
sg8
S'Down'
p3502
ssS'4iLqG9SeJSnt0cSPICSjxv'
p3503
(dp3504
g3
S'Charlie Puth'
p3505
sg5
I23
sg6
S'https://open.spotify.com/track/4iLqG9SeJSnt0cSPICSjxv'
p3506
sg8
S'Attention'
p3507
ssS'15dnkAHcHC0vrIUlbiPiqU'
p3508
(dp3509
g3
S'Imagine Dragons'
p3510
sg5
I1
sg6
S'https://open.spotify.com/track/15dnkAHcHC0vrIUlbiPiqU'
p3511
sg8
S'I Don\xe2\x80\x99t Know Why'
p3512
ssS'6RUKPb4LETWmmr3iAEQktW'
p3513
(dp3514
g3
S'The Chainsmokers'
p3515
sg5
I32
sg6
S'https://open.spotify.com/track/6RUKPb4LETWmmr3iAEQktW'
p3516
sg8
S'Something Just Like This'
p3517
ssS'3FQCJI2t5LTbsRPfYVBSVB'
p3518
(dp3519
g3
S'Linkin Park'
p3520
sg5
I1
sg6
S'https://open.spotify.com/track/3FQCJI2t5LTbsRPfYVBSVB'
p3521
sg8
S'Battle Symphony'
p3522
ssS'7M16mAuWuFA5rC9HvkXaGx'
p3523
(dp3524
g3
S'Jax Jones'
p3525
sg5
I4
sg6
S'https://open.spotify.com/track/7M16mAuWuFA5rC9HvkXaGx'
p3526
sg8
S"You Don't Know Me - Radio Edit"
p3527
ssS'3mRcWCyteY2133a7xVMrYw'
p3528
(dp3529
g3
S'Future'
p3530
sg5
I4
sg6
S'https://open.spotify.com/track/3mRcWCyteY2133a7xVMrYw'
p3531
sg8
S'Comin Out Strong'
p3532
ssS'0VhgEqMTNZwYL1ARDLLNCX'
p3533
(dp3534
g3
S'James Arthur'
p3535
sg5
I5
sg6
S'https://open.spotify.com/track/0VhgEqMTNZwYL1ARDLLNCX'
p3536
sg8
S'Can I Be Him'
p3537
ssS'2CPqh63wRVscbceKcPxwvv'
p3538
(dp3539
g3
S'Mike Perry'
p3540
sg5
I9
sg6
S'https://open.spotify.com/track/2CPqh63wRVscbceKcPxwvv'
p3541
sg8
S'The Ocean'
p3542
ssS'5abwHwUhywLGNli5NDcEN7'
p3543
(dp3544
g3
S'Thomas Gold'
p3545
sg5
I2
sg6
S'https://open.spotify.com/track/5abwHwUhywLGNli5NDcEN7'
p3546
sg8
S'Magic'
p3547
ssS'65MOTX6uSFAnqXl7dlAuId'
p3548
(dp3549
g3
S'Demi Lovato'
p3550
sg5
I1
sg6
S'https://open.spotify.com/track/65MOTX6uSFAnqXl7dlAuId'
p3551
sg8
S'Tell Me You Love Me'
p3552
ssS'3VTNVsTTu05dmTsVFrmGpK'
p3553
(dp3554
g3
S'The Pogues'
p3555
sg5
I1
sg6
S'https://open.spotify.com/track/3VTNVsTTu05dmTsVFrmGpK'
p3556
sg8
S'Fairytale of New York (feat. Kirsty MacColl)'
p3557
ssS'4vv1KjUzPwrtDbozizSfQc'
p3558
(dp3559
g3
S'DJ Khaled'
p3560
sg5
I1
sg6
S'https://open.spotify.com/track/4vv1KjUzPwrtDbozizSfQc'
p3561
sg8
S"Don't Quit"
p3562
ssS'2ZdCrBA52bb4pIG3tOOZiQ'
p3563
(dp3564
g3
S'Lil Uzi Vert'
p3565
sg5
I1
sg6
S'https://open.spotify.com/track/2ZdCrBA52bb4pIG3tOOZiQ'
p3566
sg8
S'Dark Queen'
p3567
ssS'1xznGGDReH1oQq0xzbwXa3'
p3568
(dp3569
g3
S'Drake'
p3570
sg5
I40
sg6
S'https://open.spotify.com/track/1xznGGDReH1oQq0xzbwXa3'
p3571
sg8
S'One Dance'
p3572
ssS'5GXAXm5YOmYT0kL5jHvYBt'
p3573
(dp3574
g3
S'The Weeknd'
p3575
sg5
I40
sg6
S'https://open.spotify.com/track/5GXAXm5YOmYT0kL5jHvYBt'
p3576
sg8
S'I Feel It Coming'
p3577
ssS'6IZvVAP7VPPnsGX6bvgkqg'
p3578
(dp3579
g3
S'Kendrick Lamar'
p3580
sg5
I5
sg6
S'https://open.spotify.com/track/6IZvVAP7VPPnsGX6bvgkqg'
p3581
sg8
S'PRIDE.'
p3582
ssS'0lMbuWUpfTWhEmOKxppEau'
p3583
(dp3584
g3
S'Calvin Harris'
p3585
sg5
I13
sg6
S'https://open.spotify.com/track/0lMbuWUpfTWhEmOKxppEau'
p3586
sg8
S'Rollin'
p3587
ssS'0ZiRSqlSsDlY0UyDYU9CTE'
p3588
(dp3589
g3
S'Thomas Rhett'
p3590
sg5
I3
sg6
S'https://open.spotify.com/track/0ZiRSqlSsDlY0UyDYU9CTE'
p3591
sg8
S'Unforgettable'
p3592
ssS'62vpWI1CHwFy7tMIcSStl8'
p3593
(dp3594
g3
S'J. Cole'
p3595
sg5
I8
sg6
S'https://open.spotify.com/track/62vpWI1CHwFy7tMIcSStl8'
p3596
sg8
S'No Role Modelz'
p3597
ssS'4sQMalN597HdggTu196aL0'
p3598
(dp3599
g3
S'Flume'
p3600
sg5
I2
sg6
S'https://open.spotify.com/track/4sQMalN597HdggTu196aL0'
p3601
sg8
S'Say It (feat. Tove Lo)'
p3602
ssS'7AtlMCIauSQZqiXSlbBPW6'
p3603
(dp3604
g3
S'J Balvin'
p3605
sg5
I1
sg6
S'https://open.spotify.com/track/7AtlMCIauSQZqiXSlbBPW6'
p3606
sg8
S'Bobo'
p3607
ssS'4B1rpPmQXwj78wk6aIGwwU'
p3608
(dp3609
g3
S'Harry Styles'
p3610
sg5
I2
sg6
S'https://open.spotify.com/track/4B1rpPmQXwj78wk6aIGwwU'
p3611
sg8
S'Two Ghosts'
p3612
ssS'2R7858bg0GHuBBxjTyOL7N'
p3613
(dp3614
g3
S'George Michael'
p3615
sg5
I1
sg6
S'https://open.spotify.com/track/2R7858bg0GHuBBxjTyOL7N'
p3616
sg8
S'Careless Whisper'
p3617
ssS'1CUVN2kn7mW5FjkqXTR2W1'
p3618
(dp3619
g3
S'Jonas Blue'
p3620
sg5
I25
sg6
S'https://open.spotify.com/track/1CUVN2kn7mW5FjkqXTR2W1'
p3621
sg8
S'Perfect Strangers'
p3622
ssS'1vVNlXi8gf8tZ7OhnEs4VE'
p3623
(dp3624
g3
S'French Montana'
p3625
sg5
I1
sg6
S'https://open.spotify.com/track/1vVNlXi8gf8tZ7OhnEs4VE'
p3626
sg8
S'A Lie'
p3627
ssS'0SGkqnVQo9KPytSri1H6cF'
p3628
(dp3629
g3
S'Big Sean'
p3630
sg5
I39
sg6
S'https://open.spotify.com/track/0SGkqnVQo9KPytSri1H6cF'
p3631
sg8
S'Bounce Back'
p3632
ssS'6SUocL0caib4mLHe8ZrZzi'
p3633
(dp3634
g3
S'Rudimental'
p3635
sg5
I4
sg6
S'https://open.spotify.com/track/6SUocL0caib4mLHe8ZrZzi'
p3636
sg8
S'Sun Comes Up'
p3637
ssS'7nKBxz47S9SD79N086fuhn'
p3638
(dp3639
g3
S'Enrique Iglesias'
p3640
sg5
I29
sg6
S'https://open.spotify.com/track/7nKBxz47S9SD79N086fuhn'
p3641
sg8
S'SUBEME LA RADIO'
p3642
ssS'044qU7kwVZaDwzWnRsmVVL'
p3643
(dp3644
g3
S'The xx'
p3645
sg5
I1
sg6
S'https://open.spotify.com/track/044qU7kwVZaDwzWnRsmVVL'
p3646
sg8
S'I Dare You'
p3647
ssS'27SdWb2rFzO6GWiYDBTD9j'
p3648
(dp3649
g3
S'Sia'
p3650
sg5
I33
sg6
S'https://open.spotify.com/track/27SdWb2rFzO6GWiYDBTD9j'
p3651
sg8
S'Cheap Thrills'
p3652
ssS'4J2RaG4UH2HCThcqzDpeAF'
p3653
(dp3654
g3
S'Imagine Dragons'
p3655
sg5
I1
sg6
S'https://open.spotify.com/track/4J2RaG4UH2HCThcqzDpeAF'
p3656
sg8
S'Start Over'
p3657
ssS'3vgNmjuRDnGLxUFGCLkwpm'
p3658
(dp3659
g3
S'David Guetta'
p3660
sg5
I2
sg6
S'https://open.spotify.com/track/3vgNmjuRDnGLxUFGCLkwpm'
p3661
sg8
S'Light My Body Up (feat. Nicki Minaj & Lil Wayne)'
p3662
ssS'77mLzdHEWRB60CLlV02TV2'
p3663
(dp3664
g3
S'Logic'
p3665
sg5
I1
sg6
S'https://open.spotify.com/track/77mLzdHEWRB60CLlV02TV2'
p3666
sg8
S'America'
p3667
ssS'5xhJmd0I15jFcEdqxfCzKk'
p3668
(dp3669
g3
S'The Chainsmokers'
p3670
sg5
I1
sg6
S'https://open.spotify.com/track/5xhJmd0I15jFcEdqxfCzKk'
p3671
sg8
S"It Won't Kill Ya"
p3672
ssS'3ibRxEv4KkcU9e259eyNJA'
p3673
(dp3674
g3
S'Major Lazer'
p3675
sg5
I10
sg6
S'https://open.spotify.com/track/3ibRxEv4KkcU9e259eyNJA'
p3676
sg8
S'Sua Cara (feat. Anitta & Pabllo Vittar)'
p3677
ssS'6PJ8FF6UR8FZXfEvpHkIVN'
p3678
(dp3679
g3
S'Ed Sheeran'
p3680
sg5
I10
sg6
S'https://open.spotify.com/track/6PJ8FF6UR8FZXfEvpHkIVN'
p3681
sg8
S'How Would You Feel (Paean)'
p3682
ssS'2Pn76oik9rWyoBShTSNY9Q'
p3683
(dp3684
g3
S'Lana Del Rey'
p3685
sg5
I1
sg6
S'https://open.spotify.com/track/2Pn76oik9rWyoBShTSNY9Q'
p3686
sg8
S'White Mustang'
p3687
ssS'5uCax9HTNlzGybIStD3vDh'
p3688
(dp3689
g3
S'James Arthur'
p3690
sg5
I40
sg6
S'https://open.spotify.com/track/5uCax9HTNlzGybIStD3vDh'
p3691
sg8
S"Say You Won't Let Go"
p3692
ssS'7qiZfU4dY1lWllzX7mPBI3'
p3693
(dp3694
g3
S'Ed Sheeran'
p3695
sg5
I38
sg6
S'https://open.spotify.com/track/7qiZfU4dY1lWllzX7mPBI3'
p3696
sg8
S'Shape of You'
p3697
ssS'6LOCAhFzZiavHcLJucLuDy'
p3698
(dp3699
g3
S'DJ Khaled'
p3700
sg5
I1
sg6
S'https://open.spotify.com/track/6LOCAhFzZiavHcLJucLuDy'
p3701
sg8
S"Don't Quit"
p3702
ssS'6CUBgX8bXC5YQCkdgRHqyg'
p3703
(dp3704
g3
S'blackbear'
p3705
sg5
I2
sg6
S'https://open.spotify.com/track/6CUBgX8bXC5YQCkdgRHqyg'
p3706
sg8
S'do re mi'
p3707
ssS'0wfbD5rAksdXUzRvMfM3x5'
p3708
(dp3709
g3
S'The Chainsmokers'
p3710
sg5
I9
sg6
S'https://open.spotify.com/track/0wfbD5rAksdXUzRvMfM3x5'
p3711
sg8
S'The One'
p3712
ssS'0q75NwOoFiARAVp4EXU4Bs'
p3713
(dp3714
g3
S'SZA'
p3715
sg5
I17
sg6
S'https://open.spotify.com/track/0q75NwOoFiARAVp4EXU4Bs'
p3716
sg8
S'Love Galore'
p3717
ssS'1rsAFUCa6BVMgRQ3FCQQsi'
p3718
(dp3719
g3
S'Lil Pump'
p3720
sg5
I1
sg6
S'https://open.spotify.com/track/1rsAFUCa6BVMgRQ3FCQQsi'
p3721
sg8
S'Boss'
p3722
ssS'2fQrGHiQOvpL9UgPvtYy6G'
p3723
(dp3724
g3
S'21 Savage'
p3725
sg5
I3
sg6
S'https://open.spotify.com/track/2fQrGHiQOvpL9UgPvtYy6G'
p3726
sg8
S'Bank Account'
p3727
ssS'1yFiaFeSLpw4nDYTeErRZ6'
p3728
(dp3729
g3
S'Linkin Park'
p3730
sg5
I1
sg6
S'https://open.spotify.com/track/1yFiaFeSLpw4nDYTeErRZ6'
p3731
sg8
S'Leave Out All The Rest'
p3732
ssS'05bnEv2dpFzmGVLGdjD9UP'
p3733
(dp3734
g3
S'XXXTENTACION'
p3735
sg5
I1
sg6
S'https://open.spotify.com/track/05bnEv2dpFzmGVLGdjD9UP'
p3736
sg8
S'Orlando'
p3737
ssS'2FiSTH0GYpIioUgjfzMIja'
p3738
(dp3739
g3
S'Kygo'
p3740
sg5
I1
sg6
S'https://open.spotify.com/track/2FiSTH0GYpIioUgjfzMIja'
p3741
sg8
S'Stay'
p3742
ssS'7bsnTsbiwOymZWjPF9v6Di'
p3743
(dp3744
g3
S'Macklemore'
p3745
sg5
I1
sg6
S'https://open.spotify.com/track/7bsnTsbiwOymZWjPF9v6Di'
p3746
sg8
S'Marmalade (feat. Lil Yachty)'
p3747
ssS'1F2HXIJrE2Xn81OzT2zZvW'
p3748
(dp3749
g3
S'French Montana'
p3750
sg5
I11
sg6
S'https://open.spotify.com/track/1F2HXIJrE2Xn81OzT2zZvW'
p3751
sg8
S'Unforgettable'
p3752
ssS'6QgjcU0zLnzq5OrUoSZ3OK'
p3753
(dp3754
g3
S'Portugal. The Man'
p3755
sg5
I13
sg6
S'https://open.spotify.com/track/6QgjcU0zLnzq5OrUoSZ3OK'
p3756
sg8
S'Feel It Still'
p3757
ssS'4atJ40xfasjdM9ZF3p07BV'
p3758
(dp3759
g3
S'Big Sean'
p3760
sg5
I1
sg6
S'https://open.spotify.com/track/4atJ40xfasjdM9ZF3p07BV'
p3761
sg8
S'Halfway Off The Balcony'
p3762
ssS'78rIJddV4X0HkNAInEcYde'
p3763
(dp3764
g3
S'Starley'
p3765
sg5
I38
sg6
S'https://open.spotify.com/track/78rIJddV4X0HkNAInEcYde'
p3766
sg8
S'Call On Me - Ryan Riback Extended Remix'
p3767
ssS'0L7loeTIg6akW84aEQZpCT'
p3768
(dp3769
g3
S'Major Lazer'
p3770
sg5
I15
sg6
S'https://open.spotify.com/track/0L7loeTIg6akW84aEQZpCT'
p3771
sg8
S'Light It Up (feat. Nyla & Fuse ODG) - Remix'
p3772
ssS'4Q5yMlwAfAoitqg4r9oZHN'
p3773
(dp3774
g3
S'Cashmere Cat'
p3775
sg5
I7
sg6
S'https://open.spotify.com/track/4Q5yMlwAfAoitqg4r9oZHN'
p3776
sg8
S'Quit (feat. Ariana Grande)'
p3777
ssS'1Bqxj0aH5KewYHKUg1IdrF'
p3778
(dp3779
g3
S'G-Eazy'
p3780
sg5
I10
sg6
S'https://open.spotify.com/track/1Bqxj0aH5KewYHKUg1IdrF'
p3781
sg8
S'Some Kind Of Drug'
p3782
ssS'5TXDeTFVRVY7Cvt0Dw4vWW'
p3783
(dp3784
g3
S'XXXTENTACION'
p3785
sg5
I6
sg6
S'https://open.spotify.com/track/5TXDeTFVRVY7Cvt0Dw4vWW'
p3786
sg8
S'Revenge'
p3787
ssS'6DUdDIRgLqCGq1DwkNWQTN'
p3788
(dp3789
g3
S'Maluma'
p3790
sg5
I10
sg6
S'https://open.spotify.com/track/6DUdDIRgLqCGq1DwkNWQTN'
p3791
sg8
S'Borro Cassette'
p3792
ssS'167NczpNbRF7oWakJaY3Hh'
p3793
(dp3794
g3
S'Niall Horan'
p3795
sg5
I21
sg6
S'https://open.spotify.com/track/167NczpNbRF7oWakJaY3Hh'
p3796
sg8
S'Slow Hands'
p3797
ssS'1LszjjoVwDDZcWUQbzeDLG'
p3798
(dp3799
g3
S'Yandel'
p3800
sg5
I5
sg6
S'https://open.spotify.com/track/1LszjjoVwDDZcWUQbzeDLG'
p3801
sg8
S'Expl\xc3\xadcale'
p3802
ssS'5mey7CLLuFToM2P68Qu1gF'
p3803
(dp3804
g3
S'Chino & Nacho'
p3805
sg5
I13
sg6
S'https://open.spotify.com/track/5mey7CLLuFToM2P68Qu1gF'
p3806
sg8
S'Andas En Mi Cabeza'
p3807
ssS'0or0gNaKAXYYCsOrpvRzAu'
p3808
(dp3809
g3
S'Lorde'
p3810
sg5
I3
sg6
S'https://open.spotify.com/track/0or0gNaKAXYYCsOrpvRzAu'
p3811
sg8
S'Liability'
p3812
ssS'19a3JfW8BQwqHWUMbcqSx8'
p3813
(dp3814
g3
S'Kanye West'
p3815
sg5
I1
sg6
S'https://open.spotify.com/track/19a3JfW8BQwqHWUMbcqSx8'
p3816
sg8
S'Famous'
p3817
ssS'6vBgJ1SLmpB4VMcEVy1ovL'
p3818
(dp3819
g3
S'Joakim Lundell'
p3820
sg5
I1
sg6
S'https://open.spotify.com/track/6vBgJ1SLmpB4VMcEVy1ovL'
p3821
sg8
S'All I Need'
p3822
ssS'693iqPOQvhI7PobtR8CC8v'
p3823
(dp3824
g3
S'J Balvin'
p3825
sg5
I18
sg6
S'https://open.spotify.com/track/693iqPOQvhI7PobtR8CC8v'
p3826
sg8
S'Bonita'
p3827
ssS'7yHEDfrJNd0zWOfXwydNH0'
p3828
(dp3829
g3
S'Ariana Grande'
p3830
sg5
I15
sg6
S'https://open.spotify.com/track/7yHEDfrJNd0zWOfXwydNH0'
p3831
sg8
S'Into You'
p3832
ssS'1lntL1cI2UIWlxjL5QiN8g'
p3833
(dp3834
g3
S'Lauv'
p3835
sg5
I14
sg6
S'https://open.spotify.com/track/1lntL1cI2UIWlxjL5QiN8g'
p3836
sg8
S'The Other'
p3837
ssS'0LtVx5vsq9nfpGsWgjUin6'
p3838
(dp3839
g3
S'Ryan Gosling'
p3840
sg5
I5
sg6
S'https://open.spotify.com/track/0LtVx5vsq9nfpGsWgjUin6'
p3841
sg8
S'City Of Stars - From La La Land Soundtrack'
p3842
ssS'1839RWzPRZCVgvamu4sHSN'
p3843
(dp3844
g3
S'Cash Cash'
p3845
sg5
I6
sg6
S'https://open.spotify.com/track/1839RWzPRZCVgvamu4sHSN'
p3846
sg8
S'All My Love (feat. Conor Maynard)'
p3847
ssS'5Db9VIdDsN5yu3Eu7CT0i4'
p3848
(dp3849
g3
S'Sam Smith'
p3850
sg5
I10
sg6
S'https://open.spotify.com/track/5Db9VIdDsN5yu3Eu7CT0i4'
p3851
sg8
S'Stay With Me'
p3852
ssS'11KJSRSgaDxqydKYiD2Jew'
p3853
(dp3854
g3
S'Drake'
p3855
sg5
I16
sg6
S'https://open.spotify.com/track/11KJSRSgaDxqydKYiD2Jew'
p3856
sg8
S'Too Good'
p3857
ssS'7pYFPMeK0TnaTGdS6qOtEr'
p3858
(dp3859
g3
S'Stargate'
p3860
sg5
I1
sg6
S'https://open.spotify.com/track/7pYFPMeK0TnaTGdS6qOtEr'
p3861
sg8
S'Waterfall'
p3862
ssS'1yNyoWWWikbLhwIGWjZuDW'
p3863
(dp3864
g3
S'The Vamps'
p3865
sg5
I23
sg6
S'https://open.spotify.com/track/1yNyoWWWikbLhwIGWjZuDW'
p3866
sg8
S'All Night'
p3867
ssS'26AuyrZGzWWiYZPSd3XBIg'
p3868
(dp3869
g3
S'The Chainsmokers'
p3870
sg5
I1
sg6
S'https://open.spotify.com/track/26AuyrZGzWWiYZPSd3XBIg'
p3871
sg8
S'Bloodstream'
p3872
ssS'3Dwq1oiOFys6Sxr5SslmXw'
p3873
(dp3874
g3
S'Harry Styles'
p3875
sg5
I2
sg6
S'https://open.spotify.com/track/3Dwq1oiOFys6Sxr5SslmXw'
p3876
sg8
S'Carolina'
p3877
ssS'4vb4mFvYsr2h6enhjJsq9Y'
p3878
(dp3879
g3
S'Adele'
p3880
sg5
I18
sg6
S'https://open.spotify.com/track/4vb4mFvYsr2h6enhjJsq9Y'
p3881
sg8
S'Water Under the Bridge'
p3882
ssS'6cPyTS0Kk2sc4xQwC93kOg'
p3883
(dp3884
g3
S'The Chainsmokers'
p3885
sg5
I7
sg6
S'https://open.spotify.com/track/6cPyTS0Kk2sc4xQwC93kOg'
p3886
sg8
S'Break Up Every Night'
p3887
ssS'2kVHAQKVtczchKctctzbtK'
p3888
(dp3889
g3
S'Katy Perry'
p3890
sg5
I19
sg6
S'https://open.spotify.com/track/2kVHAQKVtczchKctctzbtK'
p3891
sg8
S'Swish Swish'
p3892
ssS'17Fd6Yb7mSbinKG8LoWfFl'
p3893
(dp3894
g3
S'Mike Posner'
p3895
sg5
I34
sg6
S'https://open.spotify.com/track/17Fd6Yb7mSbinKG8LoWfFl'
p3896
sg8
S'I Took A Pill In Ibiza - Seeb Remix'
p3897
ssS'7zTx8ePYAmPFQuxP3xlXZn'
p3898
(dp3899
g3
S'San Holo'
p3900
sg5
I9
sg6
S'https://open.spotify.com/track/7zTx8ePYAmPFQuxP3xlXZn'
p3901
sg8
S'Light'
p3902
ssS'4tCtwWceOPWzenK2HAIJSb'
p3903
(dp3904
g3
S'Fifth Harmony'
p3905
sg5
I29
sg6
S'https://open.spotify.com/track/4tCtwWceOPWzenK2HAIJSb'
p3906
sg8
S'Work from Home'
p3907
ssS'5nq1uTNIR1cBR72T87viS0'
p3908
(dp3909
g3
S'BTS'
p3910
sg5
I1
sg6
S'https://open.spotify.com/track/5nq1uTNIR1cBR72T87viS0'
p3911
sg8
S'Go Go'
p3912
ssS'7mldq42yDuxiUNn08nvzHO'
p3913
(dp3914
g3
S'Sam Hunt'
p3915
sg5
I34
sg6
S'https://open.spotify.com/track/7mldq42yDuxiUNn08nvzHO'
p3916
sg8
S'Body Like A Back Road'
p3917
ssS'3hB5DgAiMAQ4DzYbsMq1IT'
p3918
(dp3919
g3
S'Justin Bieber'
p3920
sg5
I40
sg6
S'https://open.spotify.com/track/3hB5DgAiMAQ4DzYbsMq1IT'
p3921
sg8
S'Love Yourself'
p3922
ssS'1foCxQtxBweJtZmdxhEHVO'
p3923
(dp3924
g3
S'Eartha Kitt'
p3925
sg5
I1
sg6
S'https://open.spotify.com/track/1foCxQtxBweJtZmdxhEHVO'
p3926
sg8
S'Santa Baby'
p3927
ssS'32OWobmyAz8J2qA8iWekyS'
p3928
(dp3929
g3
S'Justin Bieber'
p3930
sg5
I1
sg6
S'https://open.spotify.com/track/32OWobmyAz8J2qA8iWekyS'
p3931
sg8
S'Mistletoe'
p3932
ssS'6XOYVSmNDjKUNMXooU4s4z'
p3933
(dp3934
g3
S'OneRepublic'
p3935
sg5
I15
sg6
S'https://open.spotify.com/track/6XOYVSmNDjKUNMXooU4s4z'
p3936
sg8
S'No Vacancy'
p3937
ssS'204U3zjm9kkzX25Pr4Rdld'
p3938
(dp3939
g3
S'Migos'
p3940
sg5
I3
sg6
S'https://open.spotify.com/track/204U3zjm9kkzX25Pr4Rdld'
p3941
sg8
S'Kelly Price (feat. Travis Scott)'
p3942
ssS'3bidbhpOYeV4knp8AIu8Xn'
p3943
(dp3944
g3
S'Macklemore & Ryan Lewis'
p3945
sg5
I1
sg6
S'https://open.spotify.com/track/3bidbhpOYeV4knp8AIu8Xn'
p3946
sg8
S"Can't Hold Us - feat. Ray Dalton"
p3947
ssS'6AGON2BGdPmPMJGiiNuuwl'
p3948
(dp3949
g3
S'J. Cole'
p3950
sg5
I3
sg6
S'https://open.spotify.com/track/6AGON2BGdPmPMJGiiNuuwl'
p3951
sg8
S'Immortal'
p3952
ssS'6PGoSes0D9eUDeeAafB2As'
p3953
(dp3954
g3
S'Kendrick Lamar'
p3955
sg5
I24
sg6
S'https://open.spotify.com/track/6PGoSes0D9eUDeeAafB2As'
p3956
sg8
S'LOVE. FEAT. ZACARI.'
p3957
ssS'1lItf5ZXJc1by9SbPeljFd'
p3958
(dp3959
g3
S'Zay Hilfigerrr'
p3960
sg5
I6
sg6
S'https://open.spotify.com/track/1lItf5ZXJc1by9SbPeljFd'
p3961
sg8
S'Juju On That Beat (TZ Anthem)'
p3962
ss.