(dp0
S'0mel2N9Ws9r4yLQn5QE21Y'
p1
(dp2
S'artistName'
p3
S'Sam Smith'
p4
sS'weeksOnChart'
p5
I5
sS'track_href'
p6
S'https://open.spotify.com/track/0mel2N9Ws9r4yLQn5QE21Y'
p7
sS'songName'
p8
S'Too Good At Goodbyes'
p9
ssS'728zbo72kOoYdGR3AhNsyF'
p10
(dp11
g3
S'The xx'
p12
sg5
I1
sg6
S'https://open.spotify.com/track/728zbo72kOoYdGR3AhNsyF'
p13
sg8
S'Say Something Loving'
p14
ssS'3I7krC8kr0gFR7P6vInR1I'
p15
(dp16
g3
S'Billy Currington'
p17
sg5
I7
sg6
S'https://open.spotify.com/track/3I7krC8kr0gFR7P6vInR1I'
p18
sg8
S'Do I Make You Wanna'
p19
ssS'60a0Rd6pjrkxjPbaKzXjfq'
p20
(dp21
g3
S'Linkin Park'
p22
sg5
I3
sg6
S'https://open.spotify.com/track/60a0Rd6pjrkxjPbaKzXjfq'
p23
sg8
S'In The End'
p24
ssS'0prNGof3XqfTvNDxHonvdK'
p25
(dp26
g3
S'Alessia Cara'
p27
sg5
I18
sg6
S'https://open.spotify.com/track/0prNGof3XqfTvNDxHonvdK'
p28
sg8
S'Scars To Your Beautiful'
p29
ssS'1pJQAHpD51J7GYaFrrFO9S'
p30
(dp31
g3
S'The Chainsmokers'
p32
sg5
I2
sg6
S'https://open.spotify.com/track/1pJQAHpD51J7GYaFrrFO9S'
p33
sg8
S"Don't Say"
p34
ssS'6HUnnBwYZqcED1eQztxMBN'
p35
(dp36
g3
S'Martin Jensen'
p37
sg5
I19
sg6
S'https://open.spotify.com/track/6HUnnBwYZqcED1eQztxMBN'
p38
sg8
S'Solo Dance'
p39
ssS'4pYZLpX23Vx8rwDpJCpPTA'
p40
(dp41
g3
S'Rich The Kid'
p42
sg5
I2
sg6
S'https://open.spotify.com/track/4pYZLpX23Vx8rwDpJCpPTA'
p43
sg8
S'New Freezer (feat. Kendrick Lamar)'
p44
ssS'4A4A6dwl5DqdqrZaEtKGPR'
p45
(dp46
g3
S'Taylor Swift'
p47
sg5
I1
sg6
S'https://open.spotify.com/track/4A4A6dwl5DqdqrZaEtKGPR'
p48
sg8
S'Wildest Dreams'
p49
ssS'7MRyJPksH3G2cXHN8UKYzP'
p50
(dp51
g3
S'Tom Petty and the Heartbreakers'
p52
sg5
I1
sg6
S'https://open.spotify.com/track/7MRyJPksH3G2cXHN8UKYzP'
p53
sg8
S'American Girl'
p54
ssS'498ZVInMGDkmmNVpSWqHiZ'
p55
(dp56
g3
S'Florida Georgia Line'
p57
sg5
I7
sg6
S'https://open.spotify.com/track/498ZVInMGDkmmNVpSWqHiZ'
p58
sg8
S'May We All'
p59
ssS'0F1Rc18rZcJOALxIIQPTYd'
p60
(dp61
g3
S'Maty Noyes'
p62
sg5
I1
sg6
S'https://open.spotify.com/track/0F1Rc18rZcJOALxIIQPTYd'
p63
sg8
S'in my miNd'
p64
ssS'3QWjljChcOMkRDYSzF33Qr'
p65
(dp66
g3
S'Kiiara'
p67
sg5
I6
sg6
S'https://open.spotify.com/track/3QWjljChcOMkRDYSzF33Qr'
p68
sg8
S'Whippin (feat. Felix Snow)'
p69
ssS'0lLdorYw7lVrJydTINhWdI'
p70
(dp71
g3
S'Michael Bubl\xc3\xa9'
p72
sg5
I1
sg6
S'https://open.spotify.com/track/0lLdorYw7lVrJydTINhWdI'
p73
sg8
S"It's Beginning To Look A Lot Like Christmas"
p74
ssS'3pC1ILr9KzmQLMe8Kn5QBG'
p75
(dp76
g3
S'DJ Khaled'
p77
sg5
I2
sg6
S'https://open.spotify.com/track/3pC1ILr9KzmQLMe8Kn5QBG'
p78
sg8
S'To the Max'
p79
ssS'2aksifNn5ph8igDOkPBA02'
p80
(dp81
g3
S'Rihanna'
p82
sg5
I34
sg6
S'https://open.spotify.com/track/2aksifNn5ph8igDOkPBA02'
p83
sg8
S'Love On The Brain'
p84
ssS'41jDpQ9b2VnVdsYEy2nC7z'
p85
(dp86
g3
S'2 Chainz'
p87
sg5
I1
sg6
S'https://open.spotify.com/track/41jDpQ9b2VnVdsYEy2nC7z'
p88
sg8
S"It's A Vibe"
p89
ssS'4b4KcovePX8Ke2cLIQTLM0'
p90
(dp91
g3
S'The Vamps'
p92
sg5
I1
sg6
S'https://open.spotify.com/track/4b4KcovePX8Ke2cLIQTLM0'
p93
sg8
S'All Night'
p94
ssS'7wGoVu4Dady5GV0Sv4UIsx'
p95
(dp96
g3
S'Post Malone'
p97
sg5
I1
sg6
S'https://open.spotify.com/track/7wGoVu4Dady5GV0Sv4UIsx'
p98
sg8
S'rockstar'
p99
ssS'0jdny0dhgjUwoIp5GkqEaA'
p100
(dp101
g3
S'Kesha'
p102
sg5
I9
sg6
S'https://open.spotify.com/track/0jdny0dhgjUwoIp5GkqEaA'
p103
sg8
S'Praying'
p104
ssS'1kJtfldK9F7XmsSiSNlbth'
p105
(dp106
g3
S'Kesha'
p107
sg5
I1
sg6
S'https://open.spotify.com/track/1kJtfldK9F7XmsSiSNlbth'
p108
sg8
S'Woman'
p109
ssS'7KcGEssn7BnJdTgildK5y0'
p110
(dp111
g3
S'Nicki Minaj'
p112
sg5
I12
sg6
S'https://open.spotify.com/track/7KcGEssn7BnJdTgildK5y0'
p113
sg8
S'No Frauds'
p114
ssS'1CnPYaKxTVb4LWOtiGOm0m'
p115
(dp116
g3
S'Jon Bellion'
p117
sg5
I20
sg6
S'https://open.spotify.com/track/1CnPYaKxTVb4LWOtiGOm0m'
p118
sg8
S'All Time Low'
p119
ssS'4OZEu0Vwq0RB2LAq14v99n'
p120
(dp121
g3
S'DJ Snake'
p122
sg5
I1
sg6
S'https://open.spotify.com/track/4OZEu0Vwq0RB2LAq14v99n'
p123
sg8
S'Middle'
p124
ssS'1tyjWMMINb9S0YBynTvJ7s'
p125
(dp126
g3
S'London On Da Track'
p127
sg5
I1
sg6
S'https://open.spotify.com/track/1tyjWMMINb9S0YBynTvJ7s'
p128
sg8
S'No Flag'
p129
ssS'5hfpu8saHLGedbHRtNCYjm'
p130
(dp131
g3
S'Machine Gun Kelly'
p132
sg5
I8
sg6
S'https://open.spotify.com/track/5hfpu8saHLGedbHRtNCYjm'
p133
sg8
S'Trap Paris (feat. Quavo & Ty Dolla $ign)'
p134
ssS'6Pw3Gvw4wNMZfTYZa6IQal'
p135
(dp136
g3
S'Bebe Rexha'
p137
sg5
I6
sg6
S'https://open.spotify.com/track/6Pw3Gvw4wNMZfTYZa6IQal'
p138
sg8
S'The Way I Are (Dance With Somebody) [feat. Lil Wayne]'
p139
ssS'2RJfK2pOvGpnxC255YOy5k'
p140
(dp141
g3
S'Paramore'
p142
sg5
I1
sg6
S'https://open.spotify.com/track/2RJfK2pOvGpnxC255YOy5k'
p143
sg8
S'Rose-Colored Boy'
p144
ssS'7L9g4cPfohScjJ8mGwLQWr'
p145
(dp146
g3
S'Joey Bada$$'
p147
sg5
I2
sg6
S'https://open.spotify.com/track/7L9g4cPfohScjJ8mGwLQWr'
p148
sg8
S'TEMPTATION'
p149
ssS'5JwLhFNrXw49pn3HQqu02G'
p150
(dp151
g3
S'Lana Del Rey'
p152
sg5
I1
sg6
S'https://open.spotify.com/track/5JwLhFNrXw49pn3HQqu02G'
p153
sg8
S'Summer Bummer (feat. A$AP Rocky & Playboi Carti)'
p154
ssS'6kl1qtQXQsFiIWRBK24Cfp'
p155
(dp156
g3
S'A$AP Mob'
p157
sg5
I7
sg6
S'https://open.spotify.com/track/6kl1qtQXQsFiIWRBK24Cfp'
p158
sg8
S'RAF'
p159
ssS'2FRnf9qhLbvw8fu4IBXx78'
p160
(dp161
g3
S'Wham!'
p162
sg5
I1
sg6
S'https://open.spotify.com/track/2FRnf9qhLbvw8fu4IBXx78'
p163
sg8
S'Last Christmas'
p164
ssS'7tr2za8SQg2CI8EDgrdtNl'
p165
(dp166
g3
S'Calvin Harris'
p167
sg5
I29
sg6
S'https://open.spotify.com/track/7tr2za8SQg2CI8EDgrdtNl'
p168
sg8
S'Slide'
p169
ssS'7zVCrzzEJU7u24sbJPXA5W'
p170
(dp171
g3
S'Kane Brown'
p172
sg5
I19
sg6
S'https://open.spotify.com/track/7zVCrzzEJU7u24sbJPXA5W'
p173
sg8
S'What Ifs'
p174
ssS'5uQOauh47VFt3B2kV9kRXw'
p175
(dp176
g3
S'A Boogie Wit da Hoodie'
p177
sg5
I16
sg6
S'https://open.spotify.com/track/5uQOauh47VFt3B2kV9kRXw'
p178
sg8
S'My Shit'
p179
ssS'7f08qp3HROTkfrtNpiYGGo'
p180
(dp181
g3
S'Jon Pardi'
p182
sg5
I13
sg6
S'https://open.spotify.com/track/7f08qp3HROTkfrtNpiYGGo'
p183
sg8
S'Dirt On My Boots'
p184
ssS'40oKW22ZNNkEdZLJTScaQI'
p185
(dp186
g3
S'Kodak Black'
p187
sg5
I8
sg6
S'https://open.spotify.com/track/40oKW22ZNNkEdZLJTScaQI'
p188
sg8
S'Roll In Peace (feat. XXXTENTACION)'
p189
ssS'4xBjsLUSjcx2h7PcRikpQp'
p190
(dp191
g3
S'Camila Cabello'
p192
sg5
I10
sg6
S'https://open.spotify.com/track/4xBjsLUSjcx2h7PcRikpQp'
p193
sg8
S'OMG'
p194
ssS'25khomWgBVamSdKw7hzm3l'
p195
(dp196
g3
S'The Weeknd'
p197
sg5
I14
sg6
S'https://open.spotify.com/track/25khomWgBVamSdKw7hzm3l'
p198
sg8
S'The Hills'
p199
ssS'06FCvd7rrRcF3DdvWH5Isp'
p200
(dp201
g3
S'Kendrick Lamar'
p202
sg5
I9
sg6
S'https://open.spotify.com/track/06FCvd7rrRcF3DdvWH5Isp'
p203
sg8
S'LUST.'
p204
ssS'4pLwZjInHj3SimIyN9SnOz'
p205
(dp206
g3
S'Ariana Grande'
p207
sg5
I28
sg6
S'https://open.spotify.com/track/4pLwZjInHj3SimIyN9SnOz'
p208
sg8
S'Side To Side'
p209
ssS'3LRddJIw2ymm1CHIO9xlkC'
p210
(dp211
g3
S'French Montana'
p212
sg5
I2
sg6
S'https://open.spotify.com/track/3LRddJIw2ymm1CHIO9xlkC'
p213
sg8
S'Bring Dem Things'
p214
ssS'3E2Zh20GDCR9B1EYjfXWyv'
p215
(dp216
g3
S'AJR'
p217
sg5
I33
sg6
S'https://open.spotify.com/track/3E2Zh20GDCR9B1EYjfXWyv'
p218
sg8
S'Weak'
p219
ssS'2Gl0FzuLxflY6nPifJp5Dr'
p220
(dp221
g3
S'Kygo'
p222
sg5
I11
sg6
S'https://open.spotify.com/track/2Gl0FzuLxflY6nPifJp5Dr'
p223
sg8
S'First Time'
p224
ssS'0xl1w2q4VLojeXp4JfazPL'
p225
(dp226
g3
S'Drake'
p227
sg5
I9
sg6
S'https://open.spotify.com/track/0xl1w2q4VLojeXp4JfazPL'
p228
sg8
S'Sacrifices'
p229
ssS'4BHzQ9C00ceJxfG16AlNWb'
p230
(dp231
g3
S'Adele'
p232
sg5
I7
sg6
S'https://open.spotify.com/track/4BHzQ9C00ceJxfG16AlNWb'
p233
sg8
S'Send My Love (To Your New Lover)'
p234
ssS'6WSBZroxQaO3FYEpT2ACFH'
p235
(dp236
g3
S'Kid Cudi'
p237
sg5
I3
sg6
S'https://open.spotify.com/track/6WSBZroxQaO3FYEpT2ACFH'
p238
sg8
S'Baptized In Fire'
p239
ssS'50PWlIBU7PlGGwzgN8TiFJ'
p240
(dp241
g3
S'Lady Gaga'
p242
sg5
I6
sg6
S'https://open.spotify.com/track/50PWlIBU7PlGGwzgN8TiFJ'
p243
sg8
S'Million Reasons'
p244
ssS'6HN5XPJEV31RQJGoyqZ81K'
p245
(dp246
g3
S'Logic'
p247
sg5
I2
sg6
S'https://open.spotify.com/track/6HN5XPJEV31RQJGoyqZ81K'
p248
sg8
S'Take It Back'
p249
ssS'2RttW7RAu5nOAfq6YFvApB'
p250
(dp251
g3
S'Ed Sheeran'
p252
sg5
I10
sg6
S'https://open.spotify.com/track/2RttW7RAu5nOAfq6YFvApB'
p253
sg8
S'Happier'
p254
ssS'0RYXEibxMami3QuT8kn4Iz'
p255
(dp256
g3
S'Macklemore'
p257
sg5
I6
sg6
S'https://open.spotify.com/track/0RYXEibxMami3QuT8kn4Iz'
p258
sg8
S'Marmalade (feat. Lil Yachty)'
p259
ssS'5LYQSNHZxEA880URXFHg6h'
p260
(dp261
g3
S'Lana Del Rey'
p262
sg5
I2
sg6
S'https://open.spotify.com/track/5LYQSNHZxEA880URXFHg6h'
p263
sg8
S'Lust for Life (with The Weeknd)'
p264
ssS'3EmmCZoqpWOTY1g2GBwJoR'
p265
(dp266
g3
S'Steve Aoki'
p267
sg5
I13
sg6
S'https://open.spotify.com/track/3EmmCZoqpWOTY1g2GBwJoR'
p268
sg8
S'Just Hold On'
p269
ssS'2Ce5IyMlVRVvN997ZJjJJA'
p270
(dp271
g3
S'Future'
p272
sg5
I22
sg6
S'https://open.spotify.com/track/2Ce5IyMlVRVvN997ZJjJJA'
p273
sg8
S'Selfish'
p274
ssS'4Q9vx0KwTiOMaRjOZkaxst'
p275
(dp276
g3
S'Future'
p277
sg5
I1
sg6
S'https://open.spotify.com/track/4Q9vx0KwTiOMaRjOZkaxst'
p278
sg8
S'My Collection'
p279
ssS'6zLdXcmvIxnAXpz9sXFnIE'
p280
(dp281
g3
S'Thomas Rhett'
p282
sg5
I15
sg6
S'https://open.spotify.com/track/6zLdXcmvIxnAXpz9sXFnIE'
p283
sg8
S'Craving You'
p284
ssS'3sJHkcxojoJD2Ytbo1yLLF'
p285
(dp286
g3
S'Moon Taxi'
p287
sg5
I9
sg6
S'https://open.spotify.com/track/3sJHkcxojoJD2Ytbo1yLLF'
p288
sg8
S'Two High'
p289
ssS'3pjUyVbFmM96tYhSaKJwTt'
p290
(dp291
g3
S'J. Cole'
p292
sg5
I5
sg6
S'https://open.spotify.com/track/3pjUyVbFmM96tYhSaKJwTt'
p293
sg8
S'Change'
p294
ssS'4vv1KjUzPwrtDbozizSfQc'
p295
(dp296
g3
S'DJ Khaled'
p297
sg5
I1
sg6
S'https://open.spotify.com/track/4vv1KjUzPwrtDbozizSfQc'
p298
sg8
S"Don't Quit"
p299
ssS'3s2rQnjOKEENte75MloNMq'
p300
(dp301
g3
S'Future'
p302
sg5
I1
sg6
S'https://open.spotify.com/track/3s2rQnjOKEENte75MloNMq'
p303
sg8
S'Scrape'
p304
ssS'3VRk65lHSwqd90TAkQqhvB'
p305
(dp306
g3
S'Katy Perry'
p307
sg5
I2
sg6
S'https://open.spotify.com/track/3VRk65lHSwqd90TAkQqhvB'
p308
sg8
S'Swish Swish'
p309
ssS'20dP2DaMHIAmwWAbp7peSr'
p310
(dp311
g3
S'Young Thug'
p312
sg5
I42
sg6
S'https://open.spotify.com/track/20dP2DaMHIAmwWAbp7peSr'
p313
sg8
S'pick up the phone'
p314
ssS'2wf9bp4MkChojtljddWpbO'
p315
(dp316
g3
S'6LACK'
p317
sg5
I36
sg6
S'https://open.spotify.com/track/2wf9bp4MkChojtljddWpbO'
p318
sg8
S'PRBLMS'
p319
ssS'08Wc3X7XNSyF8WYBPt2L8E'
p320
(dp321
g3
S'Calvin Harris'
p322
sg5
I1
sg6
S'https://open.spotify.com/track/08Wc3X7XNSyF8WYBPt2L8E'
p323
sg8
S'Holiday'
p324
ssS'5eqK0tbzUPo2SoeZsov04s'
p325
(dp326
g3
S'21 Savage'
p327
sg5
I11
sg6
S'https://open.spotify.com/track/5eqK0tbzUPo2SoeZsov04s'
p328
sg8
S'Bank Account'
p329
ssS'5tz69p7tJuGPeMGwNTxYuV'
p330
(dp331
g3
S'Logic'
p332
sg5
I24
sg6
S'https://open.spotify.com/track/5tz69p7tJuGPeMGwNTxYuV'
p333
sg8
S'1-800-273-8255'
p334
ssS'1uL78kFWxhz3umTMWJu8n5'
p335
(dp336
g3
S'Lil Uzi Vert'
p337
sg5
I7
sg6
S'https://open.spotify.com/track/1uL78kFWxhz3umTMWJu8n5'
p338
sg8
S'Sauce It Up'
p339
ssS'4iYRa2btalAzPZoSYfROqF'
p340
(dp341
g3
S'Kendrick Lamar'
p342
sg5
I14
sg6
S'https://open.spotify.com/track/4iYRa2btalAzPZoSYfROqF'
p343
sg8
S'XXX. FEAT. U2.'
p344
ssS'4xlrALxuaCf9yZBHJeTSG6'
p345
(dp346
g3
S'Jonas Blue'
p347
sg5
I7
sg6
S'https://open.spotify.com/track/4xlrALxuaCf9yZBHJeTSG6'
p348
sg8
S'Mama'
p349
ssS'6Nle9hKrkL1wQpwNfEkxjh'
p350
(dp351
g3
S'Frank Ocean'
p352
sg5
I7
sg6
S'https://open.spotify.com/track/6Nle9hKrkL1wQpwNfEkxjh'
p353
sg8
S'Chanel'
p354
ssS'2RwmsAOxtiRezQPmvyejb8'
p355
(dp356
g3
S'6LACK'
p357
sg5
I18
sg6
S'https://open.spotify.com/track/2RwmsAOxtiRezQPmvyejb8'
p358
sg8
S'Ex Calling'
p359
ssS'4izg6Hydc6XGErWW6nbdsV'
p360
(dp361
g3
S'Imagine Dragons'
p362
sg5
I3
sg6
S'https://open.spotify.com/track/4izg6Hydc6XGErWW6nbdsV'
p363
sg8
S'Whatever It Takes'
p364
ssS'22eADXu8DfOAUEDw4vU8qy'
p365
(dp366
g3
S'Chris Jeday'
p367
sg5
I4
sg6
S'https://open.spotify.com/track/22eADXu8DfOAUEDw4vU8qy'
p368
sg8
S'Ahora Dice'
p369
ssS'1Xpj3QviqIEVqPS2YbivL3'
p370
(dp371
g3
S'Lil Yachty'
p372
sg5
I1
sg6
S'https://open.spotify.com/track/1Xpj3QviqIEVqPS2YbivL3'
p373
sg8
S'X Men'
p374
ssS'5ZWwLNhwmJXM7yKZJ5sxN1'
p375
(dp376
g3
S'Yo Gotti'
p377
sg5
I1
sg6
S'https://open.spotify.com/track/5ZWwLNhwmJXM7yKZJ5sxN1'
p378
sg8
S'They Like'
p379
ssS'3BoPOp7YNORLqMUjE5XAh9'
p380
(dp381
g3
S'Migos'
p382
sg5
I1
sg6
S'https://open.spotify.com/track/3BoPOp7YNORLqMUjE5XAh9'
p383
sg8
S'Big On Big'
p384
ssS'4GFYhFM3OfFjyt1U0DaCVT'
p385
(dp386
g3
S'Chad Focus'
p387
sg5
I1
sg6
S'https://open.spotify.com/track/4GFYhFM3OfFjyt1U0DaCVT'
p388
sg8
S'Get to the Money'
p389
ssS'000xQL6tZNLJzIrtIgxqSl'
p390
(dp391
g3
S'ZAYN'
p392
sg5
I10
sg6
S'https://open.spotify.com/track/000xQL6tZNLJzIrtIgxqSl'
p393
sg8
S'Still Got Time'
p394
ssS'2FBUoWkIuQXwayw2RNo5l6'
p395
(dp396
g3
S'Drake'
p397
sg5
I8
sg6
S'https://open.spotify.com/track/2FBUoWkIuQXwayw2RNo5l6'
p398
sg8
S'Hotline Bling'
p399
ssS'0WQcnrsEqrY2e5nexGe3HX'
p400
(dp401
g3
S'A$AP Mob'
p402
sg5
I1
sg6
S'https://open.spotify.com/track/0WQcnrsEqrY2e5nexGe3HX'
p403
sg8
S'Walk On Water'
p404
ssS'1D3ODoXHBLpdxolZRHWV1j'
p405
(dp406
g3
S'Jonas Blue'
p407
sg5
I5
sg6
S'https://open.spotify.com/track/1D3ODoXHBLpdxolZRHWV1j'
p408
sg8
S'By Your Side'
p409
ssS'1CKd1PnqfYx0H12V9MSaIY'
p410
(dp411
g3
S'Zedd'
p412
sg5
I10
sg6
S'https://open.spotify.com/track/1CKd1PnqfYx0H12V9MSaIY'
p413
sg8
S'Get Low (with Liam Payne)'
p414
ssS'3ZLyt2ndLFBh148XRYjYYZ'
p415
(dp416
g3
S'Chance The Rapper'
p417
sg5
I5
sg6
S'https://open.spotify.com/track/3ZLyt2ndLFBh148XRYjYYZ'
p418
sg8
S"All We Got (feat. Kanye West & Chicago Children's Choir)"
p419
ssS'0VJYhKhrHgJ7fgjGaC2k07'
p420
(dp421
g3
S'XXXTENTACION'
p422
sg5
I1
sg6
S'https://open.spotify.com/track/0VJYhKhrHgJ7fgjGaC2k07'
p423
sg8
S'The Explanation'
p424
ssS'042x9bsUBWW2fJgJ6fUh61'
p425
(dp426
g3
S'DVBBS'
p427
sg5
I9
sg6
S'https://open.spotify.com/track/042x9bsUBWW2fJgJ6fUh61'
p428
sg8
S'Not Going Home'
p429
ssS'5Z01UMMf7V1o0MzF86s6WJ'
p430
(dp431
g3
S'Eminem'
p432
sg5
I14
sg6
S'https://open.spotify.com/track/5Z01UMMf7V1o0MzF86s6WJ'
p433
sg8
S'Lose Yourself - Soundtrack Version'
p434
ssS'5CtI0qwDJkDQGwXD1H1cLb'
p435
(dp436
g3
S'Luis Fonsi'
p437
sg5
I26
sg6
S'https://open.spotify.com/track/5CtI0qwDJkDQGwXD1H1cLb'
p438
sg8
S'Despacito - Remix'
p439
ssS'7m9OqQk4RVRkw9JJdeAw96'
p440
(dp441
g3
S'XXXTENTACION'
p442
sg5
I7
sg6
S'https://open.spotify.com/track/7m9OqQk4RVRkw9JJdeAw96'
p443
sg8
S'Jocelyn Flores'
p444
ssS'5o4yGlG0PfeVUa6ClIyOxq'
p445
(dp446
g3
S'Charli XCX'
p447
sg5
I1
sg6
S'https://open.spotify.com/track/5o4yGlG0PfeVUa6ClIyOxq'
p448
sg8
S'Boys'
p449
ssS'3JKhmIlixlYwFLzrkc6drb'
p450
(dp451
g3
S'Kesha'
p452
sg5
I1
sg6
S'https://open.spotify.com/track/3JKhmIlixlYwFLzrkc6drb'
p453
sg8
S'Learn To Let Go'
p454
ssS'0NyOeqzqjVM9j7IuWp2oJ6'
p455
(dp456
g3
S'Gryffin'
p457
sg5
I1
sg6
S'https://open.spotify.com/track/0NyOeqzqjVM9j7IuWp2oJ6'
p458
sg8
S'Feel Good (feat. Daya)'
p459
ssS'7zxRMhXxJMQCeDDg0rKAVo'
p460
(dp461
g3
S'NAV'
p462
sg5
I27
sg6
S'https://open.spotify.com/track/7zxRMhXxJMQCeDDg0rKAVo'
p463
sg8
S'Some Way'
p464
ssS'1a5Yu5L18qNxVhXx38njON'
p465
(dp466
g3
S'Alok'
p467
sg5
I8
sg6
S'https://open.spotify.com/track/1a5Yu5L18qNxVhXx38njON'
p468
sg8
S'Hear Me Now'
p469
ssS'1Eck97uRMlprKOOJN9oO1E'
p470
(dp471
g3
S'G-Eazy'
p472
sg5
I11
sg6
S'https://open.spotify.com/track/1Eck97uRMlprKOOJN9oO1E'
p473
sg8
S'Good Life (with G-Eazy & Kehlani)'
p474
ssS'5wTVNpi5WDByxBgKgUE6MU'
p475
(dp476
g3
S'SZA'
p477
sg5
I1
sg6
S'https://open.spotify.com/track/5wTVNpi5WDByxBgKgUE6MU'
p478
sg8
S'Supermodel'
p479
ssS'7ARveOiD31w2Nq0n5FsSf8'
p480
(dp481
g3
S'Lorde'
p482
sg5
I1
sg6
S'https://open.spotify.com/track/7ARveOiD31w2Nq0n5FsSf8'
p483
sg8
S'Perfect Places'
p484
ssS'2ekn2ttSfGqwhhate0LSR0'
p485
(dp486
g3
S'Dua Lipa'
p487
sg5
I13
sg6
S'https://open.spotify.com/track/2ekn2ttSfGqwhhate0LSR0'
p488
sg8
S'New Rules'
p489
ssS'5humEOJehpAwMJEJmb0JJ2'
p490
(dp491
g3
S'Nat King Cole'
p492
sg5
I1
sg6
S'https://open.spotify.com/track/5humEOJehpAwMJEJmb0JJ2'
p493
sg8
S'The Christmas Song (Merry Christmas To You)'
p494
ssS'2dfqS3MRtbLZSZA1IL8xY5'
p495
(dp496
g3
S'Drake'
p497
sg5
I4
sg6
S'https://open.spotify.com/track/2dfqS3MRtbLZSZA1IL8xY5'
p498
sg8
S'Skepta Interlude'
p499
ssS'1sCxVKWImDZSZKvG0U9B23'
p500
(dp501
g3
S'Selena Gomez'
p502
sg5
I19
sg6
S'https://open.spotify.com/track/1sCxVKWImDZSZKvG0U9B23'
p503
sg8
S'Bad Liar'
p504
ssS'6i759FCuKx713ZnYjtpQGU'
p505
(dp506
g3
S'The Weeknd'
p507
sg5
I7
sg6
S'https://open.spotify.com/track/6i759FCuKx713ZnYjtpQGU'
p508
sg8
S'True Colors'
p509
ssS'7lGKEWMXVWWTt3X71Bv44I'
p510
(dp511
g3
S'X Ambassadors'
p512
sg5
I4
sg6
S'https://open.spotify.com/track/7lGKEWMXVWWTt3X71Bv44I'
p513
sg8
S'Unsteady'
p514
ssS'4xyNG8vZR3g8FnphVkbjRo'
p515
(dp516
g3
S'Lana Del Rey'
p517
sg5
I1
sg6
S'https://open.spotify.com/track/4xyNG8vZR3g8FnphVkbjRo'
p518
sg8
S'Love'
p519
ssS'4gHDOASpAaGG9eitQZP1bQ'
p520
(dp521
g3
S'Luke Combs'
p522
sg5
I1
sg6
S'https://open.spotify.com/track/4gHDOASpAaGG9eitQZP1bQ'
p523
sg8
S'Hurricane'
p524
ssS'2uSLx5uwRIhiA3sJJraNqX'
p525
(dp526
g3
S'Maroon 5'
p527
sg5
I1
sg6
S'https://open.spotify.com/track/2uSLx5uwRIhiA3sJJraNqX'
p528
sg8
S'Help Me Out (with Julia Michaels)'
p529
ssS'6V9kwssTrwkKT72imgowj9'
p530
(dp531
g3
S'The Chainsmokers'
p532
sg5
I2
sg6
S'https://open.spotify.com/track/6V9kwssTrwkKT72imgowj9'
p533
sg8
S'My Type'
p534
ssS'40FrkaBaV1XUfpUH1W6319'
p535
(dp536
g3
S'Future'
p537
sg5
I1
sg6
S'https://open.spotify.com/track/40FrkaBaV1XUfpUH1W6319'
p538
sg8
S'Testify'
p539
ssS'5clYhUpqYzy0Fdz3TdtZ3j'
p540
(dp541
g3
S'Kehlani'
p542
sg5
I1
sg6
S'https://open.spotify.com/track/5clYhUpqYzy0Fdz3TdtZ3j'
p543
sg8
S'Escape'
p544
ssS'6Q2FftbUG530lCtBI74bMH'
p545
(dp546
g3
S'A Boogie Wit da Hoodie'
p547
sg5
I25
sg6
S'https://open.spotify.com/track/6Q2FftbUG530lCtBI74bMH'
p548
sg8
S'Drowning (feat. Kodak Black)'
p549
ssS'7vAXN57IQ0sj049wZGIboE'
p550
(dp551
g3
S'Imagine Dragons'
p552
sg5
I1
sg6
S'https://open.spotify.com/track/7vAXN57IQ0sj049wZGIboE'
p553
sg8
S'Rise Up'
p554
ssS'1DRW9bQzt2SE8f7H4KJZyL'
p555
(dp556
g3
S'Miguel'
p557
sg5
I7
sg6
S'https://open.spotify.com/track/1DRW9bQzt2SE8f7H4KJZyL'
p558
sg8
S'Sky Walker'
p559
ssS'3TRFq09DUgYj1mug6RRqJW'
p560
(dp561
g3
S'Luke Christopher'
p562
sg5
I7
sg6
S'https://open.spotify.com/track/3TRFq09DUgYj1mug6RRqJW'
p563
sg8
S'Lot to Learn'
p564
ssS'6O6M7pJLABmfBRoGZMu76Y'
p565
(dp566
g3
S'The Chainsmokers'
p567
sg5
I8
sg6
S'https://open.spotify.com/track/6O6M7pJLABmfBRoGZMu76Y'
p568
sg8
S'Roses'
p569
ssS'3eze1OsZ1rqeXkKStNfTmi'
p570
(dp571
g3
S'Chance The Rapper'
p572
sg5
I12
sg6
S'https://open.spotify.com/track/3eze1OsZ1rqeXkKStNfTmi'
p573
sg8
S'Juke Jam (feat. Justin Bieber & Towkio)'
p574
ssS'32DGGj6KlNuBr6WaqRxpxi'
p575
(dp576
g3
S'Charlie Puth'
p577
sg5
I1
sg6
S'https://open.spotify.com/track/32DGGj6KlNuBr6WaqRxpxi'
p578
sg8
S'How Long'
p579
ssS'76gUmNLXGQVOsGhfcshkFP'
p580
(dp581
g3
S'Drake'
p582
sg5
I6
sg6
S'https://open.spotify.com/track/76gUmNLXGQVOsGhfcshkFP'
p583
sg8
S'Madiba Riddim'
p584
ssS'2sBHQfX9QxJwGcdutAj6Pj'
p585
(dp586
g3
S'Meek Mill'
p587
sg5
I1
sg6
S'https://open.spotify.com/track/2sBHQfX9QxJwGcdutAj6Pj'
p588
sg8
S'Wins & Losses'
p589
ssS'7vGuf3Y35N4wmASOKLUVVU'
p590
(dp591
g3
S'Marshmello'
p592
sg5
I9
sg6
S'https://open.spotify.com/track/7vGuf3Y35N4wmASOKLUVVU'
p593
sg8
S'Silence'
p594
ssS'4IWGnyOHDrVZEtPWfs4s7q'
p595
(dp596
g3
S'Lil Uzi Vert'
p597
sg5
I13
sg6
S'https://open.spotify.com/track/4IWGnyOHDrVZEtPWfs4s7q'
p598
sg8
S'Do What I Want'
p599
ssS'4nBhjVklA3Mtnyzshg4KmD'
p600
(dp601
g3
S'Bryson Tiller'
p602
sg5
I1
sg6
S'https://open.spotify.com/track/4nBhjVklA3Mtnyzshg4KmD'
p603
sg8
S'In Check'
p604
ssS'7iDxZ5Cd0Yg08d4fI5WVtG'
p605
(dp606
g3
S'Calvin Harris'
p607
sg5
I1
sg6
S'https://open.spotify.com/track/7iDxZ5Cd0Yg08d4fI5WVtG'
p608
sg8
S'Skrt On Me'
p609
ssS'3agtg0x11wPvLIWkYR39nZ'
p610
(dp611
g3
S'Linkin Park'
p612
sg5
I1
sg6
S'https://open.spotify.com/track/3agtg0x11wPvLIWkYR39nZ'
p613
sg8
S'Somewhere I Belong'
p614
ssS'7129iqBafaphfc3WPCGC0L'
p615
(dp616
g3
S'Lukas Graham'
p617
sg5
I8
sg6
S'https://open.spotify.com/track/7129iqBafaphfc3WPCGC0L'
p618
sg8
S'7 Years'
p619
ssS'57p8CBvPOxrvyCbn6ttl5r'
p620
(dp621
g3
S'Skrillex'
p622
sg5
I10
sg6
S'https://open.spotify.com/track/57p8CBvPOxrvyCbn6ttl5r'
p623
sg8
S'Would You Ever'
p624
ssS'0CcQNd8CINkwQfe1RDtGV6'
p625
(dp626
g3
S'Imagine Dragons'
p627
sg5
I33
sg6
S'https://open.spotify.com/track/0CcQNd8CINkwQfe1RDtGV6'
p628
sg8
S'Believer'
p629
ssS'7oolFzHipTMg2nL7shhdz2'
p630
(dp631
g3
S'Ed Sheeran'
p632
sg5
I3
sg6
S'https://open.spotify.com/track/7oolFzHipTMg2nL7shhdz2'
p633
sg8
S'Eraser'
p634
ssS'1f5cbQtDrykjarZVrShaDI'
p635
(dp636
g3
S'A Boogie Wit da Hoodie'
p637
sg5
I2
sg6
S'https://open.spotify.com/track/1f5cbQtDrykjarZVrShaDI'
p638
sg8
S'Drowning (feat. Kodak Black)'
p639
ssS'4Yf5bqU3NK4kNOypcrLYwU'
p640
(dp641
g3
S'Linkin Park'
p642
sg5
I1
sg6
S'https://open.spotify.com/track/4Yf5bqU3NK4kNOypcrLYwU'
p643
sg8
S'Faint'
p644
ssS'2NlmmAjGYrrjAp0MED5rGx'
p645
(dp646
g3
S'Taylor Swift'
p647
sg5
I1
sg6
S'https://open.spotify.com/track/2NlmmAjGYrrjAp0MED5rGx'
p648
sg8
S'Bad Blood'
p649
ssS'7fURZRPkB2S70sYR1naKTK'
p650
(dp651
g3
S'Soundgarden'
p652
sg5
I1
sg6
S'https://open.spotify.com/track/7fURZRPkB2S70sYR1naKTK'
p653
sg8
S'Black Hole Sun'
p654
ssS'2WQn7Yvs728KZmmY6tgWqH'
p655
(dp656
g3
S'Halsey'
p657
sg5
I2
sg6
S'https://open.spotify.com/track/2WQn7Yvs728KZmmY6tgWqH'
p658
sg8
S'Eyes Closed'
p659
ssS'3NdDpSvN911VPGivFlV5d0'
p660
(dp661
g3
S'ZAYN'
p662
sg5
I42
sg6
S'https://open.spotify.com/track/3NdDpSvN911VPGivFlV5d0'
p663
sg8
S'I Don\xe2\x80\x99t Wanna Live Forever (Fifty Shades Darker) - From Fifty Shades Darker (Original Motion Picture Soundtrack)'
p664
ssS'6fwdbPMwP1zVStm8FybmkO'
p665
(dp666
g3
S'21 Savage'
p667
sg5
I42
sg6
S'https://open.spotify.com/track/6fwdbPMwP1zVStm8FybmkO'
p668
sg8
S'X (feat. Future)'
p669
ssS'02hNDxtMMTpq72rdp1lm6v'
p670
(dp671
g3
S'2 Chainz'
p672
sg5
I1
sg6
S'https://open.spotify.com/track/02hNDxtMMTpq72rdp1lm6v'
p673
sg8
S'4 AM'
p674
ssS'37F0uwRSrdzkBiuj0D5UHI'
p675
(dp676
g3
S'The Weeknd'
p677
sg5
I32
sg6
S'https://open.spotify.com/track/37F0uwRSrdzkBiuj0D5UHI'
p678
sg8
S'Reminder'
p679
ssS'34oWbFBfGEElvgO0a5c9V4'
p680
(dp681
g3
S'Kodak Black'
p682
sg5
I31
sg6
S'https://open.spotify.com/track/34oWbFBfGEElvgO0a5c9V4'
p683
sg8
S'No Flockin'
p684
ssS'1wC93sZRGcTgKLN2UWRSwW'
p685
(dp686
g3
S'Lorde'
p687
sg5
I1
sg6
S'https://open.spotify.com/track/1wC93sZRGcTgKLN2UWRSwW'
p688
sg8
S'Perfect Places'
p689
ssS'7wwifjNAb172PtDpKK3CoR'
p690
(dp691
g3
S'Childish Gambino'
p692
sg5
I3
sg6
S'https://open.spotify.com/track/7wwifjNAb172PtDpKK3CoR'
p693
sg8
S'V. 3005'
p694
ssS'7rErmb9ztCh29H8nWmavQz'
p695
(dp696
g3
S'21 Savage'
p697
sg5
I1
sg6
S'https://open.spotify.com/track/7rErmb9ztCh29H8nWmavQz'
p698
sg8
S'Special'
p699
ssS'3DX4Y0egvc0slLcLl31h2p'
p700
(dp701
g3
S'The Weeknd'
p702
sg5
I6
sg6
S'https://open.spotify.com/track/3DX4Y0egvc0slLcLl31h2p'
p703
sg8
S'Secrets'
p704
ssS'6wV12xIUb8oFY7lBy4KuQe'
p705
(dp706
g3
S'Aaron Carter'
p707
sg5
I9
sg6
S'https://open.spotify.com/track/6wV12xIUb8oFY7lBy4KuQe'
p708
sg8
S'Sooner Or Later'
p709
ssS'6HEIBHUirx1J0JkUD24szt'
p710
(dp711
g3
S'Ugly God'
p712
sg5
I20
sg6
S'https://open.spotify.com/track/6HEIBHUirx1J0JkUD24szt'
p713
sg8
S'Water'
p714
ssS'1UZOjK1BwmwWU14Erba9CZ'
p715
(dp716
g3
S'Miley Cyrus'
p717
sg5
I2
sg6
S'https://open.spotify.com/track/1UZOjK1BwmwWU14Erba9CZ'
p718
sg8
S'Malibu'
p719
ssS'6y6jbcPG4Yn3Du4moXaenr'
p720
(dp721
g3
S'blackbear'
p722
sg5
I2
sg6
S'https://open.spotify.com/track/6y6jbcPG4Yn3Du4moXaenr'
p723
sg8
S'Idfc'
p724
ssS'7oK9VyNzrYvRFo7nQEYkWN'
p725
(dp726
g3
S'The Killers'
p727
sg5
I2
sg6
S'https://open.spotify.com/track/7oK9VyNzrYvRFo7nQEYkWN'
p728
sg8
S'Mr. Brightside'
p729
ssS'2eMwDehkIC1j68U6FA3Eiq'
p730
(dp731
g3
S'Lil Uzi Vert'
p732
sg5
I22
sg6
S'https://open.spotify.com/track/2eMwDehkIC1j68U6FA3Eiq'
p733
sg8
S'XO TOUR Llif3'
p734
ssS'2hfuZh5FuIOFMoUPU01fjv'
p735
(dp736
g3
S'Lil Yachty'
p737
sg5
I1
sg6
S'https://open.spotify.com/track/2hfuZh5FuIOFMoUPU01fjv'
p738
sg8
S'Harley'
p739
ssS'2zGvXOnaY9owBpYz3ZLjw5'
p740
(dp741
g3
S'Future'
p742
sg5
I1
sg6
S'https://open.spotify.com/track/2zGvXOnaY9owBpYz3ZLjw5'
p743
sg8
S'Hallucinating'
p744
ssS'3CRDbSIZ4r5MsZ0YwxuEkn'
p745
(dp746
g3
S'Twenty One Pilots'
p747
sg5
I16
sg6
S'https://open.spotify.com/track/3CRDbSIZ4r5MsZ0YwxuEkn'
p748
sg8
S'Stressed Out'
p749
ssS'6875MeXyCW0wLyT72Eetmo'
p750
(dp751
g3
S'Hailee Steinfeld'
p752
sg5
I2
sg6
S'https://open.spotify.com/track/6875MeXyCW0wLyT72Eetmo'
p753
sg8
S'Starving'
p754
ssS'4dVpf9jZjcORqGTLUaeYj9'
p755
(dp756
g3
S'A$AP Ferg'
p757
sg5
I7
sg6
S'https://open.spotify.com/track/4dVpf9jZjcORqGTLUaeYj9'
p758
sg8
S'Plain Jane'
p759
ssS'6mICuAdrwEjh6Y6lroV2Kg'
p760
(dp761
g3
S'Shakira'
p762
sg5
I18
sg6
S'https://open.spotify.com/track/6mICuAdrwEjh6Y6lroV2Kg'
p763
sg8
S'Chantaje'
p764
ssS'1nX9KhK3Fff27SnrIor2Yb'
p765
(dp766
g3
S'2 Chainz'
p767
sg5
I17
sg6
S'https://open.spotify.com/track/1nX9KhK3Fff27SnrIor2Yb'
p768
sg8
S'4 AM'
p769
ssS'67gmXPQZL1ISSh13OJJ1Pu'
p770
(dp771
g3
S'2 Chainz'
p772
sg5
I1
sg6
S'https://open.spotify.com/track/67gmXPQZL1ISSh13OJJ1Pu'
p773
sg8
S'Blue Cheese'
p774
ssS'1Ob94QesoxHSBrypyBbdfd'
p775
(dp776
g3
S'Khalid'
p777
sg5
I1
sg6
S'https://open.spotify.com/track/1Ob94QesoxHSBrypyBbdfd'
p778
sg8
S'Shot Down'
p779
ssS'6F609ICg9Spjrw1epsAnpa'
p780
(dp781
g3
S'Drake'
p782
sg5
I25
sg6
S'https://open.spotify.com/track/6F609ICg9Spjrw1epsAnpa'
p783
sg8
S'Controlla'
p784
ssS'3gWu8y0TKCIdy2mpTqVnTl'
p785
(dp786
g3
S'NF'
p787
sg5
I1
sg6
S'https://open.spotify.com/track/3gWu8y0TKCIdy2mpTqVnTl'
p788
sg8
S'Let You Down'
p789
ssS'2pnPe4pJtq7689i5ydzvJJ'
p790
(dp791
g3
S'Chuck Berry'
p792
sg5
I1
sg6
S'https://open.spotify.com/track/2pnPe4pJtq7689i5ydzvJJ'
p793
sg8
S'Run Rudolph Run - Single Version'
p794
ssS'2z3joGXrdGL2iEjIKQTiN1'
p795
(dp796
g3
S'J. Cole'
p797
sg5
I3
sg6
S'https://open.spotify.com/track/2z3joGXrdGL2iEjIKQTiN1'
p798
sg8
S'Ville Mentality'
p799
ssS'5qbcsZMwL0x46sX7VO37Ye'
p800
(dp801
g3
S'NAV'
p802
sg5
I18
sg6
S'https://open.spotify.com/track/5qbcsZMwL0x46sX7VO37Ye'
p803
sg8
S'Up'
p804
ssS'6gHWMJzCYkbDcsqKHoycJw'
p805
(dp806
g3
S'21 Savage'
p807
sg5
I2
sg6
S'https://open.spotify.com/track/6gHWMJzCYkbDcsqKHoycJw'
p808
sg8
S'FaceTime'
p809
ssS'6zpXc7WJ3TqYWb02B6sKyF'
p810
(dp811
g3
S'Big Sean'
p812
sg5
I2
sg6
S'https://open.spotify.com/track/6zpXc7WJ3TqYWb02B6sKyF'
p813
sg8
S'Bigger Than Me'
p814
ssS'3OoZagIW3YK8vjt0ws6NOI'
p815
(dp816
g3
S'DJ Khaled'
p817
sg5
I5
sg6
S'https://open.spotify.com/track/3OoZagIW3YK8vjt0ws6NOI'
p818
sg8
S'Shining'
p819
ssS'5Q0Nhxo0l2bP3pNjpGJwV1'
p820
(dp821
g3
S'Miley Cyrus'
p822
sg5
I1
sg6
S'https://open.spotify.com/track/5Q0Nhxo0l2bP3pNjpGJwV1'
p823
sg8
S'Party In The U.S.A.'
p824
ssS'16dXg2YuFOxwDC3cTf5jde'
p825
(dp826
g3
S'Kodak Black'
p827
sg5
I2
sg6
S'https://open.spotify.com/track/16dXg2YuFOxwDC3cTf5jde'
p828
sg8
S'Conscience (feat. Future)'
p829
ssS'00lNx0OcTJrS3MKHcB80HY'
p830
(dp831
g3
S'Jax Jones'
p832
sg5
I6
sg6
S'https://open.spotify.com/track/00lNx0OcTJrS3MKHcB80HY'
p833
sg8
S"You Don't Know Me - Radio Edit"
p834
ssS'2s76aKBWKShlwPC4xTtEEE'
p835
(dp836
g3
S'State of Sound'
p837
sg5
I1
sg6
S'https://open.spotify.com/track/2s76aKBWKShlwPC4xTtEEE'
p838
sg8
S'Wake Up Where You Are'
p839
ssS'1V8c3uV6p7uTsfQof5oRXg'
p840
(dp841
g3
S'blackbear'
p842
sg5
I1
sg6
S'https://open.spotify.com/track/1V8c3uV6p7uTsfQof5oRXg'
p843
sg8
S'make daddy proud'
p844
ssS'4XF1D03U8LuaLzlCMugIE5'
p845
(dp846
g3
S'Lil Pump'
p847
sg5
I2
sg6
S'https://open.spotify.com/track/4XF1D03U8LuaLzlCMugIE5'
p848
sg8
S'Flex Like Ouu'
p849
ssS'6t2ubAB4iSYOuIpRAOGd4t'
p850
(dp851
g3
S'Flo Rida'
p852
sg5
I13
sg6
S'https://open.spotify.com/track/6t2ubAB4iSYOuIpRAOGd4t'
p853
sg8
S'Cake'
p854
ssS'4nDfc6F2uVcc6wdG7kBzWO'
p855
(dp856
g3
S'Nick Jonas'
p857
sg5
I2
sg6
S'https://open.spotify.com/track/4nDfc6F2uVcc6wdG7kBzWO'
p858
sg8
S'Bom Bidi Bom - From Fifty Shades Darker (Original Motion Picture Soundtrack)'
p859
ssS'2ANLarE8yHVsLWW21nj79M'
p860
(dp861
g3
S'Lil Uzi Vert'
p862
sg5
I42
sg6
S'https://open.spotify.com/track/2ANLarE8yHVsLWW21nj79M'
p863
sg8
S'You Was Right'
p864
ssS'0dj1CtyRxZ4bnIT4Q20jNT'
p865
(dp866
g3
S'The Chainsmokers'
p867
sg5
I1
sg6
S'https://open.spotify.com/track/0dj1CtyRxZ4bnIT4Q20jNT'
p868
sg8
S'Wake Up Alone'
p869
ssS'0fg8CqpjdojMyXLNzM2PaJ'
p870
(dp871
g3
S'Major Lazer'
p872
sg5
I15
sg6
S'https://open.spotify.com/track/0fg8CqpjdojMyXLNzM2PaJ'
p873
sg8
S'Run Up (feat. PARTYNEXTDOOR & Nicki Minaj)'
p874
ssS'1mMLMZYXkMueg65jRRWG1l'
p875
(dp876
g3
S'Luke Combs'
p877
sg5
I9
sg6
S'https://open.spotify.com/track/1mMLMZYXkMueg65jRRWG1l'
p878
sg8
S'When It Rains It Pours'
p879
ssS'3HVr6jTVwBHBa2flM0eURR'
p880
(dp881
g3
S'Macklemore'
p882
sg5
I9
sg6
S'https://open.spotify.com/track/3HVr6jTVwBHBa2flM0eURR'
p883
sg8
S'Glorious (feat. Skylar Grey)'
p884
ssS'3LRoXCTQ7VvvVtzpceHt4y'
p885
(dp886
g3
S'Rick Ross'
p887
sg5
I1
sg6
S'https://open.spotify.com/track/3LRoXCTQ7VvvVtzpceHt4y'
p888
sg8
S'Dead Presidents'
p889
ssS'6uFsE1JgZ20EXyU0JQZbUR'
p890
(dp891
g3
S'Taylor Swift'
p892
sg5
I7
sg6
S'https://open.spotify.com/track/6uFsE1JgZ20EXyU0JQZbUR'
p893
sg8
S'Look What You Made Me Do'
p894
ssS'53LkLW4k4w7EOayzvx70O9'
p895
(dp896
g3
S'Logic'
p897
sg5
I1
sg6
S'https://open.spotify.com/track/53LkLW4k4w7EOayzvx70O9'
p898
sg8
S'Mos Definitely'
p899
ssS'7lxZbmtC6SkUc2yXBgDOdO'
p900
(dp901
g3
S'DJ Khaled'
p902
sg5
I1
sg6
S'https://open.spotify.com/track/7lxZbmtC6SkUc2yXBgDOdO'
p903
sg8
S'On Everything'
p904
ssS'7Fa5UNizycSms5jP3SQD3F'
p905
(dp906
g3
S'DJ Khaled'
p907
sg5
I1
sg6
S'https://open.spotify.com/track/7Fa5UNizycSms5jP3SQD3F'
p908
sg8
S'Shining'
p909
ssS'5CPqOpKSk0QcJ3dGdaWcRB'
p910
(dp911
g3
S'The xx'
p912
sg5
I1
sg6
S'https://open.spotify.com/track/5CPqOpKSk0QcJ3dGdaWcRB'
p913
sg8
S'On Hold'
p914
ssS'7DEgL4rErTwjrsxLMlUVhf'
p915
(dp916
g3
S'Jason Aldean'
p917
sg5
I1
sg6
S'https://open.spotify.com/track/7DEgL4rErTwjrsxLMlUVhf'
p918
sg8
S"Any Ol' Barstool"
p919
ssS'0URaKGzNTtzKRtsJN1RkA9'
p920
(dp921
g3
S'Big Sean'
p922
sg5
I2
sg6
S'https://open.spotify.com/track/0URaKGzNTtzKRtsJN1RkA9'
p923
sg8
S'Light'
p924
ssS'7GX5flRQZVHRAGd6B4TmDO'
p925
(dp926
g3
S'Lil Uzi Vert'
p927
sg5
I7
sg6
S'https://open.spotify.com/track/7GX5flRQZVHRAGd6B4TmDO'
p928
sg8
S'XO TOUR Llif3'
p929
ssS'3O7p9Itz8PXUoAjD2vmuM6'
p930
(dp931
g3
S'Lana Del Rey'
p932
sg5
I1
sg6
S'https://open.spotify.com/track/3O7p9Itz8PXUoAjD2vmuM6'
p933
sg8
S'Beautiful People Beautiful Problems (feat. Stevie Nicks)'
p934
ssS'4F7A0DXBrmUAkp32uenhZt'
p935
(dp936
g3
S'The Weeknd'
p937
sg5
I27
sg6
S'https://open.spotify.com/track/4F7A0DXBrmUAkp32uenhZt'
p938
sg8
S'Party Monster'
p939
ssS'5kRPPEWFJIMox5qIkQkiz5'
p940
(dp941
g3
S'Harry Styles'
p942
sg5
I5
sg6
S'https://open.spotify.com/track/5kRPPEWFJIMox5qIkQkiz5'
p943
sg8
S'Sweet Creature'
p944
ssS'0CokSRCu5hZgPxcZBaEzVE'
p945
(dp946
g3
S'Macklemore'
p947
sg5
I3
sg6
S'https://open.spotify.com/track/0CokSRCu5hZgPxcZBaEzVE'
p948
sg8
S'Glorious (feat. Skylar Grey)'
p949
ssS'1OAh8uOEOvTDqkKFsKksCi'
p950
(dp951
g3
S'DJ Khaled'
p952
sg5
I17
sg6
S'https://open.spotify.com/track/1OAh8uOEOvTDqkKFsKksCi'
p953
sg8
S'Wild Thoughts'
p954
ssS'3pXF1nA74528Edde4of9CC'
p955
(dp956
g3
S'Bryson Tiller'
p957
sg5
I41
sg6
S'https://open.spotify.com/track/3pXF1nA74528Edde4of9CC'
p958
sg8
S"Don't"
p959
ssS'2Za1AlJNvksouPPWbXpR2X'
p960
(dp961
g3
S'Macklemore'
p962
sg5
I3
sg6
S'https://open.spotify.com/track/2Za1AlJNvksouPPWbXpR2X'
p963
sg8
S'Good Old Days (feat. Kesha)'
p964
ssS'7uuBfgY1vBCalrQRyyQhqs'
p965
(dp966
g3
S'Rich Chigga'
p967
sg5
I1
sg6
S'https://open.spotify.com/track/7uuBfgY1vBCalrQRyyQhqs'
p968
sg8
S'Gospel'
p969
ssS'1WIZiOuNO3woKfdlSK2gNn'
p970
(dp971
g3
S'Kodak Black'
p972
sg5
I8
sg6
S'https://open.spotify.com/track/1WIZiOuNO3woKfdlSK2gNn'
p973
sg8
S"Transportin'"
p974
ssS'0pJPdSVti6cTM1Q6xYGmcf'
p975
(dp976
g3
S'Calvin Harris'
p977
sg5
I1
sg6
S'https://open.spotify.com/track/0pJPdSVti6cTM1Q6xYGmcf'
p978
sg8
S'Faking It'
p979
ssS'5tVA6TkbaAH9QMITTQRrNv'
p980
(dp981
g3
S'Tom Petty'
p982
sg5
I2
sg6
S'https://open.spotify.com/track/5tVA6TkbaAH9QMITTQRrNv'
p983
sg8
S"Free Fallin'"
p984
ssS'75ZvA4QfFiZvzhj2xkaWAh'
p985
(dp986
g3
S'Post Malone'
p987
sg5
I4
sg6
S'https://open.spotify.com/track/75ZvA4QfFiZvzhj2xkaWAh'
p988
sg8
S'I Fall Apart'
p989
ssS'1sTUEdVO85YU8Ymk2jeAls'
p990
(dp991
g3
S'MiC LOWRY'
p992
sg5
I4
sg6
S'https://open.spotify.com/track/1sTUEdVO85YU8Ymk2jeAls'
p993
sg8
S'Oh Lord'
p994
ssS'7BKLCZ1jbUBVqRi2FVlTVw'
p995
(dp996
g3
S'The Chainsmokers'
p997
sg5
I42
sg6
S'https://open.spotify.com/track/7BKLCZ1jbUBVqRi2FVlTVw'
p998
sg8
S'Closer'
p999
ssS'5qdaaB2RYHohGB1vglLuAf'
p1000
(dp1001
g3
S'Future'
p1002
sg5
I1
sg6
S'https://open.spotify.com/track/5qdaaB2RYHohGB1vglLuAf'
p1003
sg8
S'Lookin Exotic'
p1004
ssS'5QxqypupYWHrY8IkGCSObQ'
p1005
(dp1006
g3
S'Migos'
p1007
sg5
I1
sg6
S'https://open.spotify.com/track/5QxqypupYWHrY8IkGCSObQ'
p1008
sg8
S'All Ass'
p1009
ssS'39pS70eeDvyCAF3t8NAlVV'
p1010
(dp1011
g3
S'2 Chainz'
p1012
sg5
I18
sg6
S'https://open.spotify.com/track/39pS70eeDvyCAF3t8NAlVV'
p1013
sg8
S'Good Drank'
p1014
ssS'7hDc8b7IXETo14hHIHdnhd'
p1015
(dp1016
g3
S'Drake'
p1017
sg5
I30
sg6
S'https://open.spotify.com/track/7hDc8b7IXETo14hHIHdnhd'
p1018
sg8
S'Passionfruit'
p1019
ssS'6xHI9KjUjYT0FPtGO8Mxa1'
p1020
(dp1021
g3
S'Luke Combs'
p1022
sg5
I30
sg6
S'https://open.spotify.com/track/6xHI9KjUjYT0FPtGO8Mxa1'
p1023
sg8
S'Hurricane'
p1024
ssS'43PuMrRfbyyuz4QpZ3oAwN'
p1025
(dp1026
g3
S'Bryson Tiller'
p1027
sg5
I41
sg6
S'https://open.spotify.com/track/43PuMrRfbyyuz4QpZ3oAwN'
p1028
sg8
S'Exchange'
p1029
ssS'0Z9HQ8YvHqdeOjTwsR3cS7'
p1030
(dp1031
g3
S'Moon Taxi'
p1032
sg5
I1
sg6
S'https://open.spotify.com/track/0Z9HQ8YvHqdeOjTwsR3cS7'
p1033
sg8
S'Two High'
p1034
ssS'6ZOPiKQeibCn7fP8dncucL'
p1035
(dp1036
g3
S'Keith Urban'
p1037
sg5
I8
sg6
S'https://open.spotify.com/track/6ZOPiKQeibCn7fP8dncucL'
p1038
sg8
S"Blue Ain't Your Color"
p1039
ssS'2LTlO3NuNVN70lp2ZbVswF'
p1040
(dp1041
g3
S'Kendrick Lamar'
p1042
sg5
I8
sg6
S'https://open.spotify.com/track/2LTlO3NuNVN70lp2ZbVswF'
p1043
sg8
S'FEEL.'
p1044
ssS'2d48mamATjby7wgPjdrSOQ'
p1045
(dp1046
g3
S'Thomas Rhett'
p1047
sg5
I5
sg6
S'https://open.spotify.com/track/2d48mamATjby7wgPjdrSOQ'
p1048
sg8
S'Craving You'
p1049
ssS'59J5nzL1KniFHnU120dQzt'
p1050
(dp1051
g3
S'Playboi Carti'
p1052
sg5
I26
sg6
S'https://open.spotify.com/track/59J5nzL1KniFHnU120dQzt'
p1053
sg8
S'wokeuplikethis*'
p1054
ssS'1tlBuoIRrtqFs9bE9dmli5'
p1055
(dp1056
g3
S'Future'
p1057
sg5
I3
sg6
S'https://open.spotify.com/track/1tlBuoIRrtqFs9bE9dmli5'
p1058
sg8
S'Extra Luv'
p1059
ssS'0jx8zY5JQsS4YEQcfkoc5C'
p1060
(dp1061
g3
S'Chance The Rapper'
p1062
sg5
I3
sg6
S'https://open.spotify.com/track/0jx8zY5JQsS4YEQcfkoc5C'
p1063
sg8
S'Angels (feat. Saba)'
p1064
ssS'1eVRnmGhDPATPxz6kqWuCP'
p1065
(dp1066
g3
S'Julia Michaels'
p1067
sg5
I2
sg6
S'https://open.spotify.com/track/1eVRnmGhDPATPxz6kqWuCP'
p1068
sg8
S'Uh Huh'
p1069
ssS'6canmpFnLHVUzvVWAodifz'
p1070
(dp1071
g3
S'Kodak Black'
p1072
sg5
I12
sg6
S'https://open.spotify.com/track/6canmpFnLHVUzvVWAodifz'
p1073
sg8
S'There He Go'
p1074
ssS'2pzuU8vLaG8W1P31X65ZP9'
p1075
(dp1076
g3
S'Big Sean'
p1077
sg5
I2
sg6
S'https://open.spotify.com/track/2pzuU8vLaG8W1P31X65ZP9'
p1078
sg8
S'Voices In My Head/Stick To The Plan'
p1079
ssS'65Q2mv3UlVi9eO70OpsmSe'
p1080
(dp1081
g3
S'Burl Ives'
p1082
sg5
I1
sg6
S'https://open.spotify.com/track/65Q2mv3UlVi9eO70OpsmSe'
p1083
sg8
S'A Holly Jolly Christmas - Single Version'
p1084
ssS'0XLOf9LhyazPX9Ld8jPiUq'
p1085
(dp1086
g3
S'Selena Gomez'
p1087
sg5
I12
sg6
S'https://open.spotify.com/track/0XLOf9LhyazPX9Ld8jPiUq'
p1088
sg8
S'Fetish (feat. Gucci Mane)'
p1089
ssS'05Z7jet4VDNVgNQWcYHnrk'
p1090
(dp1091
g3
S'Chris Brown'
p1092
sg5
I21
sg6
S'https://open.spotify.com/track/05Z7jet4VDNVgNQWcYHnrk'
p1093
sg8
S'Party'
p1094
ssS'4mq14Qa6OehdiyZFtHcdCH'
p1095
(dp1096
g3
S'Lana Del Rey'
p1097
sg5
I1
sg6
S'https://open.spotify.com/track/4mq14Qa6OehdiyZFtHcdCH'
p1098
sg8
S'13 Beaches'
p1099
ssS'0kN8xEmgMW9mh7UmDYHlJP'
p1100
(dp1101
g3
S'Bruno Mars'
p1102
sg5
I5
sg6
S'https://open.spotify.com/track/0kN8xEmgMW9mh7UmDYHlJP'
p1103
sg8
S'Versace On The Floor'
p1104
ssS'1yxgsra98r3qAtxqiGZPiX'
p1105
(dp1106
g3
S'Travis Scott'
p1107
sg5
I21
sg6
S'https://open.spotify.com/track/1yxgsra98r3qAtxqiGZPiX'
p1108
sg8
S'Butterfly Effect'
p1109
ssS'7EiZI6JVHllARrX9PUvAdX'
p1110
(dp1111
g3
S'Future'
p1112
sg5
I39
sg6
S'https://open.spotify.com/track/7EiZI6JVHllARrX9PUvAdX'
p1113
sg8
S'Low Life'
p1114
ssS'550rQQCGkrTzvp4SfpOPzx'
p1115
(dp1116
g3
S'Pentatonix'
p1117
sg5
I1
sg6
S'https://open.spotify.com/track/550rQQCGkrTzvp4SfpOPzx'
p1118
sg8
S'Hallelujah'
p1119
ssS'6ZCsp2zQsSTCilvGVefGVN'
p1120
(dp1121
g3
S'Bryson Tiller'
p1122
sg5
I1
sg6
S'https://open.spotify.com/track/6ZCsp2zQsSTCilvGVefGVN'
p1123
sg8
S'High Stakes'
p1124
ssS'3xXBsjrbG1xQIm1xv1cKOt'
p1125
(dp1126
g3
S'Linkin Park'
p1127
sg5
I1
sg6
S'https://open.spotify.com/track/3xXBsjrbG1xQIm1xv1cKOt'
p1128
sg8
S'One More Light'
p1129
ssS'3A7qX2QjDlPnazUsRk5y0M'
p1130
(dp1131
g3
S'David Guetta'
p1132
sg5
I16
sg6
S'https://open.spotify.com/track/3A7qX2QjDlPnazUsRk5y0M'
p1133
sg8
S'2U (feat. Justin Bieber)'
p1134
ssS'6A8dnC0xkiuWN4BshmTB2I'
p1135
(dp1136
g3
S'A R I Z O N A'
p1137
sg5
I10
sg6
S'https://open.spotify.com/track/6A8dnC0xkiuWN4BshmTB2I'
p1138
sg8
S'Oceans Away'
p1139
ssS'0NWqNXBJTpXbkI5rPWNy3p'
p1140
(dp1141
g3
S'The Weeknd'
p1142
sg5
I5
sg6
S'https://open.spotify.com/track/0NWqNXBJTpXbkI5rPWNy3p'
p1143
sg8
S'All I Know'
p1144
ssS'2OALaHcDdKkjYEpAr0Qzab'
p1145
(dp1146
g3
S'Avicii'
p1147
sg5
I9
sg6
S'https://open.spotify.com/track/2OALaHcDdKkjYEpAr0Qzab'
p1148
sg8
S'Lonely Together (feat. Rita Ora)'
p1149
ssS'56lBX2WHqfGuoeZxZvUnVj'
p1150
(dp1151
g3
S'Imagine Dragons'
p1152
sg5
I3
sg6
S'https://open.spotify.com/track/56lBX2WHqfGuoeZxZvUnVj'
p1153
sg8
S'Thunder'
p1154
ssS'6SKYMNROdeh9V601G6pPn5'
p1155
(dp1156
g3
S'Metro Boomin'
p1157
sg5
I1
sg6
S'https://open.spotify.com/track/6SKYMNROdeh9V601G6pPn5'
p1158
sg8
S'Blue Pill'
p1159
ssS'28irpKCCK9nn9DZSik2zEx'
p1160
(dp1161
g3
S'Drake'
p1162
sg5
I4
sg6
S'https://open.spotify.com/track/28irpKCCK9nn9DZSik2zEx'
p1163
sg8
S'Glow'
p1164
ssS'5JUu0unA8VwhTZ9LkMWUVI'
p1165
(dp1166
g3
S'Drake'
p1167
sg5
I4
sg6
S'https://open.spotify.com/track/5JUu0unA8VwhTZ9LkMWUVI'
p1168
sg8
S'Since Way Back'
p1169
ssS'4IWAyPf1KMq7JCyGeCjTeH'
p1170
(dp1171
g3
S'Imagine Dragons'
p1172
sg5
I7
sg6
S'https://open.spotify.com/track/4IWAyPf1KMq7JCyGeCjTeH'
p1173
sg8
S'Whatever It Takes'
p1174
ssS'6dVZCbi9CYtD9LjAHXRjIG'
p1175
(dp1176
g3
S'Future'
p1177
sg5
I4
sg6
S'https://open.spotify.com/track/6dVZCbi9CYtD9LjAHXRjIG'
p1178
sg8
S'Mask Off - Remix'
p1179
ssS'0OVhQZkNe7lh0fQeH96EFW'
p1180
(dp1181
g3
S'Bryson Tiller'
p1182
sg5
I1
sg6
S'https://open.spotify.com/track/0OVhQZkNe7lh0fQeH96EFW'
p1183
sg8
S"Don't Get Too High"
p1184
ssS'05nbZ1xxVNwUTcGwLbp7CN'
p1185
(dp1186
g3
S'NAV'
p1187
sg5
I24
sg6
S'https://open.spotify.com/track/05nbZ1xxVNwUTcGwLbp7CN'
p1188
sg8
S'Myself'
p1189
ssS'0ZExP2I5Ej92PsnG4G1jVG'
p1190
(dp1191
g3
S'Julia Michaels'
p1192
sg5
I4
sg6
S'https://open.spotify.com/track/0ZExP2I5Ej92PsnG4G1jVG'
p1193
sg8
S'Uh Huh'
p1194
ssS'78sr3ogs4UzITcCNbXM9cM'
p1195
(dp1196
g3
S'Future'
p1197
sg5
I13
sg6
S'https://open.spotify.com/track/78sr3ogs4UzITcCNbXM9cM'
p1198
sg8
S'Used to This'
p1199
ssS'2S2od3hT7ceytw7d1pTRuE'
p1200
(dp1201
g3
S'Noah Cyrus'
p1202
sg5
I2
sg6
S'https://open.spotify.com/track/2S2od3hT7ceytw7d1pTRuE'
p1203
sg8
S'Again'
p1204
ssS'3pndPhlQWjuSoXhcIIdBjv'
p1205
(dp1206
g3
S'Russ'
p1207
sg5
I42
sg6
S'https://open.spotify.com/track/3pndPhlQWjuSoXhcIIdBjv'
p1208
sg8
S'What They Want'
p1209
ssS'0WCEaydwN65cvwaW8aqptF'
p1210
(dp1211
g3
S'Olivia Holt'
p1212
sg5
I16
sg6
S'https://open.spotify.com/track/0WCEaydwN65cvwaW8aqptF'
p1213
sg8
S'History'
p1214
ssS'7EoSDrwBPUBeBEORrpvgko'
p1215
(dp1216
g3
S'Ugly God'
p1217
sg5
I1
sg6
S'https://open.spotify.com/track/7EoSDrwBPUBeBEORrpvgko'
p1218
sg8
S'Water'
p1219
ssS'6KjbNLbRjuoa8rEq5yNA6H'
p1220
(dp1221
g3
S'The Chainsmokers'
p1222
sg5
I1
sg6
S'https://open.spotify.com/track/6KjbNLbRjuoa8rEq5yNA6H'
p1223
sg8
S'Honest'
p1224
ssS'3FiE2d325mIOc4YjkSLVJR'
p1225
(dp1226
g3
S'Ariana Grande'
p1227
sg5
I9
sg6
S'https://open.spotify.com/track/3FiE2d325mIOc4YjkSLVJR'
p1228
sg8
S'Everyday'
p1229
ssS'4EbULzyWMuFx94aoIY1MlJ'
p1230
(dp1231
g3
S'NAV'
p1232
sg5
I3
sg6
S'https://open.spotify.com/track/4EbULzyWMuFx94aoIY1MlJ'
p1233
sg8
S'A$AP Ferg'
p1234
ssS'1nxufatvWIGPPBtPACXzu8'
p1235
(dp1236
g3
S'Kesha'
p1237
sg5
I1
sg6
S'https://open.spotify.com/track/1nxufatvWIGPPBtPACXzu8'
p1238
sg8
S"Let 'Em Talk"
p1239
ssS'2hJWZvTw4QVBwC14ZNs1Ib'
p1240
(dp1241
g3
S'Lil Pump'
p1242
sg5
I1
sg6
S'https://open.spotify.com/track/2hJWZvTw4QVBwC14ZNs1Ib'
p1243
sg8
S'Flex Like Ouu'
p1244
ssS'2bjwRfXMk4uRgOD9IBYl9h'
p1245
(dp1246
g3
S'Drake'
p1247
sg5
I30
sg6
S'https://open.spotify.com/track/2bjwRfXMk4uRgOD9IBYl9h'
p1248
sg8
S'Portland'
p1249
ssS'0FuTx2s3YH1ppmtiM6l0zI'
p1250
(dp1251
g3
S'JP Cooper'
p1252
sg5
I12
sg6
S'https://open.spotify.com/track/0FuTx2s3YH1ppmtiM6l0zI'
p1253
sg8
S'September Song'
p1254
ssS'4IcwdrlHrNF7IxMMMloEBh'
p1255
(dp1256
g3
S'Future'
p1257
sg5
I1
sg6
S'https://open.spotify.com/track/4IcwdrlHrNF7IxMMMloEBh'
p1258
sg8
S'When I Was Broke'
p1259
ssS'0Zbbxnx4SGGHoIow4PpISP'
p1260
(dp1261
g3
S'Kygo'
p1262
sg5
I3
sg6
S'https://open.spotify.com/track/0Zbbxnx4SGGHoIow4PpISP'
p1263
sg8
S'Stargazing'
p1264
ssS'1QgTBfRN5m81a5K01qens6'
p1265
(dp1266
g3
S'Lil Uzi Vert'
p1267
sg5
I6
sg6
S'https://open.spotify.com/track/1QgTBfRN5m81a5K01qens6'
p1268
sg8
S'444+222'
p1269
ssS'5GFDrUTLGJix84sNhjCG0g'
p1270
(dp1271
g3
S'Amin\xc3\xa9'
p1272
sg5
I30
sg6
S'https://open.spotify.com/track/5GFDrUTLGJix84sNhjCG0g'
p1273
sg8
S'Caroline'
p1274
ssS'1HTtUBEY3tuw2btgwwI2Ja'
p1275
(dp1276
g3
S'Gucci Mane'
p1277
sg5
I8
sg6
S'https://open.spotify.com/track/1HTtUBEY3tuw2btgwwI2Ja'
p1278
sg8
S'I Get The Bag (feat. Migos)'
p1279
ssS'0azC730Exh71aQlOt9Zj3y'
p1280
(dp1281
g3
S'Calvin Harris'
p1282
sg5
I7
sg6
S'https://open.spotify.com/track/0azC730Exh71aQlOt9Zj3y'
p1283
sg8
S'This Is What You Came For'
p1284
ssS'57nQyFocXZrKvWg5ZPYSoG'
p1285
(dp1286
g3
S'Lil Uzi Vert'
p1287
sg5
I1
sg6
S'https://open.spotify.com/track/57nQyFocXZrKvWg5ZPYSoG'
p1288
sg8
S'Malfunction'
p1289
ssS'7i2DJ88J7jQ8K7zqFX2fW8'
p1290
(dp1291
g3
S'Halsey'
p1292
sg5
I16
sg6
S'https://open.spotify.com/track/7i2DJ88J7jQ8K7zqFX2fW8'
p1293
sg8
S'Now Or Never'
p1294
ssS'43ZyHQITOjhciSUUNPVRHc'
p1295
(dp1296
g3
S'Lil Pump'
p1297
sg5
I1
sg6
S'https://open.spotify.com/track/43ZyHQITOjhciSUUNPVRHc'
p1298
sg8
S'Gucci Gang'
p1299
ssS'3y9cCbnBn0zjkJa2YkOj70'
p1300
(dp1301
g3
S'Nicki Minaj'
p1302
sg5
I3
sg6
S'https://open.spotify.com/track/3y9cCbnBn0zjkJa2YkOj70'
p1303
sg8
S'Black Barbies'
p1304
ssS'3CbZJbqh43varroTwUlwSB'
p1305
(dp1306
g3
S'Lil Pump'
p1307
sg5
I6
sg6
S'https://open.spotify.com/track/3CbZJbqh43varroTwUlwSB'
p1308
sg8
S'D Rose'
p1309
ssS'5sNESr6pQfIhL3krM8CtZn'
p1310
(dp1311
g3
S'JAY Z'
p1312
sg5
I1
sg6
S'https://open.spotify.com/track/5sNESr6pQfIhL3krM8CtZn'
p1313
sg8
S'Numb / Encore'
p1314
ssS'2fXwCWkh6YG5zU1IyvQrbs'
p1315
(dp1316
g3
S'SZA'
p1317
sg5
I1
sg6
S'https://open.spotify.com/track/2fXwCWkh6YG5zU1IyvQrbs'
p1318
sg8
S'Broken Clocks'
p1319
ssS'68EMU2RD1ECNeOeJ5qAXCV'
p1320
(dp1321
g3
S'Charlie Puth'
p1322
sg5
I9
sg6
S'https://open.spotify.com/track/68EMU2RD1ECNeOeJ5qAXCV'
p1323
sg8
S"We Don't Talk Anymore (feat. Selena Gomez)"
p1324
ssS'2vaMWMPMgsWX4fwJiKmdWm'
p1325
(dp1326
g3
S'A Boogie Wit da Hoodie'
p1327
sg5
I2
sg6
S'https://open.spotify.com/track/2vaMWMPMgsWX4fwJiKmdWm'
p1328
sg8
S'Undefeated (feat. 21 Savage)'
p1329
ssS'2rUwQj4SWaP2anuGDtNpYR'
p1330
(dp1331
g3
S'Bryson Tiller'
p1332
sg5
I2
sg6
S'https://open.spotify.com/track/2rUwQj4SWaP2anuGDtNpYR'
p1333
sg8
S'Self-Made'
p1334
ssS'35tWhD29yvWwB0IDRr6zsL'
p1335
(dp1336
g3
S'Vince Staples'
p1337
sg5
I1
sg6
S'https://open.spotify.com/track/35tWhD29yvWwB0IDRr6zsL'
p1338
sg8
S'Yeah Right'
p1339
ssS'04CttTezSnv71USiiG9mIo'
p1340
(dp1341
g3
S'Hearts & Colors'
p1342
sg5
I9
sg6
S'https://open.spotify.com/track/04CttTezSnv71USiiG9mIo'
p1343
sg8
S'Lighthouse - Andrelli Remix'
p1344
ssS'5xS9hkTGfxqXyxX6wWWTt4'
p1345
(dp1346
g3
S'Tom Petty and the Heartbreakers'
p1347
sg5
I1
sg6
S'https://open.spotify.com/track/5xS9hkTGfxqXyxX6wWWTt4'
p1348
sg8
S"Mary Jane's Last Dance"
p1349
ssS'6eGMMPRVYzpssGgednRvzU'
p1350
(dp1351
g3
S'Lana Del Rey'
p1352
sg5
I1
sg6
S'https://open.spotify.com/track/6eGMMPRVYzpssGgednRvzU'
p1353
sg8
S'Cherry'
p1354
ssS'6R6ihJhRbgu7JxJKIbW57w'
p1355
(dp1356
g3
S'Frank Ocean'
p1357
sg5
I1
sg6
S'https://open.spotify.com/track/6R6ihJhRbgu7JxJKIbW57w'
p1358
sg8
S'Provider'
p1359
ssS'7Jd3almoehzurMOYuy2eIE'
p1360
(dp1361
g3
S'Kodak Black'
p1362
sg5
I1
sg6
S'https://open.spotify.com/track/7Jd3almoehzurMOYuy2eIE'
p1363
sg8
S'Built My Legacy (feat. Offset)'
p1364
ssS'1cImYkHOQMFE7AZC9aOk4y'
p1365
(dp1366
g3
S'Bobby Helms'
p1367
sg5
I1
sg6
S'https://open.spotify.com/track/1cImYkHOQMFE7AZC9aOk4y'
p1368
sg8
S'Jingle Bell Rock'
p1369
ssS'6MbH1QiphMCPTqVEVC7UYi'
p1370
(dp1371
g3
S'Drake'
p1372
sg5
I4
sg6
S'https://open.spotify.com/track/6MbH1QiphMCPTqVEVC7UYi'
p1373
sg8
S'Nothings Into Somethings'
p1374
ssS'6M0IsaUX4GNyto4niSegfI'
p1375
(dp1376
g3
S'Post Malone'
p1377
sg5
I4
sg6
S'https://open.spotify.com/track/6M0IsaUX4GNyto4niSegfI'
p1378
sg8
S'No Option'
p1379
ssS'4VuS959DSpr82t3qBqCrWG'
p1380
(dp1381
g3
S'Ed Sheeran'
p1382
sg5
I5
sg6
S'https://open.spotify.com/track/4VuS959DSpr82t3qBqCrWG'
p1383
sg8
S'Supermarket Flowers'
p1384
ssS'1jQsKN68yE94tMYml0wHMd'
p1385
(dp1386
g3
S'Big Sean'
p1387
sg5
I15
sg6
S'https://open.spotify.com/track/1jQsKN68yE94tMYml0wHMd'
p1388
sg8
S'Jump Out The Window'
p1389
ssS'0Zx8khUcEfCFK2AEoIhC92'
p1390
(dp1391
g3
S'Snakehips'
p1392
sg5
I13
sg6
S'https://open.spotify.com/track/0Zx8khUcEfCFK2AEoIhC92'
p1393
sg8
S"Don't Leave"
p1394
ssS'1crSsvtU9wZB15dIQXV2QH'
p1395
(dp1396
g3
S'John Mayer'
p1397
sg5
I1
sg6
S'https://open.spotify.com/track/1crSsvtU9wZB15dIQXV2QH'
p1398
sg8
S'Moving On and Getting Over'
p1399
ssS'0oiCeOPwm4zhwfyIpAE37y'
p1400
(dp1401
g3
S'John Mayer'
p1402
sg5
I1
sg6
S'https://open.spotify.com/track/0oiCeOPwm4zhwfyIpAE37y'
p1403
sg8
S'Love on the Weekend'
p1404
ssS'33SNO8AaciGbNaQFkxvPrW'
p1405
(dp1406
g3
S'Harry Styles'
p1407
sg5
I2
sg6
S'https://open.spotify.com/track/33SNO8AaciGbNaQFkxvPrW'
p1408
sg8
S'Kiwi'
p1409
ssS'6n3HGiq4v35D6eFOSwqYuo'
p1410
(dp1411
g3
S'Drake'
p1412
sg5
I16
sg6
S'https://open.spotify.com/track/6n3HGiq4v35D6eFOSwqYuo'
p1413
sg8
S'Teenage Fever'
p1414
ssS'4Km5HrUvYTaSUfiSGPJeQR'
p1415
(dp1416
g3
S'Migos'
p1417
sg5
I42
sg6
S'https://open.spotify.com/track/4Km5HrUvYTaSUfiSGPJeQR'
p1418
sg8
S'Bad and Boujee (feat. Lil Uzi Vert)'
p1419
ssS'61WbtB6ujkpNAsAf5LjF4b'
p1420
(dp1421
g3
S'Katy Perry'
p1422
sg5
I4
sg6
S'https://open.spotify.com/track/61WbtB6ujkpNAsAf5LjF4b'
p1423
sg8
S'Bon app\xc3\xa9tit'
p1424
ssS'2bBMODHVTXGwE2aZYfbgCt'
p1425
(dp1426
g3
S'Gorillaz'
p1427
sg5
I2
sg6
S'https://open.spotify.com/track/2bBMODHVTXGwE2aZYfbgCt'
p1428
sg8
S'Ascension (feat. Vince Staples)'
p1429
ssS'1OmcAT5Y8eg5bUPv9qJT4R'
p1430
(dp1431
g3
S'Post Malone'
p1432
sg5
I3
sg6
S'https://open.spotify.com/track/1OmcAT5Y8eg5bUPv9qJT4R'
p1433
sg8
S'rockstar'
p1434
ssS'5yuShbu70mtHXY0yLzCQLQ'
p1435
(dp1436
g3
S'Post Malone'
p1437
sg5
I42
sg6
S'https://open.spotify.com/track/5yuShbu70mtHXY0yLzCQLQ'
p1438
sg8
S'Go Flex'
p1439
ssS'193Dm5SqYy3hTSbuzxbwKc'
p1440
(dp1441
g3
S'Lorde'
p1442
sg5
I1
sg6
S'https://open.spotify.com/track/193Dm5SqYy3hTSbuzxbwKc'
p1443
sg8
S'Writer In The Dark'
p1444
ssS'3tcoEYOZUHKB3RKNByIN13'
p1445
(dp1446
g3
S'Lil Uzi Vert'
p1447
sg5
I3
sg6
S'https://open.spotify.com/track/3tcoEYOZUHKB3RKNByIN13'
p1448
sg8
S'For Real'
p1449
ssS'7aF09WaavZAmAWuUeYxlYD'
p1450
(dp1451
g3
S'OneRepublic'
p1452
sg5
I12
sg6
S'https://open.spotify.com/track/7aF09WaavZAmAWuUeYxlYD'
p1453
sg8
S'Rich Love (with Seeb)'
p1454
ssS'2XlHu0HcujBCkWMdIAvrqt'
p1455
(dp1456
g3
S'Drake'
p1457
sg5
I12
sg6
S'https://open.spotify.com/track/2XlHu0HcujBCkWMdIAvrqt'
p1458
sg8
S'Blem'
p1459
ssS'3Jrs7cC2OJNlNSy9VnDOMZ'
p1460
(dp1461
g3
S'Bryson Tiller'
p1462
sg5
I2
sg6
S'https://open.spotify.com/track/3Jrs7cC2OJNlNSy9VnDOMZ'
p1463
sg8
S'Somethin Tells Me'
p1464
ssS'3Lfiu5sZ4M4B6JaKMBc0FU'
p1465
(dp1466
g3
S'Ed Sheeran'
p1467
sg5
I5
sg6
S'https://open.spotify.com/track/3Lfiu5sZ4M4B6JaKMBc0FU'
p1468
sg8
S'Barcelona'
p1469
ssS'5f5r2N4Lp9WoULWPH9zp2W'
p1470
(dp1471
g3
S'Drake'
p1472
sg5
I5
sg6
S'https://open.spotify.com/track/5f5r2N4Lp9WoULWPH9zp2W'
p1473
sg8
S"Can't Have Everything"
p1474
ssS'2INqEk4ko5AsGVLBsiKiQe'
p1475
(dp1476
g3
S'Smokepurpp'
p1477
sg5
I2
sg6
S'https://open.spotify.com/track/2INqEk4ko5AsGVLBsiKiQe'
p1478
sg8
S'Audi.'
p1479
ssS'0WyFpxYlBCgH1gMXd26OOr'
p1480
(dp1481
g3
S'Cole Swindell'
p1482
sg5
I2
sg6
S'https://open.spotify.com/track/0WyFpxYlBCgH1gMXd26OOr'
p1483
sg8
S'Flatliner (feat. Dierks Bentley)'
p1484
ssS'0rGipWrGwAnZsaVkyiJpap'
p1485
(dp1486
g3
S'Kodak Black'
p1487
sg5
I1
sg6
S'https://open.spotify.com/track/0rGipWrGwAnZsaVkyiJpap'
p1488
sg8
S'Day For Day'
p1489
ssS'3hRZsdTF5uyGA2uhNqEuhm'
p1490
(dp1491
g3
S'Niall Horan'
p1492
sg5
I4
sg6
S'https://open.spotify.com/track/3hRZsdTF5uyGA2uhNqEuhm'
p1493
sg8
S'Too Much To Ask'
p1494
ssS'5hYTyyh2odQKphUbMqc5gN'
p1495
(dp1496
g3
S'Alessia Cara'
p1497
sg5
I32
sg6
S'https://open.spotify.com/track/5hYTyyh2odQKphUbMqc5gN'
p1498
sg8
S"How Far I'll Go - From Moana"
p1499
ssS'1u8c2t2Cy7UBoG4ArRcF5g'
p1500
(dp1501
g3
S'Taylor Swift'
p1502
sg5
I1
sg6
S'https://open.spotify.com/track/1u8c2t2Cy7UBoG4ArRcF5g'
p1503
sg8
S'Blank Space'
p1504
ssS'72jbDTw1piOOj770jWNeaG'
p1505
(dp1506
g3
S'The Chainsmokers'
p1507
sg5
I32
sg6
S'https://open.spotify.com/track/72jbDTw1piOOj770jWNeaG'
p1508
sg8
S'Paris'
p1509
ssS'12REd1n8PeiHHWOh066tpr'
p1510
(dp1511
g3
S'Flume'
p1512
sg5
I9
sg6
S'https://open.spotify.com/track/12REd1n8PeiHHWOh066tpr'
p1513
sg8
S'Never Be Like You'
p1514
ssS'2Yimo750CLgO2mDPPndSK6'
p1515
(dp1516
g3
S'Future'
p1517
sg5
I1
sg6
S'https://open.spotify.com/track/2Yimo750CLgO2mDPPndSK6'
p1518
sg8
S'Massage In My Room'
p1519
ssS'3vWxQ6wOfMr8zH1u7pVFI6'
p1520
(dp1521
g3
S'Trippie Redd'
p1522
sg5
I1
sg6
S'https://open.spotify.com/track/3vWxQ6wOfMr8zH1u7pVFI6'
p1523
sg8
S'Bust Down'
p1524
ssS'4sxLB4ibrNZko2Y9wHfwZ3'
p1525
(dp1526
g3
S'Bryson Tiller'
p1527
sg5
I1
sg6
S'https://open.spotify.com/track/4sxLB4ibrNZko2Y9wHfwZ3'
p1528
sg8
S'Get Mine'
p1529
ssS'4scpF6J5uMBvoh6sFB7EL1'
p1530
(dp1531
g3
S'Rae Sremmurd'
p1532
sg5
I6
sg6
S'https://open.spotify.com/track/4scpF6J5uMBvoh6sFB7EL1'
p1533
sg8
S'No Type'
p1534
ssS'2rb5MvYT7ZIxbKW5hfcHx8'
p1535
(dp1536
g3
S'J Balvin'
p1537
sg5
I15
sg6
S'https://open.spotify.com/track/2rb5MvYT7ZIxbKW5hfcHx8'
p1538
sg8
S'Mi Gente'
p1539
ssS'7sO0dVFCfixpLshm4daMH3'
p1540
(dp1541
g3
S'Migos'
p1542
sg5
I2
sg6
S'https://open.spotify.com/track/7sO0dVFCfixpLshm4daMH3'
p1543
sg8
S'What The Price'
p1544
ssS'4eqne0oIdt9GW2ubiliny0'
p1545
(dp1546
g3
S'Judy Garland'
p1547
sg5
I1
sg6
S'https://open.spotify.com/track/4eqne0oIdt9GW2ubiliny0'
p1548
sg8
S'Have Yourself A Merry Little Christmas - Meet Me In St. Louis Original Cast Recording'
p1549
ssS'12o6dxWGk29uIAP3OWY0pM'
p1550
(dp1551
g3
S'Lorde'
p1552
sg5
I5
sg6
S'https://open.spotify.com/track/12o6dxWGk29uIAP3OWY0pM'
p1553
sg8
S'Homemade Dynamite'
p1554
ssS'14nAQy3fHVzDb7LKxpS7Ld'
p1555
(dp1556
g3
S'Lil Uzi Vert'
p1557
sg5
I2
sg6
S'https://open.spotify.com/track/14nAQy3fHVzDb7LKxpS7Ld'
p1558
sg8
S'Pretty Mami'
p1559
ssS'25oOaleife6E2MIKmFkPvg'
p1560
(dp1561
g3
S'Young Thug'
p1562
sg5
I17
sg6
S'https://open.spotify.com/track/25oOaleife6E2MIKmFkPvg'
p1563
sg8
S'Relationship (feat. Future)'
p1564
ssS'4oLuMvGQ4WJfU2s4OM6nfE'
p1565
(dp1566
g3
S'Migos'
p1567
sg5
I2
sg6
S'https://open.spotify.com/track/4oLuMvGQ4WJfU2s4OM6nfE'
p1568
sg8
S'Culture (feat. DJ Khaled)'
p1569
ssS'6p8NuHm8uCGnn2Dtbtf7zE'
p1570
(dp1571
g3
S'Migos'
p1572
sg5
I37
sg6
S'https://open.spotify.com/track/6p8NuHm8uCGnn2Dtbtf7zE'
p1573
sg8
S'Slippery (feat. Gucci Mane)'
p1574
ssS'2KvHC9z14GSl4YpkNMX384'
p1575
(dp1576
g3
S'Drake'
p1577
sg5
I16
sg6
S'https://open.spotify.com/track/2KvHC9z14GSl4YpkNMX384'
p1578
sg8
S'Do Not Disturb'
p1579
ssS'7bTwYGhBdSQ8vuXc76Xint'
p1580
(dp1581
g3
S'The Lumineers'
p1582
sg5
I6
sg6
S'https://open.spotify.com/track/7bTwYGhBdSQ8vuXc76Xint'
p1583
sg8
S'Ophelia'
p1584
ssS'248OFOZef6ShXv6DGgbnxU'
p1585
(dp1586
g3
S'Khalid'
p1587
sg5
I32
sg6
S'https://open.spotify.com/track/248OFOZef6ShXv6DGgbnxU'
p1588
sg8
S'Saved'
p1589
ssS'77lGafvlU68CeHgB2pkHC9'
p1590
(dp1591
g3
S'Machine Gun Kelly'
p1592
sg5
I10
sg6
S'https://open.spotify.com/track/77lGafvlU68CeHgB2pkHC9'
p1593
sg8
S'At My Best (feat. Hailee Steinfeld)'
p1594
ssS'0dA2Mk56wEzDgegdC6R17g'
p1595
(dp1596
g3
S'Zedd'
p1597
sg5
I33
sg6
S'https://open.spotify.com/track/0dA2Mk56wEzDgegdC6R17g'
p1598
sg8
S'Stay (with Alessia Cara)'
p1599
ssS'6OQea06z3cbOqYgG2O6eOZ'
p1600
(dp1601
g3
S'Logic'
p1602
sg5
I2
sg6
S'https://open.spotify.com/track/6OQea06z3cbOqYgG2O6eOZ'
p1603
sg8
S'Killing Spree'
p1604
ssS'7xVLFuuYdAvcTfcP3IG3dS'
p1605
(dp1606
g3
S'A$AP Ferg'
p1607
sg5
I1
sg6
S'https://open.spotify.com/track/7xVLFuuYdAvcTfcP3IG3dS'
p1608
sg8
S'Work REMIX'
p1609
ssS'3Ytr1SUCUi6J3L9dRFx5iH'
p1610
(dp1611
g3
S'Major Lazer'
p1612
sg5
I14
sg6
S'https://open.spotify.com/track/3Ytr1SUCUi6J3L9dRFx5iH'
p1613
sg8
S'Know No Better (feat. Quavo)'
p1614
ssS'25wStx3LyTjYmHTd3RDu0t'
p1615
(dp1616
g3
S'Ty Dolla $ign'
p1617
sg5
I1
sg6
S'https://open.spotify.com/track/25wStx3LyTjYmHTd3RDu0t'
p1618
sg8
S'Ex (feat. YG)'
p1619
ssS'4QeBlVCl2KzUEcQZiuskRd'
p1620
(dp1621
g3
S'NexXthursday'
p1622
sg5
I4
sg6
S'https://open.spotify.com/track/4QeBlVCl2KzUEcQZiuskRd'
p1623
sg8
S'Sway (feat. Quavo & Lil Yachty)'
p1624
ssS'1sl5tSzfK1JrcQIcA8rYDy'
p1625
(dp1626
g3
S'Grey'
p1627
sg5
I4
sg6
S'https://open.spotify.com/track/1sl5tSzfK1JrcQIcA8rYDy'
p1628
sg8
S'I Miss You'
p1629
ssS'1HOUzEsetdIPSpAgRPhZQt'
p1630
(dp1631
g3
S'Trey Songz'
p1632
sg5
I8
sg6
S'https://open.spotify.com/track/1HOUzEsetdIPSpAgRPhZQt'
p1633
sg8
S'Nobody Else But You'
p1634
ssS'1gb6riq7CCP5clGpSD0XPH'
p1635
(dp1636
g3
S'Future'
p1637
sg5
I3
sg6
S'https://open.spotify.com/track/1gb6riq7CCP5clGpSD0XPH'
p1638
sg8
S'Sorry'
p1639
ssS'269xqcgGTN9PlivhUkOLhX'
p1640
(dp1641
g3
S'Lana Del Rey'
p1642
sg5
I1
sg6
S'https://open.spotify.com/track/269xqcgGTN9PlivhUkOLhX'
p1643
sg8
S'In My Feelings'
p1644
ssS'0bXFIF7iL17TYLyx8JHziM'
p1645
(dp1646
g3
S'Kodak Black'
p1647
sg5
I24
sg6
S'https://open.spotify.com/track/0bXFIF7iL17TYLyx8JHziM'
p1648
sg8
S'Patty Cake'
p1649
ssS'7nZmah2llfvLDiUjm0kiyz'
p1650
(dp1651
g3
S'Justin Bieber'
p1652
sg5
I8
sg6
S'https://open.spotify.com/track/7nZmah2llfvLDiUjm0kiyz'
p1653
sg8
S'Friends (with BloodPop\xc2\xae)'
p1654
ssS'13HVjjWUZFaWilh2QUJKsP'
p1655
(dp1656
g3
S'James Bay'
p1657
sg5
I6
sg6
S'https://open.spotify.com/track/13HVjjWUZFaWilh2QUJKsP'
p1658
sg8
S'Let It Go'
p1659
ssS'0y9uTzK9cNKSAEHnpeRG8C'
p1660
(dp1661
g3
S'Kendrick Lamar'
p1662
sg5
I6
sg6
S'https://open.spotify.com/track/0y9uTzK9cNKSAEHnpeRG8C'
p1663
sg8
S'DUCKWORTH.'
p1664
ssS'2vQwlW8H1jFveGNXwZfJCV'
p1665
(dp1666
g3
S'XXXTENTACION'
p1667
sg5
I3
sg6
S'https://open.spotify.com/track/2vQwlW8H1jFveGNXwZfJCV'
p1668
sg8
S'Dead Inside (Interlude)'
p1669
ssS'3eFJqPe8VUYrABbFjSauuj'
p1670
(dp1671
g3
S''
p1672
sg5
I1
sg6
S'https://open.spotify.com/track/3eFJqPe8VUYrABbFjSauuj'
p1673
sg8
g1672
ssS'7zFXmv6vqI4qOt4yGf3jYZ'
p1674
(dp1675
g3
S'Daniel Caesar'
p1676
sg5
I1
sg6
S'https://open.spotify.com/track/7zFXmv6vqI4qOt4yGf3jYZ'
p1677
sg8
S'Get You (feat. Kali Uchis)'
p1678
ssS'2KlDzyTJVmOlH1sVTuPcSF'
p1679
(dp1680
g3
S'Gucci Mane'
p1681
sg5
I1
sg6
S'https://open.spotify.com/track/2KlDzyTJVmOlH1sVTuPcSF'
p1682
sg8
S'Make Love'
p1683
ssS'6CvTbrBxxc5jFwqsivhpxh'
p1684
(dp1685
g3
S'Logic'
p1686
sg5
I1
sg6
S'https://open.spotify.com/track/6CvTbrBxxc5jFwqsivhpxh'
p1687
sg8
S'Anziety'
p1688
ssS'4pdgV8qr9Oytcv6thCdiIZ'
p1689
(dp1690
g3
S'A$AP Mob'
p1691
sg5
I4
sg6
S'https://open.spotify.com/track/4pdgV8qr9Oytcv6thCdiIZ'
p1692
sg8
S'RAF'
p1693
ssS'7fwXWKdDNI5IutOMc5OKYw'
p1694
(dp1695
g3
S'J Balvin'
p1696
sg5
I2
sg6
S'https://open.spotify.com/track/7fwXWKdDNI5IutOMc5OKYw'
p1697
sg8
S'Mi Gente (feat. Beyonc\xc3\xa9)'
p1698
ssS'7of1slAJIWrXxP8ikAHxje'
p1699
(dp1700
g3
S'James Hersey'
p1701
sg5
I2
sg6
S'https://open.spotify.com/track/7of1slAJIWrXxP8ikAHxje'
p1702
sg8
S'Miss You'
p1703
ssS'1c5Lbn9mYwNYbnNiizw6D0'
p1704
(dp1705
g3
S'Lil Pump'
p1706
sg5
I1
sg6
S'https://open.spotify.com/track/1c5Lbn9mYwNYbnNiizw6D0'
p1707
sg8
S'Iced Out (feat. 2 Chainz)'
p1708
ssS'1Uq3IOIy1CUlHUgP6vWpum'
p1709
(dp1710
g3
S'Chance The Rapper'
p1711
sg5
I3
sg6
S'https://open.spotify.com/track/1Uq3IOIy1CUlHUgP6vWpum'
p1712
sg8
S'Smoke Break (feat. Future)'
p1713
ssS'2dfHh7ECGxfNqZTQno09Vk'
p1714
(dp1715
g3
S'Ed Sheeran'
p1716
sg5
I4
sg6
S'https://open.spotify.com/track/2dfHh7ECGxfNqZTQno09Vk'
p1717
sg8
S"Hearts Don't Break Around Here"
p1718
ssS'06u5LrUpbosQlQ1QJFhPpG'
p1719
(dp1720
g3
S'SZA'
p1721
sg5
I1
sg6
S'https://open.spotify.com/track/06u5LrUpbosQlQ1QJFhPpG'
p1722
sg8
S'Drew Barrymore'
p1723
ssS'3UjJP4ludb74a29P5EHEIo'
p1724
(dp1725
g3
S'Sabrina Carpenter'
p1726
sg5
I10
sg6
S'https://open.spotify.com/track/3UjJP4ludb74a29P5EHEIo'
p1727
sg8
S'Thumbs'
p1728
ssS'76Y0gxtTxN0FyDCYh5qYQj'
p1729
(dp1730
g3
S'Migos'
p1731
sg5
I29
sg6
S'https://open.spotify.com/track/76Y0gxtTxN0FyDCYh5qYQj'
p1732
sg8
S'Get Right Witcha'
p1733
ssS'3V6c2SccJOuAez9YbpALf8'
p1734
(dp1735
g3
S'DRAM'
p1736
sg5
I1
sg6
S'https://open.spotify.com/track/3V6c2SccJOuAez9YbpALf8'
p1737
sg8
S'Ill Nana (feat. Trippie Redd)'
p1738
ssS'1oQQ5pf4hft7C3s75B8fXb'
p1739
(dp1740
g3
S'Bryson Tiller'
p1741
sg5
I1
sg6
S'https://open.spotify.com/track/1oQQ5pf4hft7C3s75B8fXb'
p1742
sg8
S'Set It Off'
p1743
ssS'542Xd5qDeLBvgXZXhfW7LE'
p1744
(dp1745
g3
S'Vice'
p1746
sg5
I1
sg6
S'https://open.spotify.com/track/542Xd5qDeLBvgXZXhfW7LE'
p1747
sg8
S'Obsession (feat. Jon Bellion)'
p1748
ssS'5HtziFfFGxXpugCqZaAHoY'
p1749
(dp1750
g3
S'Gucci Mane'
p1751
sg5
I1
sg6
S'https://open.spotify.com/track/5HtziFfFGxXpugCqZaAHoY'
p1752
sg8
S'Both Eyes Closed (feat. 2 Chainz and Young Dolph)'
p1753
ssS'6pRoE3RdW4w1Fjd8epVWjZ'
p1754
(dp1755
g3
S'Future'
p1756
sg5
I2
sg6
S'https://open.spotify.com/track/6pRoE3RdW4w1Fjd8epVWjZ'
p1757
sg8
S'Use Me'
p1758
ssS'0jOfl1nZf6sVBTG08Q4brn'
p1759
(dp1760
g3
S'Migos'
p1761
sg5
I7
sg6
S'https://open.spotify.com/track/0jOfl1nZf6sVBTG08Q4brn'
p1762
sg8
S'Call Casting'
p1763
ssS'7l9CE3wmEGOUYw1j4ETjnL'
p1764
(dp1765
g3
S'Gorillaz'
p1766
sg5
I2
sg6
S'https://open.spotify.com/track/7l9CE3wmEGOUYw1j4ETjnL'
p1767
sg8
S'Saturnz Barz (feat. Popcaan)'
p1768
ssS'343YBumqHu19cGoGARUTsd'
p1769
(dp1770
g3
S'Drake'
p1771
sg5
I42
sg6
S'https://open.spotify.com/track/343YBumqHu19cGoGARUTsd'
p1772
sg8
S'Fake Love'
p1773
ssS'5HDPtsnyb3maFmPL8LLUTG'
p1774
(dp1775
g3
S'Ed Sheeran'
p1776
sg5
I5
sg6
S'https://open.spotify.com/track/5HDPtsnyb3maFmPL8LLUTG'
p1777
sg8
S'New Man'
p1778
ssS'6DLSa36zH0cSTO7bWCCxx0'
p1779
(dp1780
g3
S'21 Savage'
p1781
sg5
I1
sg6
S'https://open.spotify.com/track/6DLSa36zH0cSTO7bWCCxx0'
p1782
sg8
S'Nothin New'
p1783
ssS'299lFlaAsNQdgbIZNPmIA0'
p1784
(dp1785
g3
S'Vince Guaraldi Trio'
p1786
sg5
I1
sg6
S'https://open.spotify.com/track/299lFlaAsNQdgbIZNPmIA0'
p1787
sg8
S'Christmas Time Is Here - Vocal'
p1788
ssS'6rdEEYHsLavlklAypD5cre'
p1789
(dp1790
g3
S'Tom Petty'
p1791
sg5
I1
sg6
S'https://open.spotify.com/track/6rdEEYHsLavlklAypD5cre'
p1792
sg8
S"Runnin' Down A Dream"
p1793
ssS'6WbADFqMvR8N5u0BvtsWQE'
p1794
(dp1795
g3
S'Avicii'
p1796
sg5
I8
sg6
S'https://open.spotify.com/track/6WbADFqMvR8N5u0BvtsWQE'
p1797
sg8
S'Without You (feat. Sandro Cavazza)'
p1798
ssS'5uDASfU19gDxSjW8cnCaBp'
p1799
(dp1800
g3
S'Rob $tone'
p1801
sg5
I34
sg6
S'https://open.spotify.com/track/5uDASfU19gDxSjW8cnCaBp'
p1802
sg8
S'Chill Bill'
p1803
ssS'4pdPtRcBmOSQDlJ3Fk945m'
p1804
(dp1805
g3
S'DJ Snake'
p1806
sg5
I23
sg6
S'https://open.spotify.com/track/4pdPtRcBmOSQDlJ3Fk945m'
p1807
sg8
S'Let Me Love You'
p1808
ssS'5EnYT6F7wEcdege6mDHEfO'
p1809
(dp1810
g3
S'Drake'
p1811
sg5
I14
sg6
S'https://open.spotify.com/track/5EnYT6F7wEcdege6mDHEfO'
p1812
sg8
S'Signs'
p1813
ssS'1uoL9GX45dTnmrWQ7Ii1Ft'
p1814
(dp1815
g3
S'Halsey'
p1816
sg5
I1
sg6
S'https://open.spotify.com/track/1uoL9GX45dTnmrWQ7Ii1Ft'
p1817
sg8
S'Not Afraid Anymore'
p1818
ssS'0q5DrtpnnGpOvBy5nnPMbe'
p1819
(dp1820
g3
S'A Boogie Wit da Hoodie'
p1821
sg5
I12
sg6
S'https://open.spotify.com/track/0q5DrtpnnGpOvBy5nnPMbe'
p1822
sg8
S'Timeless (DJ SPINKING)'
p1823
ssS'6H0AwSQ20mo62jGlPGB8S6'
p1824
(dp1825
g3
S'2 Chainz'
p1826
sg5
I24
sg6
S'https://open.spotify.com/track/6H0AwSQ20mo62jGlPGB8S6'
p1827
sg8
S"It's A Vibe"
p1828
ssS'1OAiWI2oPmglaOiv9fdioU'
p1829
(dp1830
g3
S'Coldplay'
p1831
sg5
I1
sg6
S'https://open.spotify.com/track/1OAiWI2oPmglaOiv9fdioU'
p1832
sg8
S'Hymn For The Weekend - Seeb Remix'
p1833
ssS'7LEydI5NfjY6mZfKwYIptZ'
p1834
(dp1835
g3
S'Fifth Harmony'
p1836
sg5
I12
sg6
S'https://open.spotify.com/track/7LEydI5NfjY6mZfKwYIptZ'
p1837
sg8
S'Down'
p1838
ssS'7y9iMe8SOB6z3NoHE2OfXl'
p1839
(dp1840
g3
S'Halsey'
p1841
sg5
I9
sg6
S'https://open.spotify.com/track/7y9iMe8SOB6z3NoHE2OfXl'
p1842
sg8
S'Bad At Love'
p1843
ssS'2Na0z2gfN67Rzf0vp74Wi3'
p1844
(dp1845
g3
S'Drake'
p1846
sg5
I4
sg6
S'https://open.spotify.com/track/2Na0z2gfN67Rzf0vp74Wi3'
p1847
sg8
S'Lose You'
p1848
ssS'2RCp9QBnFSxdKe8RD4xF8s'
p1849
(dp1850
g3
S'Gorillaz'
p1851
sg5
I1
sg6
S'https://open.spotify.com/track/2RCp9QBnFSxdKe8RD4xF8s'
p1852
sg8
S'Momentz (feat. De La Soul)'
p1853
ssS'23TxRN09aR1RB0G0tFoT0b'
p1854
(dp1855
g3
S'Little Big Town'
p1856
sg5
I1
sg6
S'https://open.spotify.com/track/23TxRN09aR1RB0G0tFoT0b'
p1857
sg8
S'Better Man'
p1858
ssS'5O8x1YlmLQopQHErxtDfi9'
p1859
(dp1860
g3
S'Lil Uzi Vert'
p1861
sg5
I4
sg6
S'https://open.spotify.com/track/5O8x1YlmLQopQHErxtDfi9'
p1862
sg8
S'UnFazed (feat. The Weeknd)'
p1863
ssS'0o7glLPfZgns8ZF14Wlpf7'
p1864
(dp1865
g3
S'Kelly Clarkson'
p1866
sg5
I1
sg6
S'https://open.spotify.com/track/0o7glLPfZgns8ZF14Wlpf7'
p1867
sg8
S'Love So Soft'
p1868
ssS'2jYmK1cb3Uya6FFsocdpzO'
p1869
(dp1870
g3
S'Sabrina Carpenter'
p1871
sg5
I10
sg6
S'https://open.spotify.com/track/2jYmK1cb3Uya6FFsocdpzO'
p1872
sg8
S'Why'
p1873
ssS'0wJJhRgdHhT93Z3iWdMB0T'
p1874
(dp1875
g3
S'Kesha'
p1876
sg5
I1
sg6
S'https://open.spotify.com/track/0wJJhRgdHhT93Z3iWdMB0T'
p1877
sg8
S'Hymn'
p1878
ssS'5OOkp4U9P9oL23maHFHL1h'
p1879
(dp1880
g3
S'Desiigner'
p1881
sg5
I29
sg6
S'https://open.spotify.com/track/5OOkp4U9P9oL23maHFHL1h'
p1882
sg8
S'Panda'
p1883
ssS'3qmvK8QARSPkFTuKeIXSbs'
p1884
(dp1885
g3
S'Linkin Park'
p1886
sg5
I1
sg6
S'https://open.spotify.com/track/3qmvK8QARSPkFTuKeIXSbs'
p1887
sg8
S'Bleed It Out'
p1888
ssS'7y6c07pgjZvtHI9kuMVqk1'
p1889
(dp1890
g3
S'Drake'
p1891
sg5
I8
sg6
S'https://open.spotify.com/track/7y6c07pgjZvtHI9kuMVqk1'
p1892
sg8
S'Get It Together'
p1893
ssS'49zD0wr2S3d0lZPib0K4e1'
p1894
(dp1895
g3
S'Future'
p1896
sg5
I2
sg6
S'https://open.spotify.com/track/49zD0wr2S3d0lZPib0K4e1'
p1897
sg8
S'F*ck Up Some Commas'
p1898
ssS'3pJkBPHadRAxBBo484RipI'
p1899
(dp1900
g3
S'Thomas Rhett'
p1901
sg5
I1
sg6
S'https://open.spotify.com/track/3pJkBPHadRAxBBo484RipI'
p1902
sg8
S'Sixteen'
p1903
ssS'4ckuS4Nj4FZ7i3Def3Br8W'
p1904
(dp1905
g3
S'Drake'
p1906
sg5
I15
sg6
S'https://open.spotify.com/track/4ckuS4Nj4FZ7i3Def3Br8W'
p1907
sg8
S'Sneakin\xe2\x80\x99'
p1908
ssS'5RCfvwDewu6p2x1mEI6smX'
p1909
(dp1910
g3
S'Tay-K'
p1911
sg5
I9
sg6
S'https://open.spotify.com/track/5RCfvwDewu6p2x1mEI6smX'
p1912
sg8
S'The Race'
p1913
ssS'1Qxj5nxpN2zXWYngetSiRi'
p1914
(dp1915
g3
S'2 Chainz'
p1916
sg5
I1
sg6
S'https://open.spotify.com/track/1Qxj5nxpN2zXWYngetSiRi'
p1917
sg8
S'OG Kush Diet'
p1918
ssS'7zBPzAjKAqQpcv8F8GCq5s'
p1919
(dp1920
g3
S'MadeinTYO'
p1921
sg5
I1
sg6
S'https://open.spotify.com/track/7zBPzAjKAqQpcv8F8GCq5s'
p1922
sg8
S'Uber Everywhere'
p1923
ssS'7floNISpH8VF4z4459Qo18'
p1924
(dp1925
g3
S'XXXTENTACION'
p1926
sg5
I2
sg6
S'https://open.spotify.com/track/7floNISpH8VF4z4459Qo18'
p1927
sg8
S'Look At Me!'
p1928
ssS'5oyUurs28XRagLa8lgm6V3'
p1929
(dp1930
g3
S'DJ Esco'
p1931
sg5
I8
sg6
S'https://open.spotify.com/track/5oyUurs28XRagLa8lgm6V3'
p1932
sg8
S'Too Much Sauce'
p1933
ssS'79cuOz3SPQTuFrp8WgftAu'
p1934
(dp1935
g3
S'Shawn Mendes'
p1936
sg5
I25
sg6
S'https://open.spotify.com/track/79cuOz3SPQTuFrp8WgftAu'
p1937
sg8
S"There's Nothing Holdin' Me Back"
p1938
ssS'4c2W3VKsOFoIg2SFaO6DY5'
p1939
(dp1940
g3
S'Rita Ora'
p1941
sg5
I16
sg6
S'https://open.spotify.com/track/4c2W3VKsOFoIg2SFaO6DY5'
p1942
sg8
S'Your Song'
p1943
ssS'4ARPvK8DHLwt4oX65ZAFMw'
p1944
(dp1945
g3
S'XXXTENTACION'
p1946
sg5
I31
sg6
S'https://open.spotify.com/track/4ARPvK8DHLwt4oX65ZAFMw'
p1947
sg8
S'Look At Me!'
p1948
ssS'5tFep7dXGd7vEJ668wTPux'
p1949
(dp1950
g3
S'Gucci Mane'
p1951
sg5
I33
sg6
S'https://open.spotify.com/track/5tFep7dXGd7vEJ668wTPux'
p1952
sg8
S'Both (feat. Drake)'
p1953
ssS'1PouCui4RgDYcrQVAqdYuf'
p1954
(dp1955
g3
S'Sam Hunt'
p1956
sg5
I1
sg6
S'https://open.spotify.com/track/1PouCui4RgDYcrQVAqdYuf'
p1957
sg8
S"Drinkin' Too Much"
p1958
ssS'0ESJlaM8CE1jRWaNtwSNj8'
p1959
(dp1960
g3
S'Travis Scott'
p1961
sg5
I40
sg6
S'https://open.spotify.com/track/0ESJlaM8CE1jRWaNtwSNj8'
p1962
sg8
S'beibs in the trap'
p1963
ssS'0PJIbOdMs3bd5AT8liULMQ'
p1964
(dp1965
g3
S'Jeremih'
p1966
sg5
I8
sg6
S'https://open.spotify.com/track/0PJIbOdMs3bd5AT8liULMQ'
p1967
sg8
S'oui'
p1968
ssS'3eR23VReFzcdmS7TYCrhCe'
p1969
(dp1970
g3
S'Kygo'
p1971
sg5
I33
sg6
S'https://open.spotify.com/track/3eR23VReFzcdmS7TYCrhCe'
p1972
sg8
S"It Ain't Me (with Selena Gomez)"
p1973
ssS'5J5PXmMdQ2nh1lZOal8KmK'
p1974
(dp1975
g3
S'Meek Mill'
p1976
sg5
I12
sg6
S'https://open.spotify.com/track/5J5PXmMdQ2nh1lZOal8KmK'
p1977
sg8
S'Litty (feat. Tory Lanez)'
p1978
ssS'5wihevBA7MO9PNYyWyTfkh'
p1979
(dp1980
g3
S'Migos'
p1981
sg5
I3
sg6
S'https://open.spotify.com/track/5wihevBA7MO9PNYyWyTfkh'
p1982
sg8
S'Brown Paper Bag'
p1983
ssS'3LnOF5n1GOs01siYZXzS3p'
p1984
(dp1985
g3
S'A Boogie Wit da Hoodie'
p1986
sg5
I3
sg6
S'https://open.spotify.com/track/3LnOF5n1GOs01siYZXzS3p'
p1987
sg8
S'Drowning (feat. Kodak Black)'
p1988
ssS'6jA8HL9i4QGzsj6fjoxp8Y'
p1989
(dp1990
g3
S'Martin Garrix'
p1991
sg5
I15
sg6
S'https://open.spotify.com/track/6jA8HL9i4QGzsj6fjoxp8Y'
p1992
sg8
S'There for You'
p1993
ssS'732btJLGu7gYNHHNdzshrG'
p1994
(dp1995
g3
S'Logic'
p1996
sg5
I1
sg6
S'https://open.spotify.com/track/732btJLGu7gYNHHNdzshrG'
p1997
sg8
S'Ink Blot'
p1998
ssS'2nYwV62UABTH0NanrwVIdQ'
p1999
(dp2000
g3
S'Rae Sremmurd'
p2001
sg5
I10
sg6
S'https://open.spotify.com/track/2nYwV62UABTH0NanrwVIdQ'
p2002
sg8
S'Perplexing Pegasus'
p2003
ssS'1KT0xdIjm7t053xByACrrg'
p2004
(dp2005
g3
S'Ariana Grande'
p2006
sg5
I1
sg6
S'https://open.spotify.com/track/1KT0xdIjm7t053xByACrrg'
p2007
sg8
S'\xe7\xbe\x8e\xe5\xa5\xb3\xe3\x81\xa8\xe9\x87\x8e\xe7\x8d\xa3'
p2008
ssS'32lgtADX2cB9I4KFs1Y1py'
p2009
(dp2010
g3
S'The Weeknd'
p2011
sg5
I4
sg6
S'https://open.spotify.com/track/32lgtADX2cB9I4KFs1Y1py'
p2012
sg8
S'False Alarm'
p2013
ssS'1wIQtB3UQ1TfjNMZZqO6eh'
p2014
(dp2015
g3
S'J. Cole'
p2016
sg5
I2
sg6
S'https://open.spotify.com/track/1wIQtB3UQ1TfjNMZZqO6eh'
p2017
sg8
S'everybody dies'
p2018
ssS'1BECwm5qkaBwlbfo4kpYx8'
p2019
(dp2020
g3
S'Panic! At The Disco'
p2021
sg5
I12
sg6
S'https://open.spotify.com/track/1BECwm5qkaBwlbfo4kpYx8'
p2022
sg8
S'Death Of A Bachelor'
p2023
ssS'11EDhDAVDtGPoSar6ootYA'
p2024
(dp2025
g3
S'Halsey'
p2026
sg5
I2
sg6
S'https://open.spotify.com/track/11EDhDAVDtGPoSar6ootYA'
p2027
sg8
S'Strangers'
p2028
ssS'2oUuLLKS8WbF7ELJcwbqms'
p2029
(dp2030
g3
S'XXXTENTACION'
p2031
sg5
I5
sg6
S'https://open.spotify.com/track/2oUuLLKS8WbF7ELJcwbqms'
p2032
sg8
S'Look at Me!'
p2033
ssS'3Te3gG6MPEDNqLGzWrjKC3'
p2034
(dp2035
g3
S'The Weeknd'
p2036
sg5
I1
sg6
S'https://open.spotify.com/track/3Te3gG6MPEDNqLGzWrjKC3'
p2037
sg8
S'Nothing Without You'
p2038
ssS'6GeD5g9vZTz25Egf8kxoIY'
p2039
(dp2040
g3
S'The Chainsmokers'
p2041
sg5
I1
sg6
S'https://open.spotify.com/track/6GeD5g9vZTz25Egf8kxoIY'
p2042
sg8
S'Last Day Alive'
p2043
ssS'6RFGykMl5wP1gMPccCY9oB'
p2044
(dp2045
g3
S'Gucci Mane'
p2046
sg5
I1
sg6
S'https://open.spotify.com/track/6RFGykMl5wP1gMPccCY9oB'
p2047
sg8
S'Dance With The Devil'
p2048
ssS'5YYjsDIxJKpVgNLkPpBmRA'
p2049
(dp2050
g3
S'Desiigner'
p2051
sg5
I3
sg6
S'https://open.spotify.com/track/5YYjsDIxJKpVgNLkPpBmRA'
p2052
sg8
S'Up'
p2053
ssS'4HW5kSQ8M2IQWZhSxERvla'
p2054
(dp2055
g3
S'Amin\xc3\xa9'
p2056
sg5
I1
sg6
S'https://open.spotify.com/track/4HW5kSQ8M2IQWZhSxERvla'
p2057
sg8
S'Spice Girl'
p2058
ssS'7BpYWzZwrsljT1eIjb0TqR'
p2059
(dp2060
g3
S'Paramore'
p2061
sg5
I1
sg6
S'https://open.spotify.com/track/7BpYWzZwrsljT1eIjb0TqR'
p2062
sg8
S'Told You So'
p2063
ssS'4aWmUDTfIPGksMNLV2rQP2'
p2064
(dp2065
g3
S'Luis Fonsi'
p2066
sg5
I38
sg6
S'https://open.spotify.com/track/4aWmUDTfIPGksMNLV2rQP2'
p2067
sg8
S'Despacito (Featuring Daddy Yankee)'
p2068
ssS'2YK01AIIWuywG24gsbuizE'
p2069
(dp2070
g3
S'Post Malone'
p2071
sg5
I4
sg6
S'https://open.spotify.com/track/2YK01AIIWuywG24gsbuizE'
p2072
sg8
S'Congratulations - Remix'
p2073
ssS'35QZaWQRkmnAVqBF1TLCxQ'
p2074
(dp2075
g3
S'Ed Sheeran'
p2076
sg5
I4
sg6
S'https://open.spotify.com/track/35QZaWQRkmnAVqBF1TLCxQ'
p2077
sg8
S'Nancy Mulligan'
p2078
ssS'60APt5N2NRaKWf5xzJdzyC'
p2079
(dp2080
g3
S'Calvin Harris'
p2081
sg5
I6
sg6
S'https://open.spotify.com/track/60APt5N2NRaKWf5xzJdzyC'
p2082
sg8
S'Heatstroke'
p2083
ssS'1fEl5TPKRJAsuP6TqZ23hB'
p2084
(dp2085
g3
S'Lil Pump'
p2086
sg5
I1
sg6
S'https://open.spotify.com/track/1fEl5TPKRJAsuP6TqZ23hB'
p2087
sg8
S'D Rose'
p2088
ssS'25C5CowdsfXld2jJanbiex'
p2089
(dp2090
g3
S'Demi Lovato'
p2091
sg5
I12
sg6
S'https://open.spotify.com/track/25C5CowdsfXld2jJanbiex'
p2092
sg8
S'Sorry Not Sorry'
p2093
ssS'2Z8WuEywRWYTKe1NybPQEW'
p2094
(dp2095
g3
S'Twenty One Pilots'
p2096
sg5
I28
sg6
S'https://open.spotify.com/track/2Z8WuEywRWYTKe1NybPQEW'
p2097
sg8
S'Ride'
p2098
ssS'0B8QzDH7YWih85V5SEMnyJ'
p2099
(dp2100
g3
S'Lil Uzi Vert'
p2101
sg5
I42
sg6
S'https://open.spotify.com/track/0B8QzDH7YWih85V5SEMnyJ'
p2102
sg8
S'Money Longer'
p2103
ssS'52okn5MNA47tk87PeZJLEL'
p2104
(dp2105
g3
S'NF'
p2106
sg5
I1
sg6
S'https://open.spotify.com/track/52okn5MNA47tk87PeZJLEL'
p2107
sg8
S'Let You Down'
p2108
ssS'4WfjYOo0JxommRm1PyObJl'
p2109
(dp2110
g3
S'J. Cole'
p2111
sg5
I2
sg6
S'https://open.spotify.com/track/4WfjYOo0JxommRm1PyObJl'
p2112
sg8
S'High For Hours'
p2113
ssS'6JV2JOEocMgcZxYSZelKcc'
p2114
(dp2115
g3
S'Justin Timberlake'
p2116
sg5
I30
sg6
S'https://open.spotify.com/track/6JV2JOEocMgcZxYSZelKcc'
p2117
sg8
S"CAN'T STOP THE FEELING! (Original Song from DreamWorks Animation's TROLLS)"
p2118
ssS'05KOgYg8PGeJyyWBPi5ja8'
p2119
(dp2120
g3
S'Drake'
p2121
sg5
I13
sg6
S'https://open.spotify.com/track/05KOgYg8PGeJyyWBPi5ja8'
p2122
sg8
S'Free Smoke'
p2123
ssS'5bgwqaRSS3M8WHWruHgSL5'
p2124
(dp2125
g3
S'Khalid'
p2126
sg5
I15
sg6
S'https://open.spotify.com/track/5bgwqaRSS3M8WHWruHgSL5'
p2127
sg8
S'8TEEN'
p2128
ssS'1vvnYpYEMVB4aq9I6tHIEB'
p2129
(dp2130
g3
S'J. Cole'
p2131
sg5
I4
sg6
S'https://open.spotify.com/track/1vvnYpYEMVB4aq9I6tHIEB'
p2132
sg8
S'4 Your Eyez Only'
p2133
ssS'7aV2mflaASUmGhCErm7kBO'
p2134
(dp2135
g3
S'Nevada'
p2136
sg5
I3
sg6
S'https://open.spotify.com/track/7aV2mflaASUmGhCErm7kBO'
p2137
sg8
S'The Mack'
p2138
ssS'0bYg9bo50gSsH3LtXe2SQn'
p2139
(dp2140
g3
S'Mariah Carey'
p2141
sg5
I1
sg6
S'https://open.spotify.com/track/0bYg9bo50gSsH3LtXe2SQn'
p2142
sg8
S'All I Want for Christmas Is You'
p2143
ssS'4at9j7aC7FvDlsllpOvsAC'
p2144
(dp2145
g3
S'Lil Pump'
p2146
sg5
I1
sg6
S'https://open.spotify.com/track/4at9j7aC7FvDlsllpOvsAC'
p2147
sg8
S"What U Sayin' (feat. Smokepurpp)"
p2148
ssS'3WNx4pJLzQgYapuBWS4mUG'
p2149
(dp2150
g3
S'Tory Lanez'
p2151
sg5
I1
sg6
S'https://open.spotify.com/track/3WNx4pJLzQgYapuBWS4mUG'
p2152
sg8
S'Shooters'
p2153
ssS'6sDQ4uiWw9OdVrCXFLSlZt'
p2154
(dp2155
g3
S'Eminem'
p2156
sg5
I5
sg6
S'https://open.spotify.com/track/6sDQ4uiWw9OdVrCXFLSlZt'
p2157
sg8
S'Rap God'
p2158
ssS'1wHZx0LgzFHyeIZkUydNXq'
p2159
(dp2160
g3
S'Travis Scott'
p2161
sg5
I9
sg6
S'https://open.spotify.com/track/1wHZx0LgzFHyeIZkUydNXq'
p2162
sg8
S'Antidote'
p2163
ssS'3rOSwuTsUlJp0Pu0MkN8r8'
p2164
(dp2165
g3
S'Future'
p2166
sg5
I34
sg6
S'https://open.spotify.com/track/3rOSwuTsUlJp0Pu0MkN8r8'
p2167
sg8
S'Mask Off'
p2168
ssS'4Dbn05LNVX5giGbgbz5fdQ'
p2169
(dp2170
g3
S'Migos'
p2171
sg5
I1
sg6
S'https://open.spotify.com/track/4Dbn05LNVX5giGbgbz5fdQ'
p2172
sg8
S'Out Yo Way'
p2173
ssS'0G149jkGWKwrPXUGkEDgWM'
p2174
(dp2175
g3
S'21 Savage'
p2176
sg5
I11
sg6
S'https://open.spotify.com/track/0G149jkGWKwrPXUGkEDgWM'
p2177
sg8
S'Numb'
p2178
ssS'1qOLh0tI7trd1zdDKxYZTe'
p2179
(dp2180
g3
S'Hailee Steinfeld'
p2181
sg5
I35
sg6
S'https://open.spotify.com/track/1qOLh0tI7trd1zdDKxYZTe'
p2182
sg8
S'Starving'
p2183
ssS'0cqRj7pUJDkTCEsJkx8snD'
p2184
(dp2185
g3
S'Taylor Swift'
p2186
sg5
I1
sg6
S'https://open.spotify.com/track/0cqRj7pUJDkTCEsJkx8snD'
p2187
sg8
S'Shake It Off'
p2188
ssS'4KaIJ1FWXUoAAnOts1YWjD'
p2189
(dp2190
g3
S'Calvin Harris'
p2191
sg5
I1
sg6
S'https://open.spotify.com/track/4KaIJ1FWXUoAAnOts1YWjD'
p2192
sg8
S'Prayers Up'
p2193
ssS'7inXu0Eaeg02VsM8kHNvzM'
p2194
(dp2195
g3
S'Frank Sinatra'
p2196
sg5
I1
sg6
S'https://open.spotify.com/track/7inXu0Eaeg02VsM8kHNvzM'
p2197
sg8
S'Let It Snow! Let It Snow! Let It Snow!'
p2198
ssS'6c7D34787LOtPm8tzhsLgH'
p2199
(dp2200
g3
S'Yo Gotti'
p2201
sg5
I14
sg6
S'https://open.spotify.com/track/6c7D34787LOtPm8tzhsLgH'
p2202
sg8
S'Rake It Up'
p2203
ssS'1cG0umU5TKStygKsPFZ9pY'
p2204
(dp2205
g3
S'Robin Schulz'
p2206
sg5
I11
sg6
S'https://open.spotify.com/track/1cG0umU5TKStygKsPFZ9pY'
p2207
sg8
S'Shed a Light'
p2208
ssS'6520aj0B4FSKGVuKNsOCOi'
p2209
(dp2210
g3
S'Katy Perry'
p2211
sg5
I15
sg6
S'https://open.spotify.com/track/6520aj0B4FSKGVuKNsOCOi'
p2212
sg8
S'Chained To The Rhythm'
p2213
ssS'4q8PHoRsPUB52LFylX8Ulz'
p2214
(dp2215
g3
S'Axwell /\\ Ingrosso'
p2216
sg5
I8
sg6
S'https://open.spotify.com/track/4q8PHoRsPUB52LFylX8Ulz'
p2217
sg8
S'More Than You Know'
p2218
ssS'6EpRaXYhGOB3fj4V2uDkMJ'
p2219
(dp2220
g3
S'Liam Payne'
p2221
sg5
I21
sg6
S'https://open.spotify.com/track/6EpRaXYhGOB3fj4V2uDkMJ'
p2222
sg8
S'Strip That Down'
p2223
ssS'6HL9fQAZ5jwajChlEIqVzf'
p2224
(dp2225
g3
S'Wale'
p2226
sg5
I2
sg6
S'https://open.spotify.com/track/6HL9fQAZ5jwajChlEIqVzf'
p2227
sg8
S'Colombia Heights (Te Llamo) [feat. J Balvin]'
p2228
ssS'4AFgK4wP1iD5i8BYaLr9Vf'
p2229
(dp2230
g3
S'Future'
p2231
sg5
I2
sg6
S'https://open.spotify.com/track/4AFgK4wP1iD5i8BYaLr9Vf'
p2232
sg8
S'You Da Baddest'
p2233
ssS'1r0faljjM2b876iNoaDUh5'
p2234
(dp2235
g3
S'Big Sean'
p2236
sg5
I5
sg6
S'https://open.spotify.com/track/1r0faljjM2b876iNoaDUh5'
p2237
sg8
S'Sacrifices'
p2238
ssS'1wjzFQodRWrPcQ0AnYnvQ9'
p2239
(dp2240
g3
S'Lauv'
p2241
sg5
I19
sg6
S'https://open.spotify.com/track/1wjzFQodRWrPcQ0AnYnvQ9'
p2242
sg8
S'I Like Me Better'
p2243
ssS'2Cth0v1xri32oZ799rL3rl'
p2244
(dp2245
g3
S'Tyga'
p2246
sg5
I1
sg6
S'https://open.spotify.com/track/2Cth0v1xri32oZ799rL3rl'
p2247
sg8
S'Feel Me'
p2248
ssS'03hqMhmCZiNKMSPmVabPLP'
p2249
(dp2250
g3
S'Lana Del Rey'
p2251
sg5
I1
sg6
S'https://open.spotify.com/track/03hqMhmCZiNKMSPmVabPLP'
p2252
sg8
S'Groupie Love (feat. A$AP Rocky)'
p2253
ssS'2YMhrXQYKkm4kXLcXKKd5z'
p2254
(dp2255
g3
S'Dustin Lynch'
p2256
sg5
I5
sg6
S'https://open.spotify.com/track/2YMhrXQYKkm4kXLcXKKd5z'
p2257
sg8
S'Small Town Boy'
p2258
ssS'0utlOiJy2weVl9WTkcEWHy'
p2259
(dp2260
g3
S'J. Cole'
p2261
sg5
I40
sg6
S'https://open.spotify.com/track/0utlOiJy2weVl9WTkcEWHy'
p2262
sg8
S'Neighbors'
p2263
ssS'3GVkPk8mqxz0itaAriG1L7'
p2264
(dp2265
g3
S'XXXTENTACION'
p2266
sg5
I7
sg6
S'https://open.spotify.com/track/3GVkPk8mqxz0itaAriG1L7'
p2267
sg8
S'Everybody Dies In Their Nightmares'
p2268
ssS'67dyMPOUsbZ9Yg06PnfAAh'
p2269
(dp2270
g3
S'Future'
p2271
sg5
I8
sg6
S'https://open.spotify.com/track/67dyMPOUsbZ9Yg06PnfAAh'
p2272
sg8
S'Draco'
p2273
ssS'2XMTqoHHSH0lvuXrvIEdco'
p2274
(dp2275
g3
S'FRENSHIP'
p2276
sg5
I7
sg6
S'https://open.spotify.com/track/2XMTqoHHSH0lvuXrvIEdco'
p2277
sg8
S'Capsize'
p2278
ssS'5MFzQMkrl1FOOng9tq6R9r'
p2279
(dp2280
g3
S'Maroon 5'
p2281
sg5
I17
sg6
S'https://open.spotify.com/track/5MFzQMkrl1FOOng9tq6R9r'
p2282
sg8
S"Don't Wanna Know"
p2283
ssS'5Z3GHaZ6ec9bsiI5BenrbY'
p2284
(dp2285
g3
S'Khalid'
p2286
sg5
I27
sg6
S'https://open.spotify.com/track/5Z3GHaZ6ec9bsiI5BenrbY'
p2287
sg8
S'Young Dumb & Broke'
p2288
ssS'3FDrI0FLKzrYQiWxPhqV2W'
p2289
(dp2290
g3
S'Calvin Harris'
p2291
sg5
I4
sg6
S'https://open.spotify.com/track/3FDrI0FLKzrYQiWxPhqV2W'
p2292
sg8
S'Rollin'
p2293
ssS'35k5ePiDMMdacA7jIF9RFY'
p2294
(dp2295
g3
S'Big Sean'
p2296
sg5
I1
sg6
S'https://open.spotify.com/track/35k5ePiDMMdacA7jIF9RFY'
p2297
sg8
S'Intro'
p2298
ssS'3CyICSGQGqUaFeYvMJgpnt'
p2299
(dp2300
g3
S'Future'
p2301
sg5
I2
sg6
S'https://open.spotify.com/track/3CyICSGQGqUaFeYvMJgpnt'
p2302
sg8
S'High Demand'
p2303
ssS'72OGJT4cL9BQjHTa8h28tz'
p2304
(dp2305
g3
S'Fall Out Boy'
p2306
sg5
I1
sg6
S'https://open.spotify.com/track/72OGJT4cL9BQjHTa8h28tz'
p2307
sg8
S'Young And Menace'
p2308
ssS'5XQMr19TL7Mfksq9zihbOu'
p2309
(dp2310
g3
S'Chris Brown'
p2311
sg5
I8
sg6
S'https://open.spotify.com/track/5XQMr19TL7Mfksq9zihbOu'
p2312
sg8
S'Questions'
p2313
ssS'6eT7xZZlB2mwyzJ2sUKG6w'
p2314
(dp2315
g3
S'Post Malone'
p2316
sg5
I42
sg6
S'https://open.spotify.com/track/6eT7xZZlB2mwyzJ2sUKG6w'
p2317
sg8
S'White Iverson'
p2318
ssS'1tp1xMJ1uaOktksskS0Fzs'
p2319
(dp2320
g3
S'Gucci Mane'
p2321
sg5
I4
sg6
S'https://open.spotify.com/track/1tp1xMJ1uaOktksskS0Fzs'
p2322
sg8
S'Curve (feat. The Weeknd)'
p2323
ssS'51PIvodunv6NmX5250zxAh'
p2324
(dp2325
g3
S'Lady Gaga'
p2326
sg5
I14
sg6
S'https://open.spotify.com/track/51PIvodunv6NmX5250zxAh'
p2327
sg8
S'The Cure'
p2328
ssS'58kwvMXeOlsvzPqUlyj75Y'
p2329
(dp2330
g3
S'Logic'
p2331
sg5
I1
sg6
S'https://open.spotify.com/track/58kwvMXeOlsvzPqUlyj75Y'
p2332
sg8
S'Confess'
p2333
ssS'0v9Wz8o0BT8DU38R4ddjeH'
p2334
(dp2335
g3
S'Chance The Rapper'
p2336
sg5
I42
sg6
S'https://open.spotify.com/track/0v9Wz8o0BT8DU38R4ddjeH'
p2337
sg8
S'No Problem (feat. Lil Wayne & 2 Chainz)'
p2338
ssS'0IqKeD8ZSP72KbGYyzEcAs'
p2339
(dp2340
g3
S'Hozier'
p2341
sg5
I1
sg6
S'https://open.spotify.com/track/0IqKeD8ZSP72KbGYyzEcAs'
p2342
sg8
S'Take Me To Church'
p2343
ssS'33bURv895AN4FkBvgFo2dx'
p2344
(dp2345
g3
S'Harry Styles'
p2346
sg5
I2
sg6
S'https://open.spotify.com/track/33bURv895AN4FkBvgFo2dx'
p2347
sg8
S'Woman'
p2348
ssS'5QqyRUZeBE04yJxsD1OC0I'
p2349
(dp2350
g3
S'Lana Del Rey'
p2351
sg5
I2
sg6
S'https://open.spotify.com/track/5QqyRUZeBE04yJxsD1OC0I'
p2352
sg8
S'Summer Bummer (feat. A$AP Rocky & Playboi Carti)'
p2353
ssS'2jTujnt0y344ai1rNOywgr'
p2354
(dp2355
g3
S'Drake'
p2356
sg5
I7
sg6
S'https://open.spotify.com/track/2jTujnt0y344ai1rNOywgr'
p2357
sg8
S'KMT'
p2358
ssS'3uFmweGlFudKNiX13XFwFm'
p2359
(dp2360
g3
S'Lil Pump'
p2361
sg5
I1
sg6
S'https://open.spotify.com/track/3uFmweGlFudKNiX13XFwFm'
p2362
sg8
S'Molly'
p2363
ssS'6gBFPUFcJLzWGx4lenP6h2'
p2364
(dp2365
g3
S'Travis Scott'
p2366
sg5
I42
sg6
S'https://open.spotify.com/track/6gBFPUFcJLzWGx4lenP6h2'
p2367
sg8
S'goosebumps'
p2368
ssS'7zgqtptZvhf8GEmdsM2vp2'
p2369
(dp2370
g3
S'Taylor Swift'
p2371
sg5
I1
sg6
S'https://open.spotify.com/track/7zgqtptZvhf8GEmdsM2vp2'
p2372
sg8
S'...Ready For It?'
p2373
ssS'6DB2KOEwHnjkgEnBt5SdeJ'
p2374
(dp2375
g3
S'Future'
p2376
sg5
I4
sg6
S'https://open.spotify.com/track/6DB2KOEwHnjkgEnBt5SdeJ'
p2377
sg8
S'Mask Off - Remix'
p2378
ssS'0ro5QCkSCtbfhMHnvMase3'
p2379
(dp2380
g3
S'Lil Uzi Vert'
p2381
sg5
I1
sg6
S'https://open.spotify.com/track/0ro5QCkSCtbfhMHnvMase3'
p2382
sg8
S'How To Talk'
p2383
ssS'7AQim7LbvFVZJE3O8TYgf2'
p2384
(dp2385
g3
S'XXXTENTACION'
p2386
sg5
I7
sg6
S'https://open.spotify.com/track/7AQim7LbvFVZJE3O8TYgf2'
p2387
sg8
S'Fuck Love (feat. Trippie Redd)'
p2388
ssS'2C0KFbb4v9CNWR5c9jWcKC'
p2389
(dp2390
g3
S'Gorillaz'
p2391
sg5
I2
sg6
S'https://open.spotify.com/track/2C0KFbb4v9CNWR5c9jWcKC'
p2392
sg8
S'Andromeda (feat. DRAM)'
p2393
ssS'3yaq0WhtGS0Y6r7vDkw4lc'
p2394
(dp2395
g3
S'Future'
p2396
sg5
I1
sg6
S'https://open.spotify.com/track/3yaq0WhtGS0Y6r7vDkw4lc'
p2397
sg8
S'Good Dope'
p2398
ssS'0Nhu3zSYbEz32IYiobV75e'
p2399
(dp2400
g3
S'Halsey'
p2401
sg5
I10
sg6
S'https://open.spotify.com/track/0Nhu3zSYbEz32IYiobV75e'
p2402
sg8
S'Now Or Never'
p2403
ssS'6eUncuJutsFi9BGO1JaBHh'
p2404
(dp2405
g3
S'Jason Derulo'
p2406
sg5
I3
sg6
S'https://open.spotify.com/track/6eUncuJutsFi9BGO1JaBHh'
p2407
sg8
S"If I'm Lucky"
p2408
ssS'3VCYe6mCXebBgcfzaxCVNI'
p2409
(dp2410
g3
S'Gucci Mane'
p2411
sg5
I7
sg6
S'https://open.spotify.com/track/3VCYe6mCXebBgcfzaxCVNI'
p2412
sg8
S'Both (feat. Drake & Lil Wayne) - Remix'
p2413
ssS'31MkGwj0SWgZaTvEt5Hgxv'
p2414
(dp2415
g3
S'P!nk'
p2416
sg5
I9
sg6
S'https://open.spotify.com/track/31MkGwj0SWgZaTvEt5Hgxv'
p2417
sg8
S'What About Us'
p2418
ssS'0PDUDa38GO8lMxLCRc4lL1'
p2419
(dp2420
g3
S'ZAYN'
p2421
sg5
I5
sg6
S'https://open.spotify.com/track/0PDUDa38GO8lMxLCRc4lL1'
p2422
sg8
S'PILLOWTALK'
p2423
ssS'43jBqV3j3Xi1g6wO0bhIMd'
p2424
(dp2425
g3
S'Sage The Gemini'
p2426
sg5
I10
sg6
S'https://open.spotify.com/track/43jBqV3j3Xi1g6wO0bhIMd'
p2427
sg8
S'Now and Later'
p2428
ssS'49VzL5oBsUICN7U34T98b9'
p2429
(dp2430
g3
S'Roy Woods'
p2431
sg5
I1
sg6
S'https://open.spotify.com/track/49VzL5oBsUICN7U34T98b9'
p2432
sg8
S'Instinct (feat. MadeinTYO)'
p2433
ssS'44n97yHySt0Z9rqPaXgjCK'
p2434
(dp2435
g3
S'Halsey'
p2436
sg5
I1
sg6
S'https://open.spotify.com/track/44n97yHySt0Z9rqPaXgjCK'
p2437
sg8
S'Sorry'
p2438
ssS'7y06b4wdIvUa5mEiEClTA3'
p2439
(dp2440
g3
S'Future'
p2441
sg5
I1
sg6
S'https://open.spotify.com/track/7y06b4wdIvUa5mEiEClTA3'
p2442
sg8
S'Damage'
p2443
ssS'1e1JKLEDKP7hEQzJfNAgPl'
p2444
(dp2445
g3
S'Playboi Carti'
p2446
sg5
I25
sg6
S'https://open.spotify.com/track/1e1JKLEDKP7hEQzJfNAgPl'
p2447
sg8
S'Magnolia'
p2448
ssS'5q4BpnMrYEFzLO0dYODj6J'
p2449
(dp2450
g3
S'Lorde'
p2451
sg5
I1
sg6
S'https://open.spotify.com/track/5q4BpnMrYEFzLO0dYODj6J'
p2452
sg8
S'The Louvre'
p2453
ssS'7fRfIvHPH6bHdMDjPFwTMh'
p2454
(dp2455
g3
S'Logic'
p2456
sg5
I1
sg6
S'https://open.spotify.com/track/7fRfIvHPH6bHdMDjPFwTMh'
p2457
sg8
S'Hallelujah'
p2458
ssS'6E39QsoWB7JjphPF9xCQSN'
p2459
(dp2460
g3
S'Desiigner'
p2461
sg5
I5
sg6
S'https://open.spotify.com/track/6E39QsoWB7JjphPF9xCQSN'
p2462
sg8
S'Outlet'
p2463
ssS'2ClE3QfsNx9p0zjPKxmUYq'
p2464
(dp2465
g3
S'DJ Khaled'
p2466
sg5
I1
sg6
S'https://open.spotify.com/track/2ClE3QfsNx9p0zjPKxmUYq'
p2467
sg8
S'Iced Out My Arms'
p2468
ssS'1U3XdjHLA6TgpVEGTikNcp'
p2469
(dp2470
g3
S'21 Savage'
p2471
sg5
I1
sg6
S'https://open.spotify.com/track/1U3XdjHLA6TgpVEGTikNcp'
p2472
sg8
S'7 Min Freestyle'
p2473
ssS'0rlFL6bxIWcCn9gk9GExFA'
p2474
(dp2475
g3
S'Ty Dolla $ign'
p2476
sg5
I1
sg6
S'https://open.spotify.com/track/0rlFL6bxIWcCn9gk9GExFA'
p2477
sg8
S'Love U Better (feat. Lil Wayne & The-Dream)'
p2478
ssS'3kxfsdsCpFgN412fpnW85Y'
p2479
(dp2480
g3
S'Childish Gambino'
p2481
sg5
I42
sg6
S'https://open.spotify.com/track/3kxfsdsCpFgN412fpnW85Y'
p2482
sg8
S'Redbone'
p2483
ssS'5hTpBe8h35rJ67eAWHQsJx'
p2484
(dp2485
g3
S'Amin\xc3\xa9'
p2486
sg5
I12
sg6
S'https://open.spotify.com/track/5hTpBe8h35rJ67eAWHQsJx'
p2487
sg8
S'Caroline'
p2488
ssS'0iTCmKvuU1ReULiQB0rI7n'
p2489
(dp2490
g3
S'Gucci Mane'
p2491
sg5
I8
sg6
S'https://open.spotify.com/track/0iTCmKvuU1ReULiQB0rI7n'
p2492
sg8
S'Tone it Down (feat. Chris Brown)'
p2493
ssS'19HA9J80qZfIkAnp2g8N2S'
p2494
(dp2495
g3
S'21 Savage'
p2496
sg5
I2
sg6
S'https://open.spotify.com/track/19HA9J80qZfIkAnp2g8N2S'
p2497
sg8
S'Famous'
p2498
ssS'1KeZgPUr54C8iz3FjqzVoz'
p2499
(dp2500
g3
S'The Chainsmokers'
p2501
sg5
I1
sg6
S'https://open.spotify.com/track/1KeZgPUr54C8iz3FjqzVoz'
p2502
sg8
S'Young'
p2503
ssS'4sPmO7WMQUAf45kwMOtONw'
p2504
(dp2505
g3
S'Adele'
p2506
sg5
I2
sg6
S'https://open.spotify.com/track/4sPmO7WMQUAf45kwMOtONw'
p2507
sg8
S'Hello'
p2508
ssS'0Ws8D3EWUDgY962Xftb0h5'
p2509
(dp2510
g3
S'Calvin Harris'
p2511
sg5
I1
sg6
S'https://open.spotify.com/track/0Ws8D3EWUDgY962Xftb0h5'
p2512
sg8
S'Cash Out'
p2513
ssS'76lgcpdPtw5hHu3A6LuGZe'
p2514
(dp2515
g3
S'Dustin Lynch'
p2516
sg5
I4
sg6
S'https://open.spotify.com/track/76lgcpdPtw5hHu3A6LuGZe'
p2517
sg8
S'Small Town Boy'
p2518
ssS'3tuyK9qfen7lPMji9Saw3d'
p2519
(dp2520
g3
S'Bryson Tiller'
p2521
sg5
I1
sg6
S'https://open.spotify.com/track/3tuyK9qfen7lPMji9Saw3d'
p2522
sg8
S'We Both Know'
p2523
ssS'3IJPE9ICRq5PxVZxdv1sEv'
p2524
(dp2525
g3
S'Future'
p2526
sg5
I2
sg6
S'https://open.spotify.com/track/3IJPE9ICRq5PxVZxdv1sEv'
p2527
sg8
S'Incredible'
p2528
ssS'6BaCraQ9xeLYg4Sb9TBT2X'
p2529
(dp2530
g3
S'Calvin Harris'
p2531
sg5
I1
sg6
S'https://open.spotify.com/track/6BaCraQ9xeLYg4Sb9TBT2X'
p2532
sg8
S'Feels'
p2533
ssS'1AH60dMaEfNjzDoUIFwIQi'
p2534
(dp2535
g3
S'A Boogie Wit da Hoodie'
p2536
sg5
I2
sg6
S'https://open.spotify.com/track/1AH60dMaEfNjzDoUIFwIQi'
p2537
sg8
S'Beast Mode (feat. PnB Rock & YoungBoy Never Broke Again)'
p2538
ssS'3Q3myFA7q4Op95DOpHplaY'
p2539
(dp2540
g3
S'blackbear'
p2541
sg5
I24
sg6
S'https://open.spotify.com/track/3Q3myFA7q4Op95DOpHplaY'
p2542
sg8
S'do re mi'
p2543
ssS'7sLDnUauivS2vN6Z9EfUJT'
p2544
(dp2545
g3
S'Meek Mill'
p2546
sg5
I2
sg6
S'https://open.spotify.com/track/7sLDnUauivS2vN6Z9EfUJT'
p2547
sg8
S'1942 Flows'
p2548
ssS'16Ah4QqH4mgYVXqfC4mdSd'
p2549
(dp2550
g3
S'Tory Lanez'
p2551
sg5
I1
sg6
S'https://open.spotify.com/track/16Ah4QqH4mgYVXqfC4mdSd'
p2552
sg8
S'LUV'
p2553
ssS'6Knv6wdA0luoMUuuoYi2i1'
p2554
(dp2555
g3
S'Flo Rida'
p2556
sg5
I1
sg6
S'https://open.spotify.com/track/6Knv6wdA0luoMUuuoYi2i1'
p2557
sg8
S'My House'
p2558
ssS'3JWh19WsndEFg0UFRFeTiU'
p2559
(dp2560
g3
S'NAV'
p2561
sg5
I1
sg6
S'https://open.spotify.com/track/3JWh19WsndEFg0UFRFeTiU'
p2562
sg8
S'Minute'
p2563
ssS'2O1qYJTA2BI5ypFFqEZhh4'
p2564
(dp2565
g3
S'Lil Uzi Vert'
p2566
sg5
I1
sg6
S'https://open.spotify.com/track/2O1qYJTA2BI5ypFFqEZhh4'
p2567
sg8
S'Early 20 Rager'
p2568
ssS'3T7dNA7O8c3Axj5WyDNcH3'
p2569
(dp2570
g3
S'Brenda Lee'
p2571
sg5
I1
sg6
S'https://open.spotify.com/track/3T7dNA7O8c3Axj5WyDNcH3'
p2572
sg8
S"Rockin' Around The Christmas Tree - Single Version"
p2573
ssS'5q5gzmbBS5yQzos2BvVr1t'
p2574
(dp2575
g3
S'M\xc3\x98'
p2576
sg5
I9
sg6
S'https://open.spotify.com/track/5q5gzmbBS5yQzos2BvVr1t'
p2577
sg8
S'Nights With You'
p2578
ssS'3DXncPQOG4VBw3QHh3S817'
p2579
(dp2580
g3
S'DJ Khaled'
p2581
sg5
I20
sg6
S'https://open.spotify.com/track/3DXncPQOG4VBw3QHh3S817'
p2582
sg8
S"I'm the One"
p2583
ssS'5Lbsc65org0b85kNsPkluY'
p2584
(dp2585
g3
S'Harry Styles'
p2586
sg5
I1
sg6
S'https://open.spotify.com/track/5Lbsc65org0b85kNsPkluY'
p2587
sg8
S'Only Angel'
p2588
ssS'6mapJIPnQ23RTAevUoE0DL'
p2589
(dp2590
g3
S'Rae Sremmurd'
p2591
sg5
I42
sg6
S'https://open.spotify.com/track/6mapJIPnQ23RTAevUoE0DL'
p2592
sg8
S'Swang'
p2593
ssS'6mORGLOz79w6VsCRLWYYuK'
p2594
(dp2595
g3
S'Lord Huron'
p2596
sg5
I24
sg6
S'https://open.spotify.com/track/6mORGLOz79w6VsCRLWYYuK'
p2597
sg8
S'The Night We Met'
p2598
ssS'30MM5jWpUmOxtTNd9Ey5LZ'
p2599
(dp2600
g3
S'Thomas Rhett'
p2601
sg5
I5
sg6
S'https://open.spotify.com/track/30MM5jWpUmOxtTNd9Ey5LZ'
p2602
sg8
S'Unforgettable'
p2603
ssS'5aAx2yezTd8zXrkmtKl66Z'
p2604
(dp2605
g3
S'The Weeknd'
p2606
sg5
I42
sg6
S'https://open.spotify.com/track/5aAx2yezTd8zXrkmtKl66Z'
p2607
sg8
S'Starboy'
p2608
ssS'2BrzlUj1u1CtvaJDGIKpsP'
p2609
(dp2610
g3
S'Noah Cyrus'
p2611
sg5
I13
sg6
S'https://open.spotify.com/track/2BrzlUj1u1CtvaJDGIKpsP'
p2612
sg8
S'Make Me (Cry)'
p2613
ssS'1WRy5l3TwrwlzNmB5bOeKw'
p2614
(dp2615
g3
S'Drake'
p2616
sg5
I8
sg6
S'https://open.spotify.com/track/1WRy5l3TwrwlzNmB5bOeKw'
p2617
sg8
S'Pop Style'
p2618
ssS'1SJtlNRJDeYHioymcvsqev'
p2619
(dp2620
g3
S'Camila Cabello'
p2621
sg5
I13
sg6
S'https://open.spotify.com/track/1SJtlNRJDeYHioymcvsqev'
p2622
sg8
S'Crying in the Club'
p2623
ssS'0Wv5wuenRLI3BcwgT3HPIP'
p2624
(dp2625
g3
S'DJ Snake'
p2626
sg5
I3
sg6
S'https://open.spotify.com/track/0Wv5wuenRLI3BcwgT3HPIP'
p2627
sg8
S'A Different Way (with Lauv)'
p2628
ssS'1trZGMI2CGyVT44STkpCoN'
p2629
(dp2630
g3
S'Bryson Tiller'
p2631
sg5
I6
sg6
S'https://open.spotify.com/track/1trZGMI2CGyVT44STkpCoN'
p2632
sg8
S'Let Me Explain'
p2633
ssS'04DwTuZ2VBdJCCC5TROn7L'
p2634
(dp2635
g3
S'Martin Garrix'
p2636
sg5
I23
sg6
S'https://open.spotify.com/track/04DwTuZ2VBdJCCC5TROn7L'
p2637
sg8
S'In the Name of Love'
p2638
ssS'0m2orA1i5lLZUOt9XLwSd0'
p2639
(dp2640
g3
S'Fifth Harmony'
p2641
sg5
I1
sg6
S'https://open.spotify.com/track/0m2orA1i5lLZUOt9XLwSd0'
p2642
sg8
S'He Like That'
p2643
ssS'77IAeEz8LEchPN8UNjaTJ2'
p2644
(dp2645
g3
S'J. Cole'
p2646
sg5
I2
sg6
S'https://open.spotify.com/track/77IAeEz8LEchPN8UNjaTJ2'
p2647
sg8
S'Foldin Clothes'
p2648
ssS'7M62jxrvr7UJdo6DchAFf3'
p2649
(dp2650
g3
S'Big Sean'
p2651
sg5
I1
sg6
S'https://open.spotify.com/track/7M62jxrvr7UJdo6DchAFf3'
p2652
sg8
S'Inspire Me'
p2653
ssS'7bJ4mu7MHa3rHiNyKjOoSl'
p2654
(dp2655
g3
S'Drake'
p2656
sg5
I9
sg6
S'https://open.spotify.com/track/7bJ4mu7MHa3rHiNyKjOoSl'
p2657
sg8
S'Ice Melts'
p2658
ssS'28mrq1UKIVItTbPqyub52b'
p2659
(dp2660
g3
S'21 Savage'
p2661
sg5
I1
sg6
S'https://open.spotify.com/track/28mrq1UKIVItTbPqyub52b'
p2662
sg8
S'Close My Eyes'
p2663
ssS'4JAyIDXOqNM6qHuZML01uX'
p2664
(dp2665
g3
g1672
sg5
I1
sg6
S'https://open.spotify.com/track/4JAyIDXOqNM6qHuZML01uX'
p2666
sg8
g1672
ssS'1vc2YF7ZvUtwr45HNpdGch'
p2667
(dp2668
g3
S'21 Savage'
p2669
sg5
I1
sg6
S'https://open.spotify.com/track/1vc2YF7ZvUtwr45HNpdGch'
p2670
sg8
S'Numb'
p2671
ssS'6VRghJeP6I0w1KxkdWFfIh'
p2672
(dp2673
g3
S'Imagine Dragons'
p2674
sg5
I3
sg6
S'https://open.spotify.com/track/6VRghJeP6I0w1KxkdWFfIh'
p2675
sg8
S'Believer'
p2676
ssS'6SznMYPQJHzr3IwsAHLId2'
p2677
(dp2678
g3
S'Ed Sheeran'
p2679
sg5
I3
sg6
S'https://open.spotify.com/track/6SznMYPQJHzr3IwsAHLId2'
p2680
sg8
S'Bibia Be Ye Ye'
p2681
ssS'6jmngk8Fwup05JZ6kgXEGX'
p2682
(dp2683
g3
S'Imagine Dragons'
p2684
sg5
I1
sg6
S'https://open.spotify.com/track/6jmngk8Fwup05JZ6kgXEGX'
p2685
sg8
S'Walking The Wire'
p2686
ssS'5xbrhx2tMMcN68IT3cJbhS'
p2687
(dp2688
g3
S'XXXTENTACION'
p2689
sg5
I2
sg6
S'https://open.spotify.com/track/5xbrhx2tMMcN68IT3cJbhS'
p2690
sg8
S'Ayala (Outro)'
p2691
ssS'3GgT5Au03iV45iGfTpzdhu'
p2692
(dp2693
g3
S'Meek Mill'
p2694
sg5
I1
sg6
S'https://open.spotify.com/track/3GgT5Au03iV45iGfTpzdhu'
p2695
sg8
S'Whatever You Need (feat. Chris Brown & Ty Dolla $ign)'
p2696
ssS'4wdZdkEugVVorAfzqRqC6N'
p2697
(dp2698
g3
S'Post Malone'
p2699
sg5
I20
sg6
S'https://open.spotify.com/track/4wdZdkEugVVorAfzqRqC6N'
p2700
sg8
S'Candy Paint'
p2701
ssS'0NiXXAI876aGImAd6rTj8w'
p2702
(dp2703
g3
S'Jonas Blue'
p2704
sg5
I11
sg6
S'https://open.spotify.com/track/0NiXXAI876aGImAd6rTj8w'
p2705
sg8
S'Mama'
p2706
ssS'1Nh5WUisukhSNgwXLRoyZf'
p2707
(dp2708
g3
S'Kodak Black'
p2709
sg5
I1
sg6
S'https://open.spotify.com/track/1Nh5WUisukhSNgwXLRoyZf'
p2710
sg8
S'Coolin and Booted'
p2711
ssS'4f1QbCjIAgQwnf7ms9NXWx'
p2712
(dp2713
g3
S'Russ'
p2714
sg5
I5
sg6
S'https://open.spotify.com/track/4f1QbCjIAgQwnf7ms9NXWx'
p2715
sg8
S'Me You'
p2716
ssS'6sBB5CBuzKJhDooro1IraE'
p2717
(dp2718
g3
S'21 Savage'
p2719
sg5
I1
sg6
S'https://open.spotify.com/track/6sBB5CBuzKJhDooro1IraE'
p2720
sg8
S'Baby Girl'
p2721
ssS'1EaKU4dMbesXXd3BrLCtYG'
p2722
(dp2723
g3
S'Kendrick Lamar'
p2724
sg5
I26
sg6
S'https://open.spotify.com/track/1EaKU4dMbesXXd3BrLCtYG'
p2725
sg8
S'ELEMENT.'
p2726
ssS'4kNvYhyl8R6m1vykVkcuBu'
p2727
(dp2728
g3
S'Drake'
p2729
sg5
I1
sg6
S'https://open.spotify.com/track/4kNvYhyl8R6m1vykVkcuBu'
p2730
sg8
S'All Me'
p2731
ssS'0OWZFobGSIW9GrSlQ9C5pc'
p2732
(dp2733
g3
S'Thomas Rhett'
p2734
sg5
I1
sg6
S'https://open.spotify.com/track/0OWZFobGSIW9GrSlQ9C5pc'
p2735
sg8
S'Marry Me'
p2736
ssS'7cQMJ0wDqVS5iM0JIvP6Ay'
p2737
(dp2738
g3
S'Fall Out Boy'
p2739
sg5
I3
sg6
S'https://open.spotify.com/track/7cQMJ0wDqVS5iM0JIvP6Ay'
p2740
sg8
S'The Last Of The Real Ones'
p2741
ssS'1n4jwRVXdkK2U34nBDUKKT'
p2742
(dp2743
g3
S'Kendrick Lamar'
p2744
sg5
I6
sg6
S'https://open.spotify.com/track/1n4jwRVXdkK2U34nBDUKKT'
p2745
sg8
S'BLOOD.'
p2746
ssS'0rHJxNaQRMGK6Y4TUx3xRO'
p2747
(dp2748
g3
S'Yo Gotti'
p2749
sg5
I5
sg6
S'https://open.spotify.com/track/0rHJxNaQRMGK6Y4TUx3xRO'
p2750
sg8
S'Castro'
p2751
ssS'2h3i5tGUl6hMu572umjcGo'
p2752
(dp2753
g3
S'Wale'
p2754
sg5
I16
sg6
S'https://open.spotify.com/track/2h3i5tGUl6hMu572umjcGo'
p2755
sg8
S'Running Back (feat. Lil Wayne)'
p2756
ssS'1sYSP7gKa5kdKIfhANfori'
p2757
(dp2758
g3
S'MAX'
p2759
sg5
I13
sg6
S'https://open.spotify.com/track/1sYSP7gKa5kdKIfhANfori'
p2760
sg8
S'Lights Down Low'
p2761
ssS'5Ohxk2dO5COHF1krpoPigN'
p2762
(dp2763
g3
S'Harry Styles'
p2764
sg5
I20
sg6
S'https://open.spotify.com/track/5Ohxk2dO5COHF1krpoPigN'
p2765
sg8
S'Sign of the Times'
p2766
ssS'2XaInsPPUkZRkY4uFJ3AHK'
p2767
(dp2768
g3
S'Gucci Mane'
p2769
sg5
I15
sg6
S'https://open.spotify.com/track/2XaInsPPUkZRkY4uFJ3AHK'
p2770
sg8
S'Met Gala (feat. Offset)'
p2771
ssS'7FCfMXYTIiQ9b4hDYs4Iol'
p2772
(dp2773
g3
S'Dua Lipa'
p2774
sg5
I1
sg6
S'https://open.spotify.com/track/7FCfMXYTIiQ9b4hDYs4Iol'
p2775
sg8
S'Be The One'
p2776
ssS'2NyrXRn4tancYPW6JwtTl2'
p2777
(dp2778
g3
S'Tee Grizzley'
p2779
sg5
I29
sg6
S'https://open.spotify.com/track/2NyrXRn4tancYPW6JwtTl2'
p2780
sg8
S'From The D To The A (feat. Lil Yachty)'
p2781
ssS'4mxWSdf71VFO52qFeY0fZt'
p2782
(dp2783
g3
S'Maroon 5'
p2784
sg5
I6
sg6
S'https://open.spotify.com/track/4mxWSdf71VFO52qFeY0fZt'
p2785
sg8
S'What Lovers Do (feat. SZA)'
p2786
ssS'1ADjWm8QNhgNV8yCNNgQ1T'
p2787
(dp2788
g3
S'Ariana Grande'
p2789
sg5
I1
sg6
S'https://open.spotify.com/track/1ADjWm8QNhgNV8yCNNgQ1T'
p2790
sg8
S'Santa Tell Me'
p2791
ssS'64wR8Jdm7ikY3IbJOt5F9Z'
p2792
(dp2793
g3
S'2 Chainz'
p2794
sg5
I1
sg6
S'https://open.spotify.com/track/64wR8Jdm7ikY3IbJOt5F9Z'
p2795
sg8
S'Realize'
p2796
ssS'4Hf7WnR761jpxPr5D46Bcd'
p2797
(dp2798
g3
S'Shawn Mendes'
p2799
sg5
I16
sg6
S'https://open.spotify.com/track/4Hf7WnR761jpxPr5D46Bcd'
p2800
sg8
S'Treat You Better'
p2801
ssS'6De0lHrwBfPfrhorm9q1Xl'
p2802
(dp2803
g3
S'Danny Ocean'
p2804
sg5
I8
sg6
S'https://open.spotify.com/track/6De0lHrwBfPfrhorm9q1Xl'
p2805
sg8
S'Me Reh\xc3\xbaso'
p2806
ssS'5xGH4fqJwvMynXn3dcmbpr'
p2807
(dp2808
g3
S'Bryson Tiller'
p2809
sg5
I1
sg6
S'https://open.spotify.com/track/5xGH4fqJwvMynXn3dcmbpr'
p2810
sg8
S'You Got It'
p2811
ssS'6Dwtha2FtZFoMEBh5GR2sq'
p2812
(dp2813
g3
S'Kehlani'
p2814
sg5
I1
sg6
S'https://open.spotify.com/track/6Dwtha2FtZFoMEBh5GR2sq'
p2815
sg8
S'CRZY'
p2816
ssS'1Tt4sE4pXi57mTD1GCzsqm'
p2817
(dp2818
g3
S'Rihanna'
p2819
sg5
I24
sg6
S'https://open.spotify.com/track/1Tt4sE4pXi57mTD1GCzsqm'
p2820
sg8
S'Needed Me'
p2821
ssS'7BzjpnOxxngXt1LZiVXhND'
p2822
(dp2823
g3
S'Future'
p2824
sg5
I1
sg6
S'https://open.spotify.com/track/7BzjpnOxxngXt1LZiVXhND'
p2825
sg8
S'POA'
p2826
ssS'7gSQv1OHpkIoAdUiRLdmI6'
p2827
(dp2828
g3
S'Tom Petty'
p2829
sg5
I1
sg6
S'https://open.spotify.com/track/7gSQv1OHpkIoAdUiRLdmI6'
p2830
sg8
S"I Won't Back Down"
p2831
ssS'0BCy325UZyR9z0t0uxwn2N'
p2832
(dp2833
g3
S'Florida Georgia Line'
p2834
sg5
I12
sg6
S'https://open.spotify.com/track/0BCy325UZyR9z0t0uxwn2N'
p2835
sg8
S'H.O.L.Y.'
p2836
ssS'1JuChOEPH0Rceq573FGQSK'
p2837
(dp2838
g3
S'Kesha'
p2839
sg5
I1
sg6
S'https://open.spotify.com/track/1JuChOEPH0Rceq573FGQSK'
p2840
sg8
S'Hymn'
p2841
ssS'6Ius4TC0L3cN74HT7ENE6e'
p2842
(dp2843
g3
S'J. Cole'
p2844
sg5
I13
sg6
S'https://open.spotify.com/track/6Ius4TC0L3cN74HT7ENE6e'
p2845
sg8
S'Wet Dreamz'
p2846
ssS'1MksGqIztTT6M9R1ErKVs8'
p2847
(dp2848
g3
S'Big Sean'
p2849
sg5
I11
sg6
S'https://open.spotify.com/track/1MksGqIztTT6M9R1ErKVs8'
p2850
sg8
S'No Favors'
p2851
ssS'4hXAK3mjFVFOOiJQ3rKAXi'
p2852
(dp2853
g3
S'Burl Ives'
p2854
sg5
I1
sg6
S'https://open.spotify.com/track/4hXAK3mjFVFOOiJQ3rKAXi'
p2855
sg8
S'Rudolph The Red-Nosed Reindeer'
p2856
ssS'7xHWNBFm6ObGEQPaUxHuKO'
p2857
(dp2858
g3
S'Sia'
p2859
sg5
I4
sg6
S'https://open.spotify.com/track/7xHWNBFm6ObGEQPaUxHuKO'
p2860
sg8
S'The Greatest'
p2861
ssS'5knuzwU65gJK7IF5yJsuaW'
p2862
(dp2863
g3
S'Clean Bandit'
p2864
sg5
I28
sg6
S'https://open.spotify.com/track/5knuzwU65gJK7IF5yJsuaW'
p2865
sg8
S'Rockabye (feat. Sean Paul & Anne-Marie)'
p2866
ssS'06RzVT7uWMYv2fPTyiOy1m'
p2867
(dp2868
g3
S'21 Savage'
p2869
sg5
I1
sg6
S'https://open.spotify.com/track/06RzVT7uWMYv2fPTyiOy1m'
p2870
sg8
S'Money Convo'
p2871
ssS'7sMBRW8Y8iL19IchYMAogN'
p2872
(dp2873
g3
S'Future'
p2874
sg5
I1
sg6
S'https://open.spotify.com/track/7sMBRW8Y8iL19IchYMAogN'
p2875
sg8
S'Feds Did a Sweep'
p2876
ssS'3muBQDekYAg7jm6hDu6R0Z'
p2877
(dp2878
g3
S'Tee Grizzley'
p2879
sg5
I35
sg6
S'https://open.spotify.com/track/3muBQDekYAg7jm6hDu6R0Z'
p2880
sg8
S'First Day Out'
p2881
ssS'14WWzenpaEgQZlqPq2nk4v'
p2882
(dp2883
g3
S'Rihanna'
p2884
sg5
I12
sg6
S'https://open.spotify.com/track/14WWzenpaEgQZlqPq2nk4v'
p2885
sg8
S'Work'
p2886
ssS'4tHqQMWSqmL6YjXwsqthDI'
p2887
(dp2888
g3
S'Mykola Dmytrovych Leontovych'
p2889
sg5
I1
sg6
S'https://open.spotify.com/track/4tHqQMWSqmL6YjXwsqthDI'
p2890
sg8
S'Carol of the Bells'
p2891
ssS'36YCdzT57us0LhDmCYtrNE'
p2892
(dp2893
g3
S'The Weeknd'
p2894
sg5
I5
sg6
S'https://open.spotify.com/track/36YCdzT57us0LhDmCYtrNE'
p2895
sg8
S'Rockin\xe2\x80\x99'
p2896
ssS'6b8Be6ljOzmkOmFslEb23P'
p2897
(dp2898
g3
S'Bruno Mars'
p2899
sg5
I37
sg6
S'https://open.spotify.com/track/6b8Be6ljOzmkOmFslEb23P'
p2900
sg8
S'24K Magic'
p2901
ssS'6JjEVlMkfHWMeYavkEYzNO'
p2902
(dp2903
g3
S'Nebu Kiniza'
p2904
sg5
I25
sg6
S'https://open.spotify.com/track/6JjEVlMkfHWMeYavkEYzNO'
p2905
sg8
S'Gassed Up'
p2906
ssS'1IF5UcqRO42D12vYwceOY6'
p2907
(dp2908
g3
S'Harry Styles'
p2909
sg5
I1
sg6
S'https://open.spotify.com/track/1IF5UcqRO42D12vYwceOY6'
p2910
sg8
S'From the Dining Table'
p2911
ssS'2UwbhMie1EAYuTZ0QXeMwl'
p2912
(dp2913
g3
S'XXXTENTACION'
p2914
sg5
I4
sg6
S'https://open.spotify.com/track/2UwbhMie1EAYuTZ0QXeMwl'
p2915
sg8
S'Save Me'
p2916
ssS'5VlstKgCJPHDIMCQO4jHcQ'
p2917
(dp2918
g3
S'Big Sean'
p2919
sg5
I1
sg6
S'https://open.spotify.com/track/5VlstKgCJPHDIMCQO4jHcQ'
p2920
sg8
S'Sunday Morning Jetpack'
p2921
ssS'6uJwPeBGb3swi85TSr9iIz'
p2922
(dp2923
g3
S'Coldplay'
p2924
sg5
I1
sg6
S'https://open.spotify.com/track/6uJwPeBGb3swi85TSr9iIz'
p2925
sg8
S'Miracles (Someone Special)'
p2926
ssS'3AMnOVxEHUgVrythGgqPhI'
p2927
(dp2928
g3
S'A Boogie Wit da Hoodie'
p2929
sg5
I2
sg6
S'https://open.spotify.com/track/3AMnOVxEHUgVrythGgqPhI'
p2930
sg8
S"Say A'"
p2931
ssS'2xbI8Vmyv3TkpTdywpPyNw'
p2932
(dp2933
g3
S'PnB Rock'
p2934
sg5
I35
sg6
S'https://open.spotify.com/track/2xbI8Vmyv3TkpTdywpPyNw'
p2935
sg8
S'Selfish'
p2936
ssS'73grS4MZ4rHwa7CJOihO73'
p2937
(dp2938
g3
S'Future'
p2939
sg5
I1
sg6
S'https://open.spotify.com/track/73grS4MZ4rHwa7CJOihO73'
p2940
sg8
S'Solo'
p2941
ssS'4so0Wek9Ig1p6CRCHuINwW'
p2942
(dp2943
g3
S'Bing Crosby'
p2944
sg5
I1
sg6
S'https://open.spotify.com/track/4so0Wek9Ig1p6CRCHuINwW'
p2945
sg8
S'White Christmas'
p2946
ssS'4u9Y4Z9i9VaAbBK7rW1Rha'
p2947
(dp2948
g3
S'Harry Styles'
p2949
sg5
I2
sg6
S'https://open.spotify.com/track/4u9Y4Z9i9VaAbBK7rW1Rha'
p2950
sg8
S'Meet Me in the Hallway'
p2951
ssS'23luOrEVHMfoX0AhfbQuS6'
p2952
(dp2953
g3
S'Kendrick Lamar'
p2954
sg5
I7
sg6
S'https://open.spotify.com/track/23luOrEVHMfoX0AhfbQuS6'
p2955
sg8
S'FEAR.'
p2956
ssS'4h90qkbnW1Qq6pBhoPvwko'
p2957
(dp2958
g3
S'The Weeknd'
p2959
sg5
I12
sg6
S'https://open.spotify.com/track/4h90qkbnW1Qq6pBhoPvwko'
p2960
sg8
S'Sidewalks'
p2961
ssS'6HZILIRieu8S0iqY8kIKhj'
p2962
(dp2963
g3
S'Kendrick Lamar'
p2964
sg5
I26
sg6
S'https://open.spotify.com/track/6HZILIRieu8S0iqY8kIKhj'
p2965
sg8
S'DNA.'
p2966
ssS'4B2OmQGLBVB51aYNgUvXeM'
p2967
(dp2968
g3
S'Bryson Tiller'
p2969
sg5
I1
sg6
S'https://open.spotify.com/track/4B2OmQGLBVB51aYNgUvXeM'
p2970
sg8
S'Blowing Smoke'
p2971
ssS'4UknpXoLjlB7Mao4UWcJ2o'
p2972
(dp2973
g3
S'The Weeknd'
p2974
sg5
I1
sg6
S'https://open.spotify.com/track/4UknpXoLjlB7Mao4UWcJ2o'
p2975
sg8
S'A Lonely Night'
p2976
ssS'7F9vK8hNFMml4GtHsaXui6'
p2977
(dp2978
g3
S'Louis Tomlinson'
p2979
sg5
I12
sg6
S'https://open.spotify.com/track/7F9vK8hNFMml4GtHsaXui6'
p2980
sg8
S'Back to You (feat. Bebe Rexha & Digital Farm Animals)'
p2981
ssS'4Vxu50qVrQcycjRyJQaZLC'
p2982
(dp2983
g3
S'Thomas Rhett'
p2984
sg5
I1
sg6
S'https://open.spotify.com/track/4Vxu50qVrQcycjRyJQaZLC'
p2985
sg8
S'Life Changes'
p2986
ssS'6gU9OKjOE7ghfEd55oRO57'
p2987
(dp2988
g3
S'SZA'
p2989
sg5
I13
sg6
S'https://open.spotify.com/track/6gU9OKjOE7ghfEd55oRO57'
p2990
sg8
S'The Weekend'
p2991
ssS'5rmcjZTrE9JR1YrbNZDFNW'
p2992
(dp2993
g3
S'J. Cole'
p2994
sg5
I2
sg6
S'https://open.spotify.com/track/5rmcjZTrE9JR1YrbNZDFNW'
p2995
sg8
S"She's Mine Pt. 2"
p2996
ssS'0B48113ZG9UfkWWt7qD9xX'
p2997
(dp2998
g3
S'Miley Cyrus'
p2999
sg5
I1
sg6
S'https://open.spotify.com/track/0B48113ZG9UfkWWt7qD9xX'
p3000
sg8
S'Younger Now'
p3001
ssS'1Bqxj0aH5KewYHKUg1IdrF'
p3002
(dp3003
g3
S'G-Eazy'
p3004
sg5
I15
sg6
S'https://open.spotify.com/track/1Bqxj0aH5KewYHKUg1IdrF'
p3005
sg8
S'Some Kind Of Drug'
p3006
ssS'593W4qZOwwdqF6YnimJjL6'
p3007
(dp3008
g3
S'SZA'
p3009
sg5
I1
sg6
S'https://open.spotify.com/track/593W4qZOwwdqF6YnimJjL6'
p3010
sg8
S'Doves In The Wind'
p3011
ssS'4mU5iXHeLgbR94siF7p1sY'
p3012
(dp3013
g3
S'The Weeknd'
p3014
sg5
I12
sg6
S'https://open.spotify.com/track/4mU5iXHeLgbR94siF7p1sY'
p3015
sg8
S'Six Feet Under'
p3016
ssS'0ug5NqcwcFR2xrfTkc7k8e'
p3017
(dp3018
g3
S'Taylor Swift'
p3019
sg5
I1
sg6
S'https://open.spotify.com/track/0ug5NqcwcFR2xrfTkc7k8e'
p3020
sg8
S'Style'
p3021
ssS'7F1LWA9sIlTorHUo4amGqk'
p3022
(dp3023
g3
S'The Weeknd'
p3024
sg5
I3
sg6
S'https://open.spotify.com/track/7F1LWA9sIlTorHUo4amGqk'
p3025
sg8
S'Reminder - Remix'
p3026
ssS'6gpcs5eMhJwax4mIfKDYQk'
p3027
(dp3028
g3
S'Calvin Harris'
p3029
sg5
I4
sg6
S'https://open.spotify.com/track/6gpcs5eMhJwax4mIfKDYQk'
p3030
sg8
S'Slide'
p3031
ssS'1E2ePlJmijVSX0o1G9TFgR'
p3032
(dp3033
g3
S'SZA'
p3034
sg5
I3
sg6
S'https://open.spotify.com/track/1E2ePlJmijVSX0o1G9TFgR'
p3035
sg8
S'Love Galore'
p3036
ssS'0QsvXIfqM0zZoerQfsI9lm'
p3037
(dp3038
g3
S'The Chainsmokers'
p3039
sg5
I35
sg6
S'https://open.spotify.com/track/0QsvXIfqM0zZoerQfsI9lm'
p3040
sg8
S"Don't Let Me Down"
p3041
ssS'4PzovBqgnSHKd8opsP7IVM'
p3042
(dp3043
g3
S'YFN Lucci'
p3044
sg5
I27
sg6
S'https://open.spotify.com/track/4PzovBqgnSHKd8opsP7IVM'
p3045
sg8
S'Everyday We Lit (feat. PnB Rock)'
p3046
ssS'7cGFbx7MP0H23iHZTZpqMM'
p3047
(dp3048
g3
S'Logic'
p3049
sg5
I28
sg6
S'https://open.spotify.com/track/7cGFbx7MP0H23iHZTZpqMM'
p3050
sg8
S'Everybody'
p3051
ssS'74ABBu8osxqmuFOAKcWWpG'
p3052
(dp3053
g3
S'Paramore'
p3054
sg5
I1
sg6
S'https://open.spotify.com/track/74ABBu8osxqmuFOAKcWWpG'
p3055
sg8
S'Forgiveness'
p3056
ssS'5hslUAKq9I9CG2bAulFkHN'
p3057
(dp3058
g3
S'Andy Williams'
p3059
sg5
I1
sg6
S'https://open.spotify.com/track/5hslUAKq9I9CG2bAulFkHN'
p3060
sg8
S"It's the Most Wonderful Time of the Year"
p3061
ssS'2nLtzopw4rPReszdYBJU6h'
p3062
(dp3063
g3
S'Linkin Park'
p3064
sg5
I2
sg6
S'https://open.spotify.com/track/2nLtzopw4rPReszdYBJU6h'
p3065
sg8
S'Numb'
p3066
ssS'4U9arGcc4ATa7shChhLQP0'
p3067
(dp3068
g3
S'Thirty Seconds To Mars'
p3069
sg5
I1
sg6
S'https://open.spotify.com/track/4U9arGcc4ATa7shChhLQP0'
p3070
sg8
S'Walk On Water'
p3071
ssS'3a1lNhkSLSkpJE4MSHpDu9'
p3072
(dp3073
g3
S'Post Malone'
p3074
sg5
I42
sg6
S'https://open.spotify.com/track/3a1lNhkSLSkpJE4MSHpDu9'
p3075
sg8
S'Congratulations'
p3076
ssS'6dxU7Xf9j2yNI7aCcT8W1g'
p3077
(dp3078
g3
S'Bryson Tiller'
p3079
sg5
I1
sg6
S'https://open.spotify.com/track/6dxU7Xf9j2yNI7aCcT8W1g'
p3080
sg8
S'Stay Blessed'
p3081
ssS'2IjgKCbrk8CtqmsOC5DhVd'
p3082
(dp3083
g3
S'Meek Mill'
p3084
sg5
I1
sg6
S'https://open.spotify.com/track/2IjgKCbrk8CtqmsOC5DhVd'
p3085
sg8
S'Fuck That Check Up (feat. Lil Uzi Vert)'
p3086
ssS'40yJGQyEaBbIkXpwMFkXip'
p3087
(dp3088
g3
S'Lil Yachty'
p3089
sg5
I16
sg6
S'https://open.spotify.com/track/40yJGQyEaBbIkXpwMFkXip'
p3090
sg8
S'One Night'
p3091
ssS'0OlS52TmtK2gPaEtdmr7DN'
p3092
(dp3093
g3
S'Old Dominion'
p3094
sg5
I5
sg6
S'https://open.spotify.com/track/0OlS52TmtK2gPaEtdmr7DN'
p3095
sg8
S'No Such Thing as a Broken Heart'
p3096
ssS'6yr8GiTHWvFfi4o6Q5ebdT'
p3097
(dp3098
g3
S'Eminem'
p3099
sg5
I24
sg6
S'https://open.spotify.com/track/6yr8GiTHWvFfi4o6Q5ebdT'
p3100
sg8
S"'Till I Collapse"
p3101
ssS'2fkeWbM6iqTw7oGHTYm2lw'
p3102
(dp3103
g3
S'Drake'
p3104
sg5
I6
sg6
S'https://open.spotify.com/track/2fkeWbM6iqTw7oGHTYm2lw'
p3105
sg8
S'4422'
p3106
ssS'0ofbQMrRDsUaVKq2mGLEAb'
p3107
(dp3108
g3
S'Camila Cabello'
p3109
sg5
I10
sg6
S'https://open.spotify.com/track/0ofbQMrRDsUaVKq2mGLEAb'
p3110
sg8
S'Havana'
p3111
ssS'6I6NX6tjGsxFAsIfGzY9lJ'
p3112
(dp3113
g3
S'J. Cole'
p3114
sg5
I22
sg6
S'https://open.spotify.com/track/6I6NX6tjGsxFAsIfGzY9lJ'
p3115
sg8
S'Deja Vu'
p3116
ssS'3sdDgcU2XvO8EwkUsIe7VW'
p3117
(dp3118
g3
S'DJ Mustard'
p3119
sg5
I4
sg6
S'https://open.spotify.com/track/3sdDgcU2XvO8EwkUsIe7VW'
p3120
sg8
S'Want Her'
p3121
ssS'6bLopGnirdrilrpdVB6Um1'
p3122
(dp3123
g3
S'Sia'
p3124
sg5
I1
sg6
S'https://open.spotify.com/track/6bLopGnirdrilrpdVB6Um1'
p3125
sg8
S'The Greatest'
p3126
ssS'3MMwcrgTCJ7bOAIScTyXFk'
p3127
(dp3128
g3
S'Ugly God'
p3129
sg5
I1
sg6
S'https://open.spotify.com/track/3MMwcrgTCJ7bOAIScTyXFk'
p3130
sg8
S'Stop Smoking Black & Milds'
p3131
ssS'7iAiOtm19uRwipMm7TH6lw'
p3132
(dp3133
g3
S'Future'
p3134
sg5
I2
sg6
S'https://open.spotify.com/track/7iAiOtm19uRwipMm7TH6lw'
p3135
sg8
S'Zoom'
p3136
ssS'2KpCpk6HjXXLb7nnXoXA5O'
p3137
(dp3138
g3
S'JAY Z'
p3139
sg5
I6
sg6
S'https://open.spotify.com/track/2KpCpk6HjXXLb7nnXoXA5O'
p3140
sg8
S'Ni**as In Paris'
p3141
ssS'7DQXiMeLqiQsy1uqHSk0xc'
p3142
(dp3143
g3
S'Shawn Hook'
p3144
sg5
I3
sg6
S'https://open.spotify.com/track/7DQXiMeLqiQsy1uqHSk0xc'
p3145
sg8
S'Reminding Me'
p3146
ssS'2IGr3q6ljcpLvHDFLtI0yW'
p3147
(dp3148
g3
S'Rae Sremmurd'
p3149
sg5
I1
sg6
S'https://open.spotify.com/track/2IGr3q6ljcpLvHDFLtI0yW'
p3150
sg8
S'Look Alive'
p3151
ssS'433P7tDcIAi6NLnf4Sh6tI'
p3152
(dp3153
g3
S'Drake'
p3154
sg5
I8
sg6
S'https://open.spotify.com/track/433P7tDcIAi6NLnf4Sh6tI'
p3155
sg8
S'Still Here'
p3156
ssS'57BrRMwf9LrcmuOsyGilwr'
p3157
(dp3158
g3
S'Linkin Park'
p3159
sg5
I1
sg6
S'https://open.spotify.com/track/57BrRMwf9LrcmuOsyGilwr'
p3160
sg8
S'Crawling'
p3161
ssS'0afhq8XCExXpqazXczTSve'
p3162
(dp3163
g3
S'Ed Sheeran'
p3164
sg5
I23
sg6
S'https://open.spotify.com/track/0afhq8XCExXpqazXczTSve'
p3165
sg8
S'Galway Girl'
p3166
ssS'2ZE3DJuizYTad2S4CvRRhK'
p3167
(dp3168
g3
S'Lauv'
p3169
sg5
I1
sg6
S'https://open.spotify.com/track/2ZE3DJuizYTad2S4CvRRhK'
p3170
sg8
S'Easy Love'
p3171
ssS'6m9qPYXmhge2QhBLfFKnVF'
p3172
(dp3173
g3
S'Chance The Rapper'
p3174
sg5
I7
sg6
S'https://open.spotify.com/track/6m9qPYXmhge2QhBLfFKnVF'
p3175
sg8
S'Same Drugs'
p3176
ssS'1NDxZ7cFAo481dtYWdrUnR'
p3177
(dp3178
g3
S'Maggie Lindemann'
p3179
sg5
I21
sg6
S'https://open.spotify.com/track/1NDxZ7cFAo481dtYWdrUnR'
p3180
sg8
S'Pretty Girl - Cheat Codes X CADE Remix'
p3181
ssS'2aFiaMXmWsM3Vj72F9ksBl'
p3182
(dp3183
g3
S'DNCE'
p3184
sg5
I1
sg6
S'https://open.spotify.com/track/2aFiaMXmWsM3Vj72F9ksBl'
p3185
sg8
S'Cake By The Ocean'
p3186
ssS'1iDPB2WNsGEWuKycQyDGn6'
p3187
(dp3188
g3
S'Lil Pump'
p3189
sg5
I1
sg6
S'https://open.spotify.com/track/1iDPB2WNsGEWuKycQyDGn6'
p3190
sg8
S'Crazy'
p3191
ssS'152lZdxL1OR0ZMW6KquMif'
p3192
(dp3193
g3
S'Khalid'
p3194
sg5
I41
sg6
S'https://open.spotify.com/track/152lZdxL1OR0ZMW6KquMif'
p3195
sg8
S'Location'
p3196
ssS'6eIygPhGcBFKKcxlGTJlY0'
p3197
(dp3198
g3
S'John Mayer'
p3199
sg5
I1
sg6
S'https://open.spotify.com/track/6eIygPhGcBFKKcxlGTJlY0'
p3200
sg8
S'Changing'
p3201
ssS'4TZy1wLyHec06pwgFYDh1a'
p3202
(dp3203
g3
S'Shawn Mendes'
p3204
sg5
I19
sg6
S'https://open.spotify.com/track/4TZy1wLyHec06pwgFYDh1a'
p3205
sg8
S'Mercy'
p3206
ssS'2yZax79pOrYuyIFVW2cZY2'
p3207
(dp3208
g3
S'XXXTENTACION'
p3209
sg5
I7
sg6
S'https://open.spotify.com/track/2yZax79pOrYuyIFVW2cZY2'
p3210
sg8
S'Carry On'
p3211
ssS'4QdovcM8j50QPlyR7tH4xe'
p3212
(dp3213
g3
S'Marc E. Bassy'
p3214
sg5
I6
sg6
S'https://open.spotify.com/track/4QdovcM8j50QPlyR7tH4xe'
p3215
sg8
S'You & Me'
p3216
ssS'3RXkboS74UYzN14xTqzPyY'
p3217
(dp3218
g3
g1672
sg5
I1
sg6
S'https://open.spotify.com/track/3RXkboS74UYzN14xTqzPyY'
p3219
sg8
g1672
ssS'4Q3N4Ct4zCuIHuZ65E3BD4'
p3220
(dp3221
g3
S'Kodak Black'
p3222
sg5
I34
sg6
S'https://open.spotify.com/track/4Q3N4Ct4zCuIHuZ65E3BD4'
p3223
sg8
S'Tunnel Vision'
p3224
ssS'20H2Hd5AkUcRjB4yL3UQtJ'
p3225
(dp3226
g3
S'Fifth Harmony'
p3227
sg5
I2
sg6
S'https://open.spotify.com/track/20H2Hd5AkUcRjB4yL3UQtJ'
p3228
sg8
S'Down'
p3229
ssS'4ntsD33Pgsgk8rUyZLLiUV'
p3230
(dp3231
g3
S'Joey Bada$$'
p3232
sg5
I12
sg6
S'https://open.spotify.com/track/4ntsD33Pgsgk8rUyZLLiUV'
p3233
sg8
S'DEVASTATED'
p3234
ssS'56kXYt4KRoUq3rzkPdjquB'
p3235
(dp3236
g3
S'Smokepurpp'
p3237
sg5
I12
sg6
S'https://open.spotify.com/track/56kXYt4KRoUq3rzkPdjquB'
p3238
sg8
S'Audi.'
p3239
ssS'2tdq0CeAGSfhI2l4Gwkvgx'
p3240
(dp3241
g3
S'BTS'
p3242
sg5
I1
sg6
S'https://open.spotify.com/track/2tdq0CeAGSfhI2l4Gwkvgx'
p3243
sg8
S'Best Of Me'
p3244
ssS'1FUViuNSldssMIawrOXF2i'
p3245
(dp3246
g3
S'Bebe Rexha'
p3247
sg5
I15
sg6
S'https://open.spotify.com/track/1FUViuNSldssMIawrOXF2i'
p3248
sg8
S'I Got You'
p3249
ssS'1g1TeDflB6atAy7HKwrzXu'
p3250
(dp3251
g3
S'Kesha'
p3252
sg5
I2
sg6
S'https://open.spotify.com/track/1g1TeDflB6atAy7HKwrzXu'
p3253
sg8
S'Learn To Let Go'
p3254
ssS'2MX30RliaxJDgmQ3C3rrJX'
p3255
(dp3256
g3
S'blackbear'
p3257
sg5
I1
sg6
S'https://open.spotify.com/track/2MX30RliaxJDgmQ3C3rrJX'
p3258
sg8
S'do re mi'
p3259
ssS'0dvu4Irbq0SM5BWny30rRR'
p3260
(dp3261
g3
S'G4SHI'
p3262
sg5
I1
sg6
S'https://open.spotify.com/track/0dvu4Irbq0SM5BWny30rRR'
p3263
sg8
S'Disrespectful'
p3264
ssS'2Te14aSrBgFj1CE2sBBVMX'
p3265
(dp3266
g3
S'Halsey'
p3267
sg5
I1
sg6
S'https://open.spotify.com/track/2Te14aSrBgFj1CE2sBBVMX'
p3268
sg8
S'Alone'
p3269
ssS'6Wo5YxkdXgwzKQZbDg2r17'
p3270
(dp3271
g3
S'Chris Stapleton'
p3272
sg5
I1
sg6
S'https://open.spotify.com/track/6Wo5YxkdXgwzKQZbDg2r17'
p3273
sg8
S'Either Way'
p3274
ssS'1aGOdZZE1uE0m3UYjcl3CP'
p3275
(dp3276
g3
S'Yo Gotti'
p3277
sg5
I1
sg6
S'https://open.spotify.com/track/1aGOdZZE1uE0m3UYjcl3CP'
p3278
sg8
S'Rake It Up'
p3279
ssS'6OuV4vfyb8v3vGGGksqyKf'
p3280
(dp3281
g3
S'AJR'
p3282
sg5
I2
sg6
S'https://open.spotify.com/track/6OuV4vfyb8v3vGGGksqyKf'
p3283
sg8
S'Weak'
p3284
ssS'2of5xn0GU0TdFneR1saRLH'
p3285
(dp3286
g3
S'DJ Khaled'
p3287
sg5
I3
sg6
S'https://open.spotify.com/track/2of5xn0GU0TdFneR1saRLH'
p3288
sg8
S'To the Max'
p3289
ssS'4Zxdw0Hno7YDu0IzvY76Qo'
p3290
(dp3291
g3
S'Future'
p3292
sg5
I10
sg6
S'https://open.spotify.com/track/4Zxdw0Hno7YDu0IzvY76Qo'
p3293
sg8
S'Rent Money'
p3294
ssS'4Q4jmPHwu0wrJvqrld0FQ6'
p3295
(dp3296
g3
S'Zara Larsson'
p3297
sg5
I10
sg6
S'https://open.spotify.com/track/4Q4jmPHwu0wrJvqrld0FQ6'
p3298
sg8
S'I Would Like'
p3299
ssS'5VEuraNSVxMTzDTtrmL3lQ'
p3300
(dp3301
g3
S'Bing Crosby'
p3302
sg5
I1
sg6
S'https://open.spotify.com/track/5VEuraNSVxMTzDTtrmL3lQ'
p3303
sg8
S'Winter Wonderland'
p3304
ssS'5tRmoZRoupvMYPV1oezFrH'
p3305
(dp3306
g3
S'Lil Uzi Vert'
p3307
sg5
I7
sg6
S'https://open.spotify.com/track/5tRmoZRoupvMYPV1oezFrH'
p3308
sg8
S'X'
p3309
ssS'7yyRTcZmCiyzzJlNzGC9Ol'
p3310
(dp3311
g3
S'DRAM'
p3312
sg5
I42
sg6
S'https://open.spotify.com/track/7yyRTcZmCiyzzJlNzGC9Ol'
p3313
sg8
S'Broccoli (feat. Lil Yachty)'
p3314
ssS'10M2Ex445zw585Ducldzkw'
p3315
(dp3316
g3
S'Brett Young'
p3317
sg5
I29
sg6
S'https://open.spotify.com/track/10M2Ex445zw585Ducldzkw'
p3318
sg8
S"In Case You Didn't Know"
p3319
ssS'2CvOqDpQIMw69cCzWqr5yr'
p3320
(dp3321
g3
S'Beyonc\xc3\xa9'
p3322
sg5
I1
sg6
S'https://open.spotify.com/track/2CvOqDpQIMw69cCzWqr5yr'
p3323
sg8
S'Halo'
p3324
ssS'2W4yTO3qHdqyvbz2UxfIPh'
p3325
(dp3326
g3
S'Gorillaz'
p3327
sg5
I1
sg6
S'https://open.spotify.com/track/2W4yTO3qHdqyvbz2UxfIPh'
p3328
sg8
S'Submission (feat. Danny Brown & Kelela)'
p3329
ssS'2771LMNxwf62FTAdpJMQfM'
p3330
(dp3331
g3
S'Cardi B'
p3332
sg5
I12
sg6
S'https://open.spotify.com/track/2771LMNxwf62FTAdpJMQfM'
p3333
sg8
S'Bodak Yellow'
p3334
ssS'7BKUWh5sdtdS17crohRe4L'
p3335
(dp3336
g3
S'Logic'
p3337
sg5
I7
sg6
S'https://open.spotify.com/track/7BKUWh5sdtdS17crohRe4L'
p3338
sg8
S'Black SpiderMan'
p3339
ssS'6PCUP3dWmTjcTtXY02oFdT'
p3340
(dp3341
g3
S'Ed Sheeran'
p3342
sg5
I34
sg6
S'https://open.spotify.com/track/6PCUP3dWmTjcTtXY02oFdT'
p3343
sg8
S'Castle on the Hill'
p3344
ssS'572NmogOEHowA9JdNqh036'
p3345
(dp3346
g3
S'Future'
p3347
sg5
I1
sg6
S'https://open.spotify.com/track/572NmogOEHowA9JdNqh036'
p3348
sg8
S'Might as Well'
p3349
ssS'2LBqCSwhJGcFQeTHMVGwy3'
p3350
(dp3351
g3
S'The Weeknd'
p3352
sg5
I12
sg6
S'https://open.spotify.com/track/2LBqCSwhJGcFQeTHMVGwy3'
p3353
sg8
S'Die For You'
p3354
ssS'5LABCxgmP7DATATIJXOh6n'
p3355
(dp3356
g3
S'Harry Styles'
p3357
sg5
I1
sg6
S'https://open.spotify.com/track/5LABCxgmP7DATATIJXOh6n'
p3358
sg8
S'Ever Since New York'
p3359
ssS'5pvVAwQbuFoR7LkcicrKnk'
p3360
(dp3361
g3
S'Vice'
p3362
sg5
I8
sg6
S'https://open.spotify.com/track/5pvVAwQbuFoR7LkcicrKnk'
p3363
sg8
S'Obsession (feat. Jon Bellion)'
p3364
ssS'7yoe9vbbzakNAXwb1UaWLS'
p3365
(dp3366
g3
S'Big Sean'
p3367
sg5
I1
sg6
S'https://open.spotify.com/track/7yoe9vbbzakNAXwb1UaWLS'
p3368
sg8
S'Same Time Pt. 1'
p3369
ssS'5Y3Tj0wJhKAaPbwWxXxZGS'
p3370
(dp3371
g3
S'Lil Uzi Vert'
p3372
sg5
I2
sg6
S'https://open.spotify.com/track/5Y3Tj0wJhKAaPbwWxXxZGS'
p3373
sg8
S'Feelings Mutual'
p3374
ssS'104buTcnP2AsxqB7U1FIZ4'
p3375
(dp3376
g3
S'Linkin Park'
p3377
sg5
I5
sg6
S'https://open.spotify.com/track/104buTcnP2AsxqB7U1FIZ4'
p3378
sg8
S'Heavy (feat. Kiiara)'
p3379
ssS'1GOuHB20lqVyxv3GdxovPY'
p3380
(dp3381
g3
S'Meek Mill'
p3382
sg5
I1
sg6
S'https://open.spotify.com/track/1GOuHB20lqVyxv3GdxovPY'
p3383
sg8
S'Issues'
p3384
ssS'5e0RPsQUTQu0A29wqD6bZR'
p3385
(dp3386
g3
S'Future'
p3387
sg5
I2
sg6
S'https://open.spotify.com/track/5e0RPsQUTQu0A29wqD6bZR'
p3388
sg8
S'Super Trapper'
p3389
ssS'650OeHTLxZAQmb4aEbGmaA'
p3390
(dp3391
g3
S'Linkin Park'
p3392
sg5
I1
sg6
S'https://open.spotify.com/track/650OeHTLxZAQmb4aEbGmaA'
p3393
sg8
S'Good Goodbye (feat. Pusha T and Stormzy)'
p3394
ssS'1PSBzsahR2AKwLJgx8ehBj'
p3395
(dp3396
g3
S'Machine Gun Kelly'
p3397
sg5
I26
sg6
S'https://open.spotify.com/track/1PSBzsahR2AKwLJgx8ehBj'
p3398
sg8
S'Bad Things (with Camila Cabello)'
p3399
ssS'53mrVsi49rLHIaKBiSvElG'
p3400
(dp3401
g3
S'blackbear'
p3402
sg5
I11
sg6
S'https://open.spotify.com/track/53mrVsi49rLHIaKBiSvElG'
p3403
sg8
S'do re mi (feat. Gucci Mane)'
p3404
ssS'7KOlJ92bu51cltsD9KU5I7'
p3405
(dp3406
g3
S'Migos'
p3407
sg5
I39
sg6
S'https://open.spotify.com/track/7KOlJ92bu51cltsD9KU5I7'
p3408
sg8
S'T-Shirt'
p3409
ssS'0D8ZpOXVjapLXrjz5VfZSD'
p3410
(dp3411
g3
S'Sam Smith'
p3412
sg5
I1
sg6
S'https://open.spotify.com/track/0D8ZpOXVjapLXrjz5VfZSD'
p3413
sg8
S'Pray'
p3414
ssS'59e7E2LMPZ2bhW5G6aCwX8'
p3415
(dp3416
g3
S'A$AP Mob'
p3417
sg5
I6
sg6
S'https://open.spotify.com/track/59e7E2LMPZ2bhW5G6aCwX8'
p3418
sg8
S'Crazy Brazy'
p3419
ssS'3m660poUr1chesgkkjQM7P'
p3420
(dp3421
g3
S'Demi Lovato'
p3422
sg5
I2
sg6
S'https://open.spotify.com/track/3m660poUr1chesgkkjQM7P'
p3423
sg8
S'Sorry Not Sorry'
p3424
ssS'3SGWp9fJCzgK0WcpcKSQdy'
p3425
(dp3426
g3
S'Stanaj'
p3427
sg5
I9
sg6
S'https://open.spotify.com/track/3SGWp9fJCzgK0WcpcKSQdy'
p3428
sg8
S'Romantic - NOTD Remix'
p3429
ssS'3K4HG9evC7dg3N0R9cYqk4'
p3430
(dp3431
g3
S'Linkin Park'
p3432
sg5
I1
sg6
S'https://open.spotify.com/track/3K4HG9evC7dg3N0R9cYqk4'
p3433
sg8
S'One Step Closer'
p3434
ssS'1Vej0qeQ3ioKwpI6FUbRv1'
p3435
(dp3436
g3
S'Linkin Park'
p3437
sg5
I1
sg6
S'https://open.spotify.com/track/1Vej0qeQ3ioKwpI6FUbRv1'
p3438
sg8
S'Papercut'
p3439
ssS'3kkObn08oHrNmCFHSNR0jD'
p3440
(dp3441
g3
S'Lil Pump'
p3442
sg5
I14
sg6
S'https://open.spotify.com/track/3kkObn08oHrNmCFHSNR0jD'
p3443
sg8
S'Flex Like Ouu'
p3444
ssS'4C5ewaZ05vyXM23jFJdwd4'
p3445
(dp3446
g3
S'Halsey'
p3447
sg5
I1
sg6
S'https://open.spotify.com/track/4C5ewaZ05vyXM23jFJdwd4'
p3448
sg8
S'Strangers'
p3449
ssS'0QV16pno66L6K3fn4W13b7'
p3450
(dp3451
g3
S'Lil Uzi Vert'
p3452
sg5
I2
sg6
S'https://open.spotify.com/track/0QV16pno66L6K3fn4W13b7'
p3453
sg8
S'No Sleep Leak'
p3454
ssS'3ebXMykcMXOcLeJ9xZ17XH'
p3455
(dp3456
g3
S'Martin Garrix'
p3457
sg5
I22
sg6
S'https://open.spotify.com/track/3ebXMykcMXOcLeJ9xZ17XH'
p3458
sg8
S'Scared to Be Lonely'
p3459
ssS'6fujklziTHa8uoM5OQSfIo'
p3460
(dp3461
g3
S'Rae Sremmurd'
p3462
sg5
I35
sg6
S'https://open.spotify.com/track/6fujklziTHa8uoM5OQSfIo'
p3463
sg8
S'Black Beatles'
p3464
ssS'19WjVVgXjdKXfLXoaDPwTM'
p3465
(dp3466
g3
S'Taylor Swift'
p3467
sg5
I5
sg6
S'https://open.spotify.com/track/19WjVVgXjdKXfLXoaDPwTM'
p3468
sg8
S'...Ready For It?'
p3469
ssS'6UjfByV1lDLW0SOVQA4NAi'
p3470
(dp3471
g3
S'Drake'
p3472
sg5
I30
sg6
S'https://open.spotify.com/track/6UjfByV1lDLW0SOVQA4NAi'
p3473
sg8
S'Gyalchester'
p3474
ssS'4KW1lqgSr8TKrvBII0Brf8'
p3475
(dp3476
g3
S'Kanye West'
p3477
sg5
I10
sg6
S'https://open.spotify.com/track/4KW1lqgSr8TKrvBII0Brf8'
p3478
sg8
S'Father Stretch My Hands Pt. 1'
p3479
ssS'4gqMQftUs22F8pOGVn5Acr'
p3480
(dp3481
g3
S'Shawn Hook'
p3482
sg5
I5
sg6
S'https://open.spotify.com/track/4gqMQftUs22F8pOGVn5Acr'
p3483
sg8
S'Reminding Me'
p3484
ssS'3PEgB3fkiojxms35ntsTgs'
p3485
(dp3486
g3
S'Axwell /\\ Ingrosso'
p3487
sg5
I11
sg6
S'https://open.spotify.com/track/3PEgB3fkiojxms35ntsTgs'
p3488
sg8
S'More Than You Know'
p3489
ssS'1p5B1jJk75RAblZCTnzUTU'
p3490
(dp3491
g3
S'2 Chainz'
p3492
sg5
I2
sg6
S'https://open.spotify.com/track/1p5B1jJk75RAblZCTnzUTU'
p3493
sg8
S"It's A Vibe"
p3494
ssS'6CfrYuD3YRDYdYvH9jNtXY'
p3495
(dp3496
g3
S'Drake'
p3497
sg5
I6
sg6
S'https://open.spotify.com/track/6CfrYuD3YRDYdYvH9jNtXY'
p3498
sg8
S'No Long Talk'
p3499
ssS'1RLRjT3mBJ7PW83rIvE2bu'
p3500
(dp3501
g3
S'Future'
p3502
sg5
I1
sg6
S'https://open.spotify.com/track/1RLRjT3mBJ7PW83rIvE2bu'
p3503
sg8
S'Flip'
p3504
ssS'0wyja8xD9cNhDtfuY0dVMP'
p3505
(dp3506
g3
S'Thomas Rhett'
p3507
sg5
I1
sg6
S'https://open.spotify.com/track/0wyja8xD9cNhDtfuY0dVMP'
p3508
sg8
S'Leave Right Now'
p3509
ssS'7iDa6hUg2VgEL1o1HjmfBn'
p3510
(dp3511
g3
S'Bebe Rexha'
p3512
sg5
I5
sg6
S'https://open.spotify.com/track/7iDa6hUg2VgEL1o1HjmfBn'
p3513
sg8
S'Meant to Be (feat. Florida Georgia Line)'
p3514
ssS'2Xqd0wUttjueBfdcltADOv'
p3515
(dp3516
g3
S'G-Eazy'
p3517
sg5
I5
sg6
S'https://open.spotify.com/track/2Xqd0wUttjueBfdcltADOv'
p3518
sg8
S'No Limit'
p3519
ssS'4AlrLQ2RMxOwz1gTTkb4vQ'
p3520
(dp3521
g3
S'Migos'
p3522
sg5
I1
sg6
S'https://open.spotify.com/track/4AlrLQ2RMxOwz1gTTkb4vQ'
p3523
sg8
S'Deadz (feat. 2 Chainz)'
p3524
ssS'4gmmRb6bZJffOOiww1JGTO'
p3525
(dp3526
g3
S'21 Savage'
p3527
sg5
I38
sg6
S'https://open.spotify.com/track/4gmmRb6bZJffOOiww1JGTO'
p3528
sg8
S'No Heart'
p3529
ssS'0B8B8cVRFIG1yznoQe7c9s'
p3530
(dp3531
g3
S'The Chainsmokers'
p3532
sg5
I8
sg6
S'https://open.spotify.com/track/0B8B8cVRFIG1yznoQe7c9s'
p3533
sg8
S'Setting Fires'
p3534
ssS'36xxq7VDZZsGwARsn6Clo7'
p3535
(dp3536
g3
S'Big Sean'
p3537
sg5
I5
sg6
S'https://open.spotify.com/track/36xxq7VDZZsGwARsn6Clo7'
p3538
sg8
S'Living Single'
p3539
ssS'1mDGDb2fUmUMdqV3tb8VKQ'
p3540
(dp3541
g3
S'Halsey'
p3542
sg5
I1
sg6
S'https://open.spotify.com/track/1mDGDb2fUmUMdqV3tb8VKQ'
p3543
sg8
S'Now Or Never'
p3544
ssS'15EPc80XuFrb2LmOzGjuRg'
p3545
(dp3546
g3
S'GoldLink'
p3547
sg5
I12
sg6
S'https://open.spotify.com/track/15EPc80XuFrb2LmOzGjuRg'
p3548
sg8
S'Crew'
p3549
ssS'5p3NP9mQblDsVJLdfNZJ3I'
p3550
(dp3551
g3
S'Kendrick Lamar'
p3552
sg5
I8
sg6
S'https://open.spotify.com/track/5p3NP9mQblDsVJLdfNZJ3I'
p3553
sg8
S'GOD.'
p3554
ssS'7qs2GAglLWfxEfmO8u2u0A'
p3555
(dp3556
g3
S'Loote'
p3557
sg5
I5
sg6
S'https://open.spotify.com/track/7qs2GAglLWfxEfmO8u2u0A'
p3558
sg8
S'High Without Your Love'
p3559
ssS'6pDVjCUA3B1vg9waKutAsv'
p3560
(dp3561
g3
S'The Weeknd'
p3562
sg5
I4
sg6
S'https://open.spotify.com/track/6pDVjCUA3B1vg9waKutAsv'
p3563
sg8
S'Attention'
p3564
ssS'76ZrqdtkKxhMl42xAQTnFm'
p3565
(dp3566
g3
S'Logic'
p3567
sg5
I1
sg6
S'https://open.spotify.com/track/76ZrqdtkKxhMl42xAQTnFm'
p3568
sg8
S'AfricAryaN'
p3569
ssS'0pSBuHjILhNEo55xK1zrRt'
p3570
(dp3571
g3
S'Ayo & Teo'
p3572
sg5
I36
sg6
S'https://open.spotify.com/track/0pSBuHjILhNEo55xK1zrRt'
p3573
sg8
S'Rolex'
p3574
ssS'2rizacJSyD9S1IQUxUxnsK'
p3575
(dp3576
g3
S'The Chainsmokers'
p3577
sg5
I13
sg6
S'https://open.spotify.com/track/2rizacJSyD9S1IQUxUxnsK'
p3578
sg8
S'All We Know'
p3579
ssS'6DRsEO5yuEGBF87qpyMB4d'
p3580
(dp3581
g3
S'Brett Eldredge'
p3582
sg5
I1
sg6
S'https://open.spotify.com/track/6DRsEO5yuEGBF87qpyMB4d'
p3583
sg8
S"Somethin' I'm Good At"
p3584
ssS'79NlESqzFSW0hdBWgls4FX'
p3585
(dp3586
g3
S'Kesha'
p3587
sg5
I5
sg6
S'https://open.spotify.com/track/79NlESqzFSW0hdBWgls4FX'
p3588
sg8
S'Praying'
p3589
ssS'0tgVpDi06FyKpA1z0VMD4v'
p3590
(dp3591
g3
S'Ed Sheeran'
p3592
sg5
I23
sg6
S'https://open.spotify.com/track/0tgVpDi06FyKpA1z0VMD4v'
p3593
sg8
S'Perfect'
p3594
ssS'6cAKeFFYW2aClZSUyvqAEW'
p3595
(dp3596
g3
S'Isaiah'
p3597
sg5
I10
sg6
S'https://open.spotify.com/track/6cAKeFFYW2aClZSUyvqAEW'
p3598
sg8
S"It's Gotta Be You"
p3599
ssS'26hcyzSE154xMZCbFdtInA'
p3600
(dp3601
g3
S'KREAM'
p3602
sg5
I6
sg6
S'https://open.spotify.com/track/26hcyzSE154xMZCbFdtInA'
p3603
sg8
S'Taped Up Heart (feat. Clara Mae)'
p3604
ssS'0H8XeaJunhvpBdBFIYi6Sh'
p3605
(dp3606
g3
S'Post Malone'
p3607
sg5
I14
sg6
S'https://open.spotify.com/track/0H8XeaJunhvpBdBFIYi6Sh'
p3608
sg8
S'Deja Vu'
p3609
ssS'3lNfezSWDZIdt6XMwyNCJi'
p3610
(dp3611
g3
S'Migos'
p3612
sg5
I1
sg6
S'https://open.spotify.com/track/3lNfezSWDZIdt6XMwyNCJi'
p3613
sg8
S'Dab of Ranch - Recorded at Spotify Studios NYC'
p3614
ssS'34i4yxPrHWquuR4kjiivFO'
p3615
(dp3616
g3
S'V\xc3\x89RIT\xc3\x89'
p3617
sg5
I7
sg6
S'https://open.spotify.com/track/34i4yxPrHWquuR4kjiivFO'
p3618
sg8
S'Somebody Else'
p3619
ssS'5C6uh95eAL0RBTSGXKQwvk'
p3620
(dp3621
g3
S'Josh Turner'
p3622
sg5
I8
sg6
S'https://open.spotify.com/track/5C6uh95eAL0RBTSGXKQwvk'
p3623
sg8
S'Hometown Girl'
p3624
ssS'2wDjpPW3HZdA9quPPmZAMu'
p3625
(dp3626
g3
S'Cashmere Cat'
p3627
sg5
I6
sg6
S'https://open.spotify.com/track/2wDjpPW3HZdA9quPPmZAMu'
p3628
sg8
S'Trust Nobody (feat. Selena Gomez & Tory Lanez)'
p3629
ssS'3NxAG2ni1lLa8RKL6a0INc'
p3630
(dp3631
g3
S'Drake'
p3632
sg5
I3
sg6
S'https://open.spotify.com/track/3NxAG2ni1lLa8RKL6a0INc'
p3633
sg8
S'Childs Play'
p3634
ssS'54ucfuN596MU25jQD3KjCL'
p3635
(dp3636
g3
S'Lorde'
p3637
sg5
I1
sg6
S'https://open.spotify.com/track/54ucfuN596MU25jQD3KjCL'
p3638
sg8
S'Sober II (Melodrama)'
p3639
ssS'72Q0FQQo32KJloivv5xge2'
p3640
(dp3641
g3
S'DJ Khaled'
p3642
sg5
I3
sg6
S'https://open.spotify.com/track/72Q0FQQo32KJloivv5xge2'
p3643
sg8
S"I'm the One"
p3644
ssS'1JupdHkhDzE4XtrFFe9w6o'
p3645
(dp3646
g3
S'Old Dominion'
p3647
sg5
I5
sg6
S'https://open.spotify.com/track/1JupdHkhDzE4XtrFFe9w6o'
p3648
sg8
S'No Such Thing as a Broken Heart'
p3649
ssS'49EgauTc1cGkHwPGCaHh1f'
p3650
(dp3651
g3
S'Lil Yachty'
p3652
sg5
I1
sg6
S'https://open.spotify.com/track/49EgauTc1cGkHwPGCaHh1f'
p3653
sg8
S'Better'
p3654
ssS'0hNduWmlWmEmuwEFcYvRu1'
p3655
(dp3656
g3
S'Petit Biscuit'
p3657
sg5
I14
sg6
S'https://open.spotify.com/track/0hNduWmlWmEmuwEFcYvRu1'
p3658
sg8
S'Sunset Lover'
p3659
ssS'1x5sYLZiu9r5E43kMlt9f8'
p3660
(dp3661
g3
S'Clean Bandit'
p3662
sg5
I23
sg6
S'https://open.spotify.com/track/1x5sYLZiu9r5E43kMlt9f8'
p3663
sg8
S'Symphony (feat. Zara Larsson)'
p3664
ssS'3B54sVLJ402zGa6Xm4YGNe'
p3665
(dp3666
g3
S'French Montana'
p3667
sg5
I14
sg6
S'https://open.spotify.com/track/3B54sVLJ402zGa6Xm4YGNe'
p3668
sg8
S'Unforgettable'
p3669
ssS'6IeK3Ap5m3HabwJxgI6eSE'
p3670
(dp3671
g3
S'Perry Como'
p3672
sg5
I1
sg6
S'https://open.spotify.com/track/6IeK3Ap5m3HabwJxgI6eSE'
p3673
sg8
S"It's Beginning to Look a Lot Like Christmas"
p3674
ssS'5SE57ljOIUJ1ybL9U6CuBH'
p3675
(dp3676
g3
S'BTS'
p3677
sg5
I4
sg6
S'https://open.spotify.com/track/5SE57ljOIUJ1ybL9U6CuBH'
p3678
sg8
S'DNA'
p3679
ssS'4cxMGhkinTocPSVVKWIw0d'
p3680
(dp3681
g3
S'Russ'
p3682
sg5
I39
sg6
S'https://open.spotify.com/track/4cxMGhkinTocPSVVKWIw0d'
p3683
sg8
S'Losin Control'
p3684
ssS'3bVbQvGVIe4n24AzyXovXh'
p3685
(dp3686
g3
g1672
sg5
I1
sg6
S'https://open.spotify.com/track/3bVbQvGVIe4n24AzyXovXh'
p3687
sg8
g1672
ssS'2H3wWrnO758y0fPH7Ilerg'
p3688
(dp3689
g3
S'XXXTENTACION'
p3690
sg5
I5
sg6
S'https://open.spotify.com/track/2H3wWrnO758y0fPH7Ilerg'
p3691
sg8
S'Depression & Obsession'
p3692
ssS'6D0b04NJIKfEMg040WioJQ'
p3693
(dp3694
g3
S'Julia Michaels'
p3695
sg5
I2
sg6
S'https://open.spotify.com/track/6D0b04NJIKfEMg040WioJQ'
p3696
sg8
S'Issues'
p3697
ssS'6SwRhMLwNqEi6alNPVG00n'
p3698
(dp3699
g3
S'Kendrick Lamar'
p3700
sg5
I26
sg6
S'https://open.spotify.com/track/6SwRhMLwNqEi6alNPVG00n'
p3701
sg8
S'LOYALTY. FEAT. RIHANNA.'
p3702
ssS'2HzfRSfCogBSsgW2CckVA2'
p3703
(dp3704
g3
S'Luke Christopher'
p3705
sg5
I1
sg6
S'https://open.spotify.com/track/2HzfRSfCogBSsgW2CckVA2'
p3706
sg8
S'Lot to Learn'
p3707
ssS'439TlnnznSiBbQbgXiBqAd'
p3708
(dp3709
g3
S'Kendrick Lamar'
p3710
sg5
I5
sg6
S'https://open.spotify.com/track/439TlnnznSiBbQbgXiBqAd'
p3711
sg8
S'm.A.A.d city'
p3712
ssS'2f9LSU0aBW04w6KL26DW8r'
p3713
(dp3714
g3
S'WizKid'
p3715
sg5
I1
sg6
S'https://open.spotify.com/track/2f9LSU0aBW04w6KL26DW8r'
p3716
sg8
S'Come Closer'
p3717
ssS'6mb6lVLNrcUgLnEN8QnDJd'
p3718
(dp3719
g3
S"Auli'i Cravalho"
p3720
sg5
I18
sg6
S'https://open.spotify.com/track/6mb6lVLNrcUgLnEN8QnDJd'
p3721
sg8
S"How Far I'll Go"
p3722
ssS'33z5crv3IO5U2BOi8xod92'
p3723
(dp3724
g3
S'Wiz Khalifa'
p3725
sg5
I1
sg6
S'https://open.spotify.com/track/33z5crv3IO5U2BOi8xod92'
p3726
sg8
S'Something New (feat. Ty Dolla $ign)'
p3727
ssS'0tKcYR2II1VCQWT79i5NrW'
p3728
(dp3729
g3
S'Imagine Dragons'
p3730
sg5
I21
sg6
S'https://open.spotify.com/track/0tKcYR2II1VCQWT79i5NrW'
p3731
sg8
S'Thunder'
p3732
ssS'31mqc7EKPsJf3pe6H5jEfC'
p3733
(dp3734
g3
S'Joey Bada$$'
p3735
sg5
I1
sg6
S'https://open.spotify.com/track/31mqc7EKPsJf3pe6H5jEfC'
p3736
sg8
S'ROCKABYE BABY (feat. ScHoolboy Q)'
p3737
ssS'6j0teRL3WdExzqmy334sh5'
p3738
(dp3739
g3
S'Lil Uzi Vert'
p3740
sg5
I2
sg6
S'https://open.spotify.com/track/6j0teRL3WdExzqmy334sh5'
p3741
sg8
S'Seven Million (feat. Future)'
p3742
ssS'4r4PJQBHAE0bIKCjunhTgd'
p3743
(dp3744
g3
S'2 Chainz'
p3745
sg5
I1
sg6
S'https://open.spotify.com/track/4r4PJQBHAE0bIKCjunhTgd'
p3746
sg8
S'4 AM'
p3747
ssS'6DNtNfH8hXkqOX1sjqmI7p'
p3748
(dp3749
g3
S'Major Lazer'
p3750
sg5
I18
sg6
S'https://open.spotify.com/track/6DNtNfH8hXkqOX1sjqmI7p'
p3751
sg8
S'Cold Water (feat. Justin Bieber & M\xc3\x98)'
p3752
ssS'5NNlUMcOEOdoOIwwaWXv0k'
p3753
(dp3754
g3
S'Maroon 5'
p3755
sg5
I17
sg6
S'https://open.spotify.com/track/5NNlUMcOEOdoOIwwaWXv0k'
p3756
sg8
S'Cold'
p3757
ssS'5bcTCxgc7xVfSaMV3RuVke'
p3758
(dp3759
g3
S'Calvin Harris'
p3760
sg5
I16
sg6
S'https://open.spotify.com/track/5bcTCxgc7xVfSaMV3RuVke'
p3761
sg8
S'Feels'
p3762
ssS'70nMgdn0StiYRaDqTGJeCO'
p3763
(dp3764
g3
S'Future'
p3765
sg5
I1
sg6
S'https://open.spotify.com/track/70nMgdn0StiYRaDqTGJeCO'
p3766
sg8
S'Fresh Air'
p3767
ssS'1sXUWdKx03aP9Gmzft58rt'
p3768
(dp3769
g3
S'Julia Michaels'
p3770
sg5
I28
sg6
S'https://open.spotify.com/track/1sXUWdKx03aP9Gmzft58rt'
p3771
sg8
S'Issues'
p3772
ssS'32zhF8yXc1lej5EcudJXp7'
p3773
(dp3774
g3
S'Lil Pump'
p3775
sg5
I1
sg6
S'https://open.spotify.com/track/32zhF8yXc1lej5EcudJXp7'
p3776
sg8
S'Back (feat. Lil Yachty)'
p3777
ssS'3QiAAp20rPC3dcAtKtMaqQ'
p3778
(dp3779
g3
S'Elvis Presley'
p3780
sg5
I1
sg6
S'https://open.spotify.com/track/3QiAAp20rPC3dcAtKtMaqQ'
p3781
sg8
S'Blue Christmas'
p3782
ssS'5hx4FpDZOnDVYlyoG3rMks'
p3783
(dp3784
g3
S'Lil Yachty'
p3785
sg5
I11
sg6
S'https://open.spotify.com/track/5hx4FpDZOnDVYlyoG3rMks'
p3786
sg8
S'Peek A Boo'
p3787
ssS'1zayuwd1YLZsYDArkruHdL'
p3788
(dp3789
g3
S'Kendrick Lamar'
p3790
sg5
I5
sg6
S'https://open.spotify.com/track/1zayuwd1YLZsYDArkruHdL'
p3791
sg8
S'The Heart Part 4'
p3792
ssS'7mz8bgoIWwAjUBXeWUHphh'
p3793
(dp3794
g3
S'YFN Lucci'
p3795
sg5
I1
sg6
S'https://open.spotify.com/track/7mz8bgoIWwAjUBXeWUHphh'
p3796
sg8
S'Everyday We Lit'
p3797
ssS'4L7Y2OAPiY2I2GndZjAs5K'
p3798
(dp3799
g3
S'Lana Del Rey'
p3800
sg5
I1
sg6
S'https://open.spotify.com/track/4L7Y2OAPiY2I2GndZjAs5K'
p3801
sg8
S'Lust For Life (with The Weeknd)'
p3802
ssS'6p5GuyEqQH5pv02ouEyogQ'
p3803
(dp3804
g3
S'Dylan Scott'
p3805
sg5
I3
sg6
S'https://open.spotify.com/track/6p5GuyEqQH5pv02ouEyogQ'
p3806
sg8
S'My Girl'
p3807
ssS'4BHSjbYylfOH5WAGusDyni'
p3808
(dp3809
g3
S'Kendrick Lamar'
p3810
sg5
I10
sg6
S'https://open.spotify.com/track/4BHSjbYylfOH5WAGusDyni'
p3811
sg8
S'YAH.'
p3812
ssS'4uoumbAMEMaKdtiv763jKz'
p3813
(dp3814
g3
S'Zara Larsson'
p3815
sg5
I7
sg6
S'https://open.spotify.com/track/4uoumbAMEMaKdtiv763jKz'
p3816
sg8
S'TG4M'
p3817
ssS'0dyiHoYbYjYaOEXLpmzQZG'
p3818
(dp3819
g3
S'Lorde'
p3820
sg5
I1
sg6
S'https://open.spotify.com/track/0dyiHoYbYjYaOEXLpmzQZG'
p3821
sg8
S'Supercut'
p3822
ssS'6WhzFzROw3aq3rPWjgYlxr'
p3823
(dp3824
g3
S'Kiiara'
p3825
sg5
I6
sg6
S'https://open.spotify.com/track/6WhzFzROw3aq3rPWjgYlxr'
p3826
sg8
S'Gold'
p3827
ssS'6TIU9Ehmi6dMzZK73Ym4yj'
p3828
(dp3829
g3
S'Ed Sheeran'
p3830
sg5
I3
sg6
S'https://open.spotify.com/track/6TIU9Ehmi6dMzZK73Ym4yj'
p3831
sg8
S'Save Myself'
p3832
ssS'2pJZ1v8HezrAoZ0Fhzby92'
p3833
(dp3834
g3
S'Ed Sheeran'
p3835
sg5
I5
sg6
S'https://open.spotify.com/track/2pJZ1v8HezrAoZ0Fhzby92'
p3836
sg8
S'What Do I Know?'
p3837
ssS'0KKkJNfGyhkQ5aFogxQAPU'
p3838
(dp3839
g3
S'Bruno Mars'
p3840
sg5
I42
sg6
S'https://open.spotify.com/track/0KKkJNfGyhkQ5aFogxQAPU'
p3841
sg8
S"That's What I Like"
p3842
ssS'1Slwb6dOYkBlWal1PGtnNg'
p3843
(dp3844
g3
S'Ed Sheeran'
p3845
sg5
I10
sg6
S'https://open.spotify.com/track/1Slwb6dOYkBlWal1PGtnNg'
p3846
sg8
S'Thinking Out Loud'
p3847
ssS'2mNbgyi0gori4b1rFSPgIb'
p3848
(dp3849
g3
S'Lorde'
p3850
sg5
I1
sg6
S'https://open.spotify.com/track/2mNbgyi0gori4b1rFSPgIb'
p3851
sg8
S'Sober'
p3852
ssS'1u0MOgWF1bbylVxpJG2ZjB'
p3853
(dp3854
g3
S'Big Sean'
p3855
sg5
I3
sg6
S'https://open.spotify.com/track/1u0MOgWF1bbylVxpJG2ZjB'
p3856
sg8
S'Owe Me'
p3857
ssS'4KVVCo25PROevpOdHyvYRk'
p3858
(dp3859
g3
S'Bryson Tiller'
p3860
sg5
I1
sg6
S'https://open.spotify.com/track/4KVVCo25PROevpOdHyvYRk'
p3861
sg8
S'Teach Me a Lesson'
p3862
ssS'6qcuRcbz8DCLG6nG4or8Uo'
p3863
(dp3864
g3
S'Russ'
p3865
sg5
I1
sg6
S'https://open.spotify.com/track/6qcuRcbz8DCLG6nG4or8Uo'
p3866
sg8
S'Cherry Hill'
p3867
ssS'6lFDB0BFDRV58qaQDX85jV'
p3868
(dp3869
g3
S'Lorde'
p3870
sg5
I1
sg6
S'https://open.spotify.com/track/6lFDB0BFDRV58qaQDX85jV'
p3871
sg8
S'Liability (Reprise)'
p3872
ssS'4IdAIZRVkwuQQnHpi529cn'
p3873
(dp3874
g3
S'Bryson Tiller'
p3875
sg5
I1
sg6
S'https://open.spotify.com/track/4IdAIZRVkwuQQnHpi529cn'
p3876
sg8
S'No Longer Friends'
p3877
ssS'2habSXqcJGExM6JJyskY7O'
p3878
(dp3879
g3
S'Miley Cyrus'
p3880
sg5
I18
sg6
S'https://open.spotify.com/track/2habSXqcJGExM6JJyskY7O'
p3881
sg8
S'Malibu'
p3882
ssS'5Ua3GXyHwiSfpNTMjq6m2z'
p3883
(dp3884
g3
S'Little Mix'
p3885
sg5
I9
sg6
S'https://open.spotify.com/track/5Ua3GXyHwiSfpNTMjq6m2z'
p3886
sg8
S'Touch'
p3887
ssS'6i0V12jOa3mr6uu4WYhUBr'
p3888
(dp3889
g3
S'Twenty One Pilots'
p3890
sg5
I32
sg6
S'https://open.spotify.com/track/6i0V12jOa3mr6uu4WYhUBr'
p3891
sg8
S'Heathens'
p3892
ssS'4SO6Wonm24FAHzttG1lIeJ'
p3893
(dp3894
g3
S'HAIM'
p3895
sg5
I1
sg6
S'https://open.spotify.com/track/4SO6Wonm24FAHzttG1lIeJ'
p3896
sg8
S'Want You Back'
p3897
ssS'1louJpMmzEicAn7lzDalPW'
p3898
(dp3899
g3
S'Cheat Codes'
p3900
sg5
I28
sg6
S'https://open.spotify.com/track/1louJpMmzEicAn7lzDalPW'
p3901
sg8
S'No Promises (feat. Demi Lovato)'
p3902
ssS'0w3Q14i073jLoew1hgJkwD'
p3903
(dp3904
g3
S'Jon Pardi'
p3905
sg5
I15
sg6
S'https://open.spotify.com/track/0w3Q14i073jLoew1hgJkwD'
p3906
sg8
S'Heartache On The Dance Floor'
p3907
ssS'1GFvYZ72Ca67UG9Kdjjk3C'
p3908
(dp3909
g3
S'21 Savage'
p3910
sg5
I1
sg6
S'https://open.spotify.com/track/1GFvYZ72Ca67UG9Kdjjk3C'
p3911
sg8
S'Thug Life'
p3912
ssS'6yMxfx9wpiuhhdb8vHDVMu'
p3913
(dp3914
g3
S'Meek Mill'
p3915
sg5
I3
sg6
S'https://open.spotify.com/track/6yMxfx9wpiuhhdb8vHDVMu'
p3916
sg8
S'Whatever You Need (feat. Chris Brown & Ty Dolla $ign)'
p3917
ssS'40UroIGvsMPLPBYwH8rMNA'
p3918
(dp3919
g3
S'Vice'
p3920
sg5
I7
sg6
S'https://open.spotify.com/track/40UroIGvsMPLPBYwH8rMNA'
p3921
sg8
S'Steady 1234 (feat. Jasmine Thompson & Skizzy Mars)'
p3922
ssS'0BU7nIcCZxYSE0hYcc5oZz'
p3923
(dp3924
g3
S'Kodak Black'
p3925
sg5
I28
sg6
S'https://open.spotify.com/track/0BU7nIcCZxYSE0hYcc5oZz'
p3926
sg8
S'Too Many Years'
p3927
ssS'6kig1UFggPUyZBCvXD3Wod'
p3928
(dp3929
g3
S'Metro Boomin'
p3930
sg5
I16
sg6
S'https://open.spotify.com/track/6kig1UFggPUyZBCvXD3Wod'
p3931
sg8
S'No Complaints'
p3932
ssS'6fxVffaTuwjgEk5h9QyRjy'
p3933
(dp3934
g3
S'Ed Sheeran'
p3935
sg5
I10
sg6
S'https://open.spotify.com/track/6fxVffaTuwjgEk5h9QyRjy'
p3936
sg8
S'Photograph'
p3937
ssS'0w5Bdu51Ka25Pf3hojsKHh'
p3938
(dp3939
g3
S'Paramore'
p3940
sg5
I3
sg6
S'https://open.spotify.com/track/0w5Bdu51Ka25Pf3hojsKHh'
p3941
sg8
S'Hard Times'
p3942
ssS'045SnNDjOfOLKM5OxARH4g'
p3943
(dp3944
g3
S'Dustin Lynch'
p3945
sg5
I10
sg6
S'https://open.spotify.com/track/045SnNDjOfOLKM5OxARH4g'
p3946
sg8
S'Small Town Boy'
p3947
ssS'0qYTZCo5Bwh1nsUFGZP3zn'
p3948
(dp3949
g3
S'Maluma'
p3950
sg5
I23
sg6
S'https://open.spotify.com/track/0qYTZCo5Bwh1nsUFGZP3zn'
p3951
sg8
S'Felices los 4'
p3952
ssS'1VdZ0vKfR5jneCmWIUAMxK'
p3953
(dp3954
g3
S'Ed Sheeran'
p3955
sg5
I1
sg6
S'https://open.spotify.com/track/1VdZ0vKfR5jneCmWIUAMxK'
p3956
sg8
S'The A Team'
p3957
ssS'13e6f8t7RKXuxZ0JdaaJRG'
p3958
(dp3959
g3
S'Drake'
p3960
sg5
I6
sg6
S'https://open.spotify.com/track/13e6f8t7RKXuxZ0JdaaJRG'
p3961
sg8
S'Jorja Interlude'
p3962
ssS'6nxQdXa1uAL0rY72wPZu89'
p3963
(dp3964
g3
S'John Legend'
p3965
sg5
I11
sg6
S'https://open.spotify.com/track/6nxQdXa1uAL0rY72wPZu89'
p3966
sg8
S'Love Me Now'
p3967
ssS'65kp3OFn7JXbCvkm3m2Ui2'
p3968
(dp3969
g3
S'Lil Uzi Vert'
p3970
sg5
I2
sg6
S'https://open.spotify.com/track/65kp3OFn7JXbCvkm3m2Ui2'
p3971
sg8
S'Two\xc2\xae'
p3972
ssS'6kex4EBAj0WHXDKZMEJaaF'
p3973
(dp3974
g3
S'Jason Derulo'
p3975
sg5
I30
sg6
S'https://open.spotify.com/track/6kex4EBAj0WHXDKZMEJaaF'
p3976
sg8
S'Swalla (feat. Nicki Minaj & Ty Dolla $ign)'
p3977
ssS'10I3CmmwT0BkOVhduDy53o'
p3978
(dp3979
g3
S'Kevin Gates'
p3980
sg5
I5
sg6
S'https://open.spotify.com/track/10I3CmmwT0BkOVhduDy53o'
p3981
sg8
S'Really Really'
p3982
ssS'63NTlJWNS65JjsE3QJYr20'
p3983
(dp3984
g3
S'Nicki Minaj'
p3985
sg5
I1
sg6
S'https://open.spotify.com/track/63NTlJWNS65JjsE3QJYr20'
p3986
sg8
S'Changed It'
p3987
ssS'6XGddj522FQRHXEhBtjiJu'
p3988
(dp3989
g3
S'Gorillaz'
p3990
sg5
I1
sg6
S'https://open.spotify.com/track/6XGddj522FQRHXEhBtjiJu'
p3991
sg8
S'Strobelite (feat. Peven Everett)'
p3992
ssS'54h8xHewdRPnYzmbEHBhOO'
p3993
(dp3994
g3
S'Imagine Dragons'
p3995
sg5
I1
sg6
S'https://open.spotify.com/track/54h8xHewdRPnYzmbEHBhOO'
p3996
sg8
S'I\xe2\x80\x99ll Make It Up To You'
p3997
ssS'4uhvMW7ly7tJil31YYscAN'
p3998
(dp3999
g3
S'Lil Uzi Vert'
p4000
sg5
I25
sg6
S'https://open.spotify.com/track/4uhvMW7ly7tJil31YYscAN'
p4001
sg8
S'Erase Your Social'
p4002
ssS'0gbBzIqrECJOEPvQJIBFs5'
p4003
(dp4004
g3
S'Lorde'
p4005
sg5
I13
sg6
S'https://open.spotify.com/track/0gbBzIqrECJOEPvQJIBFs5'
p4006
sg8
S'Green Light'
p4007
ssS'08WPvDEsHvTFuB9w8tC2OS'
p4008
(dp4009
g3
S'Sage The Gemini'
p4010
sg5
I1
sg6
S'https://open.spotify.com/track/08WPvDEsHvTFuB9w8tC2OS'
p4011
sg8
S'Now and Later'
p4012
ssS'4ZJPwET9Jrgpkqi4Vo3Yg8'
p4013
(dp4014
g3
S'Bebe Rexha'
p4015
sg5
I8
sg6
S'https://open.spotify.com/track/4ZJPwET9Jrgpkqi4Vo3Yg8'
p4016
sg8
S'Bad Bitch (feat. Ty Dolla $ign)'
p4017
ssS'5wIeuNURiubue1VTcglU57'
p4018
(dp4019
g3
S'Kesha'
p4020
sg5
I1
sg6
S'https://open.spotify.com/track/5wIeuNURiubue1VTcglU57'
p4021
sg8
S'Woman'
p4022
ssS'0HtOJj7Kl74s1Ngf3MWeif'
p4023
(dp4024
g3
S'J. Cole'
p4025
sg5
I4
sg6
S'https://open.spotify.com/track/0HtOJj7Kl74s1Ngf3MWeif'
p4026
sg8
S"She's Mine Pt. 1"
p4027
ssS'27GmP9AWRs744SzKcpJsTZ'
p4028
(dp4029
g3
S'Drake'
p4030
sg5
I18
sg6
S'https://open.spotify.com/track/27GmP9AWRs744SzKcpJsTZ'
p4031
sg8
S'Jumpman'
p4032
ssS'1Dp7JGFNjvg8Nk0CtMCcnr'
p4033
(dp4034
g3
S'Lorde'
p4035
sg5
I1
sg6
S'https://open.spotify.com/track/1Dp7JGFNjvg8Nk0CtMCcnr'
p4036
sg8
S'Hard Feelings/Loveless'
p4037
ssS'0Fv5N0cHBsl4bzCbollCAS'
p4038
(dp4039
g3
S'Big Sean'
p4040
sg5
I35
sg6
S'https://open.spotify.com/track/0Fv5N0cHBsl4bzCbollCAS'
p4041
sg8
S'Moves'
p4042
ssS'7KXjTSCq5nL1LoYtL7XAwS'
p4043
(dp4044
g3
S'Kendrick Lamar'
p4045
sg5
I28
sg6
S'https://open.spotify.com/track/7KXjTSCq5nL1LoYtL7XAwS'
p4046
sg8
S'HUMBLE.'
p4047
ssS'5tkDCf3xKRZjT5RbCb3sZB'
p4048
(dp4049
g3
S'2 Chainz'
p4050
sg5
I1
sg6
S'https://open.spotify.com/track/5tkDCf3xKRZjT5RbCb3sZB'
p4051
sg8
S'Big Amount'
p4052
ssS'2Ae5awwKvQpTBKQHr1TYCg'
p4053
(dp4054
g3
S'Nause'
p4055
sg5
I3
sg6
S'https://open.spotify.com/track/2Ae5awwKvQpTBKQHr1TYCg'
p4056
sg8
S'Dynamite (feat. Pretty Sister)'
p4057
ssS'5SFTZsHW3HdCp9f1zbzitS'
p4058
(dp4059
g3
S'XXXTENTACION'
p4060
sg5
I1
sg6
S'https://open.spotify.com/track/5SFTZsHW3HdCp9f1zbzitS'
p4061
sg8
S'Revenge'
p4062
ssS'1xpXnpIpuvzpx9jz15baJF'
p4063
(dp4064
g3
S'NAV'
p4065
sg5
I1
sg6
S'https://open.spotify.com/track/1xpXnpIpuvzpx9jz15baJF'
p4066
sg8
S'Call Me'
p4067
ssS'1KZ0Xo6Mmeprp1Sw5xCHYz'
p4068
(dp4069
g3
S'Rick Ross'
p4070
sg5
I3
sg6
S'https://open.spotify.com/track/1KZ0Xo6Mmeprp1Sw5xCHYz'
p4071
sg8
S'Trap Trap Trap'
p4072
ssS'7lsYGc5H5DHktxO7gbB8bN'
p4073
(dp4074
g3
S'The Weeknd'
p4075
sg5
I1
sg6
S'https://open.spotify.com/track/7lsYGc5H5DHktxO7gbB8bN'
p4076
sg8
S'Ordinary Life'
p4077
ssS'6foxplXS0YEq8cO374Lty4'
p4078
(dp4079
g3
S'Lil Pump'
p4080
sg5
I5
sg6
S'https://open.spotify.com/track/6foxplXS0YEq8cO374Lty4'
p4081
sg8
S'Gucci Gang'
p4082
ssS'6Na5uKk5SsqZimk0hAWo8y'
p4083
(dp4084
g3
S'Drake'
p4085
sg5
I2
sg6
S'https://open.spotify.com/track/6Na5uKk5SsqZimk0hAWo8y'
p4086
sg8
S'Signs'
p4087
ssS'09KlDlkOYuC5x6hOaM7vaP'
p4088
(dp4089
g3
S'Fifth Harmony'
p4090
sg5
I1
sg6
S'https://open.spotify.com/track/09KlDlkOYuC5x6hOaM7vaP'
p4091
sg8
S'Angel'
p4092
ssS'74ODGXs4byLTRdnKGM4s6E'
p4093
(dp4094
g3
S'LANY'
p4095
sg5
I11
sg6
S'https://open.spotify.com/track/74ODGXs4byLTRdnKGM4s6E'
p4096
sg8
S'Super Far'
p4097
ssS'0AICBlLzFCTpUqmAbtzB2z'
p4098
(dp4099
g3
S'Trippie Redd'
p4100
sg5
I6
sg6
S'https://open.spotify.com/track/0AICBlLzFCTpUqmAbtzB2z'
p4101
sg8
S'Love Scars'
p4102
ssS'0n2bvWvMwr0gbjcuTm92eW'
p4103
(dp4104
g3
S'Lana Del Rey'
p4105
sg5
I3
sg6
S'https://open.spotify.com/track/0n2bvWvMwr0gbjcuTm92eW'
p4106
sg8
S'Love'
p4107
ssS'6CUBgX8bXC5YQCkdgRHqyg'
p4108
(dp4109
g3
S'blackbear'
p4110
sg5
I4
sg6
S'https://open.spotify.com/track/6CUBgX8bXC5YQCkdgRHqyg'
p4111
sg8
S'do re mi'
p4112
ssS'7JYsArznYOjX2jsrT3UEnL'
p4113
(dp4114
g3
S'Young M.A'
p4115
sg5
I12
sg6
S'https://open.spotify.com/track/7JYsArznYOjX2jsrT3UEnL'
p4116
sg8
S'OOOUUU'
p4117
ssS'1MJErNPIQUoEMu4YUUmecm'
p4118
(dp4119
g3
S'Lil Uzi Vert'
p4120
sg5
I6
sg6
S'https://open.spotify.com/track/1MJErNPIQUoEMu4YUUmecm'
p4121
sg8
S'Neon Guts (feat. Pharrell Williams)'
p4122
ssS'4kfm1uI9QGaoN9qm6CkAMn'
p4123
(dp4124
g3
S'Linkin Park'
p4125
sg5
I1
sg6
S'https://open.spotify.com/track/4kfm1uI9QGaoN9qm6CkAMn'
p4126
sg8
S"What I've Done"
p4127
ssS'69bp2EbF7Q2rqc5N3ylezZ'
p4128
(dp4129
g3
S'Justin Bieber'
p4130
sg5
I6
sg6
S'https://open.spotify.com/track/69bp2EbF7Q2rqc5N3ylezZ'
p4131
sg8
S'Sorry'
p4132
ssS'6eL1ncVDtQHgSm3E288TS7'
p4133
(dp4134
g3
S'Vince Staples'
p4135
sg5
I1
sg6
S'https://open.spotify.com/track/6eL1ncVDtQHgSm3E288TS7'
p4136
sg8
S'Big Fish'
p4137
ssS'2MnJoNVtf0pw7HUn3I1Tih'
p4138
(dp4139
g3
S'21 Savage'
p4140
sg5
I2
sg6
S'https://open.spotify.com/track/2MnJoNVtf0pw7HUn3I1Tih'
p4141
sg8
S'Bad Business'
p4142
ssS'2cnKEkpVUSV4wnjQiTWfH6'
p4143
(dp4144
g3
S'Wisin'
p4145
sg5
I17
sg6
S'https://open.spotify.com/track/2cnKEkpVUSV4wnjQiTWfH6'
p4146
sg8
S'Esc\xc3\xa1pate Conmigo'
p4147
ssS'2dqLk7ezV15LEJEwUmEbXB'
p4148
(dp4149
g3
S'Marian Hill'
p4150
sg5
I14
sg6
S'https://open.spotify.com/track/2dqLk7ezV15LEJEwUmEbXB'
p4151
sg8
S'Down'
p4152
ssS'4qdgv45EPcQqpQ08tF34f8'
p4153
(dp4154
g3
S'MadeinTYO'
p4155
sg5
I6
sg6
S'https://open.spotify.com/track/4qdgv45EPcQqpQ08tF34f8'
p4156
sg8
S'Skateboard P'
p4157
ssS'4iLqG9SeJSnt0cSPICSjxv'
p4158
(dp4159
g3
S'Charlie Puth'
p4160
sg5
I25
sg6
S'https://open.spotify.com/track/4iLqG9SeJSnt0cSPICSjxv'
p4161
sg8
S'Attention'
p4162
ssS'15dnkAHcHC0vrIUlbiPiqU'
p4163
(dp4164
g3
S'Imagine Dragons'
p4165
sg5
I1
sg6
S'https://open.spotify.com/track/15dnkAHcHC0vrIUlbiPiqU'
p4166
sg8
S'I Don\xe2\x80\x99t Know Why'
p4167
ssS'6RUKPb4LETWmmr3iAEQktW'
p4168
(dp4169
g3
S'The Chainsmokers'
p4170
sg5
I34
sg6
S'https://open.spotify.com/track/6RUKPb4LETWmmr3iAEQktW'
p4171
sg8
S'Something Just Like This'
p4172
ssS'3mRcWCyteY2133a7xVMrYw'
p4173
(dp4174
g3
S'Future'
p4175
sg5
I16
sg6
S'https://open.spotify.com/track/3mRcWCyteY2133a7xVMrYw'
p4176
sg8
S'Comin Out Strong'
p4177
ssS'0VhgEqMTNZwYL1ARDLLNCX'
p4178
(dp4179
g3
S'James Arthur'
p4180
sg5
I5
sg6
S'https://open.spotify.com/track/0VhgEqMTNZwYL1ARDLLNCX'
p4181
sg8
S'Can I Be Him'
p4182
ssS'5abwHwUhywLGNli5NDcEN7'
p4183
(dp4184
g3
S'Thomas Gold'
p4185
sg5
I5
sg6
S'https://open.spotify.com/track/5abwHwUhywLGNli5NDcEN7'
p4186
sg8
S'Magic'
p4187
ssS'65MOTX6uSFAnqXl7dlAuId'
p4188
(dp4189
g3
S'Demi Lovato'
p4190
sg5
I1
sg6
S'https://open.spotify.com/track/65MOTX6uSFAnqXl7dlAuId'
p4191
sg8
S'Tell Me You Love Me'
p4192
ssS'3gfmFoJgmn9LiIj5mV8oSS'
p4193
(dp4194
g3
S'R3HAB'
p4195
sg5
I3
sg6
S'https://open.spotify.com/track/3gfmFoJgmn9LiIj5mV8oSS'
p4196
sg8
S"I Just Can't"
p4197
ssS'21PYvZScoUng2OZNj21VTh'
p4198
(dp4199
g3
S'2 Chainz'
p4200
sg5
I1
sg6
S'https://open.spotify.com/track/21PYvZScoUng2OZNj21VTh'
p4201
sg8
S'Trap Check'
p4202
ssS'2ZdCrBA52bb4pIG3tOOZiQ'
p4203
(dp4204
g3
S'Lil Uzi Vert'
p4205
sg5
I7
sg6
S'https://open.spotify.com/track/2ZdCrBA52bb4pIG3tOOZiQ'
p4206
sg8
S'Dark Queen'
p4207
ssS'1xznGGDReH1oQq0xzbwXa3'
p4208
(dp4209
g3
S'Drake'
p4210
sg5
I42
sg6
S'https://open.spotify.com/track/1xznGGDReH1oQq0xzbwXa3'
p4211
sg8
S'One Dance'
p4212
ssS'5GXAXm5YOmYT0kL5jHvYBt'
p4213
(dp4214
g3
S'The Weeknd'
p4215
sg5
I40
sg6
S'https://open.spotify.com/track/5GXAXm5YOmYT0kL5jHvYBt'
p4216
sg8
S'I Feel It Coming'
p4217
ssS'7EAFj7eJcMF5koWSRJVZcL'
p4218
(dp4219
g3
S'Keith Urban'
p4220
sg5
I2
sg6
S'https://open.spotify.com/track/7EAFj7eJcMF5koWSRJVZcL'
p4221
sg8
S'The Fighter'
p4222
ssS'1wZqJM5FGDEl3FjHDxDyQd'
p4223
(dp4224
g3
S'PARTYNEXTDOOR'
p4225
sg5
I25
sg6
S'https://open.spotify.com/track/1wZqJM5FGDEl3FjHDxDyQd'
p4226
sg8
S'Come and See Me (feat. Drake)'
p4227
ssS'6IZvVAP7VPPnsGX6bvgkqg'
p4228
(dp4229
g3
S'Kendrick Lamar'
p4230
sg5
I9
sg6
S'https://open.spotify.com/track/6IZvVAP7VPPnsGX6bvgkqg'
p4231
sg8
S'PRIDE.'
p4232
ssS'0lMbuWUpfTWhEmOKxppEau'
p4233
(dp4234
g3
S'Calvin Harris'
p4235
sg5
I16
sg6
S'https://open.spotify.com/track/0lMbuWUpfTWhEmOKxppEau'
p4236
sg8
S'Rollin'
p4237
ssS'508hbpTQ7wclT2JDpKBUSV'
p4238
(dp4239
g3
S'Lorde'
p4240
sg5
I1
sg6
S'https://open.spotify.com/track/508hbpTQ7wclT2JDpKBUSV'
p4241
sg8
S'Perfect Places'
p4242
ssS'0ZiRSqlSsDlY0UyDYU9CTE'
p4243
(dp4244
g3
S'Thomas Rhett'
p4245
sg5
I6
sg6
S'https://open.spotify.com/track/0ZiRSqlSsDlY0UyDYU9CTE'
p4246
sg8
S'Unforgettable'
p4247
ssS'62vpWI1CHwFy7tMIcSStl8'
p4248
(dp4249
g3
S'J. Cole'
p4250
sg5
I42
sg6
S'https://open.spotify.com/track/62vpWI1CHwFy7tMIcSStl8'
p4251
sg8
S'No Role Modelz'
p4252
ssS'4sQMalN597HdggTu196aL0'
p4253
(dp4254
g3
S'Flume'
p4255
sg5
I4
sg6
S'https://open.spotify.com/track/4sQMalN597HdggTu196aL0'
p4256
sg8
S'Say It (feat. Tove Lo)'
p4257
ssS'51ChrwmUPDJvedPQnIU8Ls'
p4258
(dp4259
g3
S'Ed Sheeran'
p4260
sg5
I8
sg6
S'https://open.spotify.com/track/51ChrwmUPDJvedPQnIU8Ls'
p4261
sg8
S'Dive'
p4262
ssS'4B1rpPmQXwj78wk6aIGwwU'
p4263
(dp4264
g3
S'Harry Styles'
p4265
sg5
I2
sg6
S'https://open.spotify.com/track/4B1rpPmQXwj78wk6aIGwwU'
p4266
sg8
S'Two Ghosts'
p4267
ssS'4GP2Idcs08NqAjfEV0rsl6'
p4268
(dp4269
g3
S'Logic'
p4270
sg5
I1
sg6
S'https://open.spotify.com/track/4GP2Idcs08NqAjfEV0rsl6'
p4271
sg8
S'Waiting Room'
p4272
ssS'2Es3LsoQwFJNfpQYRWxfS9'
p4273
(dp4274
g3
S'Chucho Flash'
p4275
sg5
I3
sg6
S'https://open.spotify.com/track/2Es3LsoQwFJNfpQYRWxfS9'
p4276
sg8
S'Tu Sabes Que Te Quiero'
p4277
ssS'2mfUa8bLs2s5N4VaqJZ4lZ'
p4278
(dp4279
g3
S'Hailee Steinfeld'
p4280
sg5
I24
sg6
S'https://open.spotify.com/track/2mfUa8bLs2s5N4VaqJZ4lZ'
p4281
sg8
S'Most Girls'
p4282
ssS'2q0VexHJirnUPnEOhr2DxK'
p4283
(dp4284
g3
S'Frank Ocean'
p4285
sg5
I2
sg6
S'https://open.spotify.com/track/2q0VexHJirnUPnEOhr2DxK'
p4286
sg8
S'Biking'
p4287
ssS'1vVNlXi8gf8tZ7OhnEs4VE'
p4288
(dp4289
g3
S'French Montana'
p4290
sg5
I2
sg6
S'https://open.spotify.com/track/1vVNlXi8gf8tZ7OhnEs4VE'
p4291
sg8
S'A Lie'
p4292
ssS'0SGkqnVQo9KPytSri1H6cF'
p4293
(dp4294
g3
S'Big Sean'
p4295
sg5
I42
sg6
S'https://open.spotify.com/track/0SGkqnVQo9KPytSri1H6cF'
p4296
sg8
S'Bounce Back'
p4297
ssS'3LyNsopPP3hXf8bZBE7cDk'
p4298
(dp4299
g3
S'A$AP Mob'
p4300
sg5
I1
sg6
S'https://open.spotify.com/track/3LyNsopPP3hXf8bZBE7cDk'
p4301
sg8
S'Please Shut Up'
p4302
ssS'7nKBxz47S9SD79N086fuhn'
p4303
(dp4304
g3
S'Enrique Iglesias'
p4305
sg5
I1
sg6
S'https://open.spotify.com/track/7nKBxz47S9SD79N086fuhn'
p4306
sg8
S'SUBEME LA RADIO'
p4307
ssS'5wQRNkb7OhzJoT1P0OZ4Rw'
p4308
(dp4309
g3
S'Jon Bellion'
p4310
sg5
I5
sg6
S'https://open.spotify.com/track/5wQRNkb7OhzJoT1P0OZ4Rw'
p4311
sg8
S'All Time Low'
p4312
ssS'27SdWb2rFzO6GWiYDBTD9j'
p4313
(dp4314
g3
S'Sia'
p4315
sg5
I5
sg6
S'https://open.spotify.com/track/27SdWb2rFzO6GWiYDBTD9j'
p4316
sg8
S'Cheap Thrills'
p4317
ssS'4J2RaG4UH2HCThcqzDpeAF'
p4318
(dp4319
g3
S'Imagine Dragons'
p4320
sg5
I1
sg6
S'https://open.spotify.com/track/4J2RaG4UH2HCThcqzDpeAF'
p4321
sg8
S'Start Over'
p4322
ssS'3vgNmjuRDnGLxUFGCLkwpm'
p4323
(dp4324
g3
S'David Guetta'
p4325
sg5
I1
sg6
S'https://open.spotify.com/track/3vgNmjuRDnGLxUFGCLkwpm'
p4326
sg8
S'Light My Body Up (feat. Nicki Minaj & Lil Wayne)'
p4327
ssS'77mLzdHEWRB60CLlV02TV2'
p4328
(dp4329
g3
S'Logic'
p4330
sg5
I1
sg6
S'https://open.spotify.com/track/77mLzdHEWRB60CLlV02TV2'
p4331
sg8
S'America'
p4332
ssS'5xhJmd0I15jFcEdqxfCzKk'
p4333
(dp4334
g3
S'The Chainsmokers'
p4335
sg5
I1
sg6
S'https://open.spotify.com/track/5xhJmd0I15jFcEdqxfCzKk'
p4336
sg8
S"It Won't Kill Ya"
p4337
ssS'6PJ8FF6UR8FZXfEvpHkIVN'
p4338
(dp4339
g3
S'Ed Sheeran'
p4340
sg5
I6
sg6
S'https://open.spotify.com/track/6PJ8FF6UR8FZXfEvpHkIVN'
p4341
sg8
S'How Would You Feel (Paean)'
p4342
ssS'1j4kHkkpqZRBwE0A4CN4Yv'
p4343
(dp4344
g3
S'ZAYN'
p4345
sg5
I5
sg6
S'https://open.spotify.com/track/1j4kHkkpqZRBwE0A4CN4Yv'
p4346
sg8
S'Dusk Till Dawn - Radio Edit'
p4347
ssS'2Pn76oik9rWyoBShTSNY9Q'
p4348
(dp4349
g3
S'Lana Del Rey'
p4350
sg5
I1
sg6
S'https://open.spotify.com/track/2Pn76oik9rWyoBShTSNY9Q'
p4351
sg8
S'White Mustang'
p4352
ssS'4CHp6dRZTeFAu4bSOxfH7Y'
p4353
(dp4354
g3
S'Lil Pump'
p4355
sg5
I7
sg6
S'https://open.spotify.com/track/4CHp6dRZTeFAu4bSOxfH7Y'
p4356
sg8
S'Boss'
p4357
ssS'5uCax9HTNlzGybIStD3vDh'
p4358
(dp4359
g3
S'James Arthur'
p4360
sg5
I42
sg6
S'https://open.spotify.com/track/5uCax9HTNlzGybIStD3vDh'
p4361
sg8
S"Say You Won't Let Go"
p4362
ssS'7qiZfU4dY1lWllzX7mPBI3'
p4363
(dp4364
g3
S'Ed Sheeran'
p4365
sg5
I40
sg6
S'https://open.spotify.com/track/7qiZfU4dY1lWllzX7mPBI3'
p4366
sg8
S'Shape of You'
p4367
ssS'6LOCAhFzZiavHcLJucLuDy'
p4368
(dp4369
g3
S'DJ Khaled'
p4370
sg5
I1
sg6
S'https://open.spotify.com/track/6LOCAhFzZiavHcLJucLuDy'
p4371
sg8
S"Don't Quit"
p4372
ssS'2Tuc96S4JToUiQSLW3aMec'
p4373
(dp4374
g3
S'Kesha'
p4375
sg5
I1
sg6
S'https://open.spotify.com/track/2Tuc96S4JToUiQSLW3aMec'
p4376
sg8
S'Rainbow'
p4377
ssS'5nA67Y0XX9JipZwYxX7Gl7'
p4378
(dp4379
g3
S'Niall Horan'
p4380
sg5
I10
sg6
S'https://open.spotify.com/track/5nA67Y0XX9JipZwYxX7Gl7'
p4381
sg8
S'This Town'
p4382
ssS'0wfbD5rAksdXUzRvMfM3x5'
p4383
(dp4384
g3
S'The Chainsmokers'
p4385
sg5
I11
sg6
S'https://open.spotify.com/track/0wfbD5rAksdXUzRvMfM3x5'
p4386
sg8
S'The One'
p4387
ssS'0q75NwOoFiARAVp4EXU4Bs'
p4388
(dp4389
g3
S'SZA'
p4390
sg5
I22
sg6
S'https://open.spotify.com/track/0q75NwOoFiARAVp4EXU4Bs'
p4391
sg8
S'Love Galore'
p4392
ssS'1rsAFUCa6BVMgRQ3FCQQsi'
p4393
(dp4394
g3
S'Lil Pump'
p4395
sg5
I1
sg6
S'https://open.spotify.com/track/1rsAFUCa6BVMgRQ3FCQQsi'
p4396
sg8
S'Boss'
p4397
ssS'2EEeOnHehOozLq4aS0n6SL'
p4398
(dp4399
g3
S'KYLE'
p4400
sg5
I42
sg6
S'https://open.spotify.com/track/2EEeOnHehOozLq4aS0n6SL'
p4401
sg8
S'iSpy (feat. Lil Yachty)'
p4402
ssS'2fQrGHiQOvpL9UgPvtYy6G'
p4403
(dp4404
g3
S'21 Savage'
p4405
sg5
I3
sg6
S'https://open.spotify.com/track/2fQrGHiQOvpL9UgPvtYy6G'
p4406
sg8
S'Bank Account'
p4407
ssS'05bnEv2dpFzmGVLGdjD9UP'
p4408
(dp4409
g3
S'XXXTENTACION'
p4410
sg5
I3
sg6
S'https://open.spotify.com/track/05bnEv2dpFzmGVLGdjD9UP'
p4411
sg8
S'Orlando'
p4412
ssS'6GG2tkV9PRYGN5rniXPFXZ'
p4413
(dp4414
g3
S'DRAM'
p4415
sg5
I4
sg6
S'https://open.spotify.com/track/6GG2tkV9PRYGN5rniXPFXZ'
p4416
sg8
S'Cash Machine'
p4417
ssS'7bsnTsbiwOymZWjPF9v6Di'
p4418
(dp4419
g3
S'Macklemore'
p4420
sg5
I1
sg6
S'https://open.spotify.com/track/7bsnTsbiwOymZWjPF9v6Di'
p4421
sg8
S'Marmalade (feat. Lil Yachty)'
p4422
ssS'2eAZfqOm4EnOF9VvN50Tyc'
p4423
(dp4424
g3
S'Lil Uzi Vert'
p4425
sg5
I7
sg6
S'https://open.spotify.com/track/2eAZfqOm4EnOF9VvN50Tyc'
p4426
sg8
S'The Way Life Goes'
p4427
ssS'1F2HXIJrE2Xn81OzT2zZvW'
p4428
(dp4429
g3
S'French Montana'
p4430
sg5
I13
sg6
S'https://open.spotify.com/track/1F2HXIJrE2Xn81OzT2zZvW'
p4431
sg8
S'Unforgettable'
p4432
ssS'6QgjcU0zLnzq5OrUoSZ3OK'
p4433
(dp4434
g3
S'Portugal. The Man'
p4435
sg5
I17
sg6
S'https://open.spotify.com/track/6QgjcU0zLnzq5OrUoSZ3OK'
p4436
sg8
S'Feel It Still'
p4437
ssS'4atJ40xfasjdM9ZF3p07BV'
p4438
(dp4439
g3
S'Big Sean'
p4440
sg5
I5
sg6
S'https://open.spotify.com/track/4atJ40xfasjdM9ZF3p07BV'
p4441
sg8
S'Halfway Off The Balcony'
p4442
ssS'77zIq99gy96DGkMak3a2wF'
p4443
(dp4444
g3
S'Future'
p4445
sg5
I1
sg6
S'https://open.spotify.com/track/77zIq99gy96DGkMak3a2wF'
p4446
sg8
S"Poppin' Tags"
p4447
ssS'5kNe7PE09d6Kvw5pAsx23n'
p4448
(dp4449
g3
S'Thomas Rhett'
p4450
sg5
I5
sg6
S'https://open.spotify.com/track/5kNe7PE09d6Kvw5pAsx23n'
p4451
sg8
S'Die A Happy Man'
p4452
ssS'78rIJddV4X0HkNAInEcYde'
p4453
(dp4454
g3
S'Starley'
p4455
sg5
I25
sg6
S'https://open.spotify.com/track/78rIJddV4X0HkNAInEcYde'
p4456
sg8
S'Call On Me - Ryan Riback Extended Remix'
p4457
ssS'0L7loeTIg6akW84aEQZpCT'
p4458
(dp4459
g3
S'Major Lazer'
p4460
sg5
I1
sg6
S'https://open.spotify.com/track/0L7loeTIg6akW84aEQZpCT'
p4461
sg8
S'Light It Up (feat. Nyla & Fuse ODG) - Remix'
p4462
ssS'5GG3knKdxKWrNboRijxeKF'
p4463
(dp4464
g3
S'Bryson Tiller'
p4465
sg5
I17
sg6
S'https://open.spotify.com/track/5GG3knKdxKWrNboRijxeKF'
p4466
sg8
S'Run Me Dry'
p4467
ssS'4Q5yMlwAfAoitqg4r9oZHN'
p4468
(dp4469
g3
S'Cashmere Cat'
p4470
sg5
I9
sg6
S'https://open.spotify.com/track/4Q5yMlwAfAoitqg4r9oZHN'
p4471
sg8
S'Quit (feat. Ariana Grande)'
p4472
ssS'55OdqrG8WLmsYyY1jijD9b'
p4473
(dp4474
g3
S'Young Thug'
p4475
sg5
I16
sg6
S'https://open.spotify.com/track/55OdqrG8WLmsYyY1jijD9b'
p4476
sg8
S'Wyclef Jean'
p4477
ssS'1vvNmPOiUuyCbgWmtc6yfm'
p4478
(dp4479
g3
S'Calvin Harris'
p4480
sg5
I5
sg6
S'https://open.spotify.com/track/1vvNmPOiUuyCbgWmtc6yfm'
p4481
sg8
S'My Way'
p4482
ssS'204U3zjm9kkzX25Pr4Rdld'
p4483
(dp4484
g3
S'Migos'
p4485
sg5
I12
sg6
S'https://open.spotify.com/track/204U3zjm9kkzX25Pr4Rdld'
p4486
sg8
S'Kelly Price (feat. Travis Scott)'
p4487
ssS'5TXDeTFVRVY7Cvt0Dw4vWW'
p4488
(dp4489
g3
S'XXXTENTACION'
p4490
sg5
I7
sg6
S'https://open.spotify.com/track/5TXDeTFVRVY7Cvt0Dw4vWW'
p4491
sg8
S'Revenge'
p4492
ssS'3nxgKa7boB4WjD0X01MXtJ'
p4493
(dp4494
g3
S'PnB Rock'
p4495
sg5
I1
sg6
S'https://open.spotify.com/track/3nxgKa7boB4WjD0X01MXtJ'
p4496
sg8
S'Misunderstood'
p4497
ssS'312WNtMs3F28cUukaPY9bo'
p4498
(dp4499
g3
S'Khalid'
p4500
sg5
I2
sg6
S'https://open.spotify.com/track/312WNtMs3F28cUukaPY9bo'
p4501
sg8
S'American Teen'
p4502
ssS'167NczpNbRF7oWakJaY3Hh'
p4503
(dp4504
g3
S'Niall Horan'
p4505
sg5
I23
sg6
S'https://open.spotify.com/track/167NczpNbRF7oWakJaY3Hh'
p4506
sg8
S'Slow Hands'
p4507
ssS'0or0gNaKAXYYCsOrpvRzAu'
p4508
(dp4509
g3
S'Lorde'
p4510
sg5
I3
sg6
S'https://open.spotify.com/track/0or0gNaKAXYYCsOrpvRzAu'
p4511
sg8
S'Liability'
p4512
ssS'19a3JfW8BQwqHWUMbcqSx8'
p4513
(dp4514
g3
S'Kanye West'
p4515
sg5
I8
sg6
S'https://open.spotify.com/track/19a3JfW8BQwqHWUMbcqSx8'
p4516
sg8
S'Famous'
p4517
ssS'0zcmVx57BsnlYaPu7k2e2e'
p4518
(dp4519
g3
S'21 Savage'
p4520
sg5
I1
sg6
S'https://open.spotify.com/track/0zcmVx57BsnlYaPu7k2e2e'
p4521
sg8
S'Whole Lot'
p4522
ssS'4UdzNCjI27SvzXvV1m0CKM'
p4523
(dp4524
g3
S'Trippie Redd'
p4525
sg5
I2
sg6
S'https://open.spotify.com/track/4UdzNCjI27SvzXvV1m0CKM'
p4526
sg8
S'Bust Down'
p4527
ssS'133V82vMO7TB1WYehNUMwW'
p4528
(dp4529
g3
S'Future'
p4530
sg5
I1
sg6
S'https://open.spotify.com/track/133V82vMO7TB1WYehNUMwW'
p4531
sg8
S'Outta Time'
p4532
ssS'5geeTRRcsIg0MS5TvtBtHU'
p4533
(dp4534
g3
S'GoldLink'
p4535
sg5
I2
sg6
S'https://open.spotify.com/track/5geeTRRcsIg0MS5TvtBtHU'
p4536
sg8
S'Crew REMIX'
p4537
ssS'0xG0SHshCStMEyNbNC5d4k'
p4538
(dp4539
g3
S'Julia Michaels'
p4540
sg5
I9
sg6
S'https://open.spotify.com/track/0xG0SHshCStMEyNbNC5d4k'
p4541
sg8
S'Issues'
p4542
ssS'7yHEDfrJNd0zWOfXwydNH0'
p4543
(dp4544
g3
S'Ariana Grande'
p4545
sg5
I11
sg6
S'https://open.spotify.com/track/7yHEDfrJNd0zWOfXwydNH0'
p4546
sg8
S'Into You'
p4547
ssS'4YkwUfWSIxdKNLDXw0caFO'
p4548
(dp4549
g3
S'Chris Brown'
p4550
sg5
I2
sg6
S'https://open.spotify.com/track/4YkwUfWSIxdKNLDXw0caFO'
p4551
sg8
S'Pills & Automobiles'
p4552
ssS'1lntL1cI2UIWlxjL5QiN8g'
p4553
(dp4554
g3
S'Lauv'
p4555
sg5
I14
sg6
S'https://open.spotify.com/track/1lntL1cI2UIWlxjL5QiN8g'
p4556
sg8
S'The Other'
p4557
ssS'2wSQyp6VzUopSFBinRo1iD'
p4558
(dp4559
g3
S'Kehlani'
p4560
sg5
I1
sg6
S'https://open.spotify.com/track/2wSQyp6VzUopSFBinRo1iD'
p4561
sg8
S'Distraction'
p4562
ssS'7yeNCRqvnoAskALhUuSxwi'
p4563
(dp4564
g3
S'A Boogie Wit da Hoodie'
p4565
sg5
I1
sg6
S'https://open.spotify.com/track/7yeNCRqvnoAskALhUuSxwi'
p4566
sg8
S"Say A'"
p4567
ssS'63OQWdXMq0Pe6pRpWY5gO0'
p4568
(dp4569
g3
S'Thomas Rhett'
p4570
sg5
I2
sg6
S'https://open.spotify.com/track/63OQWdXMq0Pe6pRpWY5gO0'
p4571
sg8
S'Star Of The Show'
p4572
ssS'1839RWzPRZCVgvamu4sHSN'
p4573
(dp4574
g3
S'Cash Cash'
p4575
sg5
I5
sg6
S'https://open.spotify.com/track/1839RWzPRZCVgvamu4sHSN'
p4576
sg8
S'All My Love (feat. Conor Maynard)'
p4577
ssS'07pJdL0L9XDGW0HBj0rIS2'
p4578
(dp4579
g3
S'MadeinTYO'
p4580
sg5
I18
sg6
S'https://open.spotify.com/track/07pJdL0L9XDGW0HBj0rIS2'
p4581
sg8
S'Skateboard P (feat. Big Sean)'
p4582
ssS'5Db9VIdDsN5yu3Eu7CT0i4'
p4583
(dp4584
g3
S'Sam Smith'
p4585
sg5
I1
sg6
S'https://open.spotify.com/track/5Db9VIdDsN5yu3Eu7CT0i4'
p4586
sg8
S'Stay With Me'
p4587
ssS'11KJSRSgaDxqydKYiD2Jew'
p4588
(dp4589
g3
S'Drake'
p4590
sg5
I18
sg6
S'https://open.spotify.com/track/11KJSRSgaDxqydKYiD2Jew'
p4591
sg8
S'Too Good'
p4592
ssS'52LjL3x9tNh6C4eI6SMceX'
p4593
(dp4594
g3
S'Bryson Tiller'
p4595
sg5
I1
sg6
S'https://open.spotify.com/track/52LjL3x9tNh6C4eI6SMceX'
p4596
sg8
S'Rain On Me (Intro)'
p4597
ssS'3zoYkqS4y2BsGVShPL2nTE'
p4598
(dp4599
g3
S'CNCO'
p4600
sg5
I7
sg6
S'https://open.spotify.com/track/3zoYkqS4y2BsGVShPL2nTE'
p4601
sg8
S'Reggaet\xc3\xb3n Lento (Remix) [CNCO & Little Mix]'
p4602
ssS'1yNyoWWWikbLhwIGWjZuDW'
p4603
(dp4604
g3
S'The Vamps'
p4605
sg5
I14
sg6
S'https://open.spotify.com/track/1yNyoWWWikbLhwIGWjZuDW'
p4606
sg8
S'All Night'
p4607
ssS'26AuyrZGzWWiYZPSd3XBIg'
p4608
(dp4609
g3
S'The Chainsmokers'
p4610
sg5
I2
sg6
S'https://open.spotify.com/track/26AuyrZGzWWiYZPSd3XBIg'
p4611
sg8
S'Bloodstream'
p4612
ssS'4lozYCMRLtEc46exlhoK2Q'
p4613
(dp4614
g3
S'Future'
p4615
sg5
I8
sg6
S'https://open.spotify.com/track/4lozYCMRLtEc46exlhoK2Q'
p4616
sg8
S"I'm so Groovy"
p4617
ssS'51lPx6ZCSalL2kvSrDUyJc'
p4618
(dp4619
g3
S'John Mayer'
p4620
sg5
I1
sg6
S'https://open.spotify.com/track/51lPx6ZCSalL2kvSrDUyJc'
p4621
sg8
S"You're Gonna Live Forever in Me"
p4622
ssS'3Dwq1oiOFys6Sxr5SslmXw'
p4623
(dp4624
g3
S'Harry Styles'
p4625
sg5
I2
sg6
S'https://open.spotify.com/track/3Dwq1oiOFys6Sxr5SslmXw'
p4626
sg8
S'Carolina'
p4627
ssS'1jYiIOC5d6soxkJP81fxq2'
p4628
(dp4629
g3
S'DJ Khaled'
p4630
sg5
I1
sg6
S'https://open.spotify.com/track/1jYiIOC5d6soxkJP81fxq2'
p4631
sg8
S"I'm the One"
p4632
ssS'4vb4mFvYsr2h6enhjJsq9Y'
p4633
(dp4634
g3
S'Adele'
p4635
sg5
I12
sg6
S'https://open.spotify.com/track/4vb4mFvYsr2h6enhjJsq9Y'
p4636
sg8
S'Water Under the Bridge'
p4637
ssS'6cPyTS0Kk2sc4xQwC93kOg'
p4638
(dp4639
g3
S'The Chainsmokers'
p4640
sg5
I8
sg6
S'https://open.spotify.com/track/6cPyTS0Kk2sc4xQwC93kOg'
p4641
sg8
S'Break Up Every Night'
p4642
ssS'2kVHAQKVtczchKctctzbtK'
p4643
(dp4644
g3
S'Katy Perry'
p4645
sg5
I5
sg6
S'https://open.spotify.com/track/2kVHAQKVtczchKctctzbtK'
p4646
sg8
S'Swish Swish'
p4647
ssS'0kdiUZDcLIFw0Buo9r0Q4z'
p4648
(dp4649
g3
S'LANCO'
p4650
sg5
I3
sg6
S'https://open.spotify.com/track/0kdiUZDcLIFw0Buo9r0Q4z'
p4651
sg8
S'Greatest Love Story'
p4652
ssS'17Fd6Yb7mSbinKG8LoWfFl'
p4653
(dp4654
g3
S'Mike Posner'
p4655
sg5
I14
sg6
S'https://open.spotify.com/track/17Fd6Yb7mSbinKG8LoWfFl'
p4656
sg8
S'I Took A Pill In Ibiza - Seeb Remix'
p4657
ssS'7zTx8ePYAmPFQuxP3xlXZn'
p4658
(dp4659
g3
S'San Holo'
p4660
sg5
I9
sg6
S'https://open.spotify.com/track/7zTx8ePYAmPFQuxP3xlXZn'
p4661
sg8
S'Light'
p4662
ssS'4tCtwWceOPWzenK2HAIJSb'
p4663
(dp4664
g3
S'Fifth Harmony'
p4665
sg5
I16
sg6
S'https://open.spotify.com/track/4tCtwWceOPWzenK2HAIJSb'
p4666
sg8
S'Work from Home'
p4667
ssS'7mldq42yDuxiUNn08nvzHO'
p4668
(dp4669
g3
S'Sam Hunt'
p4670
sg5
I36
sg6
S'https://open.spotify.com/track/7mldq42yDuxiUNn08nvzHO'
p4671
sg8
S'Body Like A Back Road'
p4672
ssS'3MWlVSkoLS1e66nlZ2tuWJ'
p4673
(dp4674
g3
S'J. Cole'
p4675
sg5
I3
sg6
S'https://open.spotify.com/track/3MWlVSkoLS1e66nlZ2tuWJ'
p4676
sg8
S'For Whom The Bell Tolls'
p4677
ssS'3hB5DgAiMAQ4DzYbsMq1IT'
p4678
(dp4679
g3
S'Justin Bieber'
p4680
sg5
I7
sg6
S'https://open.spotify.com/track/3hB5DgAiMAQ4DzYbsMq1IT'
p4681
sg8
S'Love Yourself'
p4682
ssS'32OWobmyAz8J2qA8iWekyS'
p4683
(dp4684
g3
S'Justin Bieber'
p4685
sg5
I1
sg6
S'https://open.spotify.com/track/32OWobmyAz8J2qA8iWekyS'
p4686
sg8
S'Mistletoe'
p4687
ssS'6XOYVSmNDjKUNMXooU4s4z'
p4688
(dp4689
g3
S'OneRepublic'
p4690
sg5
I10
sg6
S'https://open.spotify.com/track/6XOYVSmNDjKUNMXooU4s4z'
p4691
sg8
S'No Vacancy'
p4692
ssS'2pmYug1wWd0WoK5tpbsbKL'
p4693
(dp4694
g3
S'21 Savage'
p4695
sg5
I1
sg6
S'https://open.spotify.com/track/2pmYug1wWd0WoK5tpbsbKL'
p4696
sg8
S'Dead People'
p4697
ssS'6oNZ0WxqptE7V0qpjtyJ4a'
p4698
(dp4699
g3
S'ODESZA'
p4700
sg5
I1
sg6
S'https://open.spotify.com/track/6oNZ0WxqptE7V0qpjtyJ4a'
p4701
sg8
S'Falls (feat. Sasha Sloan)'
p4702
ssS'60xaS8mYBKUW4VQQ666N0T'
p4703
(dp4704
g3
S'Chance The Rapper'
p4705
sg5
I16
sg6
S'https://open.spotify.com/track/60xaS8mYBKUW4VQQ666N0T'
p4706
sg8
S'All Night (feat. Knox Fortune)'
p4707
ssS'0NZUqq4iLQddokgtiC44Kb'
p4708
(dp4709
g3
S'Future'
p4710
sg5
I1
sg6
S'https://open.spotify.com/track/0NZUqq4iLQddokgtiC44Kb'
p4711
sg8
S'PIE'
p4712
ssS'6AGON2BGdPmPMJGiiNuuwl'
p4713
(dp4714
g3
S'J. Cole'
p4715
sg5
I11
sg6
S'https://open.spotify.com/track/6AGON2BGdPmPMJGiiNuuwl'
p4716
sg8
S'Immortal'
p4717
ssS'3NJG6vMH1ZsectZkocMEm0'
p4718
(dp4719
g3
S'Desiigner'
p4720
sg5
I5
sg6
S'https://open.spotify.com/track/3NJG6vMH1ZsectZkocMEm0'
p4721
sg8
S'Tiimmy Turner'
p4722
ssS'6PGoSes0D9eUDeeAafB2As'
p4723
(dp4724
g3
S'Kendrick Lamar'
p4725
sg5
I26
sg6
S'https://open.spotify.com/track/6PGoSes0D9eUDeeAafB2As'
p4726
sg8
S'LOVE. FEAT. ZACARI.'
p4727
ssS'1lItf5ZXJc1by9SbPeljFd'
p4728
(dp4729
g3
S'Zay Hilfigerrr'
p4730
sg5
I7
sg6
S'https://open.spotify.com/track/1lItf5ZXJc1by9SbPeljFd'
p4731
sg8
S'Juju On That Beat (TZ Anthem)'
p4732
ssS'6DxqrwlrHERRkUw9yXIGjd'
p4733
(dp4734
g3
S'DJ Khaled'
p4735
sg5
I1
sg6
S'https://open.spotify.com/track/6DxqrwlrHERRkUw9yXIGjd'
p4736
sg8
S'I Love You so Much'
p4737
ss.